	.file	"bl_pwm.c"
	.option nopic
	.attribute arch, "rv32i2p0_m2p0_f2p0_c2p0"
	.attribute unaligned_access, 0
	.attribute stack_align, 16
	.text
.Ltext0:
	.cfi_sections	.debug_frame
	.section	.text.bl_pwm_init,"ax",@progbits
	.align	1
	.globl	bl_pwm_init
	.type	bl_pwm_init, @function
bl_pwm_init:
.LFB11:
	.file 1 "/b-l/bl_iot_sdk/components/hal_drv/bl602_hal/bl_pwm.c"
	.loc 1 82 1
	.cfi_startproc
.LVL0:
	.loc 1 83 5
	.loc 1 83 8 is_stmt 0
	li	a5,22
	bgtu	a1,a5,.L6
	.loc 1 82 1
	addi	sp,sp,-32
	.cfi_def_cfa_offset 32
	.loc 1 88 8
	li	a5,798720
	.loc 1 82 1
	sw	s0,24(sp)
	sw	s1,20(sp)
	sw	ra,28(sp)
	.cfi_offset 8, -8
	.cfi_offset 9, -12
	.cfi_offset 1, -4
	.loc 1 88 23
	addi	a4,a2,-2000
	.loc 1 88 8
	addi	a5,a5,-720
	mv	s0,a2
	mv	s1,a0
	.loc 1 88 5 is_stmt 1
	.loc 1 88 8 is_stmt 0
	bleu	a4,a5,.L3
	.loc 1 89 9 is_stmt 1 discriminator 1
	.loc 1 89 47 discriminator 1
	.loc 1 89 52 discriminator 1
	.loc 1 89 75 is_stmt 0 discriminator 1
	lui	a5,%hi(_fsymc_level_hal_drv)
	.loc 1 89 55 discriminator 1
	lbu	a4,%lo(_fsymc_level_hal_drv)(a5)
	li	a5,4
	.loc 1 84 16 discriminator 1
	li	a0,-1
.LVL1:
	.loc 1 89 55 discriminator 1
	bgtu	a4,a5,.L1
	.loc 1 89 121 discriminator 3
	lui	a4,%hi(_fsymf_level_hal_drvbl_pwm)
	.loc 1 89 100 discriminator 3
	lbu	a4,%lo(_fsymf_level_hal_drvbl_pwm)(a4)
	bgtu	a4,a5,.L1
	.loc 1 89 156 is_stmt 1
.LBB10:
.LBB11:
	.file 2 "/b-l/bl_iot_sdk/components/bl602/freertos_riscv_ram/portable/GCC/RISC-V/portmacro.h"
	.loc 2 151 5
	.loc 2 151 31 is_stmt 0
	lui	a5,%hi(TrapNetCounter)
.LBE11:
.LBE10:
	.loc 1 89 156
	lw	a5,%lo(TrapNetCounter)(a5)
	beq	a5,zero,.L4
	.loc 1 89 257 discriminator 7
	call	xTaskGetTickCountFromISR
.LVL2:
.L5:
	.loc 1 89 156 discriminator 10
	mv	a1,a0
	lui	a3,%hi(.LC0)
	lui	a2,%hi(.LC1)
	lui	a0,%hi(.LC2)
	addi	a0,a0,%lo(.LC2)
	mv	a5,s0
	li	a4,89
	addi	a3,a3,%lo(.LC0)
	addi	a2,a2,%lo(.LC1)
	call	bl_printk
.LVL3:
	.loc 1 90 16 discriminator 10
	li	a0,-1
.L1:
	.loc 1 98 1
	lw	ra,28(sp)
	.cfi_remember_state
	.cfi_restore 1
	lw	s0,24(sp)
	.cfi_restore 8
.LVL4:
	lw	s1,20(sp)
	.cfi_restore 9
	addi	sp,sp,32
	.cfi_def_cfa_offset 0
	jr	ra
.LVL5:
.L4:
	.cfi_restore_state
	.loc 1 89 286 discriminator 8
	call	xTaskGetTickCount
.LVL6:
	j	.L5
.LVL7:
.L3:
	.loc 1 94 5 is_stmt 1
.LBB12:
.LBB13:
	.loc 1 41 2
	.loc 1 43 2
	.loc 1 44 2
	.loc 1 45 2
	.loc 1 46 2
	.loc 1 47 5
	.loc 1 48 17 is_stmt 0
	li	a5,8
	sb	a5,1(sp)
	.loc 1 45 15
	li	a5,257
	sh	a5,2(sp)
	.loc 1 50 5
	mv	a0,sp
.LVL8:
	.loc 1 43 12
	li	a5,256
	.loc 1 47 17
	sb	a1,0(sp)
	.loc 1 48 5 is_stmt 1
	.loc 1 43 12 is_stmt 0
	sh	a5,4(sp)
	.loc 1 50 5 is_stmt 1
	call	GLB_GPIO_Init
.LVL9:
.LBE13:
.LBE12:
	.loc 1 95 5
.LBB14:
.LBB15:
	.loc 1 55 5
	.loc 1 72 29 is_stmt 0
	li	a4,40001536
	addi	a4,a4,-1536
	divu	a4,a4,s0
	.loc 1 55 21
	sw	zero,0(sp)
	sw	zero,4(sp)
	.loc 1 75 5
	mv	a0,s1
	.loc 1 55 21
	sw	zero,8(sp)
	sh	zero,12(sp)
	.loc 1 68 5 is_stmt 1
	.loc 1 72 5
	.loc 1 73 15 is_stmt 0
	sb	s1,0(sp)
	.loc 1 72 19
	sh	a4,6(sp)
	.loc 1 73 5 is_stmt 1
	.loc 1 75 5
	call	PWM_Channel_Disable
.LVL10:
	.loc 1 76 5
	mv	a0,sp
	call	PWM_Channel_Init
.LVL11:
	.loc 1 78 5
.LBE15:
.LBE14:
	.loc 1 97 12 is_stmt 0
	li	a0,0
	j	.L1
.LVL12:
.L6:
	.cfi_def_cfa_offset 0
	.cfi_restore 1
	.cfi_restore 8
	.cfi_restore 9
	.loc 1 84 16
	li	a0,-1
.LVL13:
	.loc 1 98 1
	ret
	.cfi_endproc
.LFE11:
	.size	bl_pwm_init, .-bl_pwm_init
	.section	.text.bl_pwm_start,"ax",@progbits
	.align	1
	.globl	bl_pwm_start
	.type	bl_pwm_start, @function
bl_pwm_start:
.LFB12:
	.loc 1 101 1 is_stmt 1
	.cfi_startproc
.LVL14:
	.loc 1 102 5
	.loc 1 101 1 is_stmt 0
	addi	sp,sp,-16
	.cfi_def_cfa_offset 16
	sw	ra,12(sp)
	.cfi_offset 1, -4
	.loc 1 102 5
	call	PWM_Channel_Enable
.LVL15:
	.loc 1 103 5 is_stmt 1
	.loc 1 104 1 is_stmt 0
	lw	ra,12(sp)
	.cfi_restore 1
	li	a0,0
	addi	sp,sp,16
	.cfi_def_cfa_offset 0
	jr	ra
	.cfi_endproc
.LFE12:
	.size	bl_pwm_start, .-bl_pwm_start
	.section	.text.bl_pwm_stop,"ax",@progbits
	.align	1
	.globl	bl_pwm_stop
	.type	bl_pwm_stop, @function
bl_pwm_stop:
.LFB13:
	.loc 1 107 1 is_stmt 1
	.cfi_startproc
.LVL16:
	.loc 1 108 5
	.loc 1 107 1 is_stmt 0
	addi	sp,sp,-16
	.cfi_def_cfa_offset 16
	sw	ra,12(sp)
	.cfi_offset 1, -4
	.loc 1 108 5
	call	PWM_Channel_Disable
.LVL17:
	.loc 1 109 5 is_stmt 1
	.loc 1 110 1 is_stmt 0
	lw	ra,12(sp)
	.cfi_restore 1
	li	a0,0
	addi	sp,sp,16
	.cfi_def_cfa_offset 0
	jr	ra
	.cfi_endproc
.LFE13:
	.size	bl_pwm_stop, .-bl_pwm_stop
	.section	.text.bl_pwm_set_freq,"ax",@progbits
	.align	1
	.globl	bl_pwm_set_freq
	.type	bl_pwm_set_freq, @function
bl_pwm_set_freq:
.LFB14:
	.loc 1 113 1 is_stmt 1
	.cfi_startproc
.LVL18:
	.loc 1 114 5
	.loc 1 113 1 is_stmt 0
	addi	sp,sp,-32
	.cfi_def_cfa_offset 32
	sw	ra,28(sp)
	sw	s0,24(sp)
	.cfi_offset 1, -4
	.cfi_offset 8, -8
	.loc 1 113 1
	sw	a1,12(sp)
	mv	s0,a0
	.loc 1 114 5
	call	PWM_Channel_Disable
.LVL19:
	.loc 1 116 5 is_stmt 1
	.loc 1 117 5
	.loc 1 118 5
	.loc 1 120 5
	.loc 1 116 31 is_stmt 0
	lw	a1,12(sp)
	li	a5,40001536
	addi	a5,a5,-1536
	divu	a1,a5,a1
	.loc 1 120 5
	mv	a0,s0
	li	a3,0
	li	a2,0
	slli	a1,a1,16
	srli	a1,a1,16
	call	PWM_Channel_Update
.LVL20:
	.loc 1 121 5 is_stmt 1
	mv	a0,s0
	call	PWM_Channel_Enable
.LVL21:
	.loc 1 123 5
	.loc 1 124 1 is_stmt 0
	lw	ra,28(sp)
	.cfi_restore 1
	lw	s0,24(sp)
	.cfi_restore 8
	li	a0,0
	addi	sp,sp,32
	.cfi_def_cfa_offset 0
.LVL22:
	jr	ra
	.cfi_endproc
.LFE14:
	.size	bl_pwm_set_freq, .-bl_pwm_set_freq
	.section	.text.bl_pwm_set_duty,"ax",@progbits
	.align	1
	.globl	bl_pwm_set_duty
	.type	bl_pwm_set_duty, @function
bl_pwm_set_duty:
.LFB15:
	.loc 1 127 1 is_stmt 1
	.cfi_startproc
.LVL23:
	.loc 1 128 5
	.loc 1 129 5
	.loc 1 130 5
	.loc 1 132 5
	.loc 1 127 1 is_stmt 0
	addi	sp,sp,-48
	.cfi_def_cfa_offset 48
	.loc 1 132 5
	addi	a3,sp,30
	addi	a2,sp,28
	addi	a1,sp,26
	.loc 1 127 1
	sw	ra,44(sp)
	sw	s0,40(sp)
	.cfi_offset 1, -4
	.cfi_offset 8, -8
	.loc 1 127 1
	fsw	fa0,12(sp)
	mv	s0,a0
	.loc 1 132 5
	call	PWM_Channel_Get
.LVL24:
	.loc 1 134 5 is_stmt 1
	.loc 1 135 35 is_stmt 0
	lhu	a5,26(sp)
	li	a4,100
	.loc 1 135 40
	flw	fa0,12(sp)
	.loc 1 135 35
	divu	a5,a5,a4
	.loc 1 137 5
	mv	a0,s0
	li	a1,0
	.loc 1 134 16
	sh	zero,28(sp)
	.loc 1 135 5 is_stmt 1
	.loc 1 135 40 is_stmt 0
	fcvt.s.w	fa5,a5
	fmul.s	fa5,fa5,fa0
	.loc 1 135 18
	fcvt.wu.s a5,fa5,rtz
	sh	a5,30(sp)
	.loc 1 137 5 is_stmt 1
	call	PWM_Channel_Set_Threshold1
.LVL25:
	.loc 1 138 5
	lhu	a1,30(sp)
	mv	a0,s0
	call	PWM_Channel_Set_Threshold2
.LVL26:
	.loc 1 139 5
	.loc 1 140 1 is_stmt 0
	lw	ra,44(sp)
	.cfi_restore 1
	lw	s0,40(sp)
	.cfi_restore 8
	li	a0,0
	addi	sp,sp,48
	.cfi_def_cfa_offset 0
.LVL27:
	jr	ra
	.cfi_endproc
.LFE15:
	.size	bl_pwm_set_duty, .-bl_pwm_set_duty
	.section	.text.bl_pwm_get_duty,"ax",@progbits
	.align	1
	.globl	bl_pwm_get_duty
	.type	bl_pwm_get_duty, @function
bl_pwm_get_duty:
.LFB16:
	.loc 1 143 1 is_stmt 1
	.cfi_startproc
.LVL28:
	.loc 1 144 5
	.loc 1 145 5
	.loc 1 146 5
	.loc 1 148 5
	.loc 1 148 8 is_stmt 0
	beq	a1,zero,.L23
	.loc 1 143 1
	addi	sp,sp,-32
	.cfi_def_cfa_offset 32
	sw	s0,24(sp)
	.loc 1 151 5
	addi	a3,sp,14
	.cfi_offset 8, -8
	mv	s0,a1
	.loc 1 151 5 is_stmt 1
	addi	a2,sp,12
	addi	a1,sp,10
.LVL29:
	.loc 1 143 1 is_stmt 0
	sw	ra,28(sp)
	.cfi_offset 1, -4
	.loc 1 151 5
	call	PWM_Channel_Get
.LVL30:
	.loc 1 153 5 is_stmt 1
	.loc 1 153 15 is_stmt 0
	lhu	a5,14(sp)
	.loc 1 155 12
	li	a0,0
	.loc 1 153 15
	fcvt.s.wu	fa5,a5
	.loc 1 153 33
	lui	a5,%hi(.LC3)
	flw	fa4,%lo(.LC3)(a5)
	.loc 1 153 39
	lhu	a5,10(sp)
	.loc 1 153 33
	fmul.s	fa5,fa5,fa4
	.loc 1 153 39
	fcvt.s.w	fa4,a5
	fdiv.s	fa5,fa5,fa4
	.loc 1 153 13
	fsw	fa5,0(s0)
	.loc 1 155 5 is_stmt 1
	.loc 1 156 1 is_stmt 0
	lw	ra,28(sp)
	.cfi_restore 1
	lw	s0,24(sp)
	.cfi_restore 8
.LVL31:
	addi	sp,sp,32
	.cfi_def_cfa_offset 0
	jr	ra
.LVL32:
.L23:
	.loc 1 149 16
	li	a0,-1
.LVL33:
	.loc 1 156 1
	ret
	.cfi_endproc
.LFE16:
	.size	bl_pwm_get_duty, .-bl_pwm_get_duty
	.globl	_fsymf_info_hal_drvbl_pwm
	.comm	_fsymf_level_hal_drvbl_pwm,1,1
	.comm	_fsymc_level_hal_drv,1,1
	.section	.rodata.bl_pwm_get_duty.cst4,"aM",@progbits,4
	.align	2
.LC3:
	.word	1120403456
	.section	.rodata.bl_pwm_init.str1.4,"aMS",@progbits,1
	.align	2
.LC0:
	.string	"bl_pwm.c"
	.zero	3
.LC1:
	.string	"\033[31mERROR \033[0m"
.LC2:
	.string	"[%10u][%s: %s:%4d] arg error. bl_pwm_init freq = %ld\r\n"
	.section	.rodata.str1.4,"aMS",@progbits,1
	.align	2
.LC4:
	.string	"hal_drv.bl_pwm"
	.zero	1
.LC5:
	.string	"hal_drv"
	.section	.sdata2.BLOG_HARD_DECLARE_DISABLE,"a"
	.align	2
	.type	BLOG_HARD_DECLARE_DISABLE, @object
	.size	BLOG_HARD_DECLARE_DISABLE, 4
BLOG_HARD_DECLARE_DISABLE:
	.zero	4
	.section	.static_blogcomponent_code.hal_drv,"a"
	.align	2
	.type	_fsymc_info_hal_drv, @object
	.size	_fsymc_info_hal_drv, 8
_fsymc_info_hal_drv:
	.word	_fsymc_level_hal_drv
	.word	.LC5
	.section	.static_blogfile_code.hal_drvbl_pwm,"a"
	.align	2
	.type	_fsymf_info_hal_drvbl_pwm, @object
	.size	_fsymf_info_hal_drvbl_pwm, 8
_fsymf_info_hal_drvbl_pwm:
	.word	_fsymf_level_hal_drvbl_pwm
	.word	.LC4
	.text
.Letext0:
	.file 3 "/b-l/bl_iot_sdk/toolchain/riscv/Linux/lib/gcc/riscv64-unknown-elf/8.3.0/include/stdint-gcc.h"
	.file 4 "/b-l/bl_iot_sdk/toolchain/riscv/Linux/lib/gcc/riscv64-unknown-elf/8.3.0/include/stddef.h"
	.file 5 "/b-l/bl_iot_sdk/toolchain/riscv/Linux/riscv64-unknown-elf/include/sys/_types.h"
	.file 6 "/b-l/bl_iot_sdk/toolchain/riscv/Linux/riscv64-unknown-elf/include/sys/reent.h"
	.file 7 "/b-l/bl_iot_sdk/toolchain/riscv/Linux/riscv64-unknown-elf/include/sys/lock.h"
	.file 8 "/b-l/bl_iot_sdk/components/bl602/bl602_std/bl602_std/RISCV/Device/Bouffalo/BL602/Startup/system_bl602.h"
	.file 9 "/b-l/bl_iot_sdk/components/bl602/bl602_std/bl602_std/StdDriver/Inc/bl602_common.h"
	.file 10 "/b-l/bl_iot_sdk/components/bl602/bl602_std/bl602_std/StdDriver/Inc/bl602_pwm.h"
	.file 11 "/b-l/bl_iot_sdk/components/bl602/bl602_std/bl602_std/StdDriver/Inc/bl602_gpio.h"
	.file 12 "/b-l/bl_iot_sdk/components/stage/blog/blog_type.h"
	.file 13 "/b-l/bl_iot_sdk/components/stage/blog/blog.h"
	.file 14 "/b-l/bl_iot_sdk/components/bl602/bl602_std/bl602_std/StdDriver/Inc/bl602_glb.h"
	.file 15 "/b-l/bl_iot_sdk/components/bl602/freertos_riscv_ram/config/task.h"
	.file 16 "/b-l/bl_iot_sdk/components/utils/include/utils_log.h"