	.file	"bl_uart.c"
	.option nopic
	.attribute arch, "rv32i2p0_m2p0_f2p0_c2p0"
	.attribute unaligned_access, 0
	.attribute stack_align, 16
	.text
.Ltext0:
	.cfi_sections	.debug_frame
	.section	.text.bl_uart_init,"ax",@progbits
	.align	1
	.globl	bl_uart_init
	.type	bl_uart_init, @function
bl_uart_init:
.LFB9:
	.file 1 "/b-l/bl_iot_sdk/components/hal_drv/bl602_hal/bl_uart.c"
	.loc 1 86 1
	.cfi_startproc
.LVL0:
	.loc 1 87 5
	.loc 1 88 5
	.loc 1 90 5
	.loc 1 86 1 is_stmt 0
	addi	sp,sp,-64
	.cfi_def_cfa_offset 64
	sw	s3,44(sp)
	.cfi_offset 19, -20
	mv	s3,a1
	.loc 1 90 19
	lui	a1,%hi(.LANCHOR0)
.LVL1:
	.loc 1 86 1
	sw	s0,56(sp)
	sw	s2,48(sp)
	.cfi_offset 8, -8
	.cfi_offset 18, -16
	mv	s0,a0
	mv	s2,a2
	.loc 1 90 19
	addi	a1,a1,%lo(.LANCHOR0)
	li	a2,16
.LVL2:
	addi	a0,sp,16
.LVL3:
	.loc 1 86 1
	sw	s1,52(sp)
	sw	s4,40(sp)
	sw	ra,60(sp)
	.cfi_offset 9, -12
	.cfi_offset 20, -24
	.cfi_offset 1, -4
	.loc 1 86 1
	mv	s4,a5
	.loc 1 90 19
	call	memcpy
.LVL4:
	.loc 1 102 5 is_stmt 1
	.loc 1 102 23 is_stmt 0
	lui	a5,%hi(.LC1)
	lw	a5,%lo(.LC1)(a5)
	.loc 1 111 11
	lui	s1,%hi(.LANCHOR1)
	addi	s1,s1,%lo(.LANCHOR1)
	.loc 1 102 23
	sw	a5,4(sp)
	.loc 1 111 5 is_stmt 1
	.loc 1 111 8 is_stmt 0
	lbu	a5,0(s1)
	bne	a5,zero,.L2
	.loc 1 112 9 is_stmt 1
	li	a2,3
	li	a1,1
	li	a0,1
	call	GLB_Set_UART_CLK
.LVL5:
	.loc 1 113 9
	.loc 1 113 23 is_stmt 0
	li	a5,1
	sb	a5,0(s1)
.L2:
	.loc 1 117 5 is_stmt 1
.LVL6:
.LBB4:
.LBB5:
	.loc 1 52 5
	.loc 1 53 5
	.loc 1 55 5
	.loc 1 56 5
	.loc 1 57 5
	.loc 1 59 5
	.loc 1 57 17 is_stmt 0
	li	a5,7
	sb	a5,9(sp)
	.loc 1 60 18
	li	s1,2
	.loc 1 55 15
	li	a5,257
	.loc 1 62 5
	addi	a0,sp,8
	.loc 1 59 17
	sb	s2,8(sp)
	.loc 1 60 5 is_stmt 1
	.loc 1 61 5
	.loc 1 60 18 is_stmt 0
	sh	s1,10(sp)
	.loc 1 55 15
	sh	a5,12(sp)
	.loc 1 62 5 is_stmt 1
	call	GLB_GPIO_Init
.LVL7:
	.loc 1 64 5
	.loc 1 67 5 is_stmt 0
	addi	a0,sp,8
	.loc 1 64 17
	sb	s3,8(sp)
	.loc 1 65 5 is_stmt 1
	.loc 1 66 5
	.loc 1 65 18 is_stmt 0
	sh	s1,10(sp)
	.loc 1 67 5 is_stmt 1
	call	GLB_GPIO_Init
.LVL8:
	.loc 1 70 5
	.loc 1 70 8 is_stmt 0
	beq	s0,zero,.L4
	.loc 1 75 19
	li	s1,7
	.loc 1 74 19
	li	a1,6
.L3:
.LVL9:
	.loc 1 81 5 is_stmt 1
	andi	a0,s3,7
	call	GLB_UART_Fun_Sel
.LVL10:
	.loc 1 82 5
	mv	a1,s1
	andi	a0,s2,7
	call	GLB_UART_Fun_Sel
.LVL11:
.LBE5:
.LBE4:
	.loc 1 119 5
	.loc 1 120 21 is_stmt 0
	li	a5,40001536
	addi	a5,a5,-1536
	.loc 1 123 5
	li	a2,1
	li	a1,8
	mv	a0,s0
	.loc 1 120 21
	sw	a5,16(sp)
	.loc 1 119 22
	sw	s4,20(sp)
	.loc 1 120 5 is_stmt 1
	.loc 1 123 5
	call	UART_IntMask
.LVL12:
	.loc 1 126 5
	li	a1,2
	mv	a0,s0
	call	UART_Disable
.LVL13:
	.loc 1 129 5
	addi	a1,sp,16
	mv	a0,s0
	call	UART_Init
.LVL14:
	.loc 1 132 5
	li	a1,1
	mv	a0,s0
	call	UART_TxFreeRun
.LVL15:
	.loc 1 135 5
	addi	a1,sp,4
	mv	a0,s0
	call	UART_FifoConfig
.LVL16:
	.loc 1 138 5
	mv	a0,s0
	li	a1,2
	call	UART_Enable
.LVL17:
	.loc 1 140 5
	.loc 1 141 1 is_stmt 0
	lw	ra,60(sp)
	.cfi_remember_state
	.cfi_restore 1
	lw	s0,56(sp)
	.cfi_restore 8
	lw	s1,52(sp)
	.cfi_restore 9
	lw	s2,48(sp)
	.cfi_restore 18
	lw	s3,44(sp)
	.cfi_restore 19
	lw	s4,40(sp)
	.cfi_restore 20
.LVL18:
	li	a0,0
	addi	sp,sp,64
	.cfi_def_cfa_offset 0
	jr	ra
.LVL19:
.L4:
	.cfi_restore_state
.LBB7:
.LBB6:
	.loc 1 72 19
	li	s1,3
	.loc 1 71 19
	li	a1,2
	j	.L3
.LBE6:
.LBE7:
	.cfi_endproc
.LFE9:
	.size	bl_uart_init, .-bl_uart_init
	.section	.text.bl_uart_data_send,"ax",@progbits
	.align	1
	.globl	bl_uart_data_send
	.type	bl_uart_data_send, @function
bl_uart_data_send:
.LFB10:
	.loc 1 145 1 is_stmt 1
	.cfi_startproc
.LVL20:
	.loc 1 146 5
	.loc 1 146 14 is_stmt 0
	lui	a5,%hi(.LANCHOR2)
	slli	a4,a0,2
	addi	a5,a5,%lo(.LANCHOR2)
	.loc 1 145 1
	addi	sp,sp,-32
	.cfi_def_cfa_offset 32
	.loc 1 146 14
	add	a5,a5,a4
	.loc 1 145 1
	sw	s1,20(sp)
	.cfi_offset 9, -12
	.loc 1 146 14
	lw	s1,0(a5)
.LVL21:
	.loc 1 149 5 is_stmt 1
	.loc 1 145 1 is_stmt 0
	sw	s0,24(sp)
	sw	ra,28(sp)
	.cfi_offset 8, -8
	.cfi_offset 1, -4
	.loc 1 145 1
	mv	s0,a0
.LVL22:
.L7:
	.loc 1 149 12 discriminator 1
	mv	a0,s0
	sw	a1,12(sp)
	.loc 1 150 5 is_stmt 1 discriminator 1
	.loc 1 149 12 is_stmt 0 discriminator 1
	call	UART_GetTxFifoCount
.LVL23:
	.loc 1 149 11 discriminator 1
	lw	a1,12(sp)
	beq	a0,zero,.L7
	.loc 1 152 5 is_stmt 1
	.loc 1 152 44 is_stmt 0
	sb	a1,136(s1)
	.loc 1 154 5 is_stmt 1
	.loc 1 155 1 is_stmt 0
	lw	ra,28(sp)
	.cfi_restore 1
	lw	s0,24(sp)
	.cfi_restore 8
	lw	s1,20(sp)
	.cfi_restore 9
.LVL24:
	li	a0,0
	addi	sp,sp,32
	.cfi_def_cfa_offset 0
	jr	ra
	.cfi_endproc
.LFE10:
	.size	bl_uart_data_send, .-bl_uart_data_send
	.section	.text.bl_uart_data_recv,"ax",@progbits
	.align	1
	.globl	bl_uart_data_recv
	.type	bl_uart_data_recv, @function
bl_uart_data_recv:
.LFB11:
	.loc 1 158 1 is_stmt 1
	.cfi_startproc
.LVL25:
	.loc 1 159 5
	.loc 1 160 5
	.loc 1 160 14 is_stmt 0
	lui	a5,%hi(.LANCHOR2)
	slli	a4,a0,2
	addi	a5,a5,%lo(.LANCHOR2)
	.loc 1 158 1
	addi	sp,sp,-16
	.cfi_def_cfa_offset 16
	.loc 1 160 14
	add	a5,a5,a4
	.loc 1 158 1
	sw	s0,8(sp)
	sw	ra,12(sp)
	.cfi_offset 8, -8
	.cfi_offset 1, -4
	.loc 1 160 14
	lw	s0,0(a5)
.LVL26:
	.loc 1 163 5 is_stmt 1
	.loc 1 163 9 is_stmt 0
	call	UART_GetRxFifoCount
.LVL27:
	.loc 1 163 8
	beq	a0,zero,.L13
	.loc 1 164 9 is_stmt 1
	.loc 1 164 16 is_stmt 0
	lbu	a0,140(s0)
	andi	a0,a0,0xff
.LVL28:
.L11:
	.loc 1 170 1
	lw	ra,12(sp)
	.cfi_remember_state
	.cfi_restore 1
	lw	s0,8(sp)
	.cfi_restore 8
.LVL29:
	addi	sp,sp,16
	.cfi_def_cfa_offset 0
	jr	ra
.LVL30:
.L13:
	.cfi_restore_state
	.loc 1 166 13
	li	a0,-1
.LVL31:
	.loc 1 169 5 is_stmt 1
	.loc 1 169 12 is_stmt 0
	j	.L11
	.cfi_endproc
.LFE11:
	.size	bl_uart_data_recv, .-bl_uart_data_recv
	.section	.text.bl_uart_int_rx_enable,"ax",@progbits
	.align	1
	.globl	bl_uart_int_rx_enable
	.type	bl_uart_int_rx_enable, @function
bl_uart_int_rx_enable:
.LFB12:
	.loc 1 173 1 is_stmt 1
	.cfi_startproc
.LVL32:
	.loc 1 174 5
	.loc 1 173 1 is_stmt 0
	addi	sp,sp,-16
	.cfi_def_cfa_offset 16
	.loc 1 174 5
	li	a1,24
	.loc 1 173 1
	sw	ra,12(sp)
	sw	s0,8(sp)
	.cfi_offset 1, -4
	.cfi_offset 8, -8
	.loc 1 173 1
	mv	s0,a0
	.loc 1 174 5
	call	UART_SetRxTimeoutValue
.LVL33:
	.loc 1 175 5 is_stmt 1
	li	a2,0
	li	a1,3
	mv	a0,s0
	call	UART_IntMask
.LVL34:
	.loc 1 176 5
	mv	a0,s0
	li	a2,0
	li	a1,4
	call	UART_IntMask
.LVL35:
	.loc 1 177 5
	.loc 1 178 1 is_stmt 0
	lw	ra,12(sp)
	.cfi_restore 1
	lw	s0,8(sp)
	.cfi_restore 8
	li	a0,0
	addi	sp,sp,16
	.cfi_def_cfa_offset 0
	jr	ra
	.cfi_endproc
.LFE12:
	.size	bl_uart_int_rx_enable, .-bl_uart_int_rx_enable
	.section	.text.bl_uart_int_rx_disable,"ax",@progbits
	.align	1
	.globl	bl_uart_int_rx_disable
	.type	bl_uart_int_rx_disable, @function
bl_uart_int_rx_disable:
.LFB13:
	.loc 1 181 1 is_stmt 1
	.cfi_startproc
.LVL36:
	.loc 1 182 5
	.loc 1 181 1 is_stmt 0
	addi	sp,sp,-16
	.cfi_def_cfa_offset 16
	.loc 1 182 5
	li	a2,1
	li	a1,3
	.loc 1 181 1
	sw	ra,12(sp)
	sw	s0,8(sp)
	.cfi_offset 1, -4
	.cfi_offset 8, -8
	.loc 1 181 1
	mv	s0,a0
	.loc 1 182 5
	call	UART_IntMask
.LVL37:
	.loc 1 183 5 is_stmt 1
	mv	a0,s0
	li	a2,1
	li	a1,4
	call	UART_IntMask
.LVL38:
	.loc 1 184 5
	.loc 1 185 1 is_stmt 0
	lw	ra,12(sp)
	.cfi_restore 1
	lw	s0,8(sp)
	.cfi_restore 8
	li	a0,0
	addi	sp,sp,16
	.cfi_def_cfa_offset 0
	jr	ra
	.cfi_endproc
.LFE13:
	.size	bl_uart_int_rx_disable, .-bl_uart_int_rx_disable
	.section	.text.bl_uart_int_tx_enable,"ax",@progbits
	.align	1
	.globl	bl_uart_int_tx_enable
	.type	bl_uart_int_tx_enable, @function
bl_uart_int_tx_enable:
.LFB14:
	.loc 1 188 1 is_stmt 1
	.cfi_startproc
.LVL39:
	.loc 1 189 5
	.loc 1 188 1 is_stmt 0
	addi	sp,sp,-16
	.cfi_def_cfa_offset 16
	.loc 1 189 5
	li	a2,0
	li	a1,2
	.loc 1 188 1
	sw	ra,12(sp)
	.cfi_offset 1, -4
	.loc 1 189 5
	call	UART_IntMask
.LVL40:
	.loc 1 190 5 is_stmt 1
	.loc 1 191 1 is_stmt 0
	lw	ra,12(sp)
	.cfi_restore 1
	li	a0,0
	addi	sp,sp,16
	.cfi_def_cfa_offset 0
	jr	ra
	.cfi_endproc
.LFE14:
	.size	bl_uart_int_tx_enable, .-bl_uart_int_tx_enable
	.section	.text.bl_uart_int_tx_disable,"ax",@progbits
	.align	1
	.globl	bl_uart_int_tx_disable
	.type	bl_uart_int_tx_disable, @function
bl_uart_int_tx_disable:
.LFB15:
	.loc 1 194 1 is_stmt 1
	.cfi_startproc
.LVL41:
	.loc 1 195 5
	.loc 1 194 1 is_stmt 0
	addi	sp,sp,-16
	.cfi_def_cfa_offset 16
	.loc 1 195 5
	li	a2,1
	li	a1,2
	.loc 1 194 1
	sw	ra,12(sp)
	.cfi_offset 1, -4
	.loc 1 195 5
	call	UART_IntMask
.LVL42:
	.loc 1 196 5 is_stmt 1
	.loc 1 197 1 is_stmt 0
	lw	ra,12(sp)
	.cfi_restore 1
	li	a0,0
	addi	sp,sp,16
	.cfi_def_cfa_offset 0
	jr	ra
	.cfi_endproc
.LFE15:
	.size	bl_uart_int_tx_disable, .-bl_uart_int_tx_disable
	.section	.text.uart_generic_notify_handler,"ax",@progbits
	.align	1
	.type	uart_generic_notify_handler, @function
uart_generic_notify_handler:
.LFB23:
	.loc 1 315 1 is_stmt 1
	.cfi_startproc
.LVL43:
	.loc 1 316 5
	.loc 1 317 5
	.loc 1 318 5
	.loc 1 319 5
	.loc 1 320 5
	.loc 1 321 5
	.loc 1 322 5
	.loc 1 323 5
	.loc 1 324 5
	.loc 1 315 1 is_stmt 0
	addi	sp,sp,-80
	.cfi_def_cfa_offset 80
	.loc 1 324 14
	lui	a5,%hi(.LANCHOR2)
	.loc 1 315 1
	sw	s5,52(sp)
	.loc 1 324 14
	addi	a5,a5,%lo(.LANCHOR2)
	.cfi_offset 21, -28
	slli	s5,a0,2
	add	a5,a5,s5
	.loc 1 315 1
	sw	s0,72(sp)
	.cfi_offset 8, -8
	.loc 1 324 14
	lw	s0,0(a5)
.LVL44:
	.loc 1 326 5 is_stmt 1
	.loc 1 315 1 is_stmt 0
	sw	s3,60(sp)
	sw	ra,76(sp)
	sw	s1,68(sp)
	sw	s2,64(sp)
	sw	s4,56(sp)
	sw	s6,48(sp)
	sw	s7,44(sp)
	sw	s8,40(sp)
	sw	s9,36(sp)
	sw	s10,32(sp)
	sw	s11,28(sp)
	.cfi_offset 19, -20
	.cfi_offset 1, -4
	.cfi_offset 9, -12
	.cfi_offset 18, -16
	.cfi_offset 20, -24
	.cfi_offset 22, -32
	.cfi_offset 23, -36
	.cfi_offset 24, -40
	.cfi_offset 25, -44
	.cfi_offset 26, -48
	.cfi_offset 27, -52
	.loc 1 326 12
	lw	s2,32(s0)
.LVL45:
	.loc 1 327 5 is_stmt 1
	.loc 1 327 13 is_stmt 0
	lw	s1,36(s0)
.LVL46:
	.loc 1 331 5 is_stmt 1
	.loc 1 315 1 is_stmt 0
	mv	s3,a0
	.loc 1 331 19
	andi	a5,s2,1
	.loc 1 331 7
	beq	a5,zero,.L24
	.loc 1 331 56 discriminator 1
	andi	a5,s1,1
	.loc 1 331 40 discriminator 1
	bne	a5,zero,.L24
	.loc 1 332 9 is_stmt 1
	.loc 1 332 47 is_stmt 0
	li	a5,1
	sw	a5,40(s0)
.L24:
	.loc 1 336 5 is_stmt 1
	.loc 1 336 19 is_stmt 0
	andi	a5,s2,2
	.loc 1 336 7
	beq	a5,zero,.L25
	.loc 1 336 56 discriminator 1
	andi	a5,s1,2
	.loc 1 336 40 discriminator 1
	bne	a5,zero,.L25
	.loc 1 337 9 is_stmt 1
	.loc 1 337 47 is_stmt 0
	li	a5,2
	sw	a5,40(s0)
.L25:
	.loc 1 341 5 is_stmt 1
	.loc 1 341 19 is_stmt 0
	andi	a5,s2,4
	.loc 1 341 7
	beq	a5,zero,.L26
	.loc 1 341 56 discriminator 1
	andi	a5,s1,4
	.loc 1 341 40 discriminator 1
	bne	a5,zero,.L26
	.loc 1 343 9 is_stmt 1
	.loc 1 343 16 is_stmt 0
	lui	a4,%hi(.LANCHOR3)
	slli	a5,s3,5
	addi	a4,a4,%lo(.LANCHOR3)
	add	a5,a4,a5
	.loc 1 345 18
	lw	s6,28(a5)
	.loc 1 343 16
	lw	s8,20(a5)
.LVL47:
	.loc 1 344 9 is_stmt 1
	.loc 1 345 9
	.loc 1 347 9
	.loc 1 347 15 is_stmt 0
	lw	a5,24(a5)
	.loc 1 348 15
	lbu	s4,0(s6)
	.loc 1 351 15
	li	s7,33
	.loc 1 347 15
	lbu	s9,0(a5)
.LVL48:
	.loc 1 348 9 is_stmt 1
	.loc 1 350 9
	.loc 1 351 9
.L27:
	addi	s7,s7,-1
.LVL49:
	.loc 1 351 15 is_stmt 0
	beq	s7,zero,.L32
.LVL50:
	.loc 1 352 13 is_stmt 1
	.loc 1 352 16 is_stmt 0
	bne	s4,s9,.L28
.LVL51:
.L32:
	.loc 1 360 9 is_stmt 1
	.loc 1 360 12 is_stmt 0
	lbu	a5,0(s6)
	bne	a5,s4,.L66
	.loc 1 363 13 is_stmt 1
	mv	a0,s3
	call	bl_uart_int_tx_disable
.LVL52:
.L26:
	.loc 1 371 5
	.loc 1 371 19 is_stmt 0
	andi	a5,s2,8
	.loc 1 371 7
	beq	a5,zero,.L34
	.loc 1 371 56 discriminator 1
	andi	a5,s1,8
	.loc 1 371 40 discriminator 1
	bne	a5,zero,.L34
	.loc 1 373 9 is_stmt 1
	.loc 1 373 12 is_stmt 0
	lui	a5,%hi(.LANCHOR4)
	addi	a5,a5,%lo(.LANCHOR4)
	add	a5,a5,s5
	.loc 1 374 13
	lui	a4,%hi(.LANCHOR3)
	.loc 1 373 12
	lw	s6,0(a5)
.LVL53:
	.loc 1 374 9 is_stmt 1
	.loc 1 374 13 is_stmt 0
	addi	a4,a4,%lo(.LANCHOR3)
	slli	a5,s3,5
	add	a5,a4,a5
	.loc 1 376 19
	lw	s7,8(a5)
	.loc 1 374 13
	lw	s9,0(a5)
.LVL54:
	.loc 1 375 9 is_stmt 1
	.loc 1 375 16 is_stmt 0
	lw	s10,4(a5)
.LVL55:
	.loc 1 376 9 is_stmt 1
	.loc 1 377 9
	.loc 1 379 9
	.loc 1 380 15 is_stmt 0
	lw	a5,12(a5)
	.loc 1 379 15
	lbu	s4,0(s7)
.LVL56:
	.loc 1 380 9 is_stmt 1
	.loc 1 380 15 is_stmt 0
	lbu	s11,0(a5)
.LVL57:
	.loc 1 382 9 is_stmt 1
.L36:
	.loc 1 386 25 is_stmt 0
	addi	s8,s4,1
	.loc 1 386 30
	andi	a4,s8,127
.L37:
	.loc 1 382 16
	mv	a0,s3
	sw	a4,12(sp)
	.loc 1 392 13 is_stmt 1
	.loc 1 382 16 is_stmt 0
	call	UART_GetRxFifoCount
.LVL58:
	.loc 1 382 15
	lw	a4,12(sp)
	bne	a0,zero,.L38
	.loc 1 394 9 is_stmt 1
	.loc 1 394 20 is_stmt 0
	sb	s4,0(s7)
	.loc 1 395 9 is_stmt 1
	.loc 1 395 12 is_stmt 0
	beq	s6,zero,.L34
	.loc 1 397 13 is_stmt 1
	mv	a0,s9
	jalr	s6
.LVL59:
.L34:
	.loc 1 402 5
	.loc 1 402 20 is_stmt 0
	andi	a5,s2,16
	.loc 1 402 8
	beq	a5,zero,.L40
	.loc 1 402 57 discriminator 1
	andi	a5,s1,16
	.loc 1 402 41 discriminator 1
	bne	a5,zero,.L40
	.loc 1 403 9 is_stmt 1
	.loc 1 403 47 is_stmt 0
	li	a5,16
	sw	a5,40(s0)
	.loc 1 406 9 is_stmt 1
	.loc 1 406 12 is_stmt 0
	lui	a5,%hi(.LANCHOR4)
	addi	a5,a5,%lo(.LANCHOR4)
	.loc 1 407 13
	lui	a4,%hi(.LANCHOR3)
	.loc 1 406 12
	add	s5,a5,s5
	.loc 1 407 13
	addi	a4,a4,%lo(.LANCHOR3)
	slli	a5,s3,5
	add	a5,a4,a5
	.loc 1 409 19
	lw	s6,8(a5)
	.loc 1 407 13
	lw	s8,0(a5)
	.loc 1 408 16
	lw	s9,4(a5)
	.loc 1 413 15
	lw	a5,12(a5)
	.loc 1 406 12
	lw	s5,0(s5)
.LVL60:
	.loc 1 407 9 is_stmt 1
	.loc 1 408 9
	.loc 1 409 9
	.loc 1 410 9
	.loc 1 412 9
	.loc 1 412 15 is_stmt 0
	lbu	s4,0(s6)
.LVL61:
	.loc 1 413 9 is_stmt 1
	.loc 1 413 15 is_stmt 0
	lbu	s10,0(a5)
.LVL62:
	.loc 1 415 9 is_stmt 1
.L42:
	.loc 1 419 25 is_stmt 0
	addi	s7,s4,1
	.loc 1 419 30
	andi	s11,s7,127
.L43:
	.loc 1 425 13 is_stmt 1
	.loc 1 415 16 is_stmt 0
	mv	a0,s3
	call	UART_GetRxFifoCount
.LVL63:
	.loc 1 415 15
	bne	a0,zero,.L44
	.loc 1 427 9 is_stmt 1
	.loc 1 427 20 is_stmt 0
	sb	s4,0(s6)
	.loc 1 428 9 is_stmt 1
	.loc 1 428 12 is_stmt 0
	beq	s5,zero,.L40
	.loc 1 430 13 is_stmt 1
	mv	a0,s8
	jalr	s5
.LVL64:
.L40:
	.loc 1 435 5
	.loc 1 435 19 is_stmt 0
	andi	s2,s2,32
.LVL65:
	.loc 1 435 7
	beq	s2,zero,.L23
	.loc 1 435 56 discriminator 1
	andi	s1,s1,32
.LVL66:
	.loc 1 435 40 discriminator 1
	bne	s1,zero,.L23
	.loc 1 436 9 is_stmt 1
	.loc 1 436 47 is_stmt 0
	li	a5,32
	sw	a5,40(s0)
	.loc 1 440 5 is_stmt 1
	.loc 1 441 5
	.loc 1 444 5
	.loc 1 445 5
	.loc 1 447 5
.L23:
	.loc 1 448 1 is_stmt 0
	lw	ra,76(sp)
	.cfi_remember_state
	.cfi_restore 1
	lw	s0,72(sp)
	.cfi_restore 8
.LVL67:
	lw	s1,68(sp)
	.cfi_restore 9
	lw	s2,64(sp)
	.cfi_restore 18
	lw	s3,60(sp)
	.cfi_restore 19
.LVL68:
	lw	s4,56(sp)
	.cfi_restore 20
	lw	s5,52(sp)
	.cfi_restore 21
	lw	s6,48(sp)
	.cfi_restore 22
	lw	s7,44(sp)
	.cfi_restore 23
	lw	s8,40(sp)
	.cfi_restore 24
	lw	s9,36(sp)
	.cfi_restore 25
	lw	s10,32(sp)
	.cfi_restore 26
	lw	s11,28(sp)
	.cfi_restore 27
	addi	sp,sp,80
	.cfi_def_cfa_offset 0
	jr	ra
.LVL69:
.L28:
	.cfi_restore_state
	.loc 1 353 17 is_stmt 1
	add	a5,s8,s4
	lbu	a1,0(a5)
	mv	a0,s3
	.loc 1 358 29 is_stmt 0
	addi	s4,s4,1
.LVL70:
	.loc 1 353 17
	call	bl_uart_data_send
.LVL71:
	.loc 1 358 13 is_stmt 1
	.loc 1 358 19 is_stmt 0
	andi	s4,s4,127
.LVL72:
	j	.L27
.LVL73:
.L66:
	.loc 1 366 13 is_stmt 1
	.loc 1 366 23 is_stmt 0
	sb	s4,0(s6)
	j	.L26
.LVL74:
.L38:
	.loc 1 385 13 is_stmt 1
	.loc 1 385 19 is_stmt 0
	lbu	a5,140(s0)
	andi	a5,a5,0xff
.LVL75:
	.loc 1 386 13 is_stmt 1
	.loc 1 386 16 is_stmt 0
	beq	a4,s11,.L37
	.loc 1 388 17 is_stmt 1
	.loc 1 388 31 is_stmt 0
	add	s4,s10,s4
.LVL76:
	sb	a5,0(s4)
	.loc 1 389 17 is_stmt 1
	.loc 1 389 23 is_stmt 0
	andi	s4,s8,127
.LVL77:
	j	.L36
.LVL78:
.L44:
	.loc 1 418 13 is_stmt 1
	.loc 1 418 19 is_stmt 0
	lbu	a5,140(s0)
	andi	a5,a5,0xff
.LVL79:
	.loc 1 419 13 is_stmt 1
	.loc 1 419 16 is_stmt 0
	beq	s11,s10,.L43
	.loc 1 421 17 is_stmt 1
	.loc 1 421 31 is_stmt 0
	add	s4,s9,s4
.LVL80:
	sb	a5,0(s4)
	.loc 1 422 17 is_stmt 1
	.loc 1 422 23 is_stmt 0
	andi	s4,s7,127
.LVL81:
	j	.L42
	.cfi_endproc
.LFE23:
	.size	uart_generic_notify_handler, .-uart_generic_notify_handler
	.section	.text.UART0_IRQHandler,"ax",@progbits
	.align	1
	.globl	UART0_IRQHandler
	.type	UART0_IRQHandler, @function
UART0_IRQHandler:
.LFB24:
	.loc 1 451 1 is_stmt 1
	.cfi_startproc
	.loc 1 452 5
	li	a0,0
	tail	uart_generic_notify_handler
.LVL82:
	.cfi_endproc
.LFE24:
	.size	UART0_IRQHandler, .-UART0_IRQHandler
	.section	.text.UART1_IRQHandler,"ax",@progbits
	.align	1
	.globl	UART1_IRQHandler
	.type	UART1_IRQHandler, @function
UART1_IRQHandler:
.LFB25:
	.loc 1 456 1
	.cfi_startproc
	.loc 1 457 5
	li	a0,1
	tail	uart_generic_notify_handler
.LVL83:
	.cfi_endproc
.LFE25:
	.size	UART1_IRQHandler, .-UART1_IRQHandler
	.section	.text.bl_uart_flush,"ax",@progbits
	.align	1
	.globl	bl_uart_flush
	.type	bl_uart_flush, @function
bl_uart_flush:
.LFB16:
	.loc 1 200 1
	.cfi_startproc
.LVL84:
	.loc 1 202 5
	.loc 1 200 1 is_stmt 0
	addi	sp,sp,-16
	.cfi_def_cfa_offset 16
	sw	s0,8(sp)
	sw	s1,4(sp)
	sw	ra,12(sp)
	.cfi_offset 8, -8
	.cfi_offset 9, -12
	.cfi_offset 1, -4
	.loc 1 200 1
	mv	s1,a0
	.loc 1 202 11
	li	s0,32
.LVL85:
.L71:
	.loc 1 203 5 is_stmt 1 discriminator 1
	.loc 1 202 20 is_stmt 0 discriminator 1
	mv	a0,s1
	call	UART_GetTxFifoCount
.LVL86:
	.loc 1 202 11 discriminator 1
	bne	a0,s0,.L71
	.loc 1 205 5 is_stmt 1
	.loc 1 206 1 is_stmt 0
	lw	ra,12(sp)
	.cfi_restore 1
	lw	s0,8(sp)
	.cfi_restore 8
	lw	s1,4(sp)
	.cfi_restore 9
	li	a0,0
	addi	sp,sp,16
	.cfi_def_cfa_offset 0
	jr	ra
	.cfi_endproc
.LFE16:
	.size	bl_uart_flush, .-bl_uart_flush
	.section	.text.bl_uart_getdefconfig,"ax",@progbits
	.align	1
	.globl	bl_uart_getdefconfig
	.type	bl_uart_getdefconfig, @function
bl_uart_getdefconfig:
.LFB17:
	.loc 1 209 1 is_stmt 1
	.cfi_startproc
.LVL87:
	.loc 1 210 5
	.loc 1 210 8 is_stmt 0
	beq	a1,zero,.L74
	.loc 1 215 5 is_stmt 1
	.loc 1 215 13 is_stmt 0
	sb	zero,0(a1)
.L74:
	.loc 1 216 1
	ret
	.cfi_endproc
.LFE17:
	.size	bl_uart_getdefconfig, .-bl_uart_getdefconfig
	.section	.text.bl_uart_setconfig,"ax",@progbits
	.align	1
	.globl	bl_uart_setconfig
	.type	bl_uart_setconfig, @function
bl_uart_setconfig:
.LFB18:
	.loc 1 219 1 is_stmt 1
	.cfi_startproc
.LVL88:
	.loc 1 220 5
	.loc 1 219 1 is_stmt 0
	addi	sp,sp,-32
	.cfi_def_cfa_offset 32
	sw	s2,16(sp)
	.cfi_offset 18, -16
	mv	s2,a1
	.loc 1 220 19
	lui	a1,%hi(.LANCHOR0+16)
.LVL89:
	.loc 1 219 1
	sw	s0,24(sp)
	sw	s1,20(sp)
	.cfi_offset 8, -8
	.cfi_offset 9, -12
	mv	s0,a0
	mv	s1,a2
	.loc 1 220 19
	addi	a1,a1,%lo(.LANCHOR0+16)
	li	a2,16
.LVL90:
	mv	a0,sp
.LVL91:
	.loc 1 219 1
	sw	ra,28(sp)
	.cfi_offset 1, -4
	.loc 1 220 19
	call	memcpy
.LVL92:
	.loc 1 233 5 is_stmt 1
	.loc 1 237 5 is_stmt 0
	li	a1,2
	mv	a0,s0
	.loc 1 233 22
	sw	s2,4(sp)
	.loc 1 234 5 is_stmt 1
	.loc 1 234 20 is_stmt 0
	sb	s1,10(sp)
	.loc 1 237 5 is_stmt 1
	call	UART_Disable
.LVL93:
	.loc 1 239 5
	mv	a1,sp
	mv	a0,s0
	call	UART_Init
.LVL94:
	.loc 1 241 5
	li	a1,1
	mv	a0,s0
	call	UART_TxFreeRun
.LVL95:
	.loc 1 243 5
	mv	a0,s0
	li	a1,2
	call	UART_Enable
.LVL96:
	.loc 1 244 1 is_stmt 0
	lw	ra,28(sp)
	.cfi_restore 1
	lw	s0,24(sp)
	.cfi_restore 8
	lw	s1,20(sp)
	.cfi_restore 9
	lw	s2,16(sp)
	.cfi_restore 18
.LVL97:
	addi	sp,sp,32
	.cfi_def_cfa_offset 0
	jr	ra
	.cfi_endproc
.LFE18:
	.size	bl_uart_setconfig, .-bl_uart_setconfig
	.section	.text.bl_uart_setbaud,"ax",@progbits
	.align	1
	.globl	bl_uart_setbaud
	.type	bl_uart_setbaud, @function
bl_uart_setbaud:
.LFB19:
	.loc 1 247 1 is_stmt 1
	.cfi_startproc
.LVL98:
	.loc 1 248 5
	li	a2,0
	tail	bl_uart_setconfig
.LVL99:
	.cfi_endproc
.LFE19:
	.size	bl_uart_setbaud, .-bl_uart_setbaud
	.section	.text.bl_uart_int_enable,"ax",@progbits
	.align	1
	.globl	bl_uart_int_enable
	.type	bl_uart_int_enable, @function
bl_uart_int_enable:
.LFB20:
	.loc 1 252 1
	.cfi_startproc
.LVL100:
	.loc 1 255 5
	.loc 1 255 32 is_stmt 0
	lui	a7,%hi(.LANCHOR3)
	.loc 1 252 1
	addi	sp,sp,-16
	.cfi_def_cfa_offset 16
	.loc 1 255 32
	slli	t3,a0,5
	addi	a7,a7,%lo(.LANCHOR3)
	.loc 1 252 1
	sw	ra,12(sp)
	.cfi_offset 1, -4
	.loc 1 255 32
	add	a7,a7,t3
	sw	a1,4(a7)
	.loc 1 256 5 is_stmt 1
	.loc 1 256 32 is_stmt 0
	sw	a2,8(a7)
	.loc 1 257 5 is_stmt 1
	.loc 1 257 32 is_stmt 0
	sw	a3,12(a7)
	.loc 1 258 5 is_stmt 1
	.loc 1 258 32 is_stmt 0
	sw	a4,20(a7)
	.loc 1 259 5 is_stmt 1
	.loc 1 259 32 is_stmt 0
	sw	a5,24(a7)
	.loc 1 260 5 is_stmt 1
	.loc 1 260 32 is_stmt 0
	sw	a6,28(a7)
	.loc 1 263 5 is_stmt 1
	beq	a0,zero,.L83
	li	a5,1
.LVL101:
	beq	a0,a5,.L84
	.loc 1 282 20 is_stmt 0
	li	a0,-1
.LVL102:
.L82:
	.loc 1 287 1
	lw	ra,12(sp)
	.cfi_remember_state
	.cfi_restore 1
	addi	sp,sp,16
	.cfi_def_cfa_offset 0
	jr	ra
.LVL103:
.L83:
	.cfi_restore_state
	.loc 1 266 13 is_stmt 1
	call	bl_uart_int_rx_enable
.LVL104:
	.loc 1 267 13
	li	a0,0
	call	bl_uart_int_tx_enable
.LVL105:
	.loc 1 268 13
	lui	a1,%hi(UART0_IRQHandler)
	li	a0,45
	addi	a1,a1,%lo(UART0_IRQHandler)
	call	bl_irq_register
.LVL106:
	.loc 1 269 13
	li	a0,45
.L87:
	.loc 1 277 13 is_stmt 0
	call	bl_irq_enable
.LVL107:
	.loc 1 279 9 is_stmt 1
	.loc 1 286 12 is_stmt 0
	li	a0,0
	.loc 1 279 9
	j	.L82
.LVL108:
.L84:
	.loc 1 274 13 is_stmt 1
	call	bl_uart_int_rx_enable
.LVL109:
	.loc 1 275 13
	li	a0,1
	call	bl_uart_int_tx_enable
.LVL110:
	.loc 1 276 13
	lui	a1,%hi(UART1_IRQHandler)
	li	a0,46
	addi	a1,a1,%lo(UART1_IRQHandler)
	call	bl_irq_register
.LVL111:
	.loc 1 277 13
	li	a0,46
	j	.L87
	.cfi_endproc
.LFE20:
	.size	bl_uart_int_enable, .-bl_uart_int_enable
	.section	.text.bl_uart_int_cb_notify_register,"ax",@progbits
	.align	1
	.globl	bl_uart_int_cb_notify_register
	.type	bl_uart_int_cb_notify_register, @function
bl_uart_int_cb_notify_register:
.LFB21:
	.loc 1 290 1
	.cfi_startproc
.LVL112:
	.loc 1 291 5
	.loc 1 291 8 is_stmt 0
	li	a5,1
	bgtu	a0,a5,.L90
	.loc 1 296 5 is_stmt 1
	.loc 1 296 32 is_stmt 0
	lui	a5,%hi(.LANCHOR3)
	slli	a4,a0,5
	addi	a5,a5,%lo(.LANCHOR3)
	add	a5,a5,a4
	sw	a2,0(a5)
	.loc 1 297 5 is_stmt 1
	.loc 1 297 20 is_stmt 0
	slli	a5,a0,2
	lui	a0,%hi(.LANCHOR4)
.LVL113:
	addi	a0,a0,%lo(.LANCHOR4)
	add	a0,a0,a5
	sw	a1,0(a0)
	.loc 1 299 5 is_stmt 1
	.loc 1 299 12 is_stmt 0
	li	a0,0
	ret
.LVL114:
.L90:
	.loc 1 293 16
	li	a0,-1
.LVL115:
	.loc 1 300 1
	ret
	.cfi_endproc
.LFE21:
	.size	bl_uart_int_cb_notify_register, .-bl_uart_int_cb_notify_register
	.section	.text.bl_uart_int_cb_notify_unregister,"ax",@progbits
	.align	1
	.globl	bl_uart_int_cb_notify_unregister
	.type	bl_uart_int_cb_notify_unregister, @function
bl_uart_int_cb_notify_unregister:
.LFB22:
	.loc 1 303 1 is_stmt 1
	.cfi_startproc
.LVL116:
	.loc 1 304 5
	.loc 1 304 8 is_stmt 0
	li	a5,1
	bgtu	a0,a5,.L93
	.loc 1 308 5 is_stmt 1
	.loc 1 308 32 is_stmt 0
	lui	a5,%hi(.LANCHOR3)
	slli	a4,a0,5
	addi	a5,a5,%lo(.LANCHOR3)
	add	a5,a5,a4
	sw	zero,0(a5)
	.loc 1 309 5 is_stmt 1
	.loc 1 309 20 is_stmt 0
	slli	a5,a0,2
	lui	a0,%hi(.LANCHOR4)
.LVL117:
	addi	a0,a0,%lo(.LANCHOR4)
	add	a0,a0,a5
	sw	zero,0(a0)
	.loc 1 311 5 is_stmt 1
	.loc 1 311 12 is_stmt 0
	li	a0,0
	ret
.LVL118:
.L93:
	.loc 1 306 16
	li	a0,-1
.LVL119:
	.loc 1 312 1
	ret
	.cfi_endproc
.LFE22:
	.size	bl_uart_int_cb_notify_unregister, .-bl_uart_int_cb_notify_unregister
	.section	.rodata
	.align	2
	.set	.LANCHOR0,. + 0
.LC0:
	.word	160000000
	.word	115200
	.byte	3
	.byte	0
	.byte	0
	.byte	0
	.byte	0
	.byte	0
	.byte	0
	.zero	1
.LC2:
	.word	40000000
	.word	115200
	.byte	3
	.byte	0
	.byte	0
	.byte	0
	.byte	0
	.byte	0
	.byte	0
	.zero	1
	.section	.bss.cbs_uart_notify_arg,"aw",@nobits
	.align	2
	.set	.LANCHOR3,. + 0
	.type	cbs_uart_notify_arg, @object
	.size	cbs_uart_notify_arg, 64
cbs_uart_notify_arg:
	.zero	64
	.section	.sbss.cbs_notify,"aw",@nobits
	.align	2
	.set	.LANCHOR4,. + 0
	.type	cbs_notify, @object
	.size	cbs_notify, 8
cbs_notify:
	.zero	8
	.section	.sbss.uart_clk_init.7761,"aw",@nobits
	.set	.LANCHOR1,. + 0
	.type	uart_clk_init.7761, @object
	.size	uart_clk_init.7761, 1
uart_clk_init.7761:
	.zero	1
	.section	.sdata2.uartAddr,"a"
	.align	2
	.set	.LANCHOR2,. + 0
	.type	uartAddr, @object
	.size	uartAddr, 8
uartAddr:
	.word	1073782784
	.word	1073783040
	.section	.srodata,"a"
	.align	2
.LC1:
	.byte	16
	.byte	16
	.byte	0
	.byte	0
	.text
.Letext0:
	.file 2 "/b-l/bl_iot_sdk/toolchain/riscv/Linux/lib/gcc/riscv64-unknown-elf/8.3.0/include/stdint-gcc.h"
	.file 3 "/b-l/bl_iot_sdk/toolchain/riscv/Linux/lib/gcc/riscv64-unknown-elf/8.3.0/include/stddef.h"
	.file 4 "/b-l/bl_iot_sdk/toolchain/riscv/Linux/riscv64-unknown-elf/include/sys/_types.h"
	.file 5 "/b-l/bl_iot_sdk/toolchain/riscv/Linux/riscv64-unknown-elf/include/sys/reent.h"
	.file 6 "/b-l/bl_iot_sdk/toolchain/riscv/Linux/riscv64-unknown-elf/include/sys/lock.h"
	.file 7 "/b-l/bl_iot_sdk/components/bl602/bl602_std/bl602_std/RISCV/Device/Bouffalo/BL602/Startup/system_bl602.h"
	.file 8 "/b-l/bl_iot_sdk/components/bl602/bl602_std/bl602_std/Device/Bouffalo/BL602/Peripherals/bl602.h"
	.file 9 "/b-l/bl_iot_sdk/components/bl602/bl602_std/bl602_std/StdDriver/Inc/bl602_common.h"
	.file 10 "/b-l/bl_iot_sdk/components/bl602/bl602_std/bl602_std/StdDriver/Inc/bl602_uart.h"
	.file 11 "/b-l/bl_iot_sdk/components/bl602/bl602_std/bl602_std/StdDriver/Inc/bl602_gpio.h"
	.file 12 "/b-l/bl_iot_sdk/components/bl602/bl602_std/bl602_std/StdDriver/Inc/bl602_hbn.h"
	.file 13 "/b-l/bl_iot_sdk/components/bl602/bl602_std/bl602_std/StdDriver/Inc/bl602_glb.h"
	.file 14 "/b-l/bl_iot_sdk/components/hal_drv/bl602_hal/bl_uart.h"
	.file 15 "/b-l/bl_iot_sdk/components/hal_drv/bl602_hal/bl_irq.h"
	.file 16 "<built-in>"