	.file	"udp.c"
	.option nopic
	.attribute arch, "rv32i2p0_m2p0_f2p0_c2p0"
	.attribute unaligned_access, 0
	.attribute stack_align, 16
	.text
.Ltext0:
	.cfi_sections	.debug_frame
	.section	.text.udp_init,"ax",@progbits
	.align	1
	.globl	udp_init
	.type	udp_init, @function
udp_init:
.LFB4:
	.file 1 "/home/hogc/build-tools/sdk/bl/bl_iot_sdk/components/network/lwip/src/core/udp.c"
	.loc 1 88 1
	.cfi_startproc
	.loc 1 90 3
	.loc 1 88 1 is_stmt 0
	addi	sp,sp,-16
	.cfi_def_cfa_offset 16
	sw	ra,12(sp)
	.cfi_offset 1, -4
	.loc 1 90 33
	call	bl_rand
.LVL0:
	.loc 1 90 45
	slli	a0,a0,18
	.loc 1 90 15
	li	a5,-16384
	.loc 1 92 1
	lw	ra,12(sp)
	.cfi_restore 1
	.loc 1 90 45
	srli	a0,a0,18
	.loc 1 90 15
	add	a0,a0,a5
	.loc 1 90 12
	lui	a5,%hi(.LANCHOR0)
	sh	a0,%lo(.LANCHOR0)(a5)
	.loc 1 92 1
	addi	sp,sp,16
	.cfi_def_cfa_offset 0
	jr	ra
	.cfi_endproc
.LFE4:
	.size	udp_init, .-udp_init
	.section	.text.udp_input,"ax",@progbits
	.align	1
	.globl	udp_input
	.type	udp_input, @function
udp_input:
.LFB7:
	.loc 1 195 1 is_stmt 1
	.cfi_startproc
.LVL1:
	.loc 1 196 3
	.loc 1 197 3
	.loc 1 198 3
	.loc 1 199 3
	.loc 1 200 3
	.loc 1 201 3
	.loc 1 203 3
	.loc 1 205 3
	.loc 1 207 3
	.loc 1 207 8
	.loc 1 207 7
	.loc 1 208 3
	.loc 1 208 8
	.loc 1 208 7
	.loc 1 210 3
	.loc 1 212 3
	.loc 1 195 1 is_stmt 0
	addi	sp,sp,-48
	.cfi_def_cfa_offset 48
	sw	s0,40(sp)
	.cfi_offset 8, -8
	.loc 1 212 3
	lui	s0,%hi(lwip_stats)
	.loc 1 195 1
	sw	ra,44(sp)
	sw	s1,36(sp)
	sw	s2,32(sp)
	sw	s3,28(sp)
	sw	s4,24(sp)
	sw	s5,20(sp)
	sw	s6,16(sp)
	sw	s7,12(sp)
	.cfi_offset 1, -4
	.cfi_offset 9, -12
	.cfi_offset 18, -16
	.cfi_offset 19, -20
	.cfi_offset 20, -24
	.cfi_offset 21, -28
	.cfi_offset 22, -32
	.cfi_offset 23, -36
	.loc 1 212 3
	addi	a5,s0,%lo(lwip_stats)
	lhu	a4,126(a5)
	addi	a4,a4,1
	sh	a4,126(a5)
	.loc 1 215 3 is_stmt 1
	.loc 1 215 6 is_stmt 0
	lhu	a3,10(a0)
	li	a4,7
	bgtu	a3,a4,.L4
	.loc 1 218 92 is_stmt 1
	.loc 1 219 5
	lhu	a4,134(a5)
	addi	a4,a4,1
	sh	a4,134(a5)
	.loc 1 220 5
	lhu	a4,130(a5)
	addi	a4,a4,1
	sh	a4,130(a5)
	.loc 1 221 5
	.loc 1 222 5
.LVL2:
.L59:
	.loc 1 443 1 is_stmt 0
	lw	s0,40(sp)
	.cfi_remember_state
	.cfi_restore 8
	lw	ra,44(sp)
	.cfi_restore 1
	lw	s1,36(sp)
	.cfi_restore 9
	lw	s2,32(sp)
	.cfi_restore 18
	lw	s3,28(sp)
	.cfi_restore 19
	lw	s4,24(sp)
	.cfi_restore 20
	lw	s5,20(sp)
	.cfi_restore 21
	lw	s6,16(sp)
	.cfi_restore 22
	lw	s7,12(sp)
	.cfi_restore 23
	addi	sp,sp,48
	.cfi_def_cfa_offset 0
	.loc 1 425 7
	tail	pbuf_free
.LVL3:
.L4:
	.cfi_restore_state
	.loc 1 229 87
	lui	s4,%hi(ip_data)
	addi	s2,s4,%lo(ip_data)
	.loc 1 226 10
	lw	s3,4(a0)
	mv	s1,a0
	mv	s5,a1
	.loc 1 226 3 is_stmt 1
.LVL4:
	.loc 1 229 3
	.loc 1 229 15 is_stmt 0
	lw	a0,20(s2)
.LVL5:
	lw	a1,0(s2)
.LVL6:
	addi	s0,s0,%lo(lwip_stats)
	addi	s4,s4,%lo(ip_data)
	call	ip4_addr_isbroadcast_u32
.LVL7:
	.loc 1 234 9
	lbu	a5,1(s3)
	.loc 1 229 15
	mv	s6,a0
.LVL8:
	.loc 1 231 3 is_stmt 1
	.loc 1 234 3
	.loc 1 234 9 is_stmt 0
	lbu	a0,0(s3)
	slli	a5,a5,8
	or	a0,a5,a0
	call	lwip_htons
.LVL9:
	.loc 1 235 10
	lbu	a5,3(s3)
	.loc 1 234 9
	mv	s7,a0
.LVL10:
	.loc 1 235 3 is_stmt 1
	.loc 1 235 10 is_stmt 0
	lbu	a0,2(s3)
	slli	a5,a5,8
	or	a0,a5,a0
	call	lwip_htons
.LVL11:
	.loc 1 237 3 is_stmt 1
	.loc 1 240 3
	.loc 1 241 3
	.loc 1 242 3
	.loc 1 243 3
	.loc 1 244 3
	.loc 1 246 3
	.loc 1 247 3
	.loc 1 248 3
	.loc 1 253 3
	.loc 1 253 12 is_stmt 0
	lui	a1,%hi(udp_pcbs)
	lw	a7,%lo(udp_pcbs)(a1)
.LVL12:
.LBB4:
.LBB5:
	.loc 1 140 42
	lw	t3,4(s2)
	.loc 1 173 127
	lw	a3,20(s2)
.LBE5:
.LBE4:
	.loc 1 291 70
	lw	t4,16(s2)
	.loc 1 253 12
	mv	a5,a7
	.loc 1 248 13
	li	s2,0
	.loc 1 247 8
	li	a6,0
	.loc 1 269 30
	li	t1,-1
.LVL13:
.L5:
	.loc 1 253 3 discriminator 1
	bne	a5,zero,.L15
.L22:
	.loc 1 309 3 is_stmt 1
	.loc 1 310 5
.LVL14:
	.loc 1 314 3
	.loc 1 314 6 is_stmt 0
	bne	s2,zero,.L14
.LVL15:
	.loc 1 323 5 is_stmt 1
	.loc 1 324 7
	.loc 1 329 3
	.loc 1 329 6 is_stmt 0
	lw	a5,4(s5)
	beq	a5,a3,.L14
.LVL16:
.L60:
	.loc 1 424 7 is_stmt 1
	.loc 1 425 7
	mv	a0,s1
	j	.L59
.LVL17:
.L15:
	.loc 1 255 5
	.loc 1 256 5
	.loc 1 257 5
	.loc 1 258 5
	.loc 1 259 5
	.loc 1 262 5
	.loc 1 262 8 is_stmt 0
	lhu	a4,18(a5)
	bne	a4,a0,.L6
.LVL18:
.LBB8:
.LBB6:
	.loc 1 132 3 is_stmt 1
	.loc 1 133 3
	.loc 1 135 3
	.loc 1 135 8
	.loc 1 135 7
	.loc 1 136 3
	.loc 1 136 8
	.loc 1 136 7
	.loc 1 139 3
	.loc 1 139 11 is_stmt 0
	lbu	a2,8(a5)
	.loc 1 139 6
	beq	a2,zero,.L7
	.loc 1 140 27
	lbu	a4,68(t3)
	addi	a4,a4,1
	.loc 1 139 31
	andi	a4,a4,0xff
	bne	a2,a4,.L6
.L7:
	.loc 1 145 3 is_stmt 1
	.loc 1 155 3
	.loc 1 159 5
	lw	a4,0(a5)
	.loc 1 159 8 is_stmt 0
	beq	s6,zero,.L8
	.loc 1 164 9 is_stmt 1
	.loc 1 164 12 is_stmt 0
	beq	a4,zero,.L9
	.loc 1 164 70
	beq	a3,t1,.L9
	.loc 1 166 92
	lw	t5,8(s5)
	xor	a2,a4,a3
	and	a2,a2,t5
	.loc 1 165 78
	bne	a2,zero,.L6
.L9:
.LBE6:
.LBE8:
	.loc 1 264 7 is_stmt 1
	.loc 1 264 10 is_stmt 0
	lbu	a2,16(a5)
	andi	a2,a2,4
	bne	a2,zero,.L10
	.loc 1 265 9 is_stmt 1
	.loc 1 265 12 is_stmt 0
	beq	s2,zero,.L24
	.loc 1 269 16 is_stmt 1
	.loc 1 269 19 is_stmt 0
	beq	s6,zero,.L11
	.loc 1 269 30 discriminator 1
	bne	a3,t1,.L11
	.loc 1 271 11 is_stmt 1
	.loc 1 271 99 is_stmt 0
	lw	a2,4(s5)
	.loc 1 271 14
	lw	t5,0(s2)
	beq	t5,a2,.L10
	.loc 1 273 13 is_stmt 1
	.loc 1 273 16 is_stmt 0
	bne	a2,a4,.L10
.L24:
	mv	s2,a5
.LVL19:
	j	.L10
.LVL20:
.L8:
.LBB9:
.LBB7:
	.loc 1 173 7 is_stmt 1
	.loc 1 173 10 is_stmt 0
	beq	a4,zero,.L9
	.loc 1 173 66
	beq	a4,a3,.L9
.LVL21:
.L6:
.LBE7:
.LBE9:
	.loc 1 306 5 is_stmt 1 discriminator 2
	.loc 1 253 40 is_stmt 0 discriminator 2
	mv	a6,a5
	lw	a5,12(a5)
.LVL22:
	j	.L5
.LVL23:
.L11:
	.loc 1 281 14 is_stmt 1
	.loc 1 281 18 is_stmt 0
	bne	a4,zero,.L24
.LVL24:
.L10:
	.loc 1 289 7 is_stmt 1
	.loc 1 289 10 is_stmt 0
	lhu	a4,20(a5)
	bne	a4,s7,.L6
	.loc 1 290 29 discriminator 1
	lw	a4,4(a5)
	.loc 1 289 37 discriminator 1
	beq	a4,zero,.L12
	.loc 1 290 61
	bne	a4,t4,.L6
.L12:
	.loc 1 293 9 is_stmt 1
	.loc 1 293 12 is_stmt 0
	beq	a6,zero,.L13
	.loc 1 296 11 is_stmt 1
	.loc 1 296 27 is_stmt 0
	lw	a4,12(a5)
	.loc 1 298 20
	sw	a5,%lo(udp_pcbs)(a1)
	.loc 1 296 22
	sw	a4,12(a6)
	.loc 1 297 11 is_stmt 1
	.loc 1 297 21 is_stmt 0
	sw	a7,12(a5)
	.loc 1 298 11 is_stmt 1
.L58:
	.loc 1 300 11 is_stmt 0
	mv	s2,a5
.LVL25:
.L14:
	.loc 1 330 5 is_stmt 1
	.loc 1 356 9
	.loc 1 356 19 is_stmt 0
	lbu	a5,7(s3)
	lbu	a4,6(s3)
	slli	a5,a5,8
	.loc 1 356 12
	or	a5,a5,a4
	beq	a5,zero,.L18
	.loc 1 357 11 is_stmt 1
	.loc 1 357 15 is_stmt 0
	lhu	a2,8(s1)
	lui	a4,%hi(ip_data+20)
	lui	a3,%hi(ip_data+16)
	addi	a4,a4,%lo(ip_data+20)
	addi	a3,a3,%lo(ip_data+16)
	li	a1,17
	mv	a0,s1
.LVL26:
	call	ip_chksum_pseudo
.LVL27:
	.loc 1 357 14
	beq	a0,zero,.L18
	.loc 1 360 13 is_stmt 1
.LDL1:
	.loc 1 436 93
	.loc 1 437 3
	lhu	a5,132(s0)
	addi	a5,a5,1
	sh	a5,132(s0)
	.loc 1 438 3
.L61:
	.loc 1 423 7
	lhu	a5,130(s0)
	addi	a5,a5,1
	sh	a5,130(s0)
	j	.L60
.LVL28:
.L13:
	.loc 1 300 11
	lhu	a4,146(s0)
	addi	a4,a4,1
	sh	a4,146(s0)
	j	.L58
.LVL29:
.L18:
	.loc 1 366 5
	.loc 1 366 9 is_stmt 0
	li	a1,8
	mv	a0,s1
	call	pbuf_remove_header
.LVL30:
	.loc 1 366 8
	bne	a0,zero,.L61
	.loc 1 375 5 is_stmt 1
	.loc 1 375 8 is_stmt 0
	beq	s2,zero,.L20
	.loc 1 376 7 is_stmt 1
	.loc 1 402 7
	.loc 1 402 14 is_stmt 0
	lw	t1,32(s2)
	.loc 1 402 10
	beq	t1,zero,.L60
	.loc 1 404 9 is_stmt 1
	.loc 1 443 1 is_stmt 0
	lw	s0,40(sp)
	.cfi_remember_state
	.cfi_restore 8
	.loc 1 404 9
	lw	a0,36(s2)
	.loc 1 443 1
	lw	ra,44(sp)
	.cfi_restore 1
	lw	s3,28(sp)
	.cfi_restore 19
.LVL31:
	lw	s4,24(sp)
	.cfi_restore 20
	lw	s5,20(sp)
	.cfi_restore 21
.LVL32:
	lw	s6,16(sp)
	.cfi_restore 22
.LVL33:
	.loc 1 404 9
	mv	a4,s7
	mv	a2,s1
	.loc 1 443 1
	lw	s7,12(sp)
	.cfi_restore 23
.LVL34:
	lw	s1,36(sp)
	.cfi_restore 9
.LVL35:
	.loc 1 404 9
	mv	a1,s2
	.loc 1 443 1
	lw	s2,32(sp)
	.cfi_restore 18
	.loc 1 404 9
	lui	a3,%hi(ip_data+16)
	.loc 1 443 1
	.loc 1 404 9
	addi	a3,a3,%lo(ip_data+16)
	.loc 1 443 1
	addi	sp,sp,48
	.cfi_def_cfa_offset 0
	.loc 1 404 9
	jr	t1
.LVL36:
.L20:
	.cfi_restore_state
	.loc 1 411 7 is_stmt 1
	.loc 1 416 7
	.loc 1 416 10 is_stmt 0
	bne	s6,zero,.L21
	.loc 1 416 66 discriminator 1
	lw	a5,20(s4)
	.loc 1 416 22 discriminator 1
	li	a4,224
	.loc 1 416 66 discriminator 1
	andi	a5,a5,240
	.loc 1 416 22 discriminator 1
	beq	a5,a4,.L21
	.loc 1 418 9 is_stmt 1
	.loc 1 418 74 is_stmt 0
	lhu	a1,12(s4)
	.loc 1 418 9
	mv	a0,s1
	.loc 1 418 74
	addi	a1,a1,8
	.loc 1 418 9
	slli	a1,a1,16
	srai	a1,a1,16
	call	pbuf_header_force
.LVL37:
	.loc 1 419 9 is_stmt 1
	li	a1,3
	mv	a0,s1
	call	icmp_dest_unreach
.LVL38:
.L21:
	.loc 1 422 7
	lhu	a5,140(s0)
	addi	a5,a5,1
	sh	a5,140(s0)
	j	.L61
	.cfi_endproc
.LFE7:
	.size	udp_input, .-udp_input
	.section	.text.udp_bind,"ax",@progbits
	.align	1
	.globl	udp_bind
	.type	udp_bind, @function
udp_bind:
.LFB16:
	.loc 1 933 1
	.cfi_startproc
.LVL39:
	.loc 1 934 3
	.loc 1 935 3
	.loc 1 940 3
	.loc 1 944 3
	.loc 1 933 1 is_stmt 0
	mv	a4,a0
	.loc 1 944 6
	bne	a1,zero,.L63
	.loc 1 945 12
	lui	a1,%hi(ip_addr_any)
.LVL40:
	addi	a1,a1,%lo(ip_addr_any)
.L63:
.LVL41:
	.loc 1 951 3 is_stmt 1
	.loc 1 951 8
	.loc 1 951 16 is_stmt 0
	li	a0,-16
.LVL42:
	.loc 1 951 11
	beq	a4,zero,.L90
	.loc 1 953 3 is_stmt 1
	.loc 1 954 3
	.loc 1 955 3
	.loc 1 957 3
.LVL43:
	.loc 1 959 3
	.loc 1 959 13 is_stmt 0
	lui	a3,%hi(udp_pcbs)
	lw	a5,%lo(udp_pcbs)(a3)
.LVL44:
	mv	a0,a5
.LVL45:
.L65:
	.loc 1 959 3 discriminator 1
	bne	a0,zero,.L67
	.loc 1 957 10
	li	t3,0
.L66:
.LVL46:
	.loc 1 980 3 is_stmt 1
	.loc 1 980 6 is_stmt 0
	bne	a2,zero,.L68
	lui	a0,%hi(.LANCHOR0)
.LVL47:
.LBB12:
.LBB13:
	.loc 1 106 6
	li	t1,65536
	lhu	a2,%lo(.LANCHOR0)(a0)
.LVL48:
.LBE13:
.LBE12:
	.loc 1 980 6
	li	a6,16384
	addi	a0,a0,%lo(.LANCHOR0)
.LBB17:
.LBB14:
	.loc 1 106 6
	addi	t1,t1,-1
.L69:
.LVL49:
	.loc 1 103 3 is_stmt 1
	.loc 1 106 3
	.loc 1 106 6 is_stmt 0
	beq	a2,t1,.L81
	.loc 1 106 15
	addi	a2,a2,1
	slli	a2,a2,16
	srli	a2,a2,16
.L70:
	.loc 1 110 3 is_stmt 1
.LVL50:
	.loc 1 110 12 is_stmt 0
	mv	a7,a5
.LVL51:
.L71:
	.loc 1 110 3
	bne	a7,zero,.L73
	sh	a2,0(a0)
	.loc 1 118 3 is_stmt 1
.LVL52:
.LBE14:
.LBE17:
	.loc 1 982 5
.L74:
	.loc 1 1013 3
	.loc 1 1013 6 is_stmt 0
	lw	a5,0(a1)
	.loc 1 1015 19
	sh	a2,18(a4)
	.loc 1 1013 27
	sw	a5,0(a4)
	.loc 1 1015 3 is_stmt 1
	.loc 1 1016 3
	.loc 1 1018 3
	.loc 1 1018 6 is_stmt 0
	bne	t3,zero,.L91
	.loc 1 1020 5 is_stmt 1
	.loc 1 1020 15 is_stmt 0
	lw	a5,%lo(udp_pcbs)(a3)
	.loc 1 1021 14
	sw	a4,%lo(udp_pcbs)(a3)
	.loc 1 1020 15
	sw	a5,12(a4)
	.loc 1 1021 5 is_stmt 1
.L91:
	.loc 1 1026 10 is_stmt 0
	li	a0,0
.LVL53:
.L90:
	.loc 1 1027 1
	ret
.LVL54:
.L67:
	.loc 1 961 5 is_stmt 1
	.loc 1 961 8 is_stmt 0
	beq	a0,a4,.L80
	.loc 1 959 43 discriminator 2
	lw	a0,12(a0)
.LVL55:
	j	.L65
.L80:
	.loc 1 962 14
	li	t3,1
	j	.L66
.LVL56:
.L81:
.LBB18:
.LBB15:
	.loc 1 107 14
	li	a2,49152
	j	.L70
.LVL57:
.L73:
	.loc 1 111 5 is_stmt 1
	.loc 1 111 8 is_stmt 0
	lhu	t4,18(a7)
	bne	t4,a2,.L72
	.loc 1 112 7 is_stmt 1
.LVL58:
	addi	a6,a6,-1
.LVL59:
	slli	a6,a6,16
	srli	a6,a6,16
	.loc 1 112 10 is_stmt 0
	bne	a6,zero,.L69
	sh	a2,0(a0)
.LVL60:
.L84:
.LBE15:
.LBE18:
	.loc 1 985 14
	li	a0,-8
	ret
.LVL61:
.L72:
.LBB19:
.LBB16:
	.loc 1 110 40
	lw	a7,12(a7)
.LVL62:
	j	.L71
.LVL63:
.L77:
.LBE16:
.LBE19:
	.loc 1 989 7 is_stmt 1
	.loc 1 989 10 is_stmt 0
	beq	a5,a4,.L75
	.loc 1 994 9 is_stmt 1
	.loc 1 994 12 is_stmt 0
	lbu	a0,9(a4)
	andi	a0,a0,4
	beq	a0,zero,.L76
	.loc 1 994 44 discriminator 1
	lbu	a0,9(a5)
	andi	a0,a0,4
	bne	a0,zero,.L75
.L76:
	.loc 1 999 11 is_stmt 1
	.loc 1 999 14 is_stmt 0
	lhu	a0,18(a5)
	bne	a0,a2,.L75
	lw	a6,0(a1)
	.loc 1 1001 34 discriminator 1
	lw	a0,0(a5)
	.loc 1 999 42 discriminator 1
	beq	a0,a6,.L84
	.loc 1 1001 55 discriminator 1
	beq	a6,zero,.L84
	.loc 1 1002 14 discriminator 2
	beq	a0,zero,.L84
.L75:
	.loc 1 988 45 discriminator 2
	lw	a5,12(a5)
.LVL64:
.L68:
	.loc 1 988 5 discriminator 1
	bne	a5,zero,.L77
	j	.L74
	.cfi_endproc
.LFE16:
	.size	udp_bind, .-udp_bind
	.section	.text.udp_sendto_if_src_chksum,"ax",@progbits
	.align	1
	.globl	udp_sendto_if_src_chksum
	.type	udp_sendto_if_src_chksum, @function
udp_sendto_if_src_chksum:
.LFB15:
	.loc 1 711 1 is_stmt 1
	.cfi_startproc
.LVL65:
	.loc 1 713 3
	.loc 1 714 3
	.loc 1 715 3
	.loc 1 716 3
	.loc 1 717 3
	.loc 1 719 3
	.loc 1 721 3
	.loc 1 721 8
	.loc 1 711 1 is_stmt 0
	addi	sp,sp,-48
	.cfi_def_cfa_offset 48
	sw	s7,12(sp)
	sw	ra,44(sp)
	sw	s0,40(sp)
	sw	s1,36(sp)
	sw	s2,32(sp)
	sw	s3,28(sp)
	sw	s4,24(sp)
	sw	s5,20(sp)
	sw	s6,16(sp)
	sw	s8,8(sp)
	sw	s9,4(sp)
	.cfi_offset 23, -36
	.cfi_offset 1, -4
	.cfi_offset 8, -8
	.cfi_offset 9, -12
	.cfi_offset 18, -16
	.cfi_offset 19, -20
	.cfi_offset 20, -24
	.cfi_offset 21, -28
	.cfi_offset 22, -32
	.cfi_offset 24, -40
	.cfi_offset 25, -44
	.loc 1 721 16
	li	s7,-16
	.loc 1 721 11
	beq	a0,zero,.L93
	.loc 1 722 3 is_stmt 1
	.loc 1 722 8
	.loc 1 722 11 is_stmt 0
	beq	a1,zero,.L93
	.loc 1 723 3 is_stmt 1
	.loc 1 723 8
	.loc 1 723 11 is_stmt 0
	beq	a2,zero,.L93
	.loc 1 724 3 is_stmt 1
	.loc 1 724 8
	.loc 1 724 11 is_stmt 0
	beq	a7,zero,.L93
	.loc 1 725 3 is_stmt 1
	.loc 1 725 8
	.loc 1 725 11 is_stmt 0
	beq	a4,zero,.L93
	mv	s8,a5
	.loc 1 746 6
	lhu	a5,18(a0)
.LVL66:
	mv	s1,a0
	mv	s4,a7
	mv	s0,a6
	mv	s5,a4
	mv	s9,a3
	mv	s3,a2
	mv	s2,a1
	.loc 1 727 3 is_stmt 1
	.loc 1 746 3
	.loc 1 746 6 is_stmt 0
	beq	a5,zero,.L94
.LVL67:
.L97:
	.loc 1 756 3 is_stmt 1
	.loc 1 756 6 is_stmt 0
	lhu	a4,8(s2)
	li	a5,65536
	addi	a5,a5,-9
	bleu	a4,a5,.L122
.L95:
	.loc 1 757 12
	li	s7,-1
	j	.L93
.LVL68:
.L94:
	.loc 1 747 5 is_stmt 1
	.loc 1 748 5
	.loc 1 748 11 is_stmt 0
	li	a2,0
.LVL69:
	mv	a1,a0
.LVL70:
	call	udp_bind
.LVL71:
	mv	s7,a0
.LVL72:
	.loc 1 749 5 is_stmt 1
	.loc 1 749 8 is_stmt 0
	beq	a0,zero,.L97
.LVL73:
.L93:
	.loc 1 909 1
	lw	ra,44(sp)
	.cfi_remember_state
	.cfi_restore 1
	lw	s0,40(sp)
	.cfi_restore 8
	mv	a0,s7
	lw	s1,36(sp)
	.cfi_restore 9
	lw	s2,32(sp)
	.cfi_restore 18
	lw	s3,28(sp)
	.cfi_restore 19
	lw	s4,24(sp)
	.cfi_restore 20
	lw	s5,20(sp)
	.cfi_restore 21
	lw	s6,16(sp)
	.cfi_restore 22
	lw	s7,12(sp)
	.cfi_restore 23
	lw	s8,8(sp)
	.cfi_restore 24
	lw	s9,4(sp)
	.cfi_restore 25
	addi	sp,sp,48
	.cfi_def_cfa_offset 0
	jr	ra
.LVL74:
.L122:
	.cfi_restore_state
	.loc 1 760 3 is_stmt 1
	.loc 1 760 7 is_stmt 0
	li	a1,8
	mv	a0,s2
	call	pbuf_add_header
.LVL75:
	.loc 1 760 6
	beq	a0,zero,.L112
	.loc 1 762 5 is_stmt 1
	.loc 1 762 9 is_stmt 0
	li	a2,640
	li	a1,8
	li	a0,162
	call	pbuf_alloc
.LVL76:
	mv	s6,a0
.LVL77:
	.loc 1 764 5 is_stmt 1
	.loc 1 764 8 is_stmt 0
	beq	a0,zero,.L95
	.loc 1 768 5 is_stmt 1
	.loc 1 768 8 is_stmt 0
	lhu	a5,8(s2)
	beq	a5,zero,.L98
	.loc 1 770 7 is_stmt 1
	mv	a1,s2
	call	pbuf_chain
.LVL78:
.L98:
	.loc 1 779 5
	.loc 1 781 3
	.loc 1 781 8
	.loc 1 781 53
	.loc 1 784 3
	.loc 1 785 17 is_stmt 0
	lhu	a0,18(s1)
	.loc 1 784 10
	lw	s7,4(s6)
.LVL79:
	.loc 1 785 3 is_stmt 1
	.loc 1 785 17 is_stmt 0
	call	lwip_htons
.LVL80:
	.loc 1 785 15
	sb	a0,0(s7)
	srli	a0,a0,8
	sb	a0,1(s7)
	.loc 1 786 3 is_stmt 1
	.loc 1 786 18 is_stmt 0
	mv	a0,s9
	call	lwip_htons
.LVL81:
	.loc 1 786 16
	sb	a0,2(s7)
	srli	a0,a0,8
	sb	a0,3(s7)
	.loc 1 788 3 is_stmt 1
	.loc 1 788 18 is_stmt 0
	sb	zero,6(s7)
	sb	zero,7(s7)
	.loc 1 792 3 is_stmt 1
	.loc 1 792 6 is_stmt 0
	lbu	a5,16(s1)
	andi	a5,a5,8
	beq	a5,zero,.L99
	.loc 1 792 55 discriminator 1
	lw	a5,0(s3)
	.loc 1 792 35 discriminator 1
	li	a4,224
	.loc 1 792 55 discriminator 1
	andi	a5,a5,240
	.loc 1 792 35 discriminator 1
	bne	a5,a4,.L99
	.loc 1 793 5 is_stmt 1
	.loc 1 793 14 is_stmt 0
	lbu	a5,13(s6)
	ori	a5,a5,4
	sb	a5,13(s6)
.L99:
	.loc 1 797 3 is_stmt 1
	.loc 1 849 5
	.loc 1 850 5
	.loc 1 850 19 is_stmt 0
	lhu	a0,8(s6)
	call	lwip_htons
.LVL82:
	.loc 1 850 17
	sb	a0,4(s7)
	srli	a0,a0,8
	sb	a0,5(s7)
	.loc 1 855 7 is_stmt 1
	.loc 1 855 10 is_stmt 0
	lbu	a5,16(s1)
	andi	a5,a5,1
	bne	a5,zero,.L100
.LBB20:
	.loc 1 856 9 is_stmt 1
	.loc 1 858 9
	lhu	a2,8(s6)
	.loc 1 858 12 is_stmt 0
	beq	s8,zero,.L101
.LBB21:
	.loc 1 859 11 is_stmt 1
	.loc 1 860 11
	.loc 1 862 29 is_stmt 0
	not	s0,s0
	.loc 1 860 23
	mv	a5,s3
	mv	a4,s4
	li	a3,8
	li	a1,17
	mv	a0,s6
	.loc 1 862 29
	slli	s0,s0,16
	.loc 1 860 23
	call	ip_chksum_pseudo_partial
.LVL83:
	.loc 1 862 11 is_stmt 1
	.loc 1 862 29 is_stmt 0
	srli	s0,s0,16
.LVL84:
	.loc 1 863 11 is_stmt 1
	.loc 1 862 27 is_stmt 0
	add	a0,a0,s0
.LVL85:
	.loc 1 863 24
	srli	a5,a0,16
	.loc 1 863 21
	add	a0,a0,a5
	slli	a0,a0,16
	srli	a0,a0,16
.LVL86:
.L102:
.LBE21:
	.loc 1 872 9 is_stmt 1
	.loc 1 872 12 is_stmt 0
	bne	a0,zero,.L103
	.loc 1 873 21
	li	a0,65536
.LVL87:
	addi	a0,a0,-1
.L103:
.LVL88:
	.loc 1 875 9 is_stmt 1
	.loc 1 875 24 is_stmt 0
	sb	a0,6(s7)
	srli	a0,a0,8
.LVL89:
	sb	a0,7(s7)
.L100:
.LBE20:
	.loc 1 879 5 is_stmt 1
.LVL90:
	.loc 1 884 3
	.loc 1 884 27 is_stmt 0
	lw	a5,0(s3)
	.loc 1 884 7
	li	a4,224
	.loc 1 884 27
	andi	a5,a5,240
	.loc 1 884 7
	bne	a5,a4,.L104
	.loc 1 884 7 discriminator 1
	lbu	a3,29(s1)
.L105:
.LVL91:
	.loc 1 889 3 is_stmt 1 discriminator 4
	.loc 1 890 3 discriminator 4
	.loc 1 892 3 discriminator 4
	.loc 1 893 3 discriminator 4
	.loc 1 893 9 is_stmt 0 discriminator 4
	lbu	a4,10(s1)
	mv	a6,s5
	li	a5,17
	mv	a2,s3
	mv	a1,s4
	mv	a0,s6
	call	ip4_output_if_src
.LVL92:
	mv	s7,a0
.LVL93:
	.loc 1 894 3 is_stmt 1 discriminator 4
	.loc 1 897 3 discriminator 4
	.loc 1 900 3 discriminator 4
	.loc 1 900 6 is_stmt 0 discriminator 4
	beq	s6,s2,.L106
	.loc 1 902 5 is_stmt 1
	mv	a0,s6
	call	pbuf_free
.LVL94:
	.loc 1 903 5
.L106:
	.loc 1 907 3
	lui	a5,%hi(lwip_stats)
	addi	a5,a5,%lo(lwip_stats)
	lhu	a4,124(a5)
	addi	a4,a4,1
	sh	a4,124(a5)
	.loc 1 908 3
	.loc 1 908 10 is_stmt 0
	j	.L93
.LVL95:
.L112:
	mv	s6,s2
	j	.L98
.LVL96:
.L101:
.LBB22:
	.loc 1 867 11 is_stmt 1
	.loc 1 867 23 is_stmt 0
	mv	a4,s3
	mv	a3,s4
	li	a1,17
	mv	a0,s6
	call	ip_chksum_pseudo
.LVL97:
	j	.L102
.LVL98:
.L104:
.LBE22:
	.loc 1 884 7 discriminator 2
	lbu	a3,11(s1)
	j	.L105
	.cfi_endproc
.LFE15:
	.size	udp_sendto_if_src_chksum, .-udp_sendto_if_src_chksum
	.section	.text.udp_sendto_if_chksum,"ax",@progbits
	.align	1
	.globl	udp_sendto_if_chksum
	.type	udp_sendto_if_chksum, @function
udp_sendto_if_chksum:
.LFB13:
	.loc 1 636 1 is_stmt 1
	.cfi_startproc
.LVL99:
	.loc 1 638 3
	.loc 1 640 3
	.loc 1 640 8
	.loc 1 640 11 is_stmt 0
	beq	a0,zero,.L132
	.loc 1 641 3 is_stmt 1
	.loc 1 641 8
	.loc 1 641 11 is_stmt 0
	beq	a1,zero,.L132
	.loc 1 642 3 is_stmt 1
	.loc 1 642 8
	.loc 1 642 11 is_stmt 0
	beq	a2,zero,.L132
	.loc 1 643 3 is_stmt 1
	.loc 1 643 8
	.loc 1 643 11 is_stmt 0
	beq	a4,zero,.L132
	.loc 1 645 3 is_stmt 1
	.loc 1 673 5
	.loc 1 673 33 is_stmt 0
	lw	a7,0(a0)
	.loc 1 673 8
	beq	a7,zero,.L126
	.loc 1 674 36 discriminator 2
	andi	t1,a7,240
	.loc 1 673 66 discriminator 2
	li	t3,224
	bne	t1,t3,.L127
.L126:
	.loc 1 677 7 is_stmt 1
	.loc 1 677 14 is_stmt 0
	addi	a7,a4,4
.LVL100:
.L128:
	.loc 1 690 3 is_stmt 1
	.loc 1 690 10 is_stmt 0
	tail	udp_sendto_if_src_chksum
.LVL101:
.L127:
	.loc 1 681 7 is_stmt 1
	.loc 1 681 10 is_stmt 0
	lw	t1,4(a4)
	bne	a7,t1,.L133
	.loc 1 673 12
	mv	a7,a0
	j	.L128
.L132:
	.loc 1 640 16
	li	a0,-16
.LVL102:
	ret
.LVL103:
.L133:
	.loc 1 683 16
	li	a0,-4
.LVL104:
	.loc 1 694 1
	ret
	.cfi_endproc
.LFE13:
	.size	udp_sendto_if_chksum, .-udp_sendto_if_chksum
	.section	.text.udp_sendto_chksum,"ax",@progbits
	.align	1
	.globl	udp_sendto_chksum
	.type	udp_sendto_chksum, @function
udp_sendto_chksum:
.LFB11:
	.loc 1 532 1 is_stmt 1
	.cfi_startproc
.LVL105:
	.loc 1 534 3
	.loc 1 536 3
	.loc 1 536 8
	.loc 1 536 11 is_stmt 0
	beq	a0,zero,.L148
	.loc 1 537 3 is_stmt 1
	.loc 1 537 8
	.loc 1 537 11 is_stmt 0
	beq	a1,zero,.L148
	.loc 1 538 3 is_stmt 1
	.loc 1 538 8
	.loc 1 538 11 is_stmt 0
	beq	a2,zero,.L148
	.loc 1 532 1
	addi	sp,sp,-32
	.cfi_def_cfa_offset 32
	sw	s0,24(sp)
	sw	s1,20(sp)
	sw	s2,16(sp)
	sw	s3,12(sp)
	sw	s4,8(sp)
	sw	s5,4(sp)
	sw	ra,28(sp)
	.cfi_offset 8, -8
	.cfi_offset 9, -12
	.cfi_offset 18, -16
	.cfi_offset 19, -20
	.cfi_offset 20, -24
	.cfi_offset 21, -28
	.cfi_offset 1, -4
	mv	s0,a0
	.loc 1 540 3 is_stmt 1
	.loc 1 544 3
	.loc 1 546 3
	.loc 1 546 10 is_stmt 0
	lbu	a0,8(a0)
.LVL106:
	mv	s5,a5
	mv	s4,a4
	mv	s3,a3
	mv	s1,a2
	mv	s2,a1
	.loc 1 546 6
	beq	a0,zero,.L139
	.loc 1 547 5 is_stmt 1
	.loc 1 547 13 is_stmt 0
	call	netif_get_by_index
.LVL107:
.L140:
	.loc 1 589 3 is_stmt 1
	.loc 1 589 6 is_stmt 0
	bne	a0,zero,.L145
	.loc 1 590 5 is_stmt 1
	.loc 1 591 5
	.loc 1 592 5
	.loc 1 593 5
	lui	a5,%hi(lwip_stats)
	addi	a5,a5,%lo(lwip_stats)
	lhu	a4,138(a5)
	.loc 1 594 12 is_stmt 0
	li	a0,-4
.LVL108:
	.loc 1 593 5
	addi	a4,a4,1
	sh	a4,138(a5)
	.loc 1 594 5 is_stmt 1
	.loc 1 601 1 is_stmt 0
	lw	ra,28(sp)
	.cfi_remember_state
	.cfi_restore 1
	lw	s0,24(sp)
	.cfi_restore 8
.LVL109:
	lw	s1,20(sp)
	.cfi_restore 9
.LVL110:
	lw	s2,16(sp)
	.cfi_restore 18
.LVL111:
	lw	s3,12(sp)
	.cfi_restore 19
	lw	s4,8(sp)
	.cfi_restore 20
	lw	s5,4(sp)
	.cfi_restore 21
	addi	sp,sp,32
	.cfi_def_cfa_offset 0
	jr	ra
.LVL112:
.L139:
	.cfi_restore_state
	.loc 1 550 5 is_stmt 1
	.loc 1 551 5
	.loc 1 551 26 is_stmt 0
	lw	a5,0(a2)
.LVL113:
	.loc 1 551 8
	li	a4,224
.LVL114:
	.loc 1 551 26
	andi	a5,a5,240
	.loc 1 551 8
	beq	a5,a4,.L141
.LVL115:
.L144:
	.loc 1 584 7 is_stmt 1
	.loc 1 584 15 is_stmt 0
	mv	a0,s1
	call	ip4_route
.LVL116:
	j	.L140
.LVL117:
.L141:
	.loc 1 558 7 is_stmt 1
	.loc 1 558 14 is_stmt 0
	lbu	a0,28(s0)
	.loc 1 558 10
	beq	a0,zero,.L142
	.loc 1 559 9 is_stmt 1
	.loc 1 559 17 is_stmt 0
	call	netif_get_by_index
.LVL118:
.L143:
	.loc 1 580 5 is_stmt 1
	.loc 1 580 8 is_stmt 0
	beq	a0,zero,.L144
.L145:
	.loc 1 597 3 is_stmt 1
	.loc 1 597 10 is_stmt 0
	mv	a4,a0
	mv	a0,s0
.LVL119:
	.loc 1 601 1
	lw	s0,24(sp)
	.cfi_remember_state
	.cfi_restore 8
.LVL120:
	lw	ra,28(sp)
	.cfi_restore 1
	.loc 1 597 10
	mv	a6,s5
	mv	a5,s4
	.loc 1 601 1
	lw	s5,4(sp)
	.cfi_restore 21
	lw	s4,8(sp)
	.cfi_restore 20
	.loc 1 597 10
	mv	a3,s3
	mv	a2,s1
	.loc 1 601 1
	lw	s3,12(sp)
	.cfi_restore 19
	lw	s1,20(sp)
	.cfi_restore 9
.LVL121:
	.loc 1 597 10
	mv	a1,s2
	.loc 1 601 1
	lw	s2,16(sp)
	.cfi_restore 18
.LVL122:
	addi	sp,sp,32
	.cfi_def_cfa_offset 0
	.loc 1 597 10
	tail	udp_sendto_if_chksum
.LVL123:
.L142:
	.cfi_restore_state
	.loc 1 572 11 is_stmt 1
	.loc 1 572 33 is_stmt 0
	lw	a5,24(s0)
	.loc 1 572 14
	beq	a5,zero,.L144
	.loc 1 573 68 discriminator 1
	lui	a4,%hi(ip_addr_broadcast)
	.loc 1 572 65 discriminator 1
	lw	a4,%lo(ip_addr_broadcast)(a4)
	beq	a5,a4,.L144
	.loc 1 574 13 is_stmt 1
	.loc 1 574 21 is_stmt 0
	addi	a0,s0,24
	call	ip4_route
.LVL124:
	j	.L143
.LVL125:
.L148:
	.cfi_def_cfa_offset 0
	.cfi_restore 1
	.cfi_restore 8
	.cfi_restore 9
	.cfi_restore 18
	.cfi_restore 19
	.cfi_restore 20
	.cfi_restore 21
	.loc 1 536 16
	li	a0,-16
.LVL126:
	.loc 1 601 1
	ret
	.cfi_endproc
.LFE11:
	.size	udp_sendto_chksum, .-udp_sendto_chksum
	.section	.text.udp_send_chksum,"ax",@progbits
	.align	1
	.globl	udp_send_chksum
	.type	udp_send_chksum, @function
udp_send_chksum:
.LFB9:
	.loc 1 487 1 is_stmt 1
	.cfi_startproc
.LVL127:
	.loc 1 488 3
	.loc 1 488 8
	.loc 1 487 1 is_stmt 0
	mv	a4,a2
	mv	a5,a3
	.loc 1 488 11
	beq	a0,zero,.L160
	.loc 1 489 3 is_stmt 1
	.loc 1 489 8
	.loc 1 489 11 is_stmt 0
	beq	a1,zero,.L160
	.loc 1 491 3 is_stmt 1
	.loc 1 496 3
	.loc 1 496 10 is_stmt 0
	lhu	a3,20(a0)
.LVL128:
	addi	a2,a0,4
.LVL129:
	tail	udp_sendto_chksum
.LVL130:
.L160:
	.loc 1 498 1
	li	a0,-16
.LVL131:
	ret
	.cfi_endproc
.LFE9:
	.size	udp_send_chksum, .-udp_send_chksum
	.section	.text.udp_sendto,"ax",@progbits
	.align	1
	.globl	udp_sendto
	.type	udp_sendto, @function
udp_sendto:
.LFB10:
	.loc 1 522 1 is_stmt 1
	.cfi_startproc
.LVL132:
	.loc 1 524 3
	.loc 1 524 10 is_stmt 0
	li	a5,0
	li	a4,0
	tail	udp_sendto_chksum
.LVL133:
	.cfi_endproc
.LFE10:
	.size	udp_sendto, .-udp_sendto
	.section	.text.udp_send,"ax",@progbits
	.align	1
	.globl	udp_send
	.type	udp_send, @function
udp_send:
.LFB8:
	.loc 1 468 1 is_stmt 1
	.cfi_startproc
.LVL134:
	.loc 1 469 3
	.loc 1 469 8
	.loc 1 469 11 is_stmt 0
	beq	a0,zero,.L167
	.loc 1 470 3 is_stmt 1
	.loc 1 470 8
	.loc 1 470 11 is_stmt 0
	beq	a1,zero,.L167
	.loc 1 472 3 is_stmt 1
	.loc 1 477 3
	.loc 1 477 10 is_stmt 0
	lhu	a3,20(a0)
	addi	a2,a0,4
	tail	udp_sendto
.LVL135:
.L167:
	.loc 1 478 1
	li	a0,-16
.LVL136:
	ret
	.cfi_endproc
.LFE8:
	.size	udp_send, .-udp_send
	.section	.text.udp_sendto_if,"ax",@progbits
	.align	1
	.globl	udp_sendto_if
	.type	udp_sendto_if, @function
udp_sendto_if:
.LFB12:
	.loc 1 626 1 is_stmt 1
	.cfi_startproc
.LVL137:
	.loc 1 628 3
	.loc 1 628 10 is_stmt 0
	li	a6,0
	li	a5,0
	tail	udp_sendto_if_chksum
.LVL138:
	.cfi_endproc
.LFE12:
	.size	udp_sendto_if, .-udp_sendto_if
	.section	.text.udp_sendto_if_src,"ax",@progbits
	.align	1
	.globl	udp_sendto_if_src
	.type	udp_sendto_if_src, @function
udp_sendto_if_src:
.LFB14:
	.loc 1 701 1 is_stmt 1
	.cfi_startproc
.LVL139:
	.loc 1 703 3
	.loc 1 703 10 is_stmt 0
	mv	a7,a5
	li	a6,0
	li	a5,0
.LVL140:
	tail	udp_sendto_if_src_chksum
.LVL141:
	.cfi_endproc
.LFE14:
	.size	udp_sendto_if_src, .-udp_sendto_if_src
	.section	.text.udp_bind_netif,"ax",@progbits
	.align	1
	.globl	udp_bind_netif
	.type	udp_bind_netif, @function
udp_bind_netif:
.LFB17:
	.loc 1 1043 1 is_stmt 1
	.cfi_startproc
.LVL142:
	.loc 1 1044 3
	.loc 1 1046 3
	.loc 1 1049 20 is_stmt 0
	li	a5,0
	.loc 1 1046 6
	beq	a1,zero,.L175
	.loc 1 1047 5 is_stmt 1
	.loc 1 1047 23 is_stmt 0
	lbu	a5,68(a1)
	addi	a5,a5,1
	andi	a5,a5,0xff
.L175:
	sb	a5,8(a0)
	.loc 1 1051 1
	ret
	.cfi_endproc
.LFE17:
	.size	udp_bind_netif, .-udp_bind_netif
	.section	.text.udp_connect,"ax",@progbits
	.align	1
	.globl	udp_connect
	.type	udp_connect, @function
udp_connect:
.LFB18:
	.loc 1 1072 1 is_stmt 1
	.cfi_startproc
.LVL143:
	.loc 1 1073 3
	.loc 1 1075 3
	.loc 1 1077 3
	.loc 1 1077 8
	.loc 1 1077 16 is_stmt 0
	li	a5,-16
	.loc 1 1077 11
	beq	a0,zero,.L187
	.loc 1 1078 3 is_stmt 1
	.loc 1 1078 8
	.loc 1 1078 11 is_stmt 0
	beq	a1,zero,.L187
	.loc 1 1072 1
	addi	sp,sp,-16
	.cfi_def_cfa_offset 16
	sw	s0,8(sp)
	sw	s1,4(sp)
	sw	s2,0(sp)
	sw	ra,12(sp)
	.cfi_offset 8, -8
	.cfi_offset 9, -12
	.cfi_offset 18, -16
	.cfi_offset 1, -4
	.loc 1 1080 6
	lhu	a5,18(a0)
	mv	s0,a0
	mv	s2,a2
	mv	s1,a1
	.loc 1 1080 3 is_stmt 1
	.loc 1 1080 6 is_stmt 0
	beq	a5,zero,.L179
.LVL144:
.L181:
	.loc 1 1087 3 is_stmt 1
	.loc 1 1087 6 is_stmt 0
	lw	a5,0(s1)
	.loc 1 1097 20
	sh	s2,20(s0)
	.loc 1 1087 28
	sw	a5,4(s0)
	.loc 1 1097 3 is_stmt 1
	.loc 1 1098 3
	.loc 1 1098 14 is_stmt 0
	lbu	a5,16(s0)
	ori	a5,a5,4
	sb	a5,16(s0)
	.loc 1 1100 3 is_stmt 1
	.loc 1 1102 42
	.loc 1 1103 3
	.loc 1 1106 3
	.loc 1 1106 13 is_stmt 0
	lui	a5,%hi(udp_pcbs)
	lw	a3,%lo(udp_pcbs)(a5)
.LVL145:
	mv	a4,a3
.LVL146:
.L180:
	.loc 1 1106 3 discriminator 1
	bne	a4,zero,.L182
	.loc 1 1113 3 is_stmt 1
	.loc 1 1113 13 is_stmt 0
	sw	a3,12(s0)
	.loc 1 1114 3 is_stmt 1
	.loc 1 1114 12 is_stmt 0
	sw	s0,%lo(udp_pcbs)(a5)
	.loc 1 1115 3 is_stmt 1
.L185:
	.loc 1 1109 14 is_stmt 0
	li	a5,0
	j	.L178
.LVL147:
.L179:
.LBB23:
	.loc 1 1081 5 is_stmt 1
	.loc 1 1081 17 is_stmt 0
	li	a2,0
.LVL148:
	mv	a1,a0
	call	udp_bind
.LVL149:
	mv	a5,a0
.LVL150:
	.loc 1 1082 5 is_stmt 1
	.loc 1 1082 8 is_stmt 0
	beq	a0,zero,.L181
.LVL151:
.L178:
.LBE23:
	.loc 1 1116 1
	lw	ra,12(sp)
	.cfi_remember_state
	.cfi_restore 1
	lw	s0,8(sp)
	.cfi_restore 8
.LVL152:
	lw	s1,4(sp)
	.cfi_restore 9
.LVL153:
	lw	s2,0(sp)
	.cfi_restore 18
	mv	a0,a5
	addi	sp,sp,16
	.cfi_def_cfa_offset 0
	jr	ra
.LVL154:
.L182:
	.cfi_restore_state
	.loc 1 1107 5 is_stmt 1
	.loc 1 1107 8 is_stmt 0
	beq	a4,s0,.L185
	.loc 1 1106 43 discriminator 2
	lw	a4,12(a4)
.LVL155:
	j	.L180
.LVL156:
.L187:
	.cfi_def_cfa_offset 0
	.cfi_restore 1
	.cfi_restore 8
	.cfi_restore 9
	.cfi_restore 18
	.loc 1 1116 1
	mv	a0,a5
.LVL157:
	ret
	.cfi_endproc
.LFE18:
	.size	udp_connect, .-udp_connect
	.section	.text.udp_disconnect,"ax",@progbits
	.align	1
	.globl	udp_disconnect
	.type	udp_disconnect, @function
udp_disconnect:
.LFB19:
	.loc 1 1127 1 is_stmt 1
	.cfi_startproc
.LVL158:
	.loc 1 1128 3
	.loc 1 1130 3
	.loc 1 1130 8
	.loc 1 1130 11 is_stmt 0
	beq	a0,zero,.L190
	.loc 1 1138 5 is_stmt 1
	.loc 1 1145 23 is_stmt 0
	lbu	a5,16(a0)
	.loc 1 1138 30
	sw	zero,4(a0)
	.loc 1 1142 3 is_stmt 1
	.loc 1 1142 20 is_stmt 0
	sh	zero,20(a0)
	.loc 1 1143 3 is_stmt 1
	.loc 1 1145 23 is_stmt 0
	andi	a5,a5,-5
	.loc 1 1143 18
	sb	zero,8(a0)
	.loc 1 1145 3 is_stmt 1
	.loc 1 1145 8
	.loc 1 1145 21 is_stmt 0
	sb	a5,16(a0)
.L190:
	.loc 1 1146 1
	ret
	.cfi_endproc
.LFE19:
	.size	udp_disconnect, .-udp_disconnect
	.section	.text.udp_recv,"ax",@progbits
	.align	1
	.globl	udp_recv
	.type	udp_recv, @function
udp_recv:
.LFB20:
	.loc 1 1159 1 is_stmt 1
	.cfi_startproc
.LVL159:
	.loc 1 1160 3
	.loc 1 1162 3
	.loc 1 1162 8
	.loc 1 1162 11 is_stmt 0
	beq	a0,zero,.L195
	.loc 1 1165 3 is_stmt 1
	.loc 1 1165 13 is_stmt 0
	sw	a1,32(a0)
	.loc 1 1166 3 is_stmt 1
	.loc 1 1166 17 is_stmt 0
	sw	a2,36(a0)
.L195:
	.loc 1 1167 1
	ret
	.cfi_endproc
.LFE20:
	.size	udp_recv, .-udp_recv
	.section	.text.udp_remove,"ax",@progbits
	.align	1
	.globl	udp_remove
	.type	udp_remove, @function
udp_remove:
.LFB21:
	.loc 1 1180 1 is_stmt 1
	.cfi_startproc
.LVL160:
	.loc 1 1181 3
	.loc 1 1183 3
	.loc 1 1185 3
	.loc 1 1185 8
	.loc 1 1180 1 is_stmt 0
	mv	a1,a0
	.loc 1 1185 11
	beq	a0,zero,.L200
	.loc 1 1187 3 is_stmt 1
	.loc 1 1189 3
	.loc 1 1189 16 is_stmt 0
	lui	a4,%hi(udp_pcbs)
	lw	a5,%lo(udp_pcbs)(a4)
	.loc 1 1189 6
	bne	a5,a0,.L202
	.loc 1 1191 5 is_stmt 1
	.loc 1 1191 14 is_stmt 0
	lw	a5,12(a0)
	sw	a5,%lo(udp_pcbs)(a4)
.L203:
	.loc 1 1203 3 is_stmt 1
	li	a0,1
.LVL161:
	tail	memp_free
.LVL162:
.L205:
	mv	a5,a4
.LVL163:
.L202:
	.loc 1 1194 5 is_stmt 0 discriminator 1
	beq	a5,zero,.L203
	.loc 1 1196 7 is_stmt 1
	.loc 1 1196 15 is_stmt 0
	lw	a4,12(a5)
	.loc 1 1196 10
	beq	a4,zero,.L203
	.loc 1 1196 29 discriminator 1
	bne	a4,a1,.L205
	.loc 1 1198 9 is_stmt 1
	.loc 1 1198 25 is_stmt 0
	lw	a4,12(a1)
	.loc 1 1198 20
	sw	a4,12(a5)
	.loc 1 1199 9 is_stmt 1
	j	.L203
.LVL164:
.L200:
	.loc 1 1204 1 is_stmt 0
	ret
	.cfi_endproc
.LFE21:
	.size	udp_remove, .-udp_remove
	.section	.text.udp_new,"ax",@progbits
	.align	1
	.globl	udp_new
	.type	udp_new, @function
udp_new:
.LFB22:
	.loc 1 1219 1 is_stmt 1
	.cfi_startproc
	.loc 1 1220 3
	.loc 1 1222 3
	.loc 1 1224 3
	.loc 1 1219 1 is_stmt 0
	addi	sp,sp,-16
	.cfi_def_cfa_offset 16
	.loc 1 1224 27
	li	a0,1
	.loc 1 1219 1
	sw	s0,8(sp)
	sw	ra,12(sp)
	.cfi_offset 8, -8
	.cfi_offset 1, -4
	.loc 1 1224 27
	call	memp_malloc
.LVL165:
	mv	s0,a0
.LVL166:
	.loc 1 1226 3 is_stmt 1
	.loc 1 1226 6 is_stmt 0
	beq	a0,zero,.L210
	.loc 1 1231 5 is_stmt 1
	li	a2,40
	li	a1,0
	call	memset
.LVL167:
	.loc 1 1232 5
	.loc 1 1232 14 is_stmt 0
	li	a5,-1
	sb	a5,11(s0)
	.loc 1 1234 5 is_stmt 1
	.loc 1 1234 23 is_stmt 0
	sb	a5,29(s0)
	.loc 1 1237 3 is_stmt 1
.L210:
	.loc 1 1238 1 is_stmt 0
	mv	a0,s0
	lw	ra,12(sp)
	.cfi_restore 1
	lw	s0,8(sp)
	.cfi_restore 8
.LVL168:
	addi	sp,sp,16
	.cfi_def_cfa_offset 0
	jr	ra
	.cfi_endproc
.LFE22:
	.size	udp_new, .-udp_new
	.section	.text.udp_new_ip_type,"ax",@progbits
	.align	1
	.globl	udp_new_ip_type
	.type	udp_new_ip_type, @function
udp_new_ip_type:
.LFB23:
	.loc 1 1256 1 is_stmt 1
	.cfi_startproc
.LVL169:
	.loc 1 1257 3
	.loc 1 1259 3
	.loc 1 1261 3
	.loc 1 1261 9 is_stmt 0
	tail	udp_new
.LVL170:
	.cfi_endproc
.LFE23:
	.size	udp_new_ip_type, .-udp_new_ip_type
	.section	.text.udp_netif_ip_addr_changed,"ax",@progbits
	.align	1
	.globl	udp_netif_ip_addr_changed
	.type	udp_netif_ip_addr_changed, @function
udp_netif_ip_addr_changed:
.LFB24:
	.loc 1 1279 1 is_stmt 1
	.cfi_startproc
.LVL171:
	.loc 1 1280 3
	.loc 1 1282 3
	.loc 1 1282 6 is_stmt 0
	beq	a0,zero,.L217
	.loc 1 1282 7 discriminator 1
	lw	a5,0(a0)
	beq	a5,zero,.L217
	.loc 1 1282 57 discriminator 2
	beq	a1,zero,.L217
	.loc 1 1282 60 discriminator 3
	lw	a5,0(a1)
	beq	a5,zero,.L217
	.loc 1 1283 5 is_stmt 1
	.loc 1 1283 15 is_stmt 0
	lui	a5,%hi(udp_pcbs)
	lw	a5,%lo(udp_pcbs)(a5)
.LVL172:
.L220:
	.loc 1 1283 5 discriminator 1
	bne	a5,zero,.L222
.LVL173:
.L217:
	.loc 1 1292 1
	ret
.LVL174:
.L222:
	.loc 1 1285 7 is_stmt 1
	.loc 1 1285 10 is_stmt 0
	lw	a3,0(a5)
	lw	a4,0(a0)
	bne	a3,a4,.L221
	.loc 1 1288 9 is_stmt 1
	.loc 1 1288 45 is_stmt 0
	lw	a4,0(a1)
	.loc 1 1288 32
	sw	a4,0(a5)
.L221:
	.loc 1 1283 45 discriminator 2
	lw	a5,12(a5)
.LVL175:
	j	.L220
	.cfi_endproc
.LFE24:
	.size	udp_netif_ip_addr_changed, .-udp_netif_ip_addr_changed
	.section	.text.udp_get_pcbs,"ax",@progbits
	.align	1
	.globl	udp_get_pcbs
	.type	udp_get_pcbs, @function
udp_get_pcbs:
.LFB25:
	.loc 1 1316 1 is_stmt 1
	.cfi_startproc
	.loc 1 1317 3
	.loc 1 1318 1 is_stmt 0
	lui	a5,%hi(udp_pcbs)
	lw	a0,%lo(udp_pcbs)(a5)
	ret
	.cfi_endproc
.LFE25:
	.size	udp_get_pcbs, .-udp_get_pcbs
	.comm	udp_pcbs,4,4
	.section	.sdata.udp_port,"aw"
	.align	1
	.set	.LANCHOR0,. + 0
	.type	udp_port, @object
	.size	udp_port, 2
udp_port:
	.half	-16384
	.text
.Letext0:
	.file 2 "/home/hogc/build-tools/sdk/bl/bl_iot_sdk/components/network/lwip/lwip-port/arch/cc.h"
	.file 3 "/home/hogc/build-tools/sdk/bl/bl_iot_sdk/toolchain/riscv/Linux/lib/gcc/riscv64-unknown-elf/8.3.0/include/stddef.h"
	.file 4 "/home/hogc/build-tools/sdk/bl/bl_iot_sdk/toolchain/riscv/Linux/riscv64-unknown-elf/include/sys/_types.h"
	.file 5 "/home/hogc/build-tools/sdk/bl/bl_iot_sdk/toolchain/riscv/Linux/riscv64-unknown-elf/include/sys/reent.h"
	.file 6 "/home/hogc/build-tools/sdk/bl/bl_iot_sdk/toolchain/riscv/Linux/riscv64-unknown-elf/include/sys/lock.h"
	.file 7 "/home/hogc/build-tools/sdk/bl/bl_iot_sdk/toolchain/riscv/Linux/riscv64-unknown-elf/include/stdlib.h"
	.file 8 "/home/hogc/build-tools/sdk/bl/bl_iot_sdk/toolchain/riscv/Linux/riscv64-unknown-elf/include/ctype.h"
	.file 9 "/home/hogc/build-tools/sdk/bl/bl_iot_sdk/components/network/lwip/src/include/lwip/err.h"
	.file 10 "/home/hogc/build-tools/sdk/bl/bl_iot_sdk/components/network/lwip/src/include/lwip/pbuf.h"
	.file 11 "/home/hogc/build-tools/sdk/bl/bl_iot_sdk/components/network/lwip/src/include/lwip/ip4_addr.h"
	.file 12 "/home/hogc/build-tools/sdk/bl/bl_iot_sdk/components/network/lwip/src/include/lwip/ip_addr.h"
	.file 13 "/home/hogc/build-tools/sdk/bl/bl_iot_sdk/components/network/lwip/src/include/lwip/mem.h"
	.file 14 "/home/hogc/build-tools/sdk/bl/bl_iot_sdk/components/network/lwip/src/include/lwip/memp.h"
	.file 15 "/home/hogc/build-tools/sdk/bl/bl_iot_sdk/components/network/lwip/src/include/lwip/priv/memp_priv.h"
	.file 16 "/home/hogc/build-tools/sdk/bl/bl_iot_sdk/components/network/lwip/src/include/lwip/stats.h"
	.file 17 "/home/hogc/build-tools/sdk/bl/bl_iot_sdk/components/network/lwip/src/include/lwip/netif.h"
	.file 18 "/home/hogc/build-tools/sdk/bl/bl_iot_sdk/components/network/lwip/src/include/lwip/prot/ip4.h"
	.file 19 "/home/hogc/build-tools/sdk/bl/bl_iot_sdk/components/network/lwip/src/include/lwip/ip.h"
	.file 20 "/home/hogc/build-tools/sdk/bl/bl_iot_sdk/components/network/lwip/src/include/lwip/prot/udp.h"
	.file 21 "/home/hogc/build-tools/sdk/bl/bl_iot_sdk/components/network/lwip/src/include/lwip/udp.h"
	.file 22 "/home/hogc/build-tools/sdk/bl/bl_iot_sdk/components/network/lwip/src/include/lwip/icmp.h"
	.file 23 "/home/hogc/build-tools/sdk/bl/bl_iot_sdk/toolchain/riscv/Linux/riscv64-unknown-elf/include/string.h"
	.file 24 "/home/hogc/build-tools/sdk/bl/bl_iot_sdk/components/network/lwip/src/include/lwip/inet_chksum.h"
	.file 25 "/home/hogc/build-tools/sdk/bl/bl_iot_sdk/components/network/lwip/src/include/lwip/def.h"
	.file 26 "/home/hogc/build-tools/sdk/bl/bl_iot_sdk/components/network/lwip/src/include/lwip/ip4.h"
	.file 27 "/home/hogc/build-tools/sdk/bl/bl_iot_sdk/components/network/lwip/lwip-port/config/lwipopts.h"