	.file	"main.c"
	.option nopic
	.attribute arch, "rv32i2p0_m2p0_f2p0_c2p0"
	.attribute unaligned_access, 0
	.attribute stack_align, 16
	.text
.Ltext0:
	.cfi_sections	.debug_frame
	.section	.text.log_step,"ax",@progbits
	.align	1
	.globl	log_step
	.type	log_step, @function
log_step:
.LFB9:
	.file 1 "/home/hogc/build-tools/sdk/bl/bl_iot_sdk/customer_app/sdk_app_helloworld/sdk_app_helloworld/main.c"
	.loc 1 42 1
	.cfi_startproc
.LVL0:
	.loc 1 43 5
	lw	a2,4(a0)
	lw	a1,0(a0)
	lui	a0,%hi(.LC0)
.LVL1:
	addi	a0,a0,%lo(.LC0)
	tail	printf
.LVL2:
	.cfi_endproc
.LFE9:
	.size	log_step, .-log_step
	.section	.text.helloworld,"ax",@progbits
	.align	1
	.globl	helloworld
	.type	helloworld, @function
helloworld:
.LFB10:
	.loc 1 47 1
	.cfi_startproc
	.loc 1 48 5
	lui	a0,%hi(.LANCHOR0)
	.loc 1 47 1 is_stmt 0
	addi	sp,sp,-16
	.cfi_def_cfa_offset 16
	.loc 1 48 5
	addi	a0,a0,%lo(.LANCHOR0)
	.loc 1 47 1
	sw	ra,12(sp)
	.cfi_offset 1, -4
	.loc 1 48 5
	call	log_step
.LVL3:
	.loc 1 49 5 is_stmt 1
	lui	a0,%hi(.LANCHOR1)
	addi	a0,a0,%lo(.LANCHOR1)
	call	log_step
.LVL4:
	.loc 1 50 5
	.loc 1 51 1 is_stmt 0
	lw	ra,12(sp)
	.cfi_restore 1
	.loc 1 50 5
	lui	a0,%hi(.LANCHOR2)
	.loc 1 51 1
	.loc 1 50 5
	addi	a0,a0,%lo(.LANCHOR2)
	.loc 1 51 1
	addi	sp,sp,16
	.cfi_def_cfa_offset 0
	.loc 1 50 5
	tail	log_step
.LVL5:
	.cfi_endproc
.LFE10:
	.size	helloworld, .-helloworld
	.section	.text.user_vApplicationStackOverflowHook,"ax",@progbits
	.align	1
	.globl	user_vApplicationStackOverflowHook
	.type	user_vApplicationStackOverflowHook, @function
user_vApplicationStackOverflowHook:
.LFB11:
	.loc 1 54 1 is_stmt 1
	.cfi_startproc
.LVL6:
	.loc 1 56 1
	ret
	.cfi_endproc
.LFE11:
	.size	user_vApplicationStackOverflowHook, .-user_vApplicationStackOverflowHook
	.section	.text.user_vApplicationMallocFailedHook,"ax",@progbits
	.align	1
	.globl	user_vApplicationMallocFailedHook
	.type	user_vApplicationMallocFailedHook, @function
user_vApplicationMallocFailedHook:
.LFB12:
	.loc 1 59 1
	.cfi_startproc
	.loc 1 60 5
	.loc 1 59 1 is_stmt 0
	addi	sp,sp,-16
	.cfi_def_cfa_offset 16
	sw	ra,12(sp)
	.cfi_offset 1, -4
	.loc 1 60 5
	call	xPortGetFreeHeapSize
.LVL7:
	.loc 1 64 1
	lw	ra,12(sp)
	.cfi_restore 1
	.loc 1 60 5
	mv	a1,a0
	lui	a0,%hi(.LC1)
	.loc 1 64 1
	.loc 1 60 5
	addi	a0,a0,%lo(.LC1)
	.loc 1 64 1
	addi	sp,sp,16
	.cfi_def_cfa_offset 0
	.loc 1 60 5
	tail	printf
.LVL8:
	.cfi_endproc
.LFE12:
	.size	user_vApplicationMallocFailedHook, .-user_vApplicationMallocFailedHook
	.section	.text.user_vApplicationIdleHook,"ax",@progbits
	.align	1
	.globl	user_vApplicationIdleHook
	.type	user_vApplicationIdleHook, @function
user_vApplicationIdleHook:
.LFB13:
	.loc 1 67 1 is_stmt 1
	.cfi_startproc
	.loc 1 68 5
 #APP
# 68 "/home/hogc/build-tools/sdk/bl/bl_iot_sdk/customer_app/sdk_app_helloworld/sdk_app_helloworld/main.c" 1
	   wfi     
# 0 "" 2
	.loc 1 72 1 is_stmt 0
 #NO_APP
	ret
	.cfi_endproc
.LFE13:
	.size	user_vApplicationIdleHook, .-user_vApplicationIdleHook
	.section	.text.bfl_main,"ax",@progbits
	.align	1
	.globl	bfl_main
	.type	bfl_main, @function
bfl_main:
.LFB14:
	.loc 1 75 1 is_stmt 1
	.cfi_startproc
	.loc 1 76 5
	li	a5,1998848
	.loc 1 75 1 is_stmt 0
	addi	sp,sp,-16
	.cfi_def_cfa_offset 16
	.loc 1 76 5
	addi	a5,a5,1152
	li	a4,255
	li	a3,255
	li	a2,7
	li	a1,16
	li	a0,0
	.loc 1 75 1
	sw	ra,12(sp)
	.cfi_offset 1, -4
	.loc 1 76 5
	call	bl_uart_init
.LVL9:
	.loc 1 77 5 is_stmt 1
	.loc 1 78 1 is_stmt 0
	lw	ra,12(sp)
	.cfi_restore 1
	addi	sp,sp,16
	.cfi_def_cfa_offset 0
	.loc 1 77 5
	tail	helloworld
.LVL10:
	.cfi_endproc
.LFE14:
	.size	bfl_main, .-bfl_main
	.section	.rodata.log_step.str1.4,"aMS",@progbits,1
	.align	2
.LC0:
	.string	"%s   %s\r\n"
	.section	.rodata.str1.4,"aMS",@progbits,1
	.align	2
.LC2:
	.string	"[helloworld]"
	.zero	3
.LC3:
	.string	"end"
.LC4:
	.string	"helloworld"
	.zero	1
.LC5:
	.string	"start"
	.section	.rodata.user_vApplicationMallocFailedHook.str1.4,"aMS",@progbits,1
	.align	2
.LC1:
	.string	"Memory Allocate Failed. Current left size is %d bytes\r\n"
	.section	.sdata.ci_table_step_end,"aw"
	.align	2
	.set	.LANCHOR2,. + 0
	.type	ci_table_step_end, @object
	.size	ci_table_step_end, 8
ci_table_step_end:
	.word	.LC2
	.word	.LC3
	.section	.sdata.ci_table_step_init,"aw"
	.align	2
	.set	.LANCHOR0,. + 0
	.type	ci_table_step_init, @object
	.size	ci_table_step_init, 8
ci_table_step_init:
	.word	.LC2
	.word	.LC5
	.section	.sdata.ci_table_step_log,"aw"
	.align	2
	.set	.LANCHOR1,. + 0
	.type	ci_table_step_log, @object
	.size	ci_table_step_log, 8
ci_table_step_log:
	.word	.LC2
	.word	.LC4
	.text
.Letext0:
	.file 2 "/home/hogc/build-tools/sdk/bl/bl_iot_sdk/toolchain/riscv/Linux/riscv64-unknown-elf/include/machine/_default_types.h"
	.file 3 "/home/hogc/build-tools/sdk/bl/bl_iot_sdk/toolchain/riscv/Linux/lib/gcc/riscv64-unknown-elf/8.3.0/include/stddef.h"
	.file 4 "/home/hogc/build-tools/sdk/bl/bl_iot_sdk/toolchain/riscv/Linux/riscv64-unknown-elf/include/sys/_types.h"
	.file 5 "/home/hogc/build-tools/sdk/bl/bl_iot_sdk/toolchain/riscv/Linux/riscv64-unknown-elf/include/sys/reent.h"
	.file 6 "/home/hogc/build-tools/sdk/bl/bl_iot_sdk/toolchain/riscv/Linux/riscv64-unknown-elf/include/sys/lock.h"
	.file 7 "/home/hogc/build-tools/sdk/bl/bl_iot_sdk/toolchain/riscv/Linux/riscv64-unknown-elf/include/sys/_stdint.h"
	.file 8 "/home/hogc/build-tools/sdk/bl/bl_iot_sdk/components/bl602/freertos_riscv_ram/portable/GCC/RISC-V/portmacro.h"
	.file 9 "/home/hogc/build-tools/sdk/bl/bl_iot_sdk/components/bl602/freertos_riscv_ram/config/task.h"
	.file 10 "/home/hogc/build-tools/sdk/bl/bl_iot_sdk/components/bl602/bl602_std/bl602_std/RISCV/Device/Bouffalo/BL602/Startup/system_bl602.h"
	.file 11 "/home/hogc/build-tools/sdk/bl/bl_iot_sdk/components/bl602/bl602_std/bl602_std/StdDriver/Inc/bl602_common.h"
	.file 12 "/home/hogc/build-tools/sdk/bl/bl_iot_sdk/components/hal_drv/bl602_hal/bl_uart.h"
	.file 13 "/home/hogc/build-tools/sdk/bl/bl_iot_sdk/components/bl602/freertos_riscv_ram/config/portable.h"
	.file 14 "/home/hogc/build-tools/sdk/bl/bl_iot_sdk/toolchain/riscv/Linux/riscv64-unknown-elf/include/stdio.h"