	.file	"bignum.c"
	.option nopic
	.attribute arch, "rv32i2p0_m2p0_f2p0_c2p0"
	.attribute unaligned_access, 0
	.attribute stack_align, 16
	.text
.Ltext0:
	.cfi_sections	.debug_frame
	.section	.text.mpi_get_digit,"ax",@progbits
	.align	1
	.type	mpi_get_digit, @function
mpi_get_digit:
.LFB21:
	.file 1 "/b-l/bl_iot_sdk_new/components/security/mbedtls/src/bignum.c"
	.loc 1 408 1
	.cfi_startproc
.LVL0:
	.loc 1 409 5
	.loc 1 411 5
	.loc 1 411 19 is_stmt 0
	addi	a5,a2,-48
	.loc 1 411 7
	andi	a3,a5,0xff
	li	a4,9
	bgtu	a3,a4,.L2
	.loc 1 411 34 is_stmt 1 discriminator 1
	.loc 1 411 37 is_stmt 0 discriminator 1
	sw	a5,0(a0)
	.loc 1 412 5 is_stmt 1 discriminator 1
	.loc 1 413 5 discriminator 1
.LVL1:
.L3:
	.loc 1 415 5
	.loc 1 415 7 is_stmt 0
	lw	a5,0(a0)
	.loc 1 418 11
	li	a0,0
.LVL2:
	.loc 1 415 7
	bltu	a5,a1,.L1
	.loc 1 416 15
	li	a0,-6
.L1:
	.loc 1 419 1
	ret
.LVL3:
.L2:
	.loc 1 412 5 is_stmt 1
	.loc 1 412 19 is_stmt 0
	addi	a5,a2,-65
	.loc 1 412 7
	andi	a5,a5,0xff
	li	a4,5
	bgtu	a5,a4,.L4
	.loc 1 412 34 is_stmt 1 discriminator 1
	.loc 1 412 41 is_stmt 0 discriminator 1
	addi	a2,a2,-55
.LVL4:
.L7:
	.loc 1 413 37 discriminator 1
	sw	a2,0(a0)
	j	.L3
.LVL5:
.L4:
	.loc 1 409 8
	li	a5,255
	sw	a5,0(a0)
	.loc 1 413 5 is_stmt 1
	.loc 1 413 19 is_stmt 0
	addi	a5,a2,-97
	.loc 1 413 7
	andi	a5,a5,0xff
	bgtu	a5,a4,.L3
	.loc 1 413 34 is_stmt 1 discriminator 1
	.loc 1 413 41 is_stmt 0 discriminator 1
	addi	a2,a2,-87
.LVL6:
	j	.L7
	.cfi_endproc
.LFE21:
	.size	mpi_get_digit, .-mpi_get_digit
	.section	.text.mpi_sub_hlp,"ax",@progbits
	.align	1
	.type	mpi_sub_hlp, @function
mpi_sub_hlp:
.LFB33:
	.loc 1 946 1 is_stmt 1
	.cfi_startproc
.LVL7:
	.loc 1 947 5
	.loc 1 948 5
	.loc 1 950 5
	mv	a3,a2
	.loc 1 950 16 is_stmt 0
	li	a5,0
	.loc 1 950 12
	li	a7,0
.LVL8:
.L9:
	slli	a6,a7,2
	.loc 1 950 5 discriminator 1
	bne	a7,a0,.L10
	add	a2,a2,a6
.LVL9:
.L11:
	.loc 1 956 10
	bne	a5,zero,.L12
	.loc 1 961 1
	ret
.LVL10:
.L10:
	.loc 1 952 9 is_stmt 1 discriminator 3
	.loc 1 952 15 is_stmt 0 discriminator 3
	lw	a4,0(a3)
	.loc 1 953 20 discriminator 3
	add	a6,a1,a6
	.loc 1 950 29 discriminator 3
	addi	a7,a7,1
.LVL11:
	.loc 1 952 18 discriminator 3
	sltu	t1,a4,a5
.LVL12:
	.loc 1 952 25 is_stmt 1 discriminator 3
	.loc 1 952 28 is_stmt 0 discriminator 3
	sub	a4,a4,a5
	sw	a4,0(a3)
	.loc 1 953 9 is_stmt 1 discriminator 3
	.loc 1 953 20 is_stmt 0 discriminator 3
	lw	a6,0(a6)
	.loc 1 950 39 discriminator 3
	addi	a3,a3,4
.LVL13:
	.loc 1 953 18 discriminator 3
	sltu	a5,a4,a6
.LVL14:
	.loc 1 953 33 discriminator 3
	sub	a4,a4,a6
	sw	a4,-4(a3)
	.loc 1 953 11 discriminator 3
	add	a5,a5,t1
.LVL15:
	.loc 1 953 30 is_stmt 1 discriminator 3
	j	.L9
.LVL16:
.L12:
	.loc 1 958 9
	.loc 1 958 15 is_stmt 0
	lw	a4,0(a2)
.LVL17:
	.loc 1 958 25 is_stmt 1
	.loc 1 959 22 is_stmt 0
	addi	a2,a2,4
.LVL18:
	.loc 1 958 28
	sub	a3,a4,a5
	sw	a3,-4(a2)
	.loc 1 959 9 is_stmt 1
.LVL19:
	.loc 1 959 16
	.loc 1 959 21
	.loc 1 959 11 is_stmt 0
	sltu	a5,a4,a5
.LVL20:
	j	.L11
	.cfi_endproc
.LFE33:
	.size	mpi_sub_hlp, .-mpi_sub_hlp
	.section	.text.mpi_mul_hlp,"ax",@progbits
	.align	1
	.type	mpi_mul_hlp, @function
mpi_mul_hlp:
.LFB39:
	.loc 1 1112 1 is_stmt 1
	.cfi_startproc
.LVL21:
	.loc 1 1113 5
	.loc 1 1130 5
	mv	a4,a2
	mv	a7,a1
	mv	t1,a0
	.loc 1 1113 22 is_stmt 0
	li	a5,0
	.loc 1 1130 5
	li	t3,15
.LVL22:
.L14:
	lw	a6,0(a4)
	.loc 1 1130 5 discriminator 1
	bgtu	t1,t3,.L15
	srli	a4,a0,4
.LVL23:
	li	a7,-16
.LVL24:
	mul	a7,a4,a7
	slli	a4,a4,6
	add	a1,a1,a4
	add	a2,a2,a4
.LVL25:
	.loc 1 1145 5
	li	a4,7
	add	a0,a7,a0
.LVL26:
	bleu	a0,a4,.L16
.LBB67:
	.loc 1 1147 11 is_stmt 1
	.loc 1 1147 29
	.loc 1 1148 9
.LVL27:
	.loc 1 1148 11 is_stmt 0
	lw	a7,0(a1)
.LBE67:
	.loc 1 1145 22
	addi	a0,a0,-8
.LVL28:
.LBB68:
	.loc 1 1152 399
	addi	a2,a2,32
.LVL29:
	.loc 1 1148 11
	mul	a4,a3,a7
	.loc 1 1152 216
	addi	a1,a1,32
.LVL30:
	.loc 1 1148 11
	mulhu	a7,a3,a7
.LVL31:
	.loc 1 1148 42 is_stmt 1
	.loc 1 1148 69
	.loc 1 1148 136
	.loc 1 1148 139 is_stmt 0
	add	a4,a5,a4
.LVL32:
	.loc 1 1148 145 is_stmt 1
	.loc 1 1148 155 is_stmt 0
	sgtu	a5,a5,a4
.LVL33:
	.loc 1 1148 164
	add	a4,a6,a4
.LVL34:
	.loc 1 1148 203
	sw	a4,-32(a2)
.LVL35:
	.loc 1 1148 181
	sgtu	a6,a6,a4
	.loc 1 1148 148
	add	a7,a5,a7
.LVL36:
	.loc 1 1148 161 is_stmt 1
	.loc 1 1148 171
	.loc 1 1148 211 is_stmt 0
	lw	a5,-28(a1)
	.loc 1 1148 174
	add	a6,a6,a7
.LVL37:
	.loc 1 1148 188 is_stmt 1
	.loc 1 1148 196
	.loc 1 1148 209
	.loc 1 1148 211 is_stmt 0
	mul	a4,a3,a5
.LVL38:
	mulhu	a5,a3,a5
.LVL39:
	.loc 1 1148 242 is_stmt 1
	.loc 1 1148 269
	.loc 1 1148 336
	.loc 1 1148 339 is_stmt 0
	add	a4,a6,a4
.LVL40:
	.loc 1 1148 345 is_stmt 1
	.loc 1 1148 355 is_stmt 0
	sgtu	a6,a6,a4
.LVL41:
	.loc 1 1148 348
	add	a6,a5,a6
.LVL42:
	.loc 1 1148 361 is_stmt 1
	.loc 1 1148 367 is_stmt 0
	lw	a5,-28(a2)
.LVL43:
	.loc 1 1148 364
	add	a4,a4,a5
.LVL44:
	.loc 1 1148 371 is_stmt 1
	.loc 1 1148 403 is_stmt 0
	sw	a4,-28(a2)
.LVL45:
	.loc 1 1148 381
	sgtu	a5,a5,a4
	.loc 1 1149 11
	lw	a4,-24(a1)
.LVL46:
	.loc 1 1148 374
	add	a6,a5,a6
.LVL47:
	.loc 1 1148 388 is_stmt 1
	.loc 1 1148 396
	.loc 1 1149 9
	.loc 1 1149 11 is_stmt 0
	mul	a5,a3,a4
	mulhu	a4,a3,a4
.LVL48:
	.loc 1 1149 42 is_stmt 1
	.loc 1 1149 69
	.loc 1 1149 136
	.loc 1 1149 139 is_stmt 0
	add	a5,a6,a5
.LVL49:
	.loc 1 1149 145 is_stmt 1
	.loc 1 1149 155 is_stmt 0
	sgtu	a6,a6,a5
.LVL50:
	.loc 1 1149 148
	add	a4,a4,a6
.LVL51:
	.loc 1 1149 161 is_stmt 1
	.loc 1 1149 167 is_stmt 0
	lw	a6,-24(a2)
	.loc 1 1149 164
	add	a5,a5,a6
.LVL52:
	.loc 1 1149 171 is_stmt 1
	.loc 1 1149 203 is_stmt 0
	sw	a5,-24(a2)
.LVL53:
	.loc 1 1149 181
	sgtu	a6,a6,a5
	.loc 1 1149 174
	add	a6,a6,a4
.LVL54:
	.loc 1 1149 188 is_stmt 1
	.loc 1 1149 196
	.loc 1 1149 209
	.loc 1 1149 211 is_stmt 0
	lw	a4,-20(a1)
	mul	a7,a3,a4
	mulhu	a4,a3,a4
.LVL55:
	.loc 1 1149 242 is_stmt 1
	.loc 1 1149 269
	.loc 1 1149 336
	.loc 1 1149 339 is_stmt 0
	add	a7,a6,a7
.LVL56:
	.loc 1 1149 345 is_stmt 1
	.loc 1 1149 355 is_stmt 0
	sgtu	a6,a6,a7
.LVL57:
	.loc 1 1149 348
	add	a6,a4,a6
.LVL58:
	.loc 1 1149 361 is_stmt 1
	.loc 1 1149 367 is_stmt 0
	lw	a4,-20(a2)
.LVL59:
	.loc 1 1149 364
	add	a7,a7,a4
.LVL60:
	.loc 1 1149 371 is_stmt 1
	.loc 1 1149 403 is_stmt 0
	sw	a7,-20(a2)
.LVL61:
	.loc 1 1151 11
	lw	a5,-16(a1)
	.loc 1 1149 381
	sgtu	a4,a4,a7
	.loc 1 1149 374
	add	a4,a4,a6
.LVL62:
	.loc 1 1149 388 is_stmt 1
	.loc 1 1149 396
	.loc 1 1151 9
	.loc 1 1151 11 is_stmt 0
	mul	a7,a3,a5
.LVL63:
	mulhu	a5,a3,a5
.LVL64:
	.loc 1 1151 42 is_stmt 1
	.loc 1 1151 69
	.loc 1 1151 136
	.loc 1 1151 139 is_stmt 0
	add	a7,a4,a7
.LVL65:
	.loc 1 1151 145 is_stmt 1
	.loc 1 1151 155 is_stmt 0
	sgtu	a4,a4,a7
.LVL66:
	.loc 1 1151 148
	add	a4,a5,a4
.LVL67:
	.loc 1 1151 161 is_stmt 1
	.loc 1 1151 167 is_stmt 0
	lw	a5,-16(a2)
.LVL68:
	.loc 1 1151 164
	add	a7,a7,a5
.LVL69:
	.loc 1 1151 171 is_stmt 1
	.loc 1 1151 203 is_stmt 0
	sw	a7,-16(a2)
.LVL70:
	.loc 1 1151 211
	lw	a6,-12(a1)
	.loc 1 1151 181
	sgtu	a5,a5,a7
	.loc 1 1151 174
	add	a5,a5,a4
.LVL71:
	.loc 1 1151 188 is_stmt 1
	.loc 1 1151 196
	.loc 1 1151 209
	.loc 1 1151 211 is_stmt 0
	mul	a7,a3,a6
.LVL72:
	mulhu	a6,a3,a6
.LVL73:
	.loc 1 1151 242 is_stmt 1
	.loc 1 1151 269
	.loc 1 1151 336
	.loc 1 1151 339 is_stmt 0
	add	a7,a5,a7
.LVL74:
	.loc 1 1151 345 is_stmt 1
	.loc 1 1151 355 is_stmt 0
	sgtu	a5,a5,a7
.LVL75:
	.loc 1 1151 348
	add	a5,a6,a5
.LVL76:
	.loc 1 1151 361 is_stmt 1
	.loc 1 1151 367 is_stmt 0
	lw	a6,-12(a2)
.LVL77:
	.loc 1 1151 364
	add	a7,a7,a6
.LVL78:
	.loc 1 1151 371 is_stmt 1
	.loc 1 1151 403 is_stmt 0
	sw	a7,-12(a2)
.LVL79:
	.loc 1 1152 11
	lw	a4,-8(a1)
	.loc 1 1151 381
	sgtu	a6,a6,a7
	.loc 1 1151 374
	add	a6,a6,a5
.LVL80:
	.loc 1 1151 388 is_stmt 1
	.loc 1 1151 396
	.loc 1 1152 9
	.loc 1 1152 11 is_stmt 0
	mul	a7,a3,a4
.LVL81:
	mulhu	a4,a3,a4
.LVL82:
	.loc 1 1152 42 is_stmt 1
	.loc 1 1152 69
	.loc 1 1152 136
	.loc 1 1152 139 is_stmt 0
	add	a7,a6,a7
.LVL83:
	.loc 1 1152 145 is_stmt 1
	.loc 1 1152 155 is_stmt 0
	sgtu	a6,a6,a7
.LVL84:
	.loc 1 1152 148
	add	a6,a4,a6
.LVL85:
	.loc 1 1152 161 is_stmt 1
	.loc 1 1152 167 is_stmt 0
	lw	a4,-8(a2)
.LVL86:
	.loc 1 1152 164
	add	a7,a7,a4
.LVL87:
	.loc 1 1152 171 is_stmt 1
	.loc 1 1152 203 is_stmt 0
	sw	a7,-8(a2)
.LVL88:
	.loc 1 1152 211
	lw	a5,-4(a1)
	.loc 1 1152 181
	sgtu	a4,a4,a7
	.loc 1 1152 174
	add	a4,a4,a6
.LVL89:
	.loc 1 1152 188 is_stmt 1
	.loc 1 1152 196
	.loc 1 1152 209
	.loc 1 1152 211 is_stmt 0
	mul	a6,a3,a5
	mulhu	a5,a3,a5
.LVL90:
	.loc 1 1152 242 is_stmt 1
	.loc 1 1152 269
	.loc 1 1152 336
	.loc 1 1152 339 is_stmt 0
	add	a6,a4,a6
.LVL91:
	.loc 1 1152 345 is_stmt 1
	.loc 1 1152 355 is_stmt 0
	sgtu	a4,a4,a6
.LVL92:
	.loc 1 1152 348
	add	a4,a5,a4
.LVL93:
	.loc 1 1152 361 is_stmt 1
	.loc 1 1152 367 is_stmt 0
	lw	a5,-4(a2)
.LVL94:
	.loc 1 1152 364
	add	a6,a6,a5
.LVL95:
	.loc 1 1152 371 is_stmt 1
	.loc 1 1152 381 is_stmt 0
	sgtu	a5,a5,a6
	.loc 1 1152 403
	sw	a6,-4(a2)
.LVL96:
	.loc 1 1152 374
	add	a5,a5,a4
.LVL97:
	.loc 1 1152 388 is_stmt 1
	.loc 1 1152 396
.L16:
	slli	a0,a0,2
.LVL98:
	add	t3,a1,a0
	.loc 1 1152 216 is_stmt 0 discriminator 1
	mv	a6,a2
.LVL99:
.L17:
	lw	a7,0(a6)
	addi	a6,a6,4
.LVL100:
.LBE68:
	.loc 1 1156 5 discriminator 1
	bne	a1,t3,.L18
	add	a2,a2,a0
.LVL101:
.L19:
	.loc 1 1166 5 is_stmt 1 discriminator 1
	.loc 1 1167 9 discriminator 1
	.loc 1 1167 12 is_stmt 0 discriminator 1
	lw	a4,0(a2)
	.loc 1 1167 35 discriminator 1
	addi	a2,a2,4
.LVL102:
	.loc 1 1167 12 discriminator 1
	add	a4,a5,a4
	sw	a4,-4(a2)
	.loc 1 1167 18 is_stmt 1 discriminator 1
.LVL103:
	.loc 1 1167 34 discriminator 1
	.loc 1 1169 5 is_stmt 0 discriminator 1
	bltu	a4,a5,.L20
	.loc 1 1170 1
	ret
.LVL104:
.L15:
.LBB69:
	.loc 1 1132 11 is_stmt 1 discriminator 2
	.loc 1 1132 29 discriminator 2
	.loc 1 1133 9 discriminator 2
	.loc 1 1133 11 is_stmt 0 discriminator 2
	lw	t5,0(a7)
	addi	a7,a7,64
.LVL105:
	addi	a4,a4,64
.LVL106:
	mul	t4,a3,t5
.LBE69:
	.loc 1 1130 23 discriminator 2
	addi	t1,t1,-16
.LVL107:
.LBB70:
	.loc 1 1133 11 discriminator 2
	mulhu	t5,a3,t5
.LVL108:
	.loc 1 1133 42 is_stmt 1 discriminator 2
	.loc 1 1133 69 discriminator 2
	.loc 1 1133 136 discriminator 2
	.loc 1 1133 139 is_stmt 0 discriminator 2
	add	t4,a5,t4
.LVL109:
	.loc 1 1133 145 is_stmt 1 discriminator 2
	.loc 1 1133 155 is_stmt 0 discriminator 2
	sgtu	a5,a5,t4
.LVL110:
	.loc 1 1133 164 discriminator 2
	add	t4,t4,a6
.LVL111:
	.loc 1 1133 203 discriminator 2
	sw	t4,-64(a4)
.LVL112:
	.loc 1 1133 181 discriminator 2
	sltu	a6,t4,a6
	.loc 1 1133 148 discriminator 2
	add	t5,a5,t5
.LVL113:
	.loc 1 1133 161 is_stmt 1 discriminator 2
	.loc 1 1133 171 discriminator 2
	.loc 1 1133 211 is_stmt 0 discriminator 2
	lw	a5,-60(a7)
	.loc 1 1133 174 discriminator 2
	add	a6,a6,t5
.LVL114:
	.loc 1 1133 188 is_stmt 1 discriminator 2
	.loc 1 1133 196 discriminator 2
	.loc 1 1133 209 discriminator 2
	.loc 1 1133 211 is_stmt 0 discriminator 2
	mul	t4,a3,a5
.LVL115:
	mulhu	a5,a3,a5
.LVL116:
	.loc 1 1133 242 is_stmt 1 discriminator 2
	.loc 1 1133 269 discriminator 2
	.loc 1 1133 336 discriminator 2
	.loc 1 1133 339 is_stmt 0 discriminator 2
	add	t4,a6,t4
.LVL117:
	.loc 1 1133 345 is_stmt 1 discriminator 2
	.loc 1 1133 355 is_stmt 0 discriminator 2
	sgtu	a6,a6,t4
.LVL118:
	.loc 1 1133 348 discriminator 2
	add	a6,a6,a5
.LVL119:
	.loc 1 1133 361 is_stmt 1 discriminator 2
	.loc 1 1133 367 is_stmt 0 discriminator 2
	lw	a5,-60(a4)
.LVL120:
	.loc 1 1133 364 discriminator 2
	add	t4,a5,t4
.LVL121:
	.loc 1 1133 371 is_stmt 1 discriminator 2
	.loc 1 1133 403 is_stmt 0 discriminator 2
	sw	t4,-60(a4)
.LVL122:
	.loc 1 1133 381 discriminator 2
	sgtu	a5,a5,t4
	.loc 1 1133 374 discriminator 2
	add	a5,a5,a6
.LVL123:
	.loc 1 1133 388 is_stmt 1 discriminator 2
	.loc 1 1133 396 discriminator 2
	.loc 1 1134 9 discriminator 2
	.loc 1 1134 11 is_stmt 0 discriminator 2
	lw	a6,-56(a7)
	mul	t4,a3,a6
.LVL124:
	mulhu	a6,a3,a6
.LVL125:
	.loc 1 1134 42 is_stmt 1 discriminator 2
	.loc 1 1134 69 discriminator 2
	.loc 1 1134 136 discriminator 2
	.loc 1 1134 139 is_stmt 0 discriminator 2
	add	t4,a5,t4
.LVL126:
	.loc 1 1134 145 is_stmt 1 discriminator 2
	.loc 1 1134 155 is_stmt 0 discriminator 2
	sgtu	a5,a5,t4
.LVL127:
	.loc 1 1134 148 discriminator 2
	add	a5,a5,a6
.LVL128:
	.loc 1 1134 161 is_stmt 1 discriminator 2
	.loc 1 1134 167 is_stmt 0 discriminator 2
	lw	a6,-56(a4)
.LVL129:
	.loc 1 1134 164 discriminator 2
	add	t4,a6,t4
.LVL130:
	.loc 1 1134 171 is_stmt 1 discriminator 2
	.loc 1 1134 203 is_stmt 0 discriminator 2
	sw	t4,-56(a4)
.LVL131:
	.loc 1 1134 181 discriminator 2
	sgtu	a6,a6,t4
	.loc 1 1134 174 discriminator 2
	add	a6,a6,a5
.LVL132:
	.loc 1 1134 188 is_stmt 1 discriminator 2
	.loc 1 1134 196 discriminator 2
	.loc 1 1134 209 discriminator 2
	.loc 1 1134 211 is_stmt 0 discriminator 2
	lw	a5,-52(a7)
	mul	t4,a3,a5
.LVL133:
	mulhu	a5,a3,a5
.LVL134:
	.loc 1 1134 242 is_stmt 1 discriminator 2
	.loc 1 1134 269 discriminator 2
	.loc 1 1134 336 discriminator 2
	.loc 1 1134 339 is_stmt 0 discriminator 2
	add	t4,a6,t4
.LVL135:
	.loc 1 1134 345 is_stmt 1 discriminator 2
	.loc 1 1134 355 is_stmt 0 discriminator 2
	sgtu	a6,a6,t4
.LVL136:
	.loc 1 1134 348 discriminator 2
	add	a6,a6,a5
.LVL137:
	.loc 1 1134 361 is_stmt 1 discriminator 2
	.loc 1 1134 367 is_stmt 0 discriminator 2
	lw	a5,-52(a4)
.LVL138:
	.loc 1 1134 364 discriminator 2
	add	t4,a5,t4
.LVL139:
	.loc 1 1134 371 is_stmt 1 discriminator 2
	.loc 1 1134 403 is_stmt 0 discriminator 2
	sw	t4,-52(a4)
.LVL140:
	.loc 1 1134 381 discriminator 2
	sgtu	a5,a5,t4
	.loc 1 1134 374 discriminator 2
	add	a5,a5,a6
.LVL141:
	.loc 1 1134 388 is_stmt 1 discriminator 2
	.loc 1 1134 396 discriminator 2
	.loc 1 1135 9 discriminator 2
	.loc 1 1135 11 is_stmt 0 discriminator 2
	lw	a6,-48(a7)
	mul	t4,a3,a6
.LVL142:
	mulhu	a6,a3,a6
.LVL143:
	.loc 1 1135 42 is_stmt 1 discriminator 2
	.loc 1 1135 69 discriminator 2
	.loc 1 1135 136 discriminator 2
	.loc 1 1135 139 is_stmt 0 discriminator 2
	add	t4,a5,t4
.LVL144:
	.loc 1 1135 145 is_stmt 1 discriminator 2
	.loc 1 1135 155 is_stmt 0 discriminator 2
	sgtu	a5,a5,t4
.LVL145:
	.loc 1 1135 148 discriminator 2
	add	a5,a5,a6
.LVL146:
	.loc 1 1135 161 is_stmt 1 discriminator 2
	.loc 1 1135 167 is_stmt 0 discriminator 2
	lw	a6,-48(a4)
.LVL147:
	.loc 1 1135 164 discriminator 2
	add	t4,a6,t4
.LVL148:
	.loc 1 1135 171 is_stmt 1 discriminator 2
	.loc 1 1135 203 is_stmt 0 discriminator 2
	sw	t4,-48(a4)
.LVL149:
	.loc 1 1135 181 discriminator 2
	sgtu	a6,a6,t4
	.loc 1 1135 174 discriminator 2
	add	a6,a6,a5
.LVL150:
	.loc 1 1135 188 is_stmt 1 discriminator 2
	.loc 1 1135 196 discriminator 2
	.loc 1 1135 209 discriminator 2
	.loc 1 1135 211 is_stmt 0 discriminator 2
	lw	a5,-44(a7)
	mul	t4,a3,a5
.LVL151:
	mulhu	a5,a3,a5
.LVL152:
	.loc 1 1135 242 is_stmt 1 discriminator 2
	.loc 1 1135 269 discriminator 2
	.loc 1 1135 336 discriminator 2
	.loc 1 1135 339 is_stmt 0 discriminator 2
	add	t4,a6,t4
.LVL153:
	.loc 1 1135 345 is_stmt 1 discriminator 2
	.loc 1 1135 355 is_stmt 0 discriminator 2
	sgtu	a6,a6,t4
.LVL154:
	.loc 1 1135 348 discriminator 2
	add	a6,a6,a5
.LVL155:
	.loc 1 1135 361 is_stmt 1 discriminator 2
	.loc 1 1135 367 is_stmt 0 discriminator 2
	lw	a5,-44(a4)
.LVL156:
	.loc 1 1135 364 discriminator 2
	add	t4,a5,t4
.LVL157:
	.loc 1 1135 371 is_stmt 1 discriminator 2
	.loc 1 1135 403 is_stmt 0 discriminator 2
	sw	t4,-44(a4)
.LVL158:
	.loc 1 1135 381 discriminator 2
	sgtu	a5,a5,t4
	.loc 1 1135 374 discriminator 2
	add	a5,a5,a6
.LVL159:
	.loc 1 1135 388 is_stmt 1 discriminator 2
	.loc 1 1135 396 discriminator 2
	.loc 1 1136 9 discriminator 2
	.loc 1 1136 11 is_stmt 0 discriminator 2
	lw	a6,-40(a7)
	mul	t4,a3,a6
.LVL160:
	mulhu	a6,a3,a6
.LVL161:
	.loc 1 1136 42 is_stmt 1 discriminator 2
	.loc 1 1136 69 discriminator 2
	.loc 1 1136 136 discriminator 2
	.loc 1 1136 139 is_stmt 0 discriminator 2
	add	t4,a5,t4
.LVL162:
	.loc 1 1136 145 is_stmt 1 discriminator 2
	.loc 1 1136 155 is_stmt 0 discriminator 2
	sgtu	a5,a5,t4
.LVL163:
	.loc 1 1136 148 discriminator 2
	add	a5,a5,a6
.LVL164:
	.loc 1 1136 161 is_stmt 1 discriminator 2
	.loc 1 1136 167 is_stmt 0 discriminator 2
	lw	a6,-40(a4)
.LVL165:
	.loc 1 1136 164 discriminator 2
	add	t4,a6,t4
.LVL166:
	.loc 1 1136 171 is_stmt 1 discriminator 2
	.loc 1 1136 203 is_stmt 0 discriminator 2
	sw	t4,-40(a4)
.LVL167:
	.loc 1 1136 181 discriminator 2
	sgtu	a6,a6,t4
	.loc 1 1136 174 discriminator 2
	add	a6,a6,a5
.LVL168:
	.loc 1 1136 188 is_stmt 1 discriminator 2
	.loc 1 1136 196 discriminator 2
	.loc 1 1136 209 discriminator 2
	.loc 1 1136 211 is_stmt 0 discriminator 2
	lw	a5,-36(a7)
	mul	t4,a3,a5
.LVL169:
	mulhu	a5,a3,a5
.LVL170:
	.loc 1 1136 242 is_stmt 1 discriminator 2
	.loc 1 1136 269 discriminator 2
	.loc 1 1136 336 discriminator 2
	.loc 1 1136 339 is_stmt 0 discriminator 2
	add	t4,a6,t4
.LVL171:
	.loc 1 1136 345 is_stmt 1 discriminator 2
	.loc 1 1136 355 is_stmt 0 discriminator 2
	sgtu	a6,a6,t4
.LVL172:
	.loc 1 1136 348 discriminator 2
	add	a6,a6,a5
.LVL173:
	.loc 1 1136 361 is_stmt 1 discriminator 2
	.loc 1 1136 367 is_stmt 0 discriminator 2
	lw	a5,-36(a4)
.LVL174:
	.loc 1 1136 364 discriminator 2
	add	t4,a5,t4
.LVL175:
	.loc 1 1136 371 is_stmt 1 discriminator 2
	.loc 1 1136 403 is_stmt 0 discriminator 2
	sw	t4,-36(a4)
.LVL176:
	.loc 1 1136 381 discriminator 2
	sgtu	a5,a5,t4
	.loc 1 1136 374 discriminator 2
	add	a5,a5,a6
.LVL177:
	.loc 1 1136 388 is_stmt 1 discriminator 2
	.loc 1 1136 396 discriminator 2
	.loc 1 1138 9 discriminator 2
	.loc 1 1138 11 is_stmt 0 discriminator 2
	lw	a6,-32(a7)
	mul	t4,a3,a6
.LVL178:
	mulhu	a6,a3,a6
.LVL179:
	.loc 1 1138 42 is_stmt 1 discriminator 2
	.loc 1 1138 69 discriminator 2
	.loc 1 1138 136 discriminator 2
	.loc 1 1138 139 is_stmt 0 discriminator 2
	add	t4,a5,t4
.LVL180:
	.loc 1 1138 145 is_stmt 1 discriminator 2
	.loc 1 1138 155 is_stmt 0 discriminator 2
	sgtu	a5,a5,t4
.LVL181:
	.loc 1 1138 148 discriminator 2
	add	a5,a5,a6
.LVL182:
	.loc 1 1138 161 is_stmt 1 discriminator 2
	.loc 1 1138 167 is_stmt 0 discriminator 2
	lw	a6,-32(a4)
.LVL183:
	.loc 1 1138 164 discriminator 2
	add	t4,a6,t4
.LVL184:
	.loc 1 1138 171 is_stmt 1 discriminator 2
	.loc 1 1138 203 is_stmt 0 discriminator 2
	sw	t4,-32(a4)
.LVL185:
	.loc 1 1138 181 discriminator 2
	sgtu	a6,a6,t4
	.loc 1 1138 174 discriminator 2
	add	a6,a6,a5
.LVL186:
	.loc 1 1138 188 is_stmt 1 discriminator 2
	.loc 1 1138 196 discriminator 2
	.loc 1 1138 209 discriminator 2
	.loc 1 1138 211 is_stmt 0 discriminator 2
	lw	a5,-28(a7)
	mul	t4,a3,a5
.LVL187:
	mulhu	a5,a3,a5
.LVL188:
	.loc 1 1138 242 is_stmt 1 discriminator 2
	.loc 1 1138 269 discriminator 2
	.loc 1 1138 336 discriminator 2
	.loc 1 1138 339 is_stmt 0 discriminator 2
	add	t4,a6,t4
.LVL189:
	.loc 1 1138 345 is_stmt 1 discriminator 2
	.loc 1 1138 355 is_stmt 0 discriminator 2
	sgtu	a6,a6,t4
.LVL190:
	.loc 1 1138 348 discriminator 2
	add	a6,a6,a5
.LVL191:
	.loc 1 1138 361 is_stmt 1 discriminator 2
	.loc 1 1138 367 is_stmt 0 discriminator 2
	lw	a5,-28(a4)
.LVL192:
	.loc 1 1138 364 discriminator 2
	add	t4,a5,t4
.LVL193:
	.loc 1 1138 371 is_stmt 1 discriminator 2
	.loc 1 1138 403 is_stmt 0 discriminator 2
	sw	t4,-28(a4)
.LVL194:
	.loc 1 1138 381 discriminator 2
	sgtu	a5,a5,t4
	.loc 1 1138 374 discriminator 2
	add	a5,a5,a6
.LVL195:
	.loc 1 1138 388 is_stmt 1 discriminator 2
	.loc 1 1138 396 discriminator 2
	.loc 1 1139 9 discriminator 2
	.loc 1 1139 11 is_stmt 0 discriminator 2
	lw	a6,-24(a7)
	mul	t4,a3,a6
.LVL196:
	mulhu	a6,a3,a6
.LVL197:
	.loc 1 1139 42 is_stmt 1 discriminator 2
	.loc 1 1139 69 discriminator 2
	.loc 1 1139 136 discriminator 2
	.loc 1 1139 139 is_stmt 0 discriminator 2
	add	t4,a5,t4
.LVL198:
	.loc 1 1139 145 is_stmt 1 discriminator 2
	.loc 1 1139 155 is_stmt 0 discriminator 2
	sgtu	a5,a5,t4
.LVL199:
	.loc 1 1139 148 discriminator 2
	add	a5,a5,a6
.LVL200:
	.loc 1 1139 161 is_stmt 1 discriminator 2
	.loc 1 1139 167 is_stmt 0 discriminator 2
	lw	a6,-24(a4)
.LVL201:
	.loc 1 1139 164 discriminator 2
	add	t4,a6,t4
.LVL202:
	.loc 1 1139 171 is_stmt 1 discriminator 2
	.loc 1 1139 203 is_stmt 0 discriminator 2
	sw	t4,-24(a4)
.LVL203:
	.loc 1 1139 181 discriminator 2
	sgtu	a6,a6,t4
	.loc 1 1139 174 discriminator 2
	add	a6,a6,a5
.LVL204:
	.loc 1 1139 188 is_stmt 1 discriminator 2
	.loc 1 1139 196 discriminator 2
	.loc 1 1139 209 discriminator 2
	.loc 1 1139 211 is_stmt 0 discriminator 2
	lw	a5,-20(a7)
	mul	t4,a3,a5
.LVL205:
	mulhu	a5,a3,a5
.LVL206:
	.loc 1 1139 242 is_stmt 1 discriminator 2
	.loc 1 1139 269 discriminator 2
	.loc 1 1139 336 discriminator 2
	.loc 1 1139 339 is_stmt 0 discriminator 2
	add	t4,a6,t4
.LVL207:
	.loc 1 1139 345 is_stmt 1 discriminator 2
	.loc 1 1139 355 is_stmt 0 discriminator 2
	sgtu	a6,a6,t4
.LVL208:
	.loc 1 1139 348 discriminator 2
	add	a6,a6,a5
.LVL209:
	.loc 1 1139 361 is_stmt 1 discriminator 2
	.loc 1 1139 367 is_stmt 0 discriminator 2
	lw	a5,-20(a4)
.LVL210:
	.loc 1 1139 364 discriminator 2
	add	t4,a5,t4
.LVL211:
	.loc 1 1139 371 is_stmt 1 discriminator 2
	.loc 1 1139 403 is_stmt 0 discriminator 2
	sw	t4,-20(a4)
.LVL212:
	.loc 1 1139 381 discriminator 2
	sgtu	a5,a5,t4
	.loc 1 1139 374 discriminator 2
	add	a5,a5,a6
.LVL213:
	.loc 1 1139 388 is_stmt 1 discriminator 2
	.loc 1 1139 396 discriminator 2
	.loc 1 1140 9 discriminator 2
	.loc 1 1140 11 is_stmt 0 discriminator 2
	lw	a6,-16(a7)
	mul	t4,a3,a6
.LVL214:
	mulhu	a6,a3,a6
.LVL215:
	.loc 1 1140 42 is_stmt 1 discriminator 2
	.loc 1 1140 69 discriminator 2
	.loc 1 1140 136 discriminator 2
	.loc 1 1140 139 is_stmt 0 discriminator 2
	add	t4,a5,t4
.LVL216:
	.loc 1 1140 145 is_stmt 1 discriminator 2
	.loc 1 1140 155 is_stmt 0 discriminator 2
	sgtu	a5,a5,t4
.LVL217:
	.loc 1 1140 148 discriminator 2
	add	a5,a5,a6
.LVL218:
	.loc 1 1140 161 is_stmt 1 discriminator 2
	.loc 1 1140 167 is_stmt 0 discriminator 2
	lw	a6,-16(a4)
.LVL219:
	.loc 1 1140 164 discriminator 2
	add	t4,a6,t4
.LVL220:
	.loc 1 1140 171 is_stmt 1 discriminator 2
	.loc 1 1140 203 is_stmt 0 discriminator 2
	sw	t4,-16(a4)
.LVL221:
	.loc 1 1140 181 discriminator 2
	sgtu	a6,a6,t4
	.loc 1 1140 174 discriminator 2
	add	a6,a6,a5
.LVL222:
	.loc 1 1140 188 is_stmt 1 discriminator 2
	.loc 1 1140 196 discriminator 2
	.loc 1 1140 209 discriminator 2
	.loc 1 1140 211 is_stmt 0 discriminator 2
	lw	a5,-12(a7)
	mul	t4,a3,a5
.LVL223:
	mulhu	a5,a3,a5
.LVL224:
	.loc 1 1140 242 is_stmt 1 discriminator 2
	.loc 1 1140 269 discriminator 2
	.loc 1 1140 336 discriminator 2
	.loc 1 1140 339 is_stmt 0 discriminator 2
	add	t4,a6,t4
.LVL225:
	.loc 1 1140 345 is_stmt 1 discriminator 2
	.loc 1 1140 355 is_stmt 0 discriminator 2
	sgtu	a6,a6,t4
.LVL226:
	.loc 1 1140 348 discriminator 2
	add	a6,a6,a5
.LVL227:
	.loc 1 1140 361 is_stmt 1 discriminator 2
	.loc 1 1140 367 is_stmt 0 discriminator 2
	lw	a5,-12(a4)
.LVL228:
	.loc 1 1140 364 discriminator 2
	add	t4,a5,t4
.LVL229:
	.loc 1 1140 371 is_stmt 1 discriminator 2
	.loc 1 1140 403 is_stmt 0 discriminator 2
	sw	t4,-12(a4)
.LVL230:
	.loc 1 1140 381 discriminator 2
	sgtu	a5,a5,t4
	.loc 1 1140 374 discriminator 2
	add	a5,a5,a6
.LVL231:
	.loc 1 1140 388 is_stmt 1 discriminator 2
	.loc 1 1140 396 discriminator 2
	.loc 1 1141 9 discriminator 2
	.loc 1 1141 11 is_stmt 0 discriminator 2
	lw	a6,-8(a7)
	mul	t4,a3,a6
.LVL232:
	mulhu	a6,a3,a6
.LVL233:
	.loc 1 1141 42 is_stmt 1 discriminator 2
	.loc 1 1141 69 discriminator 2
	.loc 1 1141 136 discriminator 2
	.loc 1 1141 139 is_stmt 0 discriminator 2
	add	t4,a5,t4
.LVL234:
	.loc 1 1141 145 is_stmt 1 discriminator 2
	.loc 1 1141 155 is_stmt 0 discriminator 2
	sgtu	a5,a5,t4
.LVL235:
	.loc 1 1141 148 discriminator 2
	add	a5,a5,a6
.LVL236:
	.loc 1 1141 161 is_stmt 1 discriminator 2
	.loc 1 1141 167 is_stmt 0 discriminator 2
	lw	a6,-8(a4)
.LVL237:
	.loc 1 1141 164 discriminator 2
	add	t4,a6,t4
.LVL238:
	.loc 1 1141 171 is_stmt 1 discriminator 2
	.loc 1 1141 203 is_stmt 0 discriminator 2
	sw	t4,-8(a4)
.LVL239:
	.loc 1 1141 181 discriminator 2
	sgtu	a6,a6,t4
	.loc 1 1141 211 discriminator 2
	lw	t4,-4(a7)
.LVL240:
	.loc 1 1141 174 discriminator 2
	add	a6,a6,a5
.LVL241:
	.loc 1 1141 188 is_stmt 1 discriminator 2
	.loc 1 1141 196 discriminator 2
	.loc 1 1141 209 discriminator 2
	.loc 1 1141 211 is_stmt 0 discriminator 2
	mul	a5,a3,t4
	mulhu	t4,a3,t4
.LVL242:
	.loc 1 1141 242 is_stmt 1 discriminator 2
	.loc 1 1141 269 discriminator 2
	.loc 1 1141 336 discriminator 2
	.loc 1 1141 339 is_stmt 0 discriminator 2
	add	a5,a6,a5
.LVL243:
	.loc 1 1141 345 is_stmt 1 discriminator 2
	.loc 1 1141 355 is_stmt 0 discriminator 2
	sgtu	a6,a6,a5
.LVL244:
	.loc 1 1141 348 discriminator 2
	add	a6,a6,t4
.LVL245:
	.loc 1 1141 361 is_stmt 1 discriminator 2
	.loc 1 1141 367 is_stmt 0 discriminator 2
	lw	t4,-4(a4)
.LVL246:
	.loc 1 1141 364 discriminator 2
	add	a5,t4,a5
.LVL247:
	.loc 1 1141 371 is_stmt 1 discriminator 2
	.loc 1 1141 388 discriminator 2
	.loc 1 1141 396 discriminator 2
	.loc 1 1141 403 is_stmt 0 discriminator 2
	sw	a5,-4(a4)
.LVL248:
	.loc 1 1141 381 discriminator 2
	sgtu	a5,t4,a5
.LVL249:
	.loc 1 1141 374 discriminator 2
	add	a5,a5,a6
	j	.L14
.LVL250:
.L18:
.LBE70:
.LBB71:
	.loc 1 1158 11 is_stmt 1 discriminator 2
	.loc 1 1158 29 discriminator 2
	.loc 1 1159 9 discriminator 2
	.loc 1 1159 16 is_stmt 0 discriminator 2
	addi	a1,a1,4
.LVL251:
	.loc 1 1159 11 discriminator 2
	lw	t1,-4(a1)
	mul	a4,a3,t1
	mulhu	t1,a3,t1
.LVL252:
	.loc 1 1159 42 is_stmt 1 discriminator 2
	.loc 1 1159 69 discriminator 2
	.loc 1 1159 136 discriminator 2
	.loc 1 1159 139 is_stmt 0 discriminator 2
	add	a4,a5,a4
.LVL253:
	.loc 1 1159 145 is_stmt 1 discriminator 2
	.loc 1 1159 155 is_stmt 0 discriminator 2
	sgtu	a5,a5,a4
.LVL254:
	.loc 1 1159 164 discriminator 2
	add	a4,a7,a4
.LVL255:
	.loc 1 1159 203 discriminator 2
	sw	a4,-4(a6)
.LVL256:
	.loc 1 1159 181 discriminator 2
	sgtu	a4,a7,a4
	.loc 1 1159 148 discriminator 2
	add	t1,a5,t1
.LVL257:
	.loc 1 1159 161 is_stmt 1 discriminator 2
	.loc 1 1159 171 discriminator 2
	.loc 1 1159 188 discriminator 2
	.loc 1 1159 196 discriminator 2
	.loc 1 1159 174 is_stmt 0 discriminator 2
	add	a5,a4,t1
	j	.L17
.LVL258:
.L20:
.LBE71:
	.loc 1 1167 20
	li	a5,1
.LVL259:
	j	.L19
	.cfi_endproc
.LFE39:
	.size	mpi_mul_hlp, .-mpi_mul_hlp
	.section	.text.mbedtls_mpi_mod_int.part.4,"ax",@progbits
	.align	1
	.type	mbedtls_mpi_mod_int.part.4, @function
mbedtls_mpi_mod_int.part.4:
.LFB62:
	.loc 1 1478 5 is_stmt 1
	.cfi_startproc
.LVL260:
	.loc 1 1507 5
	.loc 1 1507 12 is_stmt 0
	lw	a6,4(a1)
.LVL261:
	.loc 1 1515 62
	li	a7,65536
	.loc 1 1507 22
	li	a5,0
	.loc 1 1507 5
	li	t1,-1
	.loc 1 1515 62
	addi	a7,a7,-1
.LVL262:
.L22:
	addi	a6,a6,-1
.LVL263:
	.loc 1 1507 5
	bne	a6,t1,.L23
	.loc 1 1524 5 is_stmt 1
	.loc 1 1524 7 is_stmt 0
	lw	a4,0(a1)
	bge	a4,zero,.L24
	.loc 1 1524 18
	beq	a5,zero,.L24
	.loc 1 1525 9 is_stmt 1
	.loc 1 1525 11 is_stmt 0
	sub	a5,a2,a5
.LVL264:
.L24:
	.loc 1 1527 5 is_stmt 1
	.loc 1 1527 8 is_stmt 0
	sw	a5,0(a0)
	.loc 1 1529 5 is_stmt 1
	.loc 1 1530 1 is_stmt 0
	li	a0,0
.LVL265:
	ret
.LVL266:
.L23:
	.loc 1 1509 9 is_stmt 1
	.loc 1 1509 11 is_stmt 0
	lw	a4,8(a1)
	slli	a3,a6,2
	.loc 1 1510 17
	slli	a5,a5,16
.LVL267:
	.loc 1 1509 11
	add	a4,a4,a3
	lw	a3,0(a4)
.LVL268:
	.loc 1 1510 9 is_stmt 1
	.loc 1 1511 9
	.loc 1 1512 9
	.loc 1 1514 9
	.loc 1 1515 9
	.loc 1 1510 62 is_stmt 0
	srli	a4,a3,16
	.loc 1 1510 11
	or	a5,a4,a5
.LVL269:
	.loc 1 1515 17
	remu	a5,a5,a2
.LVL270:
	.loc 1 1515 62
	and	a3,a3,a7
.LVL271:
	.loc 1 1515 17
	slli	a5,a5,16
.LVL272:
	.loc 1 1516 9 is_stmt 1
	.loc 1 1517 9
	.loc 1 1515 11 is_stmt 0
	or	a5,a3,a5
	remu	a5,a5,a2
.LVL273:
	j	.L22
	.cfi_endproc
.LFE62:
	.size	mbedtls_mpi_mod_int.part.4, .-mbedtls_mpi_mod_int.part.4
	.section	.text.mbedtls_mpi_init,"ax",@progbits
	.align	1
	.globl	mbedtls_mpi_init
	.type	mbedtls_mpi_init, @function
mbedtls_mpi_init:
.LFB6:
	.loc 1 83 1 is_stmt 1
	.cfi_startproc
.LVL274:
	.loc 1 84 5
	.loc 1 84 7 is_stmt 0
	beq	a0,zero,.L28
	.loc 1 87 5 is_stmt 1
	.loc 1 87 10 is_stmt 0
	li	a5,1
	sw	a5,0(a0)
	.loc 1 88 5 is_stmt 1
	.loc 1 88 10 is_stmt 0
	sw	zero,4(a0)
	.loc 1 89 5 is_stmt 1
	.loc 1 89 10 is_stmt 0
	sw	zero,8(a0)
.L28:
	.loc 1 90 1
	ret
	.cfi_endproc
.LFE6:
	.size	mbedtls_mpi_init, .-mbedtls_mpi_init
	.section	.text.mbedtls_mpi_free,"ax",@progbits
	.align	1
	.globl	mbedtls_mpi_free
	.type	mbedtls_mpi_free, @function
mbedtls_mpi_free:
.LFB7:
	.loc 1 96 1 is_stmt 1
	.cfi_startproc
.LVL275:
	.loc 1 97 5
	.loc 1 97 7 is_stmt 0
	beq	a0,zero,.L45
	.loc 1 96 1
	addi	sp,sp,-16
	.cfi_def_cfa_offset 16
	sw	s0,8(sp)
	sw	ra,12(sp)
	.cfi_offset 8, -8
	.cfi_offset 1, -4
	.loc 1 100 10
	lw	a5,8(a0)
	mv	s0,a0
	.loc 1 100 5 is_stmt 1
	.loc 1 100 7 is_stmt 0
	beq	a5,zero,.L35
	.loc 1 102 9 is_stmt 1
	lw	a4,4(a0)
.LVL276:
.LBB74:
.LBB75:
	.loc 1 63 5
	.loc 1 63 39
	.loc 1 63 44 is_stmt 0
	li	a3,-1
.LVL277:
.L36:
	.loc 1 63 47
	addi	a4,a4,-1
.LVL278:
	.loc 1 63 44
	bne	a4,a3,.L37
.LVL279:
.LBE75:
.LBE74:
	.loc 1 103 9 is_stmt 1
	lw	a0,8(s0)
.LVL280:
	call	vPortFree
.LVL281:
.L35:
	.loc 1 106 5
	.loc 1 106 10 is_stmt 0
	li	a5,1
	sw	a5,0(s0)
	.loc 1 107 5 is_stmt 1
	.loc 1 107 10 is_stmt 0
	sw	zero,4(s0)
	.loc 1 108 5 is_stmt 1
	.loc 1 108 10 is_stmt 0
	sw	zero,8(s0)
	.loc 1 109 1
	lw	ra,12(sp)
	.cfi_remember_state
	.cfi_restore 1
	lw	s0,8(sp)
	.cfi_restore 8
.LVL282:
	addi	sp,sp,16
	.cfi_def_cfa_offset 0
	jr	ra
.LVL283:
.L37:
	.cfi_restore_state
.LBB77:
.LBB76:
	.loc 1 63 52 is_stmt 1
	.loc 1 63 57 is_stmt 0
	sw	zero,0(a5)
	.loc 1 63 54
	addi	a5,a5,4
.LVL284:
	j	.L36
.LVL285:
.L45:
	.cfi_def_cfa_offset 0
	.cfi_restore 1
	.cfi_restore 8
	ret
.LBE76:
.LBE77:
	.cfi_endproc
.LFE7:
	.size	mbedtls_mpi_free, .-mbedtls_mpi_free
	.section	.text.mbedtls_mpi_grow,"ax",@progbits
	.align	1
	.globl	mbedtls_mpi_grow
	.type	mbedtls_mpi_grow, @function
mbedtls_mpi_grow:
.LFB8:
	.loc 1 115 1 is_stmt 1
	.cfi_startproc
.LVL286:
	.loc 1 116 5
	.loc 1 118 5
	.loc 1 118 7 is_stmt 0
	li	a5,8192
	addi	a5,a5,1808
	bleu	a1,a5,.L49
	.loc 1 119 15
	li	a0,-16
.LVL287:
	.loc 1 138 1
	ret
.LVL288:
.L51:
	.cfi_def_cfa_offset 16
	.cfi_offset 1, -4
	.cfi_offset 8, -8
	.cfi_offset 9, -12
	.cfi_offset 18, -16
	.loc 1 119 15
	li	a0,-16
.LVL289:
.L48:
	.loc 1 138 1
	lw	ra,12(sp)
	.cfi_restore 1
	lw	s0,8(sp)
	.cfi_restore 8
.LVL290:
	lw	s1,4(sp)
	.cfi_restore 9
	lw	s2,0(sp)
	.cfi_restore 18
	addi	sp,sp,16
	.cfi_def_cfa_offset 0
	jr	ra
.LVL291:
.L49:
	.loc 1 115 1
	addi	sp,sp,-16
	.cfi_def_cfa_offset 16
	sw	s0,8(sp)
	sw	ra,12(sp)
	sw	s1,4(sp)
	sw	s2,0(sp)
	.cfi_offset 8, -8
	.cfi_offset 1, -4
	.cfi_offset 9, -12
	.cfi_offset 18, -16
	.loc 1 121 7
	lw	a5,4(a0)
	mv	s0,a0
	.loc 1 121 5 is_stmt 1
	.loc 1 137 11 is_stmt 0
	li	a0,0
.LVL292:
	.loc 1 121 7
	bgeu	a5,a1,.L48
	mv	s1,a1
.LVL293:
.LBB82:
.LBB83:
	.loc 1 123 9 is_stmt 1
	.loc 1 123 38 is_stmt 0
	mv	a0,s1
	li	a1,4
.LVL294:
	call	mycalloc
.LVL295:
	mv	s2,a0
.LVL296:
	.loc 1 123 11
	beq	a0,zero,.L51
	.loc 1 126 9 is_stmt 1
	.loc 1 126 14 is_stmt 0
	lw	a1,8(s0)
	.loc 1 126 11
	beq	a1,zero,.L52
	.loc 1 128 13 is_stmt 1
	lw	a2,4(s0)
	slli	a2,a2,2
	call	memcpy
.LVL297:
	.loc 1 129 13
	lw	a4,8(s0)
	lw	a5,4(s0)
.LVL298:
.LBB84:
.LBB85:
	.loc 1 63 5
	.loc 1 63 39
	.loc 1 63 44 is_stmt 0
	li	a3,-1
.LVL299:
.L53:
	.loc 1 63 47
	addi	a5,a5,-1
.LVL300:
	.loc 1 63 44
	bne	a5,a3,.L54
.LVL301:
.LBE85:
.LBE84:
	.loc 1 130 13 is_stmt 1
	lw	a0,8(s0)
	call	vPortFree
.LVL302:
.L52:
	.loc 1 133 9
	.loc 1 133 14 is_stmt 0
	sw	s1,4(s0)
	.loc 1 134 9 is_stmt 1
	.loc 1 134 14 is_stmt 0
	sw	s2,8(s0)
	.loc 1 137 11
	li	a0,0
	j	.L48
.LVL303:
.L54:
.LBB87:
.LBB86:
	.loc 1 63 52 is_stmt 1
	.loc 1 63 57 is_stmt 0
	sw	zero,0(a4)
	.loc 1 63 54
	addi	a4,a4,4
.LVL304:
	j	.L53
.LBE86:
.LBE87:
.LBE83:
.LBE82:
	.cfi_endproc
.LFE8:
	.size	mbedtls_mpi_grow, .-mbedtls_mpi_grow
	.section	.text.mbedtls_mpi_shrink,"ax",@progbits
	.align	1
	.globl	mbedtls_mpi_shrink
	.type	mbedtls_mpi_shrink, @function
mbedtls_mpi_shrink:
.LFB9:
	.loc 1 145 1 is_stmt 1
	.cfi_startproc
.LVL305:
	.loc 1 146 5
	.loc 1 147 5
	.loc 1 150 5
	.loc 1 150 10 is_stmt 0
	lw	a4,4(a0)
	.loc 1 150 7
	bgtu	a4,a1,.L80
	.loc 1 151 9 is_stmt 1
	.loc 1 151 17 is_stmt 0
	tail	mbedtls_mpi_grow
.LVL306:
.L69:
	.cfi_def_cfa_offset 16
	.cfi_offset 1, -4
	.cfi_offset 8, -8
	.cfi_offset 9, -12
	.cfi_offset 18, -16
	.loc 1 154 9 is_stmt 1
	.loc 1 154 17 is_stmt 0
	lw	a4,8(s0)
	slli	a3,a5,2
	add	a4,a4,a3
	.loc 1 154 11
	lw	a4,0(a4)
	bne	a4,zero,.L68
	.loc 1 153 32 discriminator 2
	addi	a5,a5,-1
.LVL307:
.L67:
	.loc 1 153 5 discriminator 1
	bne	a5,zero,.L69
.L68:
	.loc 1 156 5 is_stmt 1
	.loc 1 156 6 is_stmt 0
	addi	a5,a5,1
.LVL308:
	.loc 1 158 5 is_stmt 1
	bgeu	s1,a5,.L70
	mv	s1,a5
.LVL309:
.L70:
	.loc 1 161 5
	.loc 1 161 34 is_stmt 0
	li	a1,4
.LVL310:
	mv	a0,s1
	call	mycalloc
.LVL311:
	mv	s2,a0
.LVL312:
	.loc 1 162 15
	li	a5,-16
	.loc 1 161 7
	beq	a0,zero,.L65
	.loc 1 164 5 is_stmt 1
	.loc 1 164 10 is_stmt 0
	lw	a1,8(s0)
	.loc 1 164 7
	beq	a1,zero,.L72
	.loc 1 166 9 is_stmt 1
	slli	a2,s1,2
	call	memcpy
.LVL313:
	.loc 1 167 9
	lw	a4,8(s0)
	lw	a5,4(s0)
.LVL314:
.LBB90:
.LBB91:
	.loc 1 63 5
	.loc 1 63 39
	.loc 1 63 44 is_stmt 0
	li	a3,-1
.LVL315:
.L73:
	.loc 1 63 47
	addi	a5,a5,-1
.LVL316:
	.loc 1 63 44
	bne	a5,a3,.L74
.LVL317:
.LBE91:
.LBE90:
	.loc 1 168 9 is_stmt 1
	lw	a0,8(s0)
	call	vPortFree
.LVL318:
.L72:
	.loc 1 171 5
	.loc 1 171 10 is_stmt 0
	sw	s1,4(s0)
	.loc 1 172 5 is_stmt 1
	.loc 1 172 10 is_stmt 0
	sw	s2,8(s0)
	.loc 1 174 5 is_stmt 1
	.loc 1 174 11 is_stmt 0
	li	a5,0
.L65:
	.loc 1 175 1
	lw	ra,12(sp)
	.cfi_restore 1
	lw	s0,8(sp)
	.cfi_restore 8
.LVL319:
	lw	s1,4(sp)
	.cfi_restore 9
.LVL320:
	lw	s2,0(sp)
	.cfi_restore 18
.LVL321:
	mv	a0,a5
	addi	sp,sp,16
	.cfi_def_cfa_offset 0
	jr	ra
.LVL322:
.L80:
	.loc 1 145 1
	addi	sp,sp,-16
	.cfi_def_cfa_offset 16
	sw	s0,8(sp)
	sw	s1,4(sp)
	sw	ra,12(sp)
	sw	s2,0(sp)
	.cfi_offset 8, -8
	.cfi_offset 9, -12
	.cfi_offset 1, -4
	.cfi_offset 18, -16
	mv	s0,a0
	mv	s1,a1
	addi	a5,a4,-1
	j	.L67
.LVL323:
.L74:
.LBB93:
.LBB92:
	.loc 1 63 52 is_stmt 1
	.loc 1 63 57 is_stmt 0
	sw	zero,0(a4)
	.loc 1 63 54
	addi	a4,a4,4
.LVL324:
	j	.L73
.LBE92:
.LBE93:
	.cfi_endproc
.LFE9:
	.size	mbedtls_mpi_shrink, .-mbedtls_mpi_shrink
	.section	.text.mbedtls_mpi_copy,"ax",@progbits
	.align	1
	.globl	mbedtls_mpi_copy
	.type	mbedtls_mpi_copy, @function
mbedtls_mpi_copy:
.LFB10:
	.loc 1 181 1 is_stmt 1
	.cfi_startproc
.LVL325:
	.loc 1 182 5
	.loc 1 183 5
	.loc 1 185 5
	.loc 1 181 1 is_stmt 0
	addi	sp,sp,-32
	.cfi_def_cfa_offset 32
	sw	ra,28(sp)
	sw	s0,24(sp)
	sw	s1,20(sp)
	sw	s2,16(sp)
	sw	s3,12(sp)
	.cfi_offset 1, -4
	.cfi_offset 8, -8
	.cfi_offset 9, -12
	.cfi_offset 18, -16
	.cfi_offset 19, -20
	.loc 1 185 7
	beq	a0,a1,.L89
	.loc 1 188 10
	lw	a4,8(a1)
	mv	s2,a1
	.loc 1 188 5 is_stmt 1
	.loc 1 188 7 is_stmt 0
	bne	a4,zero,.L85
	.loc 1 190 9 is_stmt 1
	call	mbedtls_mpi_free
.LVL326:
	.loc 1 191 9
.L89:
	.loc 1 186 15 is_stmt 0
	li	s3,0
	j	.L83
.LVL327:
.L85:
	.loc 1 194 12
	lw	a2,4(a1)
	mv	s1,a0
	.loc 1 194 5 is_stmt 1
.LVL328:
.L91:
	.loc 1 194 32 is_stmt 0 discriminator 2
	addi	a2,a2,-1
.LVL329:
	.loc 1 194 5 discriminator 2
	beq	a2,zero,.L87
	.loc 1 195 9 is_stmt 1
	.loc 1 195 17 is_stmt 0
	slli	a5,a2,2
	add	a5,a4,a5
	.loc 1 195 11
	lw	a5,0(a5)
	beq	a5,zero,.L91
.L87:
	.loc 1 197 5 is_stmt 1
	.loc 1 199 13 is_stmt 0
	lw	a5,0(s2)
	.loc 1 197 6
	addi	s0,a2,1
.LVL330:
	.loc 1 199 5 is_stmt 1
	.loc 1 201 22 is_stmt 0
	mv	a1,s0
.LVL331:
	.loc 1 199 10
	sw	a5,0(s1)
	.loc 1 201 5 is_stmt 1
	.loc 1 201 10
	.loc 1 201 22 is_stmt 0
	mv	a0,s1
	call	mbedtls_mpi_grow
.LVL332:
	mv	s3,a0
.LVL333:
	.loc 1 201 12
	bne	a0,zero,.L83
	.loc 1 203 5 is_stmt 1
	lw	a2,4(s1)
	lw	a0,8(s1)
.LVL334:
	li	a1,0
	slli	a2,a2,2
	call	memset
.LVL335:
	.loc 1 204 5
	lw	a1,8(s2)
	lw	a0,8(s1)
	slli	a2,s0,2
	call	memcpy
.LVL336:
.L83:
	.loc 1 209 1 is_stmt 0
	lw	ra,28(sp)
	.cfi_restore 1
	lw	s0,24(sp)
	.cfi_restore 8
	mv	a0,s3
	lw	s1,20(sp)
	.cfi_restore 9
	lw	s2,16(sp)
	.cfi_restore 18
	lw	s3,12(sp)
	.cfi_restore 19
	addi	sp,sp,32
	.cfi_def_cfa_offset 0
	jr	ra
	.cfi_endproc
.LFE10:
	.size	mbedtls_mpi_copy, .-mbedtls_mpi_copy
	.section	.text.mbedtls_mpi_swap,"ax",@progbits
	.align	1
	.globl	mbedtls_mpi_swap
	.type	mbedtls_mpi_swap, @function
mbedtls_mpi_swap:
.LFB11:
	.loc 1 215 1 is_stmt 1
	.cfi_startproc
.LVL337:
	.loc 1 216 5
	.loc 1 218 5
	.loc 1 215 1 is_stmt 0
	addi	sp,sp,-32
	.cfi_def_cfa_offset 32
	sw	s0,24(sp)
	sw	s1,20(sp)
	.cfi_offset 8, -8
	.cfi_offset 9, -12
	mv	s0,a1
	mv	s1,a0
	.loc 1 218 5
	mv	a1,a0
.LVL338:
	li	a2,12
	addi	a0,sp,4
.LVL339:
	.loc 1 215 1
	sw	ra,28(sp)
	.cfi_offset 1, -4
	.loc 1 218 5
	call	memcpy
.LVL340:
	.loc 1 219 5 is_stmt 1
	mv	a1,s0
	li	a2,12
	mv	a0,s1
	call	memcpy
.LVL341:
	.loc 1 220 5
	addi	a1,sp,4
	mv	a0,s0
	li	a2,12
	call	memcpy
.LVL342:
	.loc 1 221 1 is_stmt 0
	lw	ra,28(sp)
	.cfi_restore 1
	lw	s0,24(sp)
	.cfi_restore 8
.LVL343:
	lw	s1,20(sp)
	.cfi_restore 9
.LVL344:
	addi	sp,sp,32
	.cfi_def_cfa_offset 0
	jr	ra
	.cfi_endproc
.LFE11:
	.size	mbedtls_mpi_swap, .-mbedtls_mpi_swap
	.section	.text.mbedtls_mpi_safe_cond_assign,"ax",@progbits
	.align	1
	.globl	mbedtls_mpi_safe_cond_assign
	.type	mbedtls_mpi_safe_cond_assign, @function
mbedtls_mpi_safe_cond_assign:
.LFB12:
	.loc 1 229 1 is_stmt 1
	.cfi_startproc
.LVL345:
	.loc 1 230 5
	.loc 1 231 5
	.loc 1 234 5
	.loc 1 229 1 is_stmt 0
	addi	sp,sp,-32
	.cfi_def_cfa_offset 32
.LVL346:
	.loc 1 236 5 is_stmt 1
	.loc 1 236 10
	.loc 1 229 1 is_stmt 0
	sw	s0,24(sp)
	sw	s1,20(sp)
	sw	ra,28(sp)
	.cfi_offset 8, -8
	.cfi_offset 9, -12
	.cfi_offset 1, -4
	.loc 1 229 1
	mv	s1,a1
	.loc 1 236 22
	lw	a1,4(a1)
.LVL347:
	.loc 1 229 1
	mv	s0,a0
	sw	a2,12(sp)
.LVL348:
	.loc 1 236 22
	call	mbedtls_mpi_grow
.LVL349:
	.loc 1 236 12
	bne	a0,zero,.L94
	.loc 1 234 24
	lw	a2,12(sp)
	.loc 1 238 41
	lw	a3,0(s1)
	.loc 1 238 23
	li	a4,1
	.loc 1 234 24
	neg	a5,a2
	.loc 1 234 12
	or	a2,a2,a5
	andi	a2,a2,0xff
	.loc 1 238 17
	lw	a5,0(s0)
	.loc 1 234 12
	srli	a2,a2,7
	.loc 1 238 5 is_stmt 1
	.loc 1 238 23 is_stmt 0
	sub	a4,a4,a2
	.loc 1 238 17
	mul	a5,a4,a5
	.loc 1 238 41
	mul	a3,a2,a3
	.loc 1 238 34
	add	a5,a5,a3
	.loc 1 238 10
	sw	a5,0(s0)
	.loc 1 240 5 is_stmt 1
.LVL350:
	.loc 1 240 12 is_stmt 0
	li	a5,0
.LVL351:
.L96:
	.loc 1 240 5 discriminator 1
	lw	a3,4(s1)
	bgtu	a3,a5,.L97
.L98:
	.loc 1 243 5 discriminator 1
	lw	a3,4(s0)
	bgtu	a3,a5,.L99
.LVL352:
.L94:
	.loc 1 248 1
	lw	ra,28(sp)
	.cfi_remember_state
	.cfi_restore 1
	lw	s0,24(sp)
	.cfi_restore 8
.LVL353:
	lw	s1,20(sp)
	.cfi_restore 9
.LVL354:
	addi	sp,sp,32
	.cfi_def_cfa_offset 0
	jr	ra
.LVL355:
.L97:
	.cfi_restore_state
	.loc 1 241 9 is_stmt 1 discriminator 3
	.loc 1 241 23 is_stmt 0 discriminator 3
	lw	a1,8(s0)
	.loc 1 241 50 discriminator 3
	lw	a3,8(s1)
	slli	a6,a5,2
	.loc 1 241 23 discriminator 3
	add	a1,a1,a6
	.loc 1 241 50 discriminator 3
	add	a3,a3,a6
	.loc 1 241 54 discriminator 3
	lw	a3,0(a3)
	.loc 1 241 27 discriminator 3
	lw	a6,0(a1)
	.loc 1 240 28 discriminator 3
	addi	a5,a5,1
.LVL356:
	.loc 1 241 54 discriminator 3
	mul	a3,a2,a3
	.loc 1 241 27 discriminator 3
	mul	a6,a4,a6
	.loc 1 241 44 discriminator 3
	add	a3,a3,a6
	.loc 1 241 17 discriminator 3
	sw	a3,0(a1)
	j	.L96
.L99:
	.loc 1 244 9 is_stmt 1 discriminator 2
	.loc 1 244 17 is_stmt 0 discriminator 2
	lw	a3,8(s0)
	slli	a2,a5,2
	.loc 1 243 23 discriminator 2
	addi	a5,a5,1
.LVL357:
	.loc 1 244 17 discriminator 2
	add	a3,a3,a2
	lw	a2,0(a3)
	mul	a2,a2,a4
	sw	a2,0(a3)
	j	.L98
	.cfi_endproc
.LFE12:
	.size	mbedtls_mpi_safe_cond_assign, .-mbedtls_mpi_safe_cond_assign
	.section	.text.mbedtls_mpi_safe_cond_swap,"ax",@progbits
	.align	1
	.globl	mbedtls_mpi_safe_cond_swap
	.type	mbedtls_mpi_safe_cond_swap, @function
mbedtls_mpi_safe_cond_swap:
.LFB13:
	.loc 1 257 1 is_stmt 1
	.cfi_startproc
.LVL358:
	.loc 1 258 5
	.loc 1 259 5
	.loc 1 260 5
	.loc 1 262 5
	.loc 1 262 7 is_stmt 0
	bne	a0,a1,.L103
	.loc 1 263 15
	li	a0,0
.LVL359:
	.loc 1 285 1
	ret
.LVL360:
.L103:
	.loc 1 257 1
	addi	sp,sp,-16
	.cfi_def_cfa_offset 16
	sw	s0,8(sp)
	sw	s1,4(sp)
	sw	s2,0(sp)
	sw	ra,12(sp)
	.cfi_offset 8, -8
	.cfi_offset 9, -12
	.cfi_offset 18, -16
	.cfi_offset 1, -4
	mv	s1,a1
	.loc 1 266 5 is_stmt 1
	.loc 1 268 22 is_stmt 0
	lw	a1,4(a1)
.LVL361:
	mv	s2,a0
	mv	s0,a2
.LVL362:
	.loc 1 268 5 is_stmt 1
	.loc 1 268 10
	.loc 1 268 22 is_stmt 0
	call	mbedtls_mpi_grow
.LVL363:
	.loc 1 268 12
	bne	a0,zero,.L102
	.loc 1 269 5 is_stmt 1
	.loc 1 269 10
	.loc 1 269 22 is_stmt 0
	lw	a1,4(s2)
	mv	a0,s1
.LVL364:
	call	mbedtls_mpi_grow
.LVL365:
	.loc 1 269 12
	bne	a0,zero,.L102
	.loc 1 266 20
	neg	a5,s0
	.loc 1 266 10
	or	a5,s0,a5
	.loc 1 271 7
	lw	a1,0(s2)
	.loc 1 272 39
	lw	a2,0(s1)
	.loc 1 266 10
	andi	a5,a5,0xff
	srli	a5,a5,7
	.loc 1 271 5 is_stmt 1
.LVL366:
	.loc 1 272 5
	.loc 1 272 23 is_stmt 0
	li	a4,1
	sub	a4,a4,a5
	.loc 1 272 17
	mul	a3,a4,a1
	.loc 1 272 39
	mul	a2,a5,a2
	.loc 1 272 32
	add	a2,a2,a3
	.loc 1 272 10
	sw	a2,0(s2)
	.loc 1 273 5 is_stmt 1
	.loc 1 273 17 is_stmt 0
	lw	a3,0(s1)
	.loc 1 273 36
	mul	a1,a5,a1
.LVL367:
	.loc 1 273 17
	mul	a3,a4,a3
	.loc 1 273 32
	add	a3,a3,a1
	.loc 1 273 10
	sw	a3,0(s1)
	.loc 1 276 5 is_stmt 1
.LVL368:
	.loc 1 276 12 is_stmt 0
	li	a1,0
.LVL369:
.L105:
	.loc 1 276 5 discriminator 1
	lw	a3,4(s2)
	bgtu	a3,a1,.L106
	.loc 1 263 15
	li	a0,0
.LVL370:
.L102:
	.loc 1 285 1
	lw	ra,12(sp)
	.cfi_remember_state
	.cfi_restore 1
	lw	s0,8(sp)
	.cfi_restore 8
.LVL371:
	lw	s1,4(sp)
	.cfi_restore 9
.LVL372:
	lw	s2,0(sp)
	.cfi_restore 18
.LVL373:
	addi	sp,sp,16
	.cfi_def_cfa_offset 0
	jr	ra
.LVL374:
.L106:
	.cfi_restore_state
	.loc 1 278 9 is_stmt 1 discriminator 3
	.loc 1 278 19 is_stmt 0 discriminator 3
	lw	a3,8(s2)
	.loc 1 279 48 discriminator 3
	lw	a2,8(s1)
	slli	a6,a1,2
	.loc 1 278 19 discriminator 3
	add	a3,a3,a6
	.loc 1 279 48 discriminator 3
	add	a2,a2,a6
	.loc 1 278 13 discriminator 3
	lw	a0,0(a3)
.LVL375:
	.loc 1 279 9 is_stmt 1 discriminator 3
	.loc 1 279 52 is_stmt 0 discriminator 3
	lw	a2,0(a2)
	.loc 1 276 28 discriminator 3
	addi	a1,a1,1
.LVL376:
	.loc 1 279 27 discriminator 3
	mul	a7,a4,a0
	.loc 1 279 52 discriminator 3
	mul	a2,a5,a2
	.loc 1 279 42 discriminator 3
	add	a2,a2,a7
	.loc 1 279 17 discriminator 3
	sw	a2,0(a3)
	.loc 1 280 9 is_stmt 1 discriminator 3
.LVL377:
	.loc 1 280 23 is_stmt 0 discriminator 3
	lw	a2,8(s1)
	.loc 1 280 48 discriminator 3
	mul	a0,a5,a0
.LVL378:
	.loc 1 280 23 discriminator 3
	add	a2,a2,a6
	.loc 1 280 27 discriminator 3
	lw	a3,0(a2)
	mul	a3,a4,a3
	.loc 1 280 42 discriminator 3
	add	a3,a3,a0
	.loc 1 280 17 discriminator 3
	sw	a3,0(a2)
	j	.L105
	.cfi_endproc
.LFE13:
	.size	mbedtls_mpi_safe_cond_swap, .-mbedtls_mpi_safe_cond_swap
	.section	.text.mbedtls_mpi_lset,"ax",@progbits
	.align	1
	.globl	mbedtls_mpi_lset
	.type	mbedtls_mpi_lset, @function
mbedtls_mpi_lset:
.LFB14:
	.loc 1 291 1 is_stmt 1
	.cfi_startproc
.LVL379:
	.loc 1 292 5
	.loc 1 294 5
	.loc 1 294 10
	.loc 1 291 1 is_stmt 0
	addi	sp,sp,-16
	.cfi_def_cfa_offset 16
	sw	s1,4(sp)
	.cfi_offset 9, -12
	mv	s1,a1
	.loc 1 294 22
	li	a1,1
.LVL380:
	.loc 1 291 1
	sw	s0,8(sp)
	sw	s2,0(sp)
	sw	ra,12(sp)
	.cfi_offset 8, -8
	.cfi_offset 18, -16
	.cfi_offset 1, -4
	.loc 1 291 1
	mv	s0,a0
	.loc 1 294 22
	call	mbedtls_mpi_grow
.LVL381:
	mv	s2,a0
.LVL382:
	.loc 1 294 12
	bne	a0,zero,.L111
.LVL383:
.LBB96:
.LBB97:
	.loc 1 295 5 is_stmt 1
	lw	a2,4(s0)
	lw	a0,8(s0)
.LVL384:
	li	a1,0
	slli	a2,a2,2
	call	memset
.LVL385:
	.loc 1 297 5
	.loc 1 297 30 is_stmt 0
	srai	a4,s1,31
	.loc 1 297 6
	lw	a3,8(s0)
	.loc 1 297 30
	xor	a5,a4,s1
	sub	a5,a5,a4
	.loc 1 297 13
	sw	a5,0(a3)
	.loc 1 298 5 is_stmt 1
	.loc 1 298 27 is_stmt 0
	li	a5,-1
	blt	s1,zero,.L113
	li	a5,1
.L113:
	.loc 1 298 10
	sw	a5,0(s0)
.LBE97:
.LBE96:
	.loc 1 302 5 is_stmt 1
.L112:
.LVL386:
.L111:
	.loc 1 303 1 is_stmt 0
	lw	ra,12(sp)
	.cfi_restore 1
	lw	s0,8(sp)
	.cfi_restore 8
.LVL387:
	mv	a0,s2
	lw	s1,4(sp)
	.cfi_restore 9
.LVL388:
	lw	s2,0(sp)
	.cfi_restore 18
.LVL389:
	addi	sp,sp,16
	.cfi_def_cfa_offset 0
	jr	ra
	.cfi_endproc
.LFE14:
	.size	mbedtls_mpi_lset, .-mbedtls_mpi_lset
	.section	.text.mbedtls_mpi_get_bit,"ax",@progbits
	.align	1
	.globl	mbedtls_mpi_get_bit
	.type	mbedtls_mpi_get_bit, @function
mbedtls_mpi_get_bit:
.LFB15:
	.loc 1 309 1 is_stmt 1
	.cfi_startproc
.LVL390:
	.loc 1 310 5
	.loc 1 310 14 is_stmt 0
	lw	a5,4(a0)
	slli	a5,a5,5
	.loc 1 310 7
	bleu	a5,a1,.L118
	.loc 1 313 5 is_stmt 1
	.loc 1 313 19 is_stmt 0
	lw	a5,8(a0)
	.loc 1 313 24
	srli	a4,a1,5
	.loc 1 313 19
	slli	a4,a4,2
	add	a5,a5,a4
	.loc 1 313 61
	lw	a0,0(a5)
.LVL391:
	srl	a0,a0,a1
	.loc 1 313 110
	andi	a0,a0,1
	ret
.LVL392:
.L118:
	.loc 1 311 15
	li	a0,0
.LVL393:
	.loc 1 314 1
	ret
	.cfi_endproc
.LFE15:
	.size	mbedtls_mpi_get_bit, .-mbedtls_mpi_get_bit
	.section	.text.mbedtls_mpi_set_bit,"ax",@progbits
	.align	1
	.globl	mbedtls_mpi_set_bit
	.type	mbedtls_mpi_set_bit, @function
mbedtls_mpi_set_bit:
.LFB16:
	.loc 1 320 1 is_stmt 1
	.cfi_startproc
.LVL394:
	.loc 1 321 5
	.loc 1 322 5
	.loc 1 323 5
	.loc 1 325 5
	.loc 1 325 7 is_stmt 0
	li	a5,1
	bgtu	a2,a5,.L123
	.loc 1 320 1
	addi	sp,sp,-32
	.cfi_def_cfa_offset 32
	sw	s0,24(sp)
	sw	s1,20(sp)
	sw	s2,16(sp)
	sw	s3,12(sp)
	sw	ra,28(sp)
	.cfi_offset 8, -8
	.cfi_offset 9, -12
	.cfi_offset 18, -16
	.cfi_offset 19, -20
	.cfi_offset 1, -4
	.loc 1 328 14
	lw	a5,4(a0)
	mv	s3,a0
	srli	s2,a1,5
.LVL395:
	slli	a5,a5,5
	mv	s1,a2
	mv	s0,a1
	.loc 1 328 5 is_stmt 1
	.loc 1 328 7 is_stmt 0
	bleu	a5,a1,.L121
.LVL396:
.L122:
	.loc 1 336 15
	lw	a4,8(s3)
	slli	s2,s2,2
.LVL397:
	.loc 1 323 12
	andi	a1,s0,31
.LVL398:
	.loc 1 336 5 is_stmt 1
	.loc 1 336 15 is_stmt 0
	add	a4,a4,s2
	lw	a3,0(a4)
	.loc 1 336 45
	li	a5,1
	sll	a5,a5,a1
	.loc 1 336 18
	not	a5,a5
	.loc 1 336 15
	and	a5,a3,a5
	sw	a5,0(a4)
	.loc 1 337 5 is_stmt 1
	.loc 1 337 15 is_stmt 0
	lw	a5,8(s3)
	.loc 1 337 41
	sll	a1,s1,a1
	.loc 1 337 15
	add	s2,a5,s2
	lw	s1,0(s2)
	li	a5,0
	or	a1,s1,a1
	sw	a1,0(s2)
.LVL399:
.L119:
	.loc 1 342 1
	lw	ra,28(sp)
	.cfi_remember_state
	.cfi_restore 1
	lw	s0,24(sp)
	.cfi_restore 8
.LVL400:
	lw	s1,20(sp)
	.cfi_restore 9
	lw	s2,16(sp)
	.cfi_restore 18
	lw	s3,12(sp)
	.cfi_restore 19
.LVL401:
	mv	a0,a5
	addi	sp,sp,32
	.cfi_def_cfa_offset 0
	jr	ra
.LVL402:
.L121:
	.cfi_restore_state
	.loc 1 330 9 is_stmt 1
	.loc 1 331 19 is_stmt 0
	li	a5,0
	.loc 1 330 11
	beq	a2,zero,.L119
	.loc 1 333 9 is_stmt 1
	.loc 1 333 14
	.loc 1 333 26 is_stmt 0
	addi	a1,s2,1
	call	mbedtls_mpi_grow
.LVL403:
	mv	a5,a0
.LVL404:
	.loc 1 333 16
	beq	a0,zero,.L122
	j	.L119
.LVL405:
.L123:
	.cfi_def_cfa_offset 0
	.cfi_restore 1
	.cfi_restore 8
	.cfi_restore 9
	.cfi_restore 18
	.cfi_restore 19
	.loc 1 326 15
	li	a5,-4
	.loc 1 342 1
	mv	a0,a5
.LVL406:
	ret
	.cfi_endproc
.LFE16:
	.size	mbedtls_mpi_set_bit, .-mbedtls_mpi_set_bit
	.section	.text.mbedtls_mpi_lsb,"ax",@progbits
	.align	1
	.globl	mbedtls_mpi_lsb
	.type	mbedtls_mpi_lsb, @function
mbedtls_mpi_lsb:
.LFB17:
	.loc 1 348 1 is_stmt 1
	.cfi_startproc
.LVL407:
	.loc 1 349 5
	.loc 1 351 5
	.loc 1 351 22 is_stmt 0
	lw	a6,4(a0)
	.loc 1 349 18
	li	a3,0
	.loc 1 351 12
	li	a4,0
	.loc 1 352 9
	li	a7,32
.LVL408:
.L134:
	.loc 1 351 5 discriminator 1
	bne	a6,a4,.L137
	.loc 1 356 11
	li	a1,0
.LVL409:
.L133:
	.loc 1 357 1
	mv	a0,a1
.LVL410:
	ret
.LVL411:
.L137:
	.loc 1 353 25
	lw	a5,8(a0)
	slli	a2,a4,2
	add	a5,a5,a2
	lw	t1,0(a5)
	.loc 1 352 16
	li	a5,0
.LVL412:
.L136:
	.loc 1 353 29
	srl	a2,t1,a5
	.loc 1 353 36
	andi	a2,a2,1
	add	a1,a3,a5
.LVL413:
	.loc 1 353 13 is_stmt 1
	.loc 1 353 15 is_stmt 0
	bne	a2,zero,.L133
	.loc 1 352 61 discriminator 2
	addi	a5,a5,1
.LVL414:
	.loc 1 352 70 discriminator 2
	add	a2,a3,a5
.LVL415:
	.loc 1 352 9 discriminator 2
	bne	a5,a7,.L136
	.loc 1 351 28 discriminator 2
	addi	a4,a4,1
.LVL416:
	.loc 1 352 70 discriminator 2
	mv	a3,a2
	j	.L134
	.cfi_endproc
.LFE17:
	.size	mbedtls_mpi_lsb, .-mbedtls_mpi_lsb
	.section	.text.mbedtls_mpi_bitlen,"ax",@progbits
	.align	1
	.globl	mbedtls_mpi_bitlen
	.type	mbedtls_mpi_bitlen, @function
mbedtls_mpi_bitlen:
.LFB19:
	.loc 1 381 1 is_stmt 1
	.cfi_startproc
.LVL417:
	.loc 1 382 5
	.loc 1 384 5
	.loc 1 384 10 is_stmt 0
	lw	a5,4(a0)
	.loc 1 384 7
	beq	a5,zero,.L139
	.loc 1 387 5 is_stmt 1
	lw	a4,8(a0)
	.loc 1 387 12 is_stmt 0
	addi	a5,a5,-1
.LVL418:
.L141:
	slli	a3,a5,2
	.loc 1 387 5 discriminator 1
	bne	a5,zero,.L143
.L142:
	.loc 1 391 5 is_stmt 1
	.loc 1 391 45 is_stmt 0
	add	a4,a4,a3
	lw	a2,0(a4)
.LVL419:
.LBB100:
.LBB101:
	.loc 1 364 5 is_stmt 1
	.loc 1 365 5
	.loc 1 367 5
	.loc 1 367 12 is_stmt 0
	li	a0,0
.LVL420:
	.loc 1 365 22
	li	a4,-2147483648
	.loc 1 367 5
	li	a3,32
.LVL421:
.L145:
	.loc 1 369 9 is_stmt 1
	.loc 1 369 15 is_stmt 0
	and	a1,a2,a4
	.loc 1 369 11
	bne	a1,zero,.L144
	.loc 1 371 9 is_stmt 1
	.loc 1 367 57 is_stmt 0
	addi	a0,a0,1
.LVL422:
	.loc 1 371 14
	srli	a4,a4,1
.LVL423:
	.loc 1 367 5
	bne	a0,a3,.L145
.L144:
	.loc 1 374 5 is_stmt 1
.LVL424:
.LBE101:
.LBE100:
	.loc 1 393 5
	.loc 1 393 55 is_stmt 0
	addi	a5,a5,1
.LVL425:
	slli	a5,a5,5
.LVL426:
	sub	a5,a5,a0
.LVL427:
.L139:
	.loc 1 394 1
	mv	a0,a5
	ret
.LVL428:
.L143:
	.loc 1 388 9 is_stmt 1
	.loc 1 388 17 is_stmt 0
	add	a2,a4,a3
	.loc 1 388 11
	lw	a2,0(a2)
	bne	a2,zero,.L142
	.loc 1 387 32 discriminator 2
	addi	a5,a5,-1
.LVL429:
	j	.L141
	.cfi_endproc
.LFE19:
	.size	mbedtls_mpi_bitlen, .-mbedtls_mpi_bitlen
	.section	.text.mbedtls_mpi_size,"ax",@progbits
	.align	1
	.globl	mbedtls_mpi_size
	.type	mbedtls_mpi_size, @function
mbedtls_mpi_size:
.LFB20:
	.loc 1 400 1 is_stmt 1
	.cfi_startproc
.LVL430:
	.loc 1 401 5
	.loc 1 400 1 is_stmt 0
	addi	sp,sp,-16
	.cfi_def_cfa_offset 16
	sw	ra,12(sp)
	.cfi_offset 1, -4
	.loc 1 401 15
	call	mbedtls_mpi_bitlen
.LVL431:
	.loc 1 402 1
	lw	ra,12(sp)
	.cfi_restore 1
	.loc 1 401 39
	addi	a0,a0,7
	.loc 1 402 1
	srli	a0,a0,3
	addi	sp,sp,16
	.cfi_def_cfa_offset 0
	jr	ra
	.cfi_endproc
.LFE20:
	.size	mbedtls_mpi_size, .-mbedtls_mpi_size
	.section	.text.mbedtls_mpi_read_binary,"ax",@progbits
	.align	1
	.globl	mbedtls_mpi_read_binary
	.type	mbedtls_mpi_read_binary, @function
mbedtls_mpi_read_binary:
.LFB25:
	.loc 1 675 1 is_stmt 1
	.cfi_startproc
.LVL432:
	.loc 1 676 5
	.loc 1 677 5
	.loc 1 679 5
	.loc 1 675 1 is_stmt 0
	addi	sp,sp,-32
	.cfi_def_cfa_offset 32
	sw	s0,24(sp)
	sw	s1,20(sp)
	sw	s2,16(sp)
	sw	s3,12(sp)
	sw	ra,28(sp)
	.cfi_offset 8, -8
	.cfi_offset 9, -12
	.cfi_offset 18, -16
	.cfi_offset 19, -20
	.cfi_offset 1, -4
	.loc 1 675 1
	mv	s2,a0
	mv	s3,a1
	mv	s1,a2
	.loc 1 679 12
	li	s0,0
.LVL433:
.L153:
	.loc 1 679 5 discriminator 1
	beq	s0,s1,.L158
	.loc 1 680 9 is_stmt 1
	.loc 1 680 16 is_stmt 0
	add	a5,s3,s0
	.loc 1 680 11
	lbu	a5,0(a5)
	beq	a5,zero,.L154
.L158:
	.loc 1 683 5 is_stmt 1
	.loc 1 683 10
	.loc 1 683 53 is_stmt 0
	sub	a5,s1,s0
	.loc 1 683 104
	andi	a1,a5,3
.LVL434:
	.loc 1 683 133
	snez	a1,a1
	.loc 1 683 58
	srli	a5,a5,2
	.loc 1 683 22
	add	a1,a1,a5
	mv	a0,s2
.LVL435:
	call	mbedtls_mpi_grow
.LVL436:
	.loc 1 683 12
	bne	a0,zero,.L152
	.loc 1 684 5 is_stmt 1
	.loc 1 684 10
	.loc 1 684 22 is_stmt 0
	li	a1,0
	mv	a0,s2
.LVL437:
	call	mbedtls_mpi_lset
.LVL438:
	.loc 1 686 24
	li	a5,0
	.loc 1 684 12
	beq	a0,zero,.L159
.L155:
.LVL439:
.L152:
	.loc 1 692 1
	lw	ra,28(sp)
	.cfi_remember_state
	.cfi_restore 1
	lw	s0,24(sp)
	.cfi_restore 8
.LVL440:
	lw	s1,20(sp)
	.cfi_restore 9
	lw	s2,16(sp)
	.cfi_restore 18
.LVL441:
	lw	s3,12(sp)
	.cfi_restore 19
.LVL442:
	addi	sp,sp,32
	.cfi_def_cfa_offset 0
	jr	ra
.LVL443:
.L154:
	.cfi_restore_state
	.loc 1 679 30 discriminator 2
	addi	s0,s0,1
.LVL444:
	j	.L153
.LVL445:
.L160:
	.loc 1 687 9 is_stmt 1 discriminator 3
	.loc 1 687 46 is_stmt 0 discriminator 3
	lw	a4,8(s2)
	andi	a3,a5,-4
	.loc 1 687 72 discriminator 3
	addi	s1,s1,-1
.LVL446:
	.loc 1 687 46 discriminator 3
	add	a4,a4,a3
	.loc 1 687 72 discriminator 3
	add	a3,s3,s1
	.loc 1 687 50 discriminator 3
	lbu	a3,0(a3)
	.loc 1 687 118 discriminator 3
	slli	a2,a5,3
	andi	a2,a2,24
	.loc 1 687 81 discriminator 3
	sll	a2,a3,a2
	.loc 1 687 46 discriminator 3
	lw	a3,0(a4)
	.loc 1 686 42 discriminator 3
	addi	a5,a5,1
.LVL447:
	.loc 1 687 46 discriminator 3
	or	a3,a3,a2
	sw	a3,0(a4)
.LVL448:
.L159:
	.loc 1 686 5 discriminator 1
	bgtu	s1,s0,.L160
	.loc 1 689 1
	j	.L152
	.cfi_endproc
.LFE25:
	.size	mbedtls_mpi_read_binary, .-mbedtls_mpi_read_binary
	.section	.text.mbedtls_mpi_write_binary,"ax",@progbits
	.align	1
	.globl	mbedtls_mpi_write_binary
	.type	mbedtls_mpi_write_binary, @function
mbedtls_mpi_write_binary:
.LFB26:
	.loc 1 698 1 is_stmt 1
	.cfi_startproc
.LVL449:
	addi	sp,sp,-32
	.cfi_def_cfa_offset 32
	sw	s0,24(sp)
	sw	s1,20(sp)
	sw	s3,12(sp)
	sw	ra,28(sp)
	sw	s2,16(sp)
	.cfi_offset 8, -8
	.cfi_offset 9, -12
	.cfi_offset 19, -20
	.cfi_offset 1, -4
	.cfi_offset 18, -16
	.loc 1 698 1 is_stmt 0
	mv	s1,a2
	mv	s3,a0
	mv	s0,a1
	.loc 1 699 5 is_stmt 1
	.loc 1 701 5
	.loc 1 701 9 is_stmt 0
	call	mbedtls_mpi_size
.LVL450:
	.loc 1 703 5 is_stmt 1
	.loc 1 703 7 is_stmt 0
	bgtu	a0,s1,.L167
	.loc 1 706 5
	mv	a2,s1
	mv	s2,a0
	.loc 1 706 5 is_stmt 1
	li	a1,0
	mv	a0,s0
.LVL451:
	call	memset
.LVL452:
	.loc 1 708 5
	add	a2,s0,s1
	.loc 1 708 28 is_stmt 0
	li	a5,0
.LVL453:
.L165:
	addi	a2,a2,-1
.LVL454:
	.loc 1 708 5 discriminator 1
	bne	a5,s2,.L166
	.loc 1 711 11
	li	a0,0
.LVL455:
.L163:
	.loc 1 712 1
	lw	ra,28(sp)
	.cfi_remember_state
	.cfi_restore 1
	lw	s0,24(sp)
	.cfi_restore 8
.LVL456:
	lw	s1,20(sp)
	.cfi_restore 9
.LVL457:
	lw	s2,16(sp)
	.cfi_restore 18
	lw	s3,12(sp)
	.cfi_restore 19
.LVL458:
	addi	sp,sp,32
	.cfi_def_cfa_offset 0
	jr	ra
.LVL459:
.L166:
	.cfi_restore_state
	.loc 1 709 9 is_stmt 1 discriminator 3
	.loc 1 709 39 is_stmt 0 discriminator 3
	lw	a1,8(s3)
	andi	a4,a5,-4
	add	a1,a1,a4
	.loc 1 709 109 discriminator 3
	slli	a4,a5,3
	andi	a3,a4,24
	.loc 1 709 72 discriminator 3
	lw	a4,0(a1)
	.loc 1 708 46 discriminator 3
	addi	a5,a5,1
.LVL460:
	.loc 1 709 72 discriminator 3
	srl	a4,a4,a3
	.loc 1 709 18 discriminator 3
	sb	a4,0(a2)
.LVL461:
	j	.L165
.LVL462:
.L167:
	.loc 1 704 15
	li	a0,-8
.LVL463:
	j	.L163
	.cfi_endproc
.LFE26:
	.size	mbedtls_mpi_write_binary, .-mbedtls_mpi_write_binary
	.section	.text.mbedtls_mpi_shift_l,"ax",@progbits
	.align	1
	.globl	mbedtls_mpi_shift_l
	.type	mbedtls_mpi_shift_l, @function
mbedtls_mpi_shift_l:
.LFB27:
	.loc 1 718 1 is_stmt 1
	.cfi_startproc
.LVL464:
	.loc 1 719 5
	.loc 1 720 5
	.loc 1 721 5
	.loc 1 723 5
	.loc 1 718 1 is_stmt 0
	addi	sp,sp,-32
	.cfi_def_cfa_offset 32
	sw	s0,24(sp)
	sw	s1,20(sp)
	sw	s2,16(sp)
	sw	s3,12(sp)
	.cfi_offset 8, -8
	.cfi_offset 9, -12
	.cfi_offset 18, -16
	.cfi_offset 19, -20
	mv	s0,a0
	mv	s2,a1
	sw	ra,28(sp)
	.cfi_offset 1, -4
	.loc 1 723 8
	srli	s1,a1,5
.LVL465:
	.loc 1 724 5 is_stmt 1
	.loc 1 724 8 is_stmt 0
	andi	s3,a1,31
.LVL466:
	.loc 1 726 5 is_stmt 1
	.loc 1 726 9 is_stmt 0
	call	mbedtls_mpi_bitlen
.LVL467:
	.loc 1 728 14
	lw	a5,4(s0)
	.loc 1 726 7
	add	a0,a0,s2
.LVL468:
	.loc 1 728 5 is_stmt 1
	.loc 1 728 14 is_stmt 0
	slli	a5,a5,5
	.loc 1 728 7
	bltu	a5,a0,.L170
.LVL469:
.L174:
	.loc 1 731 5 is_stmt 1
	.loc 1 736 5
	.loc 1 736 7 is_stmt 0
	li	a5,31
	bgtu	s2,a5,.L171
.L172:
	.loc 1 748 5 is_stmt 1
	.loc 1 748 7 is_stmt 0
	bne	s3,zero,.L182
.LVL470:
.L176:
	.loc 1 731 9
	li	a0,0
	j	.L169
.LVL471:
.L170:
	.loc 1 729 9 is_stmt 1
	.loc 1 729 14
	.loc 1 729 97 is_stmt 0
	andi	a1,a0,31
	.loc 1 729 133
	snez	a1,a1
	.loc 1 729 53
	srli	a0,a0,5
.LVL472:
	.loc 1 729 26
	add	a1,a1,a0
	mv	a0,s0
	call	mbedtls_mpi_grow
.LVL473:
	.loc 1 729 16
	beq	a0,zero,.L174
.L173:
.LVL474:
.L169:
	.loc 1 762 1
	lw	ra,28(sp)
	.cfi_remember_state
	.cfi_restore 1
	lw	s0,24(sp)
	.cfi_restore 8
.LVL475:
	lw	s1,20(sp)
	.cfi_restore 9
	lw	s2,16(sp)
	.cfi_restore 18
.LVL476:
	lw	s3,12(sp)
	.cfi_restore 19
.LVL477:
	addi	sp,sp,32
	.cfi_def_cfa_offset 0
	jr	ra
.LVL478:
.L171:
	.cfi_restore_state
	.loc 1 738 9 is_stmt 1
	li	a2,-4
	mul	a2,s1,a2
	.loc 1 738 16 is_stmt 0
	lw	a5,4(s0)
.LVL479:
	slli	a4,a5,2
.L177:
	addi	a4,a4,-4
	.loc 1 738 9 discriminator 1
	bgtu	a5,s1,.L178
	slli	a5,a5,2
.LVL480:
	.loc 1 741 9
	li	a3,-4
.L179:
	addi	a5,a5,-4
	.loc 1 741 9 discriminator 1
	beq	a5,a3,.L172
	.loc 1 742 13 is_stmt 1 discriminator 2
	.loc 1 742 25 is_stmt 0 discriminator 2
	lw	a4,8(s0)
	add	a4,a4,a5
	sw	zero,0(a4)
	j	.L179
.LVL481:
.L178:
	.loc 1 739 13 is_stmt 1 discriminator 3
	.loc 1 739 28 is_stmt 0 discriminator 3
	lw	a3,8(s0)
	.loc 1 738 33 discriminator 3
	addi	a5,a5,-1
.LVL482:
	.loc 1 739 31 discriminator 3
	add	a1,a3,a2
	add	a1,a1,a4
	lw	a1,0(a1)
	.loc 1 739 25 discriminator 3
	add	a3,a3,a4
	sw	a1,0(a3)
	j	.L177
.LVL483:
.L181:
	.loc 1 752 13 is_stmt 1 discriminator 3
	.loc 1 752 22 is_stmt 0 discriminator 3
	lw	a4,8(s0)
	slli	a0,s1,2
	.loc 1 750 33 discriminator 3
	addi	s1,s1,1
.LVL484:
	.loc 1 752 22 discriminator 3
	add	a4,a4,a0
	lw	a1,0(a4)
.LVL485:
	.loc 1 753 13 is_stmt 1 discriminator 3
	.loc 1 753 21 is_stmt 0 discriminator 3
	sll	a5,a1,s3
	sw	a5,0(a4)
	.loc 1 754 13 is_stmt 1 discriminator 3
	.loc 1 754 21 is_stmt 0 discriminator 3
	lw	a5,8(s0)
	add	a5,a5,a0
	lw	a4,0(a5)
	or	a4,a4,a2
	sw	a4,0(a5)
	.loc 1 755 13 is_stmt 1 discriminator 3
.LVL486:
	.loc 1 752 16 is_stmt 0 discriminator 3
	srl	a2,a1,a3
.LVL487:
.L175:
	.loc 1 750 9 discriminator 1
	lw	a5,4(s0)
	bgtu	a5,s1,.L181
	j	.L176
.LVL488:
.L182:
	.loc 1 752 64
	li	a3,32
	.loc 1 721 22
	li	a2,0
	.loc 1 752 64
	sub	a3,a3,s3
	j	.L175
	.cfi_endproc
.LFE27:
	.size	mbedtls_mpi_shift_l, .-mbedtls_mpi_shift_l
	.section	.text.mbedtls_mpi_shift_r,"ax",@progbits
	.align	1
	.globl	mbedtls_mpi_shift_r
	.type	mbedtls_mpi_shift_r, @function
mbedtls_mpi_shift_r:
.LFB28:
	.loc 1 768 1 is_stmt 1
	.cfi_startproc
.LVL489:
	.loc 1 769 5
	.loc 1 770 5
	.loc 1 772 5
	.loc 1 775 15 is_stmt 0
	lw	a5,4(a0)
	.loc 1 772 8
	srli	a3,a1,5
.LVL490:
	.loc 1 773 5 is_stmt 1
	.loc 1 773 8 is_stmt 0
	andi	a4,a1,31
.LVL491:
	.loc 1 775 5 is_stmt 1
	.loc 1 775 7 is_stmt 0
	bltu	a5,a3,.L185
	.loc 1 775 19 discriminator 1
	bne	a5,a3,.L186
	.loc 1 775 35 discriminator 2
	beq	a4,zero,.L187
.L185:
	.loc 1 776 9 is_stmt 1
	.loc 1 776 16 is_stmt 0
	li	a1,0
.LVL492:
	tail	mbedtls_mpi_lset
.LVL493:
.L186:
	.loc 1 781 5 is_stmt 1
	.loc 1 781 7 is_stmt 0
	li	a5,31
	bleu	a1,a5,.L188
	slli	a1,a3,2
.LVL494:
	li	a5,0
.L189:
.LVL495:
	.loc 1 783 30 discriminator 1
	lw	a2,4(a0)
	sub	a2,a2,a3
	.loc 1 783 9 discriminator 1
	bgtu	a2,a5,.L192
.LVL496:
.L194:
	.loc 1 786 9 discriminator 1
	lw	a3,4(a0)
	bgtu	a3,a5,.L195
.LVL497:
.L188:
	.loc 1 793 5 is_stmt 1
	.loc 1 793 7 is_stmt 0
	bne	a4,zero,.L190
.LVL498:
.L200:
	.loc 1 805 1
	li	a0,0
.LVL499:
	ret
.LVL500:
.L192:
	.loc 1 784 13 is_stmt 1 discriminator 3
	.loc 1 784 24 is_stmt 0 discriminator 3
	lw	a2,8(a0)
	.loc 1 784 21 discriminator 3
	slli	a7,a5,2
	.loc 1 783 37 discriminator 3
	addi	a5,a5,1
.LVL501:
	.loc 1 784 27 discriminator 3
	add	a6,a2,a1
	lw	a6,0(a6)
	.loc 1 784 21 discriminator 3
	add	a2,a2,a7
	addi	a1,a1,4
	sw	a6,0(a2)
	j	.L189
.LVL502:
.L195:
	.loc 1 787 13 is_stmt 1 discriminator 2
	.loc 1 787 21 is_stmt 0 discriminator 2
	lw	a3,8(a0)
	slli	a2,a5,2
	.loc 1 786 27 discriminator 2
	addi	a5,a5,1
.LVL503:
	.loc 1 787 21 discriminator 2
	add	a3,a3,a2
	sw	zero,0(a3)
	j	.L194
.LVL504:
.L190:
	.loc 1 795 9 is_stmt 1
	.loc 1 795 16 is_stmt 0
	lw	a5,4(a0)
.LVL505:
	.loc 1 797 68
	li	a6,32
	.loc 1 770 22
	li	a7,0
	.loc 1 795 9
	li	t1,-1
	.loc 1 797 68
	sub	a6,a6,a4
.LVL506:
.L197:
	addi	a5,a5,-1
.LVL507:
	.loc 1 795 9 discriminator 1
	beq	a5,t1,.L200
	.loc 1 797 13 is_stmt 1 discriminator 3
	.loc 1 797 22 is_stmt 0 discriminator 3
	lw	a1,8(a0)
	slli	a3,a5,2
	mv	a2,a3
	add	a3,a1,a3
	lw	a1,0(a3)
.LVL508:
	.loc 1 798 13 is_stmt 1 discriminator 3
	.loc 1 798 25 is_stmt 0 discriminator 3
	srl	t3,a1,a4
	sw	t3,0(a3)
	.loc 1 799 13 is_stmt 1 discriminator 3
	.loc 1 799 25 is_stmt 0 discriminator 3
	lw	a3,8(a0)
	add	a3,a3,a2
	lw	a2,0(a3)
	or	a2,a2,a7
	sw	a2,0(a3)
	.loc 1 800 13 is_stmt 1 discriminator 3
.LVL509:
	.loc 1 797 16 is_stmt 0 discriminator 3
	sll	a7,a1,a6
	j	.L197
.LVL510:
.L187:
	.loc 1 781 5 is_stmt 1
	.loc 1 781 7 is_stmt 0
	li	a5,31
	bleu	a1,a5,.L200
	li	a5,0
	j	.L194
	.cfi_endproc
.LFE28:
	.size	mbedtls_mpi_shift_r, .-mbedtls_mpi_shift_r
	.section	.text.mbedtls_mpi_cmp_abs,"ax",@progbits
	.align	1
	.globl	mbedtls_mpi_cmp_abs
	.type	mbedtls_mpi_cmp_abs, @function
mbedtls_mpi_cmp_abs:
.LFB29:
	.loc 1 811 1 is_stmt 1
	.cfi_startproc
.LVL511:
	.loc 1 812 5
	.loc 1 814 5
	.loc 1 814 12 is_stmt 0
	lw	a5,4(a0)
.LVL512:
.L202:
	.loc 1 814 5 discriminator 1
	bne	a5,zero,.L204
.L203:
	.loc 1 818 5 is_stmt 1
	.loc 1 818 12 is_stmt 0
	lw	a3,4(a1)
.LVL513:
.L205:
	.loc 1 818 5 discriminator 1
	bne	a3,zero,.L207
	.loc 1 822 5 is_stmt 1
	.loc 1 822 7 is_stmt 0
	snez	a4,a5
	j	.L201
.LVL514:
.L204:
	.loc 1 815 9 is_stmt 1
	.loc 1 815 17 is_stmt 0
	lw	a4,8(a0)
	slli	a3,a5,2
	add	a4,a4,a3
	.loc 1 815 11
	lw	a4,-4(a4)
	bne	a4,zero,.L203
	.loc 1 814 28 discriminator 2
	addi	a5,a5,-1
.LVL515:
	j	.L202
.LVL516:
.L207:
	.loc 1 819 9 is_stmt 1
	.loc 1 819 14 is_stmt 0
	lw	a2,8(a1)
	.loc 1 819 17
	slli	a4,a3,2
	add	a4,a2,a4
	.loc 1 819 11
	lw	a4,-4(a4)
	bne	a4,zero,.L206
	.loc 1 818 28 discriminator 2
	addi	a3,a3,-1
.LVL517:
	j	.L205
.L206:
	.loc 1 825 5 is_stmt 1
	.loc 1 825 23 is_stmt 0
	li	a4,1
	.loc 1 825 7
	bgtu	a5,a3,.L201
	.loc 1 826 5 is_stmt 1
	.loc 1 826 23 is_stmt 0
	li	a4,-1
	.loc 1 826 7
	bltu	a5,a3,.L201
	addi	a5,a5,-1
.LVL518:
	.loc 1 828 5
	li	a1,-1
.LVL519:
.L210:
	.loc 1 828 5 discriminator 1
	bne	a5,a1,.L211
	.loc 1 834 11
	li	a4,0
.LVL520:
.L201:
	.loc 1 835 1
	mv	a0,a4
.LVL521:
	ret
.LVL522:
.L211:
	.loc 1 830 9 is_stmt 1
	.loc 1 830 17 is_stmt 0
	lw	a3,8(a0)
	slli	a4,a5,2
	add	a3,a3,a4
	.loc 1 830 31
	add	a4,a2,a4
	.loc 1 830 17
	lw	a3,0(a3)
	.loc 1 830 31
	lw	a4,0(a4)
	.loc 1 830 11
	bgtu	a3,a4,.L214
	.loc 1 831 9 is_stmt 1
	addi	a5,a5,-1
.LVL523:
	.loc 1 831 11 is_stmt 0
	bgeu	a3,a4,.L210
	.loc 1 826 23
	li	a4,-1
	j	.L201
.LVL524:
.L214:
	.loc 1 825 23
	li	a4,1
	j	.L201
	.cfi_endproc
.LFE29:
	.size	mbedtls_mpi_cmp_abs, .-mbedtls_mpi_cmp_abs
	.section	.text.mpi_montmul,"ax",@progbits
	.align	1
	.type	mpi_montmul, @function
mpi_montmul:
.LFB48:
	.loc 1 1554 1 is_stmt 1
	.cfi_startproc
.LVL525:
	.loc 1 1555 5
	.loc 1 1556 5
	.loc 1 1558 5
	.loc 1 1558 21 is_stmt 0
	lw	a5,4(a2)
	.loc 1 1558 10
	lw	a7,4(a4)
	.loc 1 1558 21
	addi	a5,a5,1
	.loc 1 1558 7
	bltu	a7,a5,.L223
	.loc 1 1558 29 discriminator 1
	lw	a6,8(a4)
	.loc 1 1559 15 discriminator 1
	li	a5,-4
	.loc 1 1558 25 discriminator 1
	beq	a6,zero,.L226
	.loc 1 1554 1
	addi	sp,sp,-80
	.cfi_def_cfa_offset 80
	sw	s0,72(sp)
	sw	s5,52(sp)
	sw	s9,36(sp)
	.cfi_offset 8, -8
	.cfi_offset 21, -28
	.cfi_offset 25, -44
	mv	s0,a2
	mv	s9,a1
	mv	s5,a0
	.loc 1 1561 5 is_stmt 1
	slli	a2,a7,2
.LVL526:
	li	a1,0
.LVL527:
	mv	a0,a6
.LVL528:
	.loc 1 1554 1 is_stmt 0
	sw	s4,56(sp)
	sw	s7,44(sp)
	sw	s8,40(sp)
	sw	s10,32(sp)
	.cfi_offset 20, -24
	.cfi_offset 23, -36
	.cfi_offset 24, -40
	.cfi_offset 26, -48
	mv	s4,a4
	sw	ra,76(sp)
	sw	s1,68(sp)
	sw	s2,64(sp)
	sw	s3,60(sp)
	sw	s6,48(sp)
	sw	s11,28(sp)
	.cfi_offset 1, -4
	.cfi_offset 9, -12
	.cfi_offset 18, -16
	.cfi_offset 19, -20
	.cfi_offset 22, -32
	.cfi_offset 27, -52
	mv	s7,a3
	.loc 1 1561 5
	call	memset
.LVL529:
	.loc 1 1563 5 is_stmt 1
	.loc 1 1564 7 is_stmt 0
	lw	s8,4(s0)
	.loc 1 1565 7
	lw	s10,4(s9)
	.loc 1 1563 7
	lw	a5,8(s4)
.LVL530:
	.loc 1 1564 5 is_stmt 1
	.loc 1 1565 5
	.loc 1 1565 7 is_stmt 0
	bleu	s10,s8,.L219
	mv	s10,s8
.L219:
.LVL531:
	.loc 1 1567 5 is_stmt 1
	.loc 1 1578 21 is_stmt 0
	addi	s6,s8,1
	slli	s6,s6,2
	.loc 1 1563 7
	mv	s1,a5
	.loc 1 1567 12
	li	s3,0
.LVL532:
.L220:
	lw	a0,8(s5)
	.loc 1 1567 5 discriminator 1
	bne	s3,s8,.L221
	.loc 1 1581 5 is_stmt 1
	addi	a1,s6,-4
	add	a1,a5,a1
	mv	a2,s6
	call	memcpy
.LVL533:
	.loc 1 1583 5
	.loc 1 1583 9 is_stmt 0
	mv	a1,s0
	mv	a0,s5
	call	mbedtls_mpi_cmp_abs
.LVL534:
	lw	a1,8(s5)
	.loc 1 1583 7
	blt	a0,zero,.L222
	.loc 1 1584 9 is_stmt 1
	mv	a2,a1
	lw	a1,8(s0)
.L229:
	.loc 1 1587 9 is_stmt 0
	mv	a0,s3
	call	mpi_sub_hlp
.LVL535:
	.loc 1 1590 1
	lw	ra,76(sp)
	.cfi_remember_state
	.cfi_restore 1
	lw	s0,72(sp)
	.cfi_restore 8
.LVL536:
	.loc 1 1589 11
	li	a5,0
	.loc 1 1590 1
	lw	s1,68(sp)
	.cfi_restore 9
.LVL537:
	lw	s2,64(sp)
	.cfi_restore 18
	lw	s3,60(sp)
	.cfi_restore 19
.LVL538:
	lw	s4,56(sp)
	.cfi_restore 20
.LVL539:
	lw	s5,52(sp)
	.cfi_restore 21
.LVL540:
	lw	s6,48(sp)
	.cfi_restore 22
	lw	s7,44(sp)
	.cfi_restore 23
.LVL541:
	lw	s8,40(sp)
	.cfi_restore 24
.LVL542:
	lw	s9,36(sp)
	.cfi_restore 25
.LVL543:
	lw	s10,32(sp)
	.cfi_restore 26
.LVL544:
	lw	s11,28(sp)
	.cfi_restore 27
	mv	a0,a5
	addi	sp,sp,80
	.cfi_def_cfa_offset 0
	jr	ra
.LVL545:
.L221:
	.cfi_restore_state
	.loc 1 1573 29 discriminator 3
	lw	a1,8(s9)
	.loc 1 1572 12 discriminator 3
	slli	a4,s3,2
	add	a0,a0,a4
	lw	s11,0(a0)
	.loc 1 1573 26 discriminator 3
	lw	s2,0(a1)
	.loc 1 1573 21 discriminator 3
	lw	a4,0(s1)
	.loc 1 1575 9 discriminator 3
	mv	a2,s1
	.loc 1 1573 26 discriminator 3
	mul	s2,s11,s2
	.loc 1 1575 9 discriminator 3
	mv	a3,s11
	mv	a0,s10
	sw	a5,12(sp)
	.loc 1 1572 9 is_stmt 1 discriminator 3
.LVL546:
	.loc 1 1573 9 discriminator 3
	.loc 1 1567 25 is_stmt 0 discriminator 3
	addi	s3,s3,1
.LVL547:
	.loc 1 1573 21 discriminator 3
	add	s2,s2,a4
	.loc 1 1573 12 discriminator 3
	mul	s2,s2,s7
.LVL548:
	.loc 1 1575 9 is_stmt 1 discriminator 3
	call	mpi_mul_hlp
.LVL549:
	.loc 1 1576 9 discriminator 3
	lw	a1,8(s0)
	mv	a2,s1
	mv	a0,s8
	.loc 1 1578 11 is_stmt 0 discriminator 3
	addi	s1,s1,4
.LVL550:
	.loc 1 1576 9 discriminator 3
	mv	a3,s2
	call	mpi_mul_hlp
.LVL551:
	.loc 1 1578 9 is_stmt 1 discriminator 3
	.loc 1 1578 29 is_stmt 0 discriminator 3
	add	a4,s1,s6
	.loc 1 1578 14 discriminator 3
	sw	s11,-4(s1)
	.loc 1 1578 20 is_stmt 1 discriminator 3
	.loc 1 1578 29 is_stmt 0 discriminator 3
	sw	zero,0(a4)
	.loc 1 1567 25 discriminator 3
	lw	a5,12(sp)
.LVL552:
	j	.L220
.LVL553:
.L222:
	.loc 1 1587 9 is_stmt 1
	lw	a2,8(s4)
	j	.L229
.LVL554:
.L223:
	.cfi_def_cfa_offset 0
	.cfi_restore 1
	.cfi_restore 8
	.cfi_restore 9
	.cfi_restore 18
	.cfi_restore 19
	.cfi_restore 20
	.cfi_restore 21
	.cfi_restore 22
	.cfi_restore 23
	.cfi_restore 24
	.cfi_restore 25
	.cfi_restore 26
	.cfi_restore 27
	.loc 1 1559 15 is_stmt 0
	li	a5,-4
.L226:
	.loc 1 1590 1
	mv	a0,a5
.LVL555:
	ret
	.cfi_endproc
.LFE48:
	.size	mpi_montmul, .-mpi_montmul
	.section	.text.mbedtls_mpi_cmp_mpi,"ax",@progbits
	.align	1
	.globl	mbedtls_mpi_cmp_mpi
	.type	mbedtls_mpi_cmp_mpi, @function
mbedtls_mpi_cmp_mpi:
.LFB30:
	.loc 1 841 1 is_stmt 1
	.cfi_startproc
.LVL556:
	.loc 1 842 5
	.loc 1 844 5
	.loc 1 844 12 is_stmt 0
	lw	a5,4(a0)
.LVL557:
.L231:
	.loc 1 844 5 discriminator 1
	bne	a5,zero,.L233
.L232:
	.loc 1 848 5 is_stmt 1
	.loc 1 848 12 is_stmt 0
	lw	a4,4(a1)
.LVL558:
.L234:
	.loc 1 848 5 discriminator 1
	bne	a4,zero,.L236
	.loc 1 852 5 is_stmt 1
	.loc 1 867 11 is_stmt 0
	li	a4,0
.LVL559:
	.loc 1 852 7
	bne	a5,zero,.L245
	j	.L230
.L233:
	.loc 1 845 9 is_stmt 1
	.loc 1 845 17 is_stmt 0
	lw	a4,8(a0)
	slli	a3,a5,2
	add	a4,a4,a3
	.loc 1 845 11
	lw	a4,-4(a4)
	bne	a4,zero,.L232
	.loc 1 844 28 discriminator 2
	addi	a5,a5,-1
.LVL560:
	j	.L231
.LVL561:
.L236:
	.loc 1 849 9 is_stmt 1
	.loc 1 849 14 is_stmt 0
	lw	a6,8(a1)
	.loc 1 849 17
	slli	a3,a4,2
	add	a3,a6,a3
	.loc 1 849 11
	lw	a3,-4(a3)
	bne	a3,zero,.L235
	.loc 1 848 28 discriminator 2
	addi	a4,a4,-1
.LVL562:
	j	.L234
.L235:
	.loc 1 855 5 is_stmt 1
	.loc 1 855 7 is_stmt 0
	bleu	a5,a4,.L238
.LVL563:
.L245:
	.loc 1 855 17 is_stmt 1 discriminator 1
	.loc 1 855 26 is_stmt 0 discriminator 1
	lw	a4,0(a0)
.LVL564:
.L230:
	.loc 1 868 1
	mv	a0,a4
.LVL565:
	ret
.LVL566:
.L238:
	.loc 1 856 5 is_stmt 1
	lw	a3,0(a1)
	.loc 1 856 7 is_stmt 0
	bgeu	a5,a4,.L240
	.loc 1 856 17 is_stmt 1 discriminator 1
	.loc 1 856 25 is_stmt 0 discriminator 1
	neg	a4,a3
.LVL567:
	j	.L230
.LVL568:
.L240:
	.loc 1 858 5 is_stmt 1
	.loc 1 858 10 is_stmt 0
	lw	a4,0(a0)
.LVL569:
	.loc 1 858 7
	ble	a4,zero,.L241
	.loc 1 858 18 discriminator 1
	bge	a3,zero,.L242
	.loc 1 858 38
	li	a4,1
	j	.L230
.L241:
	.loc 1 859 5 is_stmt 1
	.loc 1 859 7 is_stmt 0
	ble	a3,zero,.L242
	.loc 1 859 18 discriminator 1
	beq	a4,zero,.L242
	.loc 1 859 38
	li	a4,-1
	j	.L230
.LVL570:
.L244:
	.loc 1 863 9 is_stmt 1
	.loc 1 863 17 is_stmt 0
	lw	a2,8(a0)
	slli	a3,a5,2
	add	a2,a2,a3
	.loc 1 863 31
	add	a3,a6,a3
	.loc 1 863 17
	lw	a2,0(a2)
	.loc 1 863 31
	lw	a3,0(a3)
	.loc 1 863 11
	bgtu	a2,a3,.L230
	.loc 1 864 9 is_stmt 1
	addi	a5,a5,-1
.LVL571:
	.loc 1 864 11 is_stmt 0
	bgeu	a2,a3,.L243
	.loc 1 864 41 is_stmt 1 discriminator 1
	.loc 1 864 49 is_stmt 0 discriminator 1
	neg	a4,a4
	j	.L230
.LVL572:
.L242:
	addi	a5,a5,-1
.LVL573:
	.loc 1 861 5 discriminator 1
	li	a1,-1
.LVL574:
.L243:
	bne	a5,a1,.L244
	.loc 1 867 11
	li	a4,0
	j	.L230
	.cfi_endproc
.LFE30:
	.size	mbedtls_mpi_cmp_mpi, .-mbedtls_mpi_cmp_mpi
	.section	.text.mbedtls_mpi_cmp_int,"ax",@progbits
	.align	1
	.globl	mbedtls_mpi_cmp_int
	.type	mbedtls_mpi_cmp_int, @function
mbedtls_mpi_cmp_int:
.LFB31:
	.loc 1 874 1 is_stmt 1
	.cfi_startproc
.LVL575:
	.loc 1 875 5
	.loc 1 876 5
	.loc 1 878 5
	.loc 1 878 25 is_stmt 0
	srai	a4,a1,31
	xor	a5,a4,a1
	.loc 1 874 1
	addi	sp,sp,-32
	.cfi_def_cfa_offset 32
	.loc 1 878 25
	sub	a5,a5,a4
	.loc 1 878 8
	sw	a5,0(sp)
	.loc 1 879 5 is_stmt 1
	.loc 1 874 1 is_stmt 0
	sw	ra,28(sp)
	.cfi_offset 1, -4
	.loc 1 879 26
	li	a5,1
	bge	a1,zero,.L252
	li	a5,-1
.L252:
	.loc 1 879 9 discriminator 4
	sw	a5,4(sp)
	.loc 1 880 5 is_stmt 1 discriminator 4
	.loc 1 883 13 is_stmt 0 discriminator 4
	addi	a1,sp,4
.LVL576:
	.loc 1 880 9 discriminator 4
	li	a5,1
	sw	a5,8(sp)
	.loc 1 881 5 is_stmt 1 discriminator 4
	.loc 1 881 9 is_stmt 0 discriminator 4
	sw	sp,12(sp)
	.loc 1 883 5 is_stmt 1 discriminator 4
	.loc 1 883 13 is_stmt 0 discriminator 4
	call	mbedtls_mpi_cmp_mpi
.LVL577:
	.loc 1 884 1 discriminator 4
	lw	ra,28(sp)
	.cfi_restore 1
	addi	sp,sp,32
	.cfi_def_cfa_offset 0
	jr	ra
	.cfi_endproc
.LFE31:
	.size	mbedtls_mpi_cmp_int, .-mbedtls_mpi_cmp_int
	.section	.text.mbedtls_mpi_add_abs,"ax",@progbits
	.align	1
	.globl	mbedtls_mpi_add_abs
	.type	mbedtls_mpi_add_abs, @function
mbedtls_mpi_add_abs:
.LFB32:
	.loc 1 890 1 is_stmt 1
	.cfi_startproc
.LVL578:
	.loc 1 891 5
	.loc 1 892 5
	.loc 1 893 5
	.loc 1 895 5
	.loc 1 890 1 is_stmt 0
	addi	sp,sp,-48
	.cfi_def_cfa_offset 48
	sw	s1,36(sp)
	sw	s2,32(sp)
	sw	ra,44(sp)
	sw	s0,40(sp)
	sw	s3,28(sp)
	sw	s4,24(sp)
	.cfi_offset 9, -12
	.cfi_offset 18, -16
	.cfi_offset 1, -4
	.cfi_offset 8, -8
	.cfi_offset 19, -20
	.cfi_offset 20, -24
	.loc 1 890 1
	mv	s2,a0
	mv	s1,a1
	.loc 1 895 7
	beq	a0,a2,.L257
	.loc 1 900 5 is_stmt 1
	.loc 1 900 7 is_stmt 0
	bne	a0,a1,.L258
.LVL579:
.L260:
	.loc 1 890 1
	mv	s1,a2
.LVL580:
.L257:
	.loc 1 906 5 is_stmt 1
	.loc 1 906 10 is_stmt 0
	li	a5,1
	sw	a5,0(s2)
	.loc 1 908 5 is_stmt 1
	.loc 1 908 12 is_stmt 0
	lw	s0,4(s1)
.LVL581:
.L261:
	.loc 1 908 5 discriminator 1
	bne	s0,zero,.L263
.L262:
	.loc 1 912 5 is_stmt 1
	.loc 1 912 10
	.loc 1 912 22 is_stmt 0
	mv	a1,s0
	mv	a0,s2
	call	mbedtls_mpi_grow
.LVL582:
	mv	s4,a0
.LVL583:
	.loc 1 912 12
	bne	a0,zero,.L256
	.loc 1 914 5 is_stmt 1
	.loc 1 914 17 is_stmt 0
	lw	a5,8(s2)
	.loc 1 914 7
	lw	a0,8(s1)
.LVL584:
	.loc 1 914 15 is_stmt 1
	.loc 1 914 25
	.loc 1 919 5
	.loc 1 919 12 is_stmt 0
	li	a3,0
	.loc 1 914 17
	mv	a2,a5
	.loc 1 914 27
	li	s1,0
.LVL585:
.L264:
	.loc 1 919 5 discriminator 1
	bne	s0,a3,.L265
	slli	a4,s0,2
	add	a5,a5,a4
.LVL586:
.L266:
	.loc 1 926 10
	beq	s1,zero,.L256
	.loc 1 928 9 is_stmt 1
	.loc 1 928 11 is_stmt 0
	lw	a4,4(s2)
	addi	s3,s0,1
	bgtu	a4,s0,.L267
	.loc 1 930 13 is_stmt 1
	.loc 1 930 18
	.loc 1 930 30 is_stmt 0
	mv	a1,s3
	mv	a0,s2
	call	mbedtls_mpi_grow
.LVL587:
	.loc 1 930 20
	bne	a0,zero,.L269
	.loc 1 931 13 is_stmt 1
	.loc 1 931 15 is_stmt 0
	lw	a5,8(s2)
	slli	s0,s0,2
.LVL588:
	add	a5,a5,s0
.LVL589:
.L267:
	.loc 1 934 9 is_stmt 1
	.loc 1 934 12 is_stmt 0
	lw	a4,0(a5)
	.loc 1 934 40
	mv	s0,s3
	addi	a5,a5,4
.LVL590:
	.loc 1 934 12
	add	a4,s1,a4
	sw	a4,-4(a5)
	.loc 1 934 18 is_stmt 1
	.loc 1 934 27 is_stmt 0
	sltu	s1,a4,s1
.LVL591:
	.loc 1 934 34 is_stmt 1
	.loc 1 934 39
	j	.L266
.LVL592:
.L258:
	sw	a2,12(sp)
	.loc 1 901 9
	.loc 1 901 14
	.loc 1 901 26 is_stmt 0
	call	mbedtls_mpi_copy
.LVL593:
	mv	s4,a0
.LVL594:
	.loc 1 901 16
	lw	a2,12(sp)
	beq	a0,zero,.L260
.LVL595:
.L256:
	.loc 1 940 1
	lw	ra,44(sp)
	.cfi_remember_state
	.cfi_restore 1
	lw	s0,40(sp)
	.cfi_restore 8
	mv	a0,s4
	lw	s1,36(sp)
	.cfi_restore 9
	lw	s2,32(sp)
	.cfi_restore 18
.LVL596:
	lw	s3,28(sp)
	.cfi_restore 19
	lw	s4,24(sp)
	.cfi_restore 20
	addi	sp,sp,48
	.cfi_def_cfa_offset 0
	jr	ra
.LVL597:
.L263:
	.cfi_restore_state
	.loc 1 909 9 is_stmt 1
	.loc 1 909 17 is_stmt 0
	lw	a5,8(s1)
	slli	a4,s0,2
	add	a5,a5,a4
	.loc 1 909 11
	lw	a5,-4(a5)
	bne	a5,zero,.L262
	.loc 1 908 28 discriminator 2
	addi	s0,s0,-1
.LVL598:
	j	.L261
.LVL599:
.L265:
	.loc 1 921 9 is_stmt 1 discriminator 3
	.loc 1 921 12 is_stmt 0 discriminator 3
	slli	a4,a3,2
	add	a4,a0,a4
	lw	a1,0(a4)
.LVL600:
	.loc 1 922 9 is_stmt 1 discriminator 3
	.loc 1 922 12 is_stmt 0 discriminator 3
	lw	a4,0(a2)
	.loc 1 919 25 discriminator 3
	addi	a3,a3,1
.LVL601:
	.loc 1 919 35 discriminator 3
	addi	a2,a2,4
.LVL602:
	.loc 1 922 12 discriminator 3
	add	a4,s1,a4
	.loc 1 922 18 is_stmt 1 discriminator 3
	.loc 1 922 27 is_stmt 0 discriminator 3
	sltu	s1,a4,s1
.LVL603:
	.loc 1 923 9 is_stmt 1 discriminator 3
	.loc 1 923 12 is_stmt 0 discriminator 3
	add	a4,a4,a1
	sw	a4,-4(a2)
	.loc 1 923 20 is_stmt 1 discriminator 3
	.loc 1 923 30 is_stmt 0 discriminator 3
	sltu	a4,a4,a1
	.loc 1 923 22 discriminator 3
	add	s1,a4,s1
.LVL604:
	j	.L264
.LVL605:
.L269:
.L259:
	.loc 1 939 5 is_stmt 1
	.loc 1 930 30 is_stmt 0
	mv	s4,a0
	.loc 1 939 11
	j	.L256
	.cfi_endproc
.LFE32:
	.size	mbedtls_mpi_add_abs, .-mbedtls_mpi_add_abs
	.section	.text.mbedtls_mpi_sub_abs,"ax",@progbits
	.align	1
	.globl	mbedtls_mpi_sub_abs
	.type	mbedtls_mpi_sub_abs, @function
mbedtls_mpi_sub_abs:
.LFB34:
	.loc 1 967 1 is_stmt 1
	.cfi_startproc
.LVL606:
	.loc 1 968 5
	.loc 1 969 5
	.loc 1 970 5
	.loc 1 972 5
	.loc 1 967 1 is_stmt 0
	addi	sp,sp,-48
	.cfi_def_cfa_offset 48
	sw	s3,28(sp)
	.cfi_offset 19, -20
	mv	s3,a1
	sw	s2,32(sp)
	.loc 1 972 9
	mv	a1,a2
.LVL607:
	.cfi_offset 18, -16
	.loc 1 967 1
	mv	s2,a0
	.loc 1 972 9
	mv	a0,s3
.LVL608:
	.loc 1 967 1
	sw	s0,40(sp)
	sw	s1,36(sp)
	sw	ra,44(sp)
	.cfi_offset 8, -8
	.cfi_offset 9, -12
	.cfi_offset 1, -4
	.loc 1 967 1
	mv	s1,a2
	.loc 1 972 9
	call	mbedtls_mpi_cmp_abs
.LVL609:
	.loc 1 973 15
	li	s0,-10
	.loc 1 972 7
	blt	a0,zero,.L271
	.loc 1 975 5 is_stmt 1
.LVL610:
.LBB102:
.LBB103:
	.loc 1 84 5
	.loc 1 87 5
	.loc 1 87 10 is_stmt 0
	li	a5,1
	sw	a5,4(sp)
	.loc 1 88 5 is_stmt 1
	.loc 1 88 10 is_stmt 0
	sw	zero,8(sp)
	.loc 1 89 5 is_stmt 1
	.loc 1 89 10 is_stmt 0
	sw	zero,12(sp)
.LVL611:
.LBE103:
.LBE102:
	.loc 1 977 5 is_stmt 1
	.loc 1 977 7 is_stmt 0
	bne	s1,s2,.L273
	.loc 1 979 9 is_stmt 1
	.loc 1 979 14
	.loc 1 979 26 is_stmt 0
	mv	a1,s1
	addi	a0,sp,4
	call	mbedtls_mpi_copy
.LVL612:
	mv	s0,a0
.LVL613:
	.loc 1 979 16
	bne	a0,zero,.L274
	.loc 1 980 11
	addi	s1,sp,4
.LVL614:
.L273:
	.loc 1 983 5 is_stmt 1
	.loc 1 983 7 is_stmt 0
	bne	s3,s2,.L275
.L277:
	.loc 1 989 5 is_stmt 1
	.loc 1 989 10 is_stmt 0
	li	a5,1
	sw	a5,0(s2)
	.loc 1 991 5 is_stmt 1
.LVL615:
	.loc 1 993 5
	.loc 1 993 12 is_stmt 0
	lw	a0,4(s1)
.LVL616:
	lw	a1,8(s1)
.L276:
	.loc 1 993 5 discriminator 1
	bne	a0,zero,.L279
.L278:
	.loc 1 997 5 is_stmt 1
	lw	a2,8(s2)
	.loc 1 991 9 is_stmt 0
	li	s0,0
	.loc 1 997 5
	call	mpi_sub_hlp
.LVL617:
	j	.L274
.LVL618:
.L275:
	.loc 1 984 9 is_stmt 1
	.loc 1 984 14
	.loc 1 984 26 is_stmt 0
	mv	a1,s3
	mv	a0,s2
	call	mbedtls_mpi_copy
.LVL619:
	mv	s0,a0
.LVL620:
	.loc 1 984 16
	beq	a0,zero,.L277
.LVL621:
.L274:
	.loc 1 1001 5 is_stmt 1
	addi	a0,sp,4
	call	mbedtls_mpi_free
.LVL622:
	.loc 1 1003 5
.L271:
	.loc 1 1004 1 is_stmt 0
	mv	a0,s0
	lw	ra,44(sp)
	.cfi_remember_state
	.cfi_restore 1
	lw	s0,40(sp)
	.cfi_restore 8
	lw	s1,36(sp)
	.cfi_restore 9
.LVL623:
	lw	s2,32(sp)
	.cfi_restore 18
.LVL624:
	lw	s3,28(sp)
	.cfi_restore 19
.LVL625:
	addi	sp,sp,48
	.cfi_def_cfa_offset 0
	jr	ra
.LVL626:
.L279:
	.cfi_restore_state
	.loc 1 994 9 is_stmt 1
	.loc 1 994 17 is_stmt 0
	slli	a5,a0,2
	add	a5,a1,a5
	.loc 1 994 11
	lw	a5,-4(a5)
	bne	a5,zero,.L278
	.loc 1 993 28 discriminator 2
	addi	a0,a0,-1
.LVL627:
	j	.L276
	.cfi_endproc
.LFE34:
	.size	mbedtls_mpi_sub_abs, .-mbedtls_mpi_sub_abs
	.section	.text.mbedtls_mpi_add_mpi,"ax",@progbits
	.align	1
	.globl	mbedtls_mpi_add_mpi
	.type	mbedtls_mpi_add_mpi, @function
mbedtls_mpi_add_mpi:
.LFB35:
	.loc 1 1010 1 is_stmt 1
	.cfi_startproc
.LVL628:
	.loc 1 1011 5
	.loc 1 1010 1 is_stmt 0
	addi	sp,sp,-32
	.cfi_def_cfa_offset 32
	sw	s1,20(sp)
	sw	ra,28(sp)
	sw	s0,24(sp)
	sw	s2,16(sp)
	sw	s3,12(sp)
	.cfi_offset 9, -12
	.cfi_offset 1, -4
	.cfi_offset 8, -8
	.cfi_offset 18, -16
	.cfi_offset 19, -20
	.loc 1 1011 14
	lw	s0,0(a1)
.LVL629:
	.loc 1 1013 5 is_stmt 1
	.loc 1 1013 14 is_stmt 0
	lw	a5,0(a2)
	.loc 1 1010 1
	mv	s1,a0
	.loc 1 1013 14
	mul	a5,s0,a5
	.loc 1 1013 7
	bge	a5,zero,.L283
	mv	s3,a1
	.loc 1 1015 13
	mv	a0,s3
.LVL630:
	mv	a1,a2
.LVL631:
	mv	s2,a2
	.loc 1 1015 9 is_stmt 1
	.loc 1 1015 13 is_stmt 0
	call	mbedtls_mpi_cmp_abs
.LVL632:
	.loc 1 1015 11
	blt	a0,zero,.L284
	.loc 1 1017 13 is_stmt 1
	.loc 1 1017 18
	.loc 1 1017 30 is_stmt 0
	mv	a2,s2
	mv	a1,s3
	mv	a0,s1
	call	mbedtls_mpi_sub_abs
.LVL633:
.L288:
	.loc 1 1028 16
	bne	a0,zero,.L282
.LVL634:
.L287:
.L285:
	.loc 1 1029 9 is_stmt 1
	.loc 1 1034 5
	.loc 1 1029 14 is_stmt 0
	sw	s0,0(s1)
	.loc 1 1034 11
	j	.L282
.LVL635:
.L284:
	.loc 1 1022 13 is_stmt 1
	.loc 1 1022 18
	.loc 1 1022 30 is_stmt 0
	mv	a2,s3
	mv	a1,s2
	mv	a0,s1
	call	mbedtls_mpi_sub_abs
.LVL636:
	.loc 1 1023 20
	neg	s0,s0
.LVL637:
	.loc 1 1022 20
	beq	a0,zero,.L287
.LVL638:
.L282:
	.loc 1 1035 1
	lw	ra,28(sp)
	.cfi_remember_state
	.cfi_restore 1
	lw	s0,24(sp)
	.cfi_restore 8
	lw	s1,20(sp)
	.cfi_restore 9
.LVL639:
	lw	s2,16(sp)
	.cfi_restore 18
	lw	s3,12(sp)
	.cfi_restore 19
	addi	sp,sp,32
	.cfi_def_cfa_offset 0
	jr	ra
.LVL640:
.L283:
	.cfi_restore_state
	.loc 1 1028 9 is_stmt 1
	.loc 1 1028 14
	.loc 1 1028 26 is_stmt 0
	call	mbedtls_mpi_add_abs
.LVL641:
	j	.L288
	.cfi_endproc
.LFE35:
	.size	mbedtls_mpi_add_mpi, .-mbedtls_mpi_add_mpi
	.section	.text.mbedtls_mpi_sub_mpi,"ax",@progbits
	.align	1
	.globl	mbedtls_mpi_sub_mpi
	.type	mbedtls_mpi_sub_mpi, @function
mbedtls_mpi_sub_mpi:
.LFB36:
	.loc 1 1041 1 is_stmt 1
	.cfi_startproc
.LVL642:
	.loc 1 1042 5
	.loc 1 1041 1 is_stmt 0
	addi	sp,sp,-32
	.cfi_def_cfa_offset 32
	sw	s1,20(sp)
	sw	ra,28(sp)
	sw	s0,24(sp)
	sw	s2,16(sp)
	sw	s3,12(sp)
	.cfi_offset 9, -12
	.cfi_offset 1, -4
	.cfi_offset 8, -8
	.cfi_offset 18, -16
	.cfi_offset 19, -20
	.loc 1 1042 14
	lw	s0,0(a1)
.LVL643:
	.loc 1 1044 5 is_stmt 1
	.loc 1 1044 14 is_stmt 0
	lw	a5,0(a2)
	.loc 1 1041 1
	mv	s1,a0
	.loc 1 1044 14
	mul	a5,s0,a5
	.loc 1 1044 7
	ble	a5,zero,.L290
	mv	s3,a1
	.loc 1 1046 13
	mv	a0,s3
.LVL644:
	mv	a1,a2
.LVL645:
	mv	s2,a2
	.loc 1 1046 9 is_stmt 1
	.loc 1 1046 13 is_stmt 0
	call	mbedtls_mpi_cmp_abs
.LVL646:
	.loc 1 1046 11
	blt	a0,zero,.L291
	.loc 1 1048 13 is_stmt 1
	.loc 1 1048 18
	.loc 1 1048 30 is_stmt 0
	mv	a2,s2
	mv	a1,s3
	mv	a0,s1
	call	mbedtls_mpi_sub_abs
.LVL647:
.L295:
	.loc 1 1059 16
	bne	a0,zero,.L289
.LVL648:
.L294:
.L292:
	.loc 1 1060 9 is_stmt 1
	.loc 1 1065 5
	.loc 1 1060 14 is_stmt 0
	sw	s0,0(s1)
	.loc 1 1065 11
	j	.L289
.LVL649:
.L291:
	.loc 1 1053 13 is_stmt 1
	.loc 1 1053 18
	.loc 1 1053 30 is_stmt 0
	mv	a2,s3
	mv	a1,s2
	mv	a0,s1
	call	mbedtls_mpi_sub_abs
.LVL650:
	.loc 1 1054 20
	neg	s0,s0
.LVL651:
	.loc 1 1053 20
	beq	a0,zero,.L294
.LVL652:
.L289:
	.loc 1 1066 1
	lw	ra,28(sp)
	.cfi_remember_state
	.cfi_restore 1
	lw	s0,24(sp)
	.cfi_restore 8
	lw	s1,20(sp)
	.cfi_restore 9
.LVL653:
	lw	s2,16(sp)
	.cfi_restore 18
	lw	s3,12(sp)
	.cfi_restore 19
	addi	sp,sp,32
	.cfi_def_cfa_offset 0
	jr	ra
.LVL654:
.L290:
	.cfi_restore_state
	.loc 1 1059 9 is_stmt 1
	.loc 1 1059 14
	.loc 1 1059 26 is_stmt 0
	call	mbedtls_mpi_add_abs
.LVL655:
	j	.L295
	.cfi_endproc
.LFE36:
	.size	mbedtls_mpi_sub_mpi, .-mbedtls_mpi_sub_mpi
	.section	.text.mbedtls_mpi_add_int,"ax",@progbits
	.align	1
	.globl	mbedtls_mpi_add_int
	.type	mbedtls_mpi_add_int, @function
mbedtls_mpi_add_int:
.LFB37:
	.loc 1 1072 1 is_stmt 1
	.cfi_startproc
.LVL656:
	.loc 1 1073 5
	.loc 1 1074 5
	.loc 1 1076 5
	.loc 1 1076 27 is_stmt 0
	srai	a4,a2,31
	xor	a5,a4,a2
	.loc 1 1072 1
	addi	sp,sp,-32
	.cfi_def_cfa_offset 32
	.loc 1 1076 27
	sub	a5,a5,a4
	.loc 1 1076 10
	sw	a5,0(sp)
	.loc 1 1077 5 is_stmt 1
	.loc 1 1072 1 is_stmt 0
	sw	ra,28(sp)
	.cfi_offset 1, -4
	.loc 1 1077 27
	li	a5,1
	bge	a2,zero,.L297
	li	a5,-1
.L297:
	.loc 1 1077 10 discriminator 4
	sw	a5,4(sp)
	.loc 1 1078 5 is_stmt 1 discriminator 4
	.loc 1 1081 13 is_stmt 0 discriminator 4
	addi	a2,sp,4
.LVL657:
	.loc 1 1078 10 discriminator 4
	li	a5,1
	sw	a5,8(sp)
	.loc 1 1079 5 is_stmt 1 discriminator 4
	.loc 1 1079 10 is_stmt 0 discriminator 4
	sw	sp,12(sp)
	.loc 1 1081 5 is_stmt 1 discriminator 4
	.loc 1 1081 13 is_stmt 0 discriminator 4
	call	mbedtls_mpi_add_mpi
.LVL658:
	.loc 1 1082 1 discriminator 4
	lw	ra,28(sp)
	.cfi_restore 1
	addi	sp,sp,32
	.cfi_def_cfa_offset 0
	jr	ra
	.cfi_endproc
.LFE37:
	.size	mbedtls_mpi_add_int, .-mbedtls_mpi_add_int
	.section	.text.mbedtls_mpi_sub_int,"ax",@progbits
	.align	1
	.globl	mbedtls_mpi_sub_int
	.type	mbedtls_mpi_sub_int, @function
mbedtls_mpi_sub_int:
.LFB38:
	.loc 1 1088 1 is_stmt 1
	.cfi_startproc
.LVL659:
	.loc 1 1089 5
	.loc 1 1090 5
	.loc 1 1092 5
	.loc 1 1092 27 is_stmt 0
	srai	a4,a2,31
	xor	a5,a4,a2
	.loc 1 1088 1
	addi	sp,sp,-32
	.cfi_def_cfa_offset 32
	.loc 1 1092 27
	sub	a5,a5,a4
	.loc 1 1092 10
	sw	a5,0(sp)
	.loc 1 1093 5 is_stmt 1
	.loc 1 1088 1 is_stmt 0
	sw	ra,28(sp)
	.cfi_offset 1, -4
	.loc 1 1093 27
	li	a5,1
	bge	a2,zero,.L302
	li	a5,-1
.L302:
	.loc 1 1093 10 discriminator 4
	sw	a5,4(sp)
	.loc 1 1094 5 is_stmt 1 discriminator 4
	.loc 1 1097 13 is_stmt 0 discriminator 4
	addi	a2,sp,4
.LVL660:
	.loc 1 1094 10 discriminator 4
	li	a5,1
	sw	a5,8(sp)
	.loc 1 1095 5 is_stmt 1 discriminator 4
	.loc 1 1095 10 is_stmt 0 discriminator 4
	sw	sp,12(sp)
	.loc 1 1097 5 is_stmt 1 discriminator 4
	.loc 1 1097 13 is_stmt 0 discriminator 4
	call	mbedtls_mpi_sub_mpi
.LVL661:
	.loc 1 1098 1 discriminator 4
	lw	ra,28(sp)
	.cfi_restore 1
	addi	sp,sp,32
	.cfi_def_cfa_offset 0
	jr	ra
	.cfi_endproc
.LFE38:
	.size	mbedtls_mpi_sub_int, .-mbedtls_mpi_sub_int
	.section	.text.mbedtls_mpi_mul_mpi,"ax",@progbits
	.align	1
	.globl	mbedtls_mpi_mul_mpi
	.type	mbedtls_mpi_mul_mpi, @function
mbedtls_mpi_mul_mpi:
.LFB40:
	.loc 1 1176 1 is_stmt 1
	.cfi_startproc
.LVL662:
	.loc 1 1177 5
	.loc 1 1178 5
	.loc 1 1179 5
	.loc 1 1181 5
	.loc 1 1176 1 is_stmt 0
	addi	sp,sp,-64
	.cfi_def_cfa_offset 64
.LVL663:
.LBB104:
.LBB105:
	.loc 1 84 5 is_stmt 1
	.loc 1 87 5
	.loc 1 87 10 is_stmt 0
	li	a5,1
.LBE105:
.LBE104:
	.loc 1 1176 1
	sw	s0,56(sp)
	sw	s1,52(sp)
	sw	s4,40(sp)
	sw	ra,60(sp)
	sw	s2,48(sp)
	sw	s3,44(sp)
	sw	s5,36(sp)
	sw	s6,32(sp)
	.cfi_offset 8, -8
	.cfi_offset 9, -12
	.cfi_offset 20, -24
	.cfi_offset 1, -4
	.cfi_offset 18, -16
	.cfi_offset 19, -20
	.cfi_offset 21, -28
	.cfi_offset 22, -32
.LBB107:
.LBB106:
	.loc 1 87 10
	sw	a5,8(sp)
	.loc 1 88 5 is_stmt 1
	.loc 1 88 10 is_stmt 0
	sw	zero,12(sp)
	.loc 1 89 5 is_stmt 1
	.loc 1 89 10 is_stmt 0
	sw	zero,16(sp)
.LVL664:
.LBE106:
.LBE107:
	.loc 1 1181 30 is_stmt 1
.LBB108:
.LBB109:
	.loc 1 84 5
	.loc 1 87 5
	.loc 1 87 10 is_stmt 0
	sw	a5,20(sp)
	.loc 1 88 5 is_stmt 1
	.loc 1 88 10 is_stmt 0
	sw	zero,24(sp)
	.loc 1 89 5 is_stmt 1
	.loc 1 89 10 is_stmt 0
	sw	zero,28(sp)
.LVL665:
.LBE109:
.LBE108:
	.loc 1 1183 5 is_stmt 1
	.loc 1 1176 1 is_stmt 0
	mv	s4,a0
	mv	s0,a2
	mv	s1,a1
	.loc 1 1183 7
	bne	a0,a1,.L307
	.loc 1 1183 20 is_stmt 1 discriminator 1
	.loc 1 1183 25 discriminator 1
	.loc 1 1183 37 is_stmt 0 discriminator 1
	addi	a0,sp,8
.LVL666:
	call	mbedtls_mpi_copy
.LVL667:
	mv	s3,a0
.LVL668:
	.loc 1 1183 103 discriminator 1
	addi	s1,sp,8
.LVL669:
	.loc 1 1183 27 discriminator 1
	beq	a0,zero,.L307
.LVL670:
.L308:
	.loc 1 1204 5 is_stmt 1
	addi	a0,sp,20
	call	mbedtls_mpi_free
.LVL671:
	.loc 1 1204 30
	addi	a0,sp,8
	call	mbedtls_mpi_free
.LVL672:
	.loc 1 1206 5
	.loc 1 1207 1 is_stmt 0
	lw	ra,60(sp)
	.cfi_remember_state
	.cfi_restore 1
	lw	s0,56(sp)
	.cfi_restore 8
.LVL673:
	mv	a0,s3
	lw	s1,52(sp)
	.cfi_restore 9
	lw	s2,48(sp)
	.cfi_restore 18
	lw	s3,44(sp)
	.cfi_restore 19
.LVL674:
	lw	s4,40(sp)
	.cfi_restore 20
.LVL675:
	lw	s5,36(sp)
	.cfi_restore 21
	lw	s6,32(sp)
	.cfi_restore 22
	addi	sp,sp,64
	.cfi_def_cfa_offset 0
	jr	ra
.LVL676:
.L307:
	.cfi_restore_state
	.loc 1 1184 5 is_stmt 1
	.loc 1 1184 7 is_stmt 0
	bne	s4,s0,.L309
	.loc 1 1184 20 is_stmt 1 discriminator 1
	.loc 1 1184 25 discriminator 1
	.loc 1 1184 37 is_stmt 0 discriminator 1
	mv	a1,s4
	addi	a0,sp,20
	call	mbedtls_mpi_copy
.LVL677:
	mv	s3,a0
.LVL678:
	.loc 1 1184 27 discriminator 1
	bne	a0,zero,.L308
	.loc 1 1184 103
	addi	s0,sp,20
.LVL679:
.L309:
	.loc 1 1186 5 is_stmt 1
	.loc 1 1186 12 is_stmt 0
	lw	s5,4(s1)
.LVL680:
.L310:
	.loc 1 1186 5 discriminator 1
	bne	s5,zero,.L312
.L311:
	.loc 1 1190 5 is_stmt 1
	.loc 1 1190 12 is_stmt 0
	lw	s2,4(s0)
.LVL681:
.L313:
	.loc 1 1190 5 discriminator 1
	bne	s2,zero,.L315
.L314:
	.loc 1 1194 5 is_stmt 1
	.loc 1 1194 10
	.loc 1 1194 22 is_stmt 0
	add	a1,s5,s2
	mv	a0,s4
	call	mbedtls_mpi_grow
.LVL682:
	mv	s3,a0
.LVL683:
	.loc 1 1194 12
	bne	a0,zero,.L308
	.loc 1 1195 5 is_stmt 1
	.loc 1 1195 10
	.loc 1 1195 22 is_stmt 0
	li	a1,0
	mv	a0,s4
.LVL684:
	call	mbedtls_mpi_lset
.LVL685:
	mv	s3,a0
.LVL686:
	.loc 1 1197 5
	li	s6,-1
	.loc 1 1195 12
	bne	a0,zero,.L308
.LVL687:
.L316:
	addi	s2,s2,-1
.LVL688:
	.loc 1 1197 5 discriminator 1
	bne	s2,s6,.L317
	.loc 1 1200 5 is_stmt 1
	.loc 1 1200 17 is_stmt 0
	lw	a5,0(s1)
	lw	a4,0(s0)
	mul	a5,a5,a4
	.loc 1 1200 10
	sw	a5,0(s4)
	j	.L308
.LVL689:
.L312:
	.loc 1 1187 9 is_stmt 1
	.loc 1 1187 17 is_stmt 0
	lw	a5,8(s1)
	slli	a4,s5,2
	add	a5,a5,a4
	.loc 1 1187 11
	lw	a5,-4(a5)
	bne	a5,zero,.L311
	.loc 1 1186 28 discriminator 2
	addi	s5,s5,-1
.LVL690:
	j	.L310
.LVL691:
.L315:
	.loc 1 1191 9 is_stmt 1
	.loc 1 1191 17 is_stmt 0
	lw	a5,8(s0)
	slli	a4,s2,2
	add	a5,a5,a4
	.loc 1 1191 11
	lw	a5,-4(a5)
	bne	a5,zero,.L314
	.loc 1 1190 28 discriminator 2
	addi	s2,s2,-1
.LVL692:
	j	.L313
.LVL693:
.L317:
	.loc 1 1198 9 is_stmt 1 discriminator 3
	lw	a5,8(s0)
	slli	a2,s2,2
	lw	a4,8(s4)
	add	a5,a5,a2
	lw	a3,0(a5)
	lw	a1,8(s1)
	add	a2,a4,a2
	mv	a0,s5
	call	mpi_mul_hlp
.LVL694:
	j	.L316
	.cfi_endproc
.LFE40:
	.size	mbedtls_mpi_mul_mpi, .-mbedtls_mpi_mul_mpi
	.section	.text.mbedtls_mpi_mul_int,"ax",@progbits
	.align	1
	.globl	mbedtls_mpi_mul_int
	.type	mbedtls_mpi_mul_int, @function
mbedtls_mpi_mul_int:
.LFB41:
	.loc 1 1213 1
	.cfi_startproc
.LVL695:
	.loc 1 1214 5
	.loc 1 1215 5
	.loc 1 1217 5
	.loc 1 1213 1 is_stmt 0
	addi	sp,sp,-32
	.cfi_def_cfa_offset 32
	.loc 1 1217 10
	li	a5,1
	.loc 1 1220 10
	sw	a2,0(sp)
	.loc 1 1222 13
	addi	a2,sp,4
.LVL696:
	.loc 1 1213 1
	sw	ra,28(sp)
	.cfi_offset 1, -4
	.loc 1 1217 10
	sw	a5,4(sp)
	.loc 1 1218 5 is_stmt 1
	.loc 1 1218 10 is_stmt 0
	sw	a5,8(sp)
	.loc 1 1219 5 is_stmt 1
	.loc 1 1219 10 is_stmt 0
	sw	sp,12(sp)
	.loc 1 1220 5 is_stmt 1
	.loc 1 1222 5
	.loc 1 1222 13 is_stmt 0
	call	mbedtls_mpi_mul_mpi
.LVL697:
	.loc 1 1223 1
	lw	ra,28(sp)
	.cfi_restore 1
	addi	sp,sp,32
	.cfi_def_cfa_offset 0
	jr	ra
	.cfi_endproc
.LFE41:
	.size	mbedtls_mpi_mul_int, .-mbedtls_mpi_mul_int
	.section	.text.mbedtls_mpi_read_string,"ax",@progbits
	.align	1
	.globl	mbedtls_mpi_read_string
	.type	mbedtls_mpi_read_string, @function
mbedtls_mpi_read_string:
.LFB22:
	.loc 1 425 1 is_stmt 1
	.cfi_startproc
.LVL698:
	.loc 1 426 5
	.loc 1 427 5
	.loc 1 428 5
	.loc 1 429 5
	.loc 1 431 5
	.loc 1 425 1 is_stmt 0
	addi	sp,sp,-64
	.cfi_def_cfa_offset 64
	sw	ra,60(sp)
	sw	s0,56(sp)
	sw	s1,52(sp)
	sw	s2,48(sp)
	sw	s3,44(sp)
	sw	s4,40(sp)
	sw	s5,36(sp)
	sw	s6,32(sp)
	sw	s7,28(sp)
	sw	s8,24(sp)
	.cfi_offset 1, -4
	.cfi_offset 8, -8
	.cfi_offset 9, -12
	.cfi_offset 18, -16
	.cfi_offset 19, -20
	.cfi_offset 20, -24
	.cfi_offset 21, -28
	.cfi_offset 22, -32
	.cfi_offset 23, -36
	.cfi_offset 24, -40
	.loc 1 431 19
	addi	a4,a1,-2
	.loc 1 431 7
	li	a5,14
	bleu	a4,a5,.L323
.LVL699:
.L326:
	.loc 1 432 15
	li	s0,-4
.L322:
	.loc 1 491 1
	mv	a0,s0
	lw	ra,60(sp)
	.cfi_remember_state
	.cfi_restore 1
	lw	s0,56(sp)
	.cfi_restore 8
	lw	s1,52(sp)
	.cfi_restore 9
	lw	s2,48(sp)
	.cfi_restore 18
	lw	s3,44(sp)
	.cfi_restore 19
	lw	s4,40(sp)
	.cfi_restore 20
	lw	s5,36(sp)
	.cfi_restore 21
	lw	s6,32(sp)
	.cfi_restore 22
	lw	s7,28(sp)
	.cfi_restore 23
	lw	s8,24(sp)
	.cfi_restore 24
	addi	sp,sp,64
	.cfi_def_cfa_offset 0
	jr	ra
.LVL700:
.L323:
	.cfi_restore_state
.LBB110:
.LBB111:
	.loc 1 87 10
	li	a5,1
	mv	s1,a0
.LBE111:
.LBE110:
	.loc 1 434 5 is_stmt 1
.LVL701:
.LBB114:
.LBB112:
	.loc 1 84 5
	.loc 1 87 5
.LBE112:
.LBE114:
	.loc 1 436 12 is_stmt 0
	mv	a0,a2
.LVL702:
.LBB115:
.LBB113:
	.loc 1 87 10
	sw	a5,4(sp)
	.loc 1 88 5 is_stmt 1
	mv	s3,a2
	mv	s4,a1
	.loc 1 88 10 is_stmt 0
	sw	zero,8(sp)
	.loc 1 89 5 is_stmt 1
	.loc 1 89 10 is_stmt 0
	sw	zero,12(sp)
.LVL703:
.LBE113:
.LBE115:
	.loc 1 436 5 is_stmt 1
	.loc 1 436 12 is_stmt 0
	call	strlen
.LVL704:
	.loc 1 438 7
	li	a5,16
	.loc 1 436 12
	mv	s2,a0
.LVL705:
	.loc 1 438 5 is_stmt 1
	.loc 1 438 7 is_stmt 0
	bne	s4,a5,.L325
	.loc 1 440 9 is_stmt 1
	.loc 1 440 11 is_stmt 0
	li	a5,1073741824
	bgeu	a0,a5,.L326
	.loc 1 443 9 is_stmt 1
	.loc 1 443 21 is_stmt 0
	slli	a5,a0,2
.LVL706:
	.loc 1 445 9 is_stmt 1
	.loc 1 445 14
	.loc 1 443 79 is_stmt 0
	andi	a1,a5,31
	.loc 1 443 115
	snez	a1,a1
	.loc 1 443 27
	srli	a5,a5,5
.LVL707:
	.loc 1 445 26
	add	a1,a1,a5
	mv	a0,s1
.LVL708:
	call	mbedtls_mpi_grow
.LVL709:
	mv	s0,a0
.LVL710:
	.loc 1 445 16
	bne	a0,zero,.L327
	.loc 1 446 9 is_stmt 1
	.loc 1 446 14
	.loc 1 446 26 is_stmt 0
	li	a1,0
	mv	a0,s1
	call	mbedtls_mpi_lset
.LVL711:
	mv	s0,a0
.LVL712:
	.loc 1 446 16
	bne	a0,zero,.L327
	.loc 1 448 26
	li	s4,0
.LVL713:
	.loc 1 450 15
	li	s5,1
	.loc 1 450 24
	li	s6,45
.LVL714:
.L328:
	.loc 1 448 9 discriminator 1
	bne	s2,zero,.L330
.LVL715:
.L337:
	.loc 1 456 30
	li	s0,0
	j	.L327
.LVL716:
.L330:
	.loc 1 450 13 is_stmt 1
	.loc 1 450 15 is_stmt 0
	bne	s2,s5,.L329
	.loc 1 450 24 discriminator 1
	lbu	a5,0(s3)
	bne	a5,s6,.L329
	.loc 1 452 17 is_stmt 1
	.loc 1 452 22 is_stmt 0
	li	a5,-1
	sw	a5,0(s1)
	.loc 1 453 17 is_stmt 1
.LVL717:
.L327:
	.loc 1 488 5
	addi	a0,sp,4
	call	mbedtls_mpi_free
.LVL718:
	.loc 1 490 5
	.loc 1 490 11 is_stmt 0
	j	.L322
.LVL719:
.L329:
	.loc 1 456 13 is_stmt 1
	.loc 1 456 18
	.loc 1 456 57 is_stmt 0
	addi	s2,s2,-1
.LVL720:
	.loc 1 456 30
	add	a5,s3,s2
	lbu	a2,0(a5)
	li	a1,16
	mv	a0,sp
	call	mpi_get_digit
.LVL721:
	.loc 1 456 20
	bne	a0,zero,.L338
	.loc 1 457 13 is_stmt 1 discriminator 2
	.loc 1 457 20 is_stmt 0 discriminator 2
	srli	a5,s4,3
	.loc 1 457 58 discriminator 2
	slli	a4,a5,2
	lw	a5,8(s1)
	.loc 1 457 111 discriminator 2
	slli	a3,s4,2
	andi	a3,a3,28
	.loc 1 457 58 discriminator 2
	add	a5,a5,a4
	.loc 1 457 63 discriminator 2
	lw	a4,0(sp)
	.loc 1 448 44 discriminator 2
	addi	s4,s4,1
.LVL722:
	.loc 1 457 63 discriminator 2
	sll	a3,a4,a3
	.loc 1 457 58 discriminator 2
	lw	a4,0(a5)
	or	a4,a4,a3
	sw	a4,0(a5)
.LVL723:
	j	.L328
.LVL724:
.L325:
	.loc 1 462 9 is_stmt 1
	.loc 1 462 14
	.loc 1 462 26 is_stmt 0
	li	a1,0
	mv	a0,s1
.LVL725:
	call	mbedtls_mpi_lset
.LVL726:
	mv	s0,a0
.LVL727:
	.loc 1 462 16
	bne	a0,zero,.L327
	.loc 1 464 16
	li	s5,0
	.loc 1 475 15
	li	s6,1
	.loc 1 466 24
	li	s7,45
	.loc 1 468 22
	li	s8,-1
.LVL728:
.L331:
	.loc 1 464 9 discriminator 1
	beq	s5,s2,.L337
	.loc 1 466 13 is_stmt 1
	.loc 1 466 15 is_stmt 0
	bne	s5,zero,.L332
	.loc 1 466 24 discriminator 1
	lbu	a5,0(s3)
	bne	a5,s7,.L332
	.loc 1 468 17 is_stmt 1
	.loc 1 468 22 is_stmt 0
	sw	s8,0(s1)
	.loc 1 469 17 is_stmt 1
.LVL729:
.L333:
	.loc 1 464 32 is_stmt 0 discriminator 2
	addi	s5,s5,1
.LVL730:
	j	.L331
.L332:
	.loc 1 472 13 is_stmt 1
	.loc 1 472 18
	.loc 1 472 30 is_stmt 0
	add	a5,s3,s5
	lbu	a2,0(a5)
	mv	a1,s4
	mv	a0,sp
	call	mpi_get_digit
.LVL731:
	mv	s0,a0
.LVL732:
	.loc 1 472 20
	bne	a0,zero,.L327
	.loc 1 473 13 is_stmt 1
	.loc 1 473 18
	.loc 1 473 30 is_stmt 0
	mv	a2,s4
	mv	a1,s1
	addi	a0,sp,4
	call	mbedtls_mpi_mul_int
.LVL733:
	mv	s0,a0
.LVL734:
	.loc 1 473 20
	bne	a0,zero,.L327
	.loc 1 475 13 is_stmt 1
	.loc 1 475 15 is_stmt 0
	lw	a5,0(s1)
	lw	a2,0(sp)
	.loc 1 477 34
	addi	a1,sp,4
	mv	a0,s1
	.loc 1 475 15
	bne	a5,s6,.L334
	.loc 1 477 17 is_stmt 1
	.loc 1 477 22
	.loc 1 477 34 is_stmt 0
	call	mbedtls_mpi_add_int
.LVL735:
.L340:
	.loc 1 481 34
	mv	s0,a0
.LVL736:
	.loc 1 481 24
	beq	a0,zero,.L333
	j	.L327
.L334:
	.loc 1 481 17 is_stmt 1
	.loc 1 481 22
	.loc 1 481 34 is_stmt 0
	call	mbedtls_mpi_sub_int
.LVL737:
	j	.L340
.LVL738:
.L338:
	.loc 1 456 30
	mv	s0,a0
	j	.L327
	.cfi_endproc
.LFE22:
	.size	mbedtls_mpi_read_string, .-mbedtls_mpi_read_string
	.globl	__udivdi3
	.section	.text.mbedtls_mpi_div_mpi,"ax",@progbits
	.align	1
	.globl	mbedtls_mpi_div_mpi
	.type	mbedtls_mpi_div_mpi, @function
mbedtls_mpi_div_mpi:
.LFB43:
	.loc 1 1325 1 is_stmt 1
	.cfi_startproc
.LVL739:
	.loc 1 1326 5
	.loc 1 1327 5
	.loc 1 1328 5
	.loc 1 1330 5
	.loc 1 1325 1 is_stmt 0
	addi	sp,sp,-144
	.cfi_def_cfa_offset 144
	sw	s2,128(sp)
	sw	s4,120(sp)
	.cfi_offset 18, -16
	.cfi_offset 20, -24
	mv	s2,a1
	mv	s4,a0
	.loc 1 1330 9
	li	a1,0
.LVL740:
	mv	a0,a3
.LVL741:
	.loc 1 1325 1
	sw	s3,124(sp)
	sw	s6,112(sp)
	sw	s9,100(sp)
	sw	ra,140(sp)
	sw	s0,136(sp)
	sw	s1,132(sp)
	sw	s5,116(sp)
	sw	s7,108(sp)
	sw	s8,104(sp)
	sw	s10,96(sp)
	sw	s11,92(sp)
	.cfi_offset 19, -20
	.cfi_offset 22, -32
	.cfi_offset 25, -44
	.cfi_offset 1, -4
	.cfi_offset 8, -8
	.cfi_offset 9, -12
	.cfi_offset 21, -28
	.cfi_offset 23, -36
	.cfi_offset 24, -40
	.cfi_offset 26, -48
	.cfi_offset 27, -52
	.loc 1 1325 1
	mv	s3,a2
	mv	s6,a3
	.loc 1 1330 9
	call	mbedtls_mpi_cmp_int
.LVL742:
	.loc 1 1331 15
	li	s9,-12
	.loc 1 1330 7
	beq	a0,zero,.L341
	.loc 1 1333 5 is_stmt 1
.LVL743:
.LBB128:
.LBB129:
	.loc 1 84 5
	.loc 1 87 5
	.loc 1 87 10 is_stmt 0
	li	s0,1
.LBE129:
.LBE128:
	.loc 1 1336 9
	mv	a1,s6
	mv	a0,s3
.LBB131:
.LBB130:
	.loc 1 87 10
	sw	s0,20(sp)
	.loc 1 88 5 is_stmt 1
	.loc 1 88 10 is_stmt 0
	sw	zero,24(sp)
	.loc 1 89 5 is_stmt 1
	.loc 1 89 10 is_stmt 0
	sw	zero,28(sp)
.LVL744:
.LBE130:
.LBE131:
	.loc 1 1333 29 is_stmt 1
.LBB132:
.LBB133:
	.loc 1 84 5
	.loc 1 87 5
	.loc 1 87 10 is_stmt 0
	sw	s0,32(sp)
	.loc 1 88 5 is_stmt 1
	.loc 1 88 10 is_stmt 0
	sw	zero,36(sp)
	.loc 1 89 5 is_stmt 1
	.loc 1 89 10 is_stmt 0
	sw	zero,40(sp)
.LVL745:
.LBE133:
.LBE132:
	.loc 1 1333 53 is_stmt 1
.LBB134:
.LBB135:
	.loc 1 84 5
	.loc 1 87 5
	.loc 1 87 10 is_stmt 0
	sw	s0,44(sp)
	.loc 1 88 5 is_stmt 1
	.loc 1 88 10 is_stmt 0
	sw	zero,48(sp)
	.loc 1 89 5 is_stmt 1
	.loc 1 89 10 is_stmt 0
	sw	zero,52(sp)
.LVL746:
.LBE135:
.LBE134:
	.loc 1 1334 5 is_stmt 1
.LBB136:
.LBB137:
	.loc 1 84 5
	.loc 1 87 5
	.loc 1 87 10 is_stmt 0
	sw	s0,56(sp)
	.loc 1 88 5 is_stmt 1
	.loc 1 88 10 is_stmt 0
	sw	zero,60(sp)
	.loc 1 89 5 is_stmt 1
	.loc 1 89 10 is_stmt 0
	sw	zero,64(sp)
.LVL747:
.LBE137:
.LBE136:
	.loc 1 1334 30 is_stmt 1
.LBB138:
.LBB139:
	.loc 1 84 5
	.loc 1 87 5
	.loc 1 87 10 is_stmt 0
	sw	s0,68(sp)
	.loc 1 88 5 is_stmt 1
	.loc 1 88 10 is_stmt 0
	sw	zero,72(sp)
	.loc 1 89 5 is_stmt 1
	.loc 1 89 10 is_stmt 0
	sw	zero,76(sp)
.LVL748:
.LBE139:
.LBE138:
	.loc 1 1336 5 is_stmt 1
	.loc 1 1336 9 is_stmt 0
	call	mbedtls_mpi_cmp_abs
.LVL749:
	.loc 1 1336 7
	bge	a0,zero,.L343
	.loc 1 1338 9 is_stmt 1
	.loc 1 1338 11 is_stmt 0
	bne	s4,zero,.L344
.L348:
	.loc 1 1339 9 is_stmt 1
	.loc 1 1339 11 is_stmt 0
	bne	s2,zero,.L345
.L346:
	.loc 1 1340 15
	li	s9,0
.L341:
	.loc 1 1434 1
	lw	ra,140(sp)
	.cfi_remember_state
	.cfi_restore 1
	lw	s0,136(sp)
	.cfi_restore 8
	mv	a0,s9
	lw	s1,132(sp)
	.cfi_restore 9
	lw	s2,128(sp)
	.cfi_restore 18
.LVL750:
	lw	s3,124(sp)
	.cfi_restore 19
.LVL751:
	lw	s4,120(sp)
	.cfi_restore 20
.LVL752:
	lw	s5,116(sp)
	.cfi_restore 21
	lw	s6,112(sp)
	.cfi_restore 22
.LVL753:
	lw	s7,108(sp)
	.cfi_restore 23
	lw	s8,104(sp)
	.cfi_restore 24
	lw	s9,100(sp)
	.cfi_restore 25
	lw	s10,96(sp)
	.cfi_restore 26
	lw	s11,92(sp)
	.cfi_restore 27
	addi	sp,sp,144
	.cfi_def_cfa_offset 0
	jr	ra
.LVL754:
.L344:
	.cfi_restore_state
	.loc 1 1338 24 is_stmt 1 discriminator 1
	.loc 1 1338 29 discriminator 1
	.loc 1 1338 41 is_stmt 0 discriminator 1
	li	a1,0
	mv	a0,s4
	call	mbedtls_mpi_lset
.LVL755:
	mv	s9,a0
.LVL756:
	.loc 1 1338 31 discriminator 1
	beq	a0,zero,.L348
.LVL757:
.L347:
	.loc 1 1430 5 is_stmt 1
	addi	a0,sp,20
	call	mbedtls_mpi_free
.LVL758:
	.loc 1 1430 29
	addi	a0,sp,32
	call	mbedtls_mpi_free
.LVL759:
	.loc 1 1430 53
	addi	a0,sp,44
	call	mbedtls_mpi_free
.LVL760:
	.loc 1 1431 5
	addi	a0,sp,56
	call	mbedtls_mpi_free
.LVL761:
	.loc 1 1431 30
	addi	a0,sp,68
	call	mbedtls_mpi_free
.LVL762:
	.loc 1 1433 5
	.loc 1 1433 11 is_stmt 0
	j	.L341
.LVL763:
.L345:
	.loc 1 1339 24 is_stmt 1 discriminator 1
	.loc 1 1339 29 discriminator 1
	.loc 1 1339 41 is_stmt 0 discriminator 1
	mv	a1,s3
	mv	a0,s2
	call	mbedtls_mpi_copy
.LVL764:
	mv	s9,a0
.LVL765:
	.loc 1 1339 31 discriminator 1
	bne	a0,zero,.L347
	j	.L346
.LVL766:
.L343:
	.loc 1 1343 5 is_stmt 1
	.loc 1 1343 10
	.loc 1 1343 22 is_stmt 0
	mv	a1,s3
	addi	a0,sp,20
	call	mbedtls_mpi_copy
.LVL767:
	mv	s9,a0
.LVL768:
	.loc 1 1343 12
	bne	a0,zero,.L347
	.loc 1 1344 5 is_stmt 1
	.loc 1 1344 10
	.loc 1 1344 22 is_stmt 0
	mv	a1,s6
	addi	a0,sp,32
.LVL769:
	call	mbedtls_mpi_copy
.LVL770:
	mv	s9,a0
.LVL771:
	.loc 1 1344 12
	bne	a0,zero,.L347
	.loc 1 1345 5 is_stmt 1
	.loc 1 1347 22 is_stmt 0
	lw	a1,4(s3)
	addi	a0,sp,44
.LVL772:
	.loc 1 1345 15
	sw	s0,32(sp)
	.loc 1 1347 22
	addi	a1,a1,2
	.loc 1 1345 9
	sw	s0,20(sp)
	.loc 1 1347 5 is_stmt 1
	.loc 1 1347 10
	.loc 1 1347 22 is_stmt 0
	call	mbedtls_mpi_grow
.LVL773:
	mv	s9,a0
.LVL774:
	.loc 1 1347 12
	bne	a0,zero,.L347
	.loc 1 1348 5 is_stmt 1
	.loc 1 1348 10
	.loc 1 1348 22 is_stmt 0
	li	a1,0
	addi	a0,sp,44
.LVL775:
	call	mbedtls_mpi_lset
.LVL776:
	mv	s9,a0
.LVL777:
	.loc 1 1348 12
	bne	a0,zero,.L347
	.loc 1 1349 5 is_stmt 1
	.loc 1 1349 10
	.loc 1 1349 22 is_stmt 0
	li	a1,2
	addi	a0,sp,56
.LVL778:
	call	mbedtls_mpi_grow
.LVL779:
	mv	s9,a0
.LVL780:
	.loc 1 1349 12
	bne	a0,zero,.L347
	.loc 1 1350 5 is_stmt 1
	.loc 1 1350 10
	.loc 1 1350 22 is_stmt 0
	li	a1,3
	addi	a0,sp,68
.LVL781:
	call	mbedtls_mpi_grow
.LVL782:
	mv	s9,a0
.LVL783:
	.loc 1 1350 12
	bne	a0,zero,.L347
	.loc 1 1352 5 is_stmt 1
	.loc 1 1352 9 is_stmt 0
	addi	a0,sp,32
.LVL784:
	call	mbedtls_mpi_bitlen
.LVL785:
	.loc 1 1352 7
	andi	a0,a0,31
.LVL786:
	.loc 1 1353 5 is_stmt 1
	.loc 1 1353 7 is_stmt 0
	li	s1,31
	beq	a0,s1,.L367
	.loc 1 1355 9 is_stmt 1
	.loc 1 1355 11 is_stmt 0
	sub	s1,s1,a0
.LVL787:
	.loc 1 1356 9 is_stmt 1
	.loc 1 1356 14
	.loc 1 1356 26 is_stmt 0
	mv	a1,s1
	addi	a0,sp,20
	call	mbedtls_mpi_shift_l
.LVL788:
	mv	s9,a0
.LVL789:
	.loc 1 1356 16
	bne	a0,zero,.L347
	.loc 1 1357 9 is_stmt 1
	.loc 1 1357 14
	.loc 1 1357 26 is_stmt 0
	mv	a1,s1
	addi	a0,sp,32
.LVL790:
	call	mbedtls_mpi_shift_l
.LVL791:
	mv	s9,a0
.LVL792:
	.loc 1 1357 16
	bne	a0,zero,.L347
.LVL793:
.L349:
	.loc 1 1361 5 is_stmt 1
	.loc 1 1361 10 is_stmt 0
	lw	s7,24(sp)
.LVL794:
	.loc 1 1362 5 is_stmt 1
	.loc 1 1362 10 is_stmt 0
	lw	s10,36(sp)
.LVL795:
	.loc 1 1363 5 is_stmt 1
	.loc 1 1363 10
	.loc 1 1363 22 is_stmt 0
	addi	a0,sp,32
	.loc 1 1363 87
	sub	s0,s7,s10
	.loc 1 1363 22
	slli	s5,s0,5
	mv	a1,s5
	call	mbedtls_mpi_shift_l
.LVL796:
	mv	s9,a0
.LVL797:
	.loc 1 1367 12
	slli	s0,s0,2
	.loc 1 1363 12
	bne	a0,zero,.L347
.L350:
	.loc 1 1365 12
	addi	a1,sp,32
	addi	a0,sp,20
.LVL798:
	call	mbedtls_mpi_cmp_mpi
.LVL799:
	.loc 1 1365 10
	bge	a0,zero,.L351
	.loc 1 1370 5 is_stmt 1
	.loc 1 1370 10
	.loc 1 1370 22 is_stmt 0
	mv	a1,s5
	addi	a0,sp,32
	call	mbedtls_mpi_shift_r
.LVL800:
	mv	s9,a0
.LVL801:
	.loc 1 1370 12
	bne	a0,zero,.L347
	li	s0,1073741824
	.loc 1 1362 7
	addi	s8,s10,-1
	addi	s0,s0,-1
	.loc 1 1374 26
	slli	a5,s8,2
	.loc 1 1388 42
	slli	a4,s10,2
	add	s0,s7,s0
	.loc 1 1374 26
	sw	a5,8(sp)
	sub	s0,s0,s10
	.loc 1 1388 42
	addi	a5,a4,-8
	.loc 1 1361 7
	addi	s5,s7,-1
	.loc 1 1388 42
	sw	a5,12(sp)
	slli	s0,s0,2
.LVL802:
.L352:
	.loc 1 1372 5 discriminator 1
	bgtu	s5,s8,.L362
	.loc 1 1412 5 is_stmt 1
	.loc 1 1412 7 is_stmt 0
	beq	s4,zero,.L363
	.loc 1 1414 9 is_stmt 1
	.loc 1 1414 14
	.loc 1 1414 26 is_stmt 0
	addi	a1,sp,44
	mv	a0,s4
	call	mbedtls_mpi_copy
.LVL803:
	.loc 1 1414 16
	bne	a0,zero,.L382
	.loc 1 1415 9 is_stmt 1
	.loc 1 1415 21 is_stmt 0
	lw	a4,0(s3)
	lw	a3,0(s6)
	mul	a4,a4,a3
	.loc 1 1415 14
	sw	a4,0(s4)
.LVL804:
.L363:
	.loc 1 1418 5 is_stmt 1
	.loc 1 1418 7 is_stmt 0
	beq	s2,zero,.L347
	.loc 1 1420 9 is_stmt 1
	.loc 1 1420 14
	.loc 1 1420 26 is_stmt 0
	mv	a1,s1
	addi	a0,sp,20
	call	mbedtls_mpi_shift_r
.LVL805:
	.loc 1 1420 16
	bne	a0,zero,.L382
	.loc 1 1421 9 is_stmt 1
	.loc 1 1421 13 is_stmt 0
	lw	a4,0(s3)
	.loc 1 1422 26
	addi	a1,sp,20
	mv	a0,s2
.LVL806:
	.loc 1 1421 13
	sw	a4,20(sp)
	.loc 1 1422 9 is_stmt 1
	.loc 1 1422 14
	.loc 1 1422 26 is_stmt 0
	call	mbedtls_mpi_copy
.LVL807:
	.loc 1 1422 16
	bne	a0,zero,.L382
	.loc 1 1424 9 is_stmt 1
	.loc 1 1424 13 is_stmt 0
	li	a1,0
	mv	a0,s2
.LVL808:
	call	mbedtls_mpi_cmp_int
.LVL809:
	.loc 1 1424 11
	bne	a0,zero,.L347
	.loc 1 1425 13 is_stmt 1
	.loc 1 1425 18 is_stmt 0
	li	a5,1
	sw	a5,0(s2)
	.loc 1 1422 26
	li	s9,0
	j	.L347
.LVL810:
.L367:
	.loc 1 1359 12
	li	s1,0
	j	.L349
.LVL811:
.L351:
	.loc 1 1367 9 is_stmt 1
	.loc 1 1367 12 is_stmt 0
	lw	a5,52(sp)
	.loc 1 1368 26
	addi	a1,sp,20
	addi	a2,sp,32
	.loc 1 1367 12
	add	a5,a5,s0
	.loc 1 1367 19
	lw	a4,0(a5)
	.loc 1 1368 26
	mv	a0,a1
	.loc 1 1367 19
	addi	a4,a4,1
	sw	a4,0(a5)
	.loc 1 1368 9 is_stmt 1
	.loc 1 1368 14
	.loc 1 1368 26 is_stmt 0
	call	mbedtls_mpi_sub_mpi
.LVL812:
	mv	s9,a0
.LVL813:
	.loc 1 1368 16
	beq	a0,zero,.L350
	j	.L347
.LVL814:
.L362:
	.loc 1 1374 9 is_stmt 1
	.loc 1 1374 14 is_stmt 0
	lw	a4,28(sp)
	slli	s7,s5,2
	.loc 1 1374 26
	lw	a5,8(sp)
	.loc 1 1374 16
	add	a3,a4,s7
	lw	a1,0(a3)
	.loc 1 1374 26
	lw	a3,40(sp)
	lw	s11,52(sp)
	addi	s10,s7,-4
	add	a3,a3,a5
	lw	a2,0(a3)
	add	s11,s11,s0
	.loc 1 1374 11
	bltu	a1,a2,.L353
	.loc 1 1375 13 is_stmt 1
	.loc 1 1375 28 is_stmt 0
	li	a5,-1
	sw	a5,0(s11)
.L354:
	.loc 1 1382 9 is_stmt 1
	.loc 1 1382 12 is_stmt 0
	lw	a4,52(sp)
	.loc 1 1393 42
	addi	s11,s7,-8
	.loc 1 1382 12
	add	a4,a4,s0
	.loc 1 1382 23
	lw	a3,0(a4)
	addi	a3,a3,1
	sw	a3,0(a4)
.LVL815:
.L360:
	.loc 1 1383 9 is_stmt 1
	.loc 1 1385 13
	.loc 1 1385 16 is_stmt 0
	lw	a4,52(sp)
	.loc 1 1387 30
	li	a1,0
	addi	a0,sp,56
	.loc 1 1385 16
	add	a4,a4,s0
	.loc 1 1385 27
	lw	a3,0(a4)
	addi	a3,a3,-1
	sw	a3,0(a4)
	.loc 1 1387 13 is_stmt 1
	.loc 1 1387 18
	.loc 1 1387 30 is_stmt 0
	call	mbedtls_mpi_lset
.LVL816:
	.loc 1 1387 20
	bne	a0,zero,.L382
	.loc 1 1388 13 is_stmt 1
	.loc 1 1388 37 is_stmt 0
	li	a4,0
	beq	s8,zero,.L358
	.loc 1 1388 37 discriminator 1
	lw	a4,40(sp)
	lw	a5,12(sp)
	add	a4,a4,a5
	lw	a4,0(a4)
.L358:
	.loc 1 1388 15 discriminator 4
	lw	a3,64(sp)
	.loc 1 1389 26 discriminator 4
	lw	a5,8(sp)
	.loc 1 1390 30 discriminator 4
	addi	a1,sp,56
	.loc 1 1388 21 discriminator 4
	sw	a4,0(a3)
	.loc 1 1389 13 is_stmt 1 discriminator 4
	.loc 1 1389 26 is_stmt 0 discriminator 4
	lw	a4,40(sp)
	.loc 1 1390 30 discriminator 4
	mv	a0,a1
.LVL817:
	.loc 1 1389 26 discriminator 4
	add	a4,a4,a5
	lw	a3,0(a4)
	.loc 1 1389 21 discriminator 4
	lw	a4,64(sp)
	sw	a3,4(a4)
	.loc 1 1390 13 is_stmt 1 discriminator 4
	.loc 1 1390 18 discriminator 4
	.loc 1 1390 30 is_stmt 0 discriminator 4
	lw	a4,52(sp)
	add	a4,a4,s0
	lw	a2,0(a4)
	call	mbedtls_mpi_mul_int
.LVL818:
	.loc 1 1390 20 discriminator 4
	bne	a0,zero,.L382
	.loc 1 1392 13 is_stmt 1
	.loc 1 1392 18
	.loc 1 1392 30 is_stmt 0
	li	a1,0
	addi	a0,sp,68
.LVL819:
	call	mbedtls_mpi_lset
.LVL820:
	.loc 1 1392 20
	bne	a0,zero,.L382
	.loc 1 1393 13 is_stmt 1
	.loc 1 1393 37 is_stmt 0
	li	a5,1
	li	a4,0
	beq	s5,a5,.L359
	.loc 1 1393 37 discriminator 1
	lw	a4,28(sp)
	add	a4,a4,s11
	lw	a4,0(a4)
.L359:
	.loc 1 1393 15 discriminator 4
	lw	a3,76(sp)
	.loc 1 1397 16 discriminator 4
	addi	a1,sp,68
	addi	a0,sp,56
.LVL821:
	.loc 1 1393 21 discriminator 4
	sw	a4,0(a3)
	.loc 1 1394 13 is_stmt 1 discriminator 4
	.loc 1 1394 37 is_stmt 0 discriminator 4
	lw	a4,28(sp)
	add	a4,a4,s10
	lw	a3,0(a4)
	.loc 1 1394 15 discriminator 4
	lw	a4,76(sp)
	.loc 1 1394 21 discriminator 4
	sw	a3,4(a4)
	.loc 1 1395 13 is_stmt 1 discriminator 4
	.loc 1 1395 26 is_stmt 0 discriminator 4
	lw	a4,28(sp)
	add	a4,a4,s7
	lw	a3,0(a4)
	.loc 1 1395 21 discriminator 4
	lw	a4,76(sp)
	sw	a3,8(a4)
	.loc 1 1397 16 discriminator 4
	call	mbedtls_mpi_cmp_mpi
.LVL822:
	.loc 1 1397 9 discriminator 4
	bgt	a0,zero,.L360
	.loc 1 1399 9 is_stmt 1
	.loc 1 1399 14
	.loc 1 1399 26 is_stmt 0
	lw	a4,52(sp)
	addi	a1,sp,32
	addi	a0,sp,56
	add	a4,a4,s0
	lw	a2,0(a4)
	call	mbedtls_mpi_mul_int
.LVL823:
	.loc 1 1399 16
	bne	a0,zero,.L382
	.loc 1 1400 9 is_stmt 1
	.loc 1 1400 14
	slli	s7,s0,3
	.loc 1 1400 26 is_stmt 0
	mv	a1,s7
	addi	a0,sp,56
.LVL824:
	call	mbedtls_mpi_shift_l
.LVL825:
	.loc 1 1400 16
	bne	a0,zero,.L382
	.loc 1 1401 9 is_stmt 1
	.loc 1 1401 14
	.loc 1 1401 26 is_stmt 0
	addi	a1,sp,20
	addi	a2,sp,56
	mv	a0,a1
.LVL826:
	call	mbedtls_mpi_sub_mpi
.LVL827:
	.loc 1 1401 16
	bne	a0,zero,.L382
	.loc 1 1403 9 is_stmt 1
	.loc 1 1403 13 is_stmt 0
	li	a1,0
	addi	a0,sp,20
.LVL828:
	call	mbedtls_mpi_cmp_int
.LVL829:
	.loc 1 1403 11
	bge	a0,zero,.L361
	.loc 1 1405 13 is_stmt 1
	.loc 1 1405 18
	.loc 1 1405 30 is_stmt 0
	addi	a1,sp,32
	addi	a0,sp,56
	call	mbedtls_mpi_copy
.LVL830:
	.loc 1 1405 20
	bne	a0,zero,.L382
	.loc 1 1406 13 is_stmt 1
	.loc 1 1406 18
	.loc 1 1406 30 is_stmt 0
	mv	a1,s7
	addi	a0,sp,56
.LVL831:
	call	mbedtls_mpi_shift_l
.LVL832:
	.loc 1 1406 20
	bne	a0,zero,.L382
	.loc 1 1407 13 is_stmt 1
	.loc 1 1407 18
	.loc 1 1407 30 is_stmt 0
	addi	a1,sp,20
	addi	a2,sp,56
	mv	a0,a1
.LVL833:
	call	mbedtls_mpi_add_mpi
.LVL834:
	.loc 1 1407 20
	bne	a0,zero,.L382
	.loc 1 1408 13 is_stmt 1
	.loc 1 1408 16 is_stmt 0
	lw	a4,52(sp)
	add	a4,a4,s0
	.loc 1 1408 27
	lw	a3,0(a4)
	addi	a3,a3,-1
	sw	a3,0(a4)
.LVL835:
.L361:
	.loc 1 1372 26 discriminator 2
	addi	s5,s5,-1
.LVL836:
	addi	s0,s0,-4
	j	.L352
.L353:
	.loc 1 1378 13 is_stmt 1
	.loc 1 1378 30 is_stmt 0
	add	a4,a4,s10
	lw	a0,0(a4)
.LVL837:
.LBB140:
.LBB141:
	.loc 1 1233 5 is_stmt 1
	.loc 1 1245 5
	.loc 1 1249 16 is_stmt 0
	li	a4,-1
	.loc 1 1245 7
	beq	a2,zero,.L355
	.loc 1 1253 5 is_stmt 1
.LVL838:
	.loc 1 1254 5
	.loc 1 1255 5
	.loc 1 1255 14 is_stmt 0
	li	a3,0
	call	__udivdi3
.LVL839:
	.loc 1 1256 5 is_stmt 1
	.loc 1 1259 5
	.loc 1 1262 5
	.loc 1 1262 12 is_stmt 0
	mv	a4,a0
	beq	a1,zero,.L355
	li	a4,-1
.LVL840:
.L355:
.LBE141:
.LBE140:
	.loc 1 1378 28
	sw	a4,0(s11)
	j	.L354
.LVL841:
.L382:
	mv	s9,a0
	j	.L347
	.cfi_endproc
.LFE43:
	.size	mbedtls_mpi_div_mpi, .-mbedtls_mpi_div_mpi
	.section	.text.mbedtls_mpi_div_int,"ax",@progbits
	.align	1
	.globl	mbedtls_mpi_div_int
	.type	mbedtls_mpi_div_int, @function
mbedtls_mpi_div_int:
.LFB44:
	.loc 1 1440 1 is_stmt 1
	.cfi_startproc
.LVL842:
	.loc 1 1441 5
	.loc 1 1442 5
	.loc 1 1444 5
	.loc 1 1444 27 is_stmt 0
	srai	a4,a3,31
	xor	a5,a4,a3
	.loc 1 1440 1
	addi	sp,sp,-32
	.cfi_def_cfa_offset 32
	.loc 1 1444 27
	sub	a5,a5,a4
	.loc 1 1444 10
	sw	a5,0(sp)
	.loc 1 1445 5 is_stmt 1
	.loc 1 1440 1 is_stmt 0
	sw	ra,28(sp)
	.cfi_offset 1, -4
	.loc 1 1445 27
	li	a5,1
	bge	a3,zero,.L390
	li	a5,-1
.L390:
	.loc 1 1445 10 discriminator 4
	sw	a5,4(sp)
	.loc 1 1446 5 is_stmt 1 discriminator 4
	.loc 1 1449 13 is_stmt 0 discriminator 4
	addi	a3,sp,4
.LVL843:
	.loc 1 1446 10 discriminator 4
	li	a5,1
	sw	a5,8(sp)
	.loc 1 1447 5 is_stmt 1 discriminator 4
	.loc 1 1447 10 is_stmt 0 discriminator 4
	sw	sp,12(sp)
	.loc 1 1449 5 is_stmt 1 discriminator 4
	.loc 1 1449 13 is_stmt 0 discriminator 4
	call	mbedtls_mpi_div_mpi
.LVL844:
	.loc 1 1450 1 discriminator 4
	lw	ra,28(sp)
	.cfi_restore 1
	addi	sp,sp,32
	.cfi_def_cfa_offset 0
	jr	ra
	.cfi_endproc
.LFE44:
	.size	mbedtls_mpi_div_int, .-mbedtls_mpi_div_int
	.section	.text.mbedtls_mpi_mod_mpi,"ax",@progbits
	.align	1
	.globl	mbedtls_mpi_mod_mpi
	.type	mbedtls_mpi_mod_mpi, @function
mbedtls_mpi_mod_mpi:
.LFB45:
	.loc 1 1456 1 is_stmt 1
	.cfi_startproc
.LVL845:
	.loc 1 1457 5
	.loc 1 1459 5
	.loc 1 1456 1 is_stmt 0
	addi	sp,sp,-16
	.cfi_def_cfa_offset 16
	sw	s0,8(sp)
	sw	s1,4(sp)
	.cfi_offset 8, -8
	.cfi_offset 9, -12
	mv	s0,a0
	mv	s1,a1
	.loc 1 1459 9
	mv	a0,a2
.LVL846:
	li	a1,0
.LVL847:
	.loc 1 1456 1
	sw	s2,0(sp)
	sw	ra,12(sp)
	.cfi_offset 18, -16
	.cfi_offset 1, -4
	.loc 1 1456 1
	mv	s2,a2
	.loc 1 1459 9
	call	mbedtls_mpi_cmp_int
.LVL848:
	.loc 1 1459 7
	blt	a0,zero,.L400
	.loc 1 1462 5 is_stmt 1
	.loc 1 1462 10
	.loc 1 1462 22 is_stmt 0
	mv	a2,s1
	mv	a3,s2
	mv	a1,s0
	li	a0,0
	call	mbedtls_mpi_div_mpi
.LVL849:
	mv	s1,a0
.LVL850:
	.loc 1 1462 12
	beq	a0,zero,.L396
.LVL851:
.L394:
	.loc 1 1473 1
	lw	ra,12(sp)
	.cfi_remember_state
	.cfi_restore 1
	lw	s0,8(sp)
	.cfi_restore 8
.LVL852:
	mv	a0,s1
	lw	s2,0(sp)
	.cfi_restore 18
.LVL853:
	lw	s1,4(sp)
	.cfi_restore 9
	addi	sp,sp,16
	.cfi_def_cfa_offset 0
	jr	ra
.LVL854:
.L397:
	.cfi_restore_state
.LBB144:
.LBB145:
	.loc 1 1465 7 is_stmt 1
	.loc 1 1465 12
	.loc 1 1465 24 is_stmt 0
	mv	a2,s2
	mv	a1,s0
	mv	a0,s0
	call	mbedtls_mpi_add_mpi
.LVL855:
	.loc 1 1465 14
	bne	a0,zero,.L402
.LVL856:
.L396:
	.loc 1 1464 12
	li	a1,0
	mv	a0,s0
	call	mbedtls_mpi_cmp_int
.LVL857:
	.loc 1 1464 10
	blt	a0,zero,.L397
.LVL858:
.L398:
	.loc 1 1467 12
	mv	a1,s2
	mv	a0,s0
	call	mbedtls_mpi_cmp_mpi
.LVL859:
	.loc 1 1467 10
	blt	a0,zero,.L394
	.loc 1 1468 7 is_stmt 1
	.loc 1 1468 12
	.loc 1 1468 24 is_stmt 0
	mv	a2,s2
	mv	a1,s0
	mv	a0,s0
	call	mbedtls_mpi_sub_mpi
.LVL860:
	.loc 1 1468 14
	beq	a0,zero,.L398
.L402:
	.loc 1 1468 24
	mv	s1,a0
.LVL861:
	j	.L394
.LVL862:
.L400:
.LBE145:
.LBE144:
	.loc 1 1460 15
	li	s1,-10
.LVL863:
	j	.L394
	.cfi_endproc
.LFE45:
	.size	mbedtls_mpi_mod_mpi, .-mbedtls_mpi_mod_mpi
	.section	.text.mbedtls_mpi_mod_int,"ax",@progbits
	.align	1
	.globl	mbedtls_mpi_mod_int
	.type	mbedtls_mpi_mod_int, @function
mbedtls_mpi_mod_int:
.LFB46:
	.loc 1 1479 1 is_stmt 1
	.cfi_startproc
.LVL864:
	.loc 1 1480 5
	.loc 1 1481 5
	.loc 1 1483 5
	.loc 1 1483 7 is_stmt 0
	beq	a2,zero,.L408
	.loc 1 1486 5 is_stmt 1
	.loc 1 1486 7 is_stmt 0
	blt	a2,zero,.L409
	.loc 1 1492 5 is_stmt 1
	.loc 1 1492 7 is_stmt 0
	li	a6,1
	bne	a2,a6,.L406
	.loc 1 1494 9 is_stmt 1
	.loc 1 1494 12 is_stmt 0
	sw	zero,0(a0)
	.loc 1 1495 9 is_stmt 1
.L410:
	.loc 1 1501 9
	.loc 1 1501 15 is_stmt 0
	li	a0,0
.LVL865:
	ret
.LVL866:
.L406:
	.loc 1 1498 5 is_stmt 1
	.loc 1 1498 7 is_stmt 0
	li	a6,2
	bne	a2,a6,.L407
	.loc 1 1500 9 is_stmt 1
	.loc 1 1500 18 is_stmt 0
	lw	a5,8(a1)
	.loc 1 1500 22
	lw	a5,0(a5)
	andi	a5,a5,1
	.loc 1 1500 12
	sw	a5,0(a0)
	j	.L410
.L407:
	tail	mbedtls_mpi_mod_int.part.4
.LVL867:
.L408:
	.loc 1 1484 15
	li	a0,-12
.LVL868:
	ret
.LVL869:
.L409:
	.loc 1 1487 15
	li	a0,-10
.LVL870:
	.loc 1 1530 1
	ret
	.cfi_endproc
.LFE46:
	.size	mbedtls_mpi_mod_int, .-mbedtls_mpi_mod_int
	.section	.text.mpi_write_hlp,"ax",@progbits
	.align	1
	.type	mpi_write_hlp, @function
mpi_write_hlp:
.LFB23:
	.loc 1 497 1 is_stmt 1
	.cfi_startproc
.LVL871:
	.loc 1 498 5
	.loc 1 499 5
	.loc 1 501 5
	.loc 1 497 1 is_stmt 0
	addi	sp,sp,-48
	.cfi_def_cfa_offset 48
	sw	s1,36(sp)
	sw	ra,44(sp)
	sw	s0,40(sp)
	sw	s2,32(sp)
	sw	s3,28(sp)
	.cfi_offset 9, -12
	.cfi_offset 1, -4
	.cfi_offset 8, -8
	.cfi_offset 18, -16
	.cfi_offset 19, -20
	.loc 1 501 19
	addi	a4,a1,-2
	.loc 1 501 7
	li	a5,14
	.loc 1 502 15
	li	s1,-4
	.loc 1 501 7
	bgtu	a4,a5,.L411
	mv	s2,a2
	mv	s3,a1
	.loc 1 504 22
	mv	a2,a1
.LVL872:
	mv	s0,a0
	.loc 1 504 5 is_stmt 1
	.loc 1 504 10
	.loc 1 504 22 is_stmt 0
	mv	a1,a0
.LVL873:
	addi	a0,sp,12
.LVL874:
	call	mbedtls_mpi_mod_int
.LVL875:
	mv	s1,a0
.LVL876:
	.loc 1 504 12
	bne	a0,zero,.L411
	.loc 1 505 5 is_stmt 1
	.loc 1 505 10
	.loc 1 505 22 is_stmt 0
	mv	a3,s3
	mv	a2,s0
	li	a1,0
	mv	a0,s0
	call	mbedtls_mpi_div_int
.LVL877:
	mv	s1,a0
.LVL878:
	.loc 1 505 12
	bne	a0,zero,.L411
	.loc 1 507 5 is_stmt 1
	.loc 1 507 9 is_stmt 0
	li	a1,0
	mv	a0,s0
	call	mbedtls_mpi_cmp_int
.LVL879:
	.loc 1 507 7
	bne	a0,zero,.L413
.LVL880:
.L416:
	.loc 1 510 5 is_stmt 1
	.loc 1 510 11 is_stmt 0
	lw	a2,12(sp)
	lw	a4,0(s2)
	.loc 1 510 7
	li	a1,9
	andi	a5,a2,0xff
	addi	a3,a4,1
	bleu	a2,a1,.L414
	.loc 1 513 9 is_stmt 1
	.loc 1 513 14 is_stmt 0
	sw	a3,0(s2)
	.loc 1 513 19
	addi	a5,a5,55
	j	.L421
.LVL881:
.L413:
	.loc 1 508 9 is_stmt 1
	.loc 1 508 14
	.loc 1 508 26 is_stmt 0
	mv	a2,s2
	mv	a1,s3
	mv	a0,s0
	call	mpi_write_hlp
.LVL882:
	.loc 1 508 16
	beq	a0,zero,.L416
	mv	s1,a0
	j	.L411
.LVL883:
.L414:
	.loc 1 511 9 is_stmt 1
	.loc 1 511 14 is_stmt 0
	sw	a3,0(s2)
	.loc 1 511 19
	addi	a5,a5,48
.L421:
	.loc 1 513 17
	sb	a5,0(a4)
.LVL884:
.L411:
	.loc 1 518 1
	lw	ra,44(sp)
	.cfi_restore 1
	lw	s0,40(sp)
	.cfi_restore 8
	mv	a0,s1
	lw	s2,32(sp)
	.cfi_restore 18
	lw	s1,36(sp)
	.cfi_restore 9
	lw	s3,28(sp)
	.cfi_restore 19
	addi	sp,sp,48
	.cfi_def_cfa_offset 0
	jr	ra
	.cfi_endproc
.LFE23:
	.size	mpi_write_hlp, .-mpi_write_hlp
	.section	.text.mbedtls_mpi_write_string,"ax",@progbits
	.align	1
	.globl	mbedtls_mpi_write_string
	.type	mbedtls_mpi_write_string, @function
mbedtls_mpi_write_string:
.LFB24:
	.loc 1 525 1 is_stmt 1
	.cfi_startproc
.LVL885:
	.loc 1 526 5
	.loc 1 527 5
	.loc 1 528 5
	.loc 1 529 5
	.loc 1 531 5
	.loc 1 525 1 is_stmt 0
	addi	sp,sp,-64
	.cfi_def_cfa_offset 64
	sw	s0,56(sp)
	sw	ra,60(sp)
	sw	s1,52(sp)
	sw	s2,48(sp)
	sw	s3,44(sp)
	.cfi_offset 8, -8
	.cfi_offset 1, -4
	.cfi_offset 9, -12
	.cfi_offset 18, -16
	.cfi_offset 19, -20
	.loc 1 531 19
	addi	a7,a1,-2
	.loc 1 531 7
	li	a6,14
	.loc 1 532 15
	li	s0,-4
	.loc 1 531 7
	bgtu	a7,a6,.L422
	mv	s1,a1
	mv	s3,a4
	mv	s0,a3
	mv	s2,a2
	sw	a0,12(sp)
	.loc 1 534 5 is_stmt 1
	.loc 1 534 9 is_stmt 0
	call	mbedtls_mpi_bitlen
.LVL886:
	.loc 1 535 5 is_stmt 1
	.loc 1 535 7 is_stmt 0
	li	a5,3
	lw	a1,12(sp)
	ble	s1,a5,.L424
	.loc 1 535 22 is_stmt 1 discriminator 1
	.loc 1 535 24 is_stmt 0 discriminator 1
	srli	a0,a0,1
.LVL887:
.L424:
	.loc 1 536 5 is_stmt 1
	.loc 1 536 7 is_stmt 0
	li	a5,16
	bne	s1,a5,.L425
	.loc 1 536 23 is_stmt 1 discriminator 1
	.loc 1 536 25 is_stmt 0 discriminator 1
	srli	a0,a0,1
.LVL888:
.L425:
	.loc 1 542 5 is_stmt 1
	.loc 1 542 20 is_stmt 0
	addi	a5,a0,1
	.loc 1 542 26
	andi	a5,a5,1
	addi	a0,a0,3
.LVL889:
	.loc 1 542 7
	add	a0,a5,a0
.LVL890:
	.loc 1 544 5 is_stmt 1
	.loc 1 544 7 is_stmt 0
	bleu	a0,s0,.L426
	.loc 1 546 9 is_stmt 1
	.loc 1 546 15 is_stmt 0
	sw	a0,0(s3)
	.loc 1 547 9 is_stmt 1
	.loc 1 547 15 is_stmt 0
	li	s0,-8
.LVL891:
.L422:
	.loc 1 594 1
	mv	a0,s0
	lw	ra,60(sp)
	.cfi_remember_state
	.cfi_restore 1
	lw	s0,56(sp)
	.cfi_restore 8
	lw	s1,52(sp)
	.cfi_restore 9
	lw	s2,48(sp)
	.cfi_restore 18
	lw	s3,44(sp)
	.cfi_restore 19
	addi	sp,sp,64
	.cfi_def_cfa_offset 0
	jr	ra
.LVL892:
.L426:
	.cfi_restore_state
	.loc 1 550 5 is_stmt 1
	.loc 1 553 7 is_stmt 0
	lw	a4,0(a1)
.LBB146:
.LBB147:
	.loc 1 87 10
	li	a5,1
	sw	a5,20(sp)
.LBE147:
.LBE146:
	.loc 1 550 7
	sw	s2,16(sp)
	.loc 1 551 5 is_stmt 1
.LVL893:
.LBB149:
.LBB148:
	.loc 1 84 5
	.loc 1 87 5
	.loc 1 88 5
	.loc 1 88 10 is_stmt 0
	sw	zero,24(sp)
	.loc 1 89 5 is_stmt 1
	.loc 1 89 10 is_stmt 0
	sw	zero,28(sp)
.LVL894:
.LBE148:
.LBE149:
	.loc 1 553 5 is_stmt 1
	.loc 1 553 7 is_stmt 0
	li	a5,-1
	bne	a4,a5,.L427
	.loc 1 554 9 is_stmt 1
	.loc 1 554 11 is_stmt 0
	addi	a5,s2,1
	sw	a5,16(sp)
	.loc 1 554 14
	li	a5,45
	sb	a5,0(s2)
.L427:
	.loc 1 556 5 is_stmt 1
	.loc 1 556 7 is_stmt 0
	li	a5,16
	bne	s1,a5,.L428
.LBB150:
	.loc 1 558 9 is_stmt 1
	.loc 1 559 9
	.loc 1 561 9
	.loc 1 561 16 is_stmt 0
	lw	a2,4(a1)
.LVL895:
	.loc 1 570 45
	lui	a6,%hi(.LC0)
	.loc 1 561 26
	li	a0,0
.LVL896:
	.loc 1 570 45
	addi	a6,a6,%lo(.LC0)
	.loc 1 567 38
	li	t3,2
.LVL897:
.L429:
	.loc 1 561 9 discriminator 1
	bne	a2,zero,.L433
.LVL898:
.L436:
.LBE150:
	.loc 1 586 5 is_stmt 1
	.loc 1 586 7 is_stmt 0
	lw	a5,16(sp)
	.loc 1 587 11
	li	s0,0
	.loc 1 586 7
	addi	a4,a5,1
	sw	a4,16(sp)
	.loc 1 586 10
	sb	zero,0(a5)
	.loc 1 587 5 is_stmt 1
	.loc 1 587 15 is_stmt 0
	lw	a2,16(sp)
	sub	s2,a2,s2
.LVL899:
	.loc 1 587 11
	sw	s2,0(s3)
.LVL900:
.L434:
	.loc 1 591 5 is_stmt 1
	addi	a0,sp,20
	call	mbedtls_mpi_free
.LVL901:
	.loc 1 593 5
	.loc 1 593 11 is_stmt 0
	j	.L422
.LVL902:
.L433:
.LBB151:
	.loc 1 565 27
	slli	a7,a2,2
	addi	a7,a7,-4
	.loc 1 563 20
	li	a4,4
.L432:
.LVL903:
	.loc 1 565 17 is_stmt 1
	.loc 1 565 27 is_stmt 0
	lw	a3,8(a1)
	.loc 1 565 44
	addi	t1,a4,-1
	.loc 1 565 35
	slli	t4,t1,3
	.loc 1 565 27
	add	a3,a3,a7
	.loc 1 565 35
	lw	a5,0(a3)
	srl	a5,a5,t4
	.loc 1 565 19
	andi	a3,a5,255
.LVL904:
	.loc 1 567 17 is_stmt 1
	.loc 1 567 19 is_stmt 0
	or	a0,a0,a3
.LVL905:
	bne	a0,zero,.L430
	.loc 1 567 38 discriminator 2
	add	a4,a2,a4
.LVL906:
	bne	a4,t3,.L431
.L430:
	.loc 1 570 17 is_stmt 1
	.loc 1 570 20 is_stmt 0
	lw	a4,16(sp)
	.loc 1 570 48
	srai	a3,a3,4
.LVL907:
	.loc 1 570 45
	add	a3,a6,a3
	.loc 1 570 24
	lbu	a3,0(a3)
	.loc 1 570 20
	addi	a0,a4,1
	sw	a0,16(sp)
	.loc 1 570 24
	sb	a3,0(a4)
	.loc 1 571 17 is_stmt 1
	.loc 1 571 20 is_stmt 0
	lw	a4,16(sp)
	.loc 1 571 48
	andi	a5,a5,15
.LVL908:
	.loc 1 571 45
	add	a5,a6,a5
	.loc 1 571 24
	lbu	a5,0(a5)
	.loc 1 571 20
	addi	a3,a4,1
	sw	a3,16(sp)
	.loc 1 571 24
	sb	a5,0(a4)
	.loc 1 572 17 is_stmt 1
.LVL909:
	.loc 1 572 19 is_stmt 0
	li	a0,1
.LVL910:
.L431:
	mv	a4,t1
	.loc 1 563 13 discriminator 1
	bne	t1,zero,.L432
	.loc 1 561 39 discriminator 2
	addi	a2,a2,-1
.LVL911:
	j	.L429
.LVL912:
.L428:
.LBE151:
	.loc 1 578 9 is_stmt 1
	.loc 1 578 14
	.loc 1 578 26 is_stmt 0
	addi	a0,sp,20
.LVL913:
	call	mbedtls_mpi_copy
.LVL914:
	mv	s0,a0
.LVL915:
	.loc 1 578 16
	bne	a0,zero,.L434
	.loc 1 580 9 is_stmt 1
	.loc 1 580 11 is_stmt 0
	lw	a4,20(sp)
	li	a5,-1
	bne	a4,a5,.L435
	.loc 1 581 13 is_stmt 1
	.loc 1 581 17 is_stmt 0
	li	a5,1
	sw	a5,20(sp)
.L435:
	.loc 1 583 9 is_stmt 1
	.loc 1 583 14
	.loc 1 583 26 is_stmt 0
	addi	a2,sp,16
	mv	a1,s1
	addi	a0,sp,20
	call	mpi_write_hlp
.LVL916:
	mv	s0,a0
.LVL917:
	.loc 1 583 16
	beq	a0,zero,.L436
	j	.L434
	.cfi_endproc
.LFE24:
	.size	mbedtls_mpi_write_string, .-mbedtls_mpi_write_string
	.section	.text.mpi_check_small_factors,"ax",@progbits
	.align	1
	.type	mpi_check_small_factors, @function
mpi_check_small_factors:
.LFB54:
	.loc 1 2022 1 is_stmt 1
	.cfi_startproc
.LVL918:
	.loc 1 2023 5
	.loc 1 2024 5
	.loc 1 2025 5
	.loc 1 2027 5
	.loc 1 2027 15 is_stmt 0
	lw	a5,8(a0)
	.loc 1 2027 19
	lw	a5,0(a5)
	andi	a5,a5,1
	.loc 1 2027 7
	beq	a5,zero,.L449
	.loc 1 2022 1
	addi	sp,sp,-48
	.cfi_def_cfa_offset 48
	sw	s0,40(sp)
	.cfi_offset 8, -8
	lui	s0,%hi(.LANCHOR0)
	sw	s1,36(sp)
	sw	ra,44(sp)
	.cfi_offset 9, -12
	.cfi_offset 1, -4
	mv	s1,a0
	addi	s0,s0,%lo(.LANCHOR0)
.LVL919:
.L446:
.LBB154:
.LBB155:
	.loc 1 2030 28
	lw	a2,0(s0)
	.loc 1 2030 5
	bgt	a2,zero,.L448
	li	a0,0
.LVL920:
.L444:
.LBE155:
.LBE154:
	.loc 1 2043 1
	lw	ra,44(sp)
	.cfi_remember_state
	.cfi_restore 1
	lw	s0,40(sp)
	.cfi_restore 8
	lw	s1,36(sp)
	.cfi_restore 9
.LVL921:
	addi	sp,sp,48
	.cfi_def_cfa_offset 0
	jr	ra
.LVL922:
.L448:
	.cfi_restore_state
.LBB157:
.LBB156:
	.loc 1 2032 9 is_stmt 1
	.loc 1 2032 13 is_stmt 0
	mv	a1,a2
	mv	a0,s1
	sw	a2,12(sp)
	call	mbedtls_mpi_cmp_int
.LVL923:
	.loc 1 2032 11
	ble	a0,zero,.L450
	.loc 1 2035 9 is_stmt 1
	.loc 1 2035 14
	.loc 1 2035 26 is_stmt 0
	lw	a2,12(sp)
	mv	a1,s1
	addi	a0,sp,28
	call	mbedtls_mpi_mod_int
.LVL924:
	.loc 1 2035 16
	bne	a0,zero,.L444
	.loc 1 2037 9 is_stmt 1
	.loc 1 2037 11 is_stmt 0
	lw	a5,28(sp)
	addi	s0,s0,4
	bne	a5,zero,.L446
	.loc 1 2038 19
	li	a0,-14
.LVL925:
	j	.L444
.LVL926:
.L450:
	.loc 1 2033 19
	li	a0,1
	j	.L444
.LVL927:
.L449:
	.cfi_def_cfa_offset 0
	.cfi_restore 1
	.cfi_restore 8
	.cfi_restore 9
.LBE156:
.LBE157:
	.loc 1 2028 15
	li	a0,-14
.LVL928:
	.loc 1 2043 1
	ret
	.cfi_endproc
.LFE54:
	.size	mpi_check_small_factors, .-mpi_check_small_factors
	.section	.text.mbedtls_mpi_exp_mod,"ax",@progbits
	.align	1
	.globl	mbedtls_mpi_exp_mod
	.type	mbedtls_mpi_exp_mod, @function
mbedtls_mpi_exp_mod:
.LFB50:
	.loc 1 1610 1 is_stmt 1
	.cfi_startproc
.LVL929:
	.loc 1 1611 5
	.loc 1 1612 5
	.loc 1 1613 5
	.loc 1 1614 5
	.loc 1 1615 5
	.loc 1 1616 5
	.loc 1 1617 5
	.loc 1 1619 5
	.loc 1 1610 1 is_stmt 0
	addi	sp,sp,-1680
	.cfi_def_cfa_offset 1680
	sw	s3,1660(sp)
	sw	s4,1656(sp)
	.cfi_offset 19, -20
	.cfi_offset 20, -24
	mv	s3,a0
	mv	s4,a1
	.loc 1 1619 9
	mv	a0,a3
.LVL930:
	li	a1,0
.LVL931:
	.loc 1 1610 1
	sw	s0,1672(sp)
	sw	s2,1664(sp)
	sw	s7,1644(sp)
	sw	s8,1640(sp)
	sw	ra,1676(sp)
	sw	s1,1668(sp)
	sw	s5,1652(sp)
	sw	s6,1648(sp)
	sw	s9,1636(sp)
	sw	s10,1632(sp)
	sw	s11,1628(sp)
	.cfi_offset 8, -8
	.cfi_offset 18, -16
	.cfi_offset 23, -36
	.cfi_offset 24, -40
	.cfi_offset 1, -4
	.cfi_offset 9, -12
	.cfi_offset 21, -28
	.cfi_offset 22, -32
	.cfi_offset 25, -44
	.cfi_offset 26, -48
	.cfi_offset 27, -52
	.loc 1 1610 1
	mv	s8,a2
	mv	s2,a3
	mv	s7,a4
	.loc 1 1619 9
	call	mbedtls_mpi_cmp_int
.LVL932:
	.loc 1 1620 15
	li	s0,-4
	.loc 1 1619 7
	blt	a0,zero,.L456
	.loc 1 1619 50 discriminator 1
	lw	a5,8(s2)
	.loc 1 1620 15 discriminator 1
	li	s0,-4
	.loc 1 1619 50 discriminator 1
	lw	s5,0(a5)
	.loc 1 1619 54 discriminator 1
	andi	s10,s5,1
	.loc 1 1619 41 discriminator 1
	beq	s10,zero,.L456
	.loc 1 1622 5 is_stmt 1
	.loc 1 1622 9 is_stmt 0
	li	a1,0
	mv	a0,s8
	call	mbedtls_mpi_cmp_int
.LVL933:
	.loc 1 1622 7
	blt	a0,zero,.L456
	.loc 1 1628 5 is_stmt 1
.LVL934:
.LBB170:
.LBB171:
	.loc 1 1537 5
	.loc 1 1538 5
	.loc 1 1540 5
	.loc 1 1541 5
	.loc 1 1541 17 is_stmt 0
	addi	s1,s5,2
	.loc 1 1541 29
	slli	s1,s1,1
	andi	s1,s1,8
	.loc 1 1541 7
	add	s1,s1,s5
.LVL935:
	.loc 1 1543 5 is_stmt 1
	.loc 1 1541 7 is_stmt 0
	li	a5,3
	.loc 1 1544 18
	li	a3,2
.LVL936:
.L458:
	.loc 1 1544 9 is_stmt 1
	.loc 1 1544 25 is_stmt 0
	mul	a4,s5,s1
	addi	a5,a5,-1
	.loc 1 1544 18
	sub	a4,a3,a4
	.loc 1 1544 11
	mul	s1,s1,a4
.LVL937:
	.loc 1 1543 5
	bne	a5,zero,.L458
	.loc 1 1546 5 is_stmt 1
.LVL938:
.LBE171:
.LBE170:
	.loc 1 1629 5
.LBB173:
.LBB174:
	.loc 1 84 5
	.loc 1 87 5
	.loc 1 87 10 is_stmt 0
	li	a5,1
.LBE174:
.LBE173:
	.loc 1 1631 5
	li	a2,1536
	li	a1,0
	addi	a0,sp,80
.LBB177:
.LBB175:
	.loc 1 87 10
	sw	a5,32(sp)
	.loc 1 88 5 is_stmt 1
.LBE175:
.LBE177:
.LBB178:
.LBB179:
	.loc 1 87 10 is_stmt 0
	sw	a5,44(sp)
.LBE179:
.LBE178:
.LBB181:
.LBB182:
	sw	a5,56(sp)
.LBE182:
.LBE181:
.LBB184:
.LBB176:
	.loc 1 88 10
	sw	zero,36(sp)
	.loc 1 89 5 is_stmt 1
	.loc 1 89 10 is_stmt 0
	sw	zero,40(sp)
.LVL939:
.LBE176:
.LBE184:
	.loc 1 1629 30 is_stmt 1
.LBB185:
.LBB180:
	.loc 1 84 5
	.loc 1 87 5
	.loc 1 88 5
	.loc 1 88 10 is_stmt 0
	sw	zero,48(sp)
	.loc 1 89 5 is_stmt 1
	.loc 1 89 10 is_stmt 0
	sw	zero,52(sp)
.LVL940:
.LBE180:
.LBE185:
	.loc 1 1630 5 is_stmt 1
.LBB186:
.LBB183:
	.loc 1 84 5
	.loc 1 87 5
	.loc 1 88 5
	.loc 1 88 10 is_stmt 0
	sw	zero,60(sp)
	.loc 1 89 5 is_stmt 1
	.loc 1 89 10 is_stmt 0
	sw	zero,64(sp)
.LVL941:
.LBE183:
.LBE186:
	.loc 1 1631 5 is_stmt 1
	call	memset
.LVL942:
	.loc 1 1633 5
	.loc 1 1633 9 is_stmt 0
	mv	a0,s8
	call	mbedtls_mpi_bitlen
.LVL943:
	.loc 1 1635 5 is_stmt 1
	.loc 1 1635 29 is_stmt 0
	li	a5,671
	li	s5,6
	bgtu	a0,a5,.L459
	.loc 1 1635 29 discriminator 1
	li	a5,239
	li	s5,5
	bgtu	a0,a5,.L459
	.loc 1 1635 29 discriminator 3
	li	a5,79
	li	s5,4
	bgtu	a0,a5,.L459
	.loc 1 1635 29 discriminator 5
	li	a5,23
	li	s5,3
	bgtu	a0,a5,.L459
	.loc 1 1635 29
	mv	s5,s10
.L459:
.LVL944:
	.loc 1 1641 5 is_stmt 1
	.loc 1 1641 7 is_stmt 0
	lw	s6,4(s2)
	.loc 1 1642 22
	mv	a0,s3
.LVL945:
	.loc 1 1641 7
	addi	s6,s6,1
.LVL946:
	.loc 1 1642 5 is_stmt 1
	.loc 1 1642 10
	.loc 1 1642 22 is_stmt 0
	mv	a1,s6
	call	mbedtls_mpi_grow
.LVL947:
	mv	s0,a0
.LVL948:
	.loc 1 1642 12
	bne	a0,zero,.L460
	.loc 1 1643 5 is_stmt 1
	.loc 1 1643 10
	.loc 1 1643 22 is_stmt 0
	mv	a1,s6
	addi	a0,sp,92
	call	mbedtls_mpi_grow
.LVL949:
	mv	s0,a0
.LVL950:
	.loc 1 1643 12
	bne	a0,zero,.L460
	.loc 1 1644 5 is_stmt 1
	.loc 1 1644 10
	.loc 1 1644 22 is_stmt 0
	slli	a1,s6,1
	addi	a0,sp,44
	call	mbedtls_mpi_grow
.LVL951:
	mv	s0,a0
.LVL952:
	.loc 1 1644 12
	bne	a0,zero,.L460
	.loc 1 1649 5 is_stmt 1
	.loc 1 1649 14 is_stmt 0
	lw	a5,0(s4)
	sw	a5,8(sp)
.LVL953:
	.loc 1 1650 5 is_stmt 1
	.loc 1 1650 7 is_stmt 0
	lw	a4,8(sp)
	li	a5,-1
.LVL954:
	bne	a4,a5,.L461
	.loc 1 1652 9 is_stmt 1
	.loc 1 1652 14
	.loc 1 1652 26 is_stmt 0
	mv	a1,s4
	addi	a0,sp,56
	call	mbedtls_mpi_copy
.LVL955:
	mv	s0,a0
.LVL956:
	.loc 1 1652 16
	bne	a0,zero,.L460
	.loc 1 1653 9 is_stmt 1
	.loc 1 1653 16 is_stmt 0
	li	a5,1
	sw	a5,56(sp)
	.loc 1 1654 9 is_stmt 1
.LVL957:
	.loc 1 1654 11 is_stmt 0
	addi	s4,sp,56
.LVL958:
.L461:
	.loc 1 1660 5 is_stmt 1
	.loc 1 1660 7 is_stmt 0
	beq	s7,zero,.L462
	.loc 1 1660 20 discriminator 1
	lw	a5,8(s7)
	bne	a5,zero,.L463
.L462:
	.loc 1 1662 9 is_stmt 1
	.loc 1 1662 14
	.loc 1 1662 26 is_stmt 0
	li	a1,1
	addi	a0,sp,32
	call	mbedtls_mpi_lset
.LVL959:
	mv	s0,a0
.LVL960:
	.loc 1 1662 16
	bne	a0,zero,.L460
	.loc 1 1663 9 is_stmt 1
	.loc 1 1663 14
	.loc 1 1663 26 is_stmt 0
	lw	a1,4(s2)
	addi	a0,sp,32
	slli	a1,a1,6
	call	mbedtls_mpi_shift_l
.LVL961:
	mv	s0,a0
.LVL962:
	.loc 1 1663 16
	bne	a0,zero,.L460
	.loc 1 1664 9 is_stmt 1
	.loc 1 1664 14
	.loc 1 1664 26 is_stmt 0
	addi	a1,sp,32
	mv	a2,s2
	mv	a0,a1
	call	mbedtls_mpi_mod_mpi
.LVL963:
	mv	s0,a0
.LVL964:
	.loc 1 1664 16
	bne	a0,zero,.L460
	.loc 1 1666 9 is_stmt 1
	.loc 1 1666 11 is_stmt 0
	beq	s7,zero,.L464
	.loc 1 1667 13 is_stmt 1
	li	a2,12
	addi	a1,sp,32
	mv	a0,s7
.L511:
	.loc 1 1670 9 is_stmt 0
	call	memcpy
.LVL965:
.L464:
	.loc 1 1675 5 is_stmt 1
	.loc 1 1675 9 is_stmt 0
	mv	a1,s2
	mv	a0,s4
	call	mbedtls_mpi_cmp_mpi
.LVL966:
	.loc 1 1675 7
	blt	a0,zero,.L465
	.loc 1 1676 9 is_stmt 1
	.loc 1 1676 14
	.loc 1 1676 26 is_stmt 0
	mv	a2,s2
	mv	a1,s4
	addi	a0,sp,92
	call	mbedtls_mpi_mod_mpi
.LVL967:
.L512:
	mv	s0,a0
.LVL968:
	.loc 1 1676 16
	bne	a0,zero,.L460
.LBB187:
.LBB172:
	.loc 1 1546 14
	neg	s1,s1
.LVL969:
.LBE172:
.LBE187:
	.loc 1 1680 5 is_stmt 1
	.loc 1 1680 10
	.loc 1 1680 22 is_stmt 0
	addi	a4,sp,44
	mv	a3,s1
	mv	a2,s2
	addi	a1,sp,32
	addi	a0,sp,92
	call	mpi_montmul
.LVL970:
	mv	s0,a0
.LVL971:
	.loc 1 1680 12
	bne	a0,zero,.L460
	.loc 1 1685 5 is_stmt 1
	.loc 1 1685 10
	.loc 1 1685 22 is_stmt 0
	addi	a1,sp,32
	mv	a0,s3
	call	mbedtls_mpi_copy
.LVL972:
	mv	s0,a0
.LVL973:
	.loc 1 1685 12
	bne	a0,zero,.L460
	.loc 1 1686 5 is_stmt 1
	.loc 1 1686 10
.LVL974:
.LBB188:
.LBB189:
	.loc 1 1597 5
	.loc 1 1597 22 is_stmt 0
	li	s6,1
.LVL975:
	.loc 1 1601 9
	addi	a5,sp,28
	.loc 1 1603 13
	addi	a4,sp,44
.LVL976:
	mv	a3,s1
	mv	a2,s2
	addi	a1,sp,68
	mv	a0,s3
	.loc 1 1597 22
	sw	s6,28(sp)
	.loc 1 1598 5 is_stmt 1
	.loc 1 1600 5
	.loc 1 1600 15 is_stmt 0
	sw	s6,68(sp)
	.loc 1 1600 9
	sw	s6,72(sp)
	.loc 1 1601 5 is_stmt 1
	.loc 1 1601 9 is_stmt 0
	sw	a5,76(sp)
	.loc 1 1603 5 is_stmt 1
	.loc 1 1603 13 is_stmt 0
	call	mpi_montmul
.LVL977:
	mv	s0,a0
.LVL978:
.LBE189:
.LBE188:
	.loc 1 1686 12
	bne	a0,zero,.L460
	.loc 1 1688 5 is_stmt 1
	.loc 1 1688 7 is_stmt 0
	bne	s5,s6,.L468
.LVL979:
.L473:
	.loc 1 1713 5 is_stmt 1
	.loc 1 1713 13 is_stmt 0
	lw	s4,4(s8)
.LVL980:
	.loc 1 1714 5 is_stmt 1
	.loc 1 1715 5
	.loc 1 1716 5
	.loc 1 1717 5
	.loc 1 1717 11 is_stmt 0
	li	t1,0
	.loc 1 1715 11
	li	s11,0
	.loc 1 1714 13
	li	s6,0
.LVL981:
.L513:
	.loc 1 1773 19
	li	s9,0
	j	.L469
.LVL982:
.L463:
	.loc 1 1670 9 is_stmt 1
	li	a2,12
	mv	a1,s7
	addi	a0,sp,32
	j	.L511
.L465:
	.loc 1 1678 9
	.loc 1 1678 14
	.loc 1 1678 26 is_stmt 0
	mv	a1,s4
	addi	a0,sp,92
	call	mbedtls_mpi_copy
.LVL983:
	j	.L512
.LVL984:
.L468:
	addi	s11,s5,-1
	.loc 1 1695 26
	lw	a1,4(s2)
	li	s4,12
.LVL985:
	addi	a5,sp,80
	sll	s4,s4,s11
	add	s9,a5,s4
	addi	a1,a1,1
	mv	a0,s9
	call	mbedtls_mpi_grow
.LVL986:
	sll	s6,s6,s11
	.loc 1 1693 9 is_stmt 1
.LVL987:
	.loc 1 1695 9
	.loc 1 1695 14
	.loc 1 1695 26 is_stmt 0
	mv	s0,a0
.LVL988:
	.loc 1 1695 16
	bne	a0,zero,.L460
	.loc 1 1696 9 is_stmt 1
	.loc 1 1696 14
	.loc 1 1696 26 is_stmt 0
	addi	a1,sp,92
	mv	a0,s9
	call	mbedtls_mpi_copy
.LVL989:
	mv	s0,a0
.LVL990:
	.loc 1 1696 16
	bne	a0,zero,.L460
	.loc 1 1698 16
	li	s4,0
.L470:
.LVL991:
	.loc 1 1699 13 is_stmt 1
	.loc 1 1699 18
	.loc 1 1699 30 is_stmt 0
	addi	a4,sp,44
	mv	a3,s1
	mv	a2,s2
	mv	a1,s9
	mv	a0,s9
	call	mpi_montmul
.LVL992:
	mv	s0,a0
.LVL993:
	.loc 1 1699 20
	bne	a0,zero,.L460
	.loc 1 1698 37 discriminator 2
	addi	s4,s4,1
.LVL994:
	.loc 1 1698 9 discriminator 2
	bgtu	s11,s4,.L470
	.loc 1 1704 9 is_stmt 1
	.loc 1 1704 35 is_stmt 0
	li	s11,1
.LVL995:
	.loc 1 1704 16
	addi	s6,s6,1
.LVL996:
	.loc 1 1704 35
	sll	s11,s11,s5
.L471:
	.loc 1 1704 9 discriminator 1
	bleu	s11,s6,.L473
	.loc 1 1706 13 is_stmt 1
	.loc 1 1706 18
	.loc 1 1706 30 is_stmt 0
	lw	a1,4(s2)
	addi	s4,s9,12
	mv	a0,s4
	addi	a1,a1,1
	call	mbedtls_mpi_grow
.LVL997:
	mv	s0,a0
.LVL998:
	.loc 1 1706 20
	bne	a0,zero,.L460
	.loc 1 1707 13 is_stmt 1
	.loc 1 1707 18
	.loc 1 1707 30 is_stmt 0
	mv	a1,s9
	mv	a0,s4
	call	mbedtls_mpi_copy
.LVL999:
	mv	s0,a0
.LVL1000:
	.loc 1 1707 20
	bne	a0,zero,.L460
	.loc 1 1709 13 is_stmt 1
	.loc 1 1709 18
	.loc 1 1709 30 is_stmt 0
	addi	a4,sp,44
	mv	a3,s1
	mv	a2,s2
	addi	a1,sp,92
	mv	a0,s4
	call	mpi_montmul
.LVL1001:
	mv	s0,a0
.LVL1002:
	.loc 1 1709 20
	bne	a0,zero,.L460
	.loc 1 1704 48 discriminator 2
	addi	s6,s6,1
.LVL1003:
	mv	s9,s4
	j	.L471
.LVL1004:
.L475:
	.loc 1 1726 13 is_stmt 1
	.loc 1 1726 20 is_stmt 0
	addi	s4,s4,-1
.LVL1005:
	.loc 1 1728 13 is_stmt 1
	.loc 1 1728 21 is_stmt 0
	li	s6,32
.LVL1006:
.L474:
	.loc 1 1731 9 is_stmt 1
	.loc 1 1733 19 is_stmt 0
	lw	a4,8(s8)
	slli	a3,s4,2
	.loc 1 1731 16
	addi	s6,s6,-1
.LVL1007:
	.loc 1 1733 9 is_stmt 1
	.loc 1 1733 19 is_stmt 0
	add	a4,a4,a3
	.loc 1 1733 29
	lw	a4,0(a4)
	srl	a4,a4,s6
	.loc 1 1733 12
	andi	a4,a4,1
.LVL1008:
	.loc 1 1738 9 is_stmt 1
	.loc 1 1738 11 is_stmt 0
	bne	a4,zero,.L477
	.loc 1 1738 21 discriminator 1
	beq	t1,zero,.L469
	.loc 1 1741 9 is_stmt 1 discriminator 1
	.loc 1 1741 21 is_stmt 0 discriminator 1
	li	a5,1
	bne	t1,a5,.L477
	.loc 1 1746 30
	addi	a4,sp,44
.LVL1009:
	mv	a3,s1
.LVL1010:
	mv	a2,s2
	mv	a1,s3
	mv	a0,s3
	sw	t1,12(sp)
	.loc 1 1746 13 is_stmt 1
	.loc 1 1746 18
	.loc 1 1746 30 is_stmt 0
	call	mpi_montmul
.LVL1011:
	mv	s0,a0
.LVL1012:
	.loc 1 1746 20
	bne	a0,zero,.L460
	lw	t1,12(sp)
.LVL1013:
.L469:
	.loc 1 1719 5 is_stmt 1
	.loc 1 1721 9
	.loc 1 1721 11 is_stmt 0
	bne	s6,zero,.L474
.LVL1014:
	.loc 1 1723 13 is_stmt 1
	.loc 1 1723 15 is_stmt 0
	bne	s4,zero,.L475
	.loc 1 1786 29
	li	s6,1
	sll	s6,s6,s5
.LVL1015:
.L476:
	.loc 1 1780 5 discriminator 1
	bne	s4,s11,.L482
	.loc 1 1793 5 is_stmt 1
	.loc 1 1793 10
.LVL1016:
.LBB190:
.LBB191:
	.loc 1 1597 5
	.loc 1 1597 22 is_stmt 0
	li	a5,1
	sw	a5,28(sp)
	.loc 1 1598 5 is_stmt 1
	.loc 1 1600 5
	.loc 1 1600 15 is_stmt 0
	sw	a5,68(sp)
	.loc 1 1600 9
	sw	a5,72(sp)
	.loc 1 1601 5 is_stmt 1
	.loc 1 1603 13 is_stmt 0
	addi	a4,sp,44
.LVL1017:
	.loc 1 1601 9
	addi	a5,sp,28
	.loc 1 1603 13
	mv	a3,s1
	mv	a2,s2
	addi	a1,sp,68
	mv	a0,s3
	.loc 1 1601 9
	sw	a5,76(sp)
	.loc 1 1603 5 is_stmt 1
	.loc 1 1603 13 is_stmt 0
	call	mpi_montmul
.LVL1018:
	mv	s0,a0
.LVL1019:
.LBE191:
.LBE190:
	.loc 1 1793 12
	bne	a0,zero,.L460
	.loc 1 1795 5 is_stmt 1
	.loc 1 1795 7 is_stmt 0
	lw	a4,8(sp)
	li	a5,-1
	bne	a4,a5,.L460
	.loc 1 1797 9 is_stmt 1
	.loc 1 1797 14 is_stmt 0
	sw	a4,0(s3)
	.loc 1 1798 9 is_stmt 1
	.loc 1 1798 14
	.loc 1 1798 26 is_stmt 0
	mv	a2,s3
	mv	a1,s2
	mv	a0,s3
	call	mbedtls_mpi_add_mpi
.LVL1020:
	mv	s0,a0
.LVL1021:
	.loc 1 1801 1
	j	.L460
.LVL1022:
.L477:
	.loc 1 1753 9 is_stmt 1
	.loc 1 1755 9
	.loc 1 1755 14 is_stmt 0
	addi	s11,s11,1
.LVL1023:
	.loc 1 1756 9 is_stmt 1
	.loc 1 1756 34 is_stmt 0
	sub	a3,s5,s11
	.loc 1 1756 23
	sll	a4,a4,a3
.LVL1024:
	.loc 1 1756 15
	or	s9,s9,a4
.LVL1025:
	.loc 1 1758 9 is_stmt 1
	.loc 1 1753 15 is_stmt 0
	li	t1,2
	.loc 1 1758 11
	bne	s5,s11,.L469
	.loc 1 1763 20
	li	t1,0
.LVL1026:
.L479:
	.loc 1 1764 34
	addi	a4,sp,44
	mv	a3,s1
	mv	a2,s2
	mv	a1,s3
	mv	a0,s3
	sw	t1,12(sp)
.LVL1027:
	.loc 1 1764 17 is_stmt 1
	.loc 1 1764 22
	.loc 1 1764 34 is_stmt 0
	call	mpi_montmul
.LVL1028:
	mv	s0,a0
.LVL1029:
	.loc 1 1764 24
	bne	a0,zero,.L460
	.loc 1 1763 37 discriminator 2
	lw	t1,12(sp)
	addi	t1,t1,1
.LVL1030:
	.loc 1 1763 13 discriminator 2
	bgtu	s11,t1,.L479
	.loc 1 1769 13 is_stmt 1
	.loc 1 1769 18
	.loc 1 1769 46 is_stmt 0
	li	a5,12
	mul	a1,s9,a5
	.loc 1 1769 30
	addi	a5,sp,80
	addi	a4,sp,44
	mv	a3,s1
	mv	a2,s2
	mv	a0,s3
	add	a1,a5,a1
	call	mpi_montmul
.LVL1031:
	mv	s0,a0
.LVL1032:
	.loc 1 1769 20
	bne	a0,zero,.L460
	.loc 1 1771 18
	mv	t1,s10
	.loc 1 1772 19
	li	s11,0
.LVL1033:
	j	.L513
.LVL1034:
.L482:
	.loc 1 1782 9 is_stmt 1
	.loc 1 1782 14
	.loc 1 1782 26 is_stmt 0
	addi	a4,sp,44
	mv	a3,s1
	mv	a2,s2
	mv	a1,s3
	mv	a0,s3
	call	mpi_montmul
.LVL1035:
	mv	s0,a0
.LVL1036:
	.loc 1 1782 16
	bne	a0,zero,.L460
	.loc 1 1784 9 is_stmt 1
	.loc 1 1784 15 is_stmt 0
	slli	s9,s9,1
.LVL1037:
	.loc 1 1786 9 is_stmt 1
	.loc 1 1786 21 is_stmt 0
	and	a4,s6,s9
	.loc 1 1786 11
	bne	a4,zero,.L480
.L481:
	.loc 1 1780 29
	addi	s4,s4,1
.LVL1038:
	j	.L476
.L480:
	.loc 1 1787 13 is_stmt 1
	.loc 1 1787 18
	.loc 1 1787 30 is_stmt 0
	addi	a4,sp,44
	mv	a3,s1
	mv	a2,s2
	addi	a1,sp,92
	mv	a0,s3
	call	mpi_montmul
.LVL1039:
	mv	s0,a0
.LVL1040:
	.loc 1 1787 20
	beq	a0,zero,.L481
.LVL1041:
.L460:
	.loc 1 1803 5 is_stmt 1
	.loc 1 1803 31 is_stmt 0
	addi	s1,s5,-1
	.loc 1 1803 12
	li	a5,1
	sll	s1,a5,s1
.LVL1042:
	.loc 1 1803 50
	sll	s5,a5,s5
.LVL1043:
	.loc 1 1804 9
	li	s2,12
.LVL1044:
.L483:
	.loc 1 1803 5 discriminator 1
	bgtu	s5,s1,.L484
	.loc 1 1806 5 is_stmt 1
	addi	a0,sp,92
	call	mbedtls_mpi_free
.LVL1045:
	.loc 1 1806 32
	addi	a0,sp,44
	call	mbedtls_mpi_free
.LVL1046:
	.loc 1 1806 56
	addi	a0,sp,56
	call	mbedtls_mpi_free
.LVL1047:
	.loc 1 1808 5
	.loc 1 1808 7 is_stmt 0
	beq	s7,zero,.L485
	.loc 1 1808 20 discriminator 1
	lw	a5,8(s7)
	bne	a5,zero,.L456
.L485:
	.loc 1 1809 9 is_stmt 1
	addi	a0,sp,32
	call	mbedtls_mpi_free
.LVL1048:
.L456:
	.loc 1 1812 1 is_stmt 0
	mv	a0,s0
	lw	ra,1676(sp)
	.cfi_remember_state
	.cfi_restore 1
	lw	s0,1672(sp)
	.cfi_restore 8
	lw	s1,1668(sp)
	.cfi_restore 9
	lw	s2,1664(sp)
	.cfi_restore 18
	lw	s3,1660(sp)
	.cfi_restore 19
.LVL1049:
	lw	s4,1656(sp)
	.cfi_restore 20
	lw	s5,1652(sp)
	.cfi_restore 21
	lw	s6,1648(sp)
	.cfi_restore 22
	lw	s7,1644(sp)
	.cfi_restore 23
.LVL1050:
	lw	s8,1640(sp)
	.cfi_restore 24
.LVL1051:
	lw	s9,1636(sp)
	.cfi_restore 25
	lw	s10,1632(sp)
	.cfi_restore 26
	lw	s11,1628(sp)
	.cfi_restore 27
	addi	sp,sp,1680
	.cfi_def_cfa_offset 0
	jr	ra
.LVL1052:
.L484:
	.cfi_restore_state
	.loc 1 1804 9 is_stmt 1 discriminator 3
	mul	a0,s1,s2
	addi	a5,sp,80
	.loc 1 1803 63 is_stmt 0 discriminator 3
	addi	s1,s1,1
.LVL1053:
	.loc 1 1804 9 discriminator 3
	add	a0,a5,a0
	call	mbedtls_mpi_free
.LVL1054:
	j	.L483
	.cfi_endproc
.LFE50:
	.size	mbedtls_mpi_exp_mod, .-mbedtls_mpi_exp_mod
	.section	.text.mbedtls_mpi_gcd,"ax",@progbits
	.align	1
	.globl	mbedtls_mpi_gcd
	.type	mbedtls_mpi_gcd, @function
mbedtls_mpi_gcd:
.LFB51:
	.loc 1 1818 1 is_stmt 1
	.cfi_startproc
.LVL1055:
	.loc 1 1819 5
	.loc 1 1820 5
	.loc 1 1821 5
	.loc 1 1823 5
	.loc 1 1818 1 is_stmt 0
	addi	sp,sp,-80
	.cfi_def_cfa_offset 80
.LVL1056:
.LBB192:
.LBB193:
	.loc 1 84 5 is_stmt 1
	.loc 1 87 5
	.loc 1 87 10 is_stmt 0
	li	a5,1
.LBE193:
.LBE192:
	.loc 1 1818 1
	sw	s2,64(sp)
	.cfi_offset 18, -16
	mv	s2,a0
	.loc 1 1825 22
	addi	a0,sp,40
.LVL1057:
	.loc 1 1818 1
	sw	s0,72(sp)
	sw	ra,76(sp)
	sw	s1,68(sp)
	.cfi_offset 8, -8
	.cfi_offset 1, -4
	.cfi_offset 9, -12
	.loc 1 1818 1
	sw	a2,12(sp)
.LBB195:
.LBB194:
	.loc 1 87 10
	sw	a5,28(sp)
	.loc 1 88 5 is_stmt 1
	.loc 1 88 10 is_stmt 0
	sw	zero,32(sp)
	.loc 1 89 5 is_stmt 1
	.loc 1 89 10 is_stmt 0
	sw	zero,36(sp)
.LVL1058:
.LBE194:
.LBE195:
	.loc 1 1823 30 is_stmt 1
.LBB196:
.LBB197:
	.loc 1 84 5
	.loc 1 87 5
	.loc 1 87 10 is_stmt 0
	sw	a5,40(sp)
	.loc 1 88 5 is_stmt 1
	.loc 1 88 10 is_stmt 0
	sw	zero,44(sp)
	.loc 1 89 5 is_stmt 1
	.loc 1 89 10 is_stmt 0
	sw	zero,48(sp)
.LVL1059:
.LBE197:
.LBE196:
	.loc 1 1823 55 is_stmt 1
.LBB198:
.LBB199:
	.loc 1 84 5
	.loc 1 87 5
	.loc 1 87 10 is_stmt 0
	sw	a5,52(sp)
	.loc 1 88 5 is_stmt 1
	.loc 1 88 10 is_stmt 0
	sw	zero,56(sp)
	.loc 1 89 5 is_stmt 1
	.loc 1 89 10 is_stmt 0
	sw	zero,60(sp)
.LVL1060:
.LBE199:
.LBE198:
	.loc 1 1825 5 is_stmt 1
	.loc 1 1825 10
	.loc 1 1825 22 is_stmt 0
	call	mbedtls_mpi_copy
.LVL1061:
	mv	s0,a0
.LVL1062:
	.loc 1 1825 12
	bne	a0,zero,.L515
	.loc 1 1826 5 is_stmt 1
	.loc 1 1826 10
	.loc 1 1826 22 is_stmt 0
	lw	a2,12(sp)
	addi	a0,sp,52
	mv	a1,a2
	call	mbedtls_mpi_copy
.LVL1063:
	mv	s0,a0
.LVL1064:
	.loc 1 1826 12
	bne	a0,zero,.L515
	.loc 1 1828 5 is_stmt 1
	.loc 1 1828 10 is_stmt 0
	addi	a0,sp,40
	call	mbedtls_mpi_lsb
.LVL1065:
	mv	s1,a0
.LVL1066:
	.loc 1 1829 5 is_stmt 1
	.loc 1 1829 11 is_stmt 0
	addi	a0,sp,52
	call	mbedtls_mpi_lsb
.LVL1067:
	.loc 1 1831 5 is_stmt 1
	bleu	s1,a0,.L516
	mv	s1,a0
.LVL1068:
.L516:
	.loc 1 1834 5
	.loc 1 1834 10
	.loc 1 1834 22 is_stmt 0
	mv	a1,s1
	addi	a0,sp,40
.LVL1069:
	call	mbedtls_mpi_shift_r
.LVL1070:
	mv	s0,a0
.LVL1071:
	.loc 1 1834 12
	bne	a0,zero,.L515
	.loc 1 1835 5 is_stmt 1
	.loc 1 1835 10
	.loc 1 1835 22 is_stmt 0
	mv	a1,s1
	addi	a0,sp,52
	call	mbedtls_mpi_shift_r
.LVL1072:
	mv	s0,a0
.LVL1073:
	.loc 1 1835 12
	bne	a0,zero,.L515
	.loc 1 1837 5 is_stmt 1
	.loc 1 1837 17 is_stmt 0
	li	a5,1
	sw	a5,52(sp)
	.loc 1 1837 10
	sw	a5,40(sp)
	.loc 1 1839 5 is_stmt 1
.L517:
	.loc 1 1839 12 is_stmt 0
	li	a1,0
	addi	a0,sp,40
	call	mbedtls_mpi_cmp_int
.LVL1074:
	.loc 1 1839 10
	bne	a0,zero,.L520
	.loc 1 1856 5 is_stmt 1
	.loc 1 1856 10
	.loc 1 1856 22 is_stmt 0
	mv	a1,s1
	addi	a0,sp,52
	call	mbedtls_mpi_shift_l
.LVL1075:
	mv	s0,a0
.LVL1076:
	.loc 1 1856 12
	bne	a0,zero,.L515
	.loc 1 1857 5 is_stmt 1
	.loc 1 1857 10
	.loc 1 1857 22 is_stmt 0
	addi	a1,sp,52
	mv	a0,s2
	call	mbedtls_mpi_copy
.LVL1077:
	mv	s0,a0
.LVL1078:
	.loc 1 1859 1
	j	.L515
.L520:
	.loc 1 1841 9 is_stmt 1
	.loc 1 1841 14
	.loc 1 1841 26 is_stmt 0
	addi	a0,sp,40
	call	mbedtls_mpi_lsb
.LVL1079:
	mv	a1,a0
	addi	a0,sp,40
	call	mbedtls_mpi_shift_r
.LVL1080:
	mv	s0,a0
.LVL1081:
	.loc 1 1841 16
	bne	a0,zero,.L515
	.loc 1 1842 9 is_stmt 1
	.loc 1 1842 14
	.loc 1 1842 26 is_stmt 0
	addi	a0,sp,52
	call	mbedtls_mpi_lsb
.LVL1082:
	mv	a1,a0
	addi	a0,sp,52
	call	mbedtls_mpi_shift_r
.LVL1083:
	mv	s0,a0
.LVL1084:
	.loc 1 1842 16
	bne	a0,zero,.L515
	.loc 1 1844 9 is_stmt 1
	.loc 1 1844 13 is_stmt 0
	addi	a1,sp,52
	addi	a0,sp,40
	call	mbedtls_mpi_cmp_mpi
.LVL1085:
	.loc 1 1844 11
	blt	a0,zero,.L518
	.loc 1 1846 13 is_stmt 1
	.loc 1 1846 18
	.loc 1 1846 30 is_stmt 0
	addi	a1,sp,40
	addi	a2,sp,52
	mv	a0,a1
	call	mbedtls_mpi_sub_abs
.LVL1086:
	mv	s0,a0
.LVL1087:
	.loc 1 1846 20
	bne	a0,zero,.L515
	.loc 1 1847 13 is_stmt 1
	.loc 1 1847 18
	.loc 1 1847 30 is_stmt 0
	li	a1,1
	addi	a0,sp,40
.L522:
	.loc 1 1852 30
	call	mbedtls_mpi_shift_r
.LVL1088:
	mv	s0,a0
.LVL1089:
	.loc 1 1852 20
	beq	a0,zero,.L517
.LVL1090:
.L515:
	.loc 1 1861 5 is_stmt 1
	addi	a0,sp,28
	call	mbedtls_mpi_free
.LVL1091:
	.loc 1 1861 30
	addi	a0,sp,40
	call	mbedtls_mpi_free
.LVL1092:
	.loc 1 1861 55
	addi	a0,sp,52
	call	mbedtls_mpi_free
.LVL1093:
	.loc 1 1863 5
	.loc 1 1864 1 is_stmt 0
	mv	a0,s0
	lw	ra,76(sp)
	.cfi_remember_state
	.cfi_restore 1
	lw	s0,72(sp)
	.cfi_restore 8
.LVL1094:
	lw	s1,68(sp)
	.cfi_restore 9
	lw	s2,64(sp)
	.cfi_restore 18
.LVL1095:
	addi	sp,sp,80
	.cfi_def_cfa_offset 0
.LVL1096:
	jr	ra
.LVL1097:
.L518:
	.cfi_restore_state
	.loc 1 1851 13 is_stmt 1
	.loc 1 1851 18
	.loc 1 1851 30 is_stmt 0
	addi	a1,sp,52
	addi	a2,sp,40
	mv	a0,a1
	call	mbedtls_mpi_sub_abs
.LVL1098:
	mv	s0,a0
.LVL1099:
	.loc 1 1851 20
	bne	a0,zero,.L515
	.loc 1 1852 13 is_stmt 1
	.loc 1 1852 18
	.loc 1 1852 30 is_stmt 0
	li	a1,1
	addi	a0,sp,52
	j	.L522
	.cfi_endproc
.LFE51:
	.size	mbedtls_mpi_gcd, .-mbedtls_mpi_gcd
	.section	.text.mbedtls_mpi_fill_random,"ax",@progbits
	.align	1
	.globl	mbedtls_mpi_fill_random
	.type	mbedtls_mpi_fill_random, @function
mbedtls_mpi_fill_random:
.LFB52:
	.loc 1 1876 1 is_stmt 1
	.cfi_startproc
.LVL1100:
	.loc 1 1877 5
	.loc 1 1878 5
	.loc 1 1880 5
	.loc 1 1880 7 is_stmt 0
	li	a5,1024
	bgtu	a1,a5,.L525
	.loc 1 1876 1
	addi	sp,sp,-1040
	.cfi_def_cfa_offset 1040
	sw	s0,1032(sp)
	sw	s1,1028(sp)
	sw	ra,1036(sp)
	.cfi_offset 8, -8
	.cfi_offset 9, -12
	.cfi_offset 1, -4
	mv	s1,a0
	mv	a5,a2
	mv	s0,a1
	.loc 1 1883 5 is_stmt 1
	.loc 1 1883 10
	.loc 1 1883 22 is_stmt 0
	mv	a2,a1
.LVL1101:
	mv	a0,a3
.LVL1102:
	mv	a1,sp
.LVL1103:
	jalr	a5
.LVL1104:
	.loc 1 1883 12
	bne	a0,zero,.L523
	.loc 1 1884 5 is_stmt 1
	.loc 1 1884 10
	.loc 1 1884 22 is_stmt 0
	mv	a2,s0
	mv	a1,sp
	mv	a0,s1
.LVL1105:
	call	mbedtls_mpi_read_binary
.LVL1106:
.L523:
	.loc 1 1888 1
	lw	ra,1036(sp)
	.cfi_restore 1
	lw	s0,1032(sp)
	.cfi_restore 8
.LVL1107:
	lw	s1,1028(sp)
	.cfi_restore 9
.LVL1108:
	addi	sp,sp,1040
	.cfi_def_cfa_offset 0
	jr	ra
.LVL1109:
.L525:
	.loc 1 1881 15
	li	a0,-4
.LVL1110:
	.loc 1 1888 1
	ret
	.cfi_endproc
.LFE52:
	.size	mbedtls_mpi_fill_random, .-mbedtls_mpi_fill_random
	.section	.text.mpi_miller_rabin,"ax",@progbits
	.align	1
	.type	mpi_miller_rabin, @function
mpi_miller_rabin:
.LFB55:
	.loc 1 2051 1 is_stmt 1
	.cfi_startproc
.LVL1111:
	.loc 1 2052 5
	.loc 1 2053 5
	.loc 1 2054 5
	.loc 1 2056 5
	.loc 1 2051 1 is_stmt 0
	addi	sp,sp,-112
	.cfi_def_cfa_offset 112
.LVL1112:
.LBB200:
.LBB201:
	.loc 1 84 5 is_stmt 1
	.loc 1 87 5
	.loc 1 87 10 is_stmt 0
	li	a5,1
.LBE201:
.LBE200:
	.loc 1 2051 1
	sw	s2,96(sp)
	sw	s5,84(sp)
	sw	s6,80(sp)
	.cfi_offset 18, -16
	.cfi_offset 21, -28
	.cfi_offset 22, -32
	mv	s2,a0
	mv	s5,a1
	mv	s6,a2
	.loc 1 2063 22
	mv	a1,a0
.LVL1113:
	li	a2,1
.LVL1114:
	addi	a0,sp,4
.LVL1115:
	.loc 1 2051 1
	sw	s0,104(sp)
	sw	ra,108(sp)
	sw	s1,100(sp)
	sw	s3,92(sp)
	sw	s4,88(sp)
	sw	s7,76(sp)
	.cfi_offset 8, -8
	.cfi_offset 1, -4
	.cfi_offset 9, -12
	.cfi_offset 19, -20
	.cfi_offset 20, -24
	.cfi_offset 23, -36
.LBB203:
.LBB202:
	.loc 1 87 10
	sw	a5,4(sp)
	.loc 1 88 5 is_stmt 1
	.loc 1 88 10 is_stmt 0
	sw	zero,8(sp)
	.loc 1 89 5 is_stmt 1
	.loc 1 89 10 is_stmt 0
	sw	zero,12(sp)
.LVL1116:
.LBE202:
.LBE203:
	.loc 1 2056 29 is_stmt 1
.LBB204:
.LBB205:
	.loc 1 84 5
	.loc 1 87 5
	.loc 1 87 10 is_stmt 0
	sw	a5,16(sp)
	.loc 1 88 5 is_stmt 1
	.loc 1 88 10 is_stmt 0
	sw	zero,20(sp)
	.loc 1 89 5 is_stmt 1
	.loc 1 89 10 is_stmt 0
	sw	zero,24(sp)
.LVL1117:
.LBE205:
.LBE204:
	.loc 1 2056 53 is_stmt 1
.LBB206:
.LBB207:
	.loc 1 84 5
	.loc 1 87 5
	.loc 1 87 10 is_stmt 0
	sw	a5,28(sp)
	.loc 1 88 5 is_stmt 1
	.loc 1 88 10 is_stmt 0
	sw	zero,32(sp)
	.loc 1 89 5 is_stmt 1
	.loc 1 89 10 is_stmt 0
	sw	zero,36(sp)
.LVL1118:
.LBE207:
.LBE206:
	.loc 1 2056 77 is_stmt 1
.LBB208:
.LBB209:
	.loc 1 84 5
	.loc 1 87 5
	.loc 1 87 10 is_stmt 0
	sw	a5,40(sp)
	.loc 1 88 5 is_stmt 1
	.loc 1 88 10 is_stmt 0
	sw	zero,44(sp)
	.loc 1 89 5 is_stmt 1
	.loc 1 89 10 is_stmt 0
	sw	zero,48(sp)
.LVL1119:
.LBE209:
.LBE208:
	.loc 1 2057 5 is_stmt 1
.LBB210:
.LBB211:
	.loc 1 84 5
	.loc 1 87 5
	.loc 1 87 10 is_stmt 0
	sw	a5,52(sp)
	.loc 1 88 5 is_stmt 1
	.loc 1 88 10 is_stmt 0
	sw	zero,56(sp)
	.loc 1 89 5 is_stmt 1
	.loc 1 89 10 is_stmt 0
	sw	zero,60(sp)
.LVL1120:
.LBE211:
.LBE210:
	.loc 1 2063 5 is_stmt 1
	.loc 1 2063 10
	.loc 1 2063 22 is_stmt 0
	call	mbedtls_mpi_sub_int
.LVL1121:
	mv	s0,a0
.LVL1122:
	.loc 1 2063 12
	bne	a0,zero,.L531
	.loc 1 2064 5 is_stmt 1
	.loc 1 2064 9 is_stmt 0
	addi	a0,sp,4
	call	mbedtls_mpi_lsb
.LVL1123:
	mv	s7,a0
.LVL1124:
	.loc 1 2065 5 is_stmt 1
	.loc 1 2065 10
	.loc 1 2065 22 is_stmt 0
	addi	a1,sp,4
	addi	a0,sp,16
.LVL1125:
	call	mbedtls_mpi_copy
.LVL1126:
	mv	s0,a0
.LVL1127:
	.loc 1 2065 12
	bne	a0,zero,.L531
	.loc 1 2066 5 is_stmt 1
	.loc 1 2066 10
	.loc 1 2066 22 is_stmt 0
	mv	a1,s7
	addi	a0,sp,16
	call	mbedtls_mpi_shift_r
.LVL1128:
	mv	s0,a0
.LVL1129:
	.loc 1 2066 12
	bne	a0,zero,.L531
	.loc 1 2068 5 is_stmt 1
	.loc 1 2068 9 is_stmt 0
	mv	a0,s2
	call	mbedtls_mpi_bitlen
.LVL1130:
	.loc 1 2072 5 is_stmt 1
	.loc 1 2072 29 is_stmt 0
	li	a5,1299
	li	s1,2
	bgtu	a0,a5,.L532
	.loc 1 2072 29 discriminator 1
	li	a5,849
	li	s1,3
	bgtu	a0,a5,.L532
	.loc 1 2072 29 discriminator 3
	li	a5,649
	li	s1,4
	bgtu	a0,a5,.L532
	.loc 1 2072 29 discriminator 5
	li	a5,349
	li	s1,8
	bgtu	a0,a5,.L532
	.loc 1 2072 29 discriminator 7
	li	a5,249
	li	s1,12
	bgtu	a0,a5,.L532
	.loc 1 2072 29 discriminator 9
	li	a5,149
	li	s1,18
	bgtu	a0,a5,.L532
	.loc 1 2072 29
	li	s1,27
.L532:
.LVL1131:
	.loc 1 2076 5 is_stmt 1 discriminator 24
	.loc 1 2076 12 is_stmt 0 discriminator 24
	li	s3,0
.LVL1132:
.L542:
	.loc 1 2081 9 is_stmt 1
	.loc 1 2081 14
	.loc 1 2081 26 is_stmt 0
	lw	a1,4(s2)
	mv	a3,s6
	mv	a2,s5
	slli	a1,a1,2
	addi	a0,sp,40
	call	mbedtls_mpi_fill_random
.LVL1133:
	mv	s0,a0
.LVL1134:
	.loc 1 2081 16
	bne	a0,zero,.L531
	.loc 1 2083 9 is_stmt 1
	.loc 1 2083 13 is_stmt 0
	addi	a1,sp,4
	addi	a0,sp,40
	call	mbedtls_mpi_cmp_mpi
.LVL1135:
	.loc 1 2083 11
	bge	a0,zero,.L533
.L535:
	.loc 1 2088 9 is_stmt 1
	.loc 1 2088 10 is_stmt 0
	lw	a4,48(sp)
	.loc 1 2088 16
	li	s4,32
	lw	a5,0(a4)
	ori	a5,a5,3
	sw	a5,0(a4)
	.loc 1 2090 9 is_stmt 1
.LVL1136:
.L534:
	.loc 1 2091 9
	.loc 1 2092 13
	.loc 1 2092 18
	.loc 1 2092 30 is_stmt 0
	lw	a1,4(s2)
	mv	a3,s6
	mv	a2,s5
	slli	a1,a1,2
	addi	a0,sp,40
	call	mbedtls_mpi_fill_random
.LVL1137:
	mv	s0,a0
.LVL1138:
	.loc 1 2092 20
	bne	a0,zero,.L531
	.loc 1 2094 13 is_stmt 1
	.loc 1 2094 17 is_stmt 0
	addi	a0,sp,40
	call	mbedtls_mpi_bitlen
.LVL1139:
	mv	s0,a0
.LVL1140:
	.loc 1 2095 13 is_stmt 1
	.loc 1 2095 17 is_stmt 0
	addi	a0,sp,4
	call	mbedtls_mpi_bitlen
.LVL1141:
	.loc 1 2096 13 is_stmt 1
	.loc 1 2096 16 is_stmt 0
	bgtu	s0,a0,.L536
.LVL1142:
.L539:
	.loc 1 2100 13 is_stmt 1
	addi	s4,s4,-1
.LVL1143:
	.loc 1 2100 16 is_stmt 0
	bne	s4,zero,.L571
	.loc 1 2101 24
	li	s0,-14
	j	.L530
.LVL1144:
.L533:
	.loc 1 2085 13 is_stmt 1
	.loc 1 2085 17 is_stmt 0
	addi	a0,sp,40
	call	mbedtls_mpi_bitlen
.LVL1145:
	mv	s0,a0
.LVL1146:
	.loc 1 2085 44
	addi	a0,sp,4
	call	mbedtls_mpi_bitlen
.LVL1147:
	.loc 1 2086 13 is_stmt 1
	.loc 1 2086 18
	.loc 1 2086 30 is_stmt 0
	addi	a1,s0,1
	sub	a1,a1,a0
	addi	a0,sp,40
.LVL1148:
	call	mbedtls_mpi_shift_r
.LVL1149:
	mv	s0,a0
.LVL1150:
	.loc 1 2086 20
	beq	a0,zero,.L535
.LVL1151:
.L531:
	.loc 1 2143 5 is_stmt 1
	addi	a0,sp,4
	call	mbedtls_mpi_free
.LVL1152:
	.loc 1 2143 29
	addi	a0,sp,16
	call	mbedtls_mpi_free
.LVL1153:
	.loc 1 2143 53
	addi	a0,sp,28
	call	mbedtls_mpi_free
.LVL1154:
	.loc 1 2143 77
	addi	a0,sp,40
	call	mbedtls_mpi_free
.LVL1155:
	.loc 1 2144 5
	addi	a0,sp,52
	call	mbedtls_mpi_free
.LVL1156:
	.loc 1 2146 5
.L530:
	.loc 1 2147 1 is_stmt 0
	mv	a0,s0
	lw	ra,108(sp)
	.cfi_remember_state
	.cfi_restore 1
	lw	s0,104(sp)
	.cfi_restore 8
	lw	s1,100(sp)
	.cfi_restore 9
	lw	s2,96(sp)
	.cfi_restore 18
.LVL1157:
	lw	s3,92(sp)
	.cfi_restore 19
	lw	s4,88(sp)
	.cfi_restore 20
	lw	s5,84(sp)
	.cfi_restore 21
.LVL1158:
	lw	s6,80(sp)
	.cfi_restore 22
.LVL1159:
	lw	s7,76(sp)
	.cfi_restore 23
	addi	sp,sp,112
	.cfi_def_cfa_offset 0
	jr	ra
.LVL1160:
.L536:
	.cfi_restore_state
	.loc 1 2097 17 is_stmt 1
	.loc 1 2097 22
	.loc 1 2097 34 is_stmt 0
	sub	a1,s0,a0
	addi	a0,sp,40
.LVL1161:
	call	mbedtls_mpi_shift_r
.LVL1162:
	mv	s0,a0
.LVL1163:
	.loc 1 2097 24
	beq	a0,zero,.L539
	j	.L531
.LVL1164:
.L571:
	.loc 1 2104 19
	addi	a1,sp,4
	addi	a0,sp,40
	call	mbedtls_mpi_cmp_mpi
.LVL1165:
	.loc 1 2105 19
	bge	a0,zero,.L534
	.loc 1 2105 19 discriminator 1
	li	a1,1
	addi	a0,sp,40
	call	mbedtls_mpi_cmp_int
.LVL1166:
	.loc 1 2104 54 discriminator 1
	ble	a0,zero,.L534
	.loc 1 2110 9 is_stmt 1
	.loc 1 2110 14
	.loc 1 2110 26 is_stmt 0
	addi	a1,sp,40
	addi	a4,sp,52
	mv	a3,s2
	addi	a2,sp,16
	mv	a0,a1
	call	mbedtls_mpi_exp_mod
.LVL1167:
	mv	s0,a0
.LVL1168:
	.loc 1 2110 16
	bne	a0,zero,.L531
	.loc 1 2112 9 is_stmt 1
	.loc 1 2112 13 is_stmt 0
	addi	a1,sp,4
	addi	a0,sp,40
	call	mbedtls_mpi_cmp_mpi
.LVL1169:
	.loc 1 2112 11
	bne	a0,zero,.L541
.LVL1170:
.L543:
	.loc 1 2076 25
	addi	s3,s3,1
.LVL1171:
	.loc 1 2076 5
	bne	s1,s3,.L542
	j	.L531
.LVL1172:
.L541:
	.loc 1 2113 13 discriminator 1
	li	a1,1
	addi	a0,sp,40
	call	mbedtls_mpi_cmp_int
.LVL1173:
	.loc 1 2116 11 discriminator 1
	li	s4,1
.LVL1174:
	.loc 1 2112 48 discriminator 1
	beq	a0,zero,.L543
.LVL1175:
.L544:
	addi	a1,sp,4
	addi	a0,sp,40
	call	mbedtls_mpi_cmp_mpi
.LVL1176:
	.loc 1 2117 14
	bgeu	s4,s7,.L545
	.loc 1 2117 22 discriminator 1
	bne	a0,zero,.L546
.L548:
	.loc 1 2135 13
	li	a1,1
	addi	a0,sp,40
	call	mbedtls_mpi_cmp_int
.LVL1177:
	.loc 1 2134 48
	bne	a0,zero,.L543
.L547:
	.loc 1 2137 17
	li	s0,-14
	j	.L531
.L546:
	.loc 1 2122 13 is_stmt 1
	.loc 1 2122 18
	.loc 1 2122 30 is_stmt 0
	addi	a2,sp,40
	mv	a1,a2
	addi	a0,sp,28
	call	mbedtls_mpi_mul_mpi
.LVL1178:
	.loc 1 2122 20
	bne	a0,zero,.L557
	.loc 1 2123 13 is_stmt 1
	.loc 1 2123 18
	.loc 1 2123 30 is_stmt 0
	mv	a2,s2
	addi	a1,sp,28
	addi	a0,sp,40
.LVL1179:
	call	mbedtls_mpi_mod_mpi
.LVL1180:
	.loc 1 2123 20
	bne	a0,zero,.L557
	.loc 1 2125 13 is_stmt 1
	.loc 1 2125 17 is_stmt 0
	li	a1,1
	addi	a0,sp,40
.LVL1181:
	call	mbedtls_mpi_cmp_int
.LVL1182:
	.loc 1 2125 15
	beq	a0,zero,.L545
	.loc 1 2128 13 is_stmt 1
	.loc 1 2128 14 is_stmt 0
	addi	s4,s4,1
.LVL1183:
	j	.L544
.L545:
.LVL1184:
	.loc 1 2134 9 is_stmt 1
	.loc 1 2134 13 is_stmt 0
	addi	a1,sp,4
	addi	a0,sp,40
	call	mbedtls_mpi_cmp_mpi
.LVL1185:
	.loc 1 2134 11
	beq	a0,zero,.L548
	j	.L547
.LVL1186:
.L557:
	mv	s0,a0
	j	.L531
	.cfi_endproc
.LFE55:
	.size	mpi_miller_rabin, .-mpi_miller_rabin
	.section	.text.mbedtls_mpi_inv_mod,"ax",@progbits
	.align	1
	.globl	mbedtls_mpi_inv_mod
	.type	mbedtls_mpi_inv_mod, @function
mbedtls_mpi_inv_mod:
.LFB53:
	.loc 1 1894 1 is_stmt 1
	.cfi_startproc
.LVL1187:
	.loc 1 1895 5
	.loc 1 1896 5
	.loc 1 1898 5
	.loc 1 1894 1 is_stmt 0
	addi	sp,sp,-144
	.cfi_def_cfa_offset 144
	sw	s2,128(sp)
	sw	s3,124(sp)
	.cfi_offset 18, -16
	.cfi_offset 19, -20
	mv	s2,a0
	mv	s3,a1
	.loc 1 1898 9
	mv	a0,a2
.LVL1188:
	li	a1,0
.LVL1189:
	.loc 1 1894 1
	sw	s0,136(sp)
	sw	s1,132(sp)
	sw	ra,140(sp)
	.cfi_offset 8, -8
	.cfi_offset 9, -12
	.cfi_offset 1, -4
	.loc 1 1894 1
	mv	s1,a2
	.loc 1 1898 9
	call	mbedtls_mpi_cmp_int
.LVL1190:
	.loc 1 1899 15
	li	s0,-4
	.loc 1 1898 7
	ble	a0,zero,.L573
	.loc 1 1901 5 is_stmt 1
.LVL1191:
.LBB212:
.LBB213:
	.loc 1 84 5
	.loc 1 87 5
	.loc 1 87 10 is_stmt 0
	li	a5,1
.LBE213:
.LBE212:
	.loc 1 1905 22
	mv	a2,s1
	mv	a1,s3
	addi	a0,sp,4
.LBB215:
.LBB214:
	.loc 1 87 10
	sw	a5,16(sp)
	.loc 1 88 5 is_stmt 1
	.loc 1 88 10 is_stmt 0
	sw	zero,20(sp)
	.loc 1 89 5 is_stmt 1
	.loc 1 89 10 is_stmt 0
	sw	zero,24(sp)
.LVL1192:
.LBE214:
.LBE215:
	.loc 1 1901 30 is_stmt 1
.LBB216:
.LBB217:
	.loc 1 84 5
	.loc 1 87 5
	.loc 1 87 10 is_stmt 0
	sw	a5,28(sp)
	.loc 1 88 5 is_stmt 1
	.loc 1 88 10 is_stmt 0
	sw	zero,32(sp)
	.loc 1 89 5 is_stmt 1
	.loc 1 89 10 is_stmt 0
	sw	zero,36(sp)
.LVL1193:
.LBE217:
.LBE216:
	.loc 1 1901 55 is_stmt 1
.LBB218:
.LBB219:
	.loc 1 84 5
	.loc 1 87 5
	.loc 1 87 10 is_stmt 0
	sw	a5,40(sp)
	.loc 1 88 5 is_stmt 1
	.loc 1 88 10 is_stmt 0
	sw	zero,44(sp)
	.loc 1 89 5 is_stmt 1
	.loc 1 89 10 is_stmt 0
	sw	zero,48(sp)
.LVL1194:
.LBE219:
.LBE218:
	.loc 1 1901 80 is_stmt 1
.LBB220:
.LBB221:
	.loc 1 84 5
	.loc 1 87 5
	.loc 1 87 10 is_stmt 0
	sw	a5,52(sp)
	.loc 1 88 5 is_stmt 1
	.loc 1 88 10 is_stmt 0
	sw	zero,56(sp)
	.loc 1 89 5 is_stmt 1
	.loc 1 89 10 is_stmt 0
	sw	zero,60(sp)
.LVL1195:
.LBE221:
.LBE220:
	.loc 1 1902 5 is_stmt 1
.LBB222:
.LBB223:
	.loc 1 84 5
	.loc 1 87 5
	.loc 1 87 10 is_stmt 0
	sw	a5,4(sp)
	.loc 1 88 5 is_stmt 1
	.loc 1 88 10 is_stmt 0
	sw	zero,8(sp)
	.loc 1 89 5 is_stmt 1
	.loc 1 89 10 is_stmt 0
	sw	zero,12(sp)
.LVL1196:
.LBE223:
.LBE222:
	.loc 1 1902 29 is_stmt 1
.LBB224:
.LBB225:
	.loc 1 84 5
	.loc 1 87 5
	.loc 1 87 10 is_stmt 0
	sw	a5,64(sp)
	.loc 1 88 5 is_stmt 1
	.loc 1 88 10 is_stmt 0
	sw	zero,68(sp)
	.loc 1 89 5 is_stmt 1
	.loc 1 89 10 is_stmt 0
	sw	zero,72(sp)
.LVL1197:
.LBE225:
.LBE224:
	.loc 1 1902 54 is_stmt 1
.LBB226:
.LBB227:
	.loc 1 84 5
	.loc 1 87 5
	.loc 1 87 10 is_stmt 0
	sw	a5,76(sp)
	.loc 1 88 5 is_stmt 1
	.loc 1 88 10 is_stmt 0
	sw	zero,80(sp)
	.loc 1 89 5 is_stmt 1
	.loc 1 89 10 is_stmt 0
	sw	zero,84(sp)
.LVL1198:
.LBE227:
.LBE226:
	.loc 1 1903 5 is_stmt 1
.LBB228:
.LBB229:
	.loc 1 84 5
	.loc 1 87 5
	.loc 1 87 10 is_stmt 0
	sw	a5,88(sp)
	.loc 1 88 5 is_stmt 1
	.loc 1 88 10 is_stmt 0
	sw	zero,92(sp)
	.loc 1 89 5 is_stmt 1
	.loc 1 89 10 is_stmt 0
	sw	zero,96(sp)
.LVL1199:
.LBE229:
.LBE228:
	.loc 1 1903 30 is_stmt 1
.LBB230:
.LBB231:
	.loc 1 84 5
	.loc 1 87 5
	.loc 1 87 10 is_stmt 0
	sw	a5,100(sp)
	.loc 1 88 5 is_stmt 1
	.loc 1 88 10 is_stmt 0
	sw	zero,104(sp)
	.loc 1 89 5 is_stmt 1
	.loc 1 89 10 is_stmt 0
	sw	zero,108(sp)
.LVL1200:
.LBE231:
.LBE230:
	.loc 1 1905 5 is_stmt 1
	.loc 1 1905 10
	.loc 1 1905 22 is_stmt 0
	call	mbedtls_mpi_gcd
.LVL1201:
	mv	s0,a0
.LVL1202:
	.loc 1 1905 12
	bne	a0,zero,.L575
	.loc 1 1907 5 is_stmt 1
	.loc 1 1907 9 is_stmt 0
	li	a1,1
	addi	a0,sp,4
	call	mbedtls_mpi_cmp_int
.LVL1203:
	.loc 1 1909 13
	li	s0,-14
.LVL1204:
	.loc 1 1907 7
	bne	a0,zero,.L575
	.loc 1 1913 5 is_stmt 1
	.loc 1 1913 10
	.loc 1 1913 22 is_stmt 0
	mv	a2,s1
	mv	a1,s3
	addi	a0,sp,16
	call	mbedtls_mpi_mod_mpi
.LVL1205:
	mv	s0,a0
.LVL1206:
	.loc 1 1913 12
	bne	a0,zero,.L575
	.loc 1 1914 5 is_stmt 1
	.loc 1 1914 10
	.loc 1 1914 22 is_stmt 0
	addi	a1,sp,16
	addi	a0,sp,28
	call	mbedtls_mpi_copy
.LVL1207:
	mv	s0,a0
.LVL1208:
	.loc 1 1914 12
	bne	a0,zero,.L575
	.loc 1 1915 5 is_stmt 1
	.loc 1 1915 10
	.loc 1 1915 22 is_stmt 0
	mv	a1,s1
	addi	a0,sp,64
	call	mbedtls_mpi_copy
.LVL1209:
	mv	s0,a0
.LVL1210:
	.loc 1 1915 12
	bne	a0,zero,.L575
	.loc 1 1916 5 is_stmt 1
	.loc 1 1916 10
	.loc 1 1916 22 is_stmt 0
	mv	a1,s1
	addi	a0,sp,76
	call	mbedtls_mpi_copy
.LVL1211:
	mv	s0,a0
.LVL1212:
	.loc 1 1916 12
	bne	a0,zero,.L575
	.loc 1 1918 5 is_stmt 1
	.loc 1 1918 10
	.loc 1 1918 22 is_stmt 0
	li	a1,1
	addi	a0,sp,40
	call	mbedtls_mpi_lset
.LVL1213:
	mv	s0,a0
.LVL1214:
	.loc 1 1918 12
	bne	a0,zero,.L575
	.loc 1 1919 5 is_stmt 1
	.loc 1 1919 10
	.loc 1 1919 22 is_stmt 0
	li	a1,0
	addi	a0,sp,52
	call	mbedtls_mpi_lset
.LVL1215:
	mv	s0,a0
.LVL1216:
	.loc 1 1919 12
	bne	a0,zero,.L575
	.loc 1 1920 5 is_stmt 1
	.loc 1 1920 10
	.loc 1 1920 22 is_stmt 0
	li	a1,0
	addi	a0,sp,88
	call	mbedtls_mpi_lset
.LVL1217:
	mv	s0,a0
.LVL1218:
	.loc 1 1920 12
	bne	a0,zero,.L575
	.loc 1 1921 5 is_stmt 1
	.loc 1 1921 10
	.loc 1 1921 22 is_stmt 0
	li	a1,1
	addi	a0,sp,100
	call	mbedtls_mpi_lset
.LVL1219:
.L598:
	.loc 1 1936 30
	mv	s0,a0
.LVL1220:
	.loc 1 1936 20
	bne	a0,zero,.L575
.L576:
	.loc 1 1925 22
	lw	a5,36(sp)
	.loc 1 1925 26
	lw	a5,0(a5)
	andi	a5,a5,1
	.loc 1 1925 14
	beq	a5,zero,.L580
.L581:
	.loc 1 1939 22
	lw	a5,84(sp)
	.loc 1 1939 26
	lw	a5,0(a5)
	andi	a5,a5,1
	.loc 1 1939 14
	beq	a5,zero,.L585
	.loc 1 1953 9 is_stmt 1
	.loc 1 1953 13 is_stmt 0
	addi	a1,sp,76
	addi	a0,sp,28
	call	mbedtls_mpi_cmp_mpi
.LVL1221:
	.loc 1 1953 11
	blt	a0,zero,.L586
	.loc 1 1955 13 is_stmt 1
	.loc 1 1955 18
	.loc 1 1955 30 is_stmt 0
	addi	a1,sp,28
	addi	a2,sp,76
	mv	a0,a1
	call	mbedtls_mpi_sub_mpi
.LVL1222:
	mv	s0,a0
.LVL1223:
	.loc 1 1955 20
	bne	a0,zero,.L575
	.loc 1 1956 13 is_stmt 1
	.loc 1 1956 18
	.loc 1 1956 30 is_stmt 0
	addi	a1,sp,40
	addi	a2,sp,88
	mv	a0,a1
	call	mbedtls_mpi_sub_mpi
.LVL1224:
	mv	s0,a0
.LVL1225:
	.loc 1 1956 20
	bne	a0,zero,.L575
	.loc 1 1957 13 is_stmt 1
	.loc 1 1957 18
	.loc 1 1957 30 is_stmt 0
	addi	a2,sp,100
	addi	a1,sp,52
.L599:
	mv	a0,a1
	call	mbedtls_mpi_sub_mpi
.LVL1226:
	mv	s0,a0
.LVL1227:
	.loc 1 1957 20
	bne	a0,zero,.L575
	.loc 1 1966 12
	li	a1,0
	addi	a0,sp,28
	call	mbedtls_mpi_cmp_int
.LVL1228:
	.loc 1 1966 5
	bne	a0,zero,.L576
.L588:
	.loc 1 1968 12
	li	a1,0
	addi	a0,sp,88
	call	mbedtls_mpi_cmp_int
.LVL1229:
	.loc 1 1968 10
	blt	a0,zero,.L590
.L591:
	.loc 1 1971 12
	mv	a1,s1
	addi	a0,sp,88
	call	mbedtls_mpi_cmp_mpi
.LVL1230:
	.loc 1 1971 10
	bge	a0,zero,.L592
	.loc 1 1974 5 is_stmt 1
	.loc 1 1974 10
	.loc 1 1974 22 is_stmt 0
	addi	a1,sp,88
	mv	a0,s2
	call	mbedtls_mpi_copy
.LVL1231:
	mv	s0,a0
.LVL1232:
	.loc 1 1976 1
	j	.L575
.L580:
	.loc 1 1927 13 is_stmt 1
	.loc 1 1927 18
	.loc 1 1927 30 is_stmt 0
	li	a1,1
	addi	a0,sp,28
	call	mbedtls_mpi_shift_r
.LVL1233:
	mv	s0,a0
.LVL1234:
	.loc 1 1927 20
	bne	a0,zero,.L575
	.loc 1 1929 13 is_stmt 1
	.loc 1 1929 23 is_stmt 0
	lw	a5,48(sp)
	.loc 1 1929 27
	lw	a5,0(a5)
	andi	a5,a5,1
	.loc 1 1929 15
	bne	a5,zero,.L577
	.loc 1 1929 47 discriminator 1
	lw	a5,60(sp)
	.loc 1 1929 51 discriminator 1
	lw	a5,0(a5)
	andi	a5,a5,1
	.loc 1 1929 38 discriminator 1
	bne	a5,zero,.L577
.L579:
	.loc 1 1935 13 is_stmt 1
	.loc 1 1935 18
	.loc 1 1935 30 is_stmt 0
	li	a1,1
	addi	a0,sp,40
	call	mbedtls_mpi_shift_r
.LVL1235:
	mv	s0,a0
.LVL1236:
	.loc 1 1935 20
	beq	a0,zero,.L595
.LVL1237:
.L575:
	.loc 1 1978 5 is_stmt 1
	addi	a0,sp,16
	call	mbedtls_mpi_free
.LVL1238:
	.loc 1 1978 30
	addi	a0,sp,28
	call	mbedtls_mpi_free
.LVL1239:
	.loc 1 1978 55
	addi	a0,sp,40
	call	mbedtls_mpi_free
.LVL1240:
	.loc 1 1978 80
	addi	a0,sp,52
	call	mbedtls_mpi_free
.LVL1241:
	.loc 1 1979 5
	addi	a0,sp,4
	call	mbedtls_mpi_free
.LVL1242:
	.loc 1 1979 29
	addi	a0,sp,64
	call	mbedtls_mpi_free
.LVL1243:
	.loc 1 1979 54
	addi	a0,sp,76
	call	mbedtls_mpi_free
.LVL1244:
	.loc 1 1980 5
	addi	a0,sp,88
	call	mbedtls_mpi_free
.LVL1245:
	.loc 1 1980 30
	addi	a0,sp,100
	call	mbedtls_mpi_free
.LVL1246:
	.loc 1 1982 5
.L573:
	.loc 1 1983 1 is_stmt 0
	mv	a0,s0
	lw	ra,140(sp)
	.cfi_remember_state
	.cfi_restore 1
	lw	s0,136(sp)
	.cfi_restore 8
	lw	s1,132(sp)
	.cfi_restore 9
.LVL1247:
	lw	s2,128(sp)
	.cfi_restore 18
.LVL1248:
	lw	s3,124(sp)
	.cfi_restore 19
.LVL1249:
	addi	sp,sp,144
	.cfi_def_cfa_offset 0
	jr	ra
.LVL1250:
.L577:
	.cfi_restore_state
	.loc 1 1931 17 is_stmt 1
	.loc 1 1931 22
	.loc 1 1931 34 is_stmt 0
	addi	a1,sp,40
	addi	a2,sp,64
	mv	a0,a1
	call	mbedtls_mpi_add_mpi
.LVL1251:
	mv	s0,a0
.LVL1252:
	.loc 1 1931 24
	bne	a0,zero,.L575
	.loc 1 1932 17 is_stmt 1
	.loc 1 1932 22
	.loc 1 1932 34 is_stmt 0
	addi	a1,sp,52
	addi	a2,sp,16
	mv	a0,a1
	call	mbedtls_mpi_sub_mpi
.LVL1253:
	mv	s0,a0
.LVL1254:
	.loc 1 1932 24
	beq	a0,zero,.L579
	j	.L575
.L595:
	.loc 1 1936 13 is_stmt 1
	.loc 1 1936 18
	.loc 1 1936 30 is_stmt 0
	li	a1,1
	addi	a0,sp,52
	call	mbedtls_mpi_shift_r
.LVL1255:
	j	.L598
.L585:
	.loc 1 1941 13 is_stmt 1
	.loc 1 1941 18
	.loc 1 1941 30 is_stmt 0
	li	a1,1
	addi	a0,sp,76
	call	mbedtls_mpi_shift_r
.LVL1256:
	mv	s0,a0
.LVL1257:
	.loc 1 1941 20
	bne	a0,zero,.L575
	.loc 1 1943 13 is_stmt 1
	.loc 1 1943 23 is_stmt 0
	lw	a5,96(sp)
	.loc 1 1943 27
	lw	a5,0(a5)
	andi	a5,a5,1
	.loc 1 1943 15
	bne	a5,zero,.L582
	.loc 1 1943 47 discriminator 1
	lw	a5,108(sp)
	.loc 1 1943 51 discriminator 1
	lw	a5,0(a5)
	andi	a5,a5,1
	.loc 1 1943 38 discriminator 1
	bne	a5,zero,.L582
.L584:
	.loc 1 1949 13 is_stmt 1
	.loc 1 1949 18
	.loc 1 1949 30 is_stmt 0
	li	a1,1
	addi	a0,sp,88
	call	mbedtls_mpi_shift_r
.LVL1258:
	mv	s0,a0
.LVL1259:
	.loc 1 1949 20
	bne	a0,zero,.L575
	.loc 1 1950 13 is_stmt 1
	.loc 1 1950 18
	.loc 1 1950 30 is_stmt 0
	li	a1,1
	addi	a0,sp,100
	call	mbedtls_mpi_shift_r
.LVL1260:
	mv	s0,a0
.LVL1261:
	.loc 1 1950 20
	beq	a0,zero,.L581
	j	.L575
.L582:
	.loc 1 1945 17 is_stmt 1
	.loc 1 1945 22
	.loc 1 1945 34 is_stmt 0
	addi	a1,sp,88
	addi	a2,sp,64
	mv	a0,a1
	call	mbedtls_mpi_add_mpi
.LVL1262:
	mv	s0,a0
.LVL1263:
	.loc 1 1945 24
	bne	a0,zero,.L575
	.loc 1 1946 17 is_stmt 1
	.loc 1 1946 22
	.loc 1 1946 34 is_stmt 0
	addi	a1,sp,100
	addi	a2,sp,16
	mv	a0,a1
	call	mbedtls_mpi_sub_mpi
.LVL1264:
	mv	s0,a0
.LVL1265:
	.loc 1 1946 24
	beq	a0,zero,.L584
	j	.L575
.L586:
	.loc 1 1961 13 is_stmt 1
	.loc 1 1961 18
	.loc 1 1961 30 is_stmt 0
	addi	a1,sp,76
	addi	a2,sp,28
	mv	a0,a1
	call	mbedtls_mpi_sub_mpi
.LVL1266:
	mv	s0,a0
.LVL1267:
	.loc 1 1961 20
	bne	a0,zero,.L575
	.loc 1 1962 13 is_stmt 1
	.loc 1 1962 18
	.loc 1 1962 30 is_stmt 0
	addi	a1,sp,88
	addi	a2,sp,40
	mv	a0,a1
	call	mbedtls_mpi_sub_mpi
.LVL1268:
	mv	s0,a0
.LVL1269:
	.loc 1 1962 20
	bne	a0,zero,.L575
	.loc 1 1963 13 is_stmt 1
	.loc 1 1963 18
	.loc 1 1963 30 is_stmt 0
	addi	a2,sp,52
	addi	a1,sp,100
	j	.L599
.L590:
	.loc 1 1969 9 is_stmt 1
	.loc 1 1969 14
	.loc 1 1969 26 is_stmt 0
	addi	a1,sp,88
	mv	a2,s1
	mv	a0,a1
	call	mbedtls_mpi_add_mpi
.LVL1270:
	mv	s0,a0
.LVL1271:
	.loc 1 1969 16
	beq	a0,zero,.L588
	j	.L575
.L592:
	.loc 1 1972 9 is_stmt 1
	.loc 1 1972 14
	.loc 1 1972 26 is_stmt 0
	addi	a1,sp,88
	mv	a2,s1
	mv	a0,a1
	call	mbedtls_mpi_sub_mpi
.LVL1272:
	mv	s0,a0
.LVL1273:
	.loc 1 1972 16
	beq	a0,zero,.L591
	j	.L575
	.cfi_endproc
.LFE53:
	.size	mbedtls_mpi_inv_mod, .-mbedtls_mpi_inv_mod
	.section	.text.mbedtls_mpi_is_prime,"ax",@progbits
	.align	1
	.globl	mbedtls_mpi_is_prime
	.type	mbedtls_mpi_is_prime, @function
mbedtls_mpi_is_prime:
.LFB56:
	.loc 1 2155 1 is_stmt 1
	.cfi_startproc
.LVL1274:
	.loc 1 2156 5
	.loc 1 2157 5
	.loc 1 2159 5
	.loc 1 2155 1 is_stmt 0
	addi	sp,sp,-32
	.cfi_def_cfa_offset 32
	sw	s0,24(sp)
	sw	s1,20(sp)
	sw	s2,16(sp)
	sw	ra,28(sp)
	.cfi_offset 8, -8
	.cfi_offset 9, -12
	.cfi_offset 18, -16
	.cfi_offset 1, -4
	.loc 1 2160 10
	lw	a5,4(a0)
	.loc 1 2155 1
	mv	s1,a1
	.loc 1 2159 10
	li	s0,1
	.loc 1 2160 10
	sw	a5,8(sp)
	.loc 1 2161 10
	lw	a5,8(a0)
	.loc 1 2163 9
	li	a1,0
.LVL1275:
	addi	a0,sp,4
.LVL1276:
	.loc 1 2161 10
	sw	a5,12(sp)
	.loc 1 2155 1
	mv	s2,a2
	.loc 1 2159 10
	sw	s0,4(sp)
	.loc 1 2160 5 is_stmt 1
	.loc 1 2161 5
	.loc 1 2163 5
	.loc 1 2163 9 is_stmt 0
	call	mbedtls_mpi_cmp_int
.LVL1277:
	.loc 1 2165 15
	li	a5,-14
	.loc 1 2163 7
	beq	a0,zero,.L600
	.loc 1 2164 9 discriminator 1
	li	a1,1
	addi	a0,sp,4
	call	mbedtls_mpi_cmp_int
.LVL1278:
	.loc 1 2165 15 discriminator 1
	li	a5,-14
	.loc 1 2163 44 discriminator 1
	beq	a0,zero,.L600
	.loc 1 2167 5 is_stmt 1
	.loc 1 2167 9 is_stmt 0
	li	a1,2
	addi	a0,sp,4
	call	mbedtls_mpi_cmp_int
.LVL1279:
	.loc 1 2167 7
	beq	a0,zero,.L602
	.loc 1 2170 5 is_stmt 1
	.loc 1 2170 17 is_stmt 0
	addi	a0,sp,4
	call	mpi_check_small_factors
.LVL1280:
	mv	a5,a0
.LVL1281:
	.loc 1 2170 7
	beq	a0,zero,.L603
	.loc 1 2172 9 is_stmt 1
	.loc 1 2172 11 is_stmt 0
	bne	a0,s0,.L600
.LVL1282:
.L602:
	.loc 1 2173 19
	li	a5,0
.L600:
	.loc 1 2179 1
	lw	ra,28(sp)
	.cfi_remember_state
	.cfi_restore 1
	lw	s0,24(sp)
	.cfi_restore 8
	lw	s1,20(sp)
	.cfi_restore 9
.LVL1283:
	lw	s2,16(sp)
	.cfi_restore 18
.LVL1284:
	mv	a0,a5
	addi	sp,sp,32
	.cfi_def_cfa_offset 0
	jr	ra
.LVL1285:
.L603:
	.cfi_restore_state
	.loc 1 2178 5 is_stmt 1
	.loc 1 2178 13 is_stmt 0
	mv	a2,s2
	mv	a1,s1
	addi	a0,sp,4
.LVL1286:
	call	mpi_miller_rabin
.LVL1287:
	mv	a5,a0
	j	.L600
	.cfi_endproc
.LFE56:
	.size	mbedtls_mpi_is_prime, .-mbedtls_mpi_is_prime
	.section	.text.mbedtls_mpi_gen_prime,"ax",@progbits
	.align	1
	.globl	mbedtls_mpi_gen_prime
	.type	mbedtls_mpi_gen_prime, @function
mbedtls_mpi_gen_prime:
.LFB57:
	.loc 1 2187 1 is_stmt 1
	.cfi_startproc
.LVL1288:
	.loc 1 2188 5
	.loc 1 2189 5
	.loc 1 2190 5
	.loc 1 2191 5
	.loc 1 2193 5
	.loc 1 2187 1 is_stmt 0
	addi	sp,sp,-48
	.cfi_def_cfa_offset 48
	.loc 1 2193 7
	li	a5,8192
	.loc 1 2187 1
	sw	s1,36(sp)
	sw	ra,44(sp)
	sw	s0,40(sp)
	sw	s2,32(sp)
	sw	s3,28(sp)
	sw	s4,24(sp)
	sw	s5,20(sp)
	sw	s6,16(sp)
	.cfi_offset 9, -12
	.cfi_offset 1, -4
	.cfi_offset 8, -8
	.cfi_offset 18, -16
	.cfi_offset 19, -20
	.cfi_offset 20, -24
	.cfi_offset 21, -28
	.cfi_offset 22, -32
	.loc 1 2193 19
	addi	a6,a1,-3
	.loc 1 2193 7
	addi	a5,a5,-3
	.loc 1 2194 15
	li	s1,-4
	.loc 1 2193 7
	bgtu	a6,a5,.L610
	mv	s2,a1
	.loc 1 2196 5 is_stmt 1
.LVL1289:
.LBB232:
.LBB233:
	.loc 1 84 5
	.loc 1 87 5
.LBE233:
.LBE232:
	.loc 1 2198 67 is_stmt 0
	andi	a1,a1,31
.LVL1290:
	.loc 1 2198 19
	srli	a5,s2,5
	.loc 1 2198 103
	snez	a1,a1
	mv	s3,a3
	.loc 1 2198 7
	add	a1,a1,a5
	mv	s6,a2
.LBB236:
.LBB234:
	.loc 1 87 10
	li	s5,1
.LBE234:
.LBE236:
	.loc 1 2200 22
	mv	a3,a4
.LVL1291:
	mv	a2,s3
.LVL1292:
	slli	a1,a1,2
	mv	s0,a0
	mv	s4,a4
.LBB237:
.LBB235:
	.loc 1 87 10
	sw	s5,4(sp)
	.loc 1 88 5 is_stmt 1
	.loc 1 88 10 is_stmt 0
	sw	zero,8(sp)
	.loc 1 89 5 is_stmt 1
	.loc 1 89 10 is_stmt 0
	sw	zero,12(sp)
.LVL1293:
.LBE235:
.LBE237:
	.loc 1 2198 5 is_stmt 1
	.loc 1 2200 5
	.loc 1 2200 10
	.loc 1 2200 22 is_stmt 0
	call	mbedtls_mpi_fill_random
.LVL1294:
	mv	s1,a0
.LVL1295:
	.loc 1 2200 12
	bne	a0,zero,.L612
	.loc 1 2202 5 is_stmt 1
	.loc 1 2202 9 is_stmt 0
	mv	a0,s0
	call	mbedtls_mpi_bitlen
.LVL1296:
	.loc 1 2203 5 is_stmt 1
	.loc 1 2203 7 is_stmt 0
	bltu	s2,a0,.L613
.LVL1297:
.L616:
	.loc 1 2205 5 is_stmt 1
	addi	a1,s2,-1
	li	a2,1
	mv	a0,s0
	call	mbedtls_mpi_set_bit
.LVL1298:
	.loc 1 2207 5
	.loc 1 2207 6 is_stmt 0
	lw	a4,8(s0)
	.loc 1 2213 15
	li	s2,-14
.LVL1299:
	.loc 1 2207 13
	lw	a5,0(a4)
	ori	a5,a5,1
	sw	a5,0(a4)
	.loc 1 2209 5 is_stmt 1
	.loc 1 2209 7 is_stmt 0
	beq	s6,zero,.L614
	.loc 1 2227 9 is_stmt 1
	.loc 1 2227 10 is_stmt 0
	lw	a4,8(s0)
.LBB238:
.LBB239:
	li	a2,3
	mv	a1,s0
.LBE239:
.LBE238:
	.loc 1 2227 17
	lw	a5,0(a4)
.LBB242:
.LBB240:
	mv	a0,sp
.LBE240:
.LBE242:
	ori	a5,a5,2
	sw	a5,0(a4)
	.loc 1 2229 9 is_stmt 1
	.loc 1 2229 14
.LVL1300:
.LBB243:
.LBB241:
	.loc 1 1480 5
	.loc 1 1481 5
	.loc 1 1483 5
	.loc 1 1486 5
	.loc 1 1492 5
	.loc 1 1498 5
	call	mbedtls_mpi_mod_int.part.4
.LVL1301:
.LBE241:
.LBE243:
	.loc 1 2229 16 is_stmt 0
	bne	a0,zero,.L634
	.loc 1 2230 9 is_stmt 1
	.loc 1 2230 15 is_stmt 0
	lw	a5,0(sp)
	.loc 1 2231 30
	li	a2,8
	.loc 1 2230 11
	beq	a5,zero,.L645
	.loc 1 2232 14 is_stmt 1
	.loc 1 2232 16 is_stmt 0
	li	a4,1
	bne	a5,a4,.L620
	.loc 1 2233 13 is_stmt 1
	.loc 1 2233 18
	.loc 1 2233 30 is_stmt 0
	li	a2,4
.L645:
	mv	a1,s0
	mv	a0,s0
.LVL1302:
	call	mbedtls_mpi_add_int
.LVL1303:
	.loc 1 2233 20
	bne	a0,zero,.L634
.L620:
	.loc 1 2236 9 is_stmt 1
	.loc 1 2236 14
	.loc 1 2236 26 is_stmt 0
	mv	a1,s0
	addi	a0,sp,4
.LVL1304:
	call	mbedtls_mpi_copy
.LVL1305:
	.loc 1 2236 16
	bne	a0,zero,.L634
	.loc 1 2237 9 is_stmt 1
	.loc 1 2237 14
	.loc 1 2237 26 is_stmt 0
	li	a1,1
	addi	a0,sp,4
.LVL1306:
	call	mbedtls_mpi_shift_r
.LVL1307:
	.loc 1 2237 16
	bne	a0,zero,.L634
	.loc 1 2253 15
	li	s2,-14
.L623:
	.loc 1 2239 9 is_stmt 1
	.loc 1 2245 13
	.loc 1 2245 25 is_stmt 0
	mv	a0,s0
.LVL1308:
	call	mpi_check_small_factors
.LVL1309:
	.loc 1 2245 15
	bne	a0,zero,.L621
	.loc 1 2246 25 discriminator 1
	addi	a0,sp,4
.LVL1310:
	call	mpi_check_small_factors
.LVL1311:
	.loc 1 2245 61 discriminator 1
	bne	a0,zero,.L621
	.loc 1 2247 25
	mv	a2,s4
	mv	a1,s3
	mv	a0,s0
.LVL1312:
	call	mpi_miller_rabin
.LVL1313:
	.loc 1 2246 62
	bne	a0,zero,.L621
	.loc 1 2248 25
	mv	a2,s4
	mv	a1,s3
	addi	a0,sp,4
.LVL1314:
	call	mpi_miller_rabin
.LVL1315:
	.loc 1 2247 68
	beq	a0,zero,.L612
.L621:
	.loc 1 2253 13 is_stmt 1
	.loc 1 2253 15 is_stmt 0
	bne	a0,s2,.L634
	.loc 1 2261 13 is_stmt 1
	.loc 1 2261 18
	.loc 1 2261 30 is_stmt 0
	li	a2,12
	mv	a1,s0
	mv	a0,s0
.LVL1316:
	call	mbedtls_mpi_add_int
.LVL1317:
	.loc 1 2261 20
	bne	a0,zero,.L634
	.loc 1 2262 13 is_stmt 1
	.loc 1 2262 18
	.loc 1 2262 30 is_stmt 0
	addi	a1,sp,4
	li	a2,6
	mv	a0,a1
.LVL1318:
	call	mbedtls_mpi_add_int
.LVL1319:
	.loc 1 2262 20
	beq	a0,zero,.L623
	j	.L634
.LVL1320:
.L613:
	.loc 1 2203 21 is_stmt 1 discriminator 1
	.loc 1 2203 26 discriminator 1
	.loc 1 2203 38 is_stmt 0 discriminator 1
	sub	s5,s5,s2
	add	a1,s5,a0
	mv	a0,s0
.LVL1321:
	call	mbedtls_mpi_shift_r
.LVL1322:
	.loc 1 2203 28 discriminator 1
	beq	a0,zero,.L616
.LVL1323:
.L634:
	mv	s1,a0
	j	.L612
.L617:
	.loc 1 2213 13 is_stmt 1
	.loc 1 2213 15 is_stmt 0
	bne	a0,s2,.L634
	.loc 1 2216 13 is_stmt 1
	.loc 1 2216 18
	.loc 1 2216 30 is_stmt 0
	li	a2,2
	mv	a1,s0
	mv	a0,s0
.LVL1324:
	call	mbedtls_mpi_add_int
.LVL1325:
	.loc 1 2216 20
	bne	a0,zero,.L634
.LVL1326:
.L614:
	.loc 1 2211 24
	mv	a2,s4
	mv	a1,s3
	mv	a0,s0
	call	mbedtls_mpi_is_prime
.LVL1327:
	.loc 1 2211 14
	bne	a0,zero,.L617
.L612:
.LVL1328:
	.loc 1 2268 5 is_stmt 1
	addi	a0,sp,4
	call	mbedtls_mpi_free
.LVL1329:
	.loc 1 2270 5
.L610:
	.loc 1 2271 1 is_stmt 0
	lw	ra,44(sp)
	.cfi_restore 1
	lw	s0,40(sp)
	.cfi_restore 8
	mv	a0,s1
	lw	s2,32(sp)
	.cfi_restore 18
	lw	s1,36(sp)
	.cfi_restore 9
	lw	s3,28(sp)
	.cfi_restore 19
	lw	s4,24(sp)
	.cfi_restore 20
	lw	s5,20(sp)
	.cfi_restore 21
	lw	s6,16(sp)
	.cfi_restore 22
	addi	sp,sp,48
	.cfi_def_cfa_offset 0
	jr	ra
	.cfi_endproc
.LFE57:
	.size	mbedtls_mpi_gen_prime, .-mbedtls_mpi_gen_prime
	.section	.rodata.mbedtls_mpi_write_string.str1.4,"aMS",@progbits,1
	.align	2
.LC0:
	.string	"0123456789ABCDEF"
	.section	.rodata.small_prime,"a"
	.align	2
	.set	.LANCHOR0,. + 0
	.type	small_prime, @object
	.size	small_prime, 672
small_prime:
	.word	3
	.word	5
	.word	7
	.word	11
	.word	13
	.word	17
	.word	19
	.word	23
	.word	29
	.word	31
	.word	37
	.word	41
	.word	43
	.word	47
	.word	53
	.word	59
	.word	61
	.word	67
	.word	71
	.word	73
	.word	79
	.word	83
	.word	89
	.word	97
	.word	101
	.word	103
	.word	107
	.word	109
	.word	113
	.word	127
	.word	131
	.word	137
	.word	139
	.word	149
	.word	151
	.word	157
	.word	163
	.word	167
	.word	173
	.word	179
	.word	181
	.word	191
	.word	193
	.word	197
	.word	199
	.word	211
	.word	223
	.word	227
	.word	229
	.word	233
	.word	239
	.word	241
	.word	251
	.word	257
	.word	263
	.word	269
	.word	271
	.word	277
	.word	281
	.word	283
	.word	293
	.word	307
	.word	311
	.word	313
	.word	317
	.word	331
	.word	337
	.word	347
	.word	349
	.word	353
	.word	359
	.word	367
	.word	373
	.word	379
	.word	383
	.word	389
	.word	397
	.word	401
	.word	409
	.word	419
	.word	421
	.word	431
	.word	433
	.word	439
	.word	443
	.word	449
	.word	457
	.word	461
	.word	463
	.word	467
	.word	479
	.word	487
	.word	491
	.word	499
	.word	503
	.word	509
	.word	521
	.word	523
	.word	541
	.word	547
	.word	557
	.word	563
	.word	569
	.word	571
	.word	577
	.word	587
	.word	593
	.word	599
	.word	601
	.word	607
	.word	613
	.word	617
	.word	619
	.word	631
	.word	641
	.word	643
	.word	647
	.word	653
	.word	659
	.word	661
	.word	673
	.word	677
	.word	683
	.word	691
	.word	701
	.word	709
	.word	719
	.word	727
	.word	733
	.word	739
	.word	743
	.word	751
	.word	757
	.word	761
	.word	769
	.word	773
	.word	787
	.word	797
	.word	809
	.word	811
	.word	821
	.word	823
	.word	827
	.word	829
	.word	839
	.word	853
	.word	857
	.word	859
	.word	863
	.word	877
	.word	881
	.word	883
	.word	887
	.word	907
	.word	911
	.word	919
	.word	929
	.word	937
	.word	941
	.word	947
	.word	953
	.word	967
	.word	971
	.word	977
	.word	983
	.word	991
	.word	997
	.word	-103
	.text
.Letext0:
	.file 2 "/b-l/bl_iot_sdk_new/toolchain/riscv/Linux/lib/gcc/riscv64-unknown-elf/8.3.0/include/stddef.h"
	.file 3 "/b-l/bl_iot_sdk_new/toolchain/riscv/Linux/lib/gcc/riscv64-unknown-elf/8.3.0/include/stdint-gcc.h"
	.file 4 "/b-l/bl_iot_sdk_new/toolchain/riscv/Linux/riscv64-unknown-elf/include/sys/_types.h"
	.file 5 "/b-l/bl_iot_sdk_new/toolchain/riscv/Linux/riscv64-unknown-elf/include/sys/reent.h"
	.file 6 "/b-l/bl_iot_sdk_new/toolchain/riscv/Linux/riscv64-unknown-elf/include/sys/lock.h"
	.file 7 "/b-l/bl_iot_sdk_new/components/security/mbedtls/include/mbedtls/bignum.h"
	.file 8 "/b-l/bl_iot_sdk_new/toolchain/riscv/Linux/riscv64-unknown-elf/include/stdlib.h"
	.file 9 "/b-l/bl_iot_sdk_new/toolchain/riscv/Linux/riscv64-unknown-elf/include/time.h"
	.file 10 "/b-l/bl_iot_sdk_new/components/bl602/freertos_riscv_ram/portable/GCC/RISC-V/portmacro.h"
	.file 11 "/b-l/bl_iot_sdk_new/toolchain/riscv/Linux/riscv64-unknown-elf/include/string.h"
	.file 12 "/b-l/bl_iot_sdk_new/components/security/mbedtls/include/mbedtls/mycalloc.h"
	.file 13 "/b-l/bl_iot_sdk_new/components/bl602/freertos_riscv_ram/config/portable.h"