	.file	"ssl_cli.c"
	.option nopic
	.attribute arch, "rv32i2p0_m2p0_f2p0_c2p0"
	.attribute unaligned_access, 0
	.attribute stack_align, 16
	.text
.Ltext0:
	.cfi_sections	.debug_frame
	.section	.text.mbedtls_ssl_own_key,"ax",@progbits
	.align	1
	.type	mbedtls_ssl_own_key, @function
mbedtls_ssl_own_key:
.LFB14:
	.file 1 "/b-l/bl_iot_sdk_new/components/security/mbedtls/include/mbedtls/ssl_internal.h"
	.loc 1 405 1
	.cfi_startproc
.LVL0:
	.loc 1 406 5
	.loc 1 408 5
	.loc 1 408 12 is_stmt 0
	lw	a5,48(a0)
	.loc 1 408 7
	beq	a5,zero,.L2
	.loc 1 408 48 discriminator 1
	lw	a5,8(a5)
	.loc 1 408 31 discriminator 1
	bne	a5,zero,.L3
.L2:
	.loc 1 411 9 is_stmt 1
	.loc 1 411 18 is_stmt 0
	lw	a5,0(a0)
	lw	a5,76(a5)
.LVL1:
	.loc 1 413 5 is_stmt 1
	.loc 1 413 36 is_stmt 0
	beq	a5,zero,.L1
.LVL2:
.L3:
	.loc 1 413 36 discriminator 1
	lw	a5,4(a5)
.LVL3:
.L1:
	.loc 1 414 1
	mv	a0,a5
.LVL4:
	ret
	.cfi_endproc
.LFE14:
	.size	mbedtls_ssl_own_key, .-mbedtls_ssl_own_key
	.section	.text.mbedtls_ssl_hs_hdr_len.isra.0,"ax",@progbits
	.align	1
	.type	mbedtls_ssl_hs_hdr_len.isra.0, @function
mbedtls_ssl_hs_hdr_len.isra.0:
.LFB42:
	.loc 1 459 22 is_stmt 1
	.cfi_startproc
	.loc 1 462 5
	.loc 1 462 30 is_stmt 0
	lhu	a5,116(a0)
	.loc 1 462 7
	andi	a5,a5,2
	beq	a5,zero,.L13
	.loc 1 463 15
	li	a0,12
	ret
.L13:
	.loc 1 467 11
	li	a0,4
	.loc 1 468 1
	ret
	.cfi_endproc
.LFE42:
	.size	mbedtls_ssl_hs_hdr_len.isra.0, .-mbedtls_ssl_hs_hdr_len.isra.0
	.section	.text.mbedtls_ssl_handshake_client_step,"ax",@progbits
	.align	1
	.globl	mbedtls_ssl_handshake_client_step
	.type	mbedtls_ssl_handshake_client_step, @function
mbedtls_ssl_handshake_client_step:
.LFB41:
	.file 2 "/b-l/bl_iot_sdk_new/components/security/mbedtls/src/ssl_cli.c"
	.loc 2 3273 1 is_stmt 1
	.cfi_startproc
.LVL5:
	.loc 2 3274 5
	.loc 2 3276 5
	.loc 2 3273 1 is_stmt 0
	addi	sp,sp,-160
	.cfi_def_cfa_offset 160
	sw	ra,156(sp)
	sw	s0,152(sp)
	sw	s1,148(sp)
	sw	s2,144(sp)
	sw	s3,140(sp)
	sw	s4,136(sp)
	sw	s5,132(sp)
	sw	s6,128(sp)
	sw	s7,124(sp)
	sw	s8,120(sp)
	sw	s9,116(sp)
	sw	s10,112(sp)
	sw	s11,108(sp)
	.cfi_offset 1, -4
	.cfi_offset 8, -8
	.cfi_offset 9, -12
	.cfi_offset 18, -16
	.cfi_offset 19, -20
	.cfi_offset 20, -24
	.cfi_offset 21, -28
	.cfi_offset 22, -32
	.cfi_offset 23, -36
	.cfi_offset 24, -40
	.cfi_offset 25, -44
	.cfi_offset 26, -48
	.cfi_offset 27, -52
	.loc 2 3276 12
	lw	a5,4(a0)
	.loc 2 3276 7
	li	a4,16
	beq	a5,a4,.L176
	.loc 2 3276 50 discriminator 1
	lw	a4,48(a0)
	mv	s11,a0
	beq	a4,zero,.L176
	.loc 2 3279 5 is_stmt 1
	lui	a4,%hi(.LC2)
	li	a3,4096
	lui	s1,%hi(.LC3)
	addi	a4,a4,%lo(.LC2)
	addi	a3,a3,-817
	addi	a2,s1,%lo(.LC3)
	li	a1,2
	call	mbedtls_debug_print_msg
.LVL6:
	.loc 2 3281 5
	.loc 2 3281 17 is_stmt 0
	mv	a0,s11
	call	mbedtls_ssl_flush_output
.LVL7:
	mv	s0,a0
.LVL8:
	.loc 2 3281 7
	bne	a0,zero,.L14
	.loc 2 3285 5 is_stmt 1
	.loc 2 3285 30 is_stmt 0
	lw	a5,0(s11)
	lhu	a5,116(a5)
	.loc 2 3285 7
	andi	a5,a5,2
	bne	a5,zero,.L16
.LVL9:
.L19:
	.loc 2 3296 5 is_stmt 1
	.loc 2 3296 7 is_stmt 0
	lw	a4,4(s11)
	li	a5,12
	bne	a4,a5,.L18
	.loc 2 3297 23 discriminator 1
	lw	a5,48(s11)
	.loc 2 3296 61 discriminator 1
	lw	a5,344(a5)
	beq	a5,zero,.L18
	.loc 2 3299 9 is_stmt 1
	.loc 2 3299 20 is_stmt 0
	li	a5,17
	sw	a5,4(s11)
.L18:
	.loc 2 3303 5 is_stmt 1
	.loc 2 3303 16 is_stmt 0
	lw	a5,4(s11)
	.loc 2 3303 5
	li	a4,17
	bgtu	a5,a4,.L20
	lui	a3,%hi(.L22)
	slli	a4,a5,2
	addi	a3,a3,%lo(.L22)
	add	a4,a4,a3
	lw	a4,0(a4)
	jr	a4
	.section	.rodata.mbedtls_ssl_handshake_client_step,"a",@progbits
	.align	2
	.align	2
.L22:
	.word	.L38
	.word	.L37
	.word	.L36
	.word	.L35
	.word	.L34
	.word	.L33
	.word	.L32
	.word	.L31
	.word	.L30
	.word	.L29
	.word	.L28
	.word	.L27
	.word	.L26
	.word	.L25
	.word	.L24
	.word	.L23
	.word	.L20
	.word	.L21
	.section	.text.mbedtls_ssl_handshake_client_step
.LVL10:
.L16:
	.loc 2 3286 23 discriminator 1
	lw	a5,48(s11)
	.loc 2 3285 35 discriminator 1
	lbu	a4,52(a5)
	li	a5,1
	bne	a4,a5,.L19
	.loc 2 3288 9 is_stmt 1
	.loc 2 3288 21 is_stmt 0
	mv	a0,s11
	call	mbedtls_ssl_resend
.LVL11:
	.loc 2 3288 11
	beq	a0,zero,.L19
.LVL12:
.L177:
	mv	s0,a0
	j	.L14
.LVL13:
.L38:
	.loc 2 3306 13 is_stmt 1
	.loc 2 3306 24 is_stmt 0
	li	a4,1
	sw	a4,4(s11)
	.loc 2 3307 13 is_stmt 1
	mv	s0,a5
.LVL14:
.L14:
	.loc 2 3404 1 is_stmt 0
	mv	a0,s0
	lw	ra,156(sp)
	.cfi_remember_state
	.cfi_restore 1
	lw	s0,152(sp)
	.cfi_restore 8
	lw	s1,148(sp)
	.cfi_restore 9
	lw	s2,144(sp)
	.cfi_restore 18
	lw	s3,140(sp)
	.cfi_restore 19
	lw	s4,136(sp)
	.cfi_restore 20
	lw	s5,132(sp)
	.cfi_restore 21
	lw	s6,128(sp)
	.cfi_restore 22
	lw	s7,124(sp)
	.cfi_restore 23
	lw	s8,120(sp)
	.cfi_restore 24
	lw	s9,116(sp)
	.cfi_restore 25
	lw	s10,112(sp)
	.cfi_restore 26
	lw	s11,108(sp)
	.cfi_restore 27
	addi	sp,sp,160
	.cfi_def_cfa_offset 0
	jr	ra
.LVL15:
.L37:
	.cfi_restore_state
	.loc 2 3313 12 is_stmt 1
.LBB48:
.LBB49:
	.loc 2 709 5
	.loc 2 710 5
	.loc 2 711 5
	.loc 2 712 5
	.loc 2 713 5
	.loc 2 714 5
	.loc 2 715 5
	.loc 2 717 5
	lui	a4,%hi(.LC4)
	addi	a4,a4,%lo(.LC4)
	li	a3,717
	addi	a2,s1,%lo(.LC3)
	li	a1,2
	mv	a0,s11
	call	mbedtls_debug_print_msg
.LVL16:
	.loc 2 719 5
	.loc 2 719 12 is_stmt 0
	lw	a5,0(s11)
	.loc 2 719 7
	lw	a4,24(a5)
	bne	a4,zero,.L39
	.loc 2 721 9 is_stmt 1
	lui	a4,%hi(.LC5)
	addi	a4,a4,%lo(.LC5)
	li	a3,721
	addi	a2,s1,%lo(.LC3)
	li	a1,1
	mv	a0,s11
	.loc 2 722 15 is_stmt 0
	li	s0,-28672
	.loc 2 721 9
	call	mbedtls_debug_print_msg
.LVL17:
	.loc 2 722 9 is_stmt 1
	.loc 2 722 15 is_stmt 0
	addi	s0,s0,-1024
	j	.L14
.L39:
	.loc 2 729 9 is_stmt 1
	.loc 2 729 35 is_stmt 0
	lbu	a4,114(a5)
	sw	a4,8(s11)
	.loc 2 730 9 is_stmt 1
	.loc 2 730 35 is_stmt 0
	lbu	a4,115(a5)
	sw	a4,12(s11)
	.loc 2 733 5 is_stmt 1
	.loc 2 733 18 is_stmt 0
	lbu	a0,112(a5)
	.loc 2 733 7
	bne	a0,zero,.L40
	.loc 2 735 9 is_stmt 1
	lui	a4,%hi(.LC6)
	addi	a4,a4,%lo(.LC6)
	li	a3,736
	addi	a2,s1,%lo(.LC3)
	li	a1,1
	mv	a0,s11
	call	mbedtls_debug_print_msg
.LVL18:
	.loc 2 737 9
.L176:
.LBE49:
.LBE48:
	.loc 2 3277 15 is_stmt 0
	li	s0,-28672
	addi	s0,s0,-256
	j	.L14
.LVL19:
.L40:
.LBB97:
.LBB96:
	.loc 2 747 5 is_stmt 1
	.loc 2 751 33 is_stmt 0
	lw	a2,116(a5)
	.loc 2 747 9
	lw	s5,160(s11)
.LVL20:
	.loc 2 748 5 is_stmt 1
	.loc 2 750 5
	lbu	a1,113(a5)
	.loc 2 751 33 is_stmt 0
	srli	a2,a2,1
	.loc 2 750 5
	addi	a3,s5,4
.LVL21:
	andi	a2,a2,1
	call	mbedtls_ssl_write_version
.LVL22:
	.loc 2 752 5 is_stmt 1
	.loc 2 754 5
	lbu	a5,4(s5)
	lbu	a6,5(s5)
	lui	a4,%hi(.LC7)
	addi	a4,a4,%lo(.LC7)
	li	a3,755
	addi	a2,s1,%lo(.LC3)
	li	a1,3
	mv	a0,s11
	call	mbedtls_debug_print_msg
.LVL23:
	.loc 2 757 5
.LBB50:
.LBB51:
	.loc 2 669 5
	.loc 2 670 5
	.loc 2 679 12 is_stmt 0
	lw	a5,0(s11)
	.loc 2 670 27
	lw	s2,48(s11)
.LVL24:
	.loc 2 679 5 is_stmt 1
	.loc 2 679 30 is_stmt 0
	lhu	a4,116(a5)
	.loc 2 679 7
	andi	a4,a4,2
	beq	a4,zero,.L41
	.loc 2 679 35
	lw	a4,36(s2)
	beq	a4,zero,.L41
.LVL25:
.L45:
.LBE51:
.LBE50:
	.loc 2 763 30
	lw	a1,48(s11)
	.loc 2 752 7
	addi	a5,s5,6
	.loc 2 763 5 is_stmt 1
	li	a2,32
	addi	a1,a1,216
	mv	a0,a5
	sw	a5,28(sp)
	call	memcpy
.LVL26:
	.loc 2 764 5
	lw	a5,28(sp)
	lui	a4,%hi(.LC8)
	li	a6,32
	addi	a4,a4,%lo(.LC8)
	li	a1,3
	li	a3,764
	addi	a2,s1,%lo(.LC3)
	mv	a0,s11
	call	mbedtls_debug_print_buf
.LVL27:
	.loc 2 765 5
	.loc 2 779 5
	.loc 2 779 12 is_stmt 0
	lw	a1,44(s11)
	.loc 2 781 7
	li	a5,16
	.loc 2 779 7
	lw	a6,8(a1)
.LVL28:
	.loc 2 781 5 is_stmt 1
	.loc 2 781 16 is_stmt 0
	addi	a4,a6,-16
	.loc 2 781 7
	bgtu	a4,a5,.L178
	.loc 2 785 23
	lw	a5,48(s11)
	.loc 2 781 26
	lw	a5,328(a5)
	bne	a5,zero,.L42
.L178:
	.loc 2 787 11
	li	a6,0
.LVL29:
.L42:
	.loc 2 799 9 is_stmt 1
	.loc 2 799 11 is_stmt 0
	lw	a5,100(a1)
	beq	a5,zero,.L46
	.loc 2 799 51
	lw	a5,104(a1)
	beq	a5,zero,.L46
	.loc 2 802 13 is_stmt 1
	.loc 2 802 22 is_stmt 0
	lw	a5,0(s11)
	.loc 2 802 19
	li	a2,32
	addi	a1,a1,12
	lw	a4,24(a5)
	lw	a0,28(a5)
	jalr	a4
.LVL30:
	mv	s0,a0
.LVL31:
	.loc 2 804 13 is_stmt 1
	.loc 2 804 15 is_stmt 0
	bne	a0,zero,.L14
	.loc 2 807 13 is_stmt 1
.LVL32:
	.loc 2 807 16 is_stmt 0
	lw	a5,44(s11)
	.loc 2 807 44
	li	a4,32
	.loc 2 807 48
	li	a6,32
	.loc 2 807 44
	sw	a4,8(a5)
.LVL33:
.L46:
	.loc 2 812 5 is_stmt 1
	.loc 2 812 7 is_stmt 0
	addi	s0,s5,39
.LVL34:
	.loc 2 812 12
	sb	a6,38(s5)
	.loc 2 814 5 is_stmt 1
.LVL35:
	.loc 2 814 12 is_stmt 0
	li	a5,0
.LVL36:
.L47:
	.loc 2 814 5
	bne	a6,a5,.L48
	.loc 2 817 5
	lui	a4,%hi(.LC9)
	mv	a5,a6
.LVL37:
	addi	a4,a4,%lo(.LC9)
	li	a3,817
	addi	a2,s1,%lo(.LC3)
	li	a1,3
	mv	a0,s11
	add	s4,s0,a6
	.loc 2 817 5 is_stmt 1
	sw	a6,28(sp)
	call	mbedtls_debug_print_msg
.LVL38:
	.loc 2 818 5
	lw	a6,28(sp)
	lui	a4,%hi(.LC10)
	mv	a5,s0
	addi	a4,a4,%lo(.LC10)
	li	a3,818
	addi	a2,s1,%lo(.LC3)
	li	a1,3
	mv	a0,s11
	call	mbedtls_debug_print_buf
.LVL39:
	.loc 2 824 5
	.loc 2 824 30 is_stmt 0
	lw	a5,0(s11)
	lhu	a5,116(a5)
	.loc 2 824 7
	andi	a5,a5,2
	beq	a5,zero,.L49
	.loc 2 826 9 is_stmt 1
	.loc 2 826 16 is_stmt 0
	lw	a4,48(s11)
	addi	s0,s4,1
	.loc 2 826 27
	lw	a5,36(a4)
	.loc 2 826 11
	bne	a5,zero,.L50
	.loc 2 828 13 is_stmt 1
	lui	a4,%hi(.LC11)
	addi	a4,a4,%lo(.LC11)
	li	a3,828
	addi	a2,s1,%lo(.LC3)
	li	a1,3
	mv	a0,s11
	call	mbedtls_debug_print_msg
.LVL40:
	.loc 2 829 13
	.loc 2 829 18 is_stmt 0
	sb	zero,0(s4)
	.loc 2 829 15
	mv	s4,s0
.LVL41:
.L49:
	.loc 2 848 5 is_stmt 1
	.loc 2 851 5
	.loc 2 852 5
	.loc 2 853 5
	.loc 2 848 18 is_stmt 0
	lw	a4,12(s11)
	lw	a5,0(s11)
	.loc 2 853 7
	addi	s3,s4,2
.LVL42:
	.loc 2 855 5 is_stmt 1
	.loc 2 848 18 is_stmt 0
	slli	a4,a4,2
	add	a5,a5,a4
	lw	s2,0(a5)
	.loc 2 851 7
	li	s0,0
	.loc 2 884 9
	lui	s6,%hi(.LC13)
.LVL43:
.L51:
	.loc 2 855 29
	lw	a0,0(s2)
	.loc 2 855 5
	bne	a0,zero,.L54
	.loc 2 899 9 is_stmt 1
.LVL44:
	.loc 2 900 14 is_stmt 0
	li	a5,-1
	sb	a5,1(s3)
	.loc 2 901 10
	addi	a5,s0,1
	.loc 2 915 31
	srli	a4,a5,7
	.loc 2 899 14
	sb	zero,0(s3)
	.loc 2 900 9 is_stmt 1
.LVL45:
	.loc 2 901 9
	.loc 2 915 5
	.loc 2 915 12 is_stmt 0
	sb	a4,0(s4)
	.loc 2 916 5 is_stmt 1
.LVL46:
	.loc 2 916 12 is_stmt 0
	slli	a4,a5,1
	.loc 2 916 10
	sb	a4,1(s4)
	.loc 2 918 5 is_stmt 1
	lui	a4,%hi(.LC14)
	addi	a4,a4,%lo(.LC14)
	li	a3,918
	addi	a2,s1,%lo(.LC3)
	li	a1,3
	mv	a0,s11
	call	mbedtls_debug_print_msg
.LVL47:
	.loc 2 923 5
	.loc 2 933 5
	.loc 2 937 5
	.loc 2 949 9
	lui	a4,%hi(.LC15)
	li	a5,1
	addi	a4,a4,%lo(.LC15)
	li	a3,949
	addi	a2,s1,%lo(.LC3)
	li	a1,3
	mv	a0,s11
	call	mbedtls_debug_print_msg
.LVL48:
	.loc 2 950 9
	lui	a4,%hi(.LC16)
	li	a5,0
	addi	a4,a4,%lo(.LC16)
	li	a3,951
	addi	a2,s1,%lo(.LC3)
	li	a1,3
	mv	a0,s11
	call	mbedtls_debug_print_msg
.LVL49:
	.loc 2 953 9
	.loc 2 953 14 is_stmt 0
	li	a5,1
	sb	a5,2(s3)
	.loc 2 954 9 is_stmt 1
	.loc 2 954 14 is_stmt 0
	sb	zero,3(s3)
.LBB53:
.LBB54:
	.loc 2 68 12
	lw	a5,180(s11)
.LBE54:
.LBE53:
	.loc 2 954 11
	addi	s4,s3,4
.LVL50:
	.loc 2 960 5 is_stmt 1
	addi	s6,s3,6
.LVL51:
.LBB57:
.LBB55:
	.loc 2 62 5
	.loc 2 63 5
	.loc 2 64 5
	.loc 2 66 5
	.loc 2 68 5
	.loc 2 66 11 is_stmt 0
	li	s7,0
	.loc 2 68 7
	beq	a5,zero,.L55
	.loc 2 63 26
	lw	s0,160(s11)
.LVL52:
	li	a4,16384
	.loc 2 71 5
	addi	a2,s1,%lo(.LC3)
	.loc 2 63 26
	add	s0,s0,a4
	.loc 2 71 5 is_stmt 1
	lui	a4,%hi(.LC17)
	addi	a4,a4,%lo(.LC17)
	li	a3,72
	li	a1,3
	mv	a0,s11
	call	mbedtls_debug_print_msg
.LVL53:
	.loc 2 74 5
	.loc 2 74 20 is_stmt 0
	lw	a0,180(s11)
	call	strlen
.LVL54:
	mv	a2,a0
.LVL55:
	.loc 2 76 5 is_stmt 1
	.loc 2 76 7 is_stmt 0
	bgtu	s6,s0,.L56
	.loc 2 76 55
	addi	s7,a0,9
	.loc 2 76 34
	sub	s0,s0,s6
.LVL56:
	.loc 2 76 17
	bgeu	s0,s7,.L57
.L56:
	.loc 2 78 9 is_stmt 1
	lui	a4,%hi(.LC18)
	addi	a4,a4,%lo(.LC18)
	li	a3,78
	addi	a2,s1,%lo(.LC3)
	li	a1,1
	mv	a0,s11
.LVL57:
	call	mbedtls_debug_print_msg
.LVL58:
	.loc 2 79 9
	.loc 2 66 11 is_stmt 0
	li	s7,0
.LVL59:
.L55:
.LBE55:
.LBE57:
	.loc 2 961 5 is_stmt 1
	.loc 2 971 5
.LBB58:
.LBB59:
	.loc 2 165 5
	.loc 2 166 5
	.loc 2 167 5
	.loc 2 168 5
	.loc 2 170 5
	.loc 2 173 5
	.loc 2 175 5
	.loc 2 175 18 is_stmt 0
	lw	a5,0(s11)
	.loc 2 175 7
	li	a4,3
	lbu	a3,113(a5)
	.loc 2 173 11
	li	a5,0
	.loc 2 175 7
	bne	a3,a4,.L58
	.loc 2 178 5
	lui	a4,%hi(.LC19)
	addi	a4,a4,%lo(.LC19)
	li	a3,178
	addi	a2,s1,%lo(.LC3)
	li	a1,3
	mv	a0,s11
	.loc 2 166 35
	lw	s2,160(s11)
	.loc 2 178 5 is_stmt 1
	call	mbedtls_debug_print_msg
.LVL60:
	.loc 2 180 5
	.loc 2 180 13 is_stmt 0
	lw	a5,0(s11)
	lw	s9,88(a5)
.LVL61:
	.loc 2 167 12
	li	a5,0
.LVL62:
.L59:
	.loc 2 180 38
	slli	a4,a5,1
	add	a4,s9,a4
.LVL63:
	.loc 2 180 5
	lw	a4,0(a4)
.LVL64:
	bne	a4,zero,.L60
.LBE59:
.LBE58:
	.loc 2 971 52
	addi	s0,s7,2
.LBB64:
.LBB60:
	.loc 2 166 26
	li	a4,16384
.LBE60:
.LBE64:
	.loc 2 971 5
	add	s0,s4,s0
.LBB65:
.LBB61:
	.loc 2 166 26
	add	a4,s2,a4
	.loc 2 190 5 is_stmt 1
	.loc 2 190 7 is_stmt 0
	bgtu	s0,a4,.L61
	.loc 2 190 34
	sub	a4,a4,s0
	.loc 2 190 54
	addi	a5,a5,6
.LVL65:
	.loc 2 190 17
	bltu	a4,a5,.L61
	.loc 2 170 20
	addi	s8,s0,6
	.loc 2 199 17
	li	a5,0
.LVL66:
	.loc 2 209 37
	li	s10,1
.LVL67:
.L62:
	.loc 2 201 38
	slli	a4,a5,1
	add	a4,s9,a4
	lw	a0,0(a4)
	addi	s2,a5,2
	.loc 2 201 5
	bne	a0,zero,.L63
	.loc 2 230 5 is_stmt 1
.LVL68:
	.loc 2 231 10 is_stmt 0
	li	a4,13
	sb	a4,1(s0)
	.loc 2 234 12
	andi	a4,a5,0xff
	addi	a3,a4,2
	.loc 2 233 51
	srli	s2,s2,8
	.loc 2 234 10
	sb	a3,3(s0)
	.loc 2 236 43
	srli	a3,a5,8
	.loc 2 230 10
	sb	zero,0(s0)
	.loc 2 231 5 is_stmt 1
.LVL69:
	.loc 2 233 5
	.loc 2 233 12 is_stmt 0
	sb	s2,2(s0)
	.loc 2 234 5 is_stmt 1
.LVL70:
	.loc 2 236 5
	.loc 2 236 12 is_stmt 0
	sb	a3,4(s0)
	.loc 2 237 5 is_stmt 1
.LVL71:
	.loc 2 237 10 is_stmt 0
	sb	a4,5(s0)
	.loc 2 239 5 is_stmt 1
	.loc 2 239 15 is_stmt 0
	addi	a5,a5,6
.LVL72:
	j	.L58
.LVL73:
.L41:
.LBE61:
.LBE65:
.LBB66:
.LBB52:
	.loc 2 695 5 is_stmt 1
	.loc 2 695 17 is_stmt 0
	lw	a4,24(a5)
	lw	a0,28(a5)
	li	a2,4
	addi	a1,s2,216
	jalr	a4
.LVL74:
	mv	s0,a0
.LVL75:
	.loc 2 695 7
	bne	a0,zero,.L44
	.loc 2 698 5 is_stmt 1
.LVL76:
	.loc 2 701 5
	.loc 2 701 20 is_stmt 0
	lw	a5,0(s11)
	.loc 2 701 17
	li	a2,28
	addi	a1,s2,220
.LVL77:
	lw	a4,24(a5)
	lw	a0,28(a5)
	jalr	a4
.LVL78:
	mv	s0,a0
.LVL79:
	.loc 2 701 7
	beq	a0,zero,.L45
.LVL80:
.L44:
.LBE52:
.LBE66:
	.loc 2 759 9 is_stmt 1
	lui	a4,%hi(.LC94)
	mv	a5,s0
	addi	a4,a4,%lo(.LC94)
	li	a3,759
	j	.L265
.LVL81:
.L48:
	.loc 2 815 9
	.loc 2 815 42 is_stmt 0
	lw	a4,44(s11)
	add	a4,a4,a5
	lbu	a3,12(a4)
	.loc 2 815 14
	add	a4,s5,a5
	.loc 2 814 25
	addi	a5,a5,1
.LVL82:
	.loc 2 815 14
	sb	a3,39(a4)
	j	.L47
.LVL83:
.L50:
	.loc 2 833 13 is_stmt 1
	lbu	a6,40(a4)
	lui	a4,%hi(.LC12)
	addi	a4,a4,%lo(.LC12)
	li	a3,835
	addi	a2,s1,%lo(.LC3)
	li	a1,3
	mv	a0,s11
	call	mbedtls_debug_print_buf
.LVL84:
	.loc 2 837 13
	.loc 2 837 34 is_stmt 0
	lw	a5,48(s11)
	.loc 2 838 13
	mv	a0,s0
	.loc 2 837 34
	lbu	a5,40(a5)
	.loc 2 837 18
	sb	a5,0(s4)
	.loc 2 838 13 is_stmt 1
	.loc 2 838 27 is_stmt 0
	lw	a5,48(s11)
	.loc 2 838 13
	lbu	a2,40(a5)
	lw	a1,36(a5)
	call	memcpy
.LVL85:
	.loc 2 840 13 is_stmt 1
	.loc 2 840 32 is_stmt 0
	lw	a5,48(s11)
	lbu	s4,40(a5)
.LVL86:
	.loc 2 840 15
	add	s4,s0,s4
.LVL87:
	j	.L49
.LVL88:
.L54:
	.loc 2 857 9 is_stmt 1
	.loc 2 857 28 is_stmt 0
	call	mbedtls_ssl_ciphersuite_from_id
.LVL89:
	.loc 2 859 9 is_stmt 1
	.loc 2 859 11 is_stmt 0
	beq	a0,zero,.L52
	.loc 2 862 9 is_stmt 1
	.loc 2 862 50 is_stmt 0
	lw	a5,0(s11)
	.loc 2 862 11
	lw	a3,16(a0)
	.loc 2 862 45
	lbu	a4,113(a5)
	.loc 2 862 11
	bgt	a3,a4,.L52
	.loc 2 863 45
	lbu	a4,115(a5)
	.loc 2 862 72
	lw	a3,24(a0)
	blt	a3,a4,.L52
	.loc 2 867 9 is_stmt 1
	.loc 2 867 34 is_stmt 0
	lhu	a5,116(a5)
	.loc 2 867 11
	andi	a5,a5,2
	beq	a5,zero,.L53
	.loc 2 867 39
	lbu	a5,28(a0)
	andi	a5,a5,4
	bne	a5,zero,.L52
.L53:
	.loc 2 884 9 is_stmt 1
	lw	a5,0(s2)
	addi	a4,s6,%lo(.LC13)
	li	a3,885
	addi	a2,s1,%lo(.LC3)
	li	a1,3
	mv	a0,s11
.LVL90:
	call	mbedtls_debug_print_msg
.LVL91:
	.loc 2 887 9
	.loc 2 888 49 is_stmt 0
	lw	a5,0(s2)
	.loc 2 887 10
	addi	s0,s0,1
.LVL92:
	.loc 2 888 9 is_stmt 1
	.loc 2 889 11 is_stmt 0
	addi	s3,s3,2
.LVL93:
	.loc 2 888 49
	srai	a5,a5,8
	.loc 2 888 16
	sb	a5,-2(s3)
	.loc 2 889 9 is_stmt 1
.LVL94:
	.loc 2 889 16 is_stmt 0
	lw	a5,0(s2)
	sb	a5,-1(s3)
.L52:
.LVL95:
	addi	s2,s2,4
	j	.L51
.LVL96:
.L57:
.LBB67:
.LBB56:
	.loc 2 100 5 is_stmt 1
	.loc 2 103 45 is_stmt 0
	addi	a5,a0,5
	.loc 2 103 50
	srli	a5,a5,8
	.loc 2 103 12
	sb	a5,8(s3)
	.loc 2 104 12
	andi	a5,a0,0xff
	addi	a4,a5,5
	.loc 2 104 10
	sb	a4,9(s3)
	.loc 2 106 45
	addi	a4,a0,3
	.loc 2 106 50
	srli	a4,a4,8
	.loc 2 106 12
	sb	a4,10(s3)
	.loc 2 107 12
	addi	a4,a5,3
	.loc 2 107 10
	sb	a4,11(s3)
	.loc 2 110 44
	srli	a4,a0,8
	.loc 2 100 10
	sb	zero,6(s3)
	.loc 2 101 5 is_stmt 1
.LVL97:
	.loc 2 101 10 is_stmt 0
	sb	zero,7(s3)
	.loc 2 103 5 is_stmt 1
.LVL98:
	.loc 2 104 5
	.loc 2 106 5
	.loc 2 107 5
	.loc 2 109 5
	.loc 2 109 10 is_stmt 0
	sb	zero,12(s3)
	.loc 2 110 5 is_stmt 1
.LVL99:
	.loc 2 110 12 is_stmt 0
	sb	a4,13(s3)
	.loc 2 111 5 is_stmt 1
.LVL100:
	.loc 2 111 10 is_stmt 0
	sb	a5,14(s3)
	.loc 2 113 5 is_stmt 1
	lw	a1,180(s11)
	addi	a0,s3,15
.LVL101:
	call	memcpy
.LVL102:
	.loc 2 115 5
	j	.L55
.LVL103:
.L60:
.LBE56:
.LBE67:
.LBB68:
.LBB62:
	.loc 2 186 9
	.loc 2 186 21 is_stmt 0
	addi	a5,a5,2
.LVL104:
	j	.L59
.LVL105:
.L61:
	.loc 2 192 9 is_stmt 1
	lui	a4,%hi(.LC18)
	addi	a4,a4,%lo(.LC18)
	li	a3,192
	addi	a2,s1,%lo(.LC3)
	li	a1,1
	mv	a0,s11
	call	mbedtls_debug_print_msg
.LVL106:
	.loc 2 193 9
	.loc 2 173 11 is_stmt 0
	li	a5,0
.LVL107:
.L58:
.LBE62:
.LBE68:
	.loc 2 972 5 is_stmt 1
	.loc 2 972 13 is_stmt 0
	add	s7,s7,a5
.LVL108:
	.loc 2 990 5 is_stmt 1
.LBB69:
.LBB70:
	.loc 2 431 5
	.loc 2 432 5
	.loc 2 434 5
	.loc 2 436 5
	.loc 2 436 29 is_stmt 0
	lw	a5,0(s11)
	lhu	a4,116(a5)
	.loc 2 434 11
	li	a5,0
	.loc 2 436 7
	andi	a4,a4,448
	beq	a4,zero,.L64
	.loc 2 432 26
	lw	s2,160(s11)
.LBE70:
.LBE69:
	.loc 2 990 51
	addi	s0,s7,2
.LVL109:
.LBB74:
.LBB71:
	.loc 2 432 26
	li	a5,16384
	.loc 2 440 5
	lui	a4,%hi(.LC20)
.LBE71:
.LBE74:
	.loc 2 990 5
	add	s0,s4,s0
.LVL110:
.LBB75:
.LBB72:
	.loc 2 432 26
	add	s2,s2,a5
	.loc 2 440 5 is_stmt 1
	addi	a4,a4,%lo(.LC20)
	li	a3,440
	addi	a2,s1,%lo(.LC3)
	li	a1,3
	mv	a0,s11
	call	mbedtls_debug_print_msg
.LVL111:
	.loc 2 442 5
	.loc 2 442 7 is_stmt 0
	bgtu	s0,s2,.L65
	.loc 2 442 34
	sub	s2,s2,s0
.LVL112:
	.loc 2 442 17
	li	a5,4
	bgtu	s2,a5,.L66
.L65:
	.loc 2 444 9 is_stmt 1
	lui	a4,%hi(.LC18)
	addi	a4,a4,%lo(.LC18)
	li	a3,444
	addi	a2,s1,%lo(.LC3)
	li	a1,1
	mv	a0,s11
	call	mbedtls_debug_print_msg
.LVL113:
	.loc 2 445 9
	.loc 2 434 11 is_stmt 0
	li	a5,0
.LVL114:
.L64:
.LBE72:
.LBE75:
	.loc 2 991 5 is_stmt 1
	.loc 2 991 13 is_stmt 0
	add	s7,s7,a5
.LVL115:
	.loc 2 1010 5 is_stmt 1
.LBB76:
.LBB77:
	.loc 2 608 5
	.loc 2 609 5
	.loc 2 610 5
	.loc 2 611 5
	.loc 2 613 5
	.loc 2 615 5
	.loc 2 615 18 is_stmt 0
	lw	a5,0(s11)
	.loc 2 613 11
	li	s0,0
	.loc 2 615 7
	lw	a5,96(a5)
	beq	a5,zero,.L67
	.loc 2 620 5
	lui	a4,%hi(.LC21)
	addi	a4,a4,%lo(.LC21)
	li	a3,620
	addi	a2,s1,%lo(.LC3)
	li	a1,3
	mv	a0,s11
	.loc 2 609 35
	lw	s8,160(s11)
	.loc 2 620 5 is_stmt 1
	call	mbedtls_debug_print_msg
.LVL116:
	.loc 2 622 5
	.loc 2 622 14 is_stmt 0
	lw	a5,0(s11)
	lw	s2,96(a5)
.LVL117:
.L68:
	.loc 2 622 38
	lw	a0,0(s2)
	.loc 2 622 5
	bne	a0,zero,.L69
.LBE77:
.LBE76:
	.loc 2 1010 36
	addi	s2,s7,2
.LVL118:
.LBB81:
.LBB78:
	.loc 2 609 26
	li	a5,16384
.LBE78:
.LBE81:
	.loc 2 1010 5
	add	s2,s4,s2
.LBB82:
.LBB79:
	.loc 2 609 26
	add	a5,s8,a5
	.loc 2 625 5 is_stmt 1
	.loc 2 625 7 is_stmt 0
	bgtu	s2,a5,.L70
	.loc 2 625 34
	sub	a5,a5,s2
	.loc 2 625 44
	addi	s0,s0,6
.LVL119:
	.loc 2 625 17
	bgeu	a5,s0,.L71
.LVL120:
.L70:
	.loc 2 627 9 is_stmt 1
	lui	a4,%hi(.LC18)
	addi	a4,a4,%lo(.LC18)
	li	a3,627
	addi	a2,s1,%lo(.LC3)
	li	a1,1
	mv	a0,s11
	call	mbedtls_debug_print_msg
.LVL121:
	.loc 2 628 9
	.loc 2 613 11 is_stmt 0
	li	s0,0
.LVL122:
.L67:
.LBE79:
.LBE82:
	.loc 2 1011 5 is_stmt 1
.LBB83:
.LBB84:
	.loc 2 570 36 is_stmt 0
	lw	a5,0(s11)
.LBE84:
.LBE83:
	.loc 2 1011 13
	add	s0,s7,s0
.LVL123:
	.loc 2 1015 5 is_stmt 1
.LBB89:
.LBB85:
	.loc 2 564 5
	.loc 2 565 5
	.loc 2 566 5
	.loc 2 568 5
	.loc 2 570 5
	.loc 2 568 11 is_stmt 0
	li	s7,0
	.loc 2 570 36
	lhu	a5,116(a5)
	.loc 2 570 7
	andi	a5,a5,512
	beq	a5,zero,.L74
	.loc 2 565 26
	lw	s9,160(s11)
	li	a5,16384
.LBE85:
.LBE89:
	.loc 2 1015 46
	addi	s2,s0,2
.LVL124:
.LBB90:
.LBB86:
	.loc 2 565 26
	add	s9,s9,a5
	.loc 2 566 12
	lw	a5,44(s11)
	.loc 2 575 5
	lui	a4,%hi(.LC22)
.LBE86:
.LBE90:
	.loc 2 1015 5
	add	s2,s4,s2
.LVL125:
.LBB91:
.LBB87:
	.loc 2 575 5
	addi	a4,a4,%lo(.LC22)
	li	a3,575
	addi	a2,s1,%lo(.LC3)
	li	a1,3
	mv	a0,s11
	.loc 2 566 12
	lw	s8,104(a5)
	.loc 2 575 5 is_stmt 1
	call	mbedtls_debug_print_msg
.LVL126:
	.loc 2 577 5
	.loc 2 577 7 is_stmt 0
	bgtu	s2,s9,.L75
	.loc 2 577 44
	addi	s7,s8,4
	.loc 2 577 34
	sub	s9,s9,s2
.LVL127:
	.loc 2 577 17
	bgeu	s9,s7,.L76
.L75:
	.loc 2 579 9 is_stmt 1
	lui	a4,%hi(.LC18)
	addi	a4,a4,%lo(.LC18)
	li	a3,579
	addi	a2,s1,%lo(.LC3)
	li	a1,1
	mv	a0,s11
	call	mbedtls_debug_print_msg
.LVL128:
	.loc 2 580 9
	.loc 2 568 11 is_stmt 0
	li	s7,0
.LVL129:
.L74:
.LBE87:
.LBE91:
	.loc 2 1016 5 is_stmt 1
	.loc 2 1016 13 is_stmt 0
	add	s0,s0,s7
.LVL130:
	.loc 2 1020 5 is_stmt 1
	.loc 2 1022 5
	lui	a4,%hi(.LC24)
	mv	a5,s0
	addi	a4,a4,%lo(.LC24)
	li	a3,1023
	addi	a2,s1,%lo(.LC3)
	li	a1,3
	mv	a0,s11
	call	mbedtls_debug_print_msg
.LVL131:
	.loc 2 1025 5
	.loc 2 1025 7 is_stmt 0
	beq	s0,zero,.L77
	.loc 2 1027 9 is_stmt 1
.LVL132:
	.loc 2 1027 43 is_stmt 0
	srli	a5,s0,8
	.loc 2 1027 16
	sb	a5,4(s3)
	.loc 2 1028 9 is_stmt 1
.LVL133:
	.loc 2 1028 16 is_stmt 0
	sb	s0,5(s3)
	.loc 2 1029 9 is_stmt 1
	.loc 2 1029 11 is_stmt 0
	add	s4,s6,s0
.LVL134:
.L77:
	.loc 2 1032 5 is_stmt 1
	.loc 2 1033 22 is_stmt 0
	li	a5,22
	sw	a5,164(s11)
	.loc 2 1034 8
	lw	a5,160(s11)
	.loc 2 1032 25
	sub	s4,s4,s5
.LVL135:
	.loc 2 1032 21
	sw	s4,168(s11)
	.loc 2 1033 5 is_stmt 1
	.loc 2 1034 5
	.loc 2 1034 21 is_stmt 0
	li	a4,1
	sb	a4,0(a5)
	.loc 2 1036 5 is_stmt 1
	.loc 2 1036 15 is_stmt 0
	lw	a5,4(s11)
	addi	a5,a5,1
	sw	a5,4(s11)
	.loc 2 1039 5 is_stmt 1
	.loc 2 1039 30 is_stmt 0
	lw	a5,0(s11)
	lhu	a5,116(a5)
	.loc 2 1039 7
	andi	a5,a5,2
	beq	a5,zero,.L78
	.loc 2 1040 9 is_stmt 1
	mv	a0,s11
	call	mbedtls_ssl_send_flight_completed
.LVL136:
.L78:
	.loc 2 1043 5
	.loc 2 1043 17 is_stmt 0
	mv	a0,s11
	call	mbedtls_ssl_write_record
.LVL137:
	mv	s0,a0
.LVL138:
	.loc 2 1043 7
	beq	a0,zero,.L79
	.loc 2 1045 9 is_stmt 1
	lui	a4,%hi(.LC25)
	mv	a5,a0
	addi	a4,a4,%lo(.LC25)
	li	a3,1045
.LVL139:
.L265:
	.loc 2 759 9 is_stmt 0
	addi	a2,s1,%lo(.LC3)
	li	a1,1
	mv	a0,s11
	call	mbedtls_debug_print_ret
.LVL140:
	.loc 2 760 9 is_stmt 1
	j	.L14
.LVL141:
.L63:
.LBB92:
.LBB63:
	.loc 2 208 9
	.loc 2 208 39 is_stmt 0
	call	mbedtls_ssl_hash_from_md_alg
.LVL142:
	.loc 2 208 37
	sb	a0,0(s8)
	.loc 2 209 9 is_stmt 1
.LVL143:
	.loc 2 209 37 is_stmt 0
	sb	s10,1(s8)
.LVL144:
	mv	a5,s2
	addi	s8,s8,2
.LVL145:
	j	.L62
.LVL146:
.L66:
.LBE63:
.LBE92:
.LBB93:
.LBB73:
	.loc 2 448 5 is_stmt 1
	.loc 2 449 10 is_stmt 0
	li	a5,1
	.loc 2 448 10
	sb	zero,0(s0)
	.loc 2 449 5 is_stmt 1
.LVL147:
	.loc 2 449 10 is_stmt 0
	sb	a5,1(s0)
	.loc 2 451 5 is_stmt 1
.LVL148:
	.loc 2 451 10 is_stmt 0
	sb	zero,2(s0)
	.loc 2 452 5 is_stmt 1
.LVL149:
	.loc 2 452 10 is_stmt 0
	sb	a5,3(s0)
	.loc 2 454 5 is_stmt 1
.LVL150:
	.loc 2 454 21 is_stmt 0
	lw	a5,0(s11)
	lw	a5,116(a5)
	srli	a5,a5,6
	andi	a5,a5,7
	.loc 2 454 10
	sb	a5,4(s0)
	.loc 2 456 5 is_stmt 1
.LVL151:
	.loc 2 456 11 is_stmt 0
	li	a5,5
	j	.L64
.LVL152:
.L69:
.LBE73:
.LBE93:
.LBB94:
.LBB80:
	.loc 2 623 9 is_stmt 1
	.loc 2 623 37 is_stmt 0
	call	strlen
.LVL153:
	.loc 2 623 20
	andi	a0,a0,0xff
	.loc 2 623 61
	addi	a0,a0,1
	.loc 2 623 17
	add	s0,s0,a0
.LVL154:
	.loc 2 622 54
	addi	s2,s2,4
.LVL155:
	j	.L68
.LVL156:
.L71:
	.loc 2 631 5 is_stmt 1
	.loc 2 632 10 is_stmt 0
	li	a5,16
	.loc 2 631 10
	sb	zero,0(s2)
	.loc 2 632 5 is_stmt 1
.LVL157:
	.loc 2 632 10 is_stmt 0
	sb	a5,1(s2)
	.loc 2 643 5 is_stmt 1
	.loc 2 645 14 is_stmt 0
	lw	a5,0(s11)
	.loc 2 643 7
	addi	s0,s2,6
.LVL158:
	.loc 2 645 5 is_stmt 1
	.loc 2 645 14 is_stmt 0
	lw	s8,96(a5)
.LVL159:
.L72:
	.loc 2 645 38
	lw	a0,0(s8)
	.loc 2 645 5
	bne	a0,zero,.L73
	.loc 2 652 5 is_stmt 1
	.loc 2 652 15 is_stmt 0
	sub	s0,s0,s2
.LVL160:
	.loc 2 655 5 is_stmt 1
	.loc 2 655 41 is_stmt 0
	addi	a5,s0,-6
	.loc 2 655 47
	srli	a5,a5,8
	.loc 2 655 14
	sb	a5,4(s2)
	.loc 2 656 5 is_stmt 1
	.loc 2 656 14 is_stmt 0
	andi	a5,s0,0xff
	addi	a4,a5,-6
	.loc 2 656 12
	sb	a4,5(s2)
	.loc 2 659 5 is_stmt 1
	.loc 2 659 41 is_stmt 0
	addi	a4,s0,-4
	.loc 2 659 47
	srli	a4,a4,8
	.loc 2 660 14
	addi	a5,a5,-4
	.loc 2 659 14
	sb	a4,2(s2)
	.loc 2 660 5 is_stmt 1
	.loc 2 660 12 is_stmt 0
	sb	a5,3(s2)
	j	.L67
.LVL161:
.L73:
	.loc 2 647 9 is_stmt 1
	.loc 2 647 31 is_stmt 0
	call	strlen
.LVL162:
	.loc 2 647 14
	sb	a0,0(s0)
	.loc 2 648 9 is_stmt 1
	lw	a1,0(s8)
	andi	a2,a0,0xff
	addi	a0,s0,1
	call	memcpy
.LVL163:
	.loc 2 649 9
	.loc 2 649 18 is_stmt 0
	lbu	a5,0(s0)
	.loc 2 645 54
	addi	s8,s8,4
.LVL164:
	.loc 2 649 16
	addi	a5,a5,1
	.loc 2 649 11
	add	s0,s0,a5
.LVL165:
	j	.L72
.LVL166:
.L76:
.LBE80:
.LBE94:
.LBB95:
.LBB88:
	.loc 2 583 5 is_stmt 1
	.loc 2 584 10 is_stmt 0
	li	a5,35
	sb	a5,1(s2)
	.loc 2 586 36
	srli	a5,s8,8
	.loc 2 583 10
	sb	zero,0(s2)
	.loc 2 584 5 is_stmt 1
.LVL167:
	.loc 2 586 5
	.loc 2 586 12 is_stmt 0
	sb	a5,2(s2)
	.loc 2 587 5 is_stmt 1
.LVL168:
	.loc 2 587 12 is_stmt 0
	sb	s8,3(s2)
	.loc 2 589 5 is_stmt 1
.LVL169:
	.loc 2 591 5
	.loc 2 591 31 is_stmt 0
	lw	a5,44(s11)
	.loc 2 591 7
	lw	a5,100(a5)
	beq	a5,zero,.L185
	.loc 2 591 47
	beq	s8,zero,.L185
	.loc 2 596 5 is_stmt 1
	lui	a4,%hi(.LC23)
	mv	a5,s8
	addi	a2,s1,%lo(.LC3)
	mv	a0,s11
	addi	a4,a4,%lo(.LC23)
	li	a3,596
	li	a1,3
	call	mbedtls_debug_print_msg
.LVL170:
	.loc 2 598 5
	.loc 2 598 38 is_stmt 0
	lw	a5,44(s11)
	.loc 2 598 5
	mv	a2,s8
	addi	a0,s2,4
	lw	a1,100(a5)
	call	memcpy
.LVL171:
	.loc 2 600 5 is_stmt 1
	j	.L74
.LVL172:
.L185:
	.loc 2 589 11 is_stmt 0
	li	s7,4
	j	.L74
.LVL173:
.L79:
.LBE88:
.LBE95:
	.loc 2 1049 5 is_stmt 1
	lui	a4,%hi(.LC26)
	addi	a4,a4,%lo(.LC26)
	li	a3,1049
.LVL174:
.L266:
.LBE96:
.LBE97:
.LBB98:
.LBB99:
.LBB100:
.LBB101:
	.loc 2 1385 5 is_stmt 0
	addi	a2,s1,%lo(.LC3)
	li	a1,2
	mv	a0,s11
	call	mbedtls_debug_print_msg
.LVL175:
	.loc 2 1387 5 is_stmt 1
	j	.L14
.L36:
.LBE101:
.LBE100:
.LBE99:
.LBE98:
	.loc 2 3324 12
.LVL176:
.LBB125:
.LBB121:
	.loc 2 1393 5
	.loc 2 1394 5
	.loc 2 1395 5
	.loc 2 1396 5
	.loc 2 1397 5
	.loc 2 1404 5
	.loc 2 1405 5
	.loc 2 1407 5
	.loc 2 1410 5
	lui	a4,%hi(.LC27)
	addi	a4,a4,%lo(.LC27)
	li	a3,1410
	addi	a2,s1,%lo(.LC3)
	li	a1,2
	mv	a0,s11
	call	mbedtls_debug_print_msg
.LVL177:
	.loc 2 1412 5
	.loc 2 1414 17 is_stmt 0
	mv	a0,s11
	.loc 2 1412 9
	lw	s2,100(s11)
.LVL178:
	.loc 2 1414 5 is_stmt 1
	.loc 2 1414 17 is_stmt 0
	call	mbedtls_ssl_read_record
.LVL179:
	mv	s0,a0
.LVL180:
	.loc 2 1414 7
	beq	a0,zero,.L80
	.loc 2 1416 9 is_stmt 1
	lui	a4,%hi(.LC28)
	mv	a5,a0
	addi	a4,a4,%lo(.LC28)
	li	a3,1416
	j	.L265
.L80:
	.loc 2 1420 5
	.loc 2 1420 7 is_stmt 0
	lw	a4,108(s11)
	li	a5,22
	beq	a4,a5,.L81
	.loc 2 1440 9 is_stmt 1
	lui	a4,%hi(.LC29)
	addi	a4,a4,%lo(.LC29)
	li	a3,1440
.LVL181:
.L267:
.LBE121:
.LBE125:
.LBB126:
.LBB127:
	.loc 2 2239 9 is_stmt 0
	addi	a2,s1,%lo(.LC3)
	li	a1,1
.L275:
	mv	a0,s11
	.loc 2 2240 15
	li	s0,-28672
	.loc 2 2239 9
	call	mbedtls_debug_print_msg
.LVL182:
	.loc 2 2240 9 is_stmt 1
	.loc 2 2240 15 is_stmt 0
	addi	s0,s0,-1792
	j	.L14
.LVL183:
.L81:
.LBE127:
.LBE126:
.LBB130:
.LBB122:
	.loc 2 1445 5 is_stmt 1
	.loc 2 1445 30 is_stmt 0
	lw	a5,0(s11)
	lhu	a5,116(a5)
	.loc 2 1445 7
	andi	a5,a5,2
	beq	a5,zero,.L82
	.loc 2 1447 9 is_stmt 1
	.loc 2 1447 11 is_stmt 0
	lbu	a4,0(s2)
	li	a5,3
	bne	a4,a5,.L83
	.loc 2 1449 13 is_stmt 1
	lui	a4,%hi(.LC30)
	addi	a4,a4,%lo(.LC30)
	li	a3,1449
	addi	a2,s1,%lo(.LC3)
	li	a1,2
	mv	a0,s11
	call	mbedtls_debug_print_msg
.LVL184:
	.loc 2 1450 13
	lui	a4,%hi(.LC31)
	addi	a4,a4,%lo(.LC31)
	li	a3,1450
	addi	a2,s1,%lo(.LC3)
	li	a1,2
	mv	a0,s11
	call	mbedtls_debug_print_msg
.LVL185:
	.loc 2 1451 13
.LBB106:
.LBB102:
	.loc 2 1322 5
	.loc 2 1322 44 is_stmt 0
	lw	a0,0(s11)
	call	mbedtls_ssl_hs_hdr_len.isra.0
.LVL186:
	.loc 2 1322 26
	lw	s2,100(s11)
.LVL187:
	.loc 2 1326 5
	lui	a4,%hi(.LC32)
	addi	a4,a4,%lo(.LC32)
	.loc 2 1322 26
	add	s2,s2,a0
.LVL188:
	.loc 2 1323 5 is_stmt 1
	.loc 2 1324 5
	.loc 2 1326 5
	li	a3,1326
	addi	a2,s1,%lo(.LC3)
	li	a1,2
	mv	a0,s11
	call	mbedtls_debug_print_msg
.LVL189:
	.loc 2 1334 5
	lui	a4,%hi(.LC33)
	li	a6,2
	mv	a5,s2
	addi	a4,a4,%lo(.LC33)
	li	a3,1334
	addi	a2,s1,%lo(.LC3)
	li	a1,3
	mv	a0,s11
	call	mbedtls_debug_print_buf
.LVL190:
	.loc 2 1335 5
	.loc 2 1335 64 is_stmt 0
	lw	a5,0(s11)
	.loc 2 1335 5
	mv	a3,s2
	addi	a1,sp,48
	.loc 2 1335 64
	lw	a2,116(a5)
	.loc 2 1335 5
	addi	a0,sp,44
	.loc 2 1335 64
	srli	a2,a2,1
	.loc 2 1335 5
	andi	a2,a2,1
	call	mbedtls_ssl_read_version
.LVL191:
	.loc 2 1336 5 is_stmt 1
	.loc 2 1342 5
	.loc 2 1342 19 is_stmt 0
	lw	a3,44(sp)
	.loc 2 1342 7
	li	a5,2
	ble	a3,a5,.L84
	.loc 2 1343 19
	lw	a5,48(sp)
	.loc 2 1342 23
	li	a4,1
	ble	a5,a4,.L84
	.loc 2 1344 24
	lw	a4,0(s11)
	.loc 2 1344 30
	lbu	a2,112(a4)
	.loc 2 1343 23
	bgt	a3,a2,.L84
	.loc 2 1345 30
	lbu	a4,113(a4)
	.loc 2 1344 46
	ble	a5,a4,.L85
.L84:
	.loc 2 1347 9 is_stmt 1
	lui	a4,%hi(.LC34)
	addi	a4,a4,%lo(.LC34)
	li	a3,1347
	addi	a2,s1,%lo(.LC3)
	li	a1,1
	mv	a0,s11
	call	mbedtls_debug_print_msg
.LVL192:
	.loc 2 1349 9
.L268:
.LBE102:
.LBE106:
	.loc 2 1498 9
	li	a2,70
	li	a1,2
	mv	a0,s11
	.loc 2 1501 15 is_stmt 0
	li	s0,-28672
.LVL193:
	.loc 2 1498 9
	call	mbedtls_ssl_send_alert_message
.LVL194:
	.loc 2 1501 9 is_stmt 1
	.loc 2 1501 15 is_stmt 0
	addi	s0,s0,384
	j	.L14
.LVL195:
.L85:
.LBB107:
.LBB103:
	.loc 2 1355 5 is_stmt 1
	.loc 2 1355 20 is_stmt 0
	addi	s3,s2,3
.LVL196:
	.loc 2 1355 16
	lbu	s2,2(s2)
.LVL197:
	.loc 2 1356 5 is_stmt 1
	lui	a4,%hi(.LC35)
	mv	a5,s3
	addi	a4,a4,%lo(.LC35)
	mv	a6,s2
	li	a3,1356
	addi	a2,s1,%lo(.LC3)
	li	a1,3
	mv	a0,s11
	call	mbedtls_debug_print_buf
.LVL198:
	.loc 2 1358 5
	.loc 2 1358 23 is_stmt 0
	lw	a5,100(s11)
	lw	a4,112(s11)
	add	a5,a5,a4
	.loc 2 1358 42
	sub	a5,a5,s3
	.loc 2 1358 7
	bge	a5,s2,.L87
	.loc 2 1360 9 is_stmt 1
	lui	a4,%hi(.LC36)
	addi	a2,s1,%lo(.LC3)
	li	a1,1
	mv	a0,s11
	addi	a4,a4,%lo(.LC36)
	li	a3,1361
	call	mbedtls_debug_print_msg
.LVL199:
	.loc 2 1362 9
	li	a2,50
	li	a1,2
	mv	a0,s11
	call	mbedtls_ssl_send_alert_message
.LVL200:
	.loc 2 1364 9
.L270:
.LBE103:
.LBE107:
	.loc 2 1467 9
	.loc 2 1467 15 is_stmt 0
	li	s0,-32768
	addi	s0,s0,1664
	j	.L14
.LVL201:
.L87:
.LBB108:
.LBB104:
	.loc 2 1367 5 is_stmt 1
	.loc 2 1367 30 is_stmt 0
	lw	a5,48(s11)
	.loc 2 1367 5
	lw	a0,36(a5)
	call	vPortFree
.LVL202:
	.loc 2 1369 5 is_stmt 1
	.loc 2 1369 8 is_stmt 0
	lw	s4,48(s11)
	.loc 2 1369 37
	mv	a1,s2
	li	a0,1
	call	mycalloc
.LVL203:
	.loc 2 1369 35
	sw	a0,36(s4)
	.loc 2 1370 5 is_stmt 1
	.loc 2 1370 23 is_stmt 0
	lw	a5,48(s11)
	lw	a0,36(a5)
	.loc 2 1370 7
	bne	a0,zero,.L88
	.loc 2 1372 9 is_stmt 1
	lui	a4,%hi(.LC37)
	mv	a5,s2
	addi	a4,a4,%lo(.LC37)
	li	a3,1372
	addi	a2,s1,%lo(.LC3)
	li	a1,1
	mv	a0,s11
	call	mbedtls_debug_print_msg
.LVL204:
	.loc 2 1373 9
.L271:
.LBE104:
.LBE108:
.LBE122:
.LBE130:
.LBB131:
.LBB132:
	.loc 2 3246 9
	.loc 2 3246 15 is_stmt 0
	li	s0,-32768
	addi	s0,s0,256
	j	.L14
.LVL205:
.L88:
.LBE132:
.LBE131:
.LBB138:
.LBB123:
.LBB109:
.LBB105:
	.loc 2 1376 5 is_stmt 1
	mv	a2,s2
	mv	a1,s3
	call	memcpy
.LVL206:
	.loc 2 1377 5
	.loc 2 1377 8 is_stmt 0
	lw	a5,48(s11)
	.loc 2 1381 5
	mv	a0,s11
	.loc 2 1377 39
	sb	s2,40(a5)
	.loc 2 1380 5 is_stmt 1
	.loc 2 1380 16 is_stmt 0
	li	a5,1
	sw	a5,4(s11)
	.loc 2 1381 5 is_stmt 1
	call	mbedtls_ssl_reset_checksum
.LVL207:
	.loc 2 1383 5
	mv	a0,s11
	call	mbedtls_ssl_recv_flight_completed
.LVL208:
	.loc 2 1385 5
	lui	a4,%hi(.LC38)
	addi	a4,a4,%lo(.LC38)
	li	a3,1385
	j	.L266
.LVL209:
.L83:
.LBE105:
.LBE109:
	.loc 2 1456 13
	.loc 2 1456 38 is_stmt 0
	lw	a5,48(s11)
	.loc 2 1456 13
	lw	a0,36(a5)
	call	vPortFree
.LVL210:
	.loc 2 1457 13 is_stmt 1
	.loc 2 1457 16 is_stmt 0
	lw	a5,48(s11)
	.loc 2 1457 43
	sw	zero,36(a5)
	.loc 2 1458 13 is_stmt 1
	.loc 2 1458 16 is_stmt 0
	lw	a5,48(s11)
	.loc 2 1458 47
	sb	zero,40(a5)
.L82:
	.loc 2 1463 5 is_stmt 1
	.loc 2 1463 30 is_stmt 0
	lw	a0,0(s11)
	call	mbedtls_ssl_hs_hdr_len.isra.0
.LVL211:
	.loc 2 1463 7
	lw	a4,128(s11)
	.loc 2 1463 28
	addi	a5,a0,38
	.loc 2 1463 7
	bltu	a4,a5,.L89
	.loc 2 1463 60
	lbu	s5,0(s2)
	li	a5,2
	beq	s5,a5,.L90
.L89:
	.loc 2 1466 9 is_stmt 1
	lui	a4,%hi(.LC29)
	addi	a4,a4,%lo(.LC29)
	li	a3,1466
.LVL212:
.L274:
	addi	a2,s1,%lo(.LC3)
	li	a1,1
	mv	a0,s11
	call	mbedtls_debug_print_msg
.LVL213:
	j	.L270
.LVL214:
.L90:
	.loc 2 1481 5
	.loc 2 1481 9 is_stmt 0
	add	s2,s2,a0
.LVL215:
	.loc 2 1483 5 is_stmt 1
	lui	a4,%hi(.LC39)
	li	a6,2
	addi	a4,a4,%lo(.LC39)
	mv	a5,s2
	li	a3,1483
	addi	a2,s1,%lo(.LC3)
	li	a1,3
	mv	a0,s11
	call	mbedtls_debug_print_buf
.LVL216:
	.loc 2 1484 5
	.loc 2 1485 32 is_stmt 0
	lw	a5,0(s11)
	.loc 2 1484 5
	mv	a3,s2
	addi	a1,s11,12
	.loc 2 1485 32
	lw	a2,116(a5)
	.loc 2 1484 5
	addi	a0,s11,8
	.loc 2 1485 32
	srli	a2,a2,1
	.loc 2 1484 5
	andi	a2,a2,1
	call	mbedtls_ssl_read_version
.LVL217:
	.loc 2 1487 5 is_stmt 1
	.loc 2 1487 29 is_stmt 0
	lw	a4,0(s11)
	.loc 2 1487 12
	lw	a7,8(s11)
	lw	a3,12(s11)
	.loc 2 1487 35
	lbu	a5,114(a4)
	lbu	a2,113(a4)
	lbu	a6,115(a4)
	.loc 2 1487 7
	blt	a7,a5,.L91
	lbu	a1,112(a4)
	.loc 2 1487 51
	blt	a3,a6,.L91
	.loc 2 1488 51
	bgt	a7,a1,.L91
	.loc 2 1489 51
	ble	a3,a2,.L92
.L91:
	.loc 2 1492 9 is_stmt 1
	sw	a2,8(sp)
	lbu	a4,112(a4)
	addi	a2,s1,%lo(.LC3)
	sw	a3,0(sp)
	sw	a4,4(sp)
	lui	a4,%hi(.LC40)
	addi	a4,a4,%lo(.LC40)
	li	a3,1496
	li	a1,1
	mv	a0,s11
	call	mbedtls_debug_print_msg
.LVL218:
	j	.L268
.L92:
	.loc 2 1505 5
.LVL219:
	.loc 2 1509 5
	.loc 2 1505 11 is_stmt 0
	lbu	a4,2(s2)
.LVL220:
	.loc 2 1506 11
	lbu	a5,3(s2)
.LVL221:
	.loc 2 1509 5
	li	a3,1509
	.loc 2 1505 29
	slli	a4,a4,24
.LVL222:
	.loc 2 1506 29
	slli	a5,a5,16
.LVL223:
	.loc 2 1506 7
	or	a4,a4,a5
	.loc 2 1508 11
	lbu	a5,5(s2)
	.loc 2 1509 5
	addi	a2,s1,%lo(.LC3)
	li	a1,3
	.loc 2 1505 7
	or	a4,a4,a5
	.loc 2 1507 11
	lbu	a5,4(s2)
	.loc 2 1509 5
	mv	a0,s11
	.loc 2 1507 29
	slli	a5,a5,8
	.loc 2 1509 5
	or	a5,a4,a5
	lui	a4,%hi(.LC41)
	addi	a4,a4,%lo(.LC41)
	call	mbedtls_debug_print_msg
.LVL224:
	.loc 2 1512 5 is_stmt 1
	lw	a0,48(s11)
	.loc 2 1512 49 is_stmt 0
	addi	a5,s2,2
	.loc 2 1512 5
	mv	a1,a5
	li	a2,32
	addi	a0,a0,248
	sw	a5,28(sp)
	call	memcpy
.LVL225:
	.loc 2 1514 5 is_stmt 1
	.loc 2 1516 5 is_stmt 0
	lw	a5,28(sp)
	lui	a4,%hi(.LC42)
	.loc 2 1514 7
	lbu	s3,34(s2)
.LVL226:
	.loc 2 1516 5 is_stmt 1
	li	a6,32
	addi	a4,a4,%lo(.LC42)
	li	a3,1516
	addi	a2,s1,%lo(.LC3)
	li	a1,3
	mv	a0,s11
	call	mbedtls_debug_print_buf
.LVL227:
	.loc 2 1518 5
	.loc 2 1518 7 is_stmt 0
	li	a5,32
	bleu	s3,a5,.L93
	.loc 2 1520 9 is_stmt 1
	lui	a4,%hi(.LC29)
	addi	a4,a4,%lo(.LC29)
	li	a3,1520
	j	.L274
.L93:
	.loc 2 1524 5
	.loc 2 1524 25 is_stmt 0
	lw	a0,0(s11)
	.loc 2 1524 12
	lw	s6,128(s11)
	.loc 2 1524 25
	call	mbedtls_ssl_hs_hdr_len.isra.0
.LVL228:
	.loc 2 1524 60
	add	a0,s3,a0
	addi	a5,a0,39
	.loc 2 1524 7
	bleu	s6,a5,.L94
	.loc 2 1526 9 is_stmt 1
	.loc 2 1526 26 is_stmt 0
	add	a5,s2,s3
	lbu	s4,38(a5)
	.loc 2 1527 26
	lbu	a5,39(a5)
	.loc 2 1526 35
	slli	s4,s4,8
	.loc 2 1527 19
	or	s4,s4,a5
.LVL229:
	.loc 2 1529 9 is_stmt 1
	.loc 2 1529 27 is_stmt 0
	addi	a5,s4,-1
	.loc 2 1529 11
	bleu	a5,s5,.L95
	.loc 2 1530 69
	addi	a5,s4,40
	add	a0,a5,a0
	.loc 2 1529 44
	beq	s6,a0,.L96
.L95:
	.loc 2 1532 13 is_stmt 1
	lui	a4,%hi(.LC29)
	addi	a4,a4,%lo(.LC29)
	li	a3,1532
	j	.L274
.LVL230:
.L94:
	.loc 2 1536 10
	.loc 2 1536 66 is_stmt 0
	addi	a0,a0,38
	.loc 2 1538 17
	li	s4,0
	.loc 2 1536 12
	beq	s6,a0,.L96
	.loc 2 1542 9 is_stmt 1
	lui	a4,%hi(.LC29)
	addi	a4,a4,%lo(.LC29)
	li	a3,1542
	j	.L274
.L96:
.LVL231:
	.loc 2 1547 5
	.loc 2 1547 14 is_stmt 0
	add	a5,s2,s3
	lbu	s5,35(a5)
	.loc 2 1547 35
	lbu	a5,36(a5)
	.loc 2 1552 19
	addi	s6,s3,37
	.loc 2 1547 23
	slli	s5,s5,8
	.loc 2 1552 15
	add	s6,s2,s6
	.loc 2 1547 7
	or	s5,s5,a5
.LVL232:
	.loc 2 1552 5 is_stmt 1
	.loc 2 1552 10 is_stmt 0
	lbu	a5,0(s6)
.LVL233:
	.loc 2 1566 5 is_stmt 1
	.loc 2 1566 7 is_stmt 0
	beq	a5,zero,.L97
	.loc 2 1569 9 is_stmt 1
	lui	a4,%hi(.LC43)
	addi	a4,a4,%lo(.LC43)
	li	a3,1569
	addi	a2,s1,%lo(.LC3)
	li	a1,1
	mv	a0,s11
	.loc 2 1570 15 is_stmt 0
	li	s0,-28672
.LVL234:
	.loc 2 1569 9
	call	mbedtls_debug_print_msg
.LVL235:
	.loc 2 1570 9 is_stmt 1
	.loc 2 1570 15 is_stmt 0
	addi	s0,s0,-128
	j	.L14
.LVL236:
.L97:
	.loc 2 1576 5 is_stmt 1
	.loc 2 1576 8 is_stmt 0
	lw	s7,64(s11)
	.loc 2 1576 50
	mv	a0,s5
	call	mbedtls_ssl_ciphersuite_from_id
.LVL237:
	.loc 2 1576 48
	sw	a0,0(s7)
	.loc 2 1578 5 is_stmt 1
	.loc 2 1578 33 is_stmt 0
	lw	a5,64(s11)
	lw	a1,0(a5)
	.loc 2 1578 7
	bne	a1,zero,.L98
	.loc 2 1580 9 is_stmt 1
	lui	a4,%hi(.LC44)
	mv	a5,s5
	addi	a4,a4,%lo(.LC44)
	li	a3,1580
.LVL238:
.L279:
.LBE123:
.LBE138:
	.loc 2 3399 12 is_stmt 0
	addi	a2,s1,%lo(.LC3)
	li	a1,1
	mv	a0,s11
	call	mbedtls_debug_print_msg
.LVL239:
	.loc 2 3400 12 is_stmt 1
	j	.L176
.LVL240:
.L98:
.LBB139:
.LBB124:
	.loc 2 1584 5
	mv	a0,s11
	call	mbedtls_ssl_optimize_checksum
.LVL241:
	.loc 2 1586 5
	lui	a4,%hi(.LC45)
	mv	a5,s3
	addi	a4,a4,%lo(.LC45)
	li	a3,1586
	addi	a2,s1,%lo(.LC3)
	li	a1,3
	mv	a0,s11
	call	mbedtls_debug_print_msg
.LVL242:
	.loc 2 1587 5
	.loc 2 1587 85 is_stmt 0
	addi	s7,s2,35
	.loc 2 1587 5
	lui	a4,%hi(.LC46)
	mv	a5,s7
	mv	a6,s3
	addi	a4,a4,%lo(.LC46)
	li	a3,1587
	addi	a2,s1,%lo(.LC3)
	li	a1,3
	mv	a0,s11
	call	mbedtls_debug_print_buf
.LVL243:
	.loc 2 1592 5 is_stmt 1
	.loc 2 1592 23 is_stmt 0
	lw	a5,48(s11)
	.loc 2 1592 7
	lw	a5,328(a5)
	bne	a5,zero,.L99
.L101:
	.loc 2 1601 9 is_stmt 1
	.loc 2 1601 19 is_stmt 0
	lw	a5,4(s11)
	.loc 2 1609 9
	mv	a2,s3
	mv	a1,s7
	.loc 2 1601 19
	addi	a5,a5,1
	sw	a5,4(s11)
	.loc 2 1602 9 is_stmt 1
	.loc 2 1602 12 is_stmt 0
	lw	a5,48(s11)
	.loc 2 1602 32
	sw	zero,328(a5)
	.loc 2 1606 9 is_stmt 1
	.loc 2 1606 12 is_stmt 0
	lw	a5,44(s11)
	.loc 2 1606 45
	sw	s5,0(a5)
	.loc 2 1607 9 is_stmt 1
	.loc 2 1607 12 is_stmt 0
	lw	a5,44(s11)
	.loc 2 1607 45
	sw	zero,4(a5)
	.loc 2 1608 9 is_stmt 1
	.loc 2 1608 12 is_stmt 0
	lw	a5,44(s11)
	.loc 2 1608 40
	sw	s3,8(a5)
	.loc 2 1609 9 is_stmt 1
	.loc 2 1609 39 is_stmt 0
	lw	a0,44(s11)
	.loc 2 1609 9
	addi	a0,a0,12
	call	memcpy
.LVL244:
.L100:
	.loc 2 1622 5 is_stmt 1
	.loc 2 1622 52 is_stmt 0
	lw	a5,48(s11)
	.loc 2 1622 5
	lw	a5,328(a5)
	bne	a5,zero,.L187
	lui	a5,%hi(.LC1)
	addi	a5,a5,%lo(.LC1)
.L102:
	lui	a4,%hi(.LC48)
	addi	a4,a4,%lo(.LC48)
	li	a3,1623
	addi	a2,s1,%lo(.LC3)
	li	a1,3
	mv	a0,s11
	call	mbedtls_debug_print_msg
.LVL245:
	.loc 2 1625 5 is_stmt 1
	lui	a4,%hi(.LC49)
	mv	a5,s5
	addi	a4,a4,%lo(.LC49)
	li	a3,1625
	addi	a2,s1,%lo(.LC3)
	li	a1,3
	mv	a0,s11
	call	mbedtls_debug_print_msg
.LVL246:
	.loc 2 1626 5
	lbu	a5,0(s6)
	lui	a4,%hi(.LC50)
	mv	a0,s11
	addi	a4,a4,%lo(.LC50)
	li	a3,1626
	addi	a2,s1,%lo(.LC3)
	li	a1,3
	call	mbedtls_debug_print_msg
.LVL247:
	.loc 2 1628 5
	.loc 2 1628 18 is_stmt 0
	lw	a5,44(s11)
	lw	a0,0(a5)
	call	mbedtls_ssl_ciphersuite_from_id
.LVL248:
	.loc 2 1629 5 is_stmt 1
	.loc 2 1629 7 is_stmt 0
	bne	a0,zero,.L103
	.loc 2 1636 9 is_stmt 1
	lui	a4,%hi(.LC29)
	addi	a4,a4,%lo(.LC29)
	li	a3,1636
	j	.L274
.LVL249:
.L99:
	.loc 2 1592 37 is_stmt 0
	beq	s3,zero,.L101
	.loc 2 1596 12
	lw	a0,44(s11)
	.loc 2 1592 47
	lw	a5,0(a0)
	bne	s5,a5,.L101
	.loc 2 1596 50
	lw	a5,4(a0)
	bne	a5,zero,.L101
	.loc 2 1597 53
	lw	a5,8(a0)
	bne	s3,a5,.L101
	.loc 2 1599 9
	mv	a2,s3
	mv	a1,s7
	addi	a0,a0,12
	call	memcmp
.LVL250:
	.loc 2 1598 45
	bne	a0,zero,.L101
	.loc 2 1613 9 is_stmt 1
	.loc 2 1613 20 is_stmt 0
	li	a5,12
	sw	a5,4(s11)
	.loc 2 1615 9 is_stmt 1
	.loc 2 1615 21 is_stmt 0
	mv	a0,s11
	call	mbedtls_ssl_derive_keys
.LVL251:
	mv	s7,a0
.LVL252:
	.loc 2 1615 11
	beq	a0,zero,.L100
	.loc 2 1617 13 is_stmt 1
	lui	a4,%hi(.LC47)
	mv	a5,a0
	addi	a4,a4,%lo(.LC47)
	li	a3,1617
	addi	a2,s1,%lo(.LC3)
	li	a1,1
	mv	a0,s11
.LVL253:
	call	mbedtls_debug_print_ret
.LVL254:
	.loc 2 1618 13
	.loc 2 1617 13 is_stmt 0
	mv	s0,s7
	j	.L14
.LVL255:
.L187:
	.loc 2 1622 5
	lui	a5,%hi(.LC0)
	addi	a5,a5,%lo(.LC0)
	j	.L102
.LVL256:
.L103:
	.loc 2 1640 5 is_stmt 1
	lw	a5,4(a0)
	lui	a4,%hi(.LC51)
	addi	a4,a4,%lo(.LC51)
	li	a3,1640
	addi	a2,s1,%lo(.LC3)
	li	a1,3
	mv	a0,s11
.LVL257:
	call	mbedtls_debug_print_msg
.LVL258:
	.loc 2 1642 5
	.loc 2 1645 40 is_stmt 0
	lw	a4,12(s11)
	lw	a5,0(s11)
	slli	a4,a4,2
	add	a5,a5,a4
	lw	a5,0(a5)
.LVL259:
.L105:
	.loc 2 1643 5 is_stmt 1
	.loc 2 1645 9
	.loc 2 1645 56 is_stmt 0
	lw	a3,0(a5)
	.loc 2 1645 11
	bne	a3,zero,.L104
	.loc 2 1647 13 is_stmt 1
	lui	a4,%hi(.LC29)
	addi	a4,a4,%lo(.LC29)
	li	a3,1647
	j	.L274
.L104:
	.loc 2 1651 9
	.loc 2 1652 16 is_stmt 0
	lw	a4,44(s11)
	addi	a5,a5,4
	.loc 2 1651 11
	lw	a2,0(a4)
	bne	a3,a2,.L105
	.loc 2 1658 5 is_stmt 1
	.loc 2 1667 5
	.loc 2 1667 41 is_stmt 0
	sw	zero,4(a4)
	.loc 2 1669 5 is_stmt 1
	.loc 2 1671 5 is_stmt 0
	lui	a4,%hi(.LC52)
	.loc 2 1669 20
	addi	s3,s3,40
.LVL260:
	.loc 2 1671 5
	mv	a5,s4
	addi	a4,a4,%lo(.LC52)
	li	a3,1671
	addi	a2,s1,%lo(.LC3)
	li	a1,2
	mv	a0,s11
.LBB110:
	.loc 2 1686 9
	li	s5,65536
.LBE110:
	.loc 2 1669 9
	add	s2,s2,s3
.LVL261:
	.loc 2 1671 5 is_stmt 1
	call	mbedtls_debug_print_msg
.LVL262:
	.loc 2 1673 5
.LBB119:
	.loc 2 1686 9 is_stmt 0
	addi	s5,s5,-255
	.loc 2 1689 13
	lui	s10,%hi(.LC53)
	lui	s6,%hi(.LC3)
.LVL263:
.L106:
.LBE119:
	.loc 2 1673 10
	bne	s4,zero,.L120
	.loc 2 1821 5 is_stmt 1
	.loc 2 1821 7 is_stmt 0
	lw	a5,188(s11)
	bne	a5,zero,.L121
	.loc 2 1822 47
	lw	a5,0(s11)
	.loc 2 1821 40
	li	a4,32
	.loc 2 1822 47
	lhu	a5,116(a5)
	.loc 2 1821 40
	andi	a5,a5,48
	bne	a5,a4,.L121
	.loc 2 1824 9 is_stmt 1
	lui	a4,%hi(.LC59)
	addi	a4,a4,%lo(.LC59)
	li	a3,1824
	addi	a2,s1,%lo(.LC3)
	j	.L264
.L120:
.LBB120:
	.loc 2 1675 9
	lbu	a4,1(s2)
	lbu	a5,0(s2)
	lbu	s3,2(s2)
	slli	a4,a4,8
	or	a4,a4,a5
	slli	a5,a4,8
	srli	a4,a4,8
	or	a4,a5,a4
	slli	a5,a4,16
	lbu	a4,3(s2)
	srli	a5,a5,16
.LVL264:
	.loc 2 1677 9
	slli	a4,a4,8
	or	a4,a4,s3
	slli	s3,a4,8
	srli	a4,a4,8
	or	a4,s3,a4
	slli	s3,a4,16
	srli	s3,s3,16
.LVL265:
	.loc 2 1680 9
	.loc 2 1680 22 is_stmt 0
	addi	s7,s3,4
	.loc 2 1680 11
	bleu	s7,s4,.L107
	.loc 2 1682 13 is_stmt 1
	lui	a4,%hi(.LC29)
	addi	a4,a4,%lo(.LC29)
	li	a3,1682
	j	.L274
.L107:
	.loc 2 1686 9
	li	a4,16
	beq	a5,a4,.L108
	bgtu	a5,a4,.L109
	li	a4,1
	beq	a5,a4,.L110
.L111:
	.loc 2 1804 13
	lui	a4,%hi(.LC58)
	addi	a4,a4,%lo(.LC58)
	li	a3,1805
	addi	a2,s1,%lo(.LC3)
	li	a1,3
	mv	a0,s11
	call	mbedtls_debug_print_msg
.LVL266:
	j	.L115
.LVL267:
.L109:
	.loc 2 1686 9 is_stmt 0
	li	a4,35
	beq	a5,a4,.L112
	bne	a5,s5,.L111
	.loc 2 1689 13 is_stmt 1
	addi	a4,s10,%lo(.LC53)
	li	a3,1689
	addi	a2,s6,%lo(.LC3)
	li	a1,3
	mv	a0,s11
	call	mbedtls_debug_print_msg
.LVL268:
	.loc 2 1694 13
.LBB111:
.LBB112:
	.loc 2 1058 5
	.loc 2 1082 9
	.loc 2 1082 11 is_stmt 0
	li	a5,1
	bne	s3,a5,.L113
	.loc 2 1082 22
	lbu	a5,4(s2)
	beq	a5,zero,.L114
.L113:
	.loc 2 1084 13 is_stmt 1
	lui	a4,%hi(.LC54)
	addi	a4,a4,%lo(.LC54)
	li	a3,1084
	addi	a2,s6,%lo(.LC3)
.LVL269:
.L264:
	li	a1,1
	mv	a0,s11
	call	mbedtls_debug_print_msg
.LVL270:
	.loc 2 1086 13
	.loc 2 1086 25 is_stmt 0
	mv	a0,s11
	call	mbedtls_ssl_send_fatal_handshake_failure
.LVL271:
	mv	s0,a0
.LVL272:
	.loc 2 1086 15
	bne	a0,zero,.L14
	j	.L270
.LVL273:
.L114:
	.loc 2 1092 9 is_stmt 1
	.loc 2 1092 35 is_stmt 0
	sw	s3,188(s11)
	.loc 2 1095 5 is_stmt 1
.LVL274:
.L115:
.LBE112:
.LBE111:
	.loc 2 1808 9
	.loc 2 1808 17 is_stmt 0
	sub	s3,s4,s3
.LVL275:
	addi	s4,s3,-4
.LVL276:
	.loc 2 1809 9 is_stmt 1
	.loc 2 1811 11 is_stmt 0
	li	a5,2
	.loc 2 1811 25
	addi	s3,s3,-5
	.loc 2 1809 13
	add	s2,s2,s7
.LVL277:
	.loc 2 1811 9 is_stmt 1
	.loc 2 1811 11 is_stmt 0
	bgtu	s3,a5,.L106
	.loc 2 1813 13 is_stmt 1
	lui	a4,%hi(.LC29)
	addi	a4,a4,%lo(.LC29)
	li	a3,1813
	j	.L274
.LVL278:
.L110:
	.loc 2 1702 13 is_stmt 0
	lui	a4,%hi(.LC55)
	addi	a4,a4,%lo(.LC55)
	li	a3,1702
	addi	a2,s1,%lo(.LC3)
	li	a1,3
	mv	a0,s11
	sw	a5,28(sp)
	.loc 2 1702 13 is_stmt 1
	call	mbedtls_debug_print_msg
.LVL279:
	.loc 2 1704 13
	.loc 2 1704 25 is_stmt 0
	lw	a3,0(s11)
.LVL280:
.LBB113:
.LBB114:
	.loc 2 1107 5 is_stmt 1
	.loc 2 1107 29 is_stmt 0
	lhu	a4,116(a3)
	.loc 2 1107 7
	andi	a4,a4,448
	beq	a4,zero,.L270
	.loc 2 1107 34
	lw	a5,28(sp)
	bne	s3,a5,.L270
	.loc 2 1109 28
	lw	a5,116(a3)
	.loc 2 1108 18
	lbu	a4,4(s2)
	.loc 2 1109 28
	srli	a5,a5,6
	.loc 2 1108 18
	andi	a5,a5,7
	beq	a4,a5,.L115
	j	.L270
.LVL281:
.L112:
.LBE114:
.LBE113:
	.loc 2 1754 13 is_stmt 1
	lui	a5,%hi(.LC56)
.LVL282:
	addi	a4,a5,%lo(.LC56)
	li	a3,1754
	addi	a2,s1,%lo(.LC3)
	li	a1,3
	mv	a0,s11
	call	mbedtls_debug_print_msg
.LVL283:
	.loc 2 1756 13
.LBB115:
.LBB116:
	.loc 2 1182 5
	.loc 2 1182 36 is_stmt 0
	lw	a5,0(s11)
	lhu	a5,116(a5)
	.loc 2 1182 7
	andi	a5,a5,512
	beq	a5,zero,.L270
	.loc 2 1182 41
	bne	s3,zero,.L270
	.loc 2 1188 5 is_stmt 1
	.loc 2 1190 5
	.loc 2 1190 8 is_stmt 0
	lw	a5,48(s11)
	.loc 2 1190 40
	li	a4,1
	sw	a4,344(a5)
	.loc 2 1192 5 is_stmt 1
.LVL284:
	j	.L115
.LVL285:
.L108:
.LBE116:
.LBE115:
	.loc 2 1795 13
	lui	a5,%hi(.LC57)
.LVL286:
	addi	a4,a5,%lo(.LC57)
	li	a3,1795
	addi	a2,s1,%lo(.LC3)
	li	a1,3
	mv	a0,s11
	call	mbedtls_debug_print_msg
.LVL287:
	.loc 2 1797 13
.LBB117:
.LBB118:
	.loc 2 1272 5
	.loc 2 1273 5
	.loc 2 1276 5
	.loc 2 1276 18 is_stmt 0
	lw	a5,0(s11)
	lw	s8,96(a5)
	.loc 2 1276 7
	beq	s8,zero,.L270
	.loc 2 1290 5 is_stmt 1
	.loc 2 1290 7 is_stmt 0
	li	a5,3
	bleu	s3,a5,.L270
	.loc 2 1293 5 is_stmt 1
	.loc 2 1293 14 is_stmt 0
	lbu	a5,5(s2)
	lbu	a3,4(s2)
	slli	a5,a5,8
	or	a5,a5,a3
	slli	a3,a5,8
	srli	a5,a5,8
	or	a5,a3,a5
	slli	a5,a5,16
	srli	a5,a5,16
.LVL288:
	.loc 2 1294 5 is_stmt 1
	.loc 2 1294 25 is_stmt 0
	addi	a3,s3,-2
	.loc 2 1294 7
	bne	a5,a3,.L270
	.loc 2 1297 5 is_stmt 1
	.loc 2 1297 14 is_stmt 0
	lbu	s9,6(s2)
.LVL289:
	.loc 2 1298 5 is_stmt 1
	.loc 2 1298 30 is_stmt 0
	addi	a3,s3,-3
	.loc 2 1298 7
	bne	s9,a3,.L270
	.loc 2 1305 25
	addi	a5,s2,7
.LVL290:
	sw	a5,28(sp)
.LVL291:
.L117:
	.loc 2 1302 36
	lw	a0,0(s8)
	.loc 2 1302 5
	beq	a0,zero,.L270
	.loc 2 1304 9 is_stmt 1
	.loc 2 1304 25 is_stmt 0
	call	strlen
.LVL292:
	.loc 2 1304 11
	bne	s9,a0,.L118
	.loc 2 1305 13
	lw	a1,0(s8)
	lw	a0,28(sp)
	mv	a2,s9
	call	memcmp
.LVL293:
	.loc 2 1304 38
	bne	a0,zero,.L118
	.loc 2 1307 13 is_stmt 1
	.loc 2 1307 32 is_stmt 0
	lw	a5,0(s8)
	.loc 2 1307 30
	sw	a5,184(s11)
	.loc 2 1308 13 is_stmt 1
.LVL294:
	j	.L115
.LVL295:
.L118:
	.loc 2 1302 48 is_stmt 0
	addi	s8,s8,4
.LVL296:
	j	.L117
.LVL297:
.L121:
.LBE118:
.LBE117:
.LBE120:
	.loc 2 1859 5 is_stmt 1
	lui	a4,%hi(.LC31)
	addi	a4,a4,%lo(.LC31)
	li	a3,1859
	j	.L266
.LVL298:
.L35:
.LBE124:
.LBE139:
	.loc 2 3328 12
	.loc 2 3328 18 is_stmt 0
	mv	a0,s11
	call	mbedtls_ssl_parse_certificate
.LVL299:
	j	.L177
.L34:
	.loc 2 3332 12 is_stmt 1
.LVL300:
.LBB140:
.LBB128:
	.loc 2 2194 5
	.loc 2 2195 5
	.loc 2 2195 38 is_stmt 0
	lw	a5,64(s11)
	.loc 2 2198 5
	lui	a4,%hi(.LC60)
	li	s2,4096
	.loc 2 2195 38
	lw	s5,0(a5)
.LVL301:
	.loc 2 2196 5 is_stmt 1
	.loc 2 2198 5
	addi	a4,a4,%lo(.LC60)
	addi	a3,s2,-1898
	addi	a2,s1,%lo(.LC3)
	li	a1,2
	mv	a0,s11
	call	mbedtls_debug_print_msg
.LVL302:
	.loc 2 2201 5
	.loc 2 2201 7 is_stmt 0
	lbu	a5,10(s5)
	li	s4,1
	bne	a5,s4,.L122
	.loc 2 2203 9 is_stmt 1
	lui	a4,%hi(.LC61)
	addi	a4,a4,%lo(.LC61)
	addi	a3,s2,-1893
.LVL303:
.L278:
.LBE128:
.LBE140:
.LBB141:
.LBB142:
	.loc 2 3047 9 is_stmt 0
	addi	a2,s1,%lo(.LC3)
	li	a1,2
	mv	a0,s11
	call	mbedtls_debug_print_msg
.LVL304:
	.loc 2 3048 9 is_stmt 1
	.loc 2 3048 19 is_stmt 0
	lw	a5,4(s11)
	addi	a5,a5,1
.L272:
.LBE142:
.LBE141:
	.loc 2 3391 23
	sw	a5,4(s11)
	.loc 2 3392 12 is_stmt 1
	j	.L14
.LVL305:
.L122:
.LBB147:
.LBB129:
	.loc 2 2207 5
	.loc 2 2208 5
	.loc 2 2231 5
	.loc 2 2231 17 is_stmt 0
	mv	a0,s11
	call	mbedtls_ssl_read_record
.LVL306:
	mv	s0,a0
.LVL307:
	.loc 2 2231 7
	beq	a0,zero,.L123
	.loc 2 2233 9 is_stmt 1
	lui	a4,%hi(.LC28)
	mv	a5,a0
	addi	a4,a4,%lo(.LC28)
	addi	a3,s2,-1863
	j	.L265
.L123:
	.loc 2 2237 5
	.loc 2 2237 7 is_stmt 0
	lw	a4,108(s11)
	li	a5,22
	beq	a4,a5,.L124
	.loc 2 2239 9 is_stmt 1
	lui	a4,%hi(.LC62)
	addi	a4,a4,%lo(.LC62)
	addi	a3,s2,-1857
	j	.L267
.L124:
	.loc 2 2247 5
	.loc 2 2247 12 is_stmt 0
	lw	s3,100(s11)
	.loc 2 2247 7
	li	a5,12
	lbu	a4,0(s3)
	beq	a4,a5,.L125
	.loc 2 2249 9 is_stmt 1
	.loc 2 2249 11 is_stmt 0
	lbu	a5,10(s5)
	li	a4,5
	andi	a5,a5,253
	bne	a5,a4,.L126
	.loc 2 2252 13 is_stmt 1
	.loc 2 2514 15 is_stmt 0
	lw	a5,4(s11)
	.loc 2 2516 5
	lui	a4,%hi(.LC63)
	.loc 2 2252 30
	sw	s4,136(s11)
	.loc 2 2253 13 is_stmt 1
.LDL1:
	.loc 2 2514 5
	.loc 2 2514 15 is_stmt 0
	addi	a5,a5,1
	sw	a5,4(s11)
	.loc 2 2516 5 is_stmt 1
	addi	a4,a4,%lo(.LC63)
	addi	a3,s2,-1580
	j	.L266
.L126:
	.loc 2 2256 9
	lui	a4,%hi(.LC62)
	addi	a4,a4,%lo(.LC62)
	addi	a3,s2,-1840
	j	.L267
.L125:
	.loc 2 2260 5
	.loc 2 2260 23 is_stmt 0
	lw	a0,0(s11)
	call	mbedtls_ssl_hs_hdr_len.isra.0
.LVL308:
	.loc 2 2261 5 is_stmt 1
	.loc 2 2262 5
	.loc 2 2262 83 is_stmt 0
	lw	a6,128(s11)
	.loc 2 2262 5
	lui	a4,%hi(.LC64)
	add	a5,s3,a0
.LVL309:
	sub	a6,a6,a0
	addi	a4,a4,%lo(.LC64)
	addi	a3,s2,-1834
	addi	a2,s1,%lo(.LC3)
	li	a1,3
	mv	a0,s11
	call	mbedtls_debug_print_buf
.LVL310:
	.loc 2 2331 9 is_stmt 1
	lui	a4,%hi(.LC65)
	addi	a4,a4,%lo(.LC65)
	addi	a3,s2,-1765
.LVL311:
.L273:
.LBE129:
.LBE147:
.LBB148:
.LBB145:
	.loc 2 3133 9 is_stmt 0
	addi	a2,s1,%lo(.LC3)
	li	a1,1
	mv	a0,s11
	.loc 2 3134 15
	li	s0,-28672
	.loc 2 3133 9
	call	mbedtls_debug_print_msg
.LVL312:
	.loc 2 3134 9 is_stmt 1
	.loc 2 3134 15 is_stmt 0
	addi	s0,s0,1024
	j	.L14
.L33:
.LBE145:
.LBE148:
	.loc 2 3336 12 is_stmt 1
.LVL313:
.LBB149:
.LBB150:
	.loc 2 2550 5
	.loc 2 2551 5
	.loc 2 2552 5
	.loc 2 2553 5
	.loc 2 2554 5
	.loc 2 2554 38 is_stmt 0
	lw	a5,64(s11)
	.loc 2 2556 5
	lui	a4,%hi(.LC66)
	li	s2,4096
	.loc 2 2554 38
	lw	s3,0(a5)
.LVL314:
	.loc 2 2556 5 is_stmt 1
	addi	a4,a4,%lo(.LC66)
	addi	a3,s2,-1540
	addi	a2,s1,%lo(.LC3)
	li	a1,2
	mv	a0,s11
	call	mbedtls_debug_print_msg
.LVL315:
	.loc 2 2558 5
	.loc 2 2558 25 is_stmt 0
	lbu	a4,10(s3)
	.loc 2 2558 7
	li	a3,3
	addi	a5,a4,-5
	andi	a5,a5,0xff
	bleu	a5,a3,.L127
	.loc 2 2561 74
	li	a5,11
	bne	a4,a5,.L128
.L127:
	.loc 2 2564 9 is_stmt 1
	lui	a4,%hi(.LC67)
	li	a3,4096
	addi	a4,a4,%lo(.LC67)
	addi	a3,a3,-1532
	j	.L278
.L128:
	.loc 2 2569 5
	.loc 2 2569 7 is_stmt 0
	lw	a5,136(s11)
	bne	a5,zero,.L129
	.loc 2 2571 9 is_stmt 1
	.loc 2 2571 21 is_stmt 0
	mv	a0,s11
	call	mbedtls_ssl_read_record
.LVL316:
	mv	s3,a0
.LVL317:
	.loc 2 2571 11
	beq	a0,zero,.L130
	.loc 2 2573 13 is_stmt 1
	lui	a4,%hi(.LC28)
	mv	a5,a0
	addi	a4,a4,%lo(.LC28)
	addi	a3,s2,-1523
.LVL318:
.L277:
.LBE150:
.LBE149:
.LBB153:
.LBB154:
	.loc 2 2695 13 is_stmt 0
	addi	a2,s1,%lo(.LC3)
	li	a1,1
	mv	a0,s11
	call	mbedtls_debug_print_ret
.LVL319:
	.loc 2 2696 13 is_stmt 1
	.loc 2 2695 13 is_stmt 0
	mv	s0,s3
	j	.L14
.LVL320:
.L130:
.LBE154:
.LBE153:
.LBB156:
.LBB152:
	.loc 2 2577 9 is_stmt 1
	.loc 2 2577 11 is_stmt 0
	lw	a4,108(s11)
	li	a5,22
	beq	a4,a5,.L131
	.loc 2 2579 13 is_stmt 1
	lui	a4,%hi(.LC68)
	addi	a4,a4,%lo(.LC68)
	addi	a3,s2,-1517
	j	.L267
.L131:
	.loc 2 2583 9
	.loc 2 2583 26 is_stmt 0
	li	a5,1
	sw	a5,136(s11)
.LVL321:
.L129:
	.loc 2 2586 5 is_stmt 1
	.loc 2 2587 15 is_stmt 0
	lw	a5,4(s11)
	.loc 2 2586 22
	sw	zero,176(s11)
	.loc 2 2587 5 is_stmt 1
	.loc 2 2587 15 is_stmt 0
	addi	a5,a5,1
	sw	a5,4(s11)
	.loc 2 2589 5 is_stmt 1
	.loc 2 2589 20 is_stmt 0
	lw	a5,100(s11)
	.loc 2 2589 7
	lbu	a4,0(a5)
	li	a5,13
	bne	a4,a5,.L188
	.loc 2 2590 9 is_stmt 1
	.loc 2 2590 25 is_stmt 0
	li	a5,1
	sw	a5,176(s11)
	.loc 2 2592 5 is_stmt 1
	lui	a5,%hi(.LC0)
	addi	a5,a5,%lo(.LC0)
.L132:
	lui	a4,%hi(.LC69)
	li	s7,4096
	addi	a4,a4,%lo(.LC69)
	addi	a3,s7,-1503
	addi	a2,s1,%lo(.LC3)
	li	a1,3
	mv	a0,s11
	call	mbedtls_debug_print_msg
.LVL322:
	.loc 2 2595 5
	.loc 2 2595 7 is_stmt 0
	lw	a5,176(s11)
	beq	a5,zero,.L133
	.loc 2 2598 5 is_stmt 1
	.loc 2 2627 25 is_stmt 0
	lw	a0,0(s11)
	.loc 2 2624 9
	lw	s4,100(s11)
	.loc 2 2598 22
	sw	zero,136(s11)
	.loc 2 2624 5 is_stmt 1
.LVL323:
	.loc 2 2627 5
	.loc 2 2627 25 is_stmt 0
	call	mbedtls_ssl_hs_hdr_len.isra.0
.LVL324:
	.loc 2 2627 24
	add	a5,s4,a0
	.loc 2 2627 19
	lbu	s2,0(a5)
.LVL325:
	.loc 2 2628 5 is_stmt 1
	.loc 2 2630 5
	.loc 2 2630 7 is_stmt 0
	lw	a4,128(s11)
	.loc 2 2630 59
	add	a0,a0,s2
	addi	a5,a0,2
	.loc 2 2630 7
	bgeu	a4,a5,.L134
	.loc 2 2632 9 is_stmt 1
	lui	a4,%hi(.LC68)
	addi	a4,a4,%lo(.LC68)
	addi	a3,s7,-1464
.LVL326:
.L276:
	.loc 2 2669 9 is_stmt 0
	addi	a2,s1,%lo(.LC3)
	li	a1,1
	mv	a0,s11
	.loc 2 2670 15
	li	s0,-32768
	.loc 2 2669 9
	call	mbedtls_debug_print_msg
.LVL327:
	.loc 2 2670 9 is_stmt 1
	.loc 2 2670 15 is_stmt 0
	addi	s0,s0,1408
	j	.L14
.LVL328:
.L188:
	.loc 2 2592 5
	lui	a5,%hi(.LC1)
	addi	a5,a5,%lo(.LC1)
	j	.L132
.LVL329:
.L134:
	.loc 2 2638 5 is_stmt 1
	.loc 2 2638 7 is_stmt 0
	lw	a3,12(s11)
	li	a4,3
	bne	a3,a4,.L135
	add	a4,s4,a0
	lbu	s5,1(a4)
	add	a5,s4,a5
	lbu	a5,0(a5)
.LBB151:
	.loc 2 2643 24
	addi	a0,a0,3
	slli	s5,s5,8
	add	s3,s4,a0
	or	s5,s5,a5
	.loc 2 2640 9 is_stmt 1
.LVL330:
	.loc 2 2643 9
	.loc 2 2644 9
	.loc 2 2646 9
	.loc 2 2643 24 is_stmt 0
	mv	s6,s3
	.loc 2 2648 13
	lui	s8,%hi(.LC70)
	addi	s7,s7,-1448
.LVL331:
.L136:
	.loc 2 2646 9
	sub	a5,s6,s3
	bgtu	s5,a5,.L137
	.loc 2 2652 9 is_stmt 1
	.loc 2 2654 29 is_stmt 0
	lw	a0,0(s11)
	.loc 2 2652 11
	addi	s2,s2,2
.LVL332:
	add	s2,s2,s5
.LVL333:
	.loc 2 2654 9 is_stmt 1
	.loc 2 2654 29 is_stmt 0
	call	mbedtls_ssl_hs_hdr_len.isra.0
.LVL334:
	.loc 2 2654 63
	addi	a5,s2,2
	add	a0,a5,a0
	.loc 2 2654 11
	lw	a5,128(s11)
	bgeu	a5,a0,.L135
	.loc 2 2656 13 is_stmt 1
	lui	a4,%hi(.LC68)
	li	a3,4096
	addi	a4,a4,%lo(.LC68)
	addi	a3,a3,-1440
	j	.L276
.L137:
	.loc 2 2648 13
	lbu	a6,1(s6)
	lbu	a5,0(s6)
	addi	a4,s8,%lo(.LC70)
	mv	a3,s7
	addi	a2,s1,%lo(.LC3)
	li	a1,3
	mv	a0,s11
	call	mbedtls_debug_print_msg
.LVL335:
	addi	s6,s6,2
	j	.L136
.L135:
.LBE151:
	.loc 2 2663 5
	.loc 2 2663 22 is_stmt 0
	lw	a0,0(s11)
	call	mbedtls_ssl_hs_hdr_len.isra.0
.LVL336:
	.loc 2 2663 56
	add	a0,a0,s2
.LVL337:
	.loc 2 2666 5 is_stmt 1
	.loc 2 2667 5
	.loc 2 2663 21 is_stmt 0
	add	a5,s4,a0
.LVL338:
	lbu	s2,1(a5)
.LVL339:
	.loc 2 2664 21
	lbu	a5,2(a5)
.LVL340:
	.loc 2 2667 60
	addi	a0,a0,3
.LVL341:
	.loc 2 2663 61
	slli	s2,s2,8
	.loc 2 2664 14
	or	s2,s2,a5
	.loc 2 2667 7
	lw	a5,128(s11)
	.loc 2 2667 60
	add	a0,s2,a0
.LVL342:
	.loc 2 2667 7
	beq	a5,a0,.L133
	.loc 2 2669 9 is_stmt 1
	lui	a4,%hi(.LC68)
	li	a3,4096
	addi	a4,a4,%lo(.LC68)
	addi	a3,a3,-1427
	j	.L276
.LVL343:
.L133:
.LDL2:
	.loc 2 2674 5
	lui	a4,%hi(.LC71)
	li	a3,4096
	addi	a4,a4,%lo(.LC71)
	addi	a3,a3,-1422
	j	.L266
.LVL344:
.L32:
.LBE152:
.LBE156:
	.loc 2 3340 12
.LBB157:
.LBB155:
	.loc 2 2687 5
	.loc 2 2689 5
	lui	a4,%hi(.LC72)
	li	s2,4096
	addi	a4,a4,%lo(.LC72)
	addi	a3,s2,-1407
	addi	a2,s1,%lo(.LC3)
	li	a1,2
	mv	a0,s11
	call	mbedtls_debug_print_msg
.LVL345:
	.loc 2 2691 5
	.loc 2 2691 7 is_stmt 0
	lw	a5,136(s11)
	bne	a5,zero,.L138
	.loc 2 2693 9 is_stmt 1
	.loc 2 2693 21 is_stmt 0
	mv	a0,s11
	call	mbedtls_ssl_read_record
.LVL346:
	mv	s3,a0
.LVL347:
	.loc 2 2693 11
	beq	a0,zero,.L139
	.loc 2 2695 13 is_stmt 1
	lui	a4,%hi(.LC28)
	mv	a5,a0
	addi	a4,a4,%lo(.LC28)
	addi	a3,s2,-1401
	j	.L277
.L139:
	.loc 2 2699 9
	.loc 2 2699 11 is_stmt 0
	lw	a4,108(s11)
	li	a5,22
	beq	a4,a5,.L138
	.loc 2 2701 13 is_stmt 1
	lui	a4,%hi(.LC73)
	addi	a4,a4,%lo(.LC73)
	addi	a3,s2,-1395
	j	.L267
.LVL348:
.L138:
	.loc 2 2705 5
	.loc 2 2707 26 is_stmt 0
	lw	s2,0(s11)
	.loc 2 2705 22
	sw	zero,136(s11)
	.loc 2 2707 5 is_stmt 1
	.loc 2 2707 26 is_stmt 0
	mv	a0,s2
	call	mbedtls_ssl_hs_hdr_len.isra.0
.LVL349:
	.loc 2 2707 7
	lw	a5,128(s11)
	bne	a5,a0,.L140
	.loc 2 2708 20
	lw	a5,100(s11)
	.loc 2 2707 56
	lbu	a4,0(a5)
	li	a5,14
	beq	a4,a5,.L141
.L140:
	.loc 2 2710 9 is_stmt 1
	lui	a4,%hi(.LC73)
	li	a3,4096
	addi	a4,a4,%lo(.LC73)
	addi	a3,a3,-1386
	addi	a2,s1,%lo(.LC3)
	li	a1,1
	mv	a0,s11
	.loc 2 2711 15 is_stmt 0
	li	s0,-32768
	.loc 2 2710 9
	call	mbedtls_debug_print_msg
.LVL350:
	.loc 2 2711 9 is_stmt 1
	.loc 2 2711 15 is_stmt 0
	addi	s0,s0,1152
	j	.L14
.L141:
	.loc 2 2714 5 is_stmt 1
	.loc 2 2714 15 is_stmt 0
	lw	a5,4(s11)
	addi	a5,a5,1
	sw	a5,4(s11)
	.loc 2 2717 5 is_stmt 1
	.loc 2 2717 30 is_stmt 0
	lhu	a5,116(s2)
	.loc 2 2717 7
	andi	a5,a5,2
	beq	a5,zero,.L142
	.loc 2 2718 9 is_stmt 1
	mv	a0,s11
	call	mbedtls_ssl_recv_flight_completed
.LVL351:
.L142:
	.loc 2 2721 5
	lui	a4,%hi(.LC74)
	li	a3,4096
	addi	a4,a4,%lo(.LC74)
	addi	a3,a3,-1375
	j	.L266
.LVL352:
.L31:
.LBE155:
.LBE157:
	.loc 2 3351 12
	.loc 2 3351 18 is_stmt 0
	mv	a0,s11
	call	mbedtls_ssl_write_certificate
.LVL353:
	j	.L177
.L30:
	.loc 2 3355 12 is_stmt 1
.LVL354:
.LBB158:
.LBB159:
	.loc 2 2728 5
	.loc 2 2729 5
	.loc 2 2730 5
	.loc 2 2730 38 is_stmt 0
	lw	a5,64(s11)
	.loc 2 2732 5
	lui	a4,%hi(.LC75)
	li	s3,4096
	.loc 2 2730 38
	lw	s0,0(a5)
.LVL355:
	.loc 2 2732 5 is_stmt 1
	addi	a4,a4,%lo(.LC75)
	addi	a3,s3,-1364
	addi	a2,s1,%lo(.LC3)
	li	a1,2
	mv	a0,s11
	call	mbedtls_debug_print_msg
.LVL356:
	.loc 2 2926 5
	.loc 2 2926 7 is_stmt 0
	lbu	a4,10(s0)
	li	a5,1
	bne	a4,a5,.L143
	.loc 2 2928 9 is_stmt 1
.LVL357:
	.loc 2 2929 9
.LBB160:
.LBB161:
	.loc 2 2019 5
	.loc 2 2020 5
	.loc 2 2036 35 is_stmt 0
	lw	a5,0(s11)
	.loc 2 2021 27
	lw	s0,48(s11)
.LVL358:
	.loc 2 2020 48
	lw	s2,12(s11)
	.loc 2 2037 33
	lw	a2,116(a5)
	.loc 2 2036 5
	lbu	a1,113(a5)
	lbu	a0,112(a5)
	.loc 2 2021 24
	addi	s4,s0,280
	.loc 2 2037 33
	srli	a2,a2,1
	.loc 2 2036 5
	mv	a3,s4
	andi	a2,a2,1
	call	mbedtls_ssl_write_version
.LVL359:
	.loc 2 2039 20
	lw	a5,0(s11)
	.loc 2 2039 17
	addi	a1,s0,282
	.loc 2 2020 48
	snez	s2,s2
	.loc 2 2039 17
	lw	a4,24(a5)
	lw	a0,28(a5)
	li	a2,46
	.loc 2 2020 48
	slli	s2,s2,1
.LVL360:
	.loc 2 2021 5 is_stmt 1
	.loc 2 2023 5
	.loc 2 2039 17 is_stmt 0
	jalr	a4
.LVL361:
	.loc 2 2023 16
	addi	s5,s2,4
	.loc 2 2036 5 is_stmt 1
	.loc 2 2039 5
	.loc 2 2039 17 is_stmt 0
	mv	s0,a0
.LVL362:
	.loc 2 2039 7
	beq	a0,zero,.L145
	.loc 2 2041 9 is_stmt 1
	lui	a4,%hi(.LC76)
	mv	a5,a0
	addi	a4,a4,%lo(.LC76)
	li	a3,2041
	j	.L265
.L145:
	.loc 2 2045 5
	.loc 2 2045 8 is_stmt 0
	lw	a5,48(s11)
	.loc 2 2045 28
	li	a4,48
	sw	a4,212(a5)
	.loc 2 2047 5 is_stmt 1
	.loc 2 2047 31 is_stmt 0
	lw	a5,44(s11)
	lw	a0,92(a5)
	.loc 2 2047 7
	bne	a0,zero,.L147
	.loc 2 2049 9 is_stmt 1
	lui	a4,%hi(.LC77)
	addi	a4,a4,%lo(.LC77)
	addi	a3,s3,-2047
	addi	a2,s1,%lo(.LC3)
	li	a1,2
	j	.L275
.L147:
	.loc 2 2056 5
	.loc 2 2056 11 is_stmt 0
	li	a1,1
	addi	a0,a0,188
	call	mbedtls_pk_can_do
.LVL363:
	.loc 2 2056 7
	bne	a0,zero,.L148
	.loc 2 2059 9 is_stmt 1
	lui	a4,%hi(.LC78)
	addi	a4,a4,%lo(.LC78)
	addi	a3,s3,-2037
	addi	a2,s1,%lo(.LC3)
	li	a1,1
	mv	a0,s11
	.loc 2 2060 15 is_stmt 0
	li	s0,-28672
.LVL364:
	.loc 2 2059 9
	call	mbedtls_debug_print_msg
.LVL365:
	.loc 2 2060 9 is_stmt 1
	.loc 2 2060 15 is_stmt 0
	addi	s0,s0,768
	j	.L14
.LVL366:
.L148:
	.loc 2 2063 5 is_stmt 1
	.loc 2 2063 60 is_stmt 0
	lw	a4,44(s11)
	.loc 2 2067 32
	lw	a5,0(s11)
	.loc 2 2063 17
	lw	a2,48(s11)
	lw	a0,92(a4)
	lw	a3,160(s11)
	lw	a7,28(a5)
	lw	a6,24(a5)
	lw	a2,212(a2)
	li	a5,16384
	sub	a5,a5,s5
	addi	a4,sp,48
.LVL367:
	add	a3,a3,s5
	mv	a1,s4
	addi	a0,a0,188
	call	mbedtls_pk_encrypt
.LVL368:
	mv	s0,a0
.LVL369:
	.loc 2 2063 7
	beq	a0,zero,.L149
	.loc 2 2069 9 is_stmt 1
	lui	a4,%hi(.LC79)
	mv	a5,a0
	addi	a4,a4,%lo(.LC79)
	addi	a3,s3,-2027
	j	.L265
.L149:
	.loc 2 2075 5
	.loc 2 2075 7 is_stmt 0
	li	a5,2
	bne	s2,a5,.L150
	lw	a5,48(sp)
	lw	a4,160(s11)
	.loc 2 2077 9 is_stmt 1
	.loc 2 2077 57 is_stmt 0
	srli	a3,a5,8
	.loc 2 2077 34
	sb	a3,4(a4)
	.loc 2 2078 9 is_stmt 1
	.loc 2 2078 12 is_stmt 0
	lw	a4,160(s11)
	.loc 2 2078 34
	sb	a5,5(a4)
	.loc 2 2079 9 is_stmt 1
	.loc 2 2079 15 is_stmt 0
	addi	a5,a5,2
	sw	a5,48(sp)
.LVL370:
.L150:
.LBE161:
.LBE160:
	.loc 2 2965 5 is_stmt 1
	.loc 2 2965 25 is_stmt 0
	lw	a5,48(sp)
	.loc 2 2967 21
	li	a4,16
	.loc 2 2971 17
	mv	a0,s11
	.loc 2 2965 25
	addi	a5,a5,4
	.loc 2 2965 21
	sw	a5,168(s11)
	.loc 2 2966 5 is_stmt 1
	.loc 2 2966 22 is_stmt 0
	li	a5,22
	sw	a5,164(s11)
	.loc 2 2967 5 is_stmt 1
	.loc 2 2967 8 is_stmt 0
	lw	a5,160(s11)
	.loc 2 2967 21
	sb	a4,0(a5)
	.loc 2 2969 5 is_stmt 1
	.loc 2 2969 15 is_stmt 0
	lw	a5,4(s11)
	addi	a5,a5,1
	sw	a5,4(s11)
	.loc 2 2971 5 is_stmt 1
	.loc 2 2971 17 is_stmt 0
	call	mbedtls_ssl_write_record
.LVL371:
	mv	s0,a0
.LVL372:
	.loc 2 2971 7
	beq	a0,zero,.L151
	.loc 2 2973 9 is_stmt 1
	lui	a4,%hi(.LC25)
	li	a3,4096
	mv	a5,a0
	addi	a4,a4,%lo(.LC25)
	addi	a3,a3,-1123
	j	.L265
.LVL373:
.L143:
	.loc 2 2960 9
	.loc 2 2961 9
	lui	a4,%hi(.LC65)
	addi	a4,a4,%lo(.LC65)
	addi	a3,s3,-1135
	j	.L273
.LVL374:
.L151:
	.loc 2 2977 5
	lui	a4,%hi(.LC80)
	li	a3,4096
	addi	a4,a4,%lo(.LC80)
	addi	a3,a3,-1119
	j	.L266
.LVL375:
.L29:
.LBE159:
.LBE158:
	.loc 2 3359 12
.LBB162:
.LBB146:
	.loc 2 3018 5
	.loc 2 3019 5
	.loc 2 3019 38 is_stmt 0
	lw	a5,64(s11)
	.loc 2 3026 5
	lui	a4,%hi(.LC81)
	li	s2,4096
	addi	a4,a4,%lo(.LC81)
	addi	a3,s2,-1070
	addi	a2,s1,%lo(.LC3)
	li	a1,2
	mv	a0,s11
	.loc 2 3019 38
	lw	s3,0(a5)
.LVL376:
	.loc 2 3020 5 is_stmt 1
	.loc 2 3020 12 is_stmt 0
	sw	zero,44(sp)
.LVL377:
	.loc 2 3021 5 is_stmt 1
	.loc 2 3022 5
	.loc 2 3023 5
	.loc 2 3024 5
	.loc 2 3026 5
	call	mbedtls_debug_print_msg
.LVL378:
	.loc 2 3028 5
	.loc 2 3028 17 is_stmt 0
	mv	a0,s11
	call	mbedtls_ssl_derive_keys
.LVL379:
	mv	s0,a0
.LVL380:
	.loc 2 3028 7
	beq	a0,zero,.L152
	.loc 2 3030 9 is_stmt 1
	lui	a4,%hi(.LC47)
	mv	a5,a0
	addi	a4,a4,%lo(.LC47)
	addi	a3,s2,-1066
	j	.L265
.L152:
	.loc 2 3034 5
	.loc 2 3034 25 is_stmt 0
	lbu	a4,10(s3)
	.loc 2 3034 7
	li	a3,3
	addi	a5,a4,-5
	andi	a5,a5,0xff
	bleu	a5,a3,.L154
	.loc 2 3037 72
	li	a5,11
	bne	a4,a5,.L155
.L154:
	.loc 2 3040 9 is_stmt 1
	lui	a4,%hi(.LC82)
	li	a3,4096
	addi	a4,a4,%lo(.LC82)
	addi	a3,a3,-1056
	j	.L278
.L155:
	.loc 2 3045 5
	.loc 2 3045 7 is_stmt 0
	lw	a5,176(s11)
	beq	a5,zero,.L156
.LVL381:
.LBB143:
.LBB144:
	.loc 1 418 5 is_stmt 1
	.loc 1 420 5
	.loc 1 420 12 is_stmt 0
	lw	s2,48(s11)
	.loc 1 420 7
	beq	s2,zero,.L157
	.loc 1 420 48
	lw	a5,8(s2)
	.loc 1 420 31
	bne	a5,zero,.L158
.L157:
	.loc 1 423 9 is_stmt 1
	.loc 1 423 18 is_stmt 0
	lw	a5,0(s11)
	lw	a5,76(a5)
.LVL382:
	.loc 1 425 5 is_stmt 1
	.loc 1 425 36 is_stmt 0
	beq	a5,zero,.L156
.LVL383:
.L158:
.LBE144:
.LBE143:
	.loc 2 3045 31
	lw	a5,0(a5)
	bne	a5,zero,.L159
.L156:
	.loc 2 3047 9 is_stmt 1
	lui	a4,%hi(.LC82)
	li	a3,4096
	addi	a4,a4,%lo(.LC82)
	addi	a3,a3,-1049
	j	.L278
.L159:
	.loc 2 3052 5
	.loc 2 3052 9 is_stmt 0
	mv	a0,s11
	call	mbedtls_ssl_own_key
.LVL384:
	.loc 2 3052 7
	bne	a0,zero,.L160
	.loc 2 3054 9 is_stmt 1
	lui	a4,%hi(.LC83)
	li	a3,4096
	addi	a4,a4,%lo(.LC83)
	addi	a3,a3,-1042
	addi	a2,s1,%lo(.LC3)
	li	a1,1
	mv	a0,s11
	.loc 2 3055 15 is_stmt 0
	li	s0,-28672
.LVL385:
	.loc 2 3054 9
	call	mbedtls_debug_print_msg
.LVL386:
	.loc 2 3055 9 is_stmt 1
	.loc 2 3055 15 is_stmt 0
	addi	s0,s0,-1536
	j	.L14
.LVL387:
.L160:
	.loc 2 3061 5 is_stmt 1
	lw	a5,200(s2)
	addi	a1,sp,48
.LVL388:
	mv	a0,s11
	jalr	a5
.LVL389:
	.loc 2 3096 5
	.loc 2 3096 7 is_stmt 0
	lw	a4,12(s11)
	li	a5,3
	bne	a4,a5,.L161
	.loc 2 3113 9 is_stmt 1
	.loc 2 3113 37 is_stmt 0
	lw	a5,64(s11)
	.loc 2 3113 11
	li	a4,7
	.loc 2 3113 55
	lw	a5,0(a5)
	lbu	a1,9(a5)
	lw	a5,160(s11)
	.loc 2 3113 11
	bne	a1,a4,.L162
	.loc 2 3116 13 is_stmt 1
.LVL390:
	.loc 2 3117 13
	.loc 2 3117 29 is_stmt 0
	li	a4,5
	sb	a4,4(a5)
.LVL391:
.L163:
	.loc 2 3124 27
	mv	a0,s11
	sw	a1,28(sp)
.LVL392:
	.loc 2 3124 9 is_stmt 1
	.loc 2 3124 27 is_stmt 0
	call	mbedtls_ssl_own_key
.LVL393:
	.loc 2 3124 12
	lw	s0,160(s11)
.LVL394:
	.loc 2 3124 27
	call	mbedtls_ssl_sig_from_pk
.LVL395:
	.loc 2 3124 25
	sb	a0,5(s0)
	.loc 2 3127 9 is_stmt 1
.LVL396:
	.loc 2 3128 9
	.loc 2 3137 5
	.loc 2 3137 17 is_stmt 0
	mv	a0,s11
	call	mbedtls_ssl_own_key
.LVL397:
	.loc 2 3139 29
	lw	a5,0(s11)
	.loc 2 3137 17
	lw	a4,160(s11)
	lw	a1,28(sp)
	lw	a7,28(a5)
	lw	a6,24(a5)
	addi	a4,a4,8
	addi	a5,sp,44
	li	a3,0
	addi	a2,sp,48
.LVL398:
	call	mbedtls_pk_sign
.LVL399:
	mv	s0,a0
.LVL400:
	.loc 2 3137 7
	beq	a0,zero,.L261
	.loc 2 3141 9 is_stmt 1
	lui	a4,%hi(.LC84)
	li	a3,4096
	mv	a5,a0
	addi	a4,a4,%lo(.LC84)
	addi	a3,a3,-955
	j	.L265
.LVL401:
.L162:
	.loc 2 3121 13
	.loc 2 3122 13
	.loc 2 3122 29 is_stmt 0
	li	a4,4
	sb	a4,4(a5)
	.loc 2 3121 20
	li	a1,6
	j	.L163
.LVL402:
.L161:
	.loc 2 3133 9 is_stmt 1
	lui	a4,%hi(.LC65)
	li	a3,4096
	addi	a4,a4,%lo(.LC65)
	addi	a3,a3,-963
	j	.L273
.LVL403:
.L261:
	.loc 2 3145 5
	.loc 2 3145 51 is_stmt 0
	lw	a5,44(sp)
	.loc 2 3145 8
	lw	a4,160(s11)
	.loc 2 3154 17
	mv	a0,s11
	.loc 2 3145 51
	srli	a3,a5,8
	.loc 2 3145 32
	sb	a3,6(a4)
	.loc 2 3146 5 is_stmt 1
	.loc 2 3146 8 is_stmt 0
	lw	a4,160(s11)
	.loc 2 3146 32
	sb	a5,7(a4)
	.loc 2 3148 5 is_stmt 1
	.loc 2 3148 29 is_stmt 0
	addi	a5,a5,8
	.loc 2 3148 21
	sw	a5,168(s11)
	.loc 2 3149 5 is_stmt 1
	.loc 2 3149 22 is_stmt 0
	li	a5,22
	sw	a5,164(s11)
	.loc 2 3150 5 is_stmt 1
	.loc 2 3150 8 is_stmt 0
	lw	a5,160(s11)
	.loc 2 3150 21
	li	a4,15
	sb	a4,0(a5)
	.loc 2 3152 5 is_stmt 1
	.loc 2 3152 15 is_stmt 0
	lw	a5,4(s11)
	addi	a5,a5,1
	sw	a5,4(s11)
	.loc 2 3154 5 is_stmt 1
	.loc 2 3154 17 is_stmt 0
	call	mbedtls_ssl_write_record
.LVL404:
	mv	s0,a0
.LVL405:
	.loc 2 3154 7
	beq	a0,zero,.L166
	.loc 2 3156 9 is_stmt 1
	lui	a4,%hi(.LC25)
	li	a3,4096
	mv	a5,a0
	addi	a4,a4,%lo(.LC25)
	addi	a3,a3,-940
	j	.L265
.L166:
	.loc 2 3160 5
	lui	a4,%hi(.LC85)
	li	a3,4096
	addi	a4,a4,%lo(.LC85)
	addi	a3,a3,-936
	j	.L266
.LVL406:
.L28:
.LBE146:
.LBE162:
	.loc 2 3363 12
	.loc 2 3363 18 is_stmt 0
	mv	a0,s11
	call	mbedtls_ssl_write_change_cipher_spec
.LVL407:
	j	.L177
.L27:
	.loc 2 3367 12 is_stmt 1
	.loc 2 3367 18 is_stmt 0
	mv	a0,s11
	call	mbedtls_ssl_write_finished
.LVL408:
	j	.L177
.L21:
	.loc 2 3377 12 is_stmt 1
.LVL409:
.LBB163:
.LBB137:
	.loc 2 3174 5
	.loc 2 3175 5
	.loc 2 3176 5
	.loc 2 3177 5
	.loc 2 3178 5
	.loc 2 3180 5
	lui	a4,%hi(.LC86)
	li	s7,4096
	addi	a4,a4,%lo(.LC86)
	addi	a3,s7,-916
	addi	a2,s1,%lo(.LC3)
	li	a1,2
	mv	a0,s11
	call	mbedtls_debug_print_msg
.LVL410:
	.loc 2 3182 5
	.loc 2 3182 17 is_stmt 0
	mv	a0,s11
	call	mbedtls_ssl_read_record
.LVL411:
	mv	s0,a0
.LVL412:
	.loc 2 3182 7
	beq	a0,zero,.L167
	.loc 2 3184 9 is_stmt 1
	lui	a4,%hi(.LC28)
	mv	a5,a0
	addi	a4,a4,%lo(.LC28)
	addi	a3,s7,-912
	j	.L265
.L167:
	.loc 2 3188 5
	.loc 2 3188 7 is_stmt 0
	lw	a4,108(s11)
	li	a5,22
	beq	a4,a5,.L168
	.loc 2 3190 9 is_stmt 1
	lui	a4,%hi(.LC87)
	addi	a4,a4,%lo(.LC87)
	addi	a3,s7,-906
	j	.L267
.L168:
	.loc 2 3204 5
	.loc 2 3204 12 is_stmt 0
	lw	s8,100(s11)
	.loc 2 3204 7
	li	a5,4
	lbu	a4,0(s8)
	bne	a4,a5,.L169
	.loc 2 3205 29
	lw	a0,0(s11)
	.loc 2 3205 12
	lw	s9,128(s11)
	.loc 2 3205 29
	call	mbedtls_ssl_hs_hdr_len.isra.0
.LVL413:
	.loc 2 3205 27
	addi	a4,a0,6
	.loc 2 3204 29
	bgeu	s9,a4,.L170
.L169:
	.loc 2 3207 9 is_stmt 1
	lui	a4,%hi(.LC87)
	li	a3,4096
	addi	a4,a4,%lo(.LC87)
	addi	a3,a3,-889
.L269:
	.loc 2 3220 9 is_stmt 0
	addi	a2,s1,%lo(.LC3)
	li	a1,1
	mv	a0,s11
	.loc 2 3221 15
	li	s0,-28672
.LVL414:
	.loc 2 3220 9
	call	mbedtls_debug_print_msg
.LVL415:
	.loc 2 3221 9 is_stmt 1
	.loc 2 3221 15 is_stmt 0
	addi	s0,s0,512
	j	.L14
.LVL416:
.L170:
	.loc 2 3211 5 is_stmt 1
	.loc 2 3211 9 is_stmt 0
	add	s8,s8,a0
.LVL417:
	.loc 2 3213 5 is_stmt 1
	lbu	a5,5(s8)
	lbu	s2,4(s8)
	.loc 2 3213 21 is_stmt 0
	lbu	s3,0(s8)
	slli	a5,a5,8
	or	a5,a5,s2
	slli	s2,a5,8
	srli	a5,a5,8
	or	a5,s2,a5
	slli	s2,a5,16
	srli	s2,s2,16
	.loc 2 3218 24
	add	a4,a4,s2
	.loc 2 3213 40
	lbu	s6,1(s8)
	.loc 2 3214 21
	lbu	s4,2(s8)
	.loc 2 3214 39
	lbu	s5,3(s8)
.LVL418:
	.loc 2 3216 5 is_stmt 1
	.loc 2 3218 5
	.loc 2 3218 7 is_stmt 0
	beq	s9,a4,.L171
	.loc 2 3220 9 is_stmt 1
	lui	a4,%hi(.LC87)
	addi	a4,a4,%lo(.LC87)
	addi	a3,s7,-876
	j	.L269
.L171:
	.loc 2 3224 5
	lui	a4,%hi(.LC88)
	mv	a5,s2
	addi	a4,a4,%lo(.LC88)
	addi	a3,s7,-872
	addi	a2,s1,%lo(.LC3)
	li	a1,3
	mv	a0,s11
	call	mbedtls_debug_print_msg
.LVL419:
	.loc 2 3227 5
	.loc 2 3227 8 is_stmt 0
	lw	a5,48(s11)
	.loc 2 3227 40
	sw	zero,344(a5)
	.loc 2 3228 5 is_stmt 1
	.loc 2 3228 16 is_stmt 0
	li	a5,12
	sw	a5,4(s11)
	.loc 2 3234 5 is_stmt 1
	.loc 2 3234 7 is_stmt 0
	beq	s2,zero,.L14
	.loc 2 3237 5 is_stmt 1
	.loc 2 3237 25 is_stmt 0
	lw	a4,44(s11)
	.loc 2 3237 44
	lw	a5,100(a4)
.LVL420:
.LBB133:
.LBB134:
	.loc 2 53 5 is_stmt 1
	.loc 2 53 36
	lw	a4,104(a4)
.LVL421:
	add	a4,a5,a4
.LVL422:
.L172:
	.loc 2 53 41 is_stmt 0
	bne	a5,a4,.L173
.LVL423:
.LBE134:
.LBE133:
	.loc 2 3239 5 is_stmt 1
	.loc 2 3239 38 is_stmt 0
	lw	a5,44(s11)
	.loc 2 3239 5
	lw	a0,100(a5)
	call	vPortFree
.LVL424:
	.loc 2 3240 5 is_stmt 1
	.loc 2 3240 8 is_stmt 0
	lw	a5,44(s11)
	.loc 2 3243 20
	mv	a1,s2
	li	a0,1
	.loc 2 3240 36
	sw	zero,100(a5)
	.loc 2 3241 5 is_stmt 1
	.loc 2 3241 8 is_stmt 0
	lw	a5,44(s11)
	.loc 2 3241 40
	sw	zero,104(a5)
	.loc 2 3243 5 is_stmt 1
	.loc 2 3243 20 is_stmt 0
	call	mycalloc
.LVL425:
	mv	s7,a0
.LVL426:
	.loc 2 3243 7
	bne	a0,zero,.L174
	.loc 2 3245 9 is_stmt 1
	lui	a4,%hi(.LC89)
	li	a3,4096
	addi	a4,a4,%lo(.LC89)
	addi	a3,a3,-851
	addi	a2,s1,%lo(.LC3)
	li	a1,1
	mv	a0,s11
.LVL427:
	call	mbedtls_debug_print_msg
.LVL428:
	j	.L271
.LVL429:
.L173:
.LBB136:
.LBB135:
	.loc 2 53 49
	.loc 2 53 54 is_stmt 0
	sb	zero,0(a5)
	.loc 2 53 51
	addi	a5,a5,1
.LVL430:
	j	.L172
.LVL431:
.L174:
.LBE135:
.LBE136:
	.loc 2 3249 5 is_stmt 1
	mv	a2,s2
	addi	a1,s8,6
	call	memcpy
.LVL432:
	.loc 2 3251 5
	.loc 2 3251 8 is_stmt 0
	lw	a5,44(s11)
	.loc 2 3213 25
	slli	s3,s3,24
.LVL433:
	.loc 2 3213 44
	slli	s6,s6,16
	.loc 2 3251 36
	sw	s7,100(a5)
	.loc 2 3252 5 is_stmt 1
	.loc 2 3252 8 is_stmt 0
	lw	a5,44(s11)
	.loc 2 3213 33
	or	s3,s3,s6
	.loc 2 3214 32
	or	s3,s3,s5
	.loc 2 3252 40
	sw	s2,104(a5)
	.loc 2 3253 5 is_stmt 1
	.loc 2 3253 8 is_stmt 0
	lw	a5,44(s11)
	.loc 2 3214 25
	slli	s4,s4,8
	.loc 2 3260 5
	li	s2,4096
.LVL434:
	.loc 2 3214 32
	or	s3,s3,s4
	.loc 2 3260 5
	lui	a4,%hi(.LC90)
	.loc 2 3253 45
	sw	s3,108(a5)
	.loc 2 3260 5 is_stmt 1
	addi	a4,a4,%lo(.LC90)
	addi	a3,s2,-836
	addi	a2,s1,%lo(.LC3)
	li	a1,3
	mv	a0,s11
	call	mbedtls_debug_print_msg
.LVL435:
	.loc 2 3261 5
	.loc 2 3261 8 is_stmt 0
	lw	a5,44(s11)
	.loc 2 3263 5
	lui	a4,%hi(.LC91)
	addi	a4,a4,%lo(.LC91)
	.loc 2 3261 36
	sw	zero,8(a5)
	.loc 2 3263 5 is_stmt 1
	addi	a3,s2,-833
	j	.L266
.LVL436:
.L26:
.LBE137:
.LBE163:
	.loc 2 3382 12
	.loc 2 3382 18 is_stmt 0
	mv	a0,s11
	call	mbedtls_ssl_parse_change_cipher_spec
.LVL437:
	j	.L177
.L25:
	.loc 2 3386 12 is_stmt 1
	.loc 2 3386 18 is_stmt 0
	mv	a0,s11
	call	mbedtls_ssl_parse_finished
.LVL438:
	j	.L177
.L24:
	.loc 2 3390 12 is_stmt 1
	lui	a4,%hi(.LC92)
	li	a3,4096
	addi	a4,a4,%lo(.LC92)
	addi	a3,a3,-706
	addi	a2,s1,%lo(.LC3)
	li	a1,2
	mv	a0,s11
	call	mbedtls_debug_print_msg
.LVL439:
	.loc 2 3391 12
	.loc 2 3391 23 is_stmt 0
	li	a5,15
	j	.L272
.L23:
	.loc 2 3395 12 is_stmt 1
	mv	a0,s11
	call	mbedtls_ssl_handshake_wrapup
.LVL440:
	.loc 2 3396 12
	j	.L14
.L20:
	.loc 2 3399 12
	lui	a4,%hi(.LC93)
	li	a3,4096
	addi	a4,a4,%lo(.LC93)
	addi	a3,a3,-697
	j	.L279
	.cfi_endproc
.LFE41:
	.size	mbedtls_ssl_handshake_client_step, .-mbedtls_ssl_handshake_client_step
	.section	.rodata.mbedtls_ssl_handshake_client_step.str1.4,"aMS",@progbits,1
	.align	2
.LC0:
	.string	"a"
	.zero	2
.LC1:
	.string	"no"
	.zero	1
.LC2:
	.string	"client state: %d"
	.zero	3
.LC3:
	.string	"file1"
	.zero	2
.LC4:
	.string	"=> write client hello"
	.zero	2
.LC5:
	.string	"no RNG provided"
.LC6:
	.string	"configured max major version is invalid, consider using mbedtls_ssl_config_defaults()"
	.zero	2
.LC7:
	.string	"client hello, max version: [%d:%d]"
	.zero	1
.LC8:
	.string	"client hello, random bytes"
	.zero	1
.LC9:
	.string	"client hello, session id len.: %d"
	.zero	2
.LC10:
	.string	"client hello, session id"
	.zero	3
.LC11:
	.string	"no verify cookie to send"
	.zero	3
.LC12:
	.string	"client hello, cookie"
	.zero	3
.LC13:
	.string	"client hello, add ciphersuite: %04x"
.LC14:
	.string	"client hello, got %d ciphersuites"
	.zero	2
.LC15:
	.string	"client hello, compress len.: %d"
.LC16:
	.string	"client hello, compress alg.: %d"
.LC17:
	.string	"client hello, adding server name extension: %s"
	.zero	1
.LC18:
	.string	"buffer too small"
	.zero	3
.LC19:
	.string	"client hello, adding signature_algorithms extension"
.LC20:
	.string	"client hello, adding max_fragment_length extension"
	.zero	1
.LC21:
	.string	"client hello, adding alpn extension"
.LC22:
	.string	"client hello, adding session ticket extension"
	.zero	2
.LC23:
	.string	"sending session ticket of length %d"
.LC24:
	.string	"client hello, total extension length: %d"
	.zero	3
.LC25:
	.string	"mbedtls_ssl_write_record"
	.zero	3
.LC26:
	.string	"<= write client hello"
	.zero	2
.LC27:
	.string	"=> parse server hello"
	.zero	2
.LC28:
	.string	"mbedtls_ssl_read_record"
.LC29:
	.string	"bad server hello message"
	.zero	3
.LC30:
	.string	"received hello verify request"
	.zero	2
.LC31:
	.string	"<= parse server hello"
	.zero	2
.LC32:
	.string	"=> parse hello verify request"
	.zero	2
.LC33:
	.string	"server version"
	.zero	1
.LC34:
	.string	"bad server version"
	.zero	1
.LC35:
	.string	"cookie"
	.zero	1
.LC36:
	.string	"cookie length does not match incoming message size"
	.zero	1
.LC37:
	.string	"alloc failed (%d bytes)"
.LC38:
	.string	"<= parse hello verify request"
	.zero	2
.LC39:
	.string	"server hello, version"
	.zero	2
.LC40:
	.string	"server version out of bounds -  min: [%d:%d], server: [%d:%d], max: [%d:%d]"
.LC41:
	.string	"server hello, current time: %lu"
.LC42:
	.string	"server hello, random bytes"
	.zero	1
.LC43:
	.string	"server hello, bad compression: %d"
	.zero	2
.LC44:
	.string	"ciphersuite info for %04x not found"
.LC45:
	.string	"server hello, session id len.: %d"
	.zero	2
.LC46:
	.string	"server hello, session id"
	.zero	3
.LC47:
	.string	"mbedtls_ssl_derive_keys"
.LC48:
	.string	"%s session has been resumed"
.LC49:
	.string	"server hello, chosen ciphersuite: %04x"
	.zero	1
.LC50:
	.string	"server hello, compress alg.: %d"
.LC51:
	.string	"server hello, chosen ciphersuite: %s"
	.zero	3
.LC52:
	.string	"server hello, total extension length: %d"
	.zero	3
.LC53:
	.string	"found renegotiation extension"
	.zero	2
.LC54:
	.string	"non-zero length renegotiation info"
	.zero	1
.LC55:
	.string	"found max_fragment_length extension"
.LC56:
	.string	"found session_ticket extension"
	.zero	1
.LC57:
	.string	"found alpn extension"
	.zero	3
.LC58:
	.string	"unknown extension found: %d (ignoring)"
	.zero	1
.LC59:
	.string	"legacy renegotiation, breaking off handshake"
	.zero	3
.LC60:
	.string	"=> parse server key exchange"
	.zero	3
.LC61:
	.string	"<= skip parse server key exchange"
	.zero	2
.LC62:
	.string	"bad server key exchange message"
.LC63:
	.string	"<= parse server key exchange"
	.zero	3
.LC64:
	.string	"server key exchange"
.LC65:
	.string	"should never happen"
.LC66:
	.string	"=> parse certificate request"
	.zero	3
.LC67:
	.string	"<= skip parse certificate request"
	.zero	2
.LC68:
	.string	"bad certificate request message"
.LC69:
	.string	"got %s certificate request"
	.zero	1
.LC70:
	.string	"Supported Signature Algorithm found: %d,%d"
	.zero	1
.LC71:
	.string	"<= parse certificate request"
	.zero	3
.LC72:
	.string	"=> parse server hello done"
	.zero	1
.LC73:
	.string	"bad server hello done message"
	.zero	2
.LC74:
	.string	"<= parse server hello done"
	.zero	1
.LC75:
	.string	"=> write client key exchange"
	.zero	3
.LC76:
	.string	"f_rng"
	.zero	2
.LC77:
	.string	"certificate required"
	.zero	3
.LC78:
	.string	"certificate key type mismatch"
	.zero	2
.LC79:
	.string	"mbedtls_rsa_pkcs1_encrypt"
	.zero	2
.LC80:
	.string	"<= write client key exchange"
	.zero	3
.LC81:
	.string	"=> write certificate verify"
.LC82:
	.string	"<= skip write certificate verify"
	.zero	3
.LC83:
	.string	"got no private key for certificate"
	.zero	1
.LC84:
	.string	"mbedtls_pk_sign"
.LC85:
	.string	"<= write certificate verify"
.LC86:
	.string	"=> parse new session ticket"
.LC87:
	.string	"bad new session ticket message"
	.zero	1
.LC88:
	.string	"ticket length: %d"
	.zero	2
.LC89:
	.string	"ticket alloc failed"
.LC90:
	.string	"ticket in use, discarding session id"
	.zero	3
.LC91:
	.string	"<= parse new session ticket"
.LC92:
	.string	"handshake: done"
.LC93:
	.string	"invalid state %d"
	.zero	3
.LC94:
	.string	"ssl_generate_random"
	.text
.Letext0:
	.file 3 "/b-l/bl_iot_sdk_new/toolchain/riscv/Linux/riscv64-unknown-elf/include/machine/_default_types.h"
	.file 4 "/b-l/bl_iot_sdk_new/toolchain/riscv/Linux/lib/gcc/riscv64-unknown-elf/8.3.0/include/stddef.h"
	.file 5 "/b-l/bl_iot_sdk_new/toolchain/riscv/Linux/riscv64-unknown-elf/include/sys/_types.h"
	.file 6 "/b-l/bl_iot_sdk_new/toolchain/riscv/Linux/riscv64-unknown-elf/include/sys/reent.h"
	.file 7 "/b-l/bl_iot_sdk_new/toolchain/riscv/Linux/riscv64-unknown-elf/include/sys/lock.h"
	.file 8 "/b-l/bl_iot_sdk_new/toolchain/riscv/Linux/riscv64-unknown-elf/include/sys/_stdint.h"
	.file 9 "/b-l/bl_iot_sdk_new/toolchain/riscv/Linux/riscv64-unknown-elf/include/stdlib.h"
	.file 10 "/b-l/bl_iot_sdk_new/toolchain/riscv/Linux/riscv64-unknown-elf/include/time.h"
	.file 11 "/b-l/bl_iot_sdk_new/components/bl602/freertos_riscv_ram/portable/GCC/RISC-V/portmacro.h"
	.file 12 "/b-l/bl_iot_sdk_new/components/security/mbedtls/include/mbedtls/ecp.h"
	.file 13 "/b-l/bl_iot_sdk_new/components/security/mbedtls/include/mbedtls/md.h"
	.file 14 "/b-l/bl_iot_sdk_new/components/security/mbedtls/include/mbedtls/pk.h"
	.file 15 "/b-l/bl_iot_sdk_new/components/security/mbedtls/include/mbedtls/cipher.h"
	.file 16 "/b-l/bl_iot_sdk_new/components/security/mbedtls/include/mbedtls/ssl_ciphersuites.h"
	.file 17 "/b-l/bl_iot_sdk_new/components/security/mbedtls/include/mbedtls/asn1.h"
	.file 18 "/b-l/bl_iot_sdk_new/components/security/mbedtls/include/mbedtls/x509.h"
	.file 19 "/b-l/bl_iot_sdk_new/components/security/mbedtls/include/mbedtls/x509_crl.h"
	.file 20 "/b-l/bl_iot_sdk_new/components/security/mbedtls/include/mbedtls/x509_crt.h"
	.file 21 "/b-l/bl_iot_sdk_new/components/security/mbedtls/include/mbedtls/ssl.h"
	.file 22 "/b-l/bl_iot_sdk_new/components/security/mbedtls/include/mbedtls/sha256.h"
	.file 23 "/b-l/bl_iot_sdk_new/components/security/mbedtls/include/mbedtls/debug.h"
	.file 24 "/b-l/bl_iot_sdk_new/toolchain/riscv/Linux/riscv64-unknown-elf/include/string.h"
	.file 25 "/b-l/bl_iot_sdk_new/components/bl602/freertos_riscv_ram/config/portable.h"
	.file 26 "/b-l/bl_iot_sdk_new/components/security/mbedtls/include/mbedtls/mycalloc.h"