	.file	"ble_cli_cmds.c"
	.option nopic
	.attribute arch, "rv32i2p0_m2p0_f2p0_c2p0"
	.attribute unaligned_access, 0
	.attribute stack_align, 16
	.text
.Ltext0:
	.cfi_sections	.debug_frame
	.section	.text.notify_func,"ax",@progbits
	.align	1
	.type	notify_func, @function
notify_func:
.LFB114:
	.file 1 "/b-l/bl_iot_sdk_new/components/network/ble/blestack/src/cli_cmds/ble_cli_cmds.c"
	.loc 1 1283 1
	.cfi_startproc
.LVL0:
	.loc 1 1284 5
	.loc 1 1283 1 is_stmt 0
	addi	sp,sp,-16
	.cfi_def_cfa_offset 16
	sw	ra,12(sp)
	sw	s0,8(sp)
	.cfi_offset 1, -4
	.cfi_offset 8, -8
	.loc 1 1284 8
	lhu	a5,40(a1)
	bne	a5,zero,.L2
	.loc 1 1285 9
	lui	a0,%hi(.LC1)
.LVL1:
	addi	a0,a0,%lo(.LC1)
	mv	s0,a1
	.loc 1 1285 9 is_stmt 1
	call	printf
.LVL2:
	.loc 1 1286 9
	.loc 1 1287 16 is_stmt 0
	li	a0,0
	.loc 1 1286 30
	sh	zero,36(s0)
	.loc 1 1287 9 is_stmt 1
.LVL3:
.L3:
	.loc 1 1292 1 is_stmt 0
	lw	ra,12(sp)
	.cfi_remember_state
	.cfi_restore 1
	lw	s0,8(sp)
	.cfi_restore 8
	addi	sp,sp,16
	.cfi_def_cfa_offset 0
	jr	ra
.LVL4:
.L2:
	.cfi_restore_state
	.loc 1 1290 5 is_stmt 1
	lui	a0,%hi(.LC2)
.LVL5:
	mv	a1,a3
.LVL6:
	addi	a0,a0,%lo(.LC2)
	call	printf
.LVL7:
	.loc 1 1291 5
	.loc 1 1291 12 is_stmt 0
	li	a0,1
	j	.L3
	.cfi_endproc
.LFE114:
	.size	notify_func, .-notify_func
	.section	.text.le_param_updated,"ax",@progbits
	.align	1
	.type	le_param_updated, @function
le_param_updated:
.LFB72:
	.loc 1 290 1 is_stmt 1
	.cfi_startproc
.LVL8:
	.loc 1 291 2
	lui	a0,%hi(.LC3)
.LVL9:
	addi	a0,a0,%lo(.LC3)
	tail	printf
.LVL10:
	.cfi_endproc
.LFE72:
	.size	le_param_updated, .-le_param_updated
	.section	.text.ble_set_tx_pwr,"ax",@progbits
	.align	1
	.type	ble_set_tx_pwr, @function
ble_set_tx_pwr:
.LFB119:
	.loc 1 1394 1
	.cfi_startproc
.LVL11:
	.loc 1 1395 5
	.loc 1 1396 5
	.loc 1 1398 5
	.loc 1 1394 1 is_stmt 0
	addi	sp,sp,-32
	.cfi_def_cfa_offset 32
	sw	ra,28(sp)
	.cfi_offset 1, -4
	.loc 1 1398 7
	li	a5,2
	beq	a2,a5,.L7
	.loc 1 1399 6 is_stmt 1
	lui	a0,%hi(.LC4)
.LVL12:
	addi	a0,a0,%lo(.LC4)
.LVL13:
.L12:
	.loc 1 1416 3 is_stmt 0
	call	printf
.LVL14:
	j	.L6
.LVL15:
.L7:
	.loc 1 1403 5 is_stmt 1
	addi	a0,a3,4
.LVL16:
	addi	a1,sp,15
.LVL17:
	call	get_uint8_from_string
.LVL18:
	.loc 1 1405 5
	.loc 1 1405 14 is_stmt 0
	lbu	a0,15(sp)
	.loc 1 1405 7
	li	a5,20
	bleu	a0,a5,.L9
	.loc 1 1406 9 is_stmt 1
	lui	a0,%hi(.LC5)
	li	a2,20
	li	a1,0
	addi	a0,a0,%lo(.LC5)
	call	printf
.LVL19:
	.loc 1 1407 9
.L6:
	.loc 1 1419 1 is_stmt 0
	lw	ra,28(sp)
	.cfi_remember_state
	.cfi_restore 1
	addi	sp,sp,32
	.cfi_def_cfa_offset 0
	jr	ra
.L9:
	.cfi_restore_state
	.loc 1 1410 5 is_stmt 1
	.loc 1 1410 11 is_stmt 0
	slli	a0,a0,24
	srai	a0,a0,24
	call	bt_set_tx_pwr
.LVL20:
	mv	a1,a0
.LVL21:
	.loc 1 1412 5 is_stmt 1
	.loc 1 1412 7 is_stmt 0
	beq	a0,zero,.L10
	.loc 1 1413 3 is_stmt 1
	lui	a0,%hi(.LC6)
.LVL22:
	addi	a0,a0,%lo(.LC6)
	call	printf
.LVL23:
	j	.L6
.LVL24:
.L10:
	.loc 1 1416 3
	lui	a0,%hi(.LC7)
.LVL25:
	addi	a0,a0,%lo(.LC7)
	j	.L12
	.cfi_endproc
.LFE119:
	.size	ble_set_tx_pwr, .-ble_set_tx_pwr
	.section	.text.ble_unsubscribe,"ax",@progbits
	.align	1
	.type	ble_unsubscribe, @function
ble_unsubscribe:
.LFB116:
	.loc 1 1321 1
	.cfi_startproc
.LVL26:
	.loc 1 1322 5
	.loc 1 1322 9 is_stmt 0
	lui	a5,%hi(.LANCHOR0)
	lw	a0,%lo(.LANCHOR0)(a5)
.LVL27:
	.loc 1 1322 8
	bne	a0,zero,.L14
	.loc 1 1323 9 is_stmt 1
	lui	a0,%hi(.LC8)
	addi	a0,a0,%lo(.LC8)
.LVL28:
.L19:
	.loc 1 1336 9 is_stmt 0
	tail	printf
.LVL29:
.L14:
	.loc 1 1327 5 is_stmt 1
	.loc 1 1327 26 is_stmt 0
	lui	a1,%hi(.LANCHOR1)
.LVL30:
	addi	a5,a1,%lo(.LANCHOR1)
	.loc 1 1327 8
	lhu	a5,36(a5)
	bne	a5,zero,.L15
	.loc 1 1328 9 is_stmt 1
	lui	a0,%hi(.LC9)
	addi	a0,a0,%lo(.LC9)
	j	.L19
.L15:
	.loc 1 1332 5
	.loc 1 1321 1 is_stmt 0
	addi	sp,sp,-16
	.cfi_def_cfa_offset 16
	.loc 1 1332 15
	addi	a1,a1,%lo(.LANCHOR1)
	.loc 1 1321 1
	sw	ra,12(sp)
	.cfi_offset 1, -4
	.loc 1 1332 15
	call	bt_gatt_unsubscribe
.LVL31:
	mv	a1,a0
.LVL32:
	.loc 1 1333 5 is_stmt 1
	.loc 1 1333 8 is_stmt 0
	beq	a0,zero,.L16
	.loc 1 1334 9 is_stmt 1
	.loc 1 1338 1 is_stmt 0
	lw	ra,12(sp)
	.cfi_remember_state
	.cfi_restore 1
	.loc 1 1334 9
	lui	a0,%hi(.LC10)
.LVL33:
	.loc 1 1338 1
	.loc 1 1334 9
	addi	a0,a0,%lo(.LC10)
	.loc 1 1338 1
	addi	sp,sp,16
	.cfi_def_cfa_offset 0
	.loc 1 1334 9
	tail	printf
.LVL34:
.L16:
	.cfi_restore_state
	.loc 1 1336 9 is_stmt 1
	lui	a0,%hi(.LC11)
.LVL35:
	.loc 1 1338 1 is_stmt 0
	lw	ra,12(sp)
	.cfi_restore 1
	.loc 1 1336 9
	addi	a0,a0,%lo(.LC11)
	.loc 1 1338 1
	addi	sp,sp,16
	.cfi_def_cfa_offset 0
	j	.L19
	.cfi_endproc
.LFE116:
	.size	ble_unsubscribe, .-ble_unsubscribe
	.section	.text.write_func,"ax",@progbits
	.align	1
	.type	write_func, @function
write_func:
.LFB111:
	.loc 1 1205 1 is_stmt 1
	.cfi_startproc
.LVL36:
	.loc 1 1206 2
	lui	a0,%hi(.LC12)
.LVL37:
	.loc 1 1205 1 is_stmt 0
	addi	sp,sp,-16
	.cfi_def_cfa_offset 16
	.loc 1 1206 2
	addi	a0,a0,%lo(.LC12)
	.loc 1 1205 1
	sw	ra,12(sp)
	.cfi_offset 1, -4
	.loc 1 1206 2
	call	printf
.LVL38:
	.loc 1 1208 2 is_stmt 1
	.loc 1 1209 1 is_stmt 0
	lw	ra,12(sp)
	.cfi_restore 1
	.loc 1 1208 8
	lui	a0,%hi(.LANCHOR2)
	.loc 1 1209 1
	.loc 1 1208 8
	li	a2,40
	li	a1,0
	addi	a0,a0,%lo(.LANCHOR2)
	.loc 1 1209 1
	addi	sp,sp,16
	.cfi_def_cfa_offset 0
	.loc 1 1208 8
	tail	memset
.LVL39:
	.cfi_endproc
.LFE111:
	.size	write_func, .-write_func
	.section	.text.ble_exchange_mtu,"ax",@progbits
	.align	1
	.type	ble_exchange_mtu, @function
ble_exchange_mtu:
.LFB105:
	.loc 1 993 1 is_stmt 1
	.cfi_startproc
.LVL40:
	.loc 1 994 2
	.loc 1 996 2
	.loc 1 996 6 is_stmt 0
	lui	a5,%hi(.LANCHOR0)
	lw	a0,%lo(.LANCHOR0)(a5)
.LVL41:
	.loc 1 996 5
	bne	a0,zero,.L23
	.loc 1 997 3 is_stmt 1
	lui	a0,%hi(.LC8)
	addi	a0,a0,%lo(.LC8)
.LVL42:
.L27:
	.loc 1 1007 3 is_stmt 0
	tail	printf
.LVL43:
.L23:
	.loc 1 1001 2 is_stmt 1
	.loc 1 993 1 is_stmt 0
	addi	sp,sp,-16
	.cfi_def_cfa_offset 16
	.loc 1 1001 23
	lui	a1,%hi(.LANCHOR3)
.LVL44:
	lui	a5,%hi(exchange_func)
	addi	a4,a1,%lo(.LANCHOR3)
	.loc 1 993 1
	sw	ra,12(sp)
	.cfi_offset 1, -4
	.loc 1 1001 23
	addi	a5,a5,%lo(exchange_func)
	.loc 1 1003 8
	addi	a1,a1,%lo(.LANCHOR3)
	.loc 1 1001 23
	sw	a5,24(a4)
	.loc 1 1003 2 is_stmt 1
	.loc 1 1003 8 is_stmt 0
	call	bt_gatt_exchange_mtu
.LVL45:
	mv	a1,a0
.LVL46:
	.loc 1 1004 2 is_stmt 1
	.loc 1 1004 5 is_stmt 0
	beq	a0,zero,.L24
	.loc 1 1005 3 is_stmt 1
	.loc 1 1009 1 is_stmt 0
	lw	ra,12(sp)
	.cfi_remember_state
	.cfi_restore 1
	.loc 1 1005 3
	lui	a0,%hi(.LC13)
.LVL47:
	.loc 1 1009 1
	.loc 1 1005 3
	addi	a0,a0,%lo(.LC13)
	.loc 1 1009 1
	addi	sp,sp,16
	.cfi_def_cfa_offset 0
	.loc 1 1005 3
	tail	printf
.LVL48:
.L24:
	.cfi_restore_state
	.loc 1 1007 3 is_stmt 1
	lui	a0,%hi(.LC14)
.LVL49:
	.loc 1 1009 1 is_stmt 0
	lw	ra,12(sp)
	.cfi_restore 1
	.loc 1 1007 3
	addi	a0,a0,%lo(.LC14)
	.loc 1 1009 1
	addi	sp,sp,16
	.cfi_def_cfa_offset 0
	j	.L27
	.cfi_endproc
.LFE105:
	.size	ble_exchange_mtu, .-ble_exchange_mtu
	.section	.text.exchange_func,"ax",@progbits
	.align	1
	.type	exchange_func, @function
exchange_func:
.LFB104:
	.loc 1 986 1 is_stmt 1
	.cfi_startproc
.LVL50:
	.loc 1 987 2
	.loc 1 986 1 is_stmt 0
	addi	sp,sp,-32
	.cfi_def_cfa_offset 32
	sw	ra,28(sp)
	.cfi_offset 1, -4
	.loc 1 987 2
	beq	a1,zero,.L30
	lui	a1,%hi(.LC16)
.LVL51:
	addi	a1,a1,%lo(.LC16)
.L29:
	sw	a1,12(sp)
	.loc 1 987 78 discriminator 4
	call	bt_gatt_get_mtu
.LVL52:
	.loc 1 987 2 discriminator 4
	lw	a1,12(sp)
	.loc 1 988 1 discriminator 4
	lw	ra,28(sp)
	.cfi_remember_state
	.cfi_restore 1
	.loc 1 987 2 discriminator 4
	mv	a2,a0
	lui	a0,%hi(.LC17)
	.loc 1 988 1 discriminator 4
	.loc 1 987 2 discriminator 4
	addi	a0,a0,%lo(.LC17)
	.loc 1 988 1 discriminator 4
	addi	sp,sp,32
	.cfi_def_cfa_offset 0
	.loc 1 987 2 discriminator 4
	tail	printf
.LVL53:
.L30:
	.cfi_restore_state
	.loc 1 987 2
	lui	a1,%hi(.LC15)
.LVL54:
	addi	a1,a1,%lo(.LC15)
	j	.L29
	.cfi_endproc
.LFE104:
	.size	exchange_func, .-exchange_func
	.section	.text.ble_auth_pairing_confirm,"ax",@progbits
	.align	1
	.type	ble_auth_pairing_confirm, @function
ble_auth_pairing_confirm:
.LFB102:
	.loc 1 948 1 is_stmt 1
	.cfi_startproc
.LVL55:
	.loc 1 950 2
	.loc 1 950 6 is_stmt 0
	lui	a5,%hi(.LANCHOR0)
	lw	a0,%lo(.LANCHOR0)(a5)
.LVL56:
	.loc 1 950 5
	bne	a0,zero,.L33
	.loc 1 951 9 is_stmt 1
	lui	a0,%hi(.LC8)
	addi	a0,a0,%lo(.LC8)
	tail	printf
.LVL57:
.L33:
	.loc 1 955 2
	tail	bt_conn_auth_pairing_confirm
.LVL58:
	.cfi_endproc
.LFE102:
	.size	ble_auth_pairing_confirm, .-ble_auth_pairing_confirm
	.section	.text.ble_auth_passkey_confirm,"ax",@progbits
	.align	1
	.type	ble_auth_passkey_confirm, @function
ble_auth_passkey_confirm:
.LFB101:
	.loc 1 937 1
	.cfi_startproc
.LVL59:
	.loc 1 939 2
	.loc 1 939 6 is_stmt 0
	lui	a5,%hi(.LANCHOR0)
	lw	a0,%lo(.LANCHOR0)(a5)
.LVL60:
	.loc 1 939 5
	bne	a0,zero,.L35
	.loc 1 940 9 is_stmt 1
	lui	a0,%hi(.LC8)
	addi	a0,a0,%lo(.LC8)
	tail	printf
.LVL61:
.L35:
	.loc 1 944 2
	tail	bt_conn_auth_passkey_confirm
.LVL62:
	.cfi_endproc
.LFE101:
	.size	ble_auth_passkey_confirm, .-ble_auth_passkey_confirm
	.section	.text.ble_auth_cancel,"ax",@progbits
	.align	1
	.type	ble_auth_cancel, @function
ble_auth_cancel:
.LFB100:
	.loc 1 919 1
	.cfi_startproc
.LVL63:
	.loc 1 920 2
	.loc 1 922 2
	.loc 1 922 6 is_stmt 0
	lui	a5,%hi(.LANCHOR0)
	lw	a0,%lo(.LANCHOR0)(a5)
.LVL64:
	.loc 1 922 5
	bne	a0,zero,.L37
.LVL65:
	.loc 1 928 2 is_stmt 1
	.loc 1 929 9
	lui	a0,%hi(.LC8)
	addi	a0,a0,%lo(.LC8)
	tail	printf
.LVL66:
.L37:
	.loc 1 923 3
	.loc 1 928 2
	.loc 1 933 2
	tail	bt_conn_auth_cancel
.LVL67:
	.cfi_endproc
.LFE100:
	.size	ble_auth_cancel, .-ble_auth_cancel
	.section	.text.ble_auth,"ax",@progbits
	.align	1
	.type	ble_auth, @function
ble_auth:
.LFB99:
	.loc 1 906 1
	.cfi_startproc
.LVL68:
	.loc 1 907 5
	.loc 1 909 5
	.loc 1 909 11 is_stmt 0
	lui	a0,%hi(.LANCHOR4)
.LVL69:
	.loc 1 906 1
	addi	sp,sp,-16
	.cfi_def_cfa_offset 16
	.loc 1 909 11
	addi	a0,a0,%lo(.LANCHOR4)
	.loc 1 906 1
	sw	ra,12(sp)
	.cfi_offset 1, -4
	.loc 1 909 11
	call	bt_conn_auth_cb_register
.LVL70:
	.loc 1 911 5 is_stmt 1
	.loc 1 911 7 is_stmt 0
	beq	a0,zero,.L39
	.loc 1 912 9 is_stmt 1
	lui	a0,%hi(.LC18)
.LVL71:
	addi	a0,a0,%lo(.LC18)
.L41:
	.loc 1 916 1 is_stmt 0
	lw	ra,12(sp)
	.cfi_remember_state
	.cfi_restore 1
	addi	sp,sp,16
	.cfi_def_cfa_offset 0
	.loc 1 914 9
	tail	printf
.LVL72:
.L39:
	.cfi_restore_state
	.loc 1 914 9 is_stmt 1
	lui	a0,%hi(.LC19)
.LVL73:
	addi	a0,a0,%lo(.LC19)
	j	.L41
	.cfi_endproc
.LFE99:
	.size	ble_auth, .-ble_auth
	.section	.text.ble_security,"ax",@progbits
	.align	1
	.type	ble_security, @function
ble_security:
.LFB91:
	.loc 1 812 1
	.cfi_startproc
.LVL74:
	.loc 1 813 5
	.loc 1 814 5
	.loc 1 812 1 is_stmt 0
	addi	sp,sp,-32
	.cfi_def_cfa_offset 32
	.loc 1 814 10
	li	a5,4
	sb	a5,15(sp)
	.loc 1 816 5 is_stmt 1
	.loc 1 816 8 is_stmt 0
	lui	a5,%hi(.LANCHOR0)
	.loc 1 816 7
	lw	a4,%lo(.LANCHOR0)(a5)
	.loc 1 812 1
	sw	ra,28(sp)
	sw	s0,24(sp)
	.cfi_offset 1, -4
	.cfi_offset 8, -8
	.loc 1 816 7
	bne	a4,zero,.L43
	.loc 1 817 9 is_stmt 1
	lui	a0,%hi(.LC20)
.LVL75:
	addi	a0,a0,%lo(.LC20)
.LVL76:
.L49:
	.loc 1 829 9 is_stmt 0
	call	printf
.LVL77:
	j	.L42
.LVL78:
.L43:
	addi	s0,a5,%lo(.LANCHOR0)
	.loc 1 821 5 is_stmt 1
	.loc 1 821 7 is_stmt 0
	li	a5,2
	bne	a2,a5,.L45
	.loc 1 822 9 is_stmt 1
	addi	a1,sp,15
.LVL79:
	addi	a0,a3,4
.LVL80:
	call	get_uint8_from_string
.LVL81:
.L45:
	.loc 1 824 5
	.loc 1 824 11 is_stmt 0
	lbu	a1,15(sp)
	lw	a0,0(s0)
	call	bt_conn_set_security
.LVL82:
	mv	a1,a0
.LVL83:
	.loc 1 826 5 is_stmt 1
	.loc 1 826 7 is_stmt 0
	beq	a0,zero,.L46
	.loc 1 827 9 is_stmt 1
	lui	a0,%hi(.LC21)
.LVL84:
	addi	a0,a0,%lo(.LC21)
	call	printf
.LVL85:
.L42:
	.loc 1 831 1 is_stmt 0
	lw	ra,28(sp)
	.cfi_remember_state
	.cfi_restore 1
	lw	s0,24(sp)
	.cfi_restore 8
	addi	sp,sp,32
	.cfi_def_cfa_offset 0
	jr	ra
.LVL86:
.L46:
	.cfi_restore_state
	.loc 1 829 9 is_stmt 1
	lui	a0,%hi(.LC22)
.LVL87:
	addi	a0,a0,%lo(.LC22)
	j	.L49
	.cfi_endproc
.LFE91:
	.size	ble_security, .-ble_security
	.section	.text.ble_select_conn,"ax",@progbits
	.align	1
	.type	ble_select_conn, @function
ble_select_conn:
.LFB88:
	.loc 1 729 1
	.cfi_startproc
.LVL88:
	.loc 1 730 5
	.loc 1 731 5
	.loc 1 732 5
	.loc 1 734 5
	.loc 1 729 1 is_stmt 0
	addi	sp,sp,-48
	.cfi_def_cfa_offset 48
	sw	ra,44(sp)
	sw	s0,40(sp)
	sw	s1,36(sp)
	.cfi_offset 1, -4
	.cfi_offset 8, -8
	.cfi_offset 9, -12
	.loc 1 734 7
	li	a5,3
	beq	a2,a5,.L51
	.loc 1 735 9 is_stmt 1
	lui	a0,%hi(.LC4)
.LVL89:
	addi	a0,a0,%lo(.LC4)
.LVL90:
.L60:
	.loc 1 749 9 is_stmt 0
	call	printf
.LVL91:
	.loc 1 750 9 is_stmt 1
.L50:
	.loc 1 758 1 is_stmt 0
	lw	ra,44(sp)
	.cfi_remember_state
	.cfi_restore 1
	lw	s0,40(sp)
	.cfi_restore 8
	lw	s1,36(sp)
	.cfi_restore 9
	addi	sp,sp,48
	.cfi_def_cfa_offset 0
	jr	ra
.LVL92:
.L51:
	.cfi_restore_state
	.loc 1 740 5 is_stmt 1
	addi	a0,a3,4
.LVL93:
	addi	a1,sp,24
.LVL94:
	sw	a3,12(sp)
	call	get_uint8_from_string
.LVL95:
	.loc 1 742 5
	lw	a3,12(sp)
	li	a2,6
	addi	a1,sp,16
	addi	a0,a3,8
	call	get_bytearray_from_string
.LVL96:
	.loc 1 744 5
	li	a2,6
	addi	a1,sp,25
	addi	a0,sp,16
	call	reverse_bytearray
.LVL97:
	.loc 1 746 5
	.loc 1 746 12 is_stmt 0
	addi	a1,sp,24
	li	a0,0
	call	bt_conn_lookup_addr_le
.LVL98:
	mv	s1,a0
.LVL99:
	.loc 1 748 5 is_stmt 1
	.loc 1 748 7 is_stmt 0
	bne	a0,zero,.L53
	.loc 1 749 9 is_stmt 1
	lui	a0,%hi(.LC23)
	addi	a0,a0,%lo(.LC23)
	j	.L60
.L53:
	.loc 1 753 5
	.loc 1 753 8 is_stmt 0
	lui	a5,%hi(.LANCHOR0)
	lw	a0,%lo(.LANCHOR0)(a5)
	addi	s0,a5,%lo(.LANCHOR0)
	.loc 1 753 7
	beq	a0,zero,.L54
	.loc 1 754 9 is_stmt 1
	call	bt_conn_unref
.LVL100:
.L54:
	.loc 1 757 5
	.loc 1 757 18 is_stmt 0
	sw	s1,0(s0)
	j	.L50
	.cfi_endproc
.LFE88:
	.size	ble_select_conn, .-ble_select_conn
	.section	.text.ble_disconnect,"ax",@progbits
	.align	1
	.type	ble_disconnect, @function
ble_disconnect:
.LFB87:
	.loc 1 693 1 is_stmt 1
	.cfi_startproc
.LVL101:
	.loc 1 694 5
	.loc 1 695 5
	.loc 1 696 5
	.loc 1 697 2
	.loc 1 693 1 is_stmt 0
	addi	sp,sp,-64
	.cfi_def_cfa_offset 64
	.loc 1 697 7
	li	a5,-1
	sb	a5,31(sp)
	.loc 1 699 5 is_stmt 1
	.loc 1 693 1 is_stmt 0
	sw	ra,60(sp)
	sw	s0,56(sp)
	.cfi_offset 1, -4
	.cfi_offset 8, -8
	.loc 1 699 7
	li	a5,3
	beq	a2,a5,.L62
	.loc 1 700 9 is_stmt 1
	lui	a0,%hi(.LC4)
.LVL102:
	addi	a0,a0,%lo(.LC4)
.LVL103:
.L70:
	.loc 1 713 9 is_stmt 0
	call	printf
.LVL104:
	.loc 1 714 9 is_stmt 1
.L61:
	.loc 1 726 1 is_stmt 0
	lw	ra,60(sp)
	.cfi_remember_state
	.cfi_restore 1
	lw	s0,56(sp)
	.cfi_restore 8
	addi	sp,sp,64
	.cfi_def_cfa_offset 0
	jr	ra
.LVL105:
.L62:
	.cfi_restore_state
	.loc 1 703 5 is_stmt 1
	addi	a0,a3,4
.LVL106:
	addi	a1,sp,31
.LVL107:
	sw	a3,12(sp)
	call	get_uint8_from_string
.LVL108:
	.loc 1 704 5
	lw	a3,12(sp)
	li	a2,6
	addi	a1,sp,32
	addi	a0,a3,8
	call	get_bytearray_from_string
.LVL109:
	.loc 1 705 5
	li	a2,6
	addi	a1,sp,41
	addi	a0,sp,32
	call	reverse_bytearray
.LVL110:
	.loc 1 708 5
	.loc 1 708 15 is_stmt 0
	lbu	a5,31(sp)
	.loc 1 710 12
	addi	a1,sp,40
	li	a0,0
	.loc 1 708 15
	sb	a5,40(sp)
	.loc 1 710 5 is_stmt 1
	.loc 1 710 12 is_stmt 0
	call	bt_conn_lookup_addr_le
.LVL111:
	mv	s0,a0
.LVL112:
	.loc 1 712 5 is_stmt 1
	.loc 1 712 7 is_stmt 0
	bne	a0,zero,.L64
	.loc 1 713 9 is_stmt 1
	lui	a0,%hi(.LC8)
	addi	a0,a0,%lo(.LC8)
	j	.L70
.L64:
	.loc 1 717 5
	.loc 1 717 8 is_stmt 0
	li	a1,19
	call	bt_conn_disconnect
.LVL113:
	.loc 1 717 7
	beq	a0,zero,.L65
	.loc 1 718 9 is_stmt 1
	lui	a0,%hi(.LC24)
	addi	a0,a0,%lo(.LC24)
.L69:
	.loc 1 720 9 is_stmt 0
	call	printf
.LVL114:
	.loc 1 725 5 is_stmt 1
	mv	a0,s0
	call	bt_conn_unref
.LVL115:
	j	.L61
.L65:
	.loc 1 720 9
	lui	a0,%hi(.LC25)
	addi	a0,a0,%lo(.LC25)
	j	.L69
	.cfi_endproc
.LFE87:
	.size	ble_disconnect, .-ble_disconnect
	.section	.text.ble_connect,"ax",@progbits
	.align	1
	.type	ble_connect, @function
ble_connect:
.LFB86:
	.loc 1 648 1
	.cfi_startproc
.LVL116:
	.loc 1 649 5
	.loc 1 650 5
	.loc 1 651 5
	.loc 1 652 2
	.loc 1 648 1 is_stmt 0
	addi	sp,sp,-48
	.cfi_def_cfa_offset 48
	.loc 1 652 7
	li	a5,-1
	sb	a5,7(sp)
	.loc 1 653 2 is_stmt 1
.LVL117:
	.loc 1 655 2
	.loc 1 655 26 is_stmt 0
	lui	a5,%hi(.LC0)
	addi	a5,a5,%lo(.LC0)
	lw	a4,0(a5)
	lw	a5,4(a5)
	.loc 1 648 1
	sw	s1,36(sp)
	.loc 1 662 8
	li	a1,0
.LVL118:
	.cfi_offset 9, -12
	.loc 1 648 1
	mv	s1,a2
	.loc 1 662 8
	addi	a0,sp,8
.LVL119:
	li	a2,6
.LVL120:
	.loc 1 648 1
	sw	s0,40(sp)
	.loc 1 655 26
	sw	a5,28(sp)
	.loc 1 662 2 is_stmt 1
	.loc 1 648 1 is_stmt 0
	sw	ra,44(sp)
	sw	s2,32(sp)
	.cfi_offset 8, -8
	.cfi_offset 1, -4
	.cfi_offset 18, -16
	.loc 1 648 1
	mv	s0,a3
	.loc 1 655 26
	sw	a4,24(sp)
	.loc 1 662 8
	call	memset
.LVL121:
	.loc 1 664 5 is_stmt 1
	.loc 1 664 7 is_stmt 0
	li	a5,3
	beq	s1,a5,.L72
	.loc 1 665 9 is_stmt 1
	lui	a0,%hi(.LC4)
	addi	a0,a0,%lo(.LC4)
.LVL122:
.L79:
	.loc 1 686 9 is_stmt 0
	call	printf
.LVL123:
	.loc 1 688 1
	lw	ra,44(sp)
	.cfi_remember_state
	.cfi_restore 1
	lw	s0,40(sp)
	.cfi_restore 8
	lw	s1,36(sp)
	.cfi_restore 9
	lw	s2,32(sp)
	.cfi_restore 18
	addi	sp,sp,48
	.cfi_def_cfa_offset 0
	jr	ra
.LVL124:
.L72:
	.cfi_restore_state
	.loc 1 669 5 is_stmt 1
	addi	a0,s0,4
	addi	a1,sp,7
	call	get_uint8_from_string
.LVL125:
	.loc 1 672 5
	.loc 1 672 15 is_stmt 0
	lbu	a5,7(sp)
	.loc 1 674 5
	addi	a0,s0,8
	li	a2,6
	addi	a1,sp,8
	.loc 1 672 15
	sb	a5,16(sp)
	.loc 1 674 5 is_stmt 1
	.loc 1 675 11 is_stmt 0
	li	s0,0
.LVL126:
	.loc 1 674 5
	call	get_bytearray_from_string
.LVL127:
	.loc 1 675 6 is_stmt 1
	.loc 1 676 3 is_stmt 0
	lui	s2,%hi(.LC26)
	.loc 1 675 6
	li	s1,6
.LVL128:
.L74:
	.loc 1 676 3 is_stmt 1 discriminator 3
	.loc 1 676 42 is_stmt 0 discriminator 3
	addi	a5,sp,8
	add	a5,a5,s0
	.loc 1 676 3 discriminator 3
	lbu	a2,0(a5)
	mv	a1,s0
	addi	a0,s2,%lo(.LC26)
	.loc 1 675 19 discriminator 3
	addi	s0,s0,1
.LVL129:
	.loc 1 676 3 discriminator 3
	call	printf
.LVL130:
	.loc 1 675 6 discriminator 3
	bne	s0,s1,.L74
	.loc 1 679 5 is_stmt 1
	addi	a1,sp,17
	addi	a0,sp,8
	li	a2,6
	call	reverse_bytearray
.LVL131:
	.loc 1 681 5
	.loc 1 681 12 is_stmt 0
	addi	a1,sp,24
	addi	a0,sp,16
	call	bt_conn_create_le
.LVL132:
	.loc 1 683 5 is_stmt 1
	.loc 1 683 7 is_stmt 0
	bne	a0,zero,.L75
	.loc 1 684 9 is_stmt 1
	lui	a0,%hi(.LC27)
.LVL133:
	addi	a0,a0,%lo(.LC27)
	j	.L79
.LVL134:
.L75:
	.loc 1 686 9
	lui	a0,%hi(.LC28)
.LVL135:
	addi	a0,a0,%lo(.LC28)
	j	.L79
	.cfi_endproc
.LFE86:
	.size	ble_connect, .-ble_connect
	.section	.text.ble_stop_advertise,"ax",@progbits
	.align	1
	.type	ble_stop_advertise, @function
ble_stop_advertise:
.LFB85:
	.loc 1 568 1
	.cfi_startproc
.LVL136:
	.loc 1 569 5
	.loc 1 568 1 is_stmt 0
	addi	sp,sp,-16
	.cfi_def_cfa_offset 16
	sw	ra,12(sp)
	.cfi_offset 1, -4
	.loc 1 569 8
	call	bt_le_adv_stop
.LVL137:
	.loc 1 569 7
	beq	a0,zero,.L81
	.loc 1 570 9 is_stmt 1
	lui	a0,%hi(.LC29)
	addi	a0,a0,%lo(.LC29)
.L83:
	.loc 1 574 1 is_stmt 0
	lw	ra,12(sp)
	.cfi_remember_state
	.cfi_restore 1
	addi	sp,sp,16
	.cfi_def_cfa_offset 0
	.loc 1 572 9
	tail	printf
.LVL138:
.L81:
	.cfi_restore_state
	.loc 1 572 9 is_stmt 1
	lui	a0,%hi(.LC30)
	addi	a0,a0,%lo(.LC30)
	j	.L83
	.cfi_endproc
.LFE85:
	.size	ble_stop_advertise, .-ble_stop_advertise
	.section	.text.ble_get_device_name,"ax",@progbits
	.align	1
	.type	ble_get_device_name, @function
ble_get_device_name:
.LFB76:
	.loc 1 346 1
	.cfi_startproc
.LVL139:
	.loc 1 347 2
	.loc 1 346 1 is_stmt 0
	addi	sp,sp,-16
	.cfi_def_cfa_offset 16
	sw	ra,12(sp)
	.cfi_offset 1, -4
	.loc 1 347 28
	call	bt_get_name
.LVL140:
	.loc 1 349 2 is_stmt 1
	.loc 1 349 4 is_stmt 0
	beq	a0,zero,.L85
	.loc 1 353 1
	lw	ra,12(sp)
	.cfi_remember_state
	.cfi_restore 1
	mv	a1,a0
	.loc 1 350 3 is_stmt 1
	lui	a0,%hi(.LC31)
.LVL141:
	.loc 1 353 1 is_stmt 0
	.loc 1 350 3
	addi	a0,a0,%lo(.LC31)
	.loc 1 353 1
	addi	sp,sp,16
	.cfi_def_cfa_offset 0
	.loc 1 350 3
	tail	printf
.LVL142:
.L85:
	.cfi_restore_state
	.loc 1 352 3 is_stmt 1
	.loc 1 353 1 is_stmt 0
	lw	ra,12(sp)
	.cfi_restore 1
	.loc 1 352 3
	lui	a0,%hi(.LC32)
.LVL143:
	.loc 1 353 1
	.loc 1 352 3
	addi	a0,a0,%lo(.LC32)
	.loc 1 353 1
	addi	sp,sp,16
	.cfi_def_cfa_offset 0
	.loc 1 352 3
	tail	printf
.LVL144:
	.cfi_endproc
.LFE76:
	.size	ble_get_device_name, .-ble_get_device_name
	.section	.text.ble_start_advertise,"ax",@progbits
	.align	1
	.type	ble_start_advertise, @function
ble_start_advertise:
.LFB84:
	.loc 1 485 1 is_stmt 1
	.cfi_startproc
.LVL145:
	.loc 1 486 5
	.loc 1 487 5
	.loc 1 488 5
	.loc 1 489 5
	.loc 1 490 5
	.loc 1 492 5
	.loc 1 485 1 is_stmt 0
	addi	sp,sp,-64
	.cfi_def_cfa_offset 64
	.loc 1 492 7
	addi	a5,a2,-3
	.loc 1 485 1
	sw	ra,60(sp)
	sw	s0,56(sp)
	sw	s1,52(sp)
	sw	s2,48(sp)
	sw	s3,44(sp)
	sw	s4,40(sp)
	.cfi_offset 1, -4
	.cfi_offset 8, -8
	.cfi_offset 9, -12
	.cfi_offset 18, -16
	.cfi_offset 19, -20
	.cfi_offset 20, -24
	.loc 1 492 7
	andi	a5,a5,-3
	beq	a5,zero,.L88
	.loc 1 493 9 is_stmt 1
	lui	a0,%hi(.LC4)
.LVL146:
	addi	a0,a0,%lo(.LC4)
.LVL147:
.L107:
	.loc 1 562 9 is_stmt 0
	call	printf
.LVL148:
	j	.L87
.LVL149:
.L88:
	.loc 1 498 24
	li	a5,160
	.loc 1 502 5
	addi	a0,a3,4
.LVL150:
	.loc 1 498 24
	sh	a5,26(sp)
	.loc 1 502 5
	addi	a1,sp,22
.LVL151:
	.loc 1 499 24
	li	a5,240
	sh	a5,28(sp)
	mv	s3,a2
	mv	s2,a3
	.loc 1 497 5 is_stmt 1
	.loc 1 497 14 is_stmt 0
	sb	zero,24(sp)
	.loc 1 498 5 is_stmt 1
	.loc 1 499 5
	.loc 1 502 5
	call	get_uint8_from_string
.LVL152:
	.loc 1 503 5
	lbu	a1,22(sp)
	lui	a0,%hi(.LC33)
	addi	a0,a0,%lo(.LC33)
	call	printf
.LVL153:
	.loc 1 504 5
	.loc 1 504 17 is_stmt 0
	lbu	a5,22(sp)
	.loc 1 504 7
	bne	a5,zero,.L90
	.loc 1 505 9 is_stmt 1
	.loc 1 505 23 is_stmt 0
	li	a5,11
.L104:
	.loc 1 507 23
	sb	a5,25(sp)
.L91:
	.loc 1 516 5 is_stmt 1
	addi	a1,sp,23
	addi	a0,s2,8
	call	get_uint8_from_string
.LVL154:
	.loc 1 517 5
	lbu	a1,23(sp)
	lui	a0,%hi(.LC35)
	addi	a0,a0,%lo(.LC35)
	call	printf
.LVL155:
	.loc 1 518 5
	.loc 1 518 31 is_stmt 0
	lbu	a5,23(sp)
	.loc 1 518 7
	li	a4,2
	bgtu	a5,a4,.L94
.LBB2:
	.loc 1 520 9 is_stmt 1
	lui	s1,%hi(.LANCHOR5)
	addi	s0,s1,%lo(.LANCHOR5)
	.loc 1 520 11 is_stmt 0
	bne	a5,zero,.L95
.LBB3:
	.loc 1 521 13 is_stmt 1
.LVL156:
	.loc 1 521 163 is_stmt 0
	li	a5,6
	sb	a5,12(sp)
.LVL157:
	.loc 1 522 13 is_stmt 1
	.loc 1 522 26 is_stmt 0
	li	a5,257
	sh	a5,0(s0)
	addi	a5,sp,12
.LVL158:
.L105:
.LBE3:
.LBB4:
	.loc 1 528 17 discriminator 3
	sw	a5,4(s0)
.LVL159:
.LBE4:
	.loc 1 533 9 is_stmt 1 discriminator 3
	.loc 1 533 28 is_stmt 0 discriminator 3
	call	bt_get_name
.LVL160:
	mv	s4,a0
.LVL161:
	.loc 1 534 9 is_stmt 1 discriminator 3
	.loc 1 534 78 is_stmt 0 discriminator 3
	call	strlen
.LVL162:
	.loc 1 535 9 is_stmt 1 discriminator 3
	.loc 1 535 22 is_stmt 0 discriminator 3
	li	a5,9
	sb	a5,8(s0)
	.loc 1 534 24 discriminator 3
	sb	a0,9(s0)
	.loc 1 535 22 discriminator 3
	sw	s4,12(s0)
	.loc 1 537 9 is_stmt 1 discriminator 3
.LVL163:
	.loc 1 538 9 discriminator 3
.LBE2:
	.loc 1 545 5 discriminator 3
	.loc 1 545 7 is_stmt 0 discriminator 3
	li	a5,5
	bne	s3,a5,.L99
	.loc 1 546 9 is_stmt 1
	addi	a1,sp,26
	addi	a0,s2,12
	call	get_uint16_from_string
.LVL164:
	.loc 1 547 9
	addi	a1,sp,28
	addi	a0,s2,16
	call	get_uint16_from_string
.LVL165:
	.loc 1 549 8
	lhu	a1,26(sp)
	lui	a0,%hi(.LC37)
	addi	a0,a0,%lo(.LC37)
	call	printf
.LVL166:
	.loc 1 550 8
	lhu	a1,28(sp)
	lui	a0,%hi(.LC38)
	addi	a0,a0,%lo(.LC38)
	call	printf
.LVL167:
.L99:
	.loc 1 553 5
	.loc 1 553 7 is_stmt 0
	lbu	a4,22(sp)
	li	a5,1
	bgtu	a4,a5,.L100
	.loc 1 554 9 is_stmt 1
	.loc 1 554 15 is_stmt 0
	li	a4,1
	addi	a3,s1,%lo(.LANCHOR5)
.L106:
	.loc 1 556 15
	li	a2,2
	addi	a1,s1,%lo(.LANCHOR5)
	addi	a0,sp,24
	call	bt_le_adv_start
.LVL168:
	.loc 1 559 5 is_stmt 1
	.loc 1 559 7 is_stmt 0
	beq	a0,zero,.L102
	.loc 1 560 9 is_stmt 1
	mv	a1,a0
	lui	a0,%hi(.LC39)
.LVL169:
	addi	a0,a0,%lo(.LC39)
	call	printf
.LVL170:
.L87:
	.loc 1 565 1 is_stmt 0
	lw	ra,60(sp)
	.cfi_remember_state
	.cfi_restore 1
	lw	s0,56(sp)
	.cfi_restore 8
	lw	s1,52(sp)
	.cfi_restore 9
	lw	s2,48(sp)
	.cfi_restore 18
	lw	s3,44(sp)
	.cfi_restore 19
	lw	s4,40(sp)
	.cfi_restore 20
	addi	sp,sp,64
	.cfi_def_cfa_offset 0
	jr	ra
.LVL171:
.L90:
	.cfi_restore_state
	.loc 1 506 11 is_stmt 1
	.loc 1 506 13 is_stmt 0
	li	a4,1
	bne	a5,a4,.L92
	.loc 1 507 9 is_stmt 1
	.loc 1 507 23 is_stmt 0
	li	a5,8
	j	.L104
.L92:
	.loc 1 508 11 is_stmt 1
	.loc 1 508 13 is_stmt 0
	li	a4,2
	bne	a5,a4,.L93
	.loc 1 509 9 is_stmt 1
	.loc 1 509 23 is_stmt 0
	sb	zero,25(sp)
	j	.L91
.L93:
	.loc 1 511 9 is_stmt 1
	lui	a0,%hi(.LC34)
	addi	a0,a0,%lo(.LC34)
	j	.L107
.L95:
.LBB7:
	.loc 1 523 15
	.loc 1 523 17 is_stmt 0
	li	a4,1
	bne	a5,a4,.L97
.LBB5:
	.loc 1 524 4 is_stmt 1 discriminator 2
.LVL172:
	.loc 1 524 145 is_stmt 0 discriminator 2
	li	a5,4
	sb	a5,16(sp)
.LVL173:
	.loc 1 525 13 is_stmt 1 discriminator 2
	.loc 1 525 26 is_stmt 0 discriminator 2
	li	a5,257
	sh	a5,0(s0)
	addi	a5,sp,16
.LVL174:
	j	.L105
.LVL175:
.L97:
.LBE5:
	.loc 1 526 15 is_stmt 1 discriminator 3
.LBB6:
	.loc 1 527 4 discriminator 3
	.loc 1 527 155 is_stmt 0 discriminator 3
	li	a5,5
	sb	a5,20(sp)
.LVL176:
	.loc 1 528 4 is_stmt 1 discriminator 3
	.loc 1 528 17 is_stmt 0 discriminator 3
	li	a5,257
	sh	a5,0(s0)
	addi	a5,sp,20
.LVL177:
	j	.L105
.LVL178:
.L94:
.LBE6:
.LBE7:
	.loc 1 541 9 is_stmt 1
	lui	a0,%hi(.LC36)
	addi	a0,a0,%lo(.LC36)
	j	.L107
.LVL179:
.L100:
	.loc 1 556 9
	.loc 1 556 15 is_stmt 0
	li	a4,0
	li	a3,0
	j	.L106
.LVL180:
.L102:
	.loc 1 562 9 is_stmt 1
	lui	a0,%hi(.LC40)
.LVL181:
	addi	a0,a0,%lo(.LC40)
	j	.L107
	.cfi_endproc
.LFE84:
	.size	ble_start_advertise, .-ble_start_advertise
	.section	.text.ble_set_adv_channel,"ax",@progbits
	.align	1
	.type	ble_set_adv_channel, @function
ble_set_adv_channel:
.LFB83:
	.loc 1 463 1
	.cfi_startproc
.LVL182:
	.loc 1 464 5
	.loc 1 463 1 is_stmt 0
	addi	sp,sp,-32
	.cfi_def_cfa_offset 32
	.loc 1 464 10
	li	a5,7
	sb	a5,15(sp)
	.loc 1 466 5 is_stmt 1
	.loc 1 463 1 is_stmt 0
	sw	ra,28(sp)
	.cfi_offset 1, -4
	.loc 1 466 7
	li	a5,2
	beq	a2,a5,.L109
	.loc 1 468 9 is_stmt 1
	lui	a0,%hi(.LC4)
.LVL183:
	addi	a0,a0,%lo(.LC4)
.LVL184:
.L114:
	.loc 1 480 9 is_stmt 0
	call	printf
.LVL185:
	.loc 1 482 1
	lw	ra,28(sp)
	.cfi_remember_state
	.cfi_restore 1
	addi	sp,sp,32
	.cfi_def_cfa_offset 0
	jr	ra
.LVL186:
.L109:
	.cfi_restore_state
	.loc 1 472 5 is_stmt 1
	addi	a0,a3,4
.LVL187:
	addi	a1,sp,15
.LVL188:
	call	get_uint8_from_string
.LVL189:
	.loc 1 474 5
	.loc 1 474 9 is_stmt 0
	lbu	a0,15(sp)
	call	set_adv_channel_map
.LVL190:
	.loc 1 474 8
	bne	a0,zero,.L111
	.loc 1 476 9 is_stmt 1
	lui	a0,%hi(.LC41)
	addi	a0,a0,%lo(.LC41)
	j	.L114
.L111:
	.loc 1 480 9
	lui	a0,%hi(.LC42)
	addi	a0,a0,%lo(.LC42)
	j	.L114
	.cfi_endproc
.LFE83:
	.size	ble_set_adv_channel, .-ble_set_adv_channel
	.section	.text.ble_stop_scan,"ax",@progbits
	.align	1
	.type	ble_stop_scan, @function
ble_stop_scan:
.LFB81:
	.loc 1 433 1
	.cfi_startproc
.LVL191:
	.loc 1 434 2
	.loc 1 436 2
	.loc 1 433 1 is_stmt 0
	addi	sp,sp,-16
	.cfi_def_cfa_offset 16
	sw	ra,12(sp)
	.cfi_offset 1, -4
	.loc 1 436 8
	call	bt_le_scan_stop
.LVL192:
	.loc 1 437 2 is_stmt 1
	.loc 1 437 5 is_stmt 0
	beq	a0,zero,.L116
	.loc 1 442 1
	lw	ra,12(sp)
	.cfi_remember_state
	.cfi_restore 1
	mv	a1,a0
	.loc 1 438 3 is_stmt 1
	lui	a0,%hi(.LC43)
.LVL193:
	.loc 1 442 1 is_stmt 0
	.loc 1 438 3
	addi	a0,a0,%lo(.LC43)
	.loc 1 442 1
	addi	sp,sp,16
	.cfi_def_cfa_offset 0
	.loc 1 438 3
	tail	printf
.LVL194:
.L116:
	.cfi_restore_state
	.loc 1 440 3 is_stmt 1
	.loc 1 442 1 is_stmt 0
	lw	ra,12(sp)
	.cfi_restore 1
	.loc 1 440 3
	lui	a0,%hi(.LC44)
.LVL195:
	.loc 1 442 1
	.loc 1 440 3
	addi	a0,a0,%lo(.LC44)
	.loc 1 442 1
	addi	sp,sp,16
	.cfi_def_cfa_offset 0
	.loc 1 440 3
	tail	printf
.LVL196:
	.cfi_endproc
.LFE81:
	.size	ble_stop_scan, .-ble_stop_scan
	.section	.text.ble_disable,"ax",@progbits
	.align	1
	.type	ble_disable, @function
ble_disable:
.LFB120:
	.loc 1 1424 1 is_stmt 1
	.cfi_startproc
.LVL197:
	.loc 1 1425 2
	.loc 1 1427 5
	.loc 1 1424 1 is_stmt 0
	addi	sp,sp,-16
	.cfi_def_cfa_offset 16
	sw	ra,12(sp)
	.cfi_offset 1, -4
	.loc 1 1427 11
	call	bt_disable
.LVL198:
	.loc 1 1428 5 is_stmt 1
	.loc 1 1428 7 is_stmt 0
	beq	a0,zero,.L119
	.loc 1 1429 9 is_stmt 1
	lui	a0,%hi(.LC45)
.LVL199:
	addi	a0,a0,%lo(.LC45)
.L121:
	.loc 1 1433 1 is_stmt 0
	lw	ra,12(sp)
	.cfi_remember_state
	.cfi_restore 1
	addi	sp,sp,16
	.cfi_def_cfa_offset 0
	.loc 1 1431 9
	tail	printf
.LVL200:
.L119:
	.cfi_restore_state
	.loc 1 1431 9 is_stmt 1
	lui	a0,%hi(.LC46)
.LVL201:
	addi	a0,a0,%lo(.LC46)
	j	.L121
	.cfi_endproc
.LFE120:
	.size	ble_disable, .-ble_disable
	.section	.text.discover_func,"ax",@progbits
	.align	1
	.globl	discover_func
	.type	discover_func, @function
discover_func:
.LFB107:
	.loc 1 1052 1
	.cfi_startproc
.LVL202:
	.loc 1 1053 2
	.loc 1 1054 2
	.loc 1 1055 2
	.loc 1 1056 2
	.loc 1 1058 2
	.loc 1 1052 1 is_stmt 0
	addi	sp,sp,-64
	.cfi_def_cfa_offset 64
	sw	s1,52(sp)
	sw	ra,60(sp)
	sw	s0,56(sp)
	.cfi_offset 9, -12
	.cfi_offset 1, -4
	.cfi_offset 8, -8
	.loc 1 1052 1
	mv	s1,a2
	.loc 1 1058 5
	bne	a1,zero,.L123
	.loc 1 1059 3 is_stmt 1
	lui	a0,%hi(.LC47)
.LVL203:
	addi	a0,a0,%lo(.LC47)
	call	printf
.LVL204:
	.loc 1 1060 3
	.loc 1 1060 9 is_stmt 0
	mv	a0,s1
	li	a2,44
	li	a1,0
	call	memset
.LVL205:
	.loc 1 1061 3 is_stmt 1
	.loc 1 1061 10 is_stmt 0
	li	s1,0
.LVL206:
.L124:
	.loc 1 1090 1
	lw	ra,60(sp)
	.cfi_remember_state
	.cfi_restore 1
	lw	s0,56(sp)
	.cfi_restore 8
	mv	a0,s1
	lw	s1,52(sp)
	.cfi_restore 9
	addi	sp,sp,64
	.cfi_def_cfa_offset 0
	jr	ra
.LVL207:
.L123:
	.cfi_restore_state
	.loc 1 1064 16
	lbu	a5,40(a2)
	.loc 1 1064 2
	li	a4,2
	mv	s0,a1
	.loc 1 1064 2 is_stmt 1
	beq	a5,a4,.L125
.LVL208:
	bltu	a5,a4,.L126
	li	a4,3
	beq	a5,a4,.L127
	.loc 1 1084 3
	lw	a0,0(s0)
.LVL209:
	addi	a1,sp,8
	li	a2,37
	call	bt_uuid_to_str
.LVL210:
	.loc 1 1085 3
	lhu	a2,16(s0)
	lui	a0,%hi(.LC60)
	addi	a1,sp,8
	addi	a0,a0,%lo(.LC60)
	call	printf
.LVL211:
	j	.L160
.LVL212:
.L126:
	.loc 1 1067 3
	.loc 1 1067 16 is_stmt 0
	lw	s1,12(a1)
.LVL213:
	.loc 1 1068 3 is_stmt 1
	li	a2,37
.LVL214:
	addi	a1,sp,8
	lw	a0,0(s1)
.LVL215:
	call	bt_uuid_to_str
.LVL216:
	.loc 1 1069 3
	lhu	a3,4(s1)
	lhu	a2,16(s0)
	lui	a0,%hi(.LC48)
	addi	a1,sp,8
	addi	a0,a0,%lo(.LC48)
	call	printf
.LVL217:
	.loc 1 1070 3
.L160:
	.loc 1 1086 3
	.loc 1 1089 9 is_stmt 0
	li	s1,1
	.loc 1 1086 3
	j	.L124
.LVL218:
.L127:
	.loc 1 1072 3 is_stmt 1
	.loc 1 1072 13 is_stmt 0
	lw	s1,12(a1)
.LVL219:
	.loc 1 1073 3 is_stmt 1
	li	a2,37
.LVL220:
	addi	a1,sp,8
	lw	a0,0(s1)
.LVL221:
	call	bt_uuid_to_str
.LVL222:
	.loc 1 1074 3
	lhu	a2,16(s0)
	lhu	a3,4(s1)
	lui	a0,%hi(.LC49)
	addi	a1,sp,8
	addi	a0,a0,%lo(.LC49)
	call	printf
.LVL223:
	.loc 1 1075 3
.LBB10:
.LBB11:
	.loc 1 1016 2 is_stmt 0
	lui	a0,%hi(.LC50)
.LBE11:
.LBE10:
	.loc 1 1075 3
	lbu	s0,6(s1)
.LVL224:
.LBB14:
.LBB12:
	.loc 1 1016 2 is_stmt 1
	addi	a0,a0,%lo(.LC50)
	call	printf
.LVL225:
	.loc 1 1018 2
	.loc 1 1018 5 is_stmt 0
	andi	a5,s0,1
	beq	a5,zero,.L129
	.loc 1 1019 3 is_stmt 1
	lui	a0,%hi(.LC51)
	addi	a0,a0,%lo(.LC51)
	call	printf
.LVL226:
.L129:
	.loc 1 1022 2
	.loc 1 1022 5 is_stmt 0
	andi	a5,s0,2
	beq	a5,zero,.L130
	.loc 1 1023 3 is_stmt 1
	lui	a0,%hi(.LC52)
	addi	a0,a0,%lo(.LC52)
	call	printf
.LVL227:
.L130:
	.loc 1 1026 2
	.loc 1 1026 5 is_stmt 0
	andi	a5,s0,8
	beq	a5,zero,.L131
	.loc 1 1027 3 is_stmt 1
	lui	a0,%hi(.LC53)
	addi	a0,a0,%lo(.LC53)
	call	printf
.LVL228:
.L131:
	.loc 1 1030 2
	.loc 1 1030 5 is_stmt 0
	andi	a5,s0,4
	beq	a5,zero,.L132
	.loc 1 1031 3 is_stmt 1
	lui	a0,%hi(.LC54)
	addi	a0,a0,%lo(.LC54)
	call	printf
.LVL229:
.L132:
	.loc 1 1034 2
	.loc 1 1034 5 is_stmt 0
	andi	a5,s0,16
	beq	a5,zero,.L133
	.loc 1 1035 3 is_stmt 1
	lui	a0,%hi(.LC55)
	addi	a0,a0,%lo(.LC55)
	call	printf
.LVL230:
.L133:
	.loc 1 1038 2
	.loc 1 1038 5 is_stmt 0
	andi	a5,s0,32
	beq	a5,zero,.L134
	.loc 1 1039 3 is_stmt 1
	lui	a0,%hi(.LC56)
	addi	a0,a0,%lo(.LC56)
	call	printf
.LVL231:
.L134:
	.loc 1 1042 2
	.loc 1 1042 5 is_stmt 0
	andi	a5,s0,64
	beq	a5,zero,.L135
	.loc 1 1043 3 is_stmt 1
	lui	a0,%hi(.LC57)
	addi	a0,a0,%lo(.LC57)
	call	printf
.LVL232:
.L135:
	.loc 1 1046 2
	.loc 1 1046 5 is_stmt 0
	slli	s0,s0,24
.LVL233:
	srai	s0,s0,24
.LBE12:
.LBE14:
	.loc 1 1089 9
	li	s1,1
.LVL234:
.LBB15:
.LBB13:
	.loc 1 1046 5
	bge	s0,zero,.L124
	.loc 1 1047 3 is_stmt 1
	lui	a0,%hi(.LC58)
	addi	a0,a0,%lo(.LC58)
	call	printf
.LVL235:
	j	.L124
.LVL236:
.L125:
.LBE13:
.LBE15:
	.loc 1 1078 3
	.loc 1 1078 16 is_stmt 0
	lw	s1,12(a1)
.LVL237:
	.loc 1 1079 3 is_stmt 1
	li	a2,37
.LVL238:
	addi	a1,sp,8
	lw	a0,0(s1)
.LVL239:
	call	bt_uuid_to_str
.LVL240:
	.loc 1 1080 3
	lhu	a4,6(s1)
	lhu	a3,4(s1)
	lhu	a2,16(s0)
	lui	a0,%hi(.LC59)
	addi	a1,sp,8
	addi	a0,a0,%lo(.LC59)
	call	printf
.LVL241:
	.loc 1 1082 3
	j	.L160
	.cfi_endproc
.LFE107:
	.size	discover_func, .-discover_func
	.section	.text.ble_set_data_len,"ax",@progbits
	.align	1
	.type	ble_set_data_len, @function
ble_set_data_len:
.LFB117:
	.loc 1 1342 1
	.cfi_startproc
.LVL242:
	.loc 1 1343 2
	.loc 1 1344 2
	.loc 1 1345 2
	.loc 1 1347 2
	.loc 1 1342 1 is_stmt 0
	addi	sp,sp,-48
	.cfi_def_cfa_offset 48
	sw	ra,44(sp)
	sw	s0,40(sp)
	.cfi_offset 1, -4
	.cfi_offset 8, -8
	.loc 1 1347 4
	li	a5,3
	beq	a2,a5,.L162
	.loc 1 1348 6 is_stmt 1
	lui	a0,%hi(.LC4)
.LVL243:
	addi	a0,a0,%lo(.LC4)
.LVL244:
.L168:
.LBB18:
.LBB19:
	.loc 1 1366 3 is_stmt 0
	call	printf
.LVL245:
	j	.L161
.LVL246:
.L162:
.LBE19:
.LBE18:
	.loc 1 1352 2 is_stmt 1
	.loc 1 1352 6 is_stmt 0
	lui	s0,%hi(.LANCHOR0)
	addi	s0,s0,%lo(.LANCHOR0)
	.loc 1 1352 5
	lw	a5,0(s0)
	bne	a5,zero,.L164
	.loc 1 1353 3 is_stmt 1
	lui	a0,%hi(.LC8)
.LVL247:
	addi	a0,a0,%lo(.LC8)
	j	.L168
.LVL248:
.L164:
.LBB22:
.LBB20:
	.loc 1 1357 2
	addi	a0,a3,4
.LVL249:
	addi	a1,sp,28
.LVL250:
	sw	a3,12(sp)
	call	get_uint16_from_string
.LVL251:
	.loc 1 1358 2
	lw	a3,12(sp)
	addi	a1,sp,30
	addi	a0,a3,8
	call	get_uint16_from_string
.LVL252:
	.loc 1 1360 2
	.loc 1 1360 8 is_stmt 0
	lhu	a1,28(sp)
	lhu	a2,30(sp)
	lw	a0,0(s0)
	call	bt_le_set_data_len
.LVL253:
	mv	a1,a0
.LVL254:
	.loc 1 1361 2 is_stmt 1
	.loc 1 1361 5 is_stmt 0
	beq	a0,zero,.L165
	.loc 1 1362 3 is_stmt 1
	lui	a0,%hi(.LC61)
.LVL255:
	addi	a0,a0,%lo(.LC61)
	call	printf
.LVL256:
.L161:
.LBE20:
.LBE22:
	.loc 1 1368 1 is_stmt 0
	lw	ra,44(sp)
	.cfi_remember_state
	.cfi_restore 1
	lw	s0,40(sp)
	.cfi_restore 8
	addi	sp,sp,48
	.cfi_def_cfa_offset 0
	jr	ra
.LVL257:
.L165:
	.cfi_restore_state
.LBB23:
.LBB21:
	.loc 1 1366 3 is_stmt 1
	lui	a0,%hi(.LC62)
.LVL258:
	addi	a0,a0,%lo(.LC62)
	j	.L168
.LBE21:
.LBE23:
	.cfi_endproc
.LFE117:
	.size	ble_set_data_len, .-ble_set_data_len
	.section	.text.ble_subscribe,"ax",@progbits
	.align	1
	.type	ble_subscribe, @function
ble_subscribe:
.LFB115:
	.loc 1 1295 1
	.cfi_startproc
.LVL259:
	.loc 1 1296 5
	.loc 1 1296 7 is_stmt 0
	li	a5,4
	beq	a2,a5,.L170
	.loc 1 1297 9 is_stmt 1
	lui	a0,%hi(.LC4)
.LVL260:
	addi	a0,a0,%lo(.LC4)
.LVL261:
.L175:
.LBB26:
.LBB27:
	.loc 1 1315 9 is_stmt 0
	tail	printf
.LVL262:
.L170:
.LBE27:
.LBE26:
	.loc 1 1301 5 is_stmt 1
	.loc 1 1295 1 is_stmt 0
	addi	sp,sp,-32
	.cfi_def_cfa_offset 32
	sw	s1,20(sp)
	.cfi_offset 9, -12
	.loc 1 1301 9
	lui	s1,%hi(.LANCHOR0)
	addi	s1,s1,%lo(.LANCHOR0)
	.loc 1 1301 8
	lw	a5,0(s1)
	.loc 1 1295 1
	sw	ra,28(sp)
	sw	s0,24(sp)
	sw	s2,16(sp)
	sw	s3,12(sp)
	.cfi_offset 1, -4
	.cfi_offset 8, -8
	.cfi_offset 18, -16
	.cfi_offset 19, -20
	.loc 1 1301 8
	bne	a5,zero,.L171
	.loc 1 1302 9 is_stmt 1
	lui	a0,%hi(.LC8)
.LVL263:
	addi	a0,a0,%lo(.LC8)
.LVL264:
.L176:
	.loc 1 1318 1 is_stmt 0
	lw	s0,24(sp)
	.cfi_remember_state
	.cfi_restore 8
	lw	ra,28(sp)
	.cfi_restore 1
	lw	s1,20(sp)
	.cfi_restore 9
	lw	s2,16(sp)
	.cfi_restore 18
	lw	s3,12(sp)
	.cfi_restore 19
	addi	sp,sp,32
	.cfi_def_cfa_offset 0
	j	.L175
.LVL265:
.L171:
	.cfi_restore_state
.LBB32:
.LBB28:
	.loc 1 1306 5
	lui	s3,%hi(.LANCHOR1)
	addi	s2,s3,%lo(.LANCHOR1)
	addi	a0,a3,4
.LVL266:
	addi	a1,s2,38
.LVL267:
	mv	s0,a3
.LVL268:
	.loc 1 1306 5 is_stmt 1
	call	get_uint16_from_string
.LVL269:
	.loc 1 1307 5
	addi	a1,s2,36
	addi	a0,s0,8
	call	get_uint16_from_string
.LVL270:
	.loc 1 1308 5
	addi	a1,s2,40
	addi	a0,s0,12
	call	get_uint16_from_string
.LVL271:
	.loc 1 1309 5
	.loc 1 1311 15 is_stmt 0
	lw	a0,0(s1)
	.loc 1 1309 29
	lui	a5,%hi(notify_func)
	addi	a5,a5,%lo(notify_func)
	.loc 1 1311 15
	addi	a1,s3,%lo(.LANCHOR1)
	.loc 1 1309 29
	sw	a5,32(s2)
	.loc 1 1311 5 is_stmt 1
	.loc 1 1311 15 is_stmt 0
	call	bt_gatt_subscribe
.LVL272:
	mv	a1,a0
.LVL273:
	.loc 1 1312 5 is_stmt 1
	.loc 1 1312 8 is_stmt 0
	beq	a0,zero,.L172
	.loc 1 1313 9 is_stmt 1
.LBE28:
.LBE32:
	.loc 1 1318 1 is_stmt 0
	lw	s0,24(sp)
	.cfi_remember_state
	.cfi_restore 8
.LVL274:
	lw	ra,28(sp)
	.cfi_restore 1
	lw	s1,20(sp)
	.cfi_restore 9
	lw	s2,16(sp)
	.cfi_restore 18
	lw	s3,12(sp)
	.cfi_restore 19
.LBB33:
.LBB29:
	.loc 1 1313 9
	lui	a0,%hi(.LC63)
.LVL275:
.LBE29:
.LBE33:
	.loc 1 1318 1
.LBB34:
.LBB30:
	.loc 1 1313 9
	addi	a0,a0,%lo(.LC63)
.LBE30:
.LBE34:
	.loc 1 1318 1
	addi	sp,sp,32
	.cfi_def_cfa_offset 0
.LBB35:
.LBB31:
	.loc 1 1313 9
	tail	printf
.LVL276:
.L172:
	.cfi_restore_state
	.loc 1 1315 9 is_stmt 1
	lui	a0,%hi(.LC64)
.LVL277:
	addi	a0,a0,%lo(.LC64)
	j	.L176
.LBE31:
.LBE35:
	.cfi_endproc
.LFE115:
	.size	ble_subscribe, .-ble_subscribe
	.section	.text.ble_write,"ax",@progbits
	.align	1
	.type	ble_write, @function
ble_write:
.LFB112:
	.loc 1 1212 1
	.cfi_startproc
.LVL278:
	.loc 1 1213 2
	.loc 1 1214 5
	.loc 1 1216 5
	.loc 1 1216 7 is_stmt 0
	li	a5,5
	beq	a2,a5,.L178
	.loc 1 1217 9 is_stmt 1
	lui	a0,%hi(.LC4)
.LVL279:
	addi	a0,a0,%lo(.LC4)
.LVL280:
.L185:
.LBB38:
.LBB39:
	.loc 1 1246 3 is_stmt 0
	tail	printf
.LVL281:
.L178:
.LBE39:
.LBE38:
	.loc 1 1221 2 is_stmt 1
	.loc 1 1221 6 is_stmt 0
	lui	a5,%hi(.LANCHOR0)
	.loc 1 1221 5
	lw	a4,%lo(.LANCHOR0)(a5)
	.loc 1 1212 1
	addi	sp,sp,-32
	.cfi_def_cfa_offset 32
	sw	s4,8(sp)
	sw	ra,28(sp)
	sw	s0,24(sp)
	sw	s1,20(sp)
	sw	s2,16(sp)
	sw	s3,12(sp)
	sw	s5,4(sp)
	.cfi_offset 20, -24
	.cfi_offset 1, -4
	.cfi_offset 8, -8
	.cfi_offset 9, -12
	.cfi_offset 18, -16
	.cfi_offset 19, -20
	.cfi_offset 21, -28
	addi	s4,a5,%lo(.LANCHOR0)
	.loc 1 1221 5
	bne	a4,zero,.L179
	.loc 1 1222 3 is_stmt 1
	lui	a0,%hi(.LC8)
.LVL282:
	addi	a0,a0,%lo(.LC8)
.LVL283:
.L186:
	.loc 1 1248 1 is_stmt 0
	lw	s0,24(sp)
	.cfi_remember_state
	.cfi_restore 8
	lw	ra,28(sp)
	.cfi_restore 1
	lw	s1,20(sp)
	.cfi_restore 9
	lw	s2,16(sp)
	.cfi_restore 18
	lw	s3,12(sp)
	.cfi_restore 19
	lw	s4,8(sp)
	.cfi_restore 20
	lw	s5,4(sp)
	.cfi_restore 21
	addi	sp,sp,32
	.cfi_def_cfa_offset 0
	j	.L185
.LVL284:
.L179:
	.cfi_restore_state
	.loc 1 1226 2 is_stmt 1
	.loc 1 1226 18 is_stmt 0
	lui	s2,%hi(.LANCHOR2)
	addi	a5,s2,%lo(.LANCHOR2)
	.loc 1 1226 5
	lw	a5,24(a5)
	addi	s0,s2,%lo(.LANCHOR2)
	beq	a5,zero,.L180
	.loc 1 1227 3 is_stmt 1
	lui	a0,%hi(.LC65)
.LVL285:
	addi	a0,a0,%lo(.LC65)
	j	.L186
.LVL286:
.L180:
.LBB44:
.LBB40:
	.loc 1 1231 5 is_stmt 0
	addi	a0,a3,4
.LVL287:
	addi	a1,s0,28
.LVL288:
	mv	s1,a3
.LVL289:
	.loc 1 1231 5 is_stmt 1
	call	get_uint16_from_string
.LVL290:
	.loc 1 1232 5
	addi	a1,s0,30
	addi	a0,s1,8
	call	get_uint16_from_string
.LVL291:
	.loc 1 1233 5
	addi	a1,s0,36
	addi	a0,s1,12
	call	get_uint16_from_string
.LVL292:
	.loc 1 1234 5
	.loc 1 1234 14 is_stmt 0
	lhu	s3,36(s0)
	li	a5,512
	bgeu	a5,s3,.L181
	li	s3,512
.L181:
.LVL293:
	.loc 1 1235 5 is_stmt 1
	lui	a1,%hi(.LANCHOR6)
	slli	a2,s3,16
	addi	s5,a1,%lo(.LANCHOR6)
	srli	a2,a2,16
	addi	a1,a1,%lo(.LANCHOR6)
	addi	a0,s1,16
	call	get_bytearray_from_string
.LVL294:
	.loc 1 1237 2
	.loc 1 1241 8 is_stmt 0
	lw	a0,0(s4)
	.loc 1 1239 20
	lui	a5,%hi(write_func)
	addi	a5,a5,%lo(write_func)
	.loc 1 1241 8
	addi	a1,s2,%lo(.LANCHOR2)
	.loc 1 1237 20
	sw	s5,32(s0)
	.loc 1 1238 2 is_stmt 1
	.loc 1 1238 22 is_stmt 0
	sh	s3,36(s0)
	.loc 1 1239 2 is_stmt 1
	.loc 1 1239 20 is_stmt 0
	sw	a5,24(s0)
	.loc 1 1241 2 is_stmt 1
	.loc 1 1241 8 is_stmt 0
	call	bt_gatt_write
.LVL295:
	mv	a1,a0
.LVL296:
	.loc 1 1243 2 is_stmt 1
	.loc 1 1243 5 is_stmt 0
	beq	a0,zero,.L182
	.loc 1 1244 3 is_stmt 1
.LBE40:
.LBE44:
	.loc 1 1248 1 is_stmt 0
	lw	s0,24(sp)
	.cfi_remember_state
	.cfi_restore 8
	lw	ra,28(sp)
	.cfi_restore 1
	lw	s1,20(sp)
	.cfi_restore 9
.LVL297:
	lw	s2,16(sp)
	.cfi_restore 18
	lw	s3,12(sp)
	.cfi_restore 19
.LVL298:
	lw	s4,8(sp)
	.cfi_restore 20
	lw	s5,4(sp)
	.cfi_restore 21
.LBB45:
.LBB41:
	.loc 1 1244 3
	lui	a0,%hi(.LC66)
.LVL299:
.LBE41:
.LBE45:
	.loc 1 1248 1
.LBB46:
.LBB42:
	.loc 1 1244 3
	addi	a0,a0,%lo(.LC66)
.LBE42:
.LBE46:
	.loc 1 1248 1
	addi	sp,sp,32
	.cfi_def_cfa_offset 0
.LBB47:
.LBB43:
	.loc 1 1244 3
	tail	printf
.LVL300:
.L182:
	.cfi_restore_state
	.loc 1 1246 3 is_stmt 1
	lui	a0,%hi(.LC67)
.LVL301:
	addi	a0,a0,%lo(.LC67)
	j	.L186
.LBE43:
.LBE47:
	.cfi_endproc
.LFE112:
	.size	ble_write, .-ble_write
	.section	.text.ble_read,"ax",@progbits
	.align	1
	.type	ble_read, @function
ble_read:
.LFB110:
	.loc 1 1173 1
	.cfi_startproc
.LVL302:
	.loc 1 1174 2
	.loc 1 1176 5
	.loc 1 1176 7 is_stmt 0
	li	a5,3
	beq	a2,a5,.L188
	.loc 1 1177 9 is_stmt 1
	lui	a0,%hi(.LC4)
.LVL303:
	addi	a0,a0,%lo(.LC4)
.LVL304:
.L193:
.LBB50:
.LBB51:
	.loc 1 1196 3 is_stmt 0
	tail	printf
.LVL305:
.L188:
.LBE51:
.LBE50:
	.loc 1 1181 2 is_stmt 1
	.loc 1 1173 1 is_stmt 0
	addi	sp,sp,-32
	.cfi_def_cfa_offset 32
	sw	s0,24(sp)
	.cfi_offset 8, -8
	.loc 1 1181 6
	lui	s0,%hi(.LANCHOR0)
	addi	s0,s0,%lo(.LANCHOR0)
	.loc 1 1181 5
	lw	a5,0(s0)
	.loc 1 1173 1
	sw	ra,28(sp)
	sw	s1,20(sp)
	sw	s2,16(sp)
	sw	s3,12(sp)
	.cfi_offset 1, -4
	.cfi_offset 9, -12
	.cfi_offset 18, -16
	.cfi_offset 19, -20
	.loc 1 1181 5
	bne	a5,zero,.L189
	.loc 1 1182 3 is_stmt 1
	lui	a0,%hi(.LC8)
.LVL306:
	addi	a0,a0,%lo(.LC8)
.LVL307:
.L194:
	.loc 1 1198 1 is_stmt 0
	lw	s0,24(sp)
	.cfi_remember_state
	.cfi_restore 8
	lw	ra,28(sp)
	.cfi_restore 1
	lw	s1,20(sp)
	.cfi_restore 9
	lw	s2,16(sp)
	.cfi_restore 18
	lw	s3,12(sp)
	.cfi_restore 19
	addi	sp,sp,32
	.cfi_def_cfa_offset 0
	j	.L193
.LVL308:
.L189:
	.cfi_restore_state
.LBB56:
.LBB52:
	.loc 1 1186 5
	lui	s3,%hi(.LANCHOR7)
	addi	s1,s3,%lo(.LANCHOR7)
	addi	a0,a3,4
.LVL309:
	addi	a1,s1,32
.LVL310:
	mv	s2,a3
.LVL311:
	.loc 1 1186 5 is_stmt 1
	call	get_uint16_from_string
.LVL312:
	.loc 1 1187 5
	addi	a1,s1,34
	addi	a0,s2,8
	call	get_uint16_from_string
.LVL313:
	.loc 1 1189 5
	.loc 1 1189 22 is_stmt 0
	lui	a5,%hi(read_func)
	.loc 1 1192 8
	lw	a0,0(s0)
	.loc 1 1189 22
	addi	a5,a5,%lo(read_func)
	sw	a5,24(s1)
	.loc 1 1190 2 is_stmt 1
	.loc 1 1192 8 is_stmt 0
	addi	a1,s3,%lo(.LANCHOR7)
	.loc 1 1190 27
	li	a5,1
	sw	a5,28(s1)
	.loc 1 1192 2 is_stmt 1
	.loc 1 1192 8 is_stmt 0
	call	bt_gatt_read
.LVL314:
	mv	a1,a0
.LVL315:
	.loc 1 1193 2 is_stmt 1
	.loc 1 1193 5 is_stmt 0
	beq	a0,zero,.L190
	.loc 1 1194 3 is_stmt 1
.LBE52:
.LBE56:
	.loc 1 1198 1 is_stmt 0
	lw	s0,24(sp)
	.cfi_remember_state
	.cfi_restore 8
	lw	ra,28(sp)
	.cfi_restore 1
	lw	s1,20(sp)
	.cfi_restore 9
	lw	s2,16(sp)
	.cfi_restore 18
.LVL316:
	lw	s3,12(sp)
	.cfi_restore 19
.LBB57:
.LBB53:
	.loc 1 1194 3
	lui	a0,%hi(.LC68)
.LVL317:
.LBE53:
.LBE57:
	.loc 1 1198 1
.LBB58:
.LBB54:
	.loc 1 1194 3
	addi	a0,a0,%lo(.LC68)
.LBE54:
.LBE58:
	.loc 1 1198 1
	addi	sp,sp,32
	.cfi_def_cfa_offset 0
.LBB59:
.LBB55:
	.loc 1 1194 3
	tail	printf
.LVL318:
.L190:
	.cfi_restore_state
	.loc 1 1196 3 is_stmt 1
	lui	a0,%hi(.LC69)
.LVL319:
	addi	a0,a0,%lo(.LC69)
	j	.L194
.LBE55:
.LBE59:
	.cfi_endproc
.LFE110:
	.size	ble_read, .-ble_read
	.section	.text.read_func,"ax",@progbits
	.align	1
	.type	read_func, @function
read_func:
.LFB109:
	.loc 1 1147 1
	.cfi_startproc
.LVL320:
	addi	sp,sp,-64
	.cfi_def_cfa_offset 64
	.loc 1 1148 2 is_stmt 0
	lui	a0,%hi(.LC70)
.LVL321:
	.loc 1 1147 1
	sw	s3,44(sp)
	.loc 1 1148 2
	addi	a0,a0,%lo(.LC70)
	.cfi_offset 19, -20
	.loc 1 1147 1
	mv	s3,a2
	.loc 1 1148 2
	mv	a2,a4
.LVL322:
	.loc 1 1147 1
	sw	ra,60(sp)
	sw	s1,52(sp)
	sw	s2,48(sp)
	.cfi_offset 1, -4
	.cfi_offset 9, -12
	.cfi_offset 18, -16
	mv	s1,a4
	mv	s2,a3
	.loc 1 1148 2 is_stmt 1
	.loc 1 1147 1 is_stmt 0
	sw	s0,56(sp)
	sw	s4,40(sp)
	.cfi_offset 8, -8
	.cfi_offset 20, -24
	.loc 1 1148 2
	call	printf
.LVL323:
	.loc 1 1150 2 is_stmt 1
	.loc 1 1151 2
	.loc 1 1152 5
	.loc 1 1154 2
	li	a2,15
	li	a1,0
	addi	a0,sp,8
	call	memset
.LVL324:
	.loc 1 1156 2
	.loc 1 1156 16 is_stmt 0
	addi	a5,s1,-1
	.loc 1 1156 4
	slli	a5,a5,16
	srli	a5,a5,16
	li	a4,21
	bleu	a5,a4,.L196
.LVL325:
.L201:
	.loc 1 1164 2 is_stmt 1
	.loc 1 1169 9 is_stmt 0
	li	a0,1
	.loc 1 1164 5
	bne	s2,zero,.L198
.LVL326:
.LBB62:
.LBB63:
	.loc 1 1165 3 is_stmt 1
	.loc 1 1165 9 is_stmt 0
	li	a2,40
	li	a1,0
	mv	a0,s3
	call	memset
.LVL327:
	.loc 1 1166 3 is_stmt 1
	.loc 1 1165 9 is_stmt 0
	li	a0,0
.L198:
.LBE63:
.LBE62:
	.loc 1 1170 1
	lw	ra,60(sp)
	.cfi_remember_state
	.cfi_restore 1
	lw	s0,56(sp)
	.cfi_restore 8
	lw	s1,52(sp)
	.cfi_restore 9
	lw	s2,48(sp)
	.cfi_restore 18
.LVL328:
	lw	s3,44(sp)
	.cfi_restore 19
.LVL329:
	lw	s4,40(sp)
	.cfi_restore 20
	addi	sp,sp,64
	.cfi_def_cfa_offset 0
	jr	ra
.LVL330:
.L196:
	.cfi_restore_state
	.loc 1 1157 3 is_stmt 1
	mv	a2,s1
	mv	a1,s2
	addi	a0,sp,8
	call	memcpy
.LVL331:
	.loc 1 1158 3
	lui	a0,%hi(.LC71)
	addi	a1,sp,8
	addi	a0,a0,%lo(.LC71)
	call	printf
.LVL332:
	.loc 1 1159 9
	.loc 1 1159 14 is_stmt 0
	li	s0,0
	.loc 1 1160 13
	lui	s4,%hi(.LC72)
.LVL333:
.L199:
	.loc 1 1159 9 discriminator 1
	ble	s1,s0,.L201
	.loc 1 1160 13 is_stmt 1 discriminator 3
	.loc 1 1160 40 is_stmt 0 discriminator 3
	add	a5,s2,s0
	.loc 1 1160 13 discriminator 3
	lbu	a1,0(a5)
	addi	a0,s4,%lo(.LC72)
	.loc 1 1159 27 discriminator 3
	addi	s0,s0,1
.LVL334:
	.loc 1 1160 13 discriminator 3
	call	printf
.LVL335:
	j	.L199
	.cfi_endproc
.LFE109:
	.size	read_func, .-read_func
	.section	.text.data_cb,"ax",@progbits
	.align	1
	.type	data_cb, @function
data_cb:
.LFB78:
	.loc 1 373 1 is_stmt 1
	.cfi_startproc
.LVL336:
	.loc 1 374 2
	.loc 1 375 5
	.loc 1 377 2
	lbu	a4,0(a0)
	li	a3,1
	addi	a4,a4,-8
	bgtu	a4,a3,.L206
	.loc 1 373 1 is_stmt 0
	addi	sp,sp,-16
	.cfi_def_cfa_offset 16
	sw	ra,12(sp)
	.cfi_offset 1, -4
.LBB66:
.LBB67:
	.loc 1 380 13
	lbu	a2,1(a0)
	li	a4,29
	mv	a5,a0
.LVL337:
	.loc 1 380 9 is_stmt 1
	.loc 1 381 3
	.loc 1 380 13 is_stmt 0
	bgeu	a4,a2,.L205
	li	a2,29
.L205:
	mv	a0,a1
.LVL338:
	.loc 1 381 3
	lw	a1,4(a5)
.LVL339:
	andi	a2,a2,0xff
	call	memcpy
.LVL340:
	.loc 1 382 3 is_stmt 1
.LBE67:
.LBE66:
	.loc 1 386 1 is_stmt 0
	lw	ra,12(sp)
	.cfi_restore 1
.LBB69:
.LBB68:
	.loc 1 381 3
	li	a0,0
.LBE68:
.LBE69:
	.loc 1 386 1
	addi	sp,sp,16
	.cfi_def_cfa_offset 0
	jr	ra
.LVL341:
.L206:
	.loc 1 384 9
	li	a0,1
.LVL342:
	.loc 1 386 1
	ret
	.cfi_endproc
.LFE78:
	.size	data_cb, .-data_cb
	.section	.text.ble_discover,"ax",@progbits
	.align	1
	.type	ble_discover, @function
ble_discover:
.LFB108:
	.loc 1 1093 1 is_stmt 1
	.cfi_startproc
.LVL343:
	.loc 1 1094 2
	.loc 1 1095 5
	.loc 1 1097 5
	.loc 1 1093 1 is_stmt 0
	addi	sp,sp,-48
	.cfi_def_cfa_offset 48
	sw	ra,44(sp)
	sw	s0,40(sp)
	sw	s1,36(sp)
	sw	s2,32(sp)
	sw	s3,28(sp)
	sw	s4,24(sp)
	sw	s5,20(sp)
	.cfi_offset 1, -4
	.cfi_offset 8, -8
	.cfi_offset 9, -12
	.cfi_offset 18, -16
	.cfi_offset 19, -20
	.cfi_offset 20, -24
	.cfi_offset 21, -28
	.loc 1 1097 7
	li	a5,5
	beq	a2,a5,.L212
	.loc 1 1098 9 is_stmt 1
	lui	a0,%hi(.LC4)
.LVL344:
	addi	a0,a0,%lo(.LC4)
.LVL345:
.L227:
.LBB72:
.LBB73:
	.loc 1 1140 3 is_stmt 0
	call	printf
.LVL346:
	j	.L211
.LVL347:
.L212:
.LBE73:
.LBE72:
	.loc 1 1102 2 is_stmt 1
	.loc 1 1102 6 is_stmt 0
	lui	s4,%hi(.LANCHOR0)
	.loc 1 1102 5
	lw	a5,%lo(.LANCHOR0)(s4)
	addi	s4,s4,%lo(.LANCHOR0)
	bne	a5,zero,.L214
	.loc 1 1103 3 is_stmt 1
	lui	a0,%hi(.LC8)
.LVL348:
	addi	a0,a0,%lo(.LC8)
	j	.L227
.LVL349:
.L214:
	.loc 1 1107 23 is_stmt 0
	lui	s1,%hi(.LANCHOR9)
	lui	a4,%hi(discover_func)
	addi	a5,s1,%lo(.LANCHOR9)
	addi	a4,a4,%lo(discover_func)
	sw	a4,28(a5)
	.loc 1 1108 31
	li	s2,1
	.loc 1 1109 29
	li	a4,-1
	.loc 1 1111 5
	addi	a1,sp,15
.LVL350:
	addi	a0,a3,4
.LVL351:
	.loc 1 1108 31
	sh	s2,32(a5)
	.loc 1 1109 29
	sh	a4,38(a5)
	mv	s5,a3
	.loc 1 1107 2 is_stmt 1
	.loc 1 1108 2
	.loc 1 1109 2
	.loc 1 1111 5
	call	get_uint8_from_string
.LVL352:
	.loc 1 1112 5
	.loc 1 1112 18 is_stmt 0
	lbu	a5,15(sp)
	addi	s0,s1,%lo(.LANCHOR9)
	.loc 1 1112 7
	bne	a5,zero,.L215
	.loc 1 1113 9 is_stmt 1
	.loc 1 1113 30 is_stmt 0
	sb	zero,40(s0)
.L216:
.LVL353:
.LBB76:
.LBB74:
	.loc 1 1126 5 is_stmt 1
	lui	s2,%hi(.LANCHOR8)
	addi	s3,s2,%lo(.LANCHOR8)
	addi	a1,s3,2
	addi	a0,s5,8
	call	get_uint16_from_string
.LVL354:
	.loc 1 1128 5
	.loc 1 1128 7 is_stmt 0
	lhu	a5,2(s3)
	.loc 1 1129 30
	addi	s2,s2,%lo(.LANCHOR8)
	.loc 1 1128 7
	bne	a5,zero,.L221
	.loc 1 1131 30
	li	s2,0
.L221:
	.loc 1 1133 5
	addi	a1,s0,32
	addi	a0,s5,12
	sw	s2,24(s0)
	.loc 1 1133 5 is_stmt 1
	call	get_uint16_from_string
.LVL355:
	.loc 1 1134 5
	addi	a1,s0,38
	addi	a0,s5,16
	call	get_uint16_from_string
.LVL356:
	.loc 1 1136 2
	.loc 1 1136 8 is_stmt 0
	lw	a0,0(s4)
	addi	a1,s1,%lo(.LANCHOR9)
	call	bt_gatt_discover
.LVL357:
	mv	a1,a0
.LVL358:
	.loc 1 1137 2 is_stmt 1
	.loc 1 1137 5 is_stmt 0
	beq	a0,zero,.L222
	.loc 1 1138 3 is_stmt 1
	lui	a0,%hi(.LC74)
.LVL359:
	addi	a0,a0,%lo(.LC74)
	call	printf
.LVL360:
.L211:
.LBE74:
.LBE76:
	.loc 1 1142 1 is_stmt 0
	lw	ra,44(sp)
	.cfi_remember_state
	.cfi_restore 1
	lw	s0,40(sp)
	.cfi_restore 8
	lw	s1,36(sp)
	.cfi_restore 9
	lw	s2,32(sp)
	.cfi_restore 18
	lw	s3,28(sp)
	.cfi_restore 19
	lw	s4,24(sp)
	.cfi_restore 20
	lw	s5,20(sp)
	.cfi_restore 21
	addi	sp,sp,48
	.cfi_def_cfa_offset 0
	jr	ra
.LVL361:
.L215:
	.cfi_restore_state
	.loc 1 1114 11 is_stmt 1
	.loc 1 1114 13 is_stmt 0
	bne	a5,s2,.L217
.L226:
	.loc 1 1121 9 is_stmt 1
	.loc 1 1121 30 is_stmt 0
	sb	a5,40(s0)
	j	.L216
.L217:
	.loc 1 1116 11 is_stmt 1
	.loc 1 1116 13 is_stmt 0
	li	a4,2
	beq	a5,a4,.L226
	.loc 1 1118 11 is_stmt 1
	.loc 1 1118 13 is_stmt 0
	li	a4,3
	beq	a5,a4,.L226
	.loc 1 1120 11 is_stmt 1
	.loc 1 1120 13 is_stmt 0
	li	a4,4
	beq	a5,a4,.L226
	.loc 1 1123 9 is_stmt 1
	lui	a0,%hi(.LC73)
	addi	a0,a0,%lo(.LC73)
	j	.L227
.LVL362:
.L222:
.LBB77:
.LBB75:
	.loc 1 1140 3
	lui	a0,%hi(.LC75)
.LVL363:
	addi	a0,a0,%lo(.LC75)
	j	.L227
.LBE75:
.LBE77:
	.cfi_endproc
.LFE108:
	.size	ble_discover, .-ble_discover
	.section	.text.ble_auth_passkey,"ax",@progbits
	.align	1
	.type	ble_auth_passkey, @function
ble_auth_passkey:
.LFB103:
	.loc 1 959 1
	.cfi_startproc
.LVL364:
	.loc 1 960 2
	.loc 1 962 5
	.loc 1 962 7 is_stmt 0
	li	a5,2
	beq	a2,a5,.L229
	.loc 1 963 9 is_stmt 1
	lui	a0,%hi(.LC4)
.LVL365:
	addi	a0,a0,%lo(.LC4)
.LVL366:
.L234:
	.loc 1 968 9 is_stmt 0
	tail	printf
.LVL367:
.L229:
	.loc 1 967 2 is_stmt 1
	.loc 1 959 1 is_stmt 0
	addi	sp,sp,-16
	.cfi_def_cfa_offset 16
	sw	s0,8(sp)
	.cfi_offset 8, -8
	.loc 1 967 6
	lui	s0,%hi(.LANCHOR0)
	addi	s0,s0,%lo(.LANCHOR0)
	.loc 1 967 5
	lw	a5,0(s0)
	.loc 1 959 1
	sw	ra,12(sp)
	.cfi_offset 1, -4
	.loc 1 967 5
	bne	a5,zero,.L230
	.loc 1 968 9 is_stmt 1
	lui	a0,%hi(.LC8)
.LVL368:
	addi	a0,a0,%lo(.LC8)
.LVL369:
.L235:
	.loc 1 979 1 is_stmt 0
	lw	s0,8(sp)
	.cfi_remember_state
	.cfi_restore 8
	lw	ra,12(sp)
	.cfi_restore 1
	addi	sp,sp,16
	.cfi_def_cfa_offset 0
	j	.L234
.LVL370:
.L230:
	.cfi_restore_state
.LBB80:
.LBB81:
	.loc 1 972 5 is_stmt 1
	.loc 1 972 15 is_stmt 0
	lw	a0,4(a3)
.LVL371:
	call	atoi
.LVL372:
	.loc 1 973 5
	li	a5,999424
	addi	a5,a5,575
	.loc 1 972 15
	mv	a1,a0
.LVL373:
	.loc 1 973 2 is_stmt 1
	.loc 1 973 5 is_stmt 0
	bleu	a0,a5,.L231
	.loc 1 974 9 is_stmt 1
	lui	a0,%hi(.LC76)
.LVL374:
	addi	a0,a0,%lo(.LC76)
	j	.L235
.LVL375:
.L231:
	.loc 1 978 2
	lw	a0,0(s0)
.LVL376:
.LBE81:
.LBE80:
	.loc 1 979 1 is_stmt 0
	lw	s0,8(sp)
	.cfi_restore 8
	lw	ra,12(sp)
	.cfi_restore 1
	addi	sp,sp,16
	.cfi_def_cfa_offset 0
.LBB83:
.LBB82:
	.loc 1 978 2
	tail	bt_conn_auth_passkey_entry
.LVL377:
.LBE82:
.LBE83:
	.cfi_endproc
.LFE103:
	.size	ble_auth_passkey, .-ble_auth_passkey
	.section	.text.ble_conn_update,"ax",@progbits
	.align	1
	.type	ble_conn_update, @function
ble_conn_update:
.LFB90:
	.loc 1 788 1 is_stmt 1
	.cfi_startproc
.LVL378:
	.loc 1 789 2
	.loc 1 790 2
	.loc 1 792 5
	.loc 1 788 1 is_stmt 0
	addi	sp,sp,-32
	.cfi_def_cfa_offset 32
	sw	ra,28(sp)
	sw	s0,24(sp)
	.cfi_offset 1, -4
	.cfi_offset 8, -8
	.loc 1 792 7
	li	a5,5
	beq	a2,a5,.L237
	.loc 1 793 9 is_stmt 1
	lui	a0,%hi(.LC4)
.LVL379:
	addi	a0,a0,%lo(.LC4)
.LVL380:
.L242:
.LBB86:
.LBB87:
	.loc 1 805 3 is_stmt 0
	call	printf
.LVL381:
	j	.L236
.LVL382:
.L237:
	.loc 1 796 5
	addi	a0,a3,4
.LVL383:
	addi	a1,sp,8
.LVL384:
	mv	s0,a3
.LVL385:
	.loc 1 796 5 is_stmt 1
	call	get_uint16_from_string
.LVL386:
	.loc 1 797 5
	addi	a1,sp,10
	addi	a0,s0,8
	call	get_uint16_from_string
.LVL387:
	.loc 1 798 5
	addi	a1,sp,12
	addi	a0,s0,12
	call	get_uint16_from_string
.LVL388:
	.loc 1 799 5
	addi	a1,sp,14
	addi	a0,s0,16
	call	get_uint16_from_string
.LVL389:
	.loc 1 800 5
	.loc 1 800 11 is_stmt 0
	lui	a5,%hi(.LANCHOR0)
	lw	a0,%lo(.LANCHOR0)(a5)
	addi	a1,sp,8
	call	bt_conn_le_param_update
.LVL390:
	mv	a1,a0
.LVL391:
	.loc 1 802 2 is_stmt 1
	.loc 1 802 5 is_stmt 0
	beq	a0,zero,.L239
	.loc 1 803 3 is_stmt 1
	lui	a0,%hi(.LC77)
.LVL392:
	addi	a0,a0,%lo(.LC77)
	call	printf
.LVL393:
.L236:
.LBE87:
.LBE86:
	.loc 1 807 1 is_stmt 0
	lw	ra,28(sp)
	.cfi_remember_state
	.cfi_restore 1
	lw	s0,24(sp)
	.cfi_restore 8
	addi	sp,sp,32
	.cfi_def_cfa_offset 0
	jr	ra
.LVL394:
.L239:
	.cfi_restore_state
.LBB89:
.LBB88:
	.loc 1 805 3 is_stmt 1
	lui	a0,%hi(.LC78)
.LVL395:
	addi	a0,a0,%lo(.LC78)
	j	.L242
.LBE88:
.LBE89:
	.cfi_endproc
.LFE90:
	.size	ble_conn_update, .-ble_conn_update
	.section	.text.ble_unpair,"ax",@progbits
	.align	1
	.type	ble_unpair, @function
ble_unpair:
.LFB89:
	.loc 1 761 1
	.cfi_startproc
.LVL396:
	.loc 1 762 5
	.loc 1 763 5
	.loc 1 764 5
	.loc 1 766 5
	.loc 1 761 1 is_stmt 0
	addi	sp,sp,-48
	.cfi_def_cfa_offset 48
	sw	ra,44(sp)
	.cfi_offset 1, -4
	.loc 1 766 7
	li	a5,3
	beq	a2,a5,.L244
	.loc 1 767 9 is_stmt 1
	lui	a0,%hi(.LC4)
.LVL397:
	addi	a0,a0,%lo(.LC4)
.LVL398:
.L249:
.LBB92:
.LBB93:
	.loc 1 783 9 is_stmt 0
	call	printf
.LVL399:
.LBE93:
.LBE92:
	.loc 1 785 1
	lw	ra,44(sp)
	.cfi_remember_state
	.cfi_restore 1
	addi	sp,sp,48
	.cfi_def_cfa_offset 0
	jr	ra
.LVL400:
.L244:
	.cfi_restore_state
.LBB95:
.LBB94:
	.loc 1 772 5 is_stmt 1
	addi	a0,a3,4
.LVL401:
	addi	a1,sp,24
.LVL402:
	sw	a3,12(sp)
	call	get_uint8_from_string
.LVL403:
	.loc 1 774 5
	lw	a3,12(sp)
	li	a2,6
	addi	a1,sp,16
	addi	a0,a3,8
	call	get_bytearray_from_string
.LVL404:
	.loc 1 776 5
	addi	a1,sp,25
	addi	a0,sp,16
	li	a2,6
	call	reverse_bytearray
.LVL405:
	.loc 1 778 5
	.loc 1 778 11 is_stmt 0
	addi	a1,sp,24
	li	a0,0
	call	bt_unpair
.LVL406:
	.loc 1 780 5 is_stmt 1
	.loc 1 780 7 is_stmt 0
	beq	a0,zero,.L246
	.loc 1 781 9 is_stmt 1
	lui	a0,%hi(.LC79)
.LVL407:
	addi	a0,a0,%lo(.LC79)
	j	.L249
.LVL408:
.L246:
	.loc 1 783 9
	lui	a0,%hi(.LC80)
.LVL409:
	addi	a0,a0,%lo(.LC80)
	j	.L249
.LBE94:
.LBE95:
	.cfi_endproc
.LFE89:
	.size	ble_unpair, .-ble_unpair
	.section	.text.ble_start_scan,"ax",@progbits
	.align	1
	.type	ble_start_scan, @function
ble_start_scan:
.LFB80:
	.loc 1 403 1
	.cfi_startproc
.LVL410:
	.loc 1 404 5
	.loc 1 405 5
	.loc 1 407 5
	.loc 1 409 5
	.loc 1 403 1 is_stmt 0
	addi	sp,sp,-32
	.cfi_def_cfa_offset 32
	sw	ra,28(sp)
	sw	s0,24(sp)
	.cfi_offset 1, -4
	.cfi_offset 8, -8
	.loc 1 409 7
	li	a5,5
	beq	a2,a5,.L251
	.loc 1 410 9 is_stmt 1
	lui	a0,%hi(.LC4)
.LVL411:
	addi	a0,a0,%lo(.LC4)
.LVL412:
.L256:
.LBB98:
.LBB99:
	.loc 1 427 9 is_stmt 0
	call	printf
.LVL413:
	j	.L250
.LVL414:
.L251:
	.loc 1 414 5
	addi	a0,a3,4
.LVL415:
	addi	a1,sp,8
.LVL416:
	mv	s0,a3
.LVL417:
	.loc 1 414 5 is_stmt 1
	call	get_uint8_from_string
.LVL418:
	.loc 1 416 5
	addi	a1,sp,9
	addi	a0,s0,8
	call	get_uint8_from_string
.LVL419:
	.loc 1 418 5
	addi	a1,sp,10
	addi	a0,s0,12
	call	get_uint16_from_string
.LVL420:
	.loc 1 420 5
	addi	a1,sp,12
	addi	a0,s0,16
	call	get_uint16_from_string
.LVL421:
	.loc 1 422 5
	.loc 1 422 11 is_stmt 0
	lui	a1,%hi(device_found)
	addi	a1,a1,%lo(device_found)
	addi	a0,sp,8
	call	bt_le_scan_start
.LVL422:
	mv	a1,a0
.LVL423:
	.loc 1 424 5 is_stmt 1
	.loc 1 424 7 is_stmt 0
	beq	a0,zero,.L253
	.loc 1 425 9 is_stmt 1
	lui	a0,%hi(.LC81)
.LVL424:
	addi	a0,a0,%lo(.LC81)
	call	printf
.LVL425:
.L250:
.LBE99:
.LBE98:
	.loc 1 429 1 is_stmt 0
	lw	ra,28(sp)
	.cfi_remember_state
	.cfi_restore 1
	lw	s0,24(sp)
	.cfi_restore 8
	addi	sp,sp,32
	.cfi_def_cfa_offset 0
	jr	ra
.LVL426:
.L253:
	.cfi_restore_state
.LBB101:
.LBB100:
	.loc 1 427 9 is_stmt 1
	lui	a0,%hi(.LC82)
.LVL427:
	addi	a0,a0,%lo(.LC82)
	j	.L256
.LBE100:
.LBE101:
	.cfi_endproc
.LFE80:
	.size	ble_start_scan, .-ble_start_scan
	.section	.text.ble_set_device_name,"ax",@progbits
	.align	1
	.type	ble_set_device_name, @function
ble_set_device_name:
.LFB77:
	.loc 1 356 1
	.cfi_startproc
.LVL428:
	.loc 1 357 2
	.loc 1 359 2
	.loc 1 359 5 is_stmt 0
	lw	a0,4(a3)
.LVL429:
	.loc 1 356 1
	addi	sp,sp,-16
	.cfi_def_cfa_offset 16
	sw	s0,8(sp)
	sw	ra,12(sp)
	.cfi_offset 8, -8
	.cfi_offset 1, -4
	.loc 1 356 1
	mv	s0,a3
	.loc 1 359 5
	call	strlen
.LVL430:
	.loc 1 359 4
	beq	a0,zero,.L258
	.loc 1 359 28 discriminator 1
	lw	a0,4(s0)
	call	strlen
.LVL431:
	.loc 1 359 25 discriminator 1
	li	a5,29
	bgtu	a0,a5,.L258
.LVL432:
.LBB104:
.LBB105:
	.loc 1 360 3 is_stmt 1
	.loc 1 360 9 is_stmt 0
	lw	a0,4(s0)
	call	bt_set_name
.LVL433:
	.loc 1 361 3 is_stmt 1
	.loc 1 361 5 is_stmt 0
	beq	a0,zero,.L259
	.loc 1 362 4 is_stmt 1
	lui	a0,%hi(.LC83)
.LVL434:
	addi	a0,a0,%lo(.LC83)
.L264:
.LBE105:
.LBE104:
	.loc 1 368 1 is_stmt 0
	lw	s0,8(sp)
	.cfi_remember_state
	.cfi_restore 8
.LVL435:
	lw	ra,12(sp)
	.cfi_restore 1
	addi	sp,sp,16
	.cfi_def_cfa_offset 0
.LBB107:
.LBB106:
	.loc 1 364 4
	tail	printf
.LVL436:
.L259:
	.cfi_restore_state
	.loc 1 364 4 is_stmt 1
	lui	a0,%hi(.LC84)
.LVL437:
	addi	a0,a0,%lo(.LC84)
	j	.L264
.LVL438:
.L258:
.LBE106:
.LBE107:
	.loc 1 366 3
	lw	a0,4(s0)
	call	strlen
.LVL439:
	.loc 1 368 1 is_stmt 0
	lw	s0,8(sp)
	.cfi_restore 8
.LVL440:
	lw	ra,12(sp)
	.cfi_restore 1
	.loc 1 366 3
	mv	a1,a0
	lui	a0,%hi(.LC85)
	.loc 1 368 1
	.loc 1 366 3
	addi	a0,a0,%lo(.LC85)
	.loc 1 368 1
	addi	sp,sp,16
	.cfi_def_cfa_offset 0
	.loc 1 366 3
	tail	printf
.LVL441:
	.cfi_endproc
.LFE77:
	.size	ble_set_device_name, .-ble_set_device_name
	.section	.text.ble_init,"ax",@progbits
	.align	1
	.type	ble_init, @function
ble_init:
.LFB75:
	.loc 1 328 1 is_stmt 1
	.cfi_startproc
.LVL442:
	.loc 1 329 5
	.loc 1 328 1 is_stmt 0
	addi	sp,sp,-16
	.cfi_def_cfa_offset 16
	sw	s0,8(sp)
	.cfi_offset 8, -8
	.loc 1 329 8
	lui	s0,%hi(.LANCHOR10)
	addi	s0,s0,%lo(.LANCHOR10)
	.loc 1 329 7
	lbu	a5,0(s0)
	.loc 1 328 1
	sw	ra,12(sp)
	.cfi_offset 1, -4
	.loc 1 329 7
	beq	a5,zero,.L266
	.loc 1 330 9 is_stmt 1
	lui	a0,%hi(.LC86)
.LVL443:
	addi	a0,a0,%lo(.LC86)
.LVL444:
.L268:
	.loc 1 343 1 is_stmt 0
	lw	s0,8(sp)
	.cfi_remember_state
	.cfi_restore 8
	lw	ra,12(sp)
	.cfi_restore 1
	addi	sp,sp,16
	.cfi_def_cfa_offset 0
.LBB110:
.LBB111:
	.loc 1 342 5
	tail	printf
.LVL445:
.L266:
	.cfi_restore_state
	.loc 1 338 5 is_stmt 1
	.loc 1 339 5 is_stmt 0
	lui	a0,%hi(.LANCHOR11)
.LVL446:
	.loc 1 338 18
	lui	a5,%hi(.LANCHOR0)
	.loc 1 339 5
	addi	a0,a0,%lo(.LANCHOR11)
	.loc 1 338 18
	sw	zero,%lo(.LANCHOR0)(a5)
	.loc 1 339 5 is_stmt 1
	call	bt_conn_cb_register
.LVL447:
	.loc 1 341 5
	.loc 1 341 16 is_stmt 0
	li	a5,1
	.loc 1 342 5
	lui	a0,%hi(.LC87)
	.loc 1 341 16
	sb	a5,0(s0)
	.loc 1 342 5 is_stmt 1
	addi	a0,a0,%lo(.LC87)
	j	.L268
.LBE111:
.LBE110:
	.cfi_endproc
.LFE75:
	.size	ble_init, .-ble_init
	.section	.text.bt_addr_le_to_str.constprop.14,"ax",@progbits
	.align	1
	.type	bt_addr_le_to_str.constprop.14, @function
bt_addr_le_to_str.constprop.14:
.LFB137:
	.file 2 "/b-l/bl_iot_sdk_new/components/network/ble/blestack/src/include/bluetooth/bluetooth.h"
	.loc 2 754 19
	.cfi_startproc
.LVL448:
	.loc 2 757 2
	.loc 2 759 2
	.loc 2 754 19 is_stmt 0
	addi	sp,sp,-48
	.cfi_def_cfa_offset 48
	sw	s0,40(sp)
	sw	s1,36(sp)
	sw	s2,32(sp)
	sw	ra,44(sp)
	.cfi_offset 8, -8
	.cfi_offset 9, -12
	.cfi_offset 18, -16
	.cfi_offset 1, -4
	.loc 2 759 14
	lbu	a3,0(a0)
	.loc 2 759 2
	li	a5,1
	.loc 2 754 19
	mv	s0,a0
	mv	s2,a1
	addi	s1,sp,20
	.loc 2 759 2
	beq	a3,a5,.L270
	beq	a3,zero,.L271
	li	a5,2
	beq	a3,a5,.L272
	li	a5,3
	beq	a3,a5,.L273
	.loc 2 773 3 is_stmt 1
	lui	a2,%hi(.LC92)
	addi	a2,a2,%lo(.LC92)
	li	a1,10
.LVL449:
	mv	a0,s1
.LVL450:
	call	snprintf
.LVL451:
	.loc 2 774 3
	j	.L275
.LVL452:
.L271:
	.loc 2 761 3
	lui	a1,%hi(.LC88)
.LVL453:
	addi	a1,a1,%lo(.LC88)
.L278:
	.loc 2 764 3 is_stmt 0
	mv	a0,s1
	call	strcpy
.LVL454:
	.loc 2 765 3 is_stmt 1
.L275:
	.loc 2 777 2
	.loc 2 777 9 is_stmt 0
	lbu	a5,1(s0)
	lbu	a7,2(s0)
	lbu	a6,3(s0)
	sw	a5,0(sp)
	lbu	a4,5(s0)
	lbu	a5,4(s0)
	lbu	a3,6(s0)
	lui	a2,%hi(.LC93)
	sw	s1,4(sp)
	mv	a0,s2
	addi	a2,a2,%lo(.LC93)
	li	a1,30
	call	snprintf
.LVL455:
	.loc 2 780 1
	lw	ra,44(sp)
	.cfi_remember_state
	.cfi_restore 1
	lw	s0,40(sp)
	.cfi_restore 8
.LVL456:
	lw	s1,36(sp)
	.cfi_restore 9
	lw	s2,32(sp)
	.cfi_restore 18
.LVL457:
	addi	sp,sp,48
	.cfi_def_cfa_offset 0
	jr	ra
.LVL458:
.L270:
	.cfi_restore_state
	.loc 2 764 3 is_stmt 1
	lui	a1,%hi(.LC89)
.LVL459:
	addi	a1,a1,%lo(.LC89)
	j	.L278
.LVL460:
.L272:
	.loc 2 767 3
	lui	a1,%hi(.LC90)
.LVL461:
	addi	a1,a1,%lo(.LC90)
	j	.L278
.LVL462:
.L273:
	.loc 2 770 3
	lui	a1,%hi(.LC91)
.LVL463:
	addi	a1,a1,%lo(.LC91)
	j	.L278
	.cfi_endproc
.LFE137:
	.size	bt_addr_le_to_str.constprop.14, .-bt_addr_le_to_str.constprop.14
	.section	.text.device_found,"ax",@progbits
	.align	1
	.type	device_found, @function
device_found:
.LFB79:
	.loc 1 391 1
	.cfi_startproc
.LVL464:
	.loc 1 392 2
	.loc 1 393 2
	.loc 1 395 2
	.loc 1 391 1 is_stmt 0
	addi	sp,sp,-96
	.cfi_def_cfa_offset 96
	sw	s0,88(sp)
	sw	s1,84(sp)
	sw	s2,80(sp)
	.cfi_offset 8, -8
	.cfi_offset 9, -12
	.cfi_offset 18, -16
	mv	s1,a1
	mv	s2,a0
	mv	s0,a2
	.loc 1 395 8
	li	a1,0
.LVL465:
	li	a2,30
.LVL466:
	addi	a0,sp,48
.LVL467:
	.loc 1 391 1
	sw	ra,92(sp)
	.cfi_offset 1, -4
	.loc 1 391 1
	sw	a3,12(sp)
	.loc 1 395 8
	call	memset
.LVL468:
	.loc 1 396 2 is_stmt 1
	lw	a3,12(sp)
	lui	a1,%hi(data_cb)
	addi	a2,sp,48
	mv	a0,a3
	addi	a1,a1,%lo(data_cb)
	call	bt_data_parse
.LVL469:
	.loc 1 397 2
	addi	a1,sp,16
	mv	a0,s2
	call	bt_addr_le_to_str.constprop.14
.LVL470:
	.loc 1 399 2
	lui	a0,%hi(.LC94)
	addi	a4,sp,48
	mv	a3,s1
	mv	a2,s0
	addi	a1,sp,16
	addi	a0,a0,%lo(.LC94)
	call	printf
.LVL471:
	.loc 1 400 1 is_stmt 0
	lw	ra,92(sp)
	.cfi_restore 1
	lw	s0,88(sp)
	.cfi_restore 8
	lw	s1,84(sp)
	.cfi_restore 9
	lw	s2,80(sp)
	.cfi_restore 18
.LVL472:
	addi	sp,sp,96
	.cfi_def_cfa_offset 0
.LVL473:
	jr	ra
	.cfi_endproc
.LFE79:
	.size	device_found, .-device_found
	.section	.text.ble_read_local_address,"ax",@progbits
	.align	1
	.type	ble_read_local_address, @function
ble_read_local_address:
.LFB82:
	.loc 1 448 1 is_stmt 1
	.cfi_startproc
.LVL474:
	.loc 1 449 2
	.loc 1 450 2
	.loc 1 451 2
	.loc 1 453 8
	.loc 1 448 1 is_stmt 0
	addi	sp,sp,-64
	.cfi_def_cfa_offset 64
	.loc 1 453 8
	mv	a0,sp
.LVL475:
	.loc 1 448 1
	sw	ra,60(sp)
	.cfi_offset 1, -4
	.loc 1 453 8
	call	bt_get_local_public_address
.LVL476:
	.loc 1 454 2 is_stmt 1
	addi	a1,sp,16
	mv	a0,sp
	call	bt_addr_le_to_str.constprop.14
.LVL477:
	.loc 1 455 2
	lui	a0,%hi(.LC95)
	addi	a1,sp,16
	addi	a0,a0,%lo(.LC95)
	call	printf
.LVL478:
	.loc 1 457 2
	addi	a0,sp,8
	call	bt_get_local_ramdon_address
.LVL479:
	.loc 1 458 2
	addi	a1,sp,16
	addi	a0,sp,8
	call	bt_addr_le_to_str.constprop.14
.LVL480:
	.loc 1 459 2
	lui	a0,%hi(.LC96)
	addi	a1,sp,16
	addi	a0,a0,%lo(.LC96)
	call	printf
.LVL481:
	.loc 1 460 1 is_stmt 0
	lw	ra,60(sp)
	.cfi_restore 1
	addi	sp,sp,64
	.cfi_def_cfa_offset 0
	jr	ra
	.cfi_endproc
.LFE82:
	.size	ble_read_local_address, .-ble_read_local_address
	.section	.text.connected,"ax",@progbits
	.align	1
	.type	connected, @function
connected:
.LFB70:
	.loc 1 258 1 is_stmt 1
	.cfi_startproc
.LVL482:
	.loc 1 259 2
	.loc 1 261 5
	.loc 1 258 1 is_stmt 0
	addi	sp,sp,-64
	.cfi_def_cfa_offset 64
	sw	ra,60(sp)
	sw	s0,56(sp)
	.cfi_offset 1, -4
	.cfi_offset 8, -8
	.loc 1 258 1
	sw	a1,12(sp)
	mv	s0,a0
	.loc 1 261 5
	call	bt_conn_get_dst
.LVL483:
	addi	a1,sp,16
	call	bt_addr_le_to_str.constprop.14
.LVL484:
	.loc 1 263 2 is_stmt 1
	.loc 1 263 5 is_stmt 0
	lw	a2,12(sp)
	.loc 1 264 3
	addi	a1,sp,16
	.loc 1 263 5
	beq	a2,zero,.L284
	.loc 1 264 3 is_stmt 1
	lui	a0,%hi(.LC97)
	addi	a0,a0,%lo(.LC97)
	call	printf
.LVL485:
	.loc 1 266 3
.L283:
	.loc 1 274 1 is_stmt 0
	lw	ra,60(sp)
	.cfi_remember_state
	.cfi_restore 1
	lw	s0,56(sp)
	.cfi_restore 8
.LVL486:
	addi	sp,sp,64
	.cfi_def_cfa_offset 0
	jr	ra
.LVL487:
.L284:
	.cfi_restore_state
	.loc 1 269 2 is_stmt 1
	lui	a0,%hi(.LC98)
	addi	a0,a0,%lo(.LC98)
	call	printf
.LVL488:
	.loc 1 271 2
	.loc 1 271 6 is_stmt 0
	lui	a5,%hi(.LANCHOR0)
	addi	a5,a5,%lo(.LANCHOR0)
	.loc 1 271 5
	lw	a4,0(a5)
	bne	a4,zero,.L283
	.loc 1 272 3 is_stmt 1
	.loc 1 272 16 is_stmt 0
	sw	s0,0(a5)
	j	.L283
	.cfi_endproc
.LFE70:
	.size	connected, .-connected
	.section	.text.disconnected,"ax",@progbits
	.align	1
	.type	disconnected, @function
disconnected:
.LFB71:
	.loc 1 277 1 is_stmt 1
	.cfi_startproc
.LVL489:
	.loc 1 278 2
	.loc 1 280 2
	.loc 1 277 1 is_stmt 0
	addi	sp,sp,-64
	.cfi_def_cfa_offset 64
	sw	ra,60(sp)
	sw	s0,56(sp)
	.cfi_offset 1, -4
	.cfi_offset 8, -8
	.loc 1 277 1
	sw	a1,12(sp)
	mv	s0,a0
	.loc 1 280 2
	call	bt_conn_get_dst
.LVL490:
	addi	a1,sp,16
	call	bt_addr_le_to_str.constprop.14
.LVL491:
	.loc 1 281 2 is_stmt 1
	lw	a2,12(sp)
	lui	a0,%hi(.LC99)
	addi	a1,sp,16
	addi	a0,a0,%lo(.LC99)
	call	printf
.LVL492:
	.loc 1 283 2
	.loc 1 283 19 is_stmt 0
	lui	a5,%hi(.LANCHOR0)
	addi	a5,a5,%lo(.LANCHOR0)
	.loc 1 283 5
	lw	a4,0(a5)
	bne	a4,s0,.L288
	.loc 1 284 3 is_stmt 1
	.loc 1 284 16 is_stmt 0
	sw	zero,0(a5)
.L288:
	.loc 1 286 1
	lw	ra,60(sp)
	.cfi_restore 1
	lw	s0,56(sp)
	.cfi_restore 8
.LVL493:
	addi	sp,sp,64
	.cfi_def_cfa_offset 0
	jr	ra
	.cfi_endproc
.LFE71:
	.size	disconnected, .-disconnected
	.section	.text.security_changed,"ax",@progbits
	.align	1
	.type	security_changed, @function
security_changed:
.LFB74:
	.loc 1 308 1 is_stmt 1
	.cfi_startproc
.LVL494:
	.loc 1 309 2
	.loc 1 311 2
	.loc 1 308 1 is_stmt 0
	addi	sp,sp,-64
	.cfi_def_cfa_offset 64
	sw	ra,60(sp)
	.cfi_offset 1, -4
	.loc 1 308 1
	sw	a1,12(sp)
	.loc 1 311 2
	call	bt_conn_get_dst
.LVL495:
	addi	a1,sp,16
	call	bt_addr_le_to_str.constprop.14
.LVL496:
	.loc 1 312 2 is_stmt 1
	lw	a2,12(sp)
	lui	a0,%hi(.LC100)
	addi	a1,sp,16
	addi	a0,a0,%lo(.LC100)
	call	printf
.LVL497:
	.loc 1 313 1 is_stmt 0
	lw	ra,60(sp)
	.cfi_restore 1
	addi	sp,sp,64
	.cfi_def_cfa_offset 0
	jr	ra
	.cfi_endproc
.LFE74:
	.size	security_changed, .-security_changed
	.section	.text.auth_passkey_display,"ax",@progbits
	.align	1
	.type	auth_passkey_display, @function
auth_passkey_display:
.LFB92:
	.loc 1 834 1 is_stmt 1
	.cfi_startproc
.LVL498:
	.loc 1 835 5
	.loc 1 837 2
	.loc 1 834 1 is_stmt 0
	addi	sp,sp,-48
	.cfi_def_cfa_offset 48
	sw	ra,44(sp)
	sw	s0,40(sp)
	.cfi_offset 1, -4
	.cfi_offset 8, -8
	.loc 1 834 1
	mv	s0,a1
	.loc 1 837 2
	call	bt_conn_get_dst
.LVL499:
	mv	a1,sp
	call	bt_addr_le_to_str.constprop.14
.LVL500:
	.loc 1 839 5 is_stmt 1
	lui	a0,%hi(.LC101)
	mv	a1,s0
	addi	a0,a0,%lo(.LC101)
	call	printf
.LVL501:
	.loc 1 840 1 is_stmt 0
	lw	ra,44(sp)
	.cfi_restore 1
	lw	s0,40(sp)
	.cfi_restore 8
.LVL502:
	addi	sp,sp,48
	.cfi_def_cfa_offset 0
	jr	ra
	.cfi_endproc
.LFE92:
	.size	auth_passkey_display, .-auth_passkey_display
	.section	.text.auth_passkey_entry,"ax",@progbits
	.align	1
	.type	auth_passkey_entry, @function
auth_passkey_entry:
.LFB94:
	.loc 1 852 1 is_stmt 1
	.cfi_startproc
.LVL503:
	.loc 1 853 2
	.loc 1 855 2
	.loc 1 852 1 is_stmt 0
	addi	sp,sp,-48
	.cfi_def_cfa_offset 48
	sw	ra,44(sp)
	.cfi_offset 1, -4
	.loc 1 855 2
	call	bt_conn_get_dst
.LVL504:
	mv	a1,sp
	call	bt_addr_le_to_str.constprop.14
.LVL505:
	.loc 1 857 2 is_stmt 1
	lui	a0,%hi(.LC102)
	mv	a1,sp
	addi	a0,a0,%lo(.LC102)
	call	printf
.LVL506:
	.loc 1 858 1 is_stmt 0
	lw	ra,44(sp)
	.cfi_restore 1
	addi	sp,sp,48
	.cfi_def_cfa_offset 0
	jr	ra
	.cfi_endproc
.LFE94:
	.size	auth_passkey_entry, .-auth_passkey_entry
	.section	.text.auth_passkey_confirm,"ax",@progbits
	.align	1
	.type	auth_passkey_confirm, @function
auth_passkey_confirm:
.LFB93:
	.loc 1 843 1 is_stmt 1
	.cfi_startproc
.LVL507:
	.loc 1 844 2
	.loc 1 846 2
	.loc 1 843 1 is_stmt 0
	addi	sp,sp,-64
	.cfi_def_cfa_offset 64
	sw	ra,60(sp)
	.cfi_offset 1, -4
	.loc 1 843 1
	sw	a1,12(sp)
	.loc 1 846 2
	call	bt_conn_get_dst
.LVL508:
	addi	a1,sp,16
	call	bt_addr_le_to_str.constprop.14
.LVL509:
	.loc 1 848 2 is_stmt 1
	lw	a2,12(sp)
	lui	a0,%hi(.LC103)
	addi	a1,sp,16
	addi	a0,a0,%lo(.LC103)
	call	printf
.LVL510:
	.loc 1 849 1 is_stmt 0
	lw	ra,60(sp)
	.cfi_restore 1
	addi	sp,sp,64
	.cfi_def_cfa_offset 0
.LVL511:
	jr	ra
	.cfi_endproc
.LFE93:
	.size	auth_passkey_confirm, .-auth_passkey_confirm
	.section	.text.auth_cancel,"ax",@progbits
	.align	1
	.type	auth_cancel, @function
auth_cancel:
.LFB95:
	.loc 1 861 1 is_stmt 1
	.cfi_startproc
.LVL512:
	.loc 1 862 2
	.loc 1 864 5
	.loc 1 861 1 is_stmt 0
	addi	sp,sp,-48
	.cfi_def_cfa_offset 48
	sw	ra,44(sp)
	.cfi_offset 1, -4
	.loc 1 864 5
	call	bt_conn_get_dst
.LVL513:
	mv	a1,sp
	call	bt_addr_le_to_str.constprop.14
.LVL514:
	.loc 1 866 2 is_stmt 1
	lui	a0,%hi(.LC104)
	mv	a1,sp
	addi	a0,a0,%lo(.LC104)
	call	printf
.LVL515:
	.loc 1 867 1 is_stmt 0
	lw	ra,44(sp)
	.cfi_restore 1
	addi	sp,sp,48
	.cfi_def_cfa_offset 0
	jr	ra
	.cfi_endproc
.LFE95:
	.size	auth_cancel, .-auth_cancel
	.section	.text.auth_pairing_confirm,"ax",@progbits
	.align	1
	.type	auth_pairing_confirm, @function
auth_pairing_confirm:
.LFB96:
	.loc 1 870 1 is_stmt 1
	.cfi_startproc
.LVL516:
	.loc 1 871 2
	.loc 1 873 2
	.loc 1 870 1 is_stmt 0
	addi	sp,sp,-48
	.cfi_def_cfa_offset 48
	sw	ra,44(sp)
	.cfi_offset 1, -4
	.loc 1 873 2
	call	bt_conn_get_dst
.LVL517:
	mv	a1,sp
	call	bt_addr_le_to_str.constprop.14
.LVL518:
	.loc 1 875 2 is_stmt 1
	lui	a0,%hi(.LC105)
	mv	a1,sp
	addi	a0,a0,%lo(.LC105)
	call	printf
.LVL519:
	.loc 1 876 1 is_stmt 0
	lw	ra,44(sp)
	.cfi_restore 1
	addi	sp,sp,48
	.cfi_def_cfa_offset 0
	jr	ra
	.cfi_endproc
.LFE96:
	.size	auth_pairing_confirm, .-auth_pairing_confirm
	.section	.text.auth_pairing_complete,"ax",@progbits
	.align	1
	.type	auth_pairing_complete, @function
auth_pairing_complete:
.LFB97:
	.loc 1 879 1 is_stmt 1
	.cfi_startproc
.LVL520:
	.loc 1 880 2
	.loc 1 882 2
	.loc 1 879 1 is_stmt 0
	addi	sp,sp,-48
	.cfi_def_cfa_offset 48
	sw	s0,40(sp)
	sw	ra,44(sp)
	.cfi_offset 8, -8
	.cfi_offset 1, -4
	.loc 1 879 1
	mv	s0,a1
	.loc 1 882 2
	call	bt_conn_get_dst
.LVL521:
	mv	a1,sp
	call	bt_addr_le_to_str.constprop.14
.LVL522:
	.loc 1 884 2 is_stmt 1
	bne	s0,zero,.L305
	lui	a1,%hi(.LC107)
	addi	a1,a1,%lo(.LC107)
.L304:
	.loc 1 884 2 is_stmt 0 discriminator 4
	lui	a0,%hi(.LC108)
	mv	a2,sp
	addi	a0,a0,%lo(.LC108)
	call	printf
.LVL523:
	.loc 1 885 1 discriminator 4
	lw	ra,44(sp)
	.cfi_remember_state
	.cfi_restore 1
	lw	s0,40(sp)
	.cfi_restore 8
	addi	sp,sp,48
	.cfi_def_cfa_offset 0
	jr	ra
.L305:
	.cfi_restore_state
	.loc 1 884 2
	lui	a1,%hi(.LC106)
	addi	a1,a1,%lo(.LC106)
	j	.L304
	.cfi_endproc
.LFE97:
	.size	auth_pairing_complete, .-auth_pairing_complete
	.section	.text.auth_pairing_failed,"ax",@progbits
	.align	1
	.type	auth_pairing_failed, @function
auth_pairing_failed:
.LFB98:
	.loc 1 888 1 is_stmt 1
	.cfi_startproc
.LVL524:
	.loc 1 889 2
	.loc 1 891 2
	.loc 1 888 1 is_stmt 0
	addi	sp,sp,-48
	.cfi_def_cfa_offset 48
	sw	ra,44(sp)
	.cfi_offset 1, -4
	.loc 1 891 2
	call	bt_conn_get_dst
.LVL525:
	mv	a1,sp
	call	bt_addr_le_to_str.constprop.14
.LVL526:
	.loc 1 892 2 is_stmt 1
	lui	a0,%hi(.LC109)
	mv	a1,sp
	addi	a0,a0,%lo(.LC109)
	call	printf
.LVL527:
	.loc 1 893 1 is_stmt 0
	lw	ra,44(sp)
	.cfi_restore 1
	addi	sp,sp,48
	.cfi_def_cfa_offset 0
	jr	ra
	.cfi_endproc
.LFE98:
	.size	auth_pairing_failed, .-auth_pairing_failed
	.section	.text.identity_resolved,"ax",@progbits
	.align	1
	.type	identity_resolved, @function
identity_resolved:
.LFB73:
	.loc 1 297 1 is_stmt 1
	.cfi_startproc
.LVL528:
	.loc 1 298 2
	.loc 1 299 2
	.loc 1 301 2
	.loc 1 297 1 is_stmt 0
	addi	sp,sp,-80
	.cfi_def_cfa_offset 80
	sw	s0,72(sp)
	.loc 1 301 2
	mv	a0,a2
.LVL529:
	.cfi_offset 8, -8
	.loc 1 297 1
	mv	s0,a1
	.loc 1 301 2
	mv	a1,sp
.LVL530:
	.loc 1 297 1
	sw	ra,76(sp)
	.cfi_offset 1, -4
	.loc 1 301 2
	call	bt_addr_le_to_str.constprop.14
.LVL531:
	.loc 1 302 2 is_stmt 1
	addi	a1,sp,32
	mv	a0,s0
	call	bt_addr_le_to_str.constprop.14
.LVL532:
	.loc 1 304 2
	lui	a0,%hi(.LC110)
	mv	a2,sp
	addi	a1,sp,32
	addi	a0,a0,%lo(.LC110)
	call	printf
.LVL533:
	.loc 1 305 1 is_stmt 0
	lw	ra,76(sp)
	.cfi_restore 1
	lw	s0,72(sp)
	.cfi_restore 8
.LVL534:
	addi	sp,sp,80
	.cfi_def_cfa_offset 0
	jr	ra
	.cfi_endproc
.LFE73:
	.size	identity_resolved, .-identity_resolved
	.section	.text.ble_get_all_conn_info,"ax",@progbits
	.align	1
	.type	ble_get_all_conn_info, @function
ble_get_all_conn_info:
.LFB118:
	.loc 1 1371 1 is_stmt 1
	.cfi_startproc
.LVL535:
	.loc 1 1372 9
	.loc 1 1373 9
	.loc 1 1374 9
	.loc 1 1376 9
	.loc 1 1371 1 is_stmt 0
	addi	sp,sp,-128
	.cfi_def_cfa_offset 128
	.loc 1 1376 20
	addi	a0,sp,40
.LVL536:
	.loc 1 1371 1
	sw	s2,112(sp)
	sw	ra,124(sp)
	sw	s0,120(sp)
	sw	s1,116(sp)
	sw	s3,108(sp)
	.cfi_offset 18, -16
	.cfi_offset 1, -4
	.cfi_offset 8, -8
	.cfi_offset 9, -12
	.cfi_offset 19, -20
	.loc 1 1376 20
	call	bt_conn_get_remote_dev_info
.LVL537:
	mv	s2,a0
.LVL538:
	.loc 1 1378 9 is_stmt 1
	.loc 1 1378 11 is_stmt 0
	ble	a0,zero,.L312
	.loc 1 1380 17 is_stmt 1
	lw	a0,52(sp)
.LVL539:
	addi	a1,sp,8
	call	bt_addr_le_to_str.constprop.14
.LVL540:
	.loc 1 1381 17
	lui	a0,%hi(.LC111)
	addi	a1,sp,8
	addi	a0,a0,%lo(.LC111)
	call	printf
.LVL541:
.L312:
	.loc 1 1384 9
	lui	a0,%hi(.LC112)
	mv	a1,s2
	addi	a0,a0,%lo(.LC112)
	call	printf
.LVL542:
	.loc 1 1385 9
.LBB112:
	.loc 1 1385 13
	addi	s0,sp,40
	.loc 1 1385 17 is_stmt 0
	li	s1,0
	.loc 1 1388 10
	lui	s3,%hi(.LC113)
.LVL543:
.L313:
	addi	s0,s0,28
	.loc 1 1385 9 discriminator 1
	blt	s1,s2,.L314
.LBE112:
	.loc 1 1390 1
	lw	ra,124(sp)
	.cfi_remember_state
	.cfi_restore 1
	lw	s0,120(sp)
	.cfi_restore 8
	lw	s1,116(sp)
	.cfi_restore 9
.LVL544:
	lw	s2,112(sp)
	.cfi_restore 18
.LVL545:
	lw	s3,108(sp)
	.cfi_restore 19
	addi	sp,sp,128
	.cfi_def_cfa_offset 0
	jr	ra
.LVL546:
.L314:
	.cfi_restore_state
.LBB113:
	.loc 1 1387 10 is_stmt 1 discriminator 3
	lw	a0,-12(s0)
	addi	a1,sp,8
	call	bt_addr_le_to_str.constprop.14
.LVL547:
	.loc 1 1388 10 discriminator 3
	mv	a1,s1
	addi	a2,sp,8
	addi	a0,s3,%lo(.LC113)
	call	printf
.LVL548:
	.loc 1 1385 39 is_stmt 0 discriminator 3
	addi	s1,s1,1
.LVL549:
	j	.L313
.LBE113:
	.cfi_endproc
.LFE118:
	.size	ble_get_all_conn_info, .-ble_get_all_conn_info
	.section	.text.ble_write_without_rsp,"ax",@progbits
	.align	1
	.type	ble_write_without_rsp, @function
ble_write_without_rsp:
.LFB113:
	.loc 1 1251 1 is_stmt 1
	.cfi_startproc
.LVL550:
	.loc 1 1252 2
	.loc 1 1253 2
	.loc 1 1254 2
	.loc 1 1255 1
	.loc 1 1257 5
	.loc 1 1251 1 is_stmt 0
	addi	sp,sp,-32
	.cfi_def_cfa_offset 32
	sw	ra,28(sp)
	sw	s0,24(sp)
	sw	s1,20(sp)
	sw	s2,16(sp)
	.cfi_offset 1, -4
	.cfi_offset 8, -8
	.cfi_offset 9, -12
	.cfi_offset 18, -16
	.loc 1 1257 7
	li	a5,5
	beq	a2,a5,.L317
	.loc 1 1258 9 is_stmt 1
	lui	a0,%hi(.LC4)
.LVL551:
	addi	a0,a0,%lo(.LC4)
.L322:
	.loc 1 1263 3 is_stmt 0
	call	printf
.LVL552:
	.loc 1 1264 3 is_stmt 1
.L316:
	.loc 1 1276 1 is_stmt 0
	lw	ra,28(sp)
	.cfi_remember_state
	.cfi_restore 1
	lw	s0,24(sp)
	.cfi_restore 8
	lw	s1,20(sp)
	.cfi_restore 9
	lw	s2,16(sp)
	.cfi_restore 18
	addi	sp,sp,32
	.cfi_def_cfa_offset 0
	jr	ra
.LVL553:
.L317:
	.cfi_restore_state
	.loc 1 1262 2 is_stmt 1
	.loc 1 1262 6 is_stmt 0
	lui	a5,%hi(.LANCHOR0)
	.loc 1 1262 5
	lw	a4,%lo(.LANCHOR0)(a5)
	addi	s0,a5,%lo(.LANCHOR0)
	bne	a4,zero,.L319
	.loc 1 1263 3 is_stmt 1
	lui	a0,%hi(.LC8)
.LVL554:
	addi	a0,a0,%lo(.LC8)
	j	.L322
.LVL555:
.L319:
.LBB118:
.LBB119:
	.loc 1 1267 5 is_stmt 0
	addi	a0,a3,4
.LVL556:
	addi	a1,sp,11
.LVL557:
	mv	s1,a3
.LVL558:
	.loc 1 1267 5 is_stmt 1
	call	get_uint8_from_string
.LVL559:
	.loc 1 1268 5
	addi	a1,sp,12
	addi	a0,s1,8
	call	get_uint16_from_string
.LVL560:
	.loc 1 1269 2
	addi	a1,sp,14
	addi	a0,s1,12
	call	get_uint16_from_string
.LVL561:
	.loc 1 1270 5
	.loc 1 1270 65 is_stmt 0
	lhu	a2,14(sp)
	li	a5,512
	bgeu	a5,a2,.L320
	li	a2,512
.L320:
	.loc 1 1270 9
	sh	a2,14(sp)
	.loc 1 1271 2 is_stmt 1
	lui	s2,%hi(.LANCHOR6)
	slli	a2,a2,16
	addi	a1,s2,%lo(.LANCHOR6)
	addi	a0,s1,16
	srli	a2,a2,16
	call	get_bytearray_from_string
.LVL562:
	.loc 1 1273 2
.LBB120:
.LBB121:
	.file 3 "/b-l/bl_iot_sdk_new/components/network/ble/blestack/src/include/bluetooth/gatt.h"
	.loc 3 1259 2
	.loc 3 1259 9 is_stmt 0
	lhu	a1,12(sp)
	lbu	a4,11(sp)
	lhu	a3,14(sp)
	lw	a0,0(s0)
	li	a6,0
	li	a5,0
	addi	a2,s2,%lo(.LANCHOR6)
	call	bt_gatt_write_without_response_cb
.LVL563:
.LBE121:
.LBE120:
	.loc 1 1275 2 is_stmt 1
	mv	a1,a0
	lui	a0,%hi(.LC114)
.LVL564:
	addi	a0,a0,%lo(.LC114)
	call	printf
.LVL565:
	j	.L316
.LBE119:
.LBE118:
	.cfi_endproc
.LFE113:
	.size	ble_write_without_rsp, .-ble_write_without_rsp
	.section	.text.ble_cli_register,"ax",@progbits
	.align	1
	.globl	ble_cli_register
	.type	ble_cli_register, @function
ble_cli_register:
.LFB121:
	.loc 1 1437 1
	.cfi_startproc
	.loc 1 1442 5
	.loc 1 1443 1 is_stmt 0
	li	a0,0
	ret
	.cfi_endproc
.LFE121:
	.size	ble_cli_register, .-ble_cli_register
	.globl	btStackCmdSet
	.globl	ad_discov
	.globl	default_conn
	.globl	ble_inited
	.section	.bss.discover_params,"aw",@nobits
	.align	2
	.set	.LANCHOR9,. + 0
	.type	discover_params, @object
	.size	discover_params, 44
discover_params:
	.zero	44
	.section	.bss.exchange_params,"aw",@nobits
	.align	2
	.set	.LANCHOR3,. + 0
	.type	exchange_params, @object
	.size	exchange_params, 28
exchange_params:
	.zero	28
	.section	.bss.gatt_write_buf,"aw",@nobits
	.align	2
	.set	.LANCHOR6,. + 0
	.type	gatt_write_buf, @object
	.size	gatt_write_buf, 512
gatt_write_buf:
	.zero	512
	.section	.bss.read_params,"aw",@nobits
	.align	2
	.set	.LANCHOR7,. + 0
	.type	read_params, @object
	.size	read_params, 40
read_params:
	.zero	40
	.section	.bss.subscribe_params,"aw",@nobits
	.align	2
	.set	.LANCHOR1,. + 0
	.type	subscribe_params, @object
	.size	subscribe_params, 52
subscribe_params:
	.zero	52
	.section	.bss.write_params,"aw",@nobits
	.align	2
	.set	.LANCHOR2,. + 0
	.type	write_params, @object
	.size	write_params, 40
write_params:
	.zero	40
	.section	.data.ad_discov,"aw"
	.align	2
	.set	.LANCHOR5,. + 0
	.type	ad_discov, @object
	.size	ad_discov, 16
ad_discov:
	.byte	1
	.byte	1
	.zero	2
	.word	__compound_literal.1
	.byte	9
	.byte	13
	.zero	2
	.word	.LC147
	.section	.data.auth_cb_display,"aw"
	.align	2
	.set	.LANCHOR4,. + 0
	.type	auth_cb_display, @object
	.size	auth_cb_display, 32
auth_cb_display:
	.word	auth_passkey_display
	.word	auth_passkey_entry
	.word	auth_passkey_confirm
	.zero	4
	.word	auth_cancel
	.word	auth_pairing_confirm
	.word	auth_pairing_complete
	.word	auth_pairing_failed
	.section	.data.conn_callbacks,"aw"
	.align	2
	.set	.LANCHOR11,. + 0
	.type	conn_callbacks, @object
	.size	conn_callbacks, 28
conn_callbacks:
	.word	connected
	.word	disconnected
	.zero	4
	.word	le_param_updated
	.word	identity_resolved
	.word	security_changed
	.zero	4
	.section	.rodata.auth_cancel.str1.4,"aMS",@progbits,1
	.align	2
.LC104:
	.string	"Pairing cancelled: %s\r\n"
	.section	.rodata.auth_pairing_complete.str1.4,"aMS",@progbits,1
	.align	2
.LC106:
	.string	"Bonded"
	.zero	1
.LC107:
	.string	"Paired"
	.zero	1
.LC108:
	.string	"%s with %s\r\n"
	.section	.rodata.auth_pairing_confirm.str1.4,"aMS",@progbits,1
	.align	2
.LC105:
	.string	"Confirm pairing for %s\r\n"
	.section	.rodata.auth_pairing_failed.str1.4,"aMS",@progbits,1
	.align	2
.LC109:
	.string	"Pairing failed with %s\r\n"
	.section	.rodata.auth_passkey_confirm.str1.4,"aMS",@progbits,1
	.align	2
.LC103:
	.string	"Confirm passkey for %s: %06u\r\n"
	.section	.rodata.auth_passkey_display.str1.4,"aMS",@progbits,1
	.align	2
.LC101:
	.string	"passkey_str is: %06u\r\n"
	.section	.rodata.auth_passkey_entry.str1.4,"aMS",@progbits,1
	.align	2
.LC102:
	.string	"Enter passkey for %s\r\n"
	.section	.rodata.ble_auth.str1.4,"aMS",@progbits,1
	.align	2
.LC18:
	.string	"Auth callback has already been registered\r\n"
.LC19:
	.string	"Register auth callback successfully\r\n"
	.section	.rodata.ble_auth_passkey.str1.4,"aMS",@progbits,1
	.align	2
.LC76:
	.string	"Passkey should be between 0-999999\r\n"
	.section	.rodata.ble_conn_update.str1.4,"aMS",@progbits,1
	.align	2
.LC77:
	.string	"conn update failed (err %d)\r\n"
	.zero	2
.LC78:
	.string	"conn update initiated\r\n"
	.section	.rodata.ble_connect.str1.4,"aMS",@progbits,1
	.align	2
.LC26:
	.string	"addr[%d]:[0x%x]\r\n"
	.zero	2
.LC27:
	.string	"Connection failed\r\n"
.LC28:
	.string	"Connection pending\r\n"
	.section	.rodata.ble_disable.str1.4,"aMS",@progbits,1
	.align	2
.LC45:
	.string	"Fail to disable bt, there is existed scan/adv/conn event \r\n"
.LC46:
	.string	"Disable bt successfully\r\n"
	.section	.rodata.ble_disconnect.str1.4,"aMS",@progbits,1
	.align	2
.LC24:
	.string	"Disconnection failed\r\n"
	.zero	1
.LC25:
	.string	"Disconnect successfully\r\n"
	.section	.rodata.ble_discover.str1.4,"aMS",@progbits,1
	.align	2
.LC73:
	.string	"Invalid discovery type\r\n"
	.zero	3
.LC74:
	.string	"Discover failed (err %d)\r\n"
	.zero	1
.LC75:
	.string	"Discover pending\r\n"
	.section	.rodata.ble_exchange_mtu.str1.4,"aMS",@progbits,1
	.align	2
.LC13:
	.string	"Exchange failed (err %d)\r\n"
	.zero	1
.LC14:
	.string	"Exchange pending\r\n"
	.section	.rodata.ble_get_all_conn_info.str1.4,"aMS",@progbits,1
	.align	2
.LC111:
	.string	"ble local device address: %s\r\n"
	.zero	1
.LC112:
	.string	"ble connected devices count: %d\r\n"
	.zero	2
.LC113:
	.string	"[%d]: address %s\r\n"
	.section	.rodata.ble_get_device_name.str1.4,"aMS",@progbits,1
	.align	2
.LC31:
	.string	"device_name: %s\r\n"
	.zero	2
.LC32:
	.string	"Failed to read device name\r\n"
	.section	.rodata.ble_init.str1.4,"aMS",@progbits,1
	.align	2
.LC86:
	.string	"Has initialized \r\n"
	.zero	1
.LC87:
	.string	"Init successfully \r\n"
	.section	.rodata.ble_read.str1.4,"aMS",@progbits,1
	.align	2
.LC68:
	.string	"Read failed (err %d)\r\n"
	.zero	1
.LC69:
	.string	"Read pending\r\n"
	.section	.rodata.ble_read_local_address.str1.4,"aMS",@progbits,1
	.align	2
.LC95:
	.string	"Local public addr : %s\r\n"
	.zero	3
.LC96:
	.string	"Local random addr : %s\r\n"
	.section	.rodata.ble_security.str1.4,"aMS",@progbits,1
	.align	2
.LC20:
	.string	"Please firstly choose the connection using ble_select_conn\r\n"
	.zero	3
.LC21:
	.string	"Failed to start security, (err %d) \r\n"
	.zero	2
.LC22:
	.string	"Start security successfully\r\n"
	.section	.rodata.ble_select_conn.str1.4,"aMS",@progbits,1
	.align	2
.LC23:
	.string	"No matching connection found\r\n"
	.section	.rodata.ble_set_adv_channel.str1.4,"aMS",@progbits,1
	.align	2
.LC41:
	.string	"Set adv channel success\r\n"
	.zero	2
.LC42:
	.string	"Failed to Set adv channel\r\n"
	.section	.rodata.ble_set_data_len.str1.4,"aMS",@progbits,1
	.align	2
.LC61:
	.string	"ble_set_data_len, LE Set Data Length (err %d)\r\n"
.LC62:
	.string	"ble_set_data_len, LE Set Data Length success\r\n"
	.section	.rodata.ble_set_device_name.str1.4,"aMS",@progbits,1
	.align	2
.LC83:
	.string	"Failed to set device name\r\n"
.LC84:
	.string	"Set the device name successfully\r\n"
	.zero	1
.LC85:
	.string	"Invaild lenth(%d)\r\n"
	.section	.rodata.ble_set_tx_pwr.str1.4,"aMS",@progbits,1
	.align	2
.LC4:
	.string	"Number of Parameters is not correct\r\n"
	.zero	2
.LC5:
	.string	"ble_set_tx_pwr, invalid value, value shall be in [0x%x - 0x%x]\r\n"
	.zero	3
.LC6:
	.string	"ble_set_tx_pwr, Fail to set tx power (err %d)\r\n"
.LC7:
	.string	"ble_set_tx_pwr, Set tx power successfully\r\n"
	.section	.rodata.ble_start_advertise.str1.4,"aMS",@progbits,1
	.align	2
.LC33:
	.string	"adv_type 0x%x\r\n"
.LC34:
	.string	"Arg1 is invalid\r\n"
	.zero	2
.LC35:
	.string	"mode 0x%x\r\n"
.LC36:
	.string	"Arg2 is invalid\r\n"
	.zero	2
.LC37:
	.string	"interval min 0x%x\r\n"
.LC38:
	.string	"interval max 0x%x\r\n"
.LC39:
	.string	"Failed to start advertising (err %d) \r\n"
.LC40:
	.string	"Advertising started\r\n"
	.section	.rodata.ble_start_scan.str1.4,"aMS",@progbits,1
	.align	2
.LC81:
	.string	"Failed to start scan (err %d) \r\n"
	.zero	3
.LC82:
	.string	"Start scan successfully \r\n"
	.section	.rodata.ble_stop_advertise.str1.4,"aMS",@progbits,1
	.align	2
.LC29:
	.string	"Failed to stop advertising\r\n"
	.zero	3
.LC30:
	.string	"Advertising stopped\r\n"
	.section	.rodata.ble_stop_scan.str1.4,"aMS",@progbits,1
	.align	2
.LC43:
	.string	"Stopping scanning failed (err %d)\r\n"
.LC44:
	.string	"Scan successfully stopped \r\n"
	.section	.rodata.ble_subscribe.str1.4,"aMS",@progbits,1
	.align	2
.LC63:
	.string	"Subscribe failed (err %d)\r\n"
.LC64:
	.string	"Subscribed\r\n"
	.section	.rodata.ble_unpair.str1.4,"aMS",@progbits,1
	.align	2
.LC79:
	.string	"Failed to unpair\r\n"
	.zero	1
.LC80:
	.string	"Unpair successfully\r\n"
	.section	.rodata.ble_unsubscribe.str1.4,"aMS",@progbits,1
	.align	2
.LC8:
	.string	"Not connected\r\n"
.LC9:
	.string	"No subscription found\r\n"
.LC10:
	.string	"Unsubscribe failed (err %d)\r\n"
	.zero	2
.LC11:
	.string	"Unsubscribe success\r\n"
	.section	.rodata.ble_write.str1.4,"aMS",@progbits,1
	.align	2
.LC65:
	.string	"Write ongoing\r\n"
.LC66:
	.string	"Write failed (err %d)\r\n"
.LC67:
	.string	"Write pending\r\n"
	.section	.rodata.ble_write_without_rsp.str1.4,"aMS",@progbits,1
	.align	2
.LC114:
	.string	"Write Complete (err %d)\r\n"
	.section	.rodata.bt_addr_le_to_str.constprop.14.str1.4,"aMS",@progbits,1
	.align	2
.LC88:
	.string	"public"
	.zero	1
.LC89:
	.string	"random"
	.zero	1
.LC90:
	.string	"public-id"
	.zero	2
.LC91:
	.string	"random-id"
	.zero	2
.LC92:
	.string	"0x%02x"
	.zero	1
.LC93:
	.string	"%02X:%02X:%02X:%02X:%02X:%02X (%s)"
	.section	.rodata.connected.str1.4,"aMS",@progbits,1
	.align	2
.LC97:
	.string	"Failed to connect to %s (%u) \r\n"
.LC98:
	.string	"Connected: %s \r\n"
	.section	.rodata.device_found.str1.4,"aMS",@progbits,1
	.align	2
.LC94:
	.string	"[DEVICE]: %s, AD evt type %u, RSSI %i %s \r\n"
	.section	.rodata.disconnected.str1.4,"aMS",@progbits,1
	.align	2
.LC99:
	.string	"Disconnected: %s (reason %u) \r\n"
	.section	.rodata.discover_func.str1.4,"aMS",@progbits,1
	.align	2
.LC47:
	.string	"Discover complete\r\n"
.LC48:
	.string	"Service %s found: start handle %x, end_handle %x\r\n"
	.zero	1
.LC49:
	.string	"Characteristic %s found: attr->handle %x  chrc->handle %x \r\n"
	.zero	3
.LC50:
	.string	"Properties: "
	.zero	3
.LC51:
	.string	"[bcast]\r\n"
	.zero	2
.LC52:
	.string	"[read]\r\n"
	.zero	3
.LC53:
	.string	"[write]\r\n"
	.zero	2
.LC54:
	.string	"[write w/w rsp]\r\n"
	.zero	2
.LC55:
	.string	"[notify]\r\n"
	.zero	1
.LC56:
	.string	"[indicate]"
	.zero	1
.LC57:
	.string	"[auth]\r\n"
	.zero	3
.LC58:
	.string	"[ext prop]\r\n"
	.zero	3
.LC59:
	.string	"Include %s found: handle %x, start %x, end %x\r\n"
.LC60:
	.string	"Descriptor %s found: handle %x\r\n"
	.section	.rodata.exchange_func.str1.4,"aMS",@progbits,1
	.align	2
.LC15:
	.string	"successful"
	.zero	1
.LC16:
	.string	"failed"
	.zero	1
.LC17:
	.string	"Exchange %s MTU Size =%d \r\n"
	.section	.rodata.identity_resolved.str1.4,"aMS",@progbits,1
	.align	2
.LC110:
	.string	"Identity resolved %s -> %s \r\n"
	.section	.rodata.le_param_updated.str1.4,"aMS",@progbits,1
	.align	2
.LC3:
	.string	"LE conn param updated: int 0x%04x lat %d to %d \r\n"
	.section	.rodata.notify_func.str1.4,"aMS",@progbits,1
	.align	2
.LC1:
	.string	"Unsubscribed\r\n"
	.zero	1
.LC2:
	.string	"Notification: data length %u\r\n"
	.section	.rodata.read_func.str1.4,"aMS",@progbits,1
	.align	2
.LC70:
	.string	"Read complete: err %u length %u \r\n"
	.zero	1
.LC71:
	.string	"device name : %s \r\n"
.LC72:
	.string	"buf=[0x%x]\r\n"
	.section	.rodata.security_changed.str1.4,"aMS",@progbits,1
	.align	2
.LC100:
	.string	"Security changed: %s level %u \r\n"
	.section	.rodata.str1.4,"aMS",@progbits,1
	.align	2
.LC115:
	.string	"ble_init"
	.zero	3
.LC116:
	.string	""
	.zero	3
.LC117:
	.string	"ble_disable"
.LC118:
	.string	"ble_get_device_name"
.LC119:
	.string	"ble_set_device_name"
.LC120:
	.string	"ble_start_scan"
	.zero	1
.LC121:
	.string	"ble_stop_scan"
	.zero	2
.LC122:
	.string	"ble_set_adv_channel"
.LC123:
	.string	"ble_start_adv"
	.zero	2
.LC124:
	.string	"ble_stop_adv"
	.zero	3
.LC125:
	.string	"ble_read_local_address"
	.zero	1
.LC126:
	.string	"ble_connect"
.LC127:
	.string	"ble_disconnect"
	.zero	1
.LC128:
	.string	"ble_select_conn"
.LC129:
	.string	"ble_unpair"
	.zero	1
.LC130:
	.string	"ble_conn_update"
.LC131:
	.string	"ble_security"
	.zero	3
.LC132:
	.string	"ble_auth"
	.zero	3
.LC133:
	.string	"ble_auth_cancel"
.LC134:
	.string	"ble_auth_passkey_confirm"
	.zero	3
.LC135:
	.string	"ble_auth_pairing_confirm"
	.zero	3
.LC136:
	.string	"ble_auth_passkey"
	.zero	3
.LC137:
	.string	"ble_exchange_mtu"
	.zero	3
.LC138:
	.string	"ble_discover"
	.zero	3
.LC139:
	.string	"ble_read"
	.zero	3
.LC140:
	.string	"ble_write"
	.zero	2
.LC141:
	.string	"ble_write_without_rsp"
	.zero	2
.LC142:
	.string	"ble_subscribe"
	.zero	2
.LC143:
	.string	"ble_unsubscribe"
.LC144:
	.string	"ble_set_data_len"
	.zero	3
.LC145:
	.string	"ble_conn_info"
	.zero	2
.LC146:
	.string	"ble_set_tx_pwr"
	.zero	1
.LC147:
	.string	"BL602-BLE-DEV"
	.section	.rodata.write_func.str1.4,"aMS",@progbits,1
	.align	2
.LC12:
	.string	"Write complete: err %u \r\n"
	.section	.sbss.ble_inited,"aw",@nobits
	.set	.LANCHOR10,. + 0
	.type	ble_inited, @object
	.size	ble_inited, 1
ble_inited:
	.zero	1
	.section	.sbss.default_conn,"aw",@nobits
	.align	2
	.set	.LANCHOR0,. + 0
	.type	default_conn, @object
	.size	default_conn, 4
default_conn:
	.zero	4
	.section	.sbss.uuid,"aw",@nobits
	.align	2
	.set	.LANCHOR8,. + 0
	.type	uuid, @object
	.size	uuid, 4
uuid:
	.zero	4
	.section	.sdata.__compound_literal.1,"aw"
	.align	2
	.type	__compound_literal.1, @object
	.size	__compound_literal.1, 1
__compound_literal.1:
	.byte	6
	.section	.srodata,"a"
	.align	2
.LC0:
	.half	24
	.half	40
	.half	0
	.half	400
	.section	.static_cli_cmds,"a"
	.align	2
	.type	btStackCmdSet, @object
	.size	btStackCmdSet, 372
btStackCmdSet:
	.word	.LC115
	.word	.LC116
	.word	ble_init
	.word	.LC117
	.word	.LC116
	.word	ble_disable
	.word	.LC118
	.word	.LC116
	.word	ble_get_device_name
	.word	.LC119
	.word	.LC116
	.word	ble_set_device_name
	.word	.LC120
	.word	.LC116
	.word	ble_start_scan
	.word	.LC121
	.word	.LC116
	.word	ble_stop_scan
	.word	.LC122
	.word	.LC116
	.word	ble_set_adv_channel
	.word	.LC123
	.word	.LC116
	.word	ble_start_advertise
	.word	.LC124
	.word	.LC116
	.word	ble_stop_advertise
	.word	.LC125
	.word	.LC116
	.word	ble_read_local_address
	.word	.LC126
	.word	.LC116
	.word	ble_connect
	.word	.LC127
	.word	.LC116
	.word	ble_disconnect
	.word	.LC128
	.word	.LC116
	.word	ble_select_conn
	.word	.LC129
	.word	.LC116
	.word	ble_unpair
	.word	.LC130
	.word	.LC116
	.word	ble_conn_update
	.word	.LC131
	.word	.LC116
	.word	ble_security
	.word	.LC132
	.word	.LC116
	.word	ble_auth
	.word	.LC133
	.word	.LC116
	.word	ble_auth_cancel
	.word	.LC134
	.word	.LC116
	.word	ble_auth_passkey_confirm
	.word	.LC135
	.word	.LC116
	.word	ble_auth_pairing_confirm
	.word	.LC136
	.word	.LC116
	.word	ble_auth_passkey
	.word	.LC137
	.word	.LC116
	.word	ble_exchange_mtu
	.word	.LC138
	.word	.LC116
	.word	ble_discover
	.word	.LC139
	.word	.LC116
	.word	ble_read
	.word	.LC140
	.word	.LC116
	.word	ble_write
	.word	.LC141
	.word	.LC116
	.word	ble_write_without_rsp
	.word	.LC142
	.word	.LC116
	.word	ble_subscribe
	.word	.LC143
	.word	.LC116
	.word	ble_unsubscribe
	.word	.LC144
	.word	.LC116
	.word	ble_set_data_len
	.word	.LC145
	.word	.LC116
	.word	ble_get_all_conn_info
	.word	.LC146
	.word	.LC116
	.word	ble_set_tx_pwr
	.text
.Letext0:
	.file 4 "/b-l/bl_iot_sdk_new/toolchain/riscv/Linux/lib/gcc/riscv64-unknown-elf/8.3.0/include/stddef.h"
	.file 5 "/b-l/bl_iot_sdk_new/toolchain/riscv/Linux/riscv64-unknown-elf/include/machine/_default_types.h"
	.file 6 "/b-l/bl_iot_sdk_new/toolchain/riscv/Linux/riscv64-unknown-elf/include/sys/_types.h"
	.file 7 "/b-l/bl_iot_sdk_new/toolchain/riscv/Linux/riscv64-unknown-elf/include/sys/reent.h"
	.file 8 "/b-l/bl_iot_sdk_new/toolchain/riscv/Linux/riscv64-unknown-elf/include/sys/lock.h"
	.file 9 "/b-l/bl_iot_sdk_new/toolchain/riscv/Linux/riscv64-unknown-elf/include/stdlib.h"
	.file 10 "/b-l/bl_iot_sdk_new/toolchain/riscv/Linux/riscv64-unknown-elf/include/sys/_stdint.h"
	.file 11 "/b-l/bl_iot_sdk_new/toolchain/riscv/Linux/riscv64-unknown-elf/include/sys/types.h"
	.file 12 "/b-l/bl_iot_sdk_new/components/network/ble/blestack/src/common/include/zephyr/types.h"
	.file 13 "/b-l/bl_iot_sdk_new/components/network/ble/blestack/src/common/include/misc/slist.h"
	.file 14 "/b-l/bl_iot_sdk_new/components/network/ble/blestack/src/common/include/misc/dlist.h"
	.file 15 "/b-l/bl_iot_sdk_new/components/network/ble/blestack/src/port/include/bl_port.h"
	.file 16 "/b-l/bl_iot_sdk_new/components/network/ble/blestack/src/common/include/atomic.h"
	.file 17 "/b-l/bl_iot_sdk_new/components/network/ble/blestack/src/common/include/work_q.h"
	.file 18 "/b-l/bl_iot_sdk_new/components/network/ble/blestack/src/port/include/zephyr.h"
	.file 19 "/b-l/bl_iot_sdk_new/components/network/ble/blestack/src/common/include/net/buf.h"
	.file 20 "/b-l/bl_iot_sdk_new/components/network/ble/blestack/src/include/bluetooth/addr.h"
	.file 21 "/b-l/bl_iot_sdk_new/components/network/ble/blestack/src/include/bluetooth/conn.h"
	.file 22 "/b-l/bl_iot_sdk_new/components/network/ble/blestack/src/include/bluetooth/uuid.h"
	.file 23 "/b-l/bl_iot_sdk_new/components/network/ble/blestack/src/include/bluetooth/att.h"
	.file 24 "/b-l/bl_iot_sdk_new/components/network/ble/blestack/src/host/hci_core.h"
	.file 25 "/b-l/bl_iot_sdk_new/components/bl602/freertos_riscv_ram/portable/GCC/RISC-V/portmacro.h"
	.file 26 "/b-l/bl_iot_sdk_new/components/stage/cli/cli/include/cli.h"
	.file 27 "/b-l/bl_iot_sdk_new/toolchain/riscv/Linux/riscv64-unknown-elf/include/stdio.h"
	.file 28 "/b-l/bl_iot_sdk_new/components/network/ble/blestack/src/common/include/misc/util.h"
	.file 29 "/b-l/bl_iot_sdk_new/toolchain/riscv/Linux/riscv64-unknown-elf/include/string.h"