	.file	"xz_dec_stream.c"
	.option nopic
	.attribute arch, "rv32i2p0_m2p0_f2p0_c2p0"
	.attribute unaligned_access, 0
	.attribute stack_align, 16
	.text
.Ltext0:
	.cfi_sections	.debug_frame
	.section	.text.get_unaligned_le32,"ax",@progbits
	.align	1
	.type	get_unaligned_le32, @function
get_unaligned_le32:
.LFB1:
	.file 1 "/home/hogc/build-tools/sdk/bl/bl_iot_sdk/components/bl602/bl602_std/bl602_std/Common/xz/xz_config.h"
	.loc 1 73 1
	.cfi_startproc
.LVL0:
	.loc 1 74 2
	.loc 1 77 4 is_stmt 0
	lbu	a5,1(a0)
	lbu	a4,0(a0)
	slli	a5,a5,8
	or	a4,a5,a4
	lbu	a5,2(a0)
	lbu	a0,3(a0)
.LVL1:
	slli	a5,a5,16
	or	a5,a5,a4
	slli	a0,a0,24
	.loc 1 78 1
	or	a0,a0,a5
	ret
	.cfi_endproc
.LFE1:
	.size	get_unaligned_le32, .-get_unaligned_le32
	.globl	__ashldi3
	.section	.text.dec_vli,"ax",@progbits
	.align	1
	.type	dec_vli, @function
dec_vli:
.LFB6:
	.file 2 "/home/hogc/build-tools/sdk/bl/bl_iot_sdk/components/bl602/bl602_std/bl602_std/Common/xz/xz_dec_stream.c"
	.loc 2 188 1 is_stmt 1
	.cfi_startproc
.LVL2:
	.loc 2 189 2
	.loc 2 191 2
	.loc 2 188 1 is_stmt 0
	addi	sp,sp,-48
	.cfi_def_cfa_offset 48
	sw	s0,40(sp)
	sw	s3,28(sp)
	sw	s4,24(sp)
	sw	ra,44(sp)
	sw	s1,36(sp)
	sw	s2,32(sp)
	sw	s5,20(sp)
	.cfi_offset 8, -8
	.cfi_offset 19, -20
	.cfi_offset 20, -24
	.cfi_offset 1, -4
	.cfi_offset 9, -12
	.cfi_offset 18, -16
	.cfi_offset 21, -28
	.loc 2 191 5
	lw	a5,4(a0)
	.loc 2 188 1
	mv	s0,a0
	mv	s4,a1
	mv	s3,a2
	.loc 2 191 5
	bne	a5,zero,.L3
	.loc 2 192 3 is_stmt 1
	.loc 2 192 10 is_stmt 0
	li	a5,0
	li	a6,0
	sw	a5,8(a0)
	sw	a6,12(a0)
.L3:
	.loc 2 210 6
	li	s5,63
	j	.L8
.LVL3:
.L9:
	.loc 2 195 8
	add	a4,s4,a5
	.loc 2 196 3
	addi	a5,a5,1
	.loc 2 195 8
	lbu	s2,0(a4)
	.loc 2 196 3
	sw	a5,0(s3)
	.loc 2 198 41
	lw	s1,4(s0)
	.loc 2 198 37
	andi	a0,s2,127
	li	a1,0
	mv	a2,s1
	sw	a3,12(sp)
	.loc 2 195 3 is_stmt 1
.LVL4:
	.loc 2 196 3
	.loc 2 198 3
	.loc 2 198 37 is_stmt 0
	call	__ashldi3
.LVL5:
	.loc 2 198 10
	lw	a5,8(s0)
	.loc 2 200 6
	lw	a3,12(sp)
	.loc 2 198 10
	or	a0,a5,a0
	lw	a5,12(s0)
	sw	a0,8(s0)
	or	a1,a5,a1
	.loc 2 200 6
	slli	a5,s2,24
	.loc 2 198 10
	sw	a1,12(s0)
	.loc 2 200 3 is_stmt 1
	.loc 2 200 6 is_stmt 0
	srai	a5,a5,24
	blt	a5,zero,.L4
.LVL6:
	.loc 2 202 4 is_stmt 1
	.loc 2 202 7 is_stmt 0
	bne	s2,zero,.L5
	.loc 2 202 18 discriminator 1
	beq	s1,zero,.L5
.L7:
	.loc 2 203 12
	li	a0,7
.LVL7:
.L6:
	.loc 2 215 1
	lw	ra,44(sp)
	.cfi_remember_state
	.cfi_restore 1
	lw	s0,40(sp)
	.cfi_restore 8
.LVL8:
	lw	s1,36(sp)
	.cfi_restore 9
	lw	s2,32(sp)
	.cfi_restore 18
	lw	s3,28(sp)
	.cfi_restore 19
.LVL9:
	lw	s4,24(sp)
	.cfi_restore 20
.LVL10:
	lw	s5,20(sp)
	.cfi_restore 21
	addi	sp,sp,48
	.cfi_def_cfa_offset 0
	jr	ra
.LVL11:
.L5:
	.cfi_restore_state
	.loc 2 205 4 is_stmt 1
	.loc 2 205 11 is_stmt 0
	sw	zero,4(s0)
	.loc 2 206 4 is_stmt 1
	.loc 2 206 11 is_stmt 0
	li	a0,1
	j	.L6
.L4:
	.loc 2 209 3 is_stmt 1
	.loc 2 209 10 is_stmt 0
	addi	s1,s1,7
	sw	s1,4(s0)
	.loc 2 210 3 is_stmt 1
	.loc 2 210 6 is_stmt 0
	beq	s1,s5,.L7
.LVL12:
.L8:
	.loc 2 194 9
	lw	a5,0(s3)
	.loc 2 194 8
	bltu	a5,a3,.L9
	.loc 2 214 9
	li	a0,0
	j	.L6
	.cfi_endproc
.LFE6:
	.size	dec_vli, .-dec_vli
	.section	.text.index_update,"ax",@progbits
	.align	1
	.type	index_update, @function
index_update:
.LFB8:
	.loc 2 300 1 is_stmt 1
	.cfi_startproc
.LVL13:
	.loc 2 301 2
	.loc 2 300 1 is_stmt 0
	addi	sp,sp,-16
	.cfi_def_cfa_offset 16
	sw	s0,8(sp)
	sw	ra,12(sp)
	.cfi_offset 8, -8
	.cfi_offset 1, -4
	.loc 2 301 32
	lw	a3,16(a0)
	.loc 2 301 9
	lw	a4,4(a1)
	.loc 2 302 16
	lw	a5,112(a0)
	.loc 2 300 1
	mv	s0,a0
	.loc 2 301 9
	sub	a4,a4,a3
.LVL14:
	.loc 2 302 2 is_stmt 1
	.loc 2 302 16 is_stmt 0
	lw	a0,116(a0)
.LVL15:
	add	a2,a5,a4
	sltu	a5,a2,a5
	add	a5,a5,a0
	sw	a2,112(s0)
	sw	a5,116(s0)
	.loc 2 303 2 is_stmt 1
	.loc 2 303 11 is_stmt 0
	lw	a0,0(a1)
	lw	a2,24(s0)
	mv	a1,a4
.LVL16:
	add	a0,a0,a3
	call	xz_crc32
.LVL17:
	.loc 2 303 9
	sw	a0,24(s0)
	.loc 2 304 1
	lw	ra,12(sp)
	.cfi_restore 1
	lw	s0,8(sp)
	.cfi_restore 8
.LVL18:
	addi	sp,sp,16
	.cfi_def_cfa_offset 0
	jr	ra
	.cfi_endproc
.LFE8:
	.size	index_update, .-index_update
	.section	.text.fill_temp,"ax",@progbits
	.align	1
	.type	fill_temp, @function
fill_temp:
.LFB5:
	.loc 2 169 1 is_stmt 1
	.cfi_startproc
.LVL19:
	.loc 2 170 2
	.loc 2 169 1 is_stmt 0
	addi	sp,sp,-16
	.cfi_def_cfa_offset 16
	sw	s1,4(sp)
	sw	s2,0(sp)
	sw	ra,12(sp)
	sw	s0,8(sp)
	.cfi_offset 9, -12
	.cfi_offset 18, -16
	.cfi_offset 1, -4
	.cfi_offset 8, -8
	.loc 2 170 72
	lw	a4,152(a0)
	.loc 2 170 37
	lw	a3,4(a1)
	.loc 2 170 63
	lw	s0,156(a0)
	.loc 2 170 34
	lw	a5,8(a1)
	.loc 2 169 1
	mv	s1,a0
	.loc 2 170 9
	sub	s0,s0,a4
	.loc 2 170 34
	sub	a5,a5,a3
	.loc 2 169 1
	mv	s2,a1
	.loc 2 170 9
	bleu	s0,a5,.L17
	mv	s0,a5
.L17:
.LVL20:
	.loc 2 173 2 is_stmt 1
	.loc 2 173 42 is_stmt 0
	lw	a1,0(s2)
.LVL21:
	.loc 2 173 9
	addi	a0,s1,160
.LVL22:
	.loc 2 173 2
	mv	a2,s0
	add	a1,a1,a3
	add	a0,a0,a4
	call	memcpy
.LVL23:
	.loc 2 174 2 is_stmt 1
	.loc 2 174 12 is_stmt 0
	lw	a5,4(s2)
	.loc 2 182 8
	li	a0,0
	.loc 2 174 12
	add	a5,a5,s0
	sw	a5,4(s2)
	.loc 2 175 2 is_stmt 1
	.loc 2 175 14 is_stmt 0
	lw	a5,152(s1)
	add	s0,s0,a5
.LVL24:
	.loc 2 177 5
	lw	a5,156(s1)
	.loc 2 175 14
	sw	s0,152(s1)
	.loc 2 177 2 is_stmt 1
	.loc 2 177 5 is_stmt 0
	bne	s0,a5,.L18
	.loc 2 178 3 is_stmt 1
	.loc 2 178 15 is_stmt 0
	sw	zero,152(s1)
	.loc 2 179 3 is_stmt 1
	.loc 2 179 9 is_stmt 0
	li	a0,1
.L18:
	.loc 2 183 1
	lw	ra,12(sp)
	.cfi_restore 1
	lw	s0,8(sp)
	.cfi_restore 8
	lw	s1,4(sp)
	.cfi_restore 9
.LVL25:
	lw	s2,0(sp)
	.cfi_restore 18
.LVL26:
	addi	sp,sp,16
	.cfi_def_cfa_offset 0
	jr	ra
	.cfi_endproc
.LFE5:
	.size	fill_temp, .-fill_temp
	.section	.text.xz_dec_reset,"ax",@progbits
	.align	1
	.globl	xz_dec_reset
	.type	xz_dec_reset, @function
xz_dec_reset:
.LFB17:
	.loc 2 855 1 is_stmt 1
	.cfi_startproc
.LVL27:
	.loc 2 856 2
	.loc 2 855 1 is_stmt 0
	addi	sp,sp,-16
	.cfi_def_cfa_offset 16
	sw	ra,12(sp)
	sw	s0,8(sp)
	.cfi_offset 1, -4
	.cfi_offset 8, -8
	.loc 2 856 14
	sb	zero,0(a0)
	.loc 2 857 2 is_stmt 1
	.loc 2 855 1 is_stmt 0
	mv	s0,a0
	.loc 2 857 21
	sb	zero,30(a0)
	.loc 2 858 2 is_stmt 1
	.loc 2 858 9 is_stmt 0
	sw	zero,4(a0)
	.loc 2 859 2 is_stmt 1
	.loc 2 859 9 is_stmt 0
	sw	zero,24(a0)
	.loc 2 860 2 is_stmt 1
	li	a2,48
	li	a1,0
	addi	a0,a0,56
.LVL28:
	call	memset
.LVL29:
	.loc 2 861 2
	addi	a0,s0,104
	li	a2,48
	li	a1,0
	call	memset
.LVL30:
	.loc 2 862 2
	.loc 2 863 15 is_stmt 0
	li	a5,12
	.loc 2 862 14
	sw	zero,152(s0)
	.loc 2 863 2 is_stmt 1
	.loc 2 863 15 is_stmt 0
	sw	a5,156(s0)
	.loc 2 864 1
	lw	ra,12(sp)
	.cfi_restore 1
	lw	s0,8(sp)
	.cfi_restore 8
.LVL31:
	addi	sp,sp,16
	.cfi_def_cfa_offset 0
	jr	ra
	.cfi_endproc
.LFE17:
	.size	xz_dec_reset, .-xz_dec_reset
	.section	.text.xz_dec_run,"ax",@progbits
	.align	1
	.globl	xz_dec_run
	.type	xz_dec_run, @function
xz_dec_run:
.LFB15:
	.loc 2 789 1 is_stmt 1
	.cfi_startproc
.LVL32:
	.loc 2 790 2
	.loc 2 791 2
	.loc 2 792 2
	.loc 2 794 2
	.loc 2 789 1 is_stmt 0
	addi	sp,sp,-80
	.cfi_def_cfa_offset 80
	sw	s0,72(sp)
	sw	s9,36(sp)
	sw	ra,76(sp)
	sw	s1,68(sp)
	sw	s2,64(sp)
	sw	s3,60(sp)
	sw	s4,56(sp)
	sw	s5,52(sp)
	sw	s6,48(sp)
	sw	s7,44(sp)
	sw	s8,40(sp)
	sw	s10,32(sp)
	sw	s11,28(sp)
	.cfi_offset 8, -8
	.cfi_offset 25, -44
	.cfi_offset 1, -4
	.cfi_offset 9, -12
	.cfi_offset 18, -16
	.cfi_offset 19, -20
	.cfi_offset 20, -24
	.cfi_offset 21, -28
	.cfi_offset 22, -32
	.cfi_offset 23, -36
	.cfi_offset 24, -40
	.cfi_offset 26, -48
	.cfi_offset 27, -52
	.loc 2 794 5
	lbu	a4,29(a0)
	.loc 2 789 1
	mv	s0,a0
	mv	s9,a1
	.loc 2 794 5
	bne	a4,zero,.L24
	.loc 2 795 3 is_stmt 1
	call	xz_dec_reset
.LVL33:
.L24:
	.loc 2 797 2
	.loc 2 797 11 is_stmt 0
	lw	s2,4(s9)
.LVL34:
	.loc 2 798 2 is_stmt 1
.LBB18:
.LBB19:
	.loc 2 583 3 is_stmt 0
	lui	s3,%hi(.L28)
.LBE19:
.LBE18:
	.loc 2 798 12
	lw	s4,16(s9)
.LVL35:
	.loc 2 799 2 is_stmt 1
.LBB58:
.LBB56:
	.loc 2 574 2
	.loc 2 580 2
	.loc 2 583 3 is_stmt 0
	addi	s3,s3,%lo(.L28)
	.loc 2 580 14
	sw	s2,16(s0)
.LBB20:
.LBB21:
	.loc 2 289 22
	addi	s10,s0,80
.LBE21:
.LBE20:
.LBB24:
.LBB25:
	.loc 2 481 22
	addi	s1,s0,160
	.loc 2 517 32
	li	s6,-1
	li	s7,-1
	.loc 2 511 7
	addi	s5,s0,152
.LBE25:
.LBE24:
.LBB29:
.LBB30:
	.loc 2 411 8
	lui	s11,%hi(.LC0)
.L25:
.LBE30:
.LBE29:
	.loc 2 583 12
	lbu	a4,0(s0)
	.loc 2 583 3
	li	a3,9
.L26:
	.loc 2 582 2 is_stmt 1
	.loc 2 583 3
	bgtu	a4,a3,.L26
	slli	a4,a4,2
	add	a4,a4,s3
	lw	a4,0(a4)
	jr	a4
	.section	.rodata.xz_dec_run,"a",@progbits
	.align	2
	.align	2
.L28:
	.word	.L37
	.word	.L36
	.word	.L35
	.word	.L34
	.word	.L61
	.word	.L32
	.word	.L96
	.word	.L74
	.word	.L29
	.word	.L27
	.section	.text.xz_dec_run
.L96:
.LBB34:
.LBB35:
	.loc 2 319 9 is_stmt 0
	addi	s5,s9,4
	.loc 2 320 6
	li	s1,1
	.loc 2 342 22
	li	s3,2
	.loc 2 348 23
	addi	s6,s0,128
.L31:
	.loc 2 316 2 is_stmt 1
	.loc 2 318 2
	.loc 2 319 3
	.loc 2 319 9 is_stmt 0
	lw	a3,8(s9)
	lw	a1,0(s9)
	mv	a2,s5
	mv	a0,s0
	call	dec_vli
.LVL36:
	mv	s8,a0
.LVL37:
	.loc 2 320 3 is_stmt 1
	.loc 2 320 6 is_stmt 0
	beq	a0,s1,.L67
	.loc 2 321 4 is_stmt 1
	mv	a1,s9
	mv	a0,s0
.LVL38:
	call	index_update
.LVL39:
	.loc 2 322 4
	j	.L39
.L37:
.LBE35:
.LBE34:
	.loc 2 593 4
	.loc 2 593 9 is_stmt 0
	mv	a1,s9
	mv	a0,s0
	call	fill_temp
.LVL40:
	.loc 2 593 7
	bne	a0,zero,.L38
.L108:
	.loc 2 719 6 is_stmt 1
	.loc 2 719 13 is_stmt 0
	li	s8,0
	j	.L39
.L38:
	.loc 2 603 4 is_stmt 1
	.loc 2 603 16 is_stmt 0
	li	s8,1
	sb	s8,0(s0)
	.loc 2 605 4 is_stmt 1
.LVL41:
.LBB38:
.LBB31:
	.loc 2 411 2
	.loc 2 411 8 is_stmt 0
	li	a2,6
	addi	a1,s11,%lo(.LC0)
	mv	a0,s1
	call	memcmp
.LVL42:
	.loc 2 411 5
	bne	a0,zero,.L83
	.loc 2 414 2 is_stmt 1
	.loc 2 414 6 is_stmt 0
	li	a2,0
	li	a1,2
	addi	a0,s0,166
	call	xz_crc32
.LVL43:
	sw	a0,12(sp)
	.loc 2 415 7
	addi	a0,s0,168
	call	get_unaligned_le32
.LVL44:
	.loc 2 414 5
	lw	a4,12(sp)
	beq	a4,a0,.L40
.LVL45:
.L46:
	.loc 2 416 10
	li	s8,7
.L39:
.LVL46:
.LBE31:
.LBE38:
.LBE56:
.LBE58:
	.loc 2 801 2 is_stmt 1
	.loc 2 801 5 is_stmt 0
	lbu	a4,29(s0)
	bne	a4,zero,.L77
	.loc 2 802 3 is_stmt 1
	.loc 2 802 6 is_stmt 0
	bne	s8,zero,.L78
	.loc 2 803 4 is_stmt 1
	.loc 2 804 22 is_stmt 0
	lw	a3,4(s9)
	lw	a4,8(s9)
	li	s8,7
.LVL47:
	beq	a3,a4,.L79
	li	s8,8
.L79:
	.loc 2 807 4 is_stmt 1
	.loc 2 807 14 is_stmt 0
	sw	s2,4(s9)
	.loc 2 808 4 is_stmt 1
	.loc 2 808 15 is_stmt 0
	sw	s4,16(s9)
	j	.L89
.LVL48:
.L40:
.LBB59:
.LBB57:
.LBB39:
.LBB32:
	.loc 2 418 2 is_stmt 1
	.loc 2 418 5 is_stmt 0
	lbu	a4,166(s0)
	beq	a4,zero,.L41
.LVL49:
.L42:
	.loc 2 419 10
	li	s8,6
	j	.L39
.LVL50:
.L41:
	.loc 2 428 2 is_stmt 1
	.loc 2 428 29 is_stmt 0
	lbu	a4,167(s0)
	.loc 2 428 16
	sb	a4,28(s0)
	.loc 2 437 2 is_stmt 1
	.loc 2 437 5 is_stmt 0
	bgtu	a4,s8,.L42
.LVL51:
.L36:
.LBE32:
.LBE39:
	.loc 2 610 9 is_stmt 1
	.loc 2 614 4
	.loc 2 614 9 is_stmt 0
	lw	a3,4(s9)
	.loc 2 614 7
	lw	a4,8(s9)
	beq	a3,a4,.L108
	.loc 2 618 4 is_stmt 1
	.loc 2 618 13 is_stmt 0
	lw	a4,0(s9)
	add	a4,a4,a3
	lbu	a4,0(a4)
	.loc 2 618 7
	bne	a4,zero,.L44
	.loc 2 619 5 is_stmt 1
	.loc 2 619 28 is_stmt 0
	addi	a4,a3,1
	sw	a4,4(s9)
	.loc 2 619 17
	sw	a3,16(s0)
	.loc 2 620 5 is_stmt 1
	.loc 2 620 17 is_stmt 0
	li	a4,6
.L106:
	.loc 2 701 16
	sb	a4,0(s0)
	.loc 2 702 4 is_stmt 1
	j	.L25
.L44:
	.loc 2 628 4
	.loc 2 629 40 is_stmt 0
	addi	a4,a4,1
	slli	a4,a4,2
	.loc 2 629 5
	sw	a4,48(s0)
	.loc 2 631 4 is_stmt 1
	.loc 2 631 17 is_stmt 0
	sw	a4,156(s0)
	.loc 2 632 4 is_stmt 1
	.loc 2 633 16 is_stmt 0
	li	a4,2
	.loc 2 632 16
	sw	zero,152(s0)
	.loc 2 633 4 is_stmt 1
	.loc 2 633 16 is_stmt 0
	sb	a4,0(s0)
.L35:
	.loc 2 636 9 is_stmt 1
	.loc 2 639 4
	.loc 2 639 9 is_stmt 0
	mv	a1,s9
	mv	a0,s0
	call	fill_temp
.LVL52:
	.loc 2 639 7
	beq	a0,zero,.L108
	.loc 2 642 4 is_stmt 1
.LVL53:
.LBB40:
.LBB26:
	.loc 2 474 2
	.loc 2 480 2
	.loc 2 480 15 is_stmt 0
	lw	a1,156(s0)
	.loc 2 481 6
	li	a2,0
	mv	a0,s1
	.loc 2 480 15
	addi	a1,a1,-4
	sw	a1,156(s0)
	.loc 2 481 2 is_stmt 1
	.loc 2 481 6 is_stmt 0
	call	xz_crc32
.LVL54:
	.loc 2 482 47
	lw	a3,156(s0)
	.loc 2 481 6
	mv	s8,a0
	.loc 2 482 7
	add	a0,s1,a3
	sw	a3,12(sp)
	call	get_unaligned_le32
.LVL55:
	.loc 2 481 5
	bne	s8,a0,.L46
	.loc 2 485 2 is_stmt 1
	.loc 2 485 14 is_stmt 0
	li	a4,2
	sw	a4,152(s0)
	.loc 2 494 2 is_stmt 1
	.loc 2 494 17 is_stmt 0
	lbu	a4,161(s0)
	.loc 2 494 5
	andi	a2,a4,63
	bne	a2,zero,.L42
	.loc 2 499 2 is_stmt 1
	.loc 2 499 5 is_stmt 0
	andi	a4,a4,64
	lw	a3,12(sp)
	beq	a4,zero,.L47
	.loc 2 500 3 is_stmt 1
	.loc 2 500 7 is_stmt 0
	mv	a2,s5
	mv	a1,s1
	mv	a0,s0
	call	dec_vli
.LVL56:
	.loc 2 500 6
	li	a4,1
	bne	a0,a4,.L46
	.loc 2 504 3 is_stmt 1
	.loc 2 504 30 is_stmt 0
	lw	a2,8(s0)
	lw	a3,12(s0)
	sw	a2,32(s0)
	sw	a3,36(s0)
.L48:
	.loc 2 510 2 is_stmt 1
	.loc 2 510 5 is_stmt 0
	lb	a4,161(s0)
	bge	a4,zero,.L49
	.loc 2 511 3 is_stmt 1
	.loc 2 511 7 is_stmt 0
	lw	a3,156(s0)
	mv	a2,s5
	mv	a1,s1
	mv	a0,s0
	call	dec_vli
.LVL57:
	.loc 2 511 6
	li	a4,1
	bne	a0,a4,.L46
	.loc 2 515 3 is_stmt 1
	.loc 2 515 32 is_stmt 0
	lw	a2,8(s0)
	lw	a3,12(s0)
	sw	a2,40(s0)
	sw	a3,44(s0)
.L50:
	.loc 2 541 2 is_stmt 1
	.loc 2 541 13 is_stmt 0
	lw	a1,156(s0)
	.loc 2 541 28
	lw	a4,152(s0)
	.loc 2 541 5
	li	a0,1
	.loc 2 541 19
	sub	a3,a1,a4
	.loc 2 541 5
	bleu	a3,a0,.L46
	.loc 2 545 2 is_stmt 1
	.loc 2 545 29 is_stmt 0
	addi	a2,a4,1
	.loc 2 545 17
	add	a3,s0,a4
	.loc 2 545 29
	sw	a2,152(s0)
	.loc 2 545 5
	lbu	a6,160(a3)
	li	a3,33
	bne	a6,a3,.L42
	.loc 2 549 2 is_stmt 1
	.loc 2 549 29 is_stmt 0
	addi	a3,a4,2
	sw	a3,152(s0)
	.loc 2 549 17
	add	a2,s0,a2
	.loc 2 549 5
	lbu	a2,160(a2)
	bne	a2,a0,.L42
	.loc 2 553 2 is_stmt 1
	.loc 2 553 5 is_stmt 0
	beq	a1,a3,.L46
	.loc 2 556 2 is_stmt 1
	.loc 2 556 60 is_stmt 0
	addi	a4,a4,3
	sw	a4,152(s0)
	.loc 2 556 8
	add	a3,s0,a3
	lbu	a1,160(a3)
	lw	a0,1184(s0)
	call	xz_dec_lzma2_reset
.LVL58:
	mv	s8,a0
.LVL59:
	.loc 2 557 2 is_stmt 1
	.loc 2 557 5 is_stmt 0
	bne	a0,zero,.L39
	.loc 2 561 30
	lw	a3,156(s0)
.L51:
	.loc 2 561 16
	lw	a4,152(s0)
	.loc 2 561 8
	bltu	a4,a3,.L52
	.loc 2 565 2 is_stmt 1
	.loc 2 566 22 is_stmt 0
	li	a5,0
	li	a6,0
.LBE26:
.LBE40:
	.loc 2 646 16
	li	a4,3
.LBB41:
.LBB27:
	.loc 2 565 14
	sw	zero,152(s0)
	.loc 2 566 2 is_stmt 1
	.loc 2 566 22 is_stmt 0
	sw	a5,56(s0)
	sw	a6,60(s0)
	.loc 2 567 2 is_stmt 1
	.loc 2 567 24 is_stmt 0
	sw	a5,64(s0)
	sw	a6,68(s0)
	.loc 2 569 2 is_stmt 1
.LVL60:
.LBE27:
.LBE41:
	.loc 2 643 4
	.loc 2 646 4
	.loc 2 646 16 is_stmt 0
	sb	a4,0(s0)
.LVL61:
.L34:
	.loc 2 649 9 is_stmt 1
	.loc 2 652 4
.LBB42:
.LBB22:
	.loc 2 231 2
	.loc 2 233 2
	.loc 2 233 17 is_stmt 0
	lw	a4,4(s9)
	.loc 2 241 9
	lw	a0,1184(s0)
	mv	a1,s9
	.loc 2 233 14
	sw	a4,16(s0)
	.loc 2 234 2 is_stmt 1
	.loc 2 234 18 is_stmt 0
	lw	a4,16(s9)
	.loc 2 234 15
	sw	a4,20(s0)
	.loc 2 241 3 is_stmt 1
	.loc 2 241 9 is_stmt 0
	call	xz_dec_lzma2_run
.LVL62:
	.loc 2 243 35
	lw	a3,4(s9)
	lw	a4,16(s0)
	.loc 2 243 22
	lw	a1,56(s0)
	.loc 2 241 9
	mv	s8,a0
.LVL63:
	.loc 2 243 2 is_stmt 1
	.loc 2 243 35 is_stmt 0
	sub	a3,a3,a4
	.loc 2 243 22
	lw	a4,60(s0)
	add	a1,a3,a1
	sltu	a3,a1,a3
	add	a3,a3,a4
	sw	a1,56(s0)
	sw	a3,60(s0)
	.loc 2 244 2 is_stmt 1
	.loc 2 244 38 is_stmt 0
	lw	a4,16(s9)
	.loc 2 244 41
	lw	a0,20(s0)
	.loc 2 244 24
	lw	a2,64(s0)
	lw	a6,68(s0)
	.loc 2 244 38
	sub	a4,a4,a0
	.loc 2 244 24
	add	a2,a4,a2
	sltu	a4,a2,a4
	add	a4,a4,a6
	.loc 2 250 5
	lw	a6,36(s0)
	.loc 2 244 24
	sw	a2,64(s0)
	sw	a4,68(s0)
	.loc 2 250 2 is_stmt 1
	.loc 2 250 5 is_stmt 0
	bltu	a6,a3,.L46
	bne	a6,a3,.L85
	lw	a3,32(s0)
	bltu	a3,a1,.L46
.L85:
	.loc 2 251 4
	lw	a3,44(s0)
	bltu	a3,a4,.L46
	bne	a3,a4,.L86
	lw	a4,40(s0)
	bltu	a4,a2,.L46
.L86:
	.loc 2 255 2 is_stmt 1
	.loc 2 255 5 is_stmt 0
	lbu	a3,28(s0)
	li	a4,1
	bne	a3,a4,.L55
	.loc 2 256 3 is_stmt 1
	.loc 2 256 12 is_stmt 0
	lw	a1,16(s9)
	.loc 2 256 28
	lw	a4,12(s9)
	.loc 2 256 12
	lw	a2,24(s0)
	sub	a1,a1,a0
	add	a0,a4,a0
	call	xz_crc32
.LVL64:
	.loc 2 256 10
	sw	a0,24(s0)
.L55:
	.loc 2 264 2 is_stmt 1
	.loc 2 264 5 is_stmt 0
	li	a4,1
	bne	s8,a4,.L39
	.loc 2 265 3 is_stmt 1
	.loc 2 265 22 is_stmt 0
	lw	a4,32(s0)
	.loc 2 265 6
	li	a2,-1
	.loc 2 265 22
	lw	a3,36(s0)
	.loc 2 265 6
	bne	a4,a2,.L87
	beq	a3,a4,.L56
.L87:
	.loc 2 266 5
	lw	a2,56(s0)
	bne	a2,a4,.L46
	lw	a4,60(s0)
	bne	a4,a3,.L46
.L56:
	.loc 2 270 3 is_stmt 1
	.loc 2 270 22 is_stmt 0
	lw	a4,40(s0)
	.loc 2 270 6
	li	a2,-1
	.loc 2 270 22
	lw	a3,44(s0)
	lw	a1,64(s0)
	lw	a0,68(s0)
	.loc 2 270 6
	bne	a4,a2,.L88
	beq	a3,a4,.L58
.L88:
	.loc 2 271 5
	bne	a4,a1,.L46
	bne	a3,a0,.L46
.L58:
	.loc 2 275 3 is_stmt 1
	.loc 2 275 26 is_stmt 0
	lw	a2,80(s0)
	lw	a3,56(s0)
	lw	a4,84(s0)
	lw	a6,60(s0)
	add	a3,a2,a3
	sltu	a2,a3,a2
	add	a4,a4,a6
	add	a2,a2,a4
	.loc 2 275 44
	lw	a4,48(s0)
	.loc 2 281 6
	lbu	a6,28(s0)
	.loc 2 275 26
	add	a4,a3,a4
	sltu	a3,a4,a3
	add	a3,a3,a2
	sw	a4,80(s0)
	sw	a3,84(s0)
	.loc 2 281 3 is_stmt 1
	.loc 2 281 6 is_stmt 0
	li	a2,1
	bne	a6,a2,.L60
	.loc 2 282 4 is_stmt 1
	.loc 2 282 27 is_stmt 0
	addi	a2,a4,4
	sltu	a4,a2,a4
	add	a4,a4,a3
	sw	a2,80(s0)
	sw	a4,84(s0)
.L60:
	.loc 2 287 3 is_stmt 1
	.loc 2 287 30 is_stmt 0
	lw	a4,88(s0)
	lw	a3,92(s0)
	.loc 2 288 25
	lw	a2,96(s0)
	.loc 2 287 30
	add	a1,a4,a1
	add	a0,a3,a0
	sltu	a4,a1,a4
	add	a4,a4,a0
	sw	a1,88(s0)
	sw	a4,92(s0)
	.loc 2 288 3 is_stmt 1
	.loc 2 288 25 is_stmt 0
	li	a1,24
	mv	a0,s10
	call	xz_crc32
.LVL65:
	.loc 2 292 3
	lw	a4,72(s0)
	lw	a2,76(s0)
	.loc 2 288 23
	sw	a0,96(s0)
	.loc 2 292 3 is_stmt 1
	addi	a3,a4,1
	sltu	a4,a3,a4
	add	a4,a4,a2
	sw	a4,76(s0)
.LVL66:
.LBE22:
.LBE42:
	.loc 2 653 4
	.loc 2 656 4
	.loc 2 656 16 is_stmt 0
	li	a4,4
.LBB43:
.LBB23:
	.loc 2 292 3
	sw	a3,72(s0)
.LBE23:
.LBE43:
	.loc 2 656 16
	sb	a4,0(s0)
.LVL67:
.L61:
	.loc 2 669 31
	lw	a4,56(s0)
	andi	a4,a4,3
	.loc 2 669 10
	bne	a4,zero,.L63
	.loc 2 679 4 is_stmt 1
	.loc 2 679 16 is_stmt 0
	li	a4,5
	sb	a4,0(s0)
.L32:
	.loc 2 682 9 is_stmt 1
	.loc 2 685 4
	.loc 2 685 7 is_stmt 0
	lbu	a3,28(s0)
	li	a4,1
	bne	a3,a4,.L64
.L66:
.LBB44:
.LBB45:
	.loc 2 370 2 is_stmt 1
	.loc 2 371 3
	.loc 2 371 8 is_stmt 0
	lw	a2,4(s9)
	.loc 2 371 6
	lw	a4,8(s9)
	beq	a2,a4,.L108
	.loc 2 374 3 is_stmt 1
	.loc 2 374 16 is_stmt 0
	lw	a3,4(s0)
	lw	a4,24(s0)
	.loc 2 374 53
	addi	a1,a2,1
	sw	a1,4(s9)
	.loc 2 374 16
	srl	a4,a4,a3
	.loc 2 374 39
	lw	a3,0(s9)
	.loc 2 374 27
	andi	a4,a4,255
	.loc 2 374 43
	add	a3,a3,a2
	lbu	a3,0(a3)
	.loc 2 374 6
	bne	a4,a3,.L46
	.loc 2 377 3 is_stmt 1
	.loc 2 377 10 is_stmt 0
	lw	a4,4(s0)
	.loc 2 379 2
	li	a5,31
	.loc 2 377 10
	addi	a4,a4,8
	sw	a4,4(s0)
	.loc 2 379 2
	bleu	a4,a5,.L66
	.loc 2 381 2 is_stmt 1
	.loc 2 381 9 is_stmt 0
	sw	zero,24(s0)
	.loc 2 382 2 is_stmt 1
	.loc 2 382 9 is_stmt 0
	sw	zero,4(s0)
	.loc 2 384 2 is_stmt 1
.LVL68:
.LBE45:
.LBE44:
	.loc 2 687 5
.L64:
	.loc 2 701 4
	.loc 2 701 16 is_stmt 0
	li	a4,1
	j	.L106
.LVL69:
.L47:
.LBB46:
.LBB28:
	.loc 2 506 3 is_stmt 1
	.loc 2 506 30 is_stmt 0
	sw	s6,32(s0)
	sw	s7,36(s0)
	j	.L48
.L49:
	.loc 2 517 3 is_stmt 1
	.loc 2 517 32 is_stmt 0
	sw	s6,40(s0)
	sw	s7,44(s0)
	j	.L50
.LVL70:
.L52:
	.loc 2 562 3 is_stmt 1
	.loc 2 562 30 is_stmt 0
	addi	a2,a4,1
	sw	a2,152(s0)
	.loc 2 562 18
	add	a4,s0,a4
	.loc 2 562 6
	lbu	a4,160(a4)
	beq	a4,zero,.L51
	j	.L42
.LVL71:
.L63:
.LBE28:
.LBE46:
	.loc 2 670 5 is_stmt 1
	.loc 2 670 10 is_stmt 0
	lw	a3,4(s9)
	.loc 2 670 8
	lw	a4,8(s9)
	beq	a3,a4,.L108
	.loc 2 673 5 is_stmt 1
	.loc 2 673 10 is_stmt 0
	lw	a4,0(s9)
	.loc 2 673 24
	addi	a2,a3,1
	sw	a2,4(s9)
	.loc 2 673 14
	add	a4,a4,a3
	.loc 2 673 8
	lbu	a4,0(a4)
	bne	a4,zero,.L46
	.loc 2 676 5 is_stmt 1
	lw	a4,56(s0)
	lw	a2,60(s0)
	addi	a3,a4,1
	sltu	a4,a3,a4
	add	a4,a4,a2
	sw	a3,56(s0)
	sw	a4,60(s0)
	j	.L61
.LVL72:
.L67:
.LBB47:
.LBB36:
	.loc 2 325 3
	.loc 2 325 19 is_stmt 0
	lbu	a4,104(s0)
	.loc 2 325 3
	beq	a4,s1,.L68
	beq	a4,zero,.L69
	beq	a4,s3,.L70
.LVL73:
.L71:
	.loc 2 357 2
	lw	a4,120(s0)
	lw	a3,124(s0)
	or	a4,a4,a3
	bne	a4,zero,.L31
.LVL74:
.LBE36:
.LBE47:
	.loc 2 706 4 is_stmt 1
	.loc 2 709 4
	.loc 2 709 16 is_stmt 0
	li	a4,7
	sb	a4,0(s0)
	j	.L74
.LVL75:
.L69:
.LBB48:
.LBB37:
	.loc 2 327 4 is_stmt 1
	.loc 2 327 22 is_stmt 0
	lw	a3,8(s0)
	lw	a4,12(s0)
	.loc 2 334 7
	lw	a2,72(s0)
	.loc 2 327 19
	sw	a3,120(s0)
	sw	a4,124(s0)
	.loc 2 334 4 is_stmt 1
	.loc 2 334 7 is_stmt 0
	bne	a2,a3,.L46
	lw	a3,76(s0)
	bne	a3,a4,.L46
.LVL76:
.L107:
	.loc 2 352 4 is_stmt 1
	.loc 2 352 22 is_stmt 0
	sb	s1,104(s0)
	.loc 2 353 4 is_stmt 1
	j	.L71
.LVL77:
.L68:
	.loc 2 341 4
	.loc 2 341 27 is_stmt 0
	lw	a4,128(s0)
	lw	a3,8(s0)
	lw	a2,132(s0)
	lw	a1,12(s0)
	add	a3,a4,a3
	sltu	a4,a3,a4
	add	a2,a2,a1
	add	a4,a4,a2
	sw	a3,128(s0)
	sw	a4,132(s0)
	.loc 2 342 4 is_stmt 1
	.loc 2 342 22 is_stmt 0
	sb	s3,104(s0)
	.loc 2 343 4 is_stmt 1
	j	.L71
.L70:
	.loc 2 346 4
	.loc 2 346 31 is_stmt 0
	lw	a4,136(s0)
	lw	a3,8(s0)
	lw	a2,140(s0)
	lw	a1,12(s0)
	add	a3,a4,a3
	sltu	a4,a3,a4
	add	a2,a2,a1
	add	a4,a4,a2
	.loc 2 347 26
	lw	a2,144(s0)
	.loc 2 346 31
	sw	a3,136(s0)
	sw	a4,140(s0)
	.loc 2 347 4 is_stmt 1
	.loc 2 347 26 is_stmt 0
	li	a1,24
	mv	a0,s6
.LVL78:
	call	xz_crc32
.LVL79:
	.loc 2 351 4
	lw	a4,120(s0)
	lw	a3,124(s0)
	.loc 2 347 24
	sw	a0,144(s0)
	.loc 2 351 4 is_stmt 1
	sub	a2,a4,s1
	sltu	a4,a2,a4
	sub	a3,a3,s1
	add	a4,a4,a3
	sw	a2,120(s0)
	sw	a4,124(s0)
	j	.L107
.L75:
.LBE37:
.LBE48:
	.loc 2 717 5
	.loc 2 717 8 is_stmt 0
	lw	a4,8(s9)
	bne	a4,a3,.L73
	.loc 2 718 6 is_stmt 1
	mv	a1,s9
	mv	a0,s0
	call	index_update
.LVL80:
	j	.L108
.L73:
	.loc 2 722 5
	.loc 2 722 10 is_stmt 0
	lw	a4,0(s9)
	.loc 2 722 24
	addi	a2,a3,1
	sw	a2,4(s9)
	.loc 2 722 14
	add	a3,a4,a3
	.loc 2 722 8
	lbu	a4,0(a3)
	bne	a4,zero,.L46
.L74:
	.loc 2 715 30
	lw	a3,4(s9)
	.loc 2 715 39
	lw	a4,16(s0)
	.loc 2 715 26
	lw	a2,112(s0)
	.loc 2 715 39
	sub	a4,a3,a4
	.loc 2 715 26
	add	a4,a4,a2
	.loc 2 716 6
	andi	a4,a4,3
	.loc 2 715 10
	bne	a4,zero,.L75
	.loc 2 727 4 is_stmt 1
	mv	a1,s9
	mv	a0,s0
	call	index_update
.LVL81:
	.loc 2 730 4
	.loc 2 730 10 is_stmt 0
	li	a2,24
	addi	a1,s0,128
	addi	a0,s0,80
	call	memcmp
.LVL82:
	.loc 2 730 7
	bne	a0,zero,.L46
	.loc 2 734 4 is_stmt 1
	.loc 2 734 16 is_stmt 0
	li	a4,8
	sb	a4,0(s0)
.L29:
.LBB49:
.LBB50:
	.loc 2 379 2
	li	a1,31
.L76:
	.loc 2 370 2 is_stmt 1
	.loc 2 371 3
	.loc 2 371 8 is_stmt 0
	lw	a2,4(s9)
	.loc 2 371 6
	lw	a4,8(s9)
	beq	a2,a4,.L108
	.loc 2 374 3 is_stmt 1
	.loc 2 374 16 is_stmt 0
	lw	a3,4(s0)
	lw	a4,24(s0)
	.loc 2 374 53
	addi	a0,a2,1
	sw	a0,4(s9)
	.loc 2 374 16
	srl	a4,a4,a3
	.loc 2 374 39
	lw	a3,0(s9)
	.loc 2 374 27
	andi	a4,a4,255
	.loc 2 374 43
	add	a3,a3,a2
	lbu	a3,0(a3)
	.loc 2 374 6
	bne	a4,a3,.L46
	.loc 2 377 3 is_stmt 1
	.loc 2 377 10 is_stmt 0
	lw	a4,4(s0)
	addi	a4,a4,8
	sw	a4,4(s0)
	.loc 2 379 2
	bleu	a4,a1,.L76
	.loc 2 381 2 is_stmt 1
.LBE50:
.LBE49:
	.loc 2 744 17 is_stmt 0
	li	a4,12
	sw	a4,156(s0)
	.loc 2 745 16
	li	a4,9
.LBB52:
.LBB51:
	.loc 2 381 9
	sw	zero,24(s0)
	.loc 2 382 2 is_stmt 1
	.loc 2 382 9 is_stmt 0
	sw	zero,4(s0)
	.loc 2 384 2 is_stmt 1
.LVL83:
.LBE51:
.LBE52:
	.loc 2 741 4
	.loc 2 744 4
	.loc 2 745 4
	.loc 2 745 16 is_stmt 0
	sb	a4,0(s0)
.LVL84:
.L27:
	.loc 2 748 9 is_stmt 1
	.loc 2 751 4
	.loc 2 751 9 is_stmt 0
	mv	a1,s9
	mv	a0,s0
	call	fill_temp
.LVL85:
	.loc 2 751 7
	beq	a0,zero,.L108
	.loc 2 754 4 is_stmt 1
.LVL86:
.LBB53:
.LBB54:
	.loc 2 447 2
	.loc 2 447 8 is_stmt 0
	lui	a1,%hi(.LC1)
	li	a2,2
	addi	a1,a1,%lo(.LC1)
	addi	a0,s0,170
	call	memcmp
.LVL87:
	.loc 2 447 5
	bne	a0,zero,.L46
	.loc 2 450 2 is_stmt 1
	.loc 2 450 6 is_stmt 0
	addi	s1,s0,164
	li	a2,0
	li	a1,6
	mv	a0,s1
	call	xz_crc32
.LVL88:
	mv	s3,a0
	.loc 2 450 41
	addi	a0,s0,160
	call	get_unaligned_le32
.LVL89:
	.loc 2 450 5
	bne	s3,a0,.L46
	.loc 2 458 2 is_stmt 1
	.loc 2 458 30 is_stmt 0
	mv	a0,s1
	call	get_unaligned_le32
.LVL90:
	.loc 2 458 21
	lw	a3,116(s0)
	lw	a4,112(s0)
	slli	a2,a3,30
	srli	a4,a4,2
	or	a4,a2,a4
	srli	a3,a3,2
	.loc 2 458 5
	bne	a4,a0,.L46
	bne	a3,zero,.L46
	.loc 2 461 2 is_stmt 1
	.loc 2 461 5 is_stmt 0
	lbu	a4,168(s0)
	bne	a4,zero,.L46
	.loc 2 461 26
	lbu	a3,169(s0)
	lbu	a4,28(s0)
	.loc 2 468 9
	li	s8,1
	.loc 2 461 26
	beq	a3,a4,.L39
	j	.L46
.LVL91:
.L83:
.LBE54:
.LBE53:
.LBB55:
.LBB33:
	.loc 2 412 10
	li	s8,5
	j	.L39
.LVL92:
.L78:
.LBE33:
.LBE55:
.LBE57:
.LBE59:
	.loc 2 806 3 is_stmt 1
	.loc 2 806 6 is_stmt 0
	li	a4,1
	bne	s8,a4,.L79
.LVL93:
.L89:
	.loc 2 822 1
	lw	ra,76(sp)
	.cfi_remember_state
	.cfi_restore 1
	lw	s0,72(sp)
	.cfi_restore 8
.LVL94:
	mv	a0,s8
	lw	s1,68(sp)
	.cfi_restore 9
	lw	s2,64(sp)
	.cfi_restore 18
.LVL95:
	lw	s3,60(sp)
	.cfi_restore 19
	lw	s4,56(sp)
	.cfi_restore 20
.LVL96:
	lw	s5,52(sp)
	.cfi_restore 21
	lw	s6,48(sp)
	.cfi_restore 22
	lw	s7,44(sp)
	.cfi_restore 23
	lw	s8,40(sp)
	.cfi_restore 24
	lw	s9,36(sp)
	.cfi_restore 25
.LVL97:
	lw	s10,32(sp)
	.cfi_restore 26
.LVL98:
	lw	s11,28(sp)
	.cfi_restore 27
	addi	sp,sp,80
	.cfi_def_cfa_offset 0
	jr	ra
.LVL99:
.L77:
	.cfi_restore_state
	.loc 2 811 9 is_stmt 1
	.loc 2 811 12 is_stmt 0
	bne	s8,zero,.L81
	.loc 2 811 26 discriminator 1
	lw	a4,4(s9)
	bne	a4,s2,.L81
	.loc 2 812 4
	lw	a5,16(s9)
	bne	a5,s4,.L81
	.loc 2 813 3 is_stmt 1
	.loc 2 813 6 is_stmt 0
	lbu	a5,30(s0)
	beq	a5,zero,.L82
	.loc 2 814 8
	li	s8,8
.LVL100:
.L82:
	.loc 2 816 3 is_stmt 1
	.loc 2 816 22 is_stmt 0
	li	a5,1
	sb	a5,30(s0)
	j	.L89
.L81:
	.loc 2 818 3 is_stmt 1
	.loc 2 818 22 is_stmt 0
	sb	zero,30(s0)
	.loc 2 821 2 is_stmt 1
	.loc 2 821 9 is_stmt 0
	j	.L89
	.cfi_endproc
.LFE15:
	.size	xz_dec_run, .-xz_dec_run
	.section	.text.xz_dec_init,"ax",@progbits
	.align	1
	.globl	xz_dec_init
	.type	xz_dec_init, @function
xz_dec_init:
.LFB16:
	.loc 2 825 1 is_stmt 1
	.cfi_startproc
.LVL101:
	.loc 2 826 2
	.loc 2 825 1 is_stmt 0
	addi	sp,sp,-32
	.cfi_def_cfa_offset 32
	sw	s1,20(sp)
	.cfi_offset 9, -12
	mv	s1,a0
	.loc 2 826 21
	li	a0,1192
.LVL102:
	.loc 2 825 1
	sw	s0,24(sp)
	sw	ra,28(sp)
	.cfi_offset 8, -8
	.cfi_offset 1, -4
	.loc 2 825 1
	sw	a1,12(sp)
	.loc 2 826 21
	call	simple_malloc
.LVL103:
	mv	s0,a0
.LVL104:
	.loc 2 827 2 is_stmt 1
	.loc 2 827 5 is_stmt 0
	beq	a0,zero,.L109
	.loc 2 830 2 is_stmt 1
	.loc 2 838 13 is_stmt 0
	lw	a1,12(sp)
	.loc 2 830 10
	sb	s1,29(a0)
	.loc 2 838 2 is_stmt 1
	.loc 2 838 13 is_stmt 0
	mv	a0,s1
	call	xz_dec_lzma2_create
.LVL105:
	.loc 2 838 11
	sw	a0,1184(s0)
	.loc 2 839 2 is_stmt 1
	.loc 2 839 5 is_stmt 0
	bne	a0,zero,.L111
	.loc 2 840 3 is_stmt 1
.LDL1:
	.loc 2 850 2
	mv	a0,s0
	call	simple_free
.LVL106:
	.loc 2 851 2
	.loc 2 851 8 is_stmt 0
	li	s0,0
.LVL107:
.L109:
	.loc 2 852 1
	mv	a0,s0
	lw	ra,28(sp)
	.cfi_remember_state
	.cfi_restore 1
	lw	s0,24(sp)
	.cfi_restore 8
	lw	s1,20(sp)
	.cfi_restore 9
	addi	sp,sp,32
	.cfi_def_cfa_offset 0
.LVL108:
	jr	ra
.LVL109:
.L111:
	.cfi_restore_state
	.loc 2 842 2 is_stmt 1
	mv	a0,s0
	call	xz_dec_reset
.LVL110:
	.loc 2 843 2
	.loc 2 843 9 is_stmt 0
	j	.L109
	.cfi_endproc
.LFE16:
	.size	xz_dec_init, .-xz_dec_init
	.section	.text.xz_dec_end,"ax",@progbits
	.align	1
	.globl	xz_dec_end
	.type	xz_dec_end, @function
xz_dec_end:
.LFB18:
	.loc 2 867 1 is_stmt 1
	.cfi_startproc
.LVL111:
	.loc 2 868 2
	.loc 2 868 5 is_stmt 0
	beq	a0,zero,.L116
	.loc 2 867 1
	addi	sp,sp,-16
	.cfi_def_cfa_offset 16
	sw	s0,8(sp)
	sw	ra,12(sp)
	.cfi_offset 8, -8
	.cfi_offset 1, -4
	mv	s0,a0
	.loc 2 869 3 is_stmt 1
	lw	a0,1184(a0)
.LVL112:
	call	xz_dec_lzma2_end
.LVL113:
	.loc 2 873 3
	mv	a0,s0
	.loc 2 875 1 is_stmt 0
	lw	s0,8(sp)
	.cfi_restore 8
.LVL114:
	lw	ra,12(sp)
	.cfi_restore 1
	addi	sp,sp,16
	.cfi_def_cfa_offset 0
	.loc 2 873 3
	tail	simple_free
.LVL115:
.L116:
	ret
	.cfi_endproc
.LFE18:
	.size	xz_dec_end, .-xz_dec_end
	.section	.rodata.xz_dec_run.str1.4,"aMS",@progbits,1
	.align	2
.LC0:
	.string	"\3757zXZ"
	.zero	2
.LC1:
	.string	"YZ"
	.text
.Letext0:
	.file 3 "/home/hogc/build-tools/sdk/bl/bl_iot_sdk/toolchain/riscv/Linux/lib/gcc/riscv64-unknown-elf/8.3.0/include/stddef.h"
	.file 4 "/home/hogc/build-tools/sdk/bl/bl_iot_sdk/toolchain/riscv/Linux/riscv64-unknown-elf/include/sys/_types.h"
	.file 5 "/home/hogc/build-tools/sdk/bl/bl_iot_sdk/toolchain/riscv/Linux/riscv64-unknown-elf/include/sys/reent.h"
	.file 6 "/home/hogc/build-tools/sdk/bl/bl_iot_sdk/toolchain/riscv/Linux/riscv64-unknown-elf/include/sys/lock.h"
	.file 7 "/home/hogc/build-tools/sdk/bl/bl_iot_sdk/toolchain/riscv/Linux/riscv64-unknown-elf/include/stdlib.h"
	.file 8 "/home/hogc/build-tools/sdk/bl/bl_iot_sdk/toolchain/riscv/Linux/lib/gcc/riscv64-unknown-elf/8.3.0/include/stdint-gcc.h"
	.file 9 "/home/hogc/build-tools/sdk/bl/bl_iot_sdk/components/bl602/bl602_std/bl602_std/Common/xz/xz.h"
	.file 10 "/home/hogc/build-tools/sdk/bl/bl_iot_sdk/components/bl602/bl602_std/bl602_std/Common/xz/xz_stream.h"
	.file 11 "/home/hogc/build-tools/sdk/bl/bl_iot_sdk/components/bl602/bl602_std/bl602_std/Common/xz/xz_private.h"
	.file 12 "/home/hogc/build-tools/sdk/bl/bl_iot_sdk/toolchain/riscv/Linux/riscv64-unknown-elf/include/string.h"