	.file	"loopset_pwm.c"
	.option nopic
	.attribute arch, "rv32i2p0_m2p0_f2p0_c2p0"
	.attribute unaligned_access, 0
	.attribute stack_align, 16
	.text
.Ltext0:
	.cfi_sections	.debug_frame
	.section	.text._cb_pwm_trigger,"ax",@progbits
	.align	1
	.type	_cb_pwm_trigger, @function
_cb_pwm_trigger:
.LFB26:
	.file 1 "/home/hogc/build-tools/sdk/bl/bl_iot_sdk/components/sys/bloop/loopset/src/loopset_pwm.c"
	.loc 1 86 1
	.cfi_startproc
.LVL0:
	.loc 1 87 5
	.loc 1 89 5
	.loc 1 89 16 is_stmt 0
	lw	t1,36(a2)
	.loc 1 89 8
	beq	t1,zero,.L1
	.loc 1 90 9 is_stmt 1
	lw	a0,40(a2)
.LVL1:
	jr	t1
.LVL2:
.L1:
	.loc 1 92 1 is_stmt 0
	ret
	.cfi_endproc
.LFE26:
	.size	_cb_pwm_trigger, .-_cb_pwm_trigger
	.section	.text._pwm_bloop_evt,"ax",@progbits
	.align	1
	.type	_pwm_bloop_evt, @function
_pwm_bloop_evt:
.LFB23:
	.loc 1 55 1 is_stmt 1
	.cfi_startproc
.LVL3:
	.loc 1 56 5
	.loc 1 58 17 is_stmt 0
	lui	a4,%hi(trigger)
	lw	a0,%lo(trigger)(a4)
.LVL4:
	.loc 1 56 14
	lw	a5,0(a3)
.LVL5:
	.loc 1 58 5 is_stmt 1
	.loc 1 58 8 is_stmt 0
	beq	a0,zero,.L10
	.loc 1 55 1
	addi	sp,sp,-16
	.cfi_def_cfa_offset 16
	sw	s0,8(sp)
	sw	ra,12(sp)
	.cfi_offset 8, -8
	.cfi_offset 1, -4
	.loc 1 61 13
	andi	a5,a5,2
.LVL6:
	mv	s0,a3
	.loc 1 61 5 is_stmt 1
	.loc 1 61 8 is_stmt 0
	beq	a5,zero,.L5
	.loc 1 62 9 is_stmt 1
	call	looprt_timer_register
.LVL7:
.L5:
	.loc 1 65 5
	.loc 1 65 19 is_stmt 0
	sw	zero,0(s0)
	.loc 1 66 5 is_stmt 1
	.loc 1 67 1 is_stmt 0
	lw	ra,12(sp)
	.cfi_restore 1
	lw	s0,8(sp)
	.cfi_restore 8
.LVL8:
	.loc 1 66 12
	li	a4,0
	.loc 1 67 1
	mv	a0,a4
	addi	sp,sp,16
	.cfi_def_cfa_offset 0
	jr	ra
.LVL9:
.L10:
	li	a4,-1
	mv	a0,a4
	ret
	.cfi_endproc
.LFE23:
	.size	_pwm_bloop_evt, .-_pwm_bloop_evt
	.section	.text.loopset_pwm_hook_on_looprt,"ax",@progbits
	.align	1
	.globl	loopset_pwm_hook_on_looprt
	.type	loopset_pwm_hook_on_looprt, @function
loopset_pwm_hook_on_looprt:
.LFB24:
	.loc 1 70 1 is_stmt 1
	.cfi_startproc
	.loc 1 71 5
	.loc 1 77 5
	.loc 1 77 12 is_stmt 0
	lui	a0,%hi(.LANCHOR0)
	li	a1,4
	addi	a0,a0,%lo(.LANCHOR0)
	tail	looprt_handler_register
.LVL10:
	.cfi_endproc
.LFE24:
	.size	loopset_pwm_hook_on_looprt, .-loopset_pwm_hook_on_looprt
	.section	.text.loopset_pwm_hook_off_looprt,"ax",@progbits
	.align	1
	.globl	loopset_pwm_hook_off_looprt
	.type	loopset_pwm_hook_off_looprt, @function
loopset_pwm_hook_off_looprt:
.LFB25:
	.loc 1 81 1 is_stmt 1
	.cfi_startproc
	.loc 1 82 5
	.loc 1 83 1 is_stmt 0
	li	a0,0
	ret
	.cfi_endproc
.LFE25:
	.size	loopset_pwm_hook_off_looprt, .-loopset_pwm_hook_off_looprt
	.section	.text.loopset_pwm_trigger_stop,"ax",@progbits
	.align	1
	.globl	loopset_pwm_trigger_stop
	.type	loopset_pwm_trigger_stop, @function
loopset_pwm_trigger_stop:
.LFB27:
	.loc 1 95 1 is_stmt 1
	.cfi_startproc
	.loc 1 96 5
	.loc 1 96 26 is_stmt 0
	lui	a5,%hi(trigger)
	lw	a4,%lo(trigger)(a5)
	lbu	a5,8(a4)
	andi	a5,a5,-2
	sb	a5,8(a4)
	.loc 1 97 1
	ret
	.cfi_endproc
.LFE27:
	.size	loopset_pwm_trigger_stop, .-loopset_pwm_trigger_stop
	.section	.text.loopset_pwm_trigger_start,"ax",@progbits
	.align	1
	.globl	loopset_pwm_trigger_start
	.type	loopset_pwm_trigger_start, @function
loopset_pwm_trigger_start:
.LFB28:
	.loc 1 100 1 is_stmt 1
	.cfi_startproc
	.loc 1 101 5
	.loc 1 101 16 is_stmt 0
	lui	a5,%hi(trigger)
	lw	a0,%lo(trigger)(a5)
	.loc 1 101 8
	lbu	a5,8(a0)
	andi	a5,a5,1
	bne	a5,zero,.L18
	.loc 1 104 5 is_stmt 1
	.loc 1 100 1 is_stmt 0
	addi	sp,sp,-16
	.cfi_def_cfa_offset 16
	sw	ra,12(sp)
	.cfi_offset 1, -4
	.loc 1 104 5
	call	bloop_timer_repeat_enable
.LVL11:
	.loc 1 105 5 is_stmt 1
	.loc 1 106 1 is_stmt 0
	lw	ra,12(sp)
	.cfi_restore 1
	.loc 1 105 5
	li	a1,2
	.loc 1 106 1
	.loc 1 105 5
	li	a0,4
	.loc 1 106 1
	addi	sp,sp,16
	.cfi_def_cfa_offset 0
	.loc 1 105 5
	tail	looprt_evt_notify_async
.LVL12:
.L18:
	ret
	.cfi_endproc
.LFE28:
	.size	loopset_pwm_trigger_start, .-loopset_pwm_trigger_start
	.section	.text.loopset_pwm_trigger_on,"ax",@progbits
	.align	1
	.globl	loopset_pwm_trigger_on
	.type	loopset_pwm_trigger_on, @function
loopset_pwm_trigger_on:
.LFB29:
	.loc 1 109 1 is_stmt 1
	.cfi_startproc
.LVL13:
	.loc 1 110 5
	.loc 1 109 1 is_stmt 0
	addi	sp,sp,-32
	.cfi_def_cfa_offset 32
	sw	s0,24(sp)
	.cfi_offset 8, -8
	.loc 1 110 9
	lui	s0,%hi(trigger)
	.loc 1 110 8
	lw	a5,%lo(trigger)(s0)
	.loc 1 109 1
	sw	ra,28(sp)
	sw	s1,20(sp)
	sw	s2,16(sp)
	sw	s3,12(sp)
	.cfi_offset 1, -4
	.cfi_offset 9, -12
	.cfi_offset 18, -16
	.cfi_offset 19, -20
	.loc 1 110 8
	bne	a5,zero,.L23
	mv	s1,a0
	.loc 1 113 5 is_stmt 1
	.loc 1 113 15 is_stmt 0
	li	a0,44
.LVL14:
	mv	s2,a2
	mv	s3,a1
	call	pvPortMalloc
.LVL15:
	.loc 1 113 13
	sw	a0,%lo(trigger)(s0)
	.loc 1 114 5 is_stmt 1
	.loc 1 114 10
	.loc 1 114 13 is_stmt 0
	bne	a0,zero,.L25
	.loc 1 114 28 is_stmt 1
	.loc 1 114 33
	.loc 1 114 35
.LBB4:
.LBB5:
	.file 2 "/home/hogc/build-tools/sdk/bl/bl_iot_sdk/components/bl602/freertos_riscv_ram/portable/GCC/RISC-V/portmacro.h"
	.loc 2 151 5
	.loc 2 151 31 is_stmt 0
	lui	a5,%hi(TrapNetCounter)
.LBE5:
.LBE4:
	.loc 1 114 35
	lw	a5,%lo(TrapNetCounter)(a5)
	beq	a5,zero,.L26
	.loc 1 114 116 discriminator 2
	call	xTaskGetTickCountFromISR
.LVL16:
.L27:
	.loc 1 114 35 discriminator 5
	lui	a3,%hi(.LC0)
	lui	a2,%hi(.LC1)
	mv	a1,a0
	lui	a0,%hi(.LC2)
	addi	a5,a3,%lo(.LC0)
	li	a6,114
	li	a4,114
	addi	a3,a3,%lo(.LC0)
	addi	a2,a2,%lo(.LC1)
	addi	a0,a0,%lo(.LC2)
	call	bl_printk
.LVL17:
.L28:
	.loc 1 114 237 is_stmt 1 discriminator 1
	.loc 1 114 254 discriminator 1
	.loc 1 114 266 discriminator 1
	j	.L28
.L26:
	.loc 1 114 145 is_stmt 0 discriminator 3
	call	xTaskGetTickCount
.LVL18:
	j	.L27
.L25:
	.loc 1 115 5 is_stmt 1
	li	a2,44
	li	a1,0
	call	memset
.LVL19:
	.loc 1 117 5
	.loc 1 117 12 is_stmt 0
	lw	a0,%lo(trigger)(s0)
	.loc 1 120 5
	li	a1,0
	.loc 1 117 17
	sw	s3,36(a0)
	.loc 1 118 5 is_stmt 1
	.loc 1 118 20 is_stmt 0
	sw	s2,40(a0)
	.loc 1 120 5 is_stmt 1
	call	bloop_timer_init
.LVL20:
	.loc 1 121 5
	.loc 1 121 35 is_stmt 0
	lw	a3,%lo(trigger)(s0)
	.loc 1 121 5
	lui	a2,%hi(_cb_pwm_trigger)
	mv	a1,s1
	mv	a0,a3
	li	a5,1
	li	a4,4
	addi	a2,a2,%lo(_cb_pwm_trigger)
	call	bloop_timer_configure
.LVL21:
	.loc 1 128 5 is_stmt 1
	.loc 1 129 1 is_stmt 0
	lw	s0,24(sp)
	.cfi_remember_state
	.cfi_restore 8
	lw	ra,28(sp)
	.cfi_restore 1
	lw	s1,20(sp)
	.cfi_restore 9
.LVL22:
	lw	s2,16(sp)
	.cfi_restore 18
.LVL23:
	lw	s3,12(sp)
	.cfi_restore 19
.LVL24:
	.loc 1 128 5
	li	a1,2
	.loc 1 129 1
	.loc 1 128 5
	li	a0,4
	.loc 1 129 1
	addi	sp,sp,32
	.cfi_def_cfa_offset 0
	.loc 1 128 5
	tail	looprt_evt_notify_async
.LVL25:
.L23:
	.cfi_restore_state
	.loc 1 129 1
	lw	ra,28(sp)
	.cfi_restore 1
	lw	s0,24(sp)
	.cfi_restore 8
	lw	s1,20(sp)
	.cfi_restore 9
	lw	s2,16(sp)
	.cfi_restore 18
	lw	s3,12(sp)
	.cfi_restore 19
	addi	sp,sp,32
	.cfi_def_cfa_offset 0
	jr	ra
	.cfi_endproc
.LFE29:
	.size	loopset_pwm_trigger_on, .-loopset_pwm_trigger_on
	.section	.text.loopset_pwm_trigger_off,"ax",@progbits
	.align	1
	.globl	loopset_pwm_trigger_off
	.type	loopset_pwm_trigger_off, @function
loopset_pwm_trigger_off:
.LFB30:
	.loc 1 132 1 is_stmt 1
	.cfi_startproc
	.loc 1 134 1
	ret
	.cfi_endproc
.LFE30:
	.size	loopset_pwm_trigger_off, .-loopset_pwm_trigger_off
	.comm	trigger,4,4
	.section	.rodata._pwm_bloop_handler_holder.3327,"a"
	.align	2
	.set	.LANCHOR0,. + 0
	.type	_pwm_bloop_handler_holder.3327, @object
	.size	_pwm_bloop_handler_holder.3327, 12
_pwm_bloop_handler_holder.3327:
	.word	.LC3
	.word	_pwm_bloop_evt
	.word	0
	.section	.rodata.loopset_pwm_trigger_on.str1.4,"aMS",@progbits,1
	.align	2
.LC0:
	.string	"loopset_pwm.c"
	.zero	2
.LC1:
	.string	"\033[35mASSERT\033[0m"
.LC2:
	.string	"[%10u][%s: %s:%4d] ASSERT: %s:%d\r\n"
	.section	.rodata.str1.4,"aMS",@progbits,1
	.align	2
.LC3:
	.string	"PWM Trigger"
	.text
.Letext0:
	.file 3 "/home/hogc/build-tools/sdk/bl/bl_iot_sdk/toolchain/riscv/Linux/lib/gcc/riscv64-unknown-elf/8.3.0/include/stdint-gcc.h"
	.file 4 "/home/hogc/build-tools/sdk/bl/bl_iot_sdk/components/bl602/freertos_riscv_ram/config/task.h"
	.file 5 "/home/hogc/build-tools/sdk/bl/bl_iot_sdk/toolchain/riscv/Linux/lib/gcc/riscv64-unknown-elf/8.3.0/include/stddef.h"
	.file 6 "/home/hogc/build-tools/sdk/bl/bl_iot_sdk/toolchain/riscv/Linux/riscv64-unknown-elf/include/sys/_types.h"
	.file 7 "/home/hogc/build-tools/sdk/bl/bl_iot_sdk/toolchain/riscv/Linux/riscv64-unknown-elf/include/sys/reent.h"
	.file 8 "/home/hogc/build-tools/sdk/bl/bl_iot_sdk/toolchain/riscv/Linux/riscv64-unknown-elf/include/sys/lock.h"
	.file 9 "/home/hogc/build-tools/sdk/bl/bl_iot_sdk/toolchain/riscv/Linux/riscv64-unknown-elf/include/stdlib.h"
	.file 10 "/home/hogc/build-tools/sdk/bl/bl_iot_sdk/components/utils/include/utils_list.h"
	.file 11 "/home/hogc/build-tools/sdk/bl/bl_iot_sdk/components/sys/bloop/bloop/include/bloop.h"
	.file 12 "/home/hogc/build-tools/sdk/bl/bl_iot_sdk/components/sys/bloop/loopset/include/loopset_pwm.h"
	.file 13 "/home/hogc/build-tools/sdk/bl/bl_iot_sdk/components/bl602/freertos_riscv_ram/config/portable.h"
	.file 14 "/home/hogc/build-tools/sdk/bl/bl_iot_sdk/components/utils/include/utils_log.h"
	.file 15 "/home/hogc/build-tools/sdk/bl/bl_iot_sdk/toolchain/riscv/Linux/riscv64-unknown-elf/include/string.h"
	.file 16 "/home/hogc/build-tools/sdk/bl/bl_iot_sdk/components/sys/bloop/looprt/include/looprt.h"