	.file	"bl602_dma.c"
	.option nopic
	.attribute arch, "rv32i2p0_m2p0_f2p0_c2p0"
	.attribute unaligned_access, 0
	.attribute stack_align, 16
	.text
.Ltext0:
	.cfi_sections	.debug_frame
	.section	.text.DMA_Enable,"ax",@progbits
	.align	1
	.globl	DMA_Enable
	.type	DMA_Enable, @function
DMA_Enable:
.LFB8:
	.file 1 "/b-l/bl_iot_sdk/components/bl602/bl602_std/bl602_std/StdDriver/Src/bl602_dma.c"
	.loc 1 160 1
	.cfi_startproc
	.loc 1 161 5
	.loc 1 163 5
.LVL0:
	.loc 1 165 5
	.loc 1 165 12 is_stmt 0
	li	a4,1073790976
	lw	a5,48(a4)
.LVL1:
	.loc 1 166 5 is_stmt 1
	.loc 1 166 12 is_stmt 0
	ori	a5,a5,1
.LVL2:
	.loc 1 167 5 is_stmt 1
	.loc 1 167 44 is_stmt 0
	sw	a5,48(a4)
	.loc 1 168 1
	ret
	.cfi_endproc
.LFE8:
	.size	DMA_Enable, .-DMA_Enable
	.section	.text.DMA_Disable,"ax",@progbits
	.align	1
	.globl	DMA_Disable
	.type	DMA_Disable, @function
DMA_Disable:
.LFB9:
	.loc 1 179 1 is_stmt 1
	.cfi_startproc
	.loc 1 180 5
	.loc 1 182 5
.LVL3:
	.loc 1 184 5
	.loc 1 184 12 is_stmt 0
	li	a4,1073790976
	lw	a5,48(a4)
.LVL4:
	.loc 1 185 5 is_stmt 1
	.loc 1 185 12 is_stmt 0
	andi	a5,a5,-2
.LVL5:
	.loc 1 186 5 is_stmt 1
	.loc 1 186 44 is_stmt 0
	sw	a5,48(a4)
	.loc 1 187 1
	ret
	.cfi_endproc
.LFE9:
	.size	DMA_Disable, .-DMA_Disable
	.section	.text.DMA_Channel_Init,"ax",@progbits
	.align	1
	.globl	DMA_Channel_Init
	.type	DMA_Channel_Init, @function
DMA_Channel_Init:
.LFB10:
	.loc 1 198 1 is_stmt 1
	.cfi_startproc
.LVL6:
	.loc 1 199 5
	.loc 1 201 5
	.loc 1 201 60 is_stmt 0
	lbu	a5,13(a0)
	.loc 1 214 50
	lw	a3,0(a0)
	.loc 1 201 14
	li	a2,1073790976
	.loc 1 201 65
	slli	a5,a5,8
.LVL7:
	.loc 1 204 5 is_stmt 1
	.loc 1 205 5
	.loc 1 206 5
	.loc 1 207 5
	.loc 1 208 5
	.loc 1 209 5
	.loc 1 210 5
	.loc 1 211 5
	.loc 1 214 5
	.loc 1 201 14 is_stmt 0
	addi	a4,a2,256
	add	a4,a5,a4
	.loc 1 214 43
	sw	a3,0(a4)
	.loc 1 215 5 is_stmt 1
	.loc 1 215 50 is_stmt 0
	lw	a3,4(a0)
	.loc 1 215 35
	addi	a4,a2,260
	add	a4,a5,a4
	.loc 1 217 44
	addi	a1,a2,268
	.loc 1 215 43
	sw	a3,0(a4)
	.loc 1 217 5 is_stmt 1
	.loc 1 217 44 is_stmt 0
	add	a1,a5,a1
	.loc 1 217 12
	lw	a4,0(a1)
.LVL8:
	.loc 1 218 5 is_stmt 1
	.loc 1 218 25 is_stmt 0
	li	a3,-4096
	.loc 1 229 44
	addi	a2,a2,272
	.loc 1 218 25
	and	a4,a4,a3
.LVL9:
	.loc 1 219 5 is_stmt 1
	.loc 1 218 12 is_stmt 0
	lw	a3,8(a0)
	.loc 1 229 44
	add	a5,a5,a2
.LVL10:
	.loc 1 218 12
	or	a4,a4,a3
.LVL11:
	.loc 1 219 25
	li	a3,-1835008
	addi	a3,a3,-1
	and	a3,a4,a3
.LVL12:
	.loc 1 220 5 is_stmt 1
	.loc 1 219 57 is_stmt 0
	lbu	a4,14(a0)
	.loc 1 219 90
	slli	a4,a4,18
	.loc 1 219 12
	or	a4,a4,a3
	.loc 1 220 25
	li	a3,-14680064
.LVL13:
	addi	a3,a3,-1
	and	a4,a4,a3
.LVL14:
	.loc 1 221 5 is_stmt 1
	.loc 1 220 57 is_stmt 0
	lbu	a3,15(a0)
	.loc 1 220 90
	slli	a3,a3,21
	.loc 1 220 12
	or	a3,a3,a4
	.loc 1 221 25
	li	a4,-28672
.LVL15:
	addi	a4,a4,-1
	and	a4,a3,a4
.LVL16:
	.loc 1 222 5 is_stmt 1
	.loc 1 221 57 is_stmt 0
	lbu	a3,16(a0)
	.loc 1 221 88
	slli	a3,a3,12
	.loc 1 221 12
	or	a3,a3,a4
	.loc 1 222 25
	li	a4,-229376
.LVL17:
	addi	a4,a4,-1
	and	a3,a3,a4
.LVL18:
	.loc 1 224 5 is_stmt 1
	.loc 1 225 5
	.loc 1 222 57 is_stmt 0
	lbu	a4,17(a0)
	.loc 1 222 88
	slli	a4,a4,15
	.loc 1 222 12
	or	a4,a4,a3
	.loc 1 225 25
	li	a3,-83886080
.LVL19:
	addi	a3,a3,-1
	and	a3,a4,a3
.LVL20:
	.loc 1 226 5 is_stmt 1
	.loc 1 225 57 is_stmt 0
	lbu	a4,18(a0)
	.loc 1 225 86
	slli	a4,a4,26
	.loc 1 225 12
	or	a4,a4,a3
	.loc 1 226 25
	li	a3,-134217728
.LVL21:
	addi	a3,a3,-1
	and	a4,a4,a3
	.loc 1 226 57
	lbu	a3,19(a0)
	.loc 1 226 87
	slli	a3,a3,27
	.loc 1 226 12
	or	a4,a3,a4
.LVL22:
	.loc 1 227 5 is_stmt 1
	.loc 1 227 43 is_stmt 0
	sw	a4,0(a1)
	.loc 1 229 5 is_stmt 1
	.loc 1 229 12 is_stmt 0
	lw	a4,0(a5)
.LVL23:
	.loc 1 230 5 is_stmt 1
	.loc 1 230 25 is_stmt 0
	li	a3,-16384
	addi	a3,a3,2047
	and	a3,a4,a3
.LVL24:
	.loc 1 231 5 is_stmt 1
	.loc 1 230 57 is_stmt 0
	lbu	a4,12(a0)
	.loc 1 230 79
	slli	a4,a4,11
	.loc 1 230 12
	or	a4,a4,a3
.LVL25:
	.loc 1 232 5 is_stmt 1
	.loc 1 231 56 is_stmt 0
	lbu	a3,21(a0)
	.loc 1 231 12
	andi	a4,a4,-2047
.LVL26:
	.loc 1 231 84
	slli	a3,a3,6
	.loc 1 232 25
	or	a4,a4,a3
	.loc 1 232 56
	lbu	a3,20(a0)
	.loc 1 232 84
	slli	a3,a3,1
	.loc 1 232 12
	or	a4,a3,a4
.LVL27:
	.loc 1 233 5 is_stmt 1
	.loc 1 233 44 is_stmt 0
	sw	a4,0(a5)
	.loc 1 234 1
	ret
	.cfi_endproc
.LFE10:
	.size	DMA_Channel_Init, .-DMA_Channel_Init
	.section	.text.DMA_Channel_Update_SrcMemcfg,"ax",@progbits
	.align	1
	.globl	DMA_Channel_Update_SrcMemcfg
	.type	DMA_Channel_Update_SrcMemcfg, @function
DMA_Channel_Update_SrcMemcfg:
.LFB11:
	.loc 1 247 1 is_stmt 1
	.cfi_startproc
.LVL28:
	.loc 1 248 5
	.loc 1 250 5
	.loc 1 250 14 is_stmt 0
	li	a5,1073790976
	.loc 1 250 58
	slli	a0,a0,8
.LVL29:
	.loc 1 253 5 is_stmt 1
	.loc 1 256 5
	.loc 1 250 14 is_stmt 0
	addi	a4,a5,256
	add	a4,a0,a4
	.loc 1 257 44
	addi	a5,a5,268
	.loc 1 256 43
	sw	a1,0(a4)
	.loc 1 257 5 is_stmt 1
	.loc 1 257 44 is_stmt 0
	add	a0,a0,a5
.LVL30:
	.loc 1 257 12
	lw	a5,0(a0)
.LVL31:
	.loc 1 258 5 is_stmt 1
	.loc 1 258 25 is_stmt 0
	li	a4,-4096
	and	a5,a5,a4
.LVL32:
	.loc 1 258 12
	or	a2,a5,a2
.LVL33:
	.loc 1 259 5 is_stmt 1
	.loc 1 259 43 is_stmt 0
	sw	a2,0(a0)
	.loc 1 260 1
	ret
	.cfi_endproc
.LFE11:
	.size	DMA_Channel_Update_SrcMemcfg, .-DMA_Channel_Update_SrcMemcfg
	.section	.text.DMA_Channel_Update_DstMemcfg,"ax",@progbits
	.align	1
	.globl	DMA_Channel_Update_DstMemcfg
	.type	DMA_Channel_Update_DstMemcfg, @function
DMA_Channel_Update_DstMemcfg:
.LFB12:
	.loc 1 273 1 is_stmt 1
	.cfi_startproc
.LVL34:
	.loc 1 274 5
	.loc 1 276 5
	.loc 1 282 35 is_stmt 0
	li	a5,1073790976
	.loc 1 276 58
	slli	a0,a0,8
.LVL35:
	.loc 1 279 5 is_stmt 1
	.loc 1 282 5
	.loc 1 282 35 is_stmt 0
	addi	a4,a5,260
	add	a4,a0,a4
	.loc 1 283 44
	addi	a5,a5,268
	.loc 1 282 43
	sw	a1,0(a4)
	.loc 1 283 5 is_stmt 1
	.loc 1 283 44 is_stmt 0
	add	a0,a0,a5
.LVL36:
	.loc 1 283 12
	lw	a5,0(a0)
.LVL37:
	.loc 1 284 5 is_stmt 1
	.loc 1 284 25 is_stmt 0
	li	a4,-4096
	and	a5,a5,a4
.LVL38:
	.loc 1 284 12
	or	a2,a5,a2
.LVL39:
	.loc 1 285 5 is_stmt 1
	.loc 1 285 43 is_stmt 0
	sw	a2,0(a0)
	.loc 1 286 1
	ret
	.cfi_endproc
.LFE12:
	.size	DMA_Channel_Update_DstMemcfg, .-DMA_Channel_Update_DstMemcfg
	.section	.text.DMA_Channel_TranferSize,"ax",@progbits
	.align	1
	.globl	DMA_Channel_TranferSize
	.type	DMA_Channel_TranferSize, @function
DMA_Channel_TranferSize:
.LFB13:
	.loc 1 297 1 is_stmt 1
	.cfi_startproc
.LVL40:
	.loc 1 299 5
	.loc 1 302 5
	.loc 1 304 5
	.loc 1 304 46 is_stmt 0
	li	a5,1073790976
	addi	a5,a5,268
	.loc 1 299 58
	slli	a0,a0,8
.LVL41:
	.loc 1 304 46
	add	a0,a0,a5
	.loc 1 304 84
	lw	a0,0(a0)
	slli	a0,a0,20
	.loc 1 305 1
	srli	a0,a0,20
	ret
	.cfi_endproc
.LFE13:
	.size	DMA_Channel_TranferSize, .-DMA_Channel_TranferSize
	.section	.text.DMA_Channel_Is_Busy,"ax",@progbits
	.align	1
	.globl	DMA_Channel_Is_Busy
	.type	DMA_Channel_Is_Busy, @function
DMA_Channel_Is_Busy:
.LFB14:
	.loc 1 316 1 is_stmt 1
	.cfi_startproc
.LVL42:
	.loc 1 318 5
	.loc 1 321 5
	.loc 1 323 5
	.loc 1 323 46 is_stmt 0
	li	a5,1073790976
	addi	a5,a5,272
	.loc 1 318 58
	slli	a0,a0,8
.LVL43:
	.loc 1 323 46
	add	a0,a0,a5
	.loc 1 323 17
	lw	a0,0(a0)
	.loc 1 324 1
	andi	a0,a0,1
	ret
	.cfi_endproc
.LFE14:
	.size	DMA_Channel_Is_Busy, .-DMA_Channel_Is_Busy
	.section	.text.DMA_Channel_Enable,"ax",@progbits
	.align	1
	.globl	DMA_Channel_Enable
	.type	DMA_Channel_Enable, @function
DMA_Channel_Enable:
.LFB15:
	.loc 1 336 1 is_stmt 1
	.cfi_startproc
.LVL44:
	.loc 1 337 5
	.loc 1 339 5
	.loc 1 342 5
	.loc 1 344 5
	.loc 1 344 44 is_stmt 0
	li	a5,1073790976
	addi	a5,a5,272
	.loc 1 339 58
	slli	a0,a0,8
.LVL45:
	.loc 1 344 44
	add	a0,a0,a5
	.loc 1 344 12
	lw	a5,0(a0)
.LVL46:
	.loc 1 345 5 is_stmt 1
	.loc 1 345 12 is_stmt 0
	ori	a5,a5,1
.LVL47:
	.loc 1 346 5 is_stmt 1
	.loc 1 346 44 is_stmt 0
	sw	a5,0(a0)
	.loc 1 347 1
	ret
	.cfi_endproc
.LFE15:
	.size	DMA_Channel_Enable, .-DMA_Channel_Enable
	.section	.text.DMA_Channel_Disable,"ax",@progbits
	.align	1
	.globl	DMA_Channel_Disable
	.type	DMA_Channel_Disable, @function
DMA_Channel_Disable:
.LFB16:
	.loc 1 358 1 is_stmt 1
	.cfi_startproc
.LVL48:
	.loc 1 359 5
	.loc 1 361 5
	.loc 1 364 5
	.loc 1 366 5
	.loc 1 366 44 is_stmt 0
	li	a5,1073790976
	addi	a5,a5,272
	.loc 1 361 58
	slli	a0,a0,8
.LVL49:
	.loc 1 366 44
	add	a0,a0,a5
	.loc 1 366 12
	lw	a5,0(a0)
.LVL50:
	.loc 1 367 5 is_stmt 1
	.loc 1 367 12 is_stmt 0
	andi	a5,a5,-2
.LVL51:
	.loc 1 368 5 is_stmt 1
	.loc 1 368 44 is_stmt 0
	sw	a5,0(a0)
	.loc 1 369 1
	ret
	.cfi_endproc
.LFE16:
	.size	DMA_Channel_Disable, .-DMA_Channel_Disable
	.section	.text.DMA_LLI_Init,"ax",@progbits
	.align	1
	.globl	DMA_LLI_Init
	.type	DMA_LLI_Init, @function
DMA_LLI_Init:
.LFB17:
	.loc 1 381 1 is_stmt 1
	.cfi_startproc
.LVL52:
	.loc 1 382 5
	.loc 1 384 5
	.loc 1 387 5
	.loc 1 388 5
	.loc 1 389 5
	.loc 1 390 5
	.loc 1 392 5
	.loc 1 392 44 is_stmt 0
	li	a5,1073790976
	addi	a5,a5,272
	.loc 1 384 58
	slli	a0,a0,8
.LVL53:
	.loc 1 392 44
	add	a0,a0,a5
	.loc 1 392 12
	lw	a5,0(a0)
.LVL54:
	.loc 1 393 5 is_stmt 1
	.loc 1 393 25 is_stmt 0
	li	a4,-16384
	addi	a4,a4,2047
	and	a4,a5,a4
.LVL55:
	.loc 1 394 5 is_stmt 1
	.loc 1 393 57 is_stmt 0
	lbu	a5,0(a1)
	.loc 1 393 80
	slli	a5,a5,11
	.loc 1 393 12
	or	a5,a5,a4
.LVL56:
	.loc 1 395 5 is_stmt 1
	.loc 1 394 56 is_stmt 0
	lbu	a4,2(a1)
	.loc 1 394 12
	andi	a5,a5,-2047
.LVL57:
	.loc 1 394 85
	slli	a4,a4,6
	.loc 1 395 25
	or	a5,a5,a4
	.loc 1 395 56
	lbu	a4,1(a1)
	.loc 1 395 85
	slli	a4,a4,1
	.loc 1 395 12
	or	a5,a4,a5
.LVL58:
	.loc 1 396 5 is_stmt 1
	.loc 1 396 44 is_stmt 0
	sw	a5,0(a0)
	.loc 1 397 1
	ret
	.cfi_endproc
.LFE17:
	.size	DMA_LLI_Init, .-DMA_LLI_Init
	.section	.text.DMA_LLI_Update,"ax",@progbits
	.align	1
	.globl	DMA_LLI_Update
	.type	DMA_LLI_Update, @function
DMA_LLI_Update:
.LFB18:
	.loc 1 409 1 is_stmt 1
	.cfi_startproc
.LVL59:
	.loc 1 411 5
	.loc 1 414 5
	.loc 1 418 5
	li	a5,1073790976
	.loc 1 411 58 is_stmt 0
	slli	a0,a0,8
.LVL60:
	.loc 1 418 5
	addi	a5,a5,256
	li	a2,4
	add	a0,a0,a5
	tail	BL602_MemCpy4
.LVL61:
	.cfi_endproc
.LFE18:
	.size	DMA_LLI_Update, .-DMA_LLI_Update
	.section	.text.DMA_LLI_PpStruct_Init,"ax",@progbits
	.align	1
	.globl	DMA_LLI_PpStruct_Init
	.type	DMA_LLI_PpStruct_Init, @function
DMA_LLI_PpStruct_Init:
.LFB19:
	.loc 1 430 1 is_stmt 1
	.cfi_startproc
.LVL62:
	.loc 1 432 5
	.loc 1 432 33 is_stmt 0
	lw	a5,4(a0)
	li	a4,-2147483648
	.loc 1 433 30
	sb	zero,0(a0)
	.loc 1 432 33
	or	a5,a5,a4
	sw	a5,4(a0)
	.loc 1 433 5 is_stmt 1
	.loc 1 435 5
	.loc 1 435 32 is_stmt 0
	lw	a5,8(a0)
	lbu	a4,0(a5)
	.loc 1 435 7
	li	a5,1
	bne	a4,a5,.L13
	.loc 1 436 9 is_stmt 1
	.loc 1 436 37 is_stmt 0
	lbu	a4,1(a0)
	.loc 1 436 101
	lw	a3,16(a0)
	.loc 1 436 71
	lui	a5,%hi(.LANCHOR0)
	addi	a5,a5,%lo(.LANCHOR0)
	slli	a4,a4,5
	add	a4,a5,a4
	sw	a3,0(a4)
	.loc 1 437 9 is_stmt 1
	.loc 1 437 37 is_stmt 0
	lbu	a4,1(a0)
	.loc 1 437 84
	lw	a3,12(a0)
	.loc 1 437 71
	slli	a4,a4,5
	add	a4,a5,a4
	sw	a3,4(a4)
	.loc 1 439 9 is_stmt 1
	.loc 1 439 37 is_stmt 0
	lbu	a4,1(a0)
	.loc 1 439 101
	lw	a3,20(a0)
	.loc 1 439 71
	slli	a4,a4,5
	add	a4,a5,a4
	sw	a3,16(a4)
	.loc 1 440 9 is_stmt 1
	.loc 1 440 84 is_stmt 0
	lw	a3,12(a0)
.L22:
	.loc 1 453 5 is_stmt 1
	.loc 1 447 37 is_stmt 0
	lbu	a4,1(a0)
	.loc 1 430 1
	addi	sp,sp,-16
	.cfi_def_cfa_offset 16
	.loc 1 447 72
	slli	a4,a4,5
	add	a5,a5,a4
	sw	a3,20(a5)
	.loc 1 430 1
	sw	s1,4(sp)
	sw	ra,12(sp)
	sw	s0,8(sp)
	.cfi_offset 9, -12
	.cfi_offset 1, -4
	.cfi_offset 8, -8
	.loc 1 453 105
	lbu	a5,1(a0)
	.loc 1 453 64
	lui	s1,%hi(.LANCHOR0)
	addi	a4,s1,%lo(.LANCHOR0)
	slli	a5,a5,5
	add	a3,a4,a5
	.loc 1 453 76
	addi	a5,a5,16
	add	a5,a4,a5
	.loc 1 453 64
	sw	a5,8(a3)
	.loc 1 454 5 is_stmt 1
	.loc 1 454 33 is_stmt 0
	lbu	a5,1(a0)
	addi	s1,s1,%lo(.LANCHOR0)
	.loc 1 454 64
	slli	a5,a5,5
	add	a4,a4,a5
	lw	a5,4(a0)
	sw	a5,12(a4)
	.loc 1 456 5 is_stmt 1
	lbu	a5,1(a0)
	.loc 1 456 7 is_stmt 0
	lbu	a3,24(a0)
	li	a4,1
	.loc 1 461 68
	slli	a5,a5,5
	add	a5,s1,a5
	.loc 1 456 7
	bne	a3,a4,.L16
	.loc 1 461 9 is_stmt 1
	.loc 1 461 68 is_stmt 0
	sw	zero,24(a5)
.L17:
	.loc 1 466 33
	lbu	a5,1(a0)
	.loc 1 466 64
	lw	a4,4(a0)
	mv	s0,a0
	.loc 1 466 5 is_stmt 1
	.loc 1 466 64 is_stmt 0
	slli	a5,a5,5
	add	a5,s1,a5
	sw	a4,28(a5)
	.loc 1 468 5 is_stmt 1
	lw	a1,8(a0)
	lbu	a0,1(a0)
.LVL63:
	call	DMA_LLI_Init
.LVL64:
	.loc 1 470 5
	lbu	a0,1(s0)
	.loc 1 470 52 is_stmt 0
	slli	a1,a0,5
	.loc 1 470 5
	add	a1,s1,a1
	call	DMA_LLI_Update
.LVL65:
	.loc 1 472 5 is_stmt 1
	.loc 1 473 1 is_stmt 0
	lw	ra,12(sp)
	.cfi_restore 1
	lw	s0,8(sp)
	.cfi_restore 8
.LVL66:
	.loc 1 472 12
	li	a5,0
	.loc 1 473 1
	lw	s1,4(sp)
	.cfi_restore 9
	mv	a0,a5
	addi	sp,sp,16
	.cfi_def_cfa_offset 0
	jr	ra
.LVL67:
.L13:
	.loc 1 442 10 is_stmt 1
	.loc 1 442 12 is_stmt 0
	li	a3,2
	.loc 1 449 16
	li	a5,1
	.loc 1 442 12
	bne	a4,a3,.L20
	.loc 1 443 9 is_stmt 1
	.loc 1 443 37 is_stmt 0
	lbu	a4,1(a0)
	.loc 1 443 84
	lw	a3,12(a0)
	.loc 1 443 71
	lui	a5,%hi(.LANCHOR0)
	addi	a5,a5,%lo(.LANCHOR0)
	slli	a4,a4,5
	add	a4,a5,a4
	sw	a3,0(a4)
	.loc 1 444 9 is_stmt 1
	.loc 1 444 37 is_stmt 0
	lbu	a4,1(a0)
	.loc 1 444 101
	lw	a3,16(a0)
	.loc 1 444 71
	slli	a4,a4,5
	add	a4,a5,a4
	sw	a3,4(a4)
	.loc 1 446 9 is_stmt 1
	.loc 1 446 37 is_stmt 0
	lbu	a4,1(a0)
	.loc 1 446 84
	lw	a3,12(a0)
	.loc 1 446 71
	slli	a4,a4,5
	add	a4,a5,a4
	sw	a3,16(a4)
	.loc 1 447 9 is_stmt 1
	.loc 1 447 102 is_stmt 0
	lw	a3,20(a0)
	j	.L22
.L16:
	.cfi_def_cfa_offset 16
	.cfi_offset 1, -4
	.cfi_offset 8, -8
	.cfi_offset 9, -12
	.loc 1 463 9 is_stmt 1
	.loc 1 463 68 is_stmt 0
	sw	a5,24(a5)
	j	.L17
.L20:
	.cfi_def_cfa_offset 0
	.cfi_restore 1
	.cfi_restore 8
	.cfi_restore 9
	.loc 1 473 1
	mv	a0,a5
.LVL68:
	ret
	.cfi_endproc
.LFE19:
	.size	DMA_LLI_PpStruct_Init, .-DMA_LLI_PpStruct_Init
	.section	.text.DMA_LLI_PpStruct_Start,"ax",@progbits
	.align	1
	.globl	DMA_LLI_PpStruct_Start
	.type	DMA_LLI_PpStruct_Start, @function
DMA_LLI_PpStruct_Start:
.LFB20:
	.loc 1 484 60 is_stmt 1
	.cfi_startproc
.LVL69:
	.loc 1 485 5
	.loc 1 484 60 is_stmt 0
	addi	sp,sp,-16
	.cfi_def_cfa_offset 16
	sw	s0,8(sp)
	sw	ra,12(sp)
	.cfi_offset 8, -8
	.cfi_offset 1, -4
	.loc 1 485 7
	lbu	a4,24(a0)
	li	a5,1
	.loc 1 484 60
	mv	s0,a0
	.loc 1 485 7
	bne	a4,a5,.L24
	lbu	a0,1(a0)
.LVL70:
	.loc 1 486 9 is_stmt 1
	lui	a5,%hi(.LANCHOR0)
	addi	a5,a5,%lo(.LANCHOR0)
	.loc 1 486 56 is_stmt 0
	slli	a1,a0,5
	.loc 1 486 9
	add	a1,a5,a1
	call	DMA_LLI_Update
.LVL71:
.L24:
	.loc 1 489 5 is_stmt 1
	lbu	a0,1(s0)
	.loc 1 490 1 is_stmt 0
	lw	s0,8(sp)
	.cfi_restore 8
.LVL72:
	lw	ra,12(sp)
	.cfi_restore 1
	addi	sp,sp,16
	.cfi_def_cfa_offset 0
	.loc 1 489 5
	tail	DMA_Channel_Enable
.LVL73:
	.cfi_endproc
.LFE20:
	.size	DMA_LLI_PpStruct_Start, .-DMA_LLI_PpStruct_Start
	.section	.text.DMA_LLI_PpStruct_Stop,"ax",@progbits
	.align	1
	.globl	DMA_LLI_PpStruct_Stop
	.type	DMA_LLI_PpStruct_Stop, @function
DMA_LLI_PpStruct_Stop:
.LFB21:
	.loc 1 502 59 is_stmt 1
	.cfi_startproc
.LVL74:
	.loc 1 503 5
	lbu	a0,1(a0)
.LVL75:
	tail	DMA_Channel_Disable
.LVL76:
	.cfi_endproc
.LFE21:
	.size	DMA_LLI_PpStruct_Stop, .-DMA_LLI_PpStruct_Stop
	.section	.text.DMA_LLI_PpStruct_Set_Transfer_Len,"ax",@progbits
	.align	1
	.globl	DMA_LLI_PpStruct_Set_Transfer_Len
	.type	DMA_LLI_PpStruct_Set_Transfer_Len, @function
DMA_LLI_PpStruct_Set_Transfer_Len:
.LFB22:
	.loc 1 516 132
	.cfi_startproc
.LVL77:
	.loc 1 517 5
	.loc 1 519 5
	.loc 1 519 7 is_stmt 0
	li	a4,4096
	bgtu	a1,a4,.L29
	.loc 1 516 132 discriminator 1
	addi	sp,sp,-16
	.cfi_def_cfa_offset 16
	sw	s0,8(sp)
	sw	ra,12(sp)
	sw	s1,4(sp)
	.cfi_offset 8, -8
	.cfi_offset 1, -4
	.cfi_offset 9, -12
	mv	s0,a0
	.loc 1 520 16 discriminator 1
	li	a0,1
.LVL78:
	.loc 1 519 33 discriminator 1
	bgtu	a2,a4,.L28
	.loc 1 523 5 is_stmt 1
	.loc 1 523 54 is_stmt 0
	lbu	a0,1(s0)
	.loc 1 523 24
	lui	s1,%hi(.LANCHOR0)
	addi	s1,s1,%lo(.LANCHOR0)
	slli	a0,a0,5
	add	a0,s1,a0
	lw	a5,12(a0)
.LVL79:
	.loc 1 524 5 is_stmt 1
	.loc 1 525 5
	.loc 1 525 64 is_stmt 0
	addi	a3,a4,-1
	li	a6,-4096
	and	a4,a1,a3
.LVL80:
	and	a1,a5,a6
.LVL81:
	or	a1,a1,a4
	sw	a1,12(a0)
	.loc 1 527 5 is_stmt 1
	.loc 1 527 54 is_stmt 0
	lbu	a4,1(s0)
	.loc 1 529 64
	and	a2,a2,a3
.LVL82:
	.loc 1 527 24
	slli	a4,a4,5
	add	a4,s1,a4
	lw	a5,28(a4)
.LVL83:
	.loc 1 528 5 is_stmt 1
	.loc 1 529 5
	.loc 1 529 64 is_stmt 0
	and	a5,a5,a6
.LVL84:
	or	a5,a5,a2
	sw	a5,28(a4)
	.loc 1 531 5 is_stmt 1
	lw	a1,8(s0)
	lbu	a0,1(s0)
	call	DMA_LLI_Init
.LVL85:
	.loc 1 532 5
	lbu	a0,1(s0)
	.loc 1 532 52 is_stmt 0
	slli	a1,a0,5
	.loc 1 532 5
	add	a1,s1,a1
	call	DMA_LLI_Update
.LVL86:
	.loc 1 534 5 is_stmt 1
	.loc 1 534 12 is_stmt 0
	li	a0,0
.L28:
.LVL87:
	.loc 1 536 1
	lw	ra,12(sp)
	.cfi_restore 1
	lw	s0,8(sp)
	.cfi_restore 8
.LVL88:
	lw	s1,4(sp)
	.cfi_restore 9
	addi	sp,sp,16
	.cfi_def_cfa_offset 0
	jr	ra
.LVL89:
.L29:
	.loc 1 520 16
	li	a0,1
.LVL90:
	.loc 1 536 1
	ret
	.cfi_endproc
.LFE22:
	.size	DMA_LLI_PpStruct_Set_Transfer_Len, .-DMA_LLI_PpStruct_Set_Transfer_Len
	.section	.text.DMA_LLI_PpBuf_Start_New_Transmit,"ax",@progbits
	.align	1
	.globl	DMA_LLI_PpBuf_Start_New_Transmit
	.type	DMA_LLI_PpBuf_Start_New_Transmit, @function
DMA_LLI_PpBuf_Start_New_Transmit:
.LFB23:
	.loc 1 550 1 is_stmt 1
	.cfi_startproc
.LVL91:
	.loc 1 551 5
	.loc 1 550 1 is_stmt 0
	addi	sp,sp,-16
	.cfi_def_cfa_offset 16
	sw	s0,8(sp)
	.cfi_offset 8, -8
	mv	s0,a0
	.loc 1 551 5
	li	a0,31
.LVL92:
	.loc 1 550 1
	sw	ra,12(sp)
	.cfi_offset 1, -4
	.loc 1 551 5
	call	clic_disable_interrupt
.LVL93:
	.loc 1 552 5 is_stmt 1
	.loc 1 552 40 is_stmt 0
	lbu	a5,0(s0)
	.loc 1 552 31
	slli	a5,a5,2
	add	a5,s0,a5
	lw	a1,4(a5)
	.loc 1 552 7
	beq	a1,zero,.L36
	.loc 1 553 9 is_stmt 1
	lbu	a0,1(s0)
	call	DMA_LLI_Update
.LVL94:
	.loc 1 554 9
	lbu	a0,1(s0)
	call	DMA_Channel_Enable
.LVL95:
	.loc 1 555 9
	.loc 1 555 57 is_stmt 0
	lbu	a5,0(s0)
	seqz	a5,a5
	sb	a5,0(s0)
.L36:
	.loc 1 557 5 is_stmt 1
	.loc 1 558 1 is_stmt 0
	lw	s0,8(sp)
	.cfi_restore 8
.LVL96:
	lw	ra,12(sp)
	.cfi_restore 1
	.loc 1 557 5
	li	a0,31
	.loc 1 558 1
	addi	sp,sp,16
	.cfi_def_cfa_offset 0
	.loc 1 557 5
	tail	clic_enable_interrupt
.LVL97:
	.cfi_endproc
.LFE23:
	.size	DMA_LLI_PpBuf_Start_New_Transmit, .-DMA_LLI_PpBuf_Start_New_Transmit
	.section	.text.DMA_LLI_PpBuf_Remove_Completed_List,"ax",@progbits
	.align	1
	.globl	DMA_LLI_PpBuf_Remove_Completed_List
	.type	DMA_LLI_PpBuf_Remove_Completed_List, @function
DMA_LLI_PpBuf_Remove_Completed_List:
.LFB24:
	.loc 1 569 1 is_stmt 1
	.cfi_startproc
.LVL98:
	.loc 1 570 5
	.loc 1 569 1 is_stmt 0
	addi	sp,sp,-16
	.cfi_def_cfa_offset 16
	sw	s0,8(sp)
	.cfi_offset 8, -8
	mv	s0,a0
	.loc 1 570 5
	li	a0,31
.LVL99:
	.loc 1 569 1
	sw	ra,12(sp)
	.cfi_offset 1, -4
	.loc 1 570 5
	call	clic_disable_interrupt
.LVL100:
	.loc 1 572 5 is_stmt 1
	.loc 1 572 29 is_stmt 0
	lbu	a5,0(s0)
	.loc 1 573 5
	li	a0,31
	.loc 1 572 29
	seqz	a5,a5
	.loc 1 572 51
	slli	a5,a5,2
	add	a5,s0,a5
	sw	zero,4(a5)
	.loc 1 573 5 is_stmt 1
	call	clic_enable_interrupt
.LVL101:
	.loc 1 574 5
	.loc 1 574 36 is_stmt 0
	lbu	a5,0(s0)
	.loc 1 575 1
	lw	ra,12(sp)
	.cfi_restore 1
	.loc 1 574 36
	seqz	a5,a5
	.loc 1 574 35
	slli	a5,a5,2
	add	s0,s0,a5
.LVL102:
	.loc 1 575 1
	lw	a0,4(s0)
	lw	s0,8(sp)
	.cfi_restore 8
	addi	sp,sp,16
	.cfi_def_cfa_offset 0
	jr	ra
	.cfi_endproc
.LFE24:
	.size	DMA_LLI_PpBuf_Remove_Completed_List, .-DMA_LLI_PpBuf_Remove_Completed_List
	.section	.text.DMA_LLI_PpBuf_Append,"ax",@progbits
	.align	1
	.globl	DMA_LLI_PpBuf_Append
	.type	DMA_LLI_PpBuf_Append, @function
DMA_LLI_PpBuf_Append:
.LFB25:
	.loc 1 587 1 is_stmt 1
	.cfi_startproc
.LVL103:
	.loc 1 588 5
	.loc 1 589 5
	.loc 1 587 1 is_stmt 0
	addi	sp,sp,-32
	.cfi_def_cfa_offset 32
	sw	s0,24(sp)
	.cfi_offset 8, -8
	mv	s0,a0
	.loc 1 589 5
	li	a0,31
.LVL104:
	.loc 1 587 1
	sw	a1,12(sp)
	sw	ra,28(sp)
	.cfi_offset 1, -4
	.loc 1 589 5
	call	clic_disable_interrupt
.LVL105:
	.loc 1 591 5 is_stmt 1
	.loc 1 591 48 is_stmt 0
	lbu	a5,0(s0)
	.loc 1 592 7
	lw	a1,12(sp)
	.loc 1 591 14
	slli	a5,a5,2
	add	a5,s0,a5
	lw	a5,4(a5)
.LVL106:
	.loc 1 592 5 is_stmt 1
	.loc 1 592 7 is_stmt 0
	bne	a5,zero,.L44
	.loc 1 593 9 is_stmt 1
	.loc 1 594 31 is_stmt 0
	lw	a5,12(a1)
.LVL107:
	li	a4,-2147483648
	.loc 1 593 29
	sw	zero,8(a1)
.LVL108:
	.loc 1 594 9 is_stmt 1
	.loc 1 594 31 is_stmt 0
	or	a5,a5,a4
	sw	a5,12(a1)
.LVL109:
	.loc 1 595 9 is_stmt 1
	.loc 1 595 41 is_stmt 0
	lbu	a5,0(s0)
	.loc 1 595 54
	slli	a5,a5,2
	add	a5,s0,a5
	sw	a1,4(a5)
.L45:
	.loc 1 607 5 is_stmt 1
	.loc 1 607 8 is_stmt 0
	lbu	a0,1(s0)
	call	DMA_Channel_Is_Busy
.LVL110:
	.loc 1 607 7
	bne	a0,zero,.L47
	.loc 1 610 9 is_stmt 1
	.loc 1 610 36 is_stmt 0
	lbu	a5,0(s0)
	seqz	a5,a5
	.loc 1 610 35
	slli	a5,a5,2
	add	a5,s0,a5
	.loc 1 610 11
	lw	a5,4(a5)
	bne	a5,zero,.L47
	.loc 1 612 13 is_stmt 1
	mv	a0,s0
	call	DMA_LLI_PpBuf_Start_New_Transmit
.LVL111:
.L47:
	.loc 1 615 5
	.loc 1 616 1 is_stmt 0
	lw	s0,24(sp)
	.cfi_remember_state
	.cfi_restore 8
.LVL112:
	lw	ra,28(sp)
	.cfi_restore 1
	.loc 1 615 5
	li	a0,31
	.loc 1 616 1
	addi	sp,sp,32
	.cfi_def_cfa_offset 0
	.loc 1 615 5
	tail	clic_enable_interrupt
.LVL113:
.L46:
	.cfi_restore_state
	.loc 1 599 13 is_stmt 1
	.loc 1 599 22 is_stmt 0
	mv	a5,a4
.LVL114:
.L44:
	.loc 1 598 23
	lw	a4,8(a5)
	.loc 1 598 14
	bne	a4,zero,.L46
	.loc 1 601 9 is_stmt 1
	.loc 1 602 29 is_stmt 0
	lw	a4,12(a5)
	li	a3,-2147483648
	xori	a2,a3,-1
	and	a4,a4,a2
	.loc 1 601 27
	sw	a1,8(a5)
	.loc 1 602 9 is_stmt 1
	.loc 1 602 29 is_stmt 0
	sw	a4,12(a5)
.LVL115:
	.loc 1 603 9 is_stmt 1
	.loc 1 604 31 is_stmt 0
	lw	a5,12(a1)
.LVL116:
	.loc 1 603 29
	sw	zero,8(a1)
	.loc 1 604 9 is_stmt 1
	.loc 1 604 31 is_stmt 0
	or	a5,a5,a3
	sw	a5,12(a1)
	j	.L45
	.cfi_endproc
.LFE25:
	.size	DMA_LLI_PpBuf_Append, .-DMA_LLI_PpBuf_Append
	.section	.text.DMA_LLI_PpBuf_Destroy,"ax",@progbits
	.align	1
	.globl	DMA_LLI_PpBuf_Destroy
	.type	DMA_LLI_PpBuf_Destroy, @function
DMA_LLI_PpBuf_Destroy:
.LFB26:
	.loc 1 627 1 is_stmt 1
	.cfi_startproc
.LVL117:
	.loc 1 629 5
	.loc 1 627 1 is_stmt 0
	addi	sp,sp,-16
	.cfi_def_cfa_offset 16
	sw	s0,8(sp)
	sw	ra,12(sp)
	.cfi_offset 8, -8
	.cfi_offset 1, -4
	.loc 1 627 1
	mv	s0,a0
	.loc 1 629 5
	lbu	a0,1(a0)
.LVL118:
	call	DMA_Channel_Disable
.LVL119:
	.loc 1 630 5 is_stmt 1
	.loc 1 630 31 is_stmt 0
	lw	a0,4(s0)
	.loc 1 630 7
	beq	a0,zero,.L51
	.loc 1 630 53 discriminator 1
	lw	a5,12(s0)
	.loc 1 630 42 discriminator 1
	beq	a5,zero,.L51
	.loc 1 631 9 is_stmt 1
	jalr	a5
.LVL120:
.L51:
	.loc 1 633 5
	.loc 1 634 31 is_stmt 0
	lw	a0,8(s0)
	.loc 1 633 32
	sw	zero,4(s0)
	.loc 1 634 5 is_stmt 1
	.loc 1 634 7 is_stmt 0
	beq	a0,zero,.L52
	.loc 1 634 53 discriminator 1
	lw	a5,12(s0)
	.loc 1 634 42 discriminator 1
	beq	a5,zero,.L52
	.loc 1 635 9 is_stmt 1
	jalr	a5
.LVL121:
.L52:
	.loc 1 637 5
	.loc 1 637 32 is_stmt 0
	sw	zero,8(s0)
	.loc 1 638 5 is_stmt 1
	.loc 1 638 25 is_stmt 0
	sb	zero,0(s0)
	.loc 1 639 1
	lw	ra,12(sp)
	.cfi_restore 1
	lw	s0,8(sp)
	.cfi_restore 8
.LVL122:
	addi	sp,sp,16
	.cfi_def_cfa_offset 0
	jr	ra
	.cfi_endproc
.LFE26:
	.size	DMA_LLI_PpBuf_Destroy, .-DMA_LLI_PpBuf_Destroy
	.section	.text.DMA_IntMask,"ax",@progbits
	.align	1
	.globl	DMA_IntMask
	.type	DMA_IntMask, @function
DMA_IntMask:
.LFB27:
	.loc 1 653 1 is_stmt 1
	.cfi_startproc
.LVL123:
	.loc 1 654 5
	.loc 1 656 5
	.loc 1 662 5 is_stmt 0
	li	a5,1
	.loc 1 656 58
	slli	a0,a0,8
.LVL124:
	.loc 1 659 5 is_stmt 1
	.loc 1 660 5
	.loc 1 662 5
	beq	a1,a5,.L67
	beq	a1,zero,.L68
	li	a5,2
	beq	a1,a5,.L69
	ret
.L68:
	.loc 1 665 13
	li	a4,1073790976
	addi	a5,a4,272
	add	a5,a0,a5
	addi	a4,a4,268
	add	a0,a0,a4
.LVL125:
	.loc 1 668 30 is_stmt 0
	lw	a4,0(a5)
	.loc 1 668 24
	li	a3,-32768
	.loc 1 665 15
	beq	a2,zero,.L76
	.loc 1 676 17 is_stmt 1
	.loc 1 676 24 is_stmt 0
	li	a3,32768
.LVL126:
.L75:
	.loc 1 713 24
	or	a4,a4,a3
.LVL127:
	.loc 1 714 17 is_stmt 1
	.loc 1 714 56 is_stmt 0
	sw	a4,0(a5)
	.loc 1 715 17 is_stmt 1
	.loc 1 715 24 is_stmt 0
	lw	a5,0(a0)
.LVL128:
	.loc 1 716 17 is_stmt 1
	.loc 1 716 24 is_stmt 0
	slli	a5,a5,1
.LVL129:
	srli	a5,a5,1
	j	.L74
.LVL130:
.L67:
	.loc 1 683 13 is_stmt 1
	li	a5,1073790976
	addi	a5,a5,272
	add	a0,a0,a5
.LVL131:
	.loc 1 686 30 is_stmt 0
	lw	a5,0(a0)
	.loc 1 683 15
	bne	a2,zero,.L72
	.loc 1 686 17 is_stmt 1
	.loc 1 686 24 is_stmt 0
	li	a4,-16384
	addi	a4,a4,-1
	and	a5,a5,a4
.LVL132:
	.loc 1 687 17 is_stmt 1
.L74:
	.loc 1 717 17
	.loc 1 717 55 is_stmt 0
	sw	a5,0(a0)
	.loc 1 724 1
	ret
.LVL133:
.L72:
	.loc 1 692 17 is_stmt 1
	.loc 1 692 24 is_stmt 0
	li	a4,16384
.LVL134:
.L77:
	.loc 1 705 24
	or	a5,a5,a4
.LVL135:
	.loc 1 706 17 is_stmt 1
	j	.L74
.LVL136:
.L69:
	.loc 1 697 13
	li	a4,1073790976
	addi	a5,a4,272
	add	a5,a0,a5
	addi	a4,a4,268
	add	a0,a0,a4
.LVL137:
	.loc 1 700 24 is_stmt 0
	lw	a4,0(a5)
	.loc 1 697 15
	bne	a2,zero,.L73
	.loc 1 700 17 is_stmt 1
.LVL138:
	.loc 1 701 17
	.loc 1 702 17
	.loc 1 702 24 is_stmt 0
	li	a3,-49152
.LVL139:
.L76:
	addi	a3,a3,-1
	and	a4,a4,a3
.LVL140:
	.loc 1 703 17 is_stmt 1
	.loc 1 703 56 is_stmt 0
	sw	a4,0(a5)
	.loc 1 704 17 is_stmt 1
	.loc 1 704 24 is_stmt 0
	lw	a5,0(a0)
.LVL141:
	.loc 1 705 17 is_stmt 1
	.loc 1 705 24 is_stmt 0
	li	a4,-2147483648
	j	.L77
.LVL142:
.L73:
	.loc 1 711 17 is_stmt 1
	.loc 1 712 17
	.loc 1 713 17
	.loc 1 713 24 is_stmt 0
	li	a3,49152
	j	.L75
	.cfi_endproc
.LFE27:
	.size	DMA_IntMask, .-DMA_IntMask
	.section	.text.DMA_Int_Callback_Install,"ax",@progbits
	.align	1
	.globl	DMA_Int_Callback_Install
	.type	DMA_Int_Callback_Install, @function
DMA_Int_Callback_Install:
.LFB28:
	.loc 1 737 1 is_stmt 1
	.cfi_startproc
.LVL143:
	.loc 1 739 5
	.loc 1 740 5
	.loc 1 742 5
	.loc 1 743 1 is_stmt 0
	ret
	.cfi_endproc
.LFE28:
	.size	DMA_Int_Callback_Install, .-DMA_Int_Callback_Install
	.section	.bss.PingPongListArra,"aw",@nobits
	.align	2
	.set	.LANCHOR0,. + 0
	.type	PingPongListArra, @object
	.size	PingPongListArra, 128
PingPongListArra:
	.zero	128
	.text
.Letext0:
	.file 2 "/b-l/bl_iot_sdk/toolchain/riscv/Linux/lib/gcc/riscv64-unknown-elf/8.3.0/include/stdint-gcc.h"
	.file 3 "/b-l/bl_iot_sdk/components/bl602/bl602_std/bl602_std/Device/Bouffalo/BL602/Peripherals/dma_reg.h"
	.file 4 "/b-l/bl_iot_sdk/toolchain/riscv/Linux/lib/gcc/riscv64-unknown-elf/8.3.0/include/stddef.h"
	.file 5 "/b-l/bl_iot_sdk/toolchain/riscv/Linux/riscv64-unknown-elf/include/sys/_types.h"
	.file 6 "/b-l/bl_iot_sdk/toolchain/riscv/Linux/riscv64-unknown-elf/include/sys/reent.h"
	.file 7 "/b-l/bl_iot_sdk/toolchain/riscv/Linux/riscv64-unknown-elf/include/sys/lock.h"
	.file 8 "/b-l/bl_iot_sdk/components/bl602/bl602_std/bl602_std/RISCV/Device/Bouffalo/BL602/Startup/system_bl602.h"
	.file 9 "/b-l/bl_iot_sdk/components/bl602/bl602_std/bl602_std/Device/Bouffalo/BL602/Peripherals/bl602.h"
	.file 10 "/b-l/bl_iot_sdk/components/bl602/bl602_std/bl602_std/StdDriver/Inc/bl602_common.h"
	.file 11 "/b-l/bl_iot_sdk/components/bl602/bl602_std/bl602_std/StdDriver/Inc/bl602_dma.h"
	.file 12 "/b-l/bl_iot_sdk/components/bl602/bl602_std/bl602_std/RISCV/Core/Include/cmsis_compatible_gcc.h"