	.file	"bl602_sf_cfg_ext.c"
	.option nopic
	.attribute arch, "rv32i2p0_m2p0_f2p0_c2p0"
	.attribute unaligned_access, 0
	.attribute stack_align, 16
	.text
.Ltext0:
	.cfi_sections	.debug_frame
	.section	.tcm_code,"ax",@progbits
	.align	1
	.globl	SF_Cfg_Get_Flash_Cfg_Need_Lock_Ext
	.type	SF_Cfg_Get_Flash_Cfg_Need_Lock_Ext, @function
SF_Cfg_Get_Flash_Cfg_Need_Lock_Ext:
.LFB8:
	.file 1 "/b-l/bl_iot_sdk/components/bl602/bl602_std/bl602_std/StdDriver/Src/bl602_sf_cfg_ext.c"
	.loc 1 206 1
	.cfi_startproc
.LVL0:
	.loc 1 207 5
	.loc 1 208 5
	.loc 1 209 5
	.loc 1 211 5
	.loc 1 206 1 is_stmt 0
	addi	sp,sp,-112
	.cfi_def_cfa_offset 112
	sw	s2,96(sp)
	sw	ra,108(sp)
	sw	s0,104(sp)
	sw	s1,100(sp)
	.cfi_offset 18, -16
	.cfi_offset 1, -4
	.cfi_offset 8, -8
	.cfi_offset 9, -12
	.loc 1 206 1
	mv	s2,a1
	.loc 1 211 7
	bne	a0,zero,.L2
	.loc 1 212 9 is_stmt 1
	li	a0,587202560
.LVL1:
	li	a2,92
	addi	a1,sp,4
.LVL2:
	addi	a0,a0,8
	call	XIP_SFlash_Read_Via_Cache_Need_Lock
.LVL3:
	.loc 1 213 9
	.loc 1 213 12 is_stmt 0
	lui	a1,%hi(.LC0)
	li	a2,4
	addi	a1,a1,%lo(.LC0)
	addi	a0,sp,4
	call	BL602_MemCmp
.LVL4:
	.loc 1 213 11
	beq	a0,zero,.L3
.L5:
	.loc 1 233 12
	li	s0,1
.L4:
	.loc 1 234 1
	mv	a0,s0
	lw	ra,108(sp)
	.cfi_remember_state
	.cfi_restore 1
	lw	s0,104(sp)
	.cfi_restore 8
	lw	s1,100(sp)
	.cfi_restore 9
	lw	s2,96(sp)
	.cfi_restore 18
.LVL5:
	addi	sp,sp,112
	.cfi_def_cfa_offset 0
	jr	ra
.LVL6:
.L3:
	.cfi_restore_state
	.loc 1 214 13 is_stmt 1
	.loc 1 214 17 is_stmt 0
	li	a1,84
	addi	a0,sp,8
	call	BFLB_Soft_CRC32
.LVL7:
	.loc 1 215 13 is_stmt 1
	.loc 1 216 13
	.loc 1 216 15 is_stmt 0
	lw	a5,92(sp)
	bne	a5,a0,.L5
	.loc 1 217 17 is_stmt 1
	li	a2,84
	addi	a1,sp,8
	mv	a0,s2
.LVL8:
	call	BL602_MemCpy_Fast
.LVL9:
	.loc 1 218 17
.L8:
	.loc 1 223 20 is_stmt 0
	li	s0,0
	j	.L4
.LVL10:
.L2:
	mv	s1,a0
	.loc 1 222 9 is_stmt 1
	.loc 1 222 12 is_stmt 0
	call	SF_Cfg_Get_Flash_Cfg_Need_Lock
.LVL11:
	mv	s0,a0
	.loc 1 222 11
	bne	a0,zero,.L8
.LVL12:
	.loc 1 226 13 is_stmt 1
	.loc 1 226 15 is_stmt 0
	li	a5,1327104
	addi	a5,a5,161
	bne	s1,a5,.L5
	.loc 1 227 17 is_stmt 1
	lui	a1,%hi(.LANCHOR0)
	li	a2,84
	addi	a1,a1,%lo(.LANCHOR0)
	mv	a0,s2
	call	BL602_MemCpy_Fast
.LVL13:
	.loc 1 228 17
	.loc 1 228 24 is_stmt 0
	j	.L4
	.cfi_endproc
.LFE8:
	.size	SF_Cfg_Get_Flash_Cfg_Need_Lock_Ext, .-SF_Cfg_Get_Flash_Cfg_Need_Lock_Ext
	.align	1
	.globl	SF_Cfg_Flash_Identify_Ext
	.type	SF_Cfg_Flash_Identify_Ext, @function
SF_Cfg_Flash_Identify_Ext:
.LFB9:
	.loc 1 250 1 is_stmt 1
	.cfi_startproc
.LVL14:
	.loc 1 251 5
	.loc 1 252 5
	.loc 1 253 5
	.loc 1 255 5
	.loc 1 250 1 is_stmt 0
	addi	sp,sp,-16
	.cfi_def_cfa_offset 16
	sw	s0,8(sp)
	sw	ra,12(sp)
	.cfi_offset 8, -8
	.cfi_offset 1, -4
	.loc 1 250 1
	mv	s0,a4
	.loc 1 255 9
	call	SF_Cfg_Flash_Identify
.LVL15:
	.loc 1 256 5 is_stmt 1
	.loc 1 256 7 is_stmt 0
	blt	a0,zero,.L11
	.loc 1 260 5 is_stmt 1
	.loc 1 260 11 is_stmt 0
	slli	a0,a0,8
.LVL16:
	.loc 1 262 11
	li	a5,1327104
	.loc 1 260 11
	srli	a0,a0,8
.LVL17:
	.loc 1 261 5 is_stmt 1
	.loc 1 262 9
	.loc 1 262 11 is_stmt 0
	addi	a5,a5,161
	bne	a0,a5,.L11
	.loc 1 263 13 is_stmt 1
	lui	a1,%hi(.LANCHOR0)
	li	a2,84
	addi	a1,a1,%lo(.LANCHOR0)
	mv	a0,s0
.LVL18:
	call	BL602_MemCpy_Fast
.LVL19:
	.loc 1 264 13
	.loc 1 267 5
	.loc 1 270 9
	.loc 1 270 23 is_stmt 0
	li	a0,-2146156544
	addi	a0,a0,161
.L11:
	.loc 1 272 1
	lw	ra,12(sp)
	.cfi_restore 1
	lw	s0,8(sp)
	.cfi_restore 8
.LVL20:
	addi	sp,sp,16
	.cfi_def_cfa_offset 0
	jr	ra
	.cfi_endproc
.LFE9:
	.size	SF_Cfg_Flash_Identify_Ext, .-SF_Cfg_Flash_Identify_Ext
	.section	.rodata.str1.4,"aMS",@progbits,1
	.align	2
.LC0:
	.string	"FCFG"
	.section	.tcm_const,"a"
	.align	2
	.set	.LANCHOR0,. + 0
	.type	flashCfg_FM_25Q08, @object
	.size	flashCfg_FM_25Q08, 84
flashCfg_FM_25Q08:
	.byte	4
	.byte	1
	.byte	1
	.byte	63
	.byte	102
	.byte	-103
	.byte	-1
	.byte	3
	.byte	-97
	.byte	0
	.byte	-97
	.byte	0
	.byte	4
	.byte	-56
	.half	256
	.byte	-57
	.byte	32
	.byte	82
	.byte	-40
	.byte	6
	.byte	2
	.byte	50
	.byte	0
	.byte	11
	.byte	1
	.byte	11
	.byte	1
	.byte	59
	.byte	1
	.byte	-69
	.byte	0
	.byte	107
	.byte	1
	.byte	-21
	.byte	2
	.byte	-21
	.byte	2
	.byte	2
	.byte	80
	.byte	0
	.byte	1
	.byte	0
	.byte	1
	.byte	1
	.byte	0
	.byte	0
	.byte	1
	.byte	2
	.byte	1
	.byte	-85
	.byte	1
	.byte	5
	.byte	53
	.zero	2
	.byte	1
	.byte	1
	.zero	2
	.byte	56
	.byte	-1
	.byte	32
	.byte	-1
	.byte	119
	.byte	3
	.byte	2
	.byte	64
	.byte	119
	.byte	3
	.byte	2
	.byte	-16
	.half	300
	.half	1200
	.half	1200
	.half	5
	.half	20000
	.byte	20
	.byte	0
	.text
.Letext0:
	.file 2 "/b-l/bl_iot_sdk/toolchain/riscv/Linux/lib/gcc/riscv64-unknown-elf/8.3.0/include/stdint-gcc.h"
	.file 3 "/b-l/bl_iot_sdk/toolchain/riscv/Linux/lib/gcc/riscv64-unknown-elf/8.3.0/include/stddef.h"
	.file 4 "/b-l/bl_iot_sdk/toolchain/riscv/Linux/riscv64-unknown-elf/include/sys/_types.h"
	.file 5 "/b-l/bl_iot_sdk/toolchain/riscv/Linux/riscv64-unknown-elf/include/sys/reent.h"
	.file 6 "/b-l/bl_iot_sdk/toolchain/riscv/Linux/riscv64-unknown-elf/include/sys/lock.h"
	.file 7 "/b-l/bl_iot_sdk/components/bl602/bl602_std/bl602_std/RISCV/Device/Bouffalo/BL602/Startup/system_bl602.h"
	.file 8 "/b-l/bl_iot_sdk/components/bl602/bl602_std/bl602_std/StdDriver/Inc/bl602_common.h"
	.file 9 "/b-l/bl_iot_sdk/components/bl602/bl602_std/bl602_std/StdDriver/Inc/bl602_sf_ctrl.h"
	.file 10 "/b-l/bl_iot_sdk/components/bl602/bl602_std/bl602_std/StdDriver/Inc/bl602_sflash.h"
	.file 11 "/b-l/bl_iot_sdk/components/bl602/bl602_std/bl602_std/StdDriver/Inc/bl602_sf_cfg.h"
	.file 12 "/b-l/bl_iot_sdk/components/bl602/bl602_std/bl602_std/StdDriver/Inc/bl602_xip_sflash.h"
	.file 13 "/b-l/bl_iot_sdk/components/bl602/bl602_std/bl602_std/Common/soft_crc/softcrc.h"