	.file	"bl602_sflash_ext.c"
	.option nopic
	.attribute arch, "rv32i2p0_m2p0_f2p0_c2p0"
	.attribute unaligned_access, 0
	.attribute stack_align, 16
	.text
.Ltext0:
	.cfi_sections	.debug_frame
	.section	.tcm_code,"ax",@progbits
	.align	1
	.globl	SFlash_Restore_From_Powerdown
	.type	SFlash_Restore_From_Powerdown, @function
SFlash_Restore_From_Powerdown:
.LFB8:
	.file 1 "/b-l/bl_iot_sdk/components/bl602/bl602_std/bl602_std/StdDriver/Src/bl602_sflash_ext.c"
	.loc 1 100 1
	.cfi_startproc
.LVL0:
	.loc 1 101 5
	.loc 1 102 5
	.loc 1 100 1 is_stmt 0
	addi	sp,sp,-32
	.cfi_def_cfa_offset 32
	sw	ra,28(sp)
	sw	s0,24(sp)
	sw	s2,16(sp)
	sw	s1,20(sp)
	.cfi_offset 1, -4
	.cfi_offset 8, -8
	.cfi_offset 18, -16
	.cfi_offset 9, -12
	.loc 1 100 1
	mv	s0,a0
	mv	s2,a1
	.loc 1 104 13
	lbu	s1,0(a0)
	.loc 1 102 14
	sw	zero,4(sp)
	.loc 1 103 5 is_stmt 1
	.loc 1 104 5
	.loc 1 107 5 is_stmt 0
	call	SFlash_Releae_Powerdown
.LVL1:
	.loc 1 108 5
	li	a0,120
	call	BL602_Delay_US
.LVL2:
	.loc 1 110 5
	addi	a1,sp,4
	mv	a0,s0
	.loc 1 104 13
	andi	s1,s1,15
.LVL3:
	.loc 1 107 5 is_stmt 1
	.loc 1 108 5
	.loc 1 110 5
	call	SFlash_GetJedecId
.LVL4:
	.loc 1 112 5
	.loc 1 112 7 is_stmt 0
	addi	a5,s1,-2
	andi	a5,a5,253
	bne	a5,zero,.L2
	.loc 1 113 9 is_stmt 1
	mv	a0,s0
	call	SFlash_Qspi_Enable
.LVL5:
.L2:
	.loc 1 116 5
	.loc 1 116 31 is_stmt 0
	lbu	a5,0(s0)
	srli	a5,a5,4
	.loc 1 116 7
	andi	a5,a5,1
	beq	a5,zero,.L3
	.loc 1 118 9 is_stmt 1
	li	a0,0
	call	L1C_Set_Wrap
.LVL6:
.L4:
	.loc 1 127 5
	.loc 1 127 7 is_stmt 0
	beq	s2,zero,.L5
	.loc 1 128 9 is_stmt 1
	.loc 1 128 14 is_stmt 0
	addi	a4,sp,8
	li	a3,0
	li	a2,1
	li	a5,8
	mv	a1,s1
	mv	a0,s0
	call	SFlash_Read
.LVL7:
	.loc 1 129 9 is_stmt 1
	.loc 1 129 14 is_stmt 0
	li	a4,32
	li	a3,0
	li	a2,1
.L8:
	.loc 1 131 14
	mv	a1,s1
	mv	a0,s0
	call	SFlash_Set_IDbus_Cfg
.LVL8:
	.loc 1 133 5 is_stmt 1
	.loc 1 134 1 is_stmt 0
	lw	ra,28(sp)
	.cfi_remember_state
	.cfi_restore 1
	lw	s0,24(sp)
	.cfi_restore 8
.LVL9:
	lw	s1,20(sp)
	.cfi_restore 9
.LVL10:
	lw	s2,16(sp)
	.cfi_restore 18
	addi	sp,sp,32
	.cfi_def_cfa_offset 0
	jr	ra
.LVL11:
.L3:
	.cfi_restore_state
	.loc 1 121 9 is_stmt 1
	li	a0,1
	call	L1C_Set_Wrap
.LVL12:
	.loc 1 123 9
	mv	a0,s0
	call	SFlash_Write_Enable
.LVL13:
	.loc 1 124 9
	mv	a0,s0
	call	SFlash_SetBurstWrap
.LVL14:
	j	.L4
.L5:
	.loc 1 131 9
	.loc 1 131 14 is_stmt 0
	li	a4,32
	li	a3,0
	li	a2,0
	j	.L8
	.cfi_endproc
.LFE8:
	.size	SFlash_Restore_From_Powerdown, .-SFlash_Restore_From_Powerdown
	.text
.Letext0:
	.file 2 "/b-l/bl_iot_sdk/toolchain/riscv/Linux/lib/gcc/riscv64-unknown-elf/8.3.0/include/stdint-gcc.h"
	.file 3 "/b-l/bl_iot_sdk/toolchain/riscv/Linux/lib/gcc/riscv64-unknown-elf/8.3.0/include/stddef.h"
	.file 4 "/b-l/bl_iot_sdk/toolchain/riscv/Linux/riscv64-unknown-elf/include/sys/_types.h"
	.file 5 "/b-l/bl_iot_sdk/toolchain/riscv/Linux/riscv64-unknown-elf/include/sys/reent.h"
	.file 6 "/b-l/bl_iot_sdk/toolchain/riscv/Linux/riscv64-unknown-elf/include/sys/lock.h"
	.file 7 "/b-l/bl_iot_sdk/components/bl602/bl602_std/bl602_std/RISCV/Device/Bouffalo/BL602/Startup/system_bl602.h"
	.file 8 "/b-l/bl_iot_sdk/components/bl602/bl602_std/bl602_std/StdDriver/Inc/bl602_common.h"
	.file 9 "/b-l/bl_iot_sdk/components/bl602/bl602_std/bl602_std/StdDriver/Inc/bl602_sf_ctrl.h"
	.file 10 "/b-l/bl_iot_sdk/components/bl602/bl602_std/bl602_std/StdDriver/Inc/bl602_sflash.h"
	.file 11 "/b-l/bl_iot_sdk/components/bl602/bl602_std/bl602_std/StdDriver/Inc/bl602_l1c.h"