	.file	"bl_sec.c"
	.option nopic
	.attribute arch, "rv32i2p0_m2p0_f2p0_c2p0"
	.attribute unaligned_access, 0
	.attribute stack_align, 16
	.text
.Ltext0:
	.cfi_sections	.debug_frame
	.section	.text._trng_trigger,"ax",@progbits
	.align	1
	.type	_trng_trigger, @function
_trng_trigger:
.LFB9:
	.file 1 "/b-l/bl_iot_sdk/components/hal_drv/bl602_hal/bl_sec.c"
	.loc 1 57 1
	.cfi_startproc
	.loc 1 58 5
.LVL0:
	.loc 1 59 5
	.loc 1 61 5
	.loc 1 61 9 is_stmt 0
	li	a5,1073758208
	lw	a4,512(a5)
.LVL1:
	.loc 1 62 5 is_stmt 1
	.loc 1 62 17 is_stmt 0
	andi	a3,a4,1
	.loc 1 62 8
	bne	a3,zero,.L1
	.loc 1 65 5 is_stmt 1
	.loc 1 65 56 is_stmt 0
	lui	a3,%hi(.LANCHOR0)
	addi	a3,a3,%lo(.LANCHOR0)
	lw	a2,0(a3)
	.loc 1 70 9
	ori	a4,a4,1542
.LVL2:
	.loc 1 65 43
	sw	a2,556(a5)
	.loc 1 66 5 is_stmt 1
	.loc 1 66 56 is_stmt 0
	lw	a3,4(a3)
	.loc 1 66 43
	sw	a3,560(a5)
	.loc 1 67 5 is_stmt 1
	.loc 1 68 5
	.loc 1 69 5
	.loc 1 70 5
.LVL3:
	.loc 1 72 5
	.loc 1 72 42 is_stmt 0
	sw	a4,512(a5)
.L1:
	.loc 1 73 1
	ret
	.cfi_endproc
.LFE9:
	.size	_trng_trigger, .-_trng_trigger
	.section	.text.wait_trng4feed,"ax",@progbits
	.align	1
	.type	wait_trng4feed, @function
wait_trng4feed:
.LFB10:
	.loc 1 76 1 is_stmt 1
	.cfi_startproc
	.loc 1 77 5
.LVL4:
	.loc 1 78 5
	.loc 1 80 5
	.loc 1 76 1 is_stmt 0
	addi	sp,sp,-16
	.cfi_def_cfa_offset 16
	sw	ra,12(sp)
	sw	s0,8(sp)
	.cfi_offset 1, -4
	.cfi_offset 8, -8
	.loc 1 80 9
	li	a5,1073758208
	lw	a5,512(a5)
.LVL5:
	.loc 1 82 5 is_stmt 1
	.loc 1 84 13 is_stmt 0
	li	a3,1073758208
.L4:
	.loc 1 82 20
	andi	a4,a5,1
	.loc 1 82 11
	bne	a4,zero,.L5
	.loc 1 87 5 is_stmt 1
.LVL6:
	.loc 1 88 5
	andi	a5,a5,-3
.LVL7:
	.loc 1 88 9 is_stmt 0
	ori	a5,a5,512
.LVL8:
	.loc 1 89 5 is_stmt 1
	.loc 1 89 42 is_stmt 0
	li	a4,1073758208
	sw	a5,512(a4)
	.loc 1 91 5 is_stmt 1
	.loc 1 91 43
	.loc 1 91 48
	.loc 1 91 71 is_stmt 0
	lui	a5,%hi(_fsymc_level_hal_drv)
.LVL9:
	.loc 1 91 51
	lbu	a4,%lo(_fsymc_level_hal_drv)(a5)
	lui	s0,%hi(.LANCHOR0)
	li	a5,1
	addi	s0,s0,%lo(.LANCHOR0)
	bgtu	a4,a5,.L6
	.loc 1 91 117 discriminator 3
	lui	a4,%hi(_fsymf_level_hal_drvbl_sec)
	.loc 1 91 96 discriminator 3
	lbu	a4,%lo(_fsymf_level_hal_drvbl_sec)(a4)
	bgtu	a4,a5,.L6
	.loc 1 91 152 is_stmt 1
.LBB18:
.LBB19:
	.file 2 "/b-l/bl_iot_sdk/components/bl602/freertos_riscv_ram/portable/GCC/RISC-V/portmacro.h"
	.loc 2 151 5
	.loc 2 151 31 is_stmt 0
	lui	a5,%hi(TrapNetCounter)
.LBE19:
.LBE18:
	.loc 1 91 152
	lw	a5,%lo(TrapNetCounter)(a5)
	beq	a5,zero,.L7
	.loc 1 91 247 discriminator 7
	call	xTaskGetTickCountFromISR
.LVL10:
.L8:
	.loc 1 91 152 discriminator 10
	lw	a5,0(s0)
	lui	a3,%hi(.LC0)
	lui	a2,%hi(.LC1)
	mv	a1,a0
	lui	a0,%hi(.LC2)
	li	a4,91
	addi	a3,a3,%lo(.LC0)
	addi	a2,a2,%lo(.LC1)
	addi	a0,a0,%lo(.LC2)
	call	bl_printk
.LVL11:
.L6:
	.loc 1 91 357 is_stmt 1 discriminator 11
	.loc 1 92 5 discriminator 11
	.loc 1 92 23 is_stmt 0 discriminator 11
	li	a5,1073758208
	lw	a4,520(a5)
	.loc 1 100 1 discriminator 11
	lw	ra,12(sp)
	.cfi_remember_state
	.cfi_restore 1
	.loc 1 92 20 discriminator 11
	sw	a4,0(s0)
	.loc 1 93 5 is_stmt 1 discriminator 11
	.loc 1 93 23 is_stmt 0 discriminator 11
	lw	a4,524(a5)
	.loc 1 93 20 discriminator 11
	sw	a4,4(s0)
	.loc 1 94 5 is_stmt 1 discriminator 11
	.loc 1 94 23 is_stmt 0 discriminator 11
	lw	a4,528(a5)
	.loc 1 94 20 discriminator 11
	sw	a4,8(s0)
	.loc 1 95 5 is_stmt 1 discriminator 11
	.loc 1 95 23 is_stmt 0 discriminator 11
	lw	a4,532(a5)
	.loc 1 95 20 discriminator 11
	sw	a4,12(s0)
	.loc 1 96 5 is_stmt 1 discriminator 11
	.loc 1 96 23 is_stmt 0 discriminator 11
	lw	a4,536(a5)
	.loc 1 96 20 discriminator 11
	sw	a4,16(s0)
	.loc 1 97 5 is_stmt 1 discriminator 11
	.loc 1 97 23 is_stmt 0 discriminator 11
	lw	a4,540(a5)
	.loc 1 97 20 discriminator 11
	sw	a4,20(s0)
	.loc 1 98 5 is_stmt 1 discriminator 11
	.loc 1 98 23 is_stmt 0 discriminator 11
	lw	a4,544(a5)
	.loc 1 98 20 discriminator 11
	sw	a4,24(s0)
	.loc 1 99 5 is_stmt 1 discriminator 11
	.loc 1 99 23 is_stmt 0 discriminator 11
	lw	a5,548(a5)
	.loc 1 99 20 discriminator 11
	sw	a5,28(s0)
	.loc 1 100 1 discriminator 11
	lw	s0,8(sp)
	.cfi_restore 8
	addi	sp,sp,16
	.cfi_def_cfa_offset 0
	jr	ra
.LVL12:
.L5:
	.cfi_restore_state
	.loc 1 84 9 is_stmt 1
	.loc 1 84 13 is_stmt 0
	lw	a5,512(a3)
.LVL13:
	j	.L4
.LVL14:
.L7:
	.loc 1 91 276 discriminator 8
	call	xTaskGetTickCount
.LVL15:
	j	.L8
	.cfi_endproc
.LFE10:
	.size	wait_trng4feed, .-wait_trng4feed
	.section	.text.sec_trng_IRQHandler,"ax",@progbits
	.align	1
	.globl	sec_trng_IRQHandler
	.type	sec_trng_IRQHandler, @function
sec_trng_IRQHandler:
.LFB14:
	.loc 1 158 1 is_stmt 1
	.cfi_startproc
	.loc 1 159 5
.LVL16:
	.loc 1 160 5
	.loc 1 162 5
	.loc 1 158 1 is_stmt 0
	addi	sp,sp,-16
	.cfi_def_cfa_offset 16
	sw	ra,12(sp)
	sw	s0,8(sp)
	.cfi_offset 1, -4
	.cfi_offset 8, -8
	.loc 1 162 9
	call	aos_now_ms
.LVL17:
	.loc 1 162 8
	bgt	a1,zero,.L11
	bne	a1,zero,.L16
	li	a5,1999
	bgtu	a0,a5,.L11
.L16:
	.loc 1 164 9 is_stmt 1
	lui	a0,%hi(.LC3)
	addi	a0,a0,%lo(.LC3)
	call	puts
.LVL18:
.L11:
	.loc 1 166 5
	.loc 1 166 9 is_stmt 0
	li	a4,1073758208
	lw	a5,512(a4)
.LVL19:
	.loc 1 167 5 is_stmt 1
	.loc 1 168 5
	lui	s0,%hi(.LANCHOR0)
	addi	s0,s0,%lo(.LANCHOR0)
	andi	a5,a5,-3
.LVL20:
	.loc 1 168 9 is_stmt 0
	ori	a5,a5,512
.LVL21:
	.loc 1 169 5 is_stmt 1
	.loc 1 169 42 is_stmt 0
	sw	a5,512(a4)
	.loc 1 171 5 is_stmt 1
	.loc 1 171 43
	.loc 1 171 48
	.loc 1 171 71 is_stmt 0
	lui	a5,%hi(_fsymc_level_hal_drv)
.LVL22:
	.loc 1 171 51
	lbu	a4,%lo(_fsymc_level_hal_drv)(a5)
.LVL23:
	li	a5,1
	bgtu	a4,a5,.L13
	.loc 1 171 117 discriminator 3
	lui	a4,%hi(_fsymf_level_hal_drvbl_sec)
	.loc 1 171 96 discriminator 3
	lbu	a4,%lo(_fsymf_level_hal_drvbl_sec)(a4)
	bgtu	a4,a5,.L13
	.loc 1 171 152 is_stmt 1
.LBB20:
.LBB21:
	.loc 2 151 5
	.loc 2 151 31 is_stmt 0
	lui	a5,%hi(TrapNetCounter)
.LBE21:
.LBE20:
	.loc 1 171 152
	lw	a5,%lo(TrapNetCounter)(a5)
	beq	a5,zero,.L14
	.loc 1 171 242 discriminator 7
	call	xTaskGetTickCountFromISR
.LVL24:
.L15:
	.loc 1 171 152 discriminator 10
	lw	a5,0(s0)
	lui	a3,%hi(.LC0)
	lui	a2,%hi(.LC1)
	mv	a1,a0
	lui	a0,%hi(.LC4)
	li	a4,171
	addi	a3,a3,%lo(.LC0)
	addi	a2,a2,%lo(.LC1)
	addi	a0,a0,%lo(.LC4)
	call	bl_printk
.LVL25:
.L13:
	.loc 1 171 353 is_stmt 1 discriminator 11
	.loc 1 172 5 discriminator 11
	.loc 1 172 23 is_stmt 0 discriminator 11
	li	a5,1073758208
	lw	a4,520(a5)
	.loc 1 180 1 discriminator 11
	lw	ra,12(sp)
	.cfi_remember_state
	.cfi_restore 1
	.loc 1 172 20 discriminator 11
	sw	a4,0(s0)
	.loc 1 173 5 is_stmt 1 discriminator 11
	.loc 1 173 23 is_stmt 0 discriminator 11
	lw	a4,524(a5)
	.loc 1 173 20 discriminator 11
	sw	a4,4(s0)
	.loc 1 174 5 is_stmt 1 discriminator 11
	.loc 1 174 23 is_stmt 0 discriminator 11
	lw	a4,528(a5)
	.loc 1 174 20 discriminator 11
	sw	a4,8(s0)
	.loc 1 175 5 is_stmt 1 discriminator 11
	.loc 1 175 23 is_stmt 0 discriminator 11
	lw	a4,532(a5)
	.loc 1 175 20 discriminator 11
	sw	a4,12(s0)
	.loc 1 176 5 is_stmt 1 discriminator 11
	.loc 1 176 23 is_stmt 0 discriminator 11
	lw	a4,536(a5)
	.loc 1 176 20 discriminator 11
	sw	a4,16(s0)
	.loc 1 177 5 is_stmt 1 discriminator 11
	.loc 1 177 23 is_stmt 0 discriminator 11
	lw	a4,540(a5)
	.loc 1 177 20 discriminator 11
	sw	a4,20(s0)
	.loc 1 178 5 is_stmt 1 discriminator 11
	.loc 1 178 23 is_stmt 0 discriminator 11
	lw	a4,544(a5)
	.loc 1 178 20 discriminator 11
	sw	a4,24(s0)
	.loc 1 179 5 is_stmt 1 discriminator 11
	.loc 1 179 23 is_stmt 0 discriminator 11
	lw	a5,548(a5)
	.loc 1 179 20 discriminator 11
	sw	a5,28(s0)
	.loc 1 180 1 discriminator 11
	lw	s0,8(sp)
	.cfi_restore 8
	addi	sp,sp,16
	.cfi_def_cfa_offset 0
	jr	ra
.LVL26:
.L14:
	.cfi_restore_state
	.loc 1 171 271 discriminator 8
	call	xTaskGetTickCount
.LVL27:
	j	.L15
	.cfi_endproc
.LFE14:
	.size	sec_trng_IRQHandler, .-sec_trng_IRQHandler
	.section	.text.bl_sec_pka_IRQHandler,"ax",@progbits
	.align	1
	.globl	bl_sec_pka_IRQHandler
	.type	bl_sec_pka_IRQHandler, @function
bl_sec_pka_IRQHandler:
.LFB24:
	.loc 1 777 1 is_stmt 1
	.cfi_startproc
	.loc 1 778 5
	lui	a0,%hi(.LC5)
	.loc 1 777 1 is_stmt 0
	addi	sp,sp,-16
	.cfi_def_cfa_offset 16
	.loc 1 778 5
	addi	a0,a0,%lo(.LC5)
	.loc 1 777 1
	sw	ra,12(sp)
	.cfi_offset 1, -4
	.loc 1 778 5
	call	puts
.LVL28:
	.loc 1 779 5 is_stmt 1
	.loc 1 780 1 is_stmt 0
	lw	ra,12(sp)
	.cfi_restore 1
	.loc 1 779 5
	li	a1,1
	.loc 1 780 1
	.loc 1 779 5
	li	a0,3
	.loc 1 780 1
	addi	sp,sp,16
	.cfi_def_cfa_offset 0
	.loc 1 779 5
	tail	SEC_Eng_IntMask
.LVL29:
	.cfi_endproc
.LFE24:
	.size	bl_sec_pka_IRQHandler, .-bl_sec_pka_IRQHandler
	.section	.text.bl_sec_get_random_word,"ax",@progbits
	.align	1
	.globl	bl_sec_get_random_word
	.type	bl_sec_get_random_word, @function
bl_sec_get_random_word:
.LFB11:
	.loc 1 103 1 is_stmt 1
	.cfi_startproc
	.loc 1 104 5
	.loc 1 103 1 is_stmt 0
	addi	sp,sp,-16
	.cfi_def_cfa_offset 16
	.loc 1 104 26
	lui	a5,%hi(.LANCHOR1)
	.loc 1 103 1
	sw	s1,4(sp)
	sw	ra,12(sp)
	sw	s0,8(sp)
	.cfi_offset 9, -12
	.cfi_offset 1, -4
	.cfi_offset 8, -8
	.loc 1 104 26
	addi	a4,a5,%lo(.LANCHOR1)
	lw	s0,0(a4)
	addi	s1,a5,%lo(.LANCHOR1)
	andi	s0,s0,7
	.loc 1 104 14
	sw	s0,0(a4)
	.loc 1 105 5 is_stmt 1
	.loc 1 105 8 is_stmt 0
	bne	s0,zero,.L21
	.loc 1 106 9 is_stmt 1
	call	_trng_trigger
.LVL30:
.L21:
	.loc 1 108 5
	.loc 1 108 32 is_stmt 0
	addi	a5,s0,1
	sw	a5,0(s1)
	.loc 1 108 23
	lui	a5,%hi(.LANCHOR0)
	slli	s0,s0,2
	addi	a5,a5,%lo(.LANCHOR0)
	add	s0,a5,s0
	.loc 1 109 1
	lw	a0,0(s0)
	lw	ra,12(sp)
	.cfi_restore 1
	lw	s0,8(sp)
	.cfi_restore 8
	lw	s1,4(sp)
	.cfi_restore 9
	addi	sp,sp,16
	.cfi_def_cfa_offset 0
	jr	ra
	.cfi_endproc
.LFE11:
	.size	bl_sec_get_random_word, .-bl_sec_get_random_word
	.section	.text.bl_rand_stream,"ax",@progbits
	.align	1
	.globl	bl_rand_stream
	.type	bl_rand_stream, @function
bl_rand_stream:
.LFB12:
	.loc 1 112 1 is_stmt 1
	.cfi_startproc
.LVL31:
	.loc 1 113 5
	.loc 1 115 5
	.loc 1 116 5
	.loc 1 112 1 is_stmt 0
	addi	sp,sp,-48
	.cfi_def_cfa_offset 48
	sw	s0,40(sp)
	.cfi_offset 8, -8
	.loc 1 116 9
	lui	s0,%hi(.LANCHOR1)
	.loc 1 116 8
	lw	a5,%lo(.LANCHOR1)(s0)
	.loc 1 112 1
	sw	s1,36(sp)
	sw	s4,24(sp)
	sw	ra,44(sp)
	sw	s2,32(sp)
	sw	s3,28(sp)
	sw	s5,20(sp)
	sw	s6,16(sp)
	sw	s7,12(sp)
	.cfi_offset 9, -12
	.cfi_offset 20, -24
	.cfi_offset 1, -4
	.cfi_offset 18, -16
	.cfi_offset 19, -20
	.cfi_offset 21, -28
	.cfi_offset 22, -32
	.cfi_offset 23, -36
	.loc 1 112 1
	mv	s4,a0
	mv	s1,a1
	addi	s0,s0,%lo(.LANCHOR1)
	.loc 1 116 8
	beq	a5,zero,.L24
	.loc 1 118 9 is_stmt 1
	call	_trng_trigger
.LVL32:
	.loc 1 119 9
	call	wait_trng4feed
.LVL33:
	.loc 1 120 9
	.loc 1 120 18 is_stmt 0
	sw	zero,0(s0)
.L24:
	.loc 1 112 1
	li	s3,0
	.loc 1 130 18
	li	s5,32
	.loc 1 131 9
	lui	s6,%hi(.LANCHOR0)
	.loc 1 134 18
	li	s7,31
.LVL34:
.L25:
	.loc 1 123 11
	bgt	s1,zero,.L28
	.loc 1 136 5 is_stmt 1
	call	_trng_trigger
.LVL35:
	.loc 1 137 5
	call	wait_trng4feed
.LVL36:
	.loc 1 138 5
	.loc 1 139 1 is_stmt 0
	lw	ra,44(sp)
	.cfi_remember_state
	.cfi_restore 1
	.loc 1 138 14
	sw	zero,0(s0)
	.loc 1 139 1
	lw	s0,40(sp)
	.cfi_restore 8
	lw	s1,36(sp)
	.cfi_restore 9
.LVL37:
	lw	s2,32(sp)
	.cfi_restore 18
	lw	s3,28(sp)
	.cfi_restore 19
.LVL38:
	lw	s4,24(sp)
	.cfi_restore 20
.LVL39:
	lw	s5,20(sp)
	.cfi_restore 21
	lw	s6,16(sp)
	.cfi_restore 22
	lw	s7,12(sp)
	.cfi_restore 23
	addi	sp,sp,48
	.cfi_def_cfa_offset 0
	jr	ra
.LVL40:
.L28:
	.cfi_restore_state
	.loc 1 124 9 is_stmt 1
	.loc 1 124 12 is_stmt 0
	lw	a5,0(s0)
	beq	a5,zero,.L26
	.loc 1 126 13 is_stmt 1
	call	_trng_trigger
.LVL41:
	.loc 1 127 13
	call	wait_trng4feed
.LVL42:
	.loc 1 128 13
	.loc 1 128 22 is_stmt 0
	sw	zero,0(s0)
.L26:
	.loc 1 130 9 is_stmt 1
	.loc 1 130 18 is_stmt 0
	mv	s2,s1
	ble	s1,s5,.L27
	li	s2,32
.L27:
.LVL43:
	.loc 1 131 9 is_stmt 1
	add	a0,s4,s3
	mv	a2,s2
	addi	a1,s6,%lo(.LANCHOR0)
	call	memcpy
.LVL44:
	.loc 1 132 9
	.loc 1 132 13 is_stmt 0
	add	s3,s3,s2
.LVL45:
	.loc 1 133 9 is_stmt 1
	.loc 1 133 13 is_stmt 0
	sub	s1,s1,s2
.LVL46:
	.loc 1 134 9 is_stmt 1
	.loc 1 134 18 is_stmt 0
	sw	s7,0(s0)
	j	.L25
	.cfi_endproc
.LFE12:
	.size	bl_rand_stream, .-bl_rand_stream
	.section	.text.bl_rand,"ax",@progbits
	.align	1
	.globl	bl_rand
	.type	bl_rand, @function
bl_rand:
.LFB13:
	.loc 1 142 1 is_stmt 1
	.cfi_startproc
	.loc 1 143 5
	.loc 1 144 5
.LVL47:
	.loc 1 142 1 is_stmt 0
	addi	sp,sp,-16
	.cfi_def_cfa_offset 16
	sw	s0,8(sp)
	sw	ra,12(sp)
	sw	s1,4(sp)
	.cfi_offset 8, -8
	.cfi_offset 1, -4
	.cfi_offset 9, -12
	.loc 1 142 1
	li	s0,19
.LVL48:
.L39:
	.loc 1 146 5 is_stmt 1
	.loc 1 147 9
	.loc 1 147 15 is_stmt 0
	call	bl_sec_get_random_word
.LVL49:
	addi	s0,s0,-1
.LVL50:
	mv	s1,a0
.LVL51:
	.loc 1 148 9 is_stmt 1
	.loc 1 148 12 is_stmt 0
	bne	s0,zero,.L37
	.loc 1 149 13 is_stmt 1
	lui	a0,%hi(.LC6)
	addi	a0,a0,%lo(.LC6)
	call	puts
.LVL52:
	.loc 1 150 13
.L38:
	.loc 1 153 5
	.loc 1 154 5
	.loc 1 155 1 is_stmt 0
	lw	ra,12(sp)
	.cfi_remember_state
	.cfi_restore 1
	lw	s0,8(sp)
	.cfi_restore 8
	srli	a0,s1,1
.LVL53:
	lw	s1,4(sp)
	.cfi_restore 9
	addi	sp,sp,16
	.cfi_def_cfa_offset 0
	jr	ra
.LVL54:
.L37:
	.cfi_restore_state
	.loc 1 152 5
	beq	a0,zero,.L39
	j	.L38
	.cfi_endproc
.LFE13:
	.size	bl_rand, .-bl_rand
	.section	.text.bl_sec_init,"ax",@progbits
	.align	1
	.globl	bl_sec_init
	.type	bl_sec_init, @function
bl_sec_init:
.LFB15:
	.loc 1 183 1 is_stmt 1
	.cfi_startproc
	.loc 1 184 5
	.loc 1 184 26 is_stmt 0
	lui	a1,%hi(.LANCHOR2)
	.loc 1 183 1
	addi	sp,sp,-16
	.cfi_def_cfa_offset 16
	.loc 1 184 26
	addi	a1,a1,%lo(.LANCHOR2)
	li	a0,1
	.loc 1 183 1
	sw	ra,12(sp)
	.cfi_offset 1, -4
	.loc 1 184 26
	call	xQueueCreateMutexStatic
.LVL55:
	.loc 1 184 24
	lui	a5,%hi(.LANCHOR3)
	sw	a0,%lo(.LANCHOR3)(a5)
	.loc 1 185 5 is_stmt 1
	call	_trng_trigger
.LVL56:
	.loc 1 186 5
	call	wait_trng4feed
.LVL57:
	.loc 1 188 5
	call	_trng_trigger
.LVL58:
	.loc 1 189 5
	call	wait_trng4feed
.LVL59:
	.loc 1 190 5
	lui	a1,%hi(sec_trng_IRQHandler)
	addi	a1,a1,%lo(sec_trng_IRQHandler)
	li	a0,28
	call	bl_irq_register
.LVL60:
	.loc 1 191 5
	li	a0,28
	call	bl_irq_enable
.LVL61:
	.loc 1 193 5
	.loc 1 194 1 is_stmt 0
	lw	ra,12(sp)
	.cfi_restore 1
	li	a0,0
	addi	sp,sp,16
	.cfi_def_cfa_offset 0
	jr	ra
	.cfi_endproc
.LFE15:
	.size	bl_sec_init, .-bl_sec_init
	.section	.text.bl_exp_mod,"ax",@progbits
	.align	1
	.globl	bl_exp_mod
	.type	bl_exp_mod, @function
bl_exp_mod:
.LFB16:
	.loc 1 197 1 is_stmt 1
	.cfi_startproc
.LVL62:
	.loc 1 198 5
	.loc 1 199 1 is_stmt 0
	li	a0,0
.LVL63:
	ret
	.cfi_endproc
.LFE16:
	.size	bl_exp_mod, .-bl_exp_mod
	.section	.text.bl_sec_test,"ax",@progbits
	.align	1
	.globl	bl_sec_test
	.type	bl_sec_test, @function
bl_sec_test:
.LFB17:
	.loc 1 202 1 is_stmt 1
	.cfi_startproc
	.loc 1 203 5
	lui	a0,%hi(.LC7)
	.loc 1 202 1 is_stmt 0
	addi	sp,sp,-16
	.cfi_def_cfa_offset 16
	.loc 1 203 5
	addi	a0,a0,%lo(.LC7)
	.loc 1 202 1
	sw	ra,12(sp)
	sw	s0,8(sp)
	.cfi_offset 1, -4
	.cfi_offset 8, -8
	.loc 1 203 5
	call	bl_printk
.LVL64:
	.loc 1 204 5 is_stmt 1
	call	bl_rand
.LVL65:
	lui	s0,%hi(.LC8)
	mv	a1,a0
	addi	a0,s0,%lo(.LC8)
	call	bl_printk
.LVL66:
	.loc 1 205 5
	call	bl_rand
.LVL67:
	mv	a1,a0
	addi	a0,s0,%lo(.LC8)
	call	bl_printk
.LVL68:
	.loc 1 206 5
	lui	a0,%hi(.LC9)
	addi	a0,a0,%lo(.LC9)
	call	bl_printk
.LVL69:
	.loc 1 208 5
	.loc 1 209 1 is_stmt 0
	lw	ra,12(sp)
	.cfi_restore 1
	lw	s0,8(sp)
	.cfi_restore 8
	li	a0,0
	addi	sp,sp,16
	.cfi_def_cfa_offset 0
	jr	ra
	.cfi_endproc
.LFE17:
	.size	bl_sec_test, .-bl_sec_test
	.section	.text._dump_rsa_data,"ax",@progbits
	.align	1
	.globl	_dump_rsa_data
	.type	_dump_rsa_data, @function
_dump_rsa_data:
.LFB18:
	.loc 1 212 1 is_stmt 1
	.cfi_startproc
.LVL70:
	.loc 1 213 5
	.loc 1 215 5
	.loc 1 212 1 is_stmt 0
	addi	sp,sp,-48
	.cfi_def_cfa_offset 48
	sw	s0,40(sp)
	sw	s1,36(sp)
	sw	s3,28(sp)
	sw	s4,24(sp)
	sw	s5,20(sp)
	sw	s6,16(sp)
	sw	s7,12(sp)
	sw	ra,44(sp)
	sw	s2,32(sp)
	.cfi_offset 8, -8
	.cfi_offset 9, -12
	.cfi_offset 19, -20
	.cfi_offset 20, -24
	.cfi_offset 21, -28
	.cfi_offset 22, -32
	.cfi_offset 23, -36
	.cfi_offset 1, -4
	.cfi_offset 18, -16
	.loc 1 212 1
	mv	s4,a0
	mv	s3,a1
	.loc 1 215 12
	li	s0,0
	lui	s1,%hi(.LC11)
	.loc 1 219 17
	lui	s5,%hi(.LC10)
	.loc 1 216 9
	li	s6,15
	.loc 1 226 17
	lui	s7,%hi(.LC12)
.LVL71:
.L49:
	.loc 1 215 5 discriminator 1
	blt	s0,s3,.L54
	.loc 1 235 1
	lw	ra,44(sp)
	.cfi_remember_state
	.cfi_restore 1
	lw	s0,40(sp)
	.cfi_restore 8
.LVL72:
	lw	s1,36(sp)
	.cfi_restore 9
	lw	s2,32(sp)
	.cfi_restore 18
	lw	s3,28(sp)
	.cfi_restore 19
.LVL73:
	lw	s4,24(sp)
	.cfi_restore 20
.LVL74:
	lw	s5,20(sp)
	.cfi_restore 21
	lw	s6,16(sp)
	.cfi_restore 22
	lw	s7,12(sp)
	.cfi_restore 23
	addi	sp,sp,48
	.cfi_def_cfa_offset 0
	jr	ra
.LVL75:
.L54:
	.cfi_restore_state
	.loc 1 216 9 is_stmt 1
	.loc 1 216 19 is_stmt 0
	andi	a5,s0,15
	add	s2,s4,s0
	.loc 1 216 9
	beq	a5,zero,.L50
	beq	a5,s6,.L51
.L55:
	.loc 1 231 17 is_stmt 1
	lbu	a1,0(s2)
	addi	a0,s1,%lo(.LC11)
	call	bl_printk
.LVL76:
	j	.L53
.L50:
	.loc 1 219 17
	mv	a1,s0
	addi	a0,s5,%lo(.LC10)
	call	bl_printk
.LVL77:
	.loc 1 220 17
	j	.L55
.L51:
	.loc 1 225 17
	lbu	a1,0(s2)
	addi	a0,s1,%lo(.LC11)
	call	bl_printk
.LVL78:
	.loc 1 226 17
	addi	a0,s7,%lo(.LC12)
	call	puts
.LVL79:
	.loc 1 228 13
.L53:
	.loc 1 215 28 is_stmt 0 discriminator 2
	addi	s0,s0,1
.LVL80:
	j	.L49
	.cfi_endproc
.LFE18:
	.size	_dump_rsa_data, .-_dump_rsa_data
	.section	.text._pka_test_case_xgcd,"ax",@progbits
	.align	1
	.type	_pka_test_case_xgcd, @function
_pka_test_case_xgcd:
.LFB22:
	.loc 1 486 1 is_stmt 1
	.cfi_startproc
	.loc 1 487 5
.LVL81:
	.loc 1 488 5
	.loc 1 544 5
	.loc 1 562 5
	.loc 1 580 5
	.loc 1 581 5
	.loc 1 486 1 is_stmt 0
	addi	sp,sp,-288
	.cfi_def_cfa_offset 288
	sw	ra,284(sp)
	sw	s0,280(sp)
	sw	s1,276(sp)
	.cfi_offset 1, -4
	.cfi_offset 8, -8
	.cfi_offset 9, -12
	.loc 1 581 13
	sb	zero,15(sp)
	.loc 1 584 5 is_stmt 1
	.loc 1 585 5
	call	Sec_Eng_PKA_Reset
.LVL82:
	.loc 1 586 5
	call	Sec_Eng_PKA_BigEndian_Enable
.LVL83:
	.loc 1 588 5
	lui	a2,%hi(.LANCHOR4)
	li	a4,0
	li	a3,64
	addi	a2,a2,%lo(.LANCHOR4)
	li	a1,1
	li	a0,8
	call	Sec_Eng_PKA_Write_Data
.LVL84:
	.loc 1 589 5
	li	a3,0
	li	a2,0
	li	a1,2
	li	a0,8
	call	Sec_Eng_PKA_CREG
.LVL85:
	.loc 1 590 5
	li	a3,1
	li	a2,0
	li	a1,3
	li	a0,8
	call	Sec_Eng_PKA_CREG
.LVL86:
	.loc 1 591 5
	lui	s0,%hi(.LANCHOR5)
	li	a4,0
	li	a3,64
	addi	a2,s0,%lo(.LANCHOR5)
	li	a1,0
	li	a0,8
	call	Sec_Eng_PKA_Write_Data
.LVL87:
	.loc 1 594 5
	li	a4,4096
	li	a5,0
	addi	a4,a4,-2048
	li	a3,0
	li	a2,8
	li	a1,1
	li	a0,10
	call	Sec_Eng_PKA_LMUL2N
.LVL88:
	.loc 1 600 5
	li	a6,0
	li	a5,1
	li	a4,8
	li	a3,1
	li	a2,10
	li	a1,0
	li	a0,8
	call	Sec_Eng_PKA_LDIV
.LVL89:
	.loc 1 606 5
	li	a6,0
	li	a5,1
	li	a4,8
	li	a3,1
	li	a2,10
	li	a1,4
	li	a0,8
	call	Sec_Eng_PKA_MREM
.LVL90:
	.loc 1 612 5
	li	a3,1
	li	a2,0
	li	a1,1
	li	a0,10
	call	Sec_Eng_PKA_CREG
.LVL91:
	.loc 1 613 5
	li	a4,0
	li	a3,1
	li	a2,8
	li	a1,2
	li	a0,8
	call	Sec_Eng_PKA_Move_Data
.LVL92:
	.loc 1 618 5
	li	a4,1
	li	a3,4
	li	a2,8
	li	a1,1
	li	a0,8
	call	Sec_Eng_PKA_Move_Data
.LVL93:
	.loc 1 623 5
	lui	s1,%hi(.LANCHOR6)
	li	a4,0
	li	a3,64
	addi	a2,s1,%lo(.LANCHOR6)
	li	a1,4
	li	a0,8
	call	Sec_Eng_PKA_Write_Data
.LVL94:
	.loc 1 624 5
	li	a4,0
	li	a3,64
	addi	a2,s0,%lo(.LANCHOR5)
	li	a1,5
	li	a0,8
	call	Sec_Eng_PKA_Write_Data
.LVL95:
	.loc 1 625 5
	li	a4,0
	li	a3,64
	addi	a2,s0,%lo(.LANCHOR5)
	li	a1,6
	li	a0,8
	call	Sec_Eng_PKA_Write_Data
.LVL96:
	.loc 1 626 5
	li	a4,0
	li	a3,64
	addi	a2,s1,%lo(.LANCHOR6)
	li	a1,7
	li	a0,8
	call	Sec_Eng_PKA_Write_Data
.LVL97:
	.loc 1 628 5
	li	a6,0
	li	a5,5
	li	a4,8
	li	a3,0
	li	a2,8
	li	a1,8
	li	a0,8
	call	Sec_Eng_PKA_LMUL
.LVL98:
	.loc 1 634 5
	li	a6,0
	li	a5,8
	li	a4,8
	li	a3,4
	li	a2,8
	li	a1,8
	li	a0,8
	call	Sec_Eng_PKA_LSUB
.LVL99:
	.loc 1 640 5
	li	a6,0
	li	a5,7
	li	a4,8
	li	a3,0
	li	a2,8
	li	a1,9
	li	a0,8
	call	Sec_Eng_PKA_LMUL
.LVL100:
	.loc 1 646 5
	li	a6,0
	li	a5,9
	li	a4,8
	li	a3,6
	li	a2,8
	li	a1,9
	li	a0,8
	call	Sec_Eng_PKA_LSUB
.LVL101:
	.loc 1 652 5
	li	a4,0
	li	a3,5
	li	a2,8
	li	a1,4
	li	a0,8
	call	Sec_Eng_PKA_Move_Data
.LVL102:
	.loc 1 657 5
	li	a4,0
	li	a3,8
	li	a2,8
	li	a1,5
	li	a0,8
	call	Sec_Eng_PKA_Move_Data
.LVL103:
	.loc 1 662 5
	li	a4,0
	li	a3,7
	li	a2,8
	li	a1,6
	li	a0,8
	call	Sec_Eng_PKA_Move_Data
.LVL104:
	.loc 1 667 5
	li	a4,1
	li	a3,9
	li	a2,8
	li	a1,7
	li	a0,8
	call	Sec_Eng_PKA_Move_Data
.LVL105:
	.loc 1 677 5
.L58:
	.loc 1 677 11 is_stmt 0
	lbu	a5,15(sp)
	beq	a5,zero,.L59
	.loc 1 755 5 is_stmt 1
	addi	a2,sp,16
	li	a3,64
	li	a1,6
	li	a0,8
	call	Sec_Eng_PKA_Read_Data
.LVL106:
	.loc 1 760 5
	addi	a0,sp,16
	li	a1,256
	call	_dump_rsa_data
.LVL107:
	.loc 1 762 1 is_stmt 0
	lw	ra,284(sp)
	.cfi_remember_state
	.cfi_restore 1
	lw	s0,280(sp)
	.cfi_restore 8
	lw	s1,276(sp)
	.cfi_restore 9
	addi	sp,sp,288
	.cfi_def_cfa_offset 0
	jr	ra
.L59:
	.cfi_restore_state
	.loc 1 678 9 is_stmt 1
	li	a6,0
	li	a5,1
	li	a4,8
	li	a3,2
	li	a2,8
	li	a1,0
	li	a0,8
	call	Sec_Eng_PKA_LDIV
.LVL108:
	.loc 1 684 9
	li	a6,0
	li	a5,1
	li	a4,8
	li	a3,2
	li	a2,8
	li	a1,3
	li	a0,8
	call	Sec_Eng_PKA_MREM
.LVL109:
	.loc 1 690 9
	li	a6,0
	li	a5,5
	li	a4,8
	li	a3,0
	li	a2,8
	li	a1,8
	li	a0,8
	call	Sec_Eng_PKA_LMUL
.LVL110:
	.loc 1 696 9
	li	a6,0
	li	a5,8
	li	a4,8
	li	a3,4
	li	a2,8
	li	a1,8
	li	a0,8
	call	Sec_Eng_PKA_LSUB
.LVL111:
	.loc 1 702 9
	li	a6,0
	li	a5,7
	li	a4,8
	li	a3,0
	li	a2,8
	li	a1,9
	li	a0,8
	call	Sec_Eng_PKA_LMUL
.LVL112:
	.loc 1 708 9
	li	a6,0
	li	a5,9
	li	a4,8
	li	a3,6
	li	a2,8
	li	a1,9
	li	a0,8
	call	Sec_Eng_PKA_LSUB
.LVL113:
	.loc 1 714 9
	li	a4,0
	li	a3,1
	li	a2,8
	li	a1,2
	li	a0,8
	call	Sec_Eng_PKA_Move_Data
.LVL114:
	.loc 1 719 9
	li	a4,0
	li	a3,5
	li	a2,8
	li	a1,4
	li	a0,8
	call	Sec_Eng_PKA_Move_Data
.LVL115:
	.loc 1 724 9
	li	a4,0
	li	a3,8
	li	a2,8
	li	a1,5
	li	a0,8
	call	Sec_Eng_PKA_Move_Data
.LVL116:
	.loc 1 729 9
	li	a4,0
	li	a3,7
	li	a2,8
	li	a1,6
	li	a0,8
	call	Sec_Eng_PKA_Move_Data
.LVL117:
	.loc 1 734 9
	li	a4,1
	li	a3,9
	li	a2,8
	li	a1,7
	li	a0,8
	call	Sec_Eng_PKA_Move_Data
.LVL118:
	.loc 1 739 9
	li	a4,1
	li	a3,3
	li	a2,8
	li	a1,1
	li	a0,8
	call	Sec_Eng_PKA_Move_Data
.LVL119:
	.loc 1 744 9
	addi	a2,s0,%lo(.LANCHOR5)
	li	a4,0
	li	a3,64
	li	a1,10
	li	a0,8
	call	Sec_Eng_PKA_Write_Data
.LVL120:
	.loc 1 745 9
	li	a4,10
	li	a3,8
	li	a2,1
	li	a1,8
	addi	a0,sp,15
	call	Sec_Eng_PKA_LCMP
.LVL121:
	j	.L58
	.cfi_endproc
.LFE22:
	.size	_pka_test_case_xgcd, .-_pka_test_case_xgcd
	.section	.text._pka_test_case2,"ax",@progbits
	.align	1
	.type	_pka_test_case2, @function
_pka_test_case2:
.LFB20:
	.loc 1 260 1
	.cfi_startproc
	.loc 1 261 5
	.loc 1 279 5
	.loc 1 297 5
	.loc 1 300 5
	.loc 1 318 5
	.loc 1 336 5
	.loc 1 337 5
	.loc 1 356 5
	.loc 1 260 1 is_stmt 0
	addi	sp,sp,-320
	.cfi_def_cfa_offset 320
	sw	ra,316(sp)
	sw	s0,312(sp)
	sw	s1,308(sp)
	sw	s2,304(sp)
	sw	s3,300(sp)
	sw	s4,296(sp)
	sw	s5,292(sp)
	sw	s6,288(sp)
	sw	s7,284(sp)
	sw	s8,280(sp)
	.cfi_offset 1, -4
	.cfi_offset 8, -8
	.cfi_offset 9, -12
	.cfi_offset 18, -16
	.cfi_offset 19, -20
	.cfi_offset 20, -24
	.cfi_offset 21, -28
	.cfi_offset 22, -32
	.cfi_offset 23, -36
	.cfi_offset 24, -40
	.loc 1 356 5
	call	Sec_Eng_PKA_Reset
.LVL122:
	.loc 1 357 5 is_stmt 1
	call	Sec_Eng_PKA_BigEndian_Enable
.LVL123:
	.loc 1 359 5
	lui	a2,%hi(.LANCHOR7)
	li	a4,0
	li	a3,64
	addi	a2,a2,%lo(.LANCHOR7)
	li	a1,0
	li	a0,8
	call	Sec_Eng_PKA_Write_Data
.LVL124:
	.loc 1 360 5
	lui	a2,%hi(.LANCHOR8)
	li	a4,0
	li	a3,64
	addi	a2,a2,%lo(.LANCHOR8)
	li	a1,1
	li	a0,8
	call	Sec_Eng_PKA_Write_Data
.LVL125:
	.loc 1 361 5
	lui	a2,%hi(.LANCHOR9)
	li	a4,0
	li	a3,64
	addi	a2,a2,%lo(.LANCHOR9)
	li	a1,2
	li	a0,8
	call	Sec_Eng_PKA_Write_Data
.LVL126:
	.loc 1 362 5
	lui	a2,%hi(.LANCHOR10)
	li	a4,0
	li	a3,1
	addi	a2,a2,%lo(.LANCHOR10)
	li	a1,3
	li	a0,8
	call	Sec_Eng_PKA_Write_Data
.LVL127:
	.loc 1 364 5
	li	a3,0
	li	a2,0
	li	a1,4
	li	a0,8
	call	Sec_Eng_PKA_CREG
.LVL128:
	.loc 1 365 5
	li	a3,1
	li	a2,0
	li	a1,5
	li	a0,8
	call	Sec_Eng_PKA_CREG
.LVL129:
	.loc 1 366 5
	li	a4,4096
	li	a5,0
	addi	a4,a4,-2048
	li	a3,2
	li	a2,8
	li	a1,2
	li	a0,10
	call	Sec_Eng_PKA_LMUL2N
.LVL130:
	.loc 1 372 5
	li	a6,0
	li	a5,0
	li	a4,8
	li	a3,2
	li	a2,10
	li	a1,2
	li	a0,8
	call	Sec_Eng_PKA_MREM
.LVL131:
	.loc 1 378 5
	li	a3,1
	li	a2,0
	li	a1,2
	li	a0,10
	call	Sec_Eng_PKA_CREG
.LVL132:
	.loc 1 380 5
	li	a5,1
	li	a7,0
	li	a6,8
	sw	a5,0(sp)
	li	a4,8
	li	a5,3
	li	a3,2
	li	a2,8
	li	a1,4
	li	a0,8
	call	Sec_Eng_PKA_MEXP
.LVL133:
	.loc 1 387 5
	li	a4,1
	li	a3,4
	li	a2,8
	li	a1,2
	li	a0,8
	call	Sec_Eng_PKA_Move_Data
.LVL134:
	.loc 1 392 5
	lui	a2,%hi(.LANCHOR11)
	li	a4,0
	li	a3,64
	addi	a2,a2,%lo(.LANCHOR11)
	li	a1,1
	li	a0,8
	call	Sec_Eng_PKA_Write_Data
.LVL135:
	.loc 1 393 5
	li	a3,0
	li	a2,0
	li	a1,4
	li	a0,8
	call	Sec_Eng_PKA_CREG
.LVL136:
	.loc 1 394 5
	li	a3,1
	li	a2,0
	li	a1,5
	li	a0,8
	call	Sec_Eng_PKA_CREG
.LVL137:
	.loc 1 395 5
	li	a6,0
	li	a5,1
	li	a4,8
	li	a3,2
	li	a2,8
	li	a1,2
	li	a0,10
	call	Sec_Eng_PKA_LMUL
.LVL138:
	.loc 1 401 5
	li	a4,8
	li	a6,0
	li	a5,0
	li	a3,2
	li	a2,10
	li	a1,2
	li	a0,8
	call	Sec_Eng_PKA_MREM
.LVL139:
	.loc 1 407 5
	li	a3,1
	li	a2,0
	li	a1,2
	li	a0,10
	call	Sec_Eng_PKA_CREG
.LVL140:
	.loc 1 408 5
	li	a3,64
	addi	a2,sp,16
	li	a1,2
	li	a0,8
	call	Sec_Eng_PKA_Read_Data
.LVL141:
	.loc 1 413 5
	li	a1,256
	addi	a0,sp,16
	call	_dump_rsa_data
.LVL142:
	.loc 1 414 5
	lui	s1,%hi(.LANCHOR12)
.LBB30:
.LBB31:
	.loc 1 244 158 is_stmt 0
	lui	s3,%hi(.LC13)
	lui	s4,%hi(.LC14)
	addi	s0,sp,16
.LVL143:
	addi	s1,s1,%lo(.LANCHOR12)
	.loc 1 239 16
	li	a4,0
	.loc 1 241 12
	li	s2,0
	lui	s5,%hi(_fsymc_level_hal_drv)
	.loc 1 244 123
	lui	s6,%hi(_fsymf_level_hal_drvbl_sec)
.LBB32:
.LBB33:
	.loc 2 151 31
	lui	s7,%hi(TrapNetCounter)
.LBE33:
.LBE32:
	.loc 1 244 158
	lui	s8,%hi(.LC0)
	addi	s3,s3,%lo(.LC13)
	addi	s4,s4,%lo(.LC14)
.LVL144:
.L62:
	.loc 1 241 5
	li	a3,256
	lbu	a5,%lo(_fsymc_level_hal_drv)(s5)
	bne	s2,a3,.L67
	.loc 1 252 5 is_stmt 1
	.loc 1 252 8 is_stmt 0
	beq	a4,zero,.L68
	.loc 1 253 9 is_stmt 1
	.loc 1 253 47
	.loc 1 253 52
	.loc 1 253 55 is_stmt 0
	li	a4,4
.LVL145:
	bgtu	a5,a4,.L61
	.loc 1 253 121
	lui	a5,%hi(_fsymf_level_hal_drvbl_sec)
	.loc 1 253 100
	lbu	a5,%lo(_fsymf_level_hal_drvbl_sec)(a5)
	bgtu	a5,a4,.L61
	.loc 1 253 156 is_stmt 1
.LBB35:
.LBB36:
	.loc 2 151 5
	.loc 2 151 31 is_stmt 0
	lui	a5,%hi(TrapNetCounter)
.LBE36:
.LBE35:
	.loc 1 253 156
	lw	a5,%lo(TrapNetCounter)(a5)
	beq	a5,zero,.L70
	.loc 1 253 253
	call	xTaskGetTickCountFromISR
.LVL146:
.L71:
	.loc 1 253 156
	lui	a3,%hi(.LC0)
	lui	a2,%hi(.LC17)
	mv	a1,a0
	lui	a0,%hi(.LC18)
	li	a5,256
	li	a4,253
	addi	a3,a3,%lo(.LC0)
	addi	a2,a2,%lo(.LC17)
	addi	a0,a0,%lo(.LC18)
.L78:
	.loc 1 255 154
	call	bl_printk
.LVL147:
	.loc 1 255 366 is_stmt 1
.L61:
.LBE31:
.LBE30:
	.loc 1 415 1 is_stmt 0
	lw	ra,316(sp)
	.cfi_remember_state
	.cfi_restore 1
	lw	s0,312(sp)
	.cfi_restore 8
	lw	s1,308(sp)
	.cfi_restore 9
	lw	s2,304(sp)
	.cfi_restore 18
	lw	s3,300(sp)
	.cfi_restore 19
	lw	s4,296(sp)
	.cfi_restore 20
	lw	s5,292(sp)
	.cfi_restore 21
	lw	s6,288(sp)
	.cfi_restore 22
	lw	s7,284(sp)
	.cfi_restore 23
	lw	s8,280(sp)
	.cfi_restore 24
	addi	sp,sp,320
	.cfi_def_cfa_offset 0
	jr	ra
.LVL148:
.L67:
	.cfi_restore_state
.LBB41:
.LBB40:
	.loc 1 242 9 is_stmt 1
	.loc 1 242 12 is_stmt 0
	lbu	a2,0(s0)
	lbu	a3,0(s1)
	beq	a2,a3,.L63
	.loc 1 243 13 is_stmt 1
.LVL149:
	.loc 1 244 13
	.loc 1 244 51
	.loc 1 244 56
	.loc 1 244 59 is_stmt 0
	li	a3,2
	.loc 1 243 23
	li	a4,1
	.loc 1 244 59
	bgtu	a5,a3,.L63
	.loc 1 244 103
	lbu	a5,%lo(_fsymf_level_hal_drvbl_sec)(s6)
	bgtu	a5,a3,.L63
	.loc 1 244 158 is_stmt 1
.LBB37:
.LBB34:
	.loc 2 151 5
.LBE34:
.LBE37:
	.loc 1 244 158 is_stmt 0
	lw	a5,%lo(TrapNetCounter)(s7)
	beq	a5,zero,.L64
	.loc 1 244 245
	call	xTaskGetTickCountFromISR
.LVL150:
.L65:
	.loc 1 244 20
	lbu	a7,0(s0)
	.loc 1 244 34
	lbu	a4,0(s1)
	.loc 1 244 158
	mv	a5,s3
	beq	a7,a4,.L66
	mv	a5,s4
.L66:
	mv	a1,a0
	lui	a2,%hi(.LC15)
	lui	a0,%hi(.LC16)
	sw	a4,0(sp)
	mv	a6,s2
	li	a4,249
	addi	a3,s8,%lo(.LC0)
	addi	a2,a2,%lo(.LC15)
	addi	a0,a0,%lo(.LC16)
	call	bl_printk
.LVL151:
	.loc 1 243 23
	li	a4,1
.LVL152:
.L63:
	.loc 1 249 14 is_stmt 1
	.loc 1 241 27 is_stmt 0
	addi	s2,s2,1
.LVL153:
	addi	s0,s0,1
	addi	s1,s1,1
	j	.L62
.LVL154:
.L64:
	.loc 1 244 274
	call	xTaskGetTickCount
.LVL155:
	j	.L65
.LVL156:
.L70:
	.loc 1 253 282
	call	xTaskGetTickCount
.LVL157:
	j	.L71
.LVL158:
.L68:
	.loc 1 255 9 is_stmt 1
	.loc 1 255 47
	.loc 1 255 52
	.loc 1 255 55 is_stmt 0
	li	a4,2
.LVL159:
	bgtu	a5,a4,.L61
	.loc 1 255 119
	lui	a5,%hi(_fsymf_level_hal_drvbl_sec)
	.loc 1 255 99
	lbu	a5,%lo(_fsymf_level_hal_drvbl_sec)(a5)
	bgtu	a5,a4,.L61
	.loc 1 255 154 is_stmt 1
.LBB38:
.LBB39:
	.loc 2 151 5
	.loc 2 151 31 is_stmt 0
	lui	a5,%hi(TrapNetCounter)
.LBE39:
.LBE38:
	.loc 1 255 154
	lw	a5,%lo(TrapNetCounter)(a5)
	beq	a5,zero,.L72
	.loc 1 255 251
	call	xTaskGetTickCountFromISR
.LVL160:
.L73:
	.loc 1 255 154
	lui	a3,%hi(.LC0)
	lui	a2,%hi(.LC15)
	mv	a1,a0
	lui	a0,%hi(.LC19)
	li	a5,256
	li	a4,255
	addi	a3,a3,%lo(.LC0)
	addi	a2,a2,%lo(.LC15)
	addi	a0,a0,%lo(.LC19)
	j	.L78
.L72:
	.loc 1 255 280
	call	xTaskGetTickCount
.LVL161:
	j	.L73
.LBE40:
.LBE41:
	.cfi_endproc
.LFE20:
	.size	_pka_test_case2, .-_pka_test_case2
	.section	.text.bl_pka_test,"ax",@progbits
	.align	1
	.globl	bl_pka_test
	.type	bl_pka_test, @function
bl_pka_test:
.LFB23:
	.loc 1 765 1 is_stmt 1
	.cfi_startproc
	.loc 1 766 5
	lui	a1,%hi(bl_sec_pka_IRQHandler)
	.loc 1 765 1 is_stmt 0
	addi	sp,sp,-16
	.cfi_def_cfa_offset 16
	.loc 1 766 5
	addi	a1,a1,%lo(bl_sec_pka_IRQHandler)
	li	a0,27
	.loc 1 765 1
	sw	ra,12(sp)
	.cfi_offset 1, -4
	.loc 1 766 5
	call	bl_irq_register
.LVL162:
	.loc 1 767 5 is_stmt 1
	li	a0,27
	call	bl_irq_enable
.LVL163:
	.loc 1 769 5
	call	_pka_test_case2
.LVL164:
	.loc 1 770 5
	call	_pka_test_case_xgcd
.LVL165:
	.loc 1 771 5
	call	_pka_test_case2
.LVL166:
	.loc 1 773 5
	.loc 1 774 1 is_stmt 0
	lw	ra,12(sp)
	.cfi_restore 1
	li	a0,0
	addi	sp,sp,16
	.cfi_def_cfa_offset 0
	jr	ra
	.cfi_endproc
.LFE23:
	.size	bl_pka_test, .-bl_pka_test
	.globl	g_bl_sec_sha_mutex
	.globl	_fsymf_info_hal_drvbl_sec
	.comm	_fsymf_level_hal_drvbl_sec,1,1
	.comm	_fsymc_level_hal_drv,1,1
	.section	.bss.sha_mutex_buf,"aw",@nobits
	.align	2
	.set	.LANCHOR2,. + 0
	.type	sha_mutex_buf, @object
	.size	sha_mutex_buf, 80
sha_mutex_buf:
	.zero	80
	.section	.bss.trng_buffer,"aw",@nobits
	.align	2
	.set	.LANCHOR0,. + 0
	.type	trng_buffer, @object
	.size	trng_buffer, 32
trng_buffer:
	.zero	32
	.section	.rodata._dump_rsa_data.str1.4,"aMS",@progbits,1
	.align	2
.LC10:
	.string	"[%04X]:"
.LC11:
	.string	" %02X"
	.zero	2
.LC12:
	.string	"\r\n"
	.section	.rodata._pka_test_case2.str1.4,"aMS",@progbits,1
	.align	2
.LC13:
	.string	"S"
	.zero	2
.LC14:
	.string	"F"
	.zero	2
.LC15:
	.string	"\033[32mINFO  \033[0m"
.LC16:
	.string	"[%10u][%s: %s:%4d] %s[%02d], %02x %02x\r\n"
	.zero	3
.LC17:
	.string	"\033[31mERROR \033[0m"
.LC18:
	.string	"[%10u][%s: %s:%4d] ====== Failed %lu Bytes======\r\n"
	.zero	1
.LC19:
	.string	"[%10u][%s: %s:%4d] ====== Success %lu Bytes=====\r\n"
	.section	.rodata.all_zero.5131,"a"
	.align	2
	.set	.LANCHOR6,. + 0
	.type	all_zero.5131, @object
	.size	all_zero.5131, 256
all_zero.5131:
	.zero	256
	.section	.rodata.bl_rand.str1.4,"aMS",@progbits,1
	.align	2
.LC6:
	.string	"[BL] [SEC] Failed after loop (17)\r\n"
	.section	.rodata.bl_sec_pka_IRQHandler.str1.4,"aMS",@progbits,1
	.align	2
.LC5:
	.string	"--->>> PKA IRQ\r\n"
	.section	.rodata.bl_sec_test.str1.4,"aMS",@progbits,1
	.align	2
.LC7:
	.string	"------------------TRNG TEST---------------------------------\r\n"
	.zero	1
.LC8:
	.string	"**********TRNG TEST rand[%08x]**************\r\n"
	.zero	1
.LC9:
	.string	"------------------------------------------------------------\r\n"
	.section	.rodata.encrypted.5121,"a"
	.align	2
	.set	.LANCHOR12,. + 0
	.type	encrypted.5121, @object
	.size	encrypted.5121, 256
encrypted.5121:
	.byte	-98
	.byte	-10
	.byte	111
	.byte	70
	.byte	-11
	.byte	81
	.byte	26
	.byte	-68
	.byte	-62
	.byte	-100
	.byte	73
	.byte	2
	.byte	33
	.byte	108
	.byte	32
	.byte	-82
	.byte	73
	.byte	-111
	.byte	-51
	.byte	-70
	.byte	-71
	.byte	79
	.byte	-81
	.byte	-3
	.byte	-115
	.byte	-102
	.byte	39
	.byte	-68
	.byte	11
	.byte	105
	.byte	87
	.byte	-60
	.byte	-70
	.byte	24
	.byte	-31
	.byte	86
	.byte	69
	.byte	85
	.byte	-69
	.byte	63
	.byte	123
	.byte	-54
	.byte	69
	.byte	-77
	.byte	-102
	.byte	14
	.byte	-41
	.byte	100
	.byte	110
	.byte	113
	.byte	-50
	.byte	-45
	.byte	8
	.byte	-55
	.byte	75
	.byte	-105
	.byte	-85
	.byte	36
	.byte	-28
	.byte	108
	.byte	-29
	.byte	-57
	.byte	82
	.byte	-105
	.byte	60
	.byte	69
	.byte	23
	.byte	59
	.byte	23
	.byte	10
	.byte	-112
	.byte	80
	.byte	-19
	.byte	115
	.byte	75
	.byte	73
	.byte	7
	.byte	-18
	.byte	19
	.byte	-81
	.byte	71
	.byte	30
	.byte	-48
	.byte	36
	.byte	-79
	.byte	-46
	.byte	-56
	.byte	9
	.byte	117
	.byte	-13
	.byte	20
	.byte	-100
	.byte	113
	.byte	-103
	.byte	-29
	.byte	-108
	.byte	91
	.byte	-10
	.byte	-17
	.byte	46
	.byte	121
	.byte	-11
	.byte	29
	.byte	-36
	.byte	-89
	.byte	-59
	.byte	-19
	.byte	10
	.byte	63
	.byte	29
	.byte	67
	.byte	-48
	.byte	25
	.byte	20
	.byte	58
	.byte	-73
	.byte	53
	.byte	-62
	.byte	63
	.byte	-95
	.byte	-100
	.byte	0
	.byte	-34
	.byte	-10
	.byte	-106
	.byte	85
	.byte	-8
	.byte	12
	.byte	121
	.byte	8
	.byte	104
	.byte	-13
	.byte	-124
	.byte	124
	.byte	46
	.byte	12
	.byte	81
	.byte	-74
	.byte	94
	.byte	-98
	.byte	-51
	.byte	80
	.byte	-52
	.byte	95
	.byte	113
	.byte	-103
	.byte	-63
	.byte	13
	.byte	-16
	.byte	60
	.byte	-48
	.byte	-128
	.byte	2
	.byte	-16
	.byte	-113
	.byte	18
	.byte	62
	.byte	73
	.byte	-92
	.byte	-101
	.byte	31
	.byte	20
	.byte	5
	.byte	-14
	.byte	123
	.byte	65
	.byte	-63
	.byte	62
	.byte	-118
	.byte	-78
	.byte	-85
	.byte	112
	.byte	40
	.byte	47
	.byte	32
	.byte	-108
	.byte	23
	.byte	101
	.byte	-13
	.byte	-119
	.byte	40
	.byte	109
	.byte	-51
	.byte	12
	.byte	-22
	.byte	3
	.byte	74
	.byte	16
	.byte	-99
	.byte	-7
	.byte	46
	.byte	-12
	.byte	100
	.byte	121
	.byte	122
	.byte	-20
	.byte	70
	.byte	-76
	.byte	-33
	.byte	-50
	.byte	106
	.byte	-114
	.byte	-40
	.byte	53
	.byte	98
	.byte	-77
	.byte	4
	.byte	-22
	.byte	-7
	.byte	-60
	.byte	-34
	.byte	-70
	.byte	42
	.byte	94
	.byte	-65
	.byte	89
	.byte	-6
	.byte	-17
	.byte	42
	.byte	66
	.byte	24
	.byte	-55
	.byte	-11
	.byte	122
	.byte	115
	.byte	-72
	.byte	103
	.byte	120
	.byte	-105
	.byte	109
	.byte	117
	.byte	75
	.byte	-35
	.byte	-5
	.byte	-101
	.byte	-26
	.byte	76
	.byte	4
	.byte	-100
	.byte	97
	.byte	95
	.byte	-102
	.byte	18
	.byte	-65
	.byte	46
	.byte	117
	.byte	99
	.byte	-35
	.byte	80
	.byte	-70
	.byte	44
	.byte	-17
	.byte	-80
	.byte	-102
	.byte	101
	.byte	36
	.section	.rodata.inv_r.5119,"a"
	.align	2
	.set	.LANCHOR11,. + 0
	.type	inv_r.5119, @object
	.size	inv_r.5119, 256
inv_r.5119:
	.byte	47
	.byte	-73
	.byte	-11
	.byte	74
	.byte	-46
	.byte	25
	.byte	-34
	.byte	36
	.byte	124
	.byte	-37
	.byte	-51
	.byte	82
	.byte	110
	.byte	-68
	.byte	44
	.byte	92
	.byte	118
	.byte	-102
	.byte	54
	.byte	-61
	.byte	-121
	.byte	51
	.byte	-9
	.byte	-23
	.byte	61
	.byte	91
	.byte	61
	.byte	-51
	.byte	51
	.byte	122
	.byte	59
	.byte	78
	.byte	85
	.byte	-11
	.byte	-39
	.byte	66
	.byte	118
	.byte	99
	.byte	40
	.byte	122
	.byte	-88
	.byte	124
	.byte	-9
	.byte	-47
	.byte	-10
	.byte	13
	.byte	38
	.byte	-70
	.byte	-66
	.byte	-97
	.byte	53
	.byte	-12
	.byte	-122
	.byte	-59
	.byte	-109
	.byte	76
	.byte	-24
	.byte	118
	.byte	-38
	.byte	-120
	.byte	-72
	.byte	-66
	.byte	-83
	.byte	37
	.byte	107
	.byte	-25
	.byte	68
	.byte	59
	.byte	28
	.byte	44
	.byte	-103
	.byte	21
	.byte	-18
	.byte	51
	.byte	70
	.byte	-58
	.byte	-32
	.byte	-80
	.byte	57
	.byte	109
	.byte	32
	.byte	-78
	.byte	104
	.byte	-57
	.byte	117
	.byte	65
	.byte	44
	.byte	-1
	.byte	-53
	.byte	-109
	.byte	29
	.byte	64
	.byte	-46
	.byte	14
	.byte	100
	.byte	-22
	.byte	46
	.byte	10
	.byte	85
	.byte	-97
	.byte	4
	.byte	-99
	.byte	-3
	.byte	94
	.byte	36
	.byte	-87
	.byte	40
	.byte	92
	.byte	45
	.byte	27
	.byte	41
	.byte	-121
	.byte	97
	.byte	107
	.byte	80
	.byte	106
	.byte	49
	.byte	49
	.byte	67
	.byte	18
	.byte	19
	.byte	-29
	.byte	31
	.byte	71
	.byte	-118
	.byte	17
	.byte	-46
	.byte	91
	.byte	38
	.byte	94
	.byte	121
	.byte	4
	.byte	11
	.byte	-88
	.byte	-80
	.byte	54
	.byte	34
	.byte	-38
	.byte	60
	.byte	94
	.byte	-71
	.byte	9
	.byte	72
	.byte	-80
	.byte	50
	.byte	56
	.byte	37
	.byte	-20
	.byte	-3
	.byte	94
	.byte	-17
	.byte	-1
	.byte	-128
	.byte	51
	.byte	-97
	.byte	-108
	.byte	-116
	.byte	110
	.byte	42
	.byte	-5
	.byte	-65
	.byte	101
	.byte	24
	.byte	-104
	.byte	126
	.byte	-1
	.byte	65
	.byte	-34
	.byte	0
	.byte	47
	.byte	-46
	.byte	125
	.byte	-65
	.byte	76
	.byte	84
	.byte	78
	.byte	28
	.byte	70
	.byte	-42
	.byte	-85
	.byte	-10
	.byte	7
	.byte	52
	.byte	99
	.byte	-29
	.byte	11
	.byte	-127
	.byte	-96
	.byte	-108
	.byte	125
	.byte	-81
	.byte	126
	.byte	55
	.byte	-42
	.byte	-59
	.byte	-90
	.byte	74
	.byte	-112
	.byte	108
	.byte	68
	.byte	106
	.byte	-39
	.byte	15
	.byte	32
	.byte	-78
	.byte	-17
	.byte	34
	.byte	-96
	.byte	-33
	.byte	56
	.byte	45
	.byte	11
	.byte	-77
	.byte	3
	.byte	-78
	.byte	-56
	.byte	-26
	.byte	-115
	.byte	116
	.byte	-65
	.byte	69
	.byte	-111
	.byte	-32
	.byte	34
	.byte	22
	.byte	-65
	.byte	-60
	.byte	-38
	.byte	84
	.byte	38
	.byte	-86
	.byte	101
	.byte	-123
	.byte	-120
	.byte	-61
	.byte	-5
	.byte	-97
	.byte	-4
	.byte	20
	.byte	-60
	.byte	-1
	.byte	-117
	.byte	-120
	.byte	71
	.byte	95
	.byte	-79
	.byte	85
	.byte	-33
	.byte	71
	.byte	92
	.byte	-64
	.byte	39
	.byte	57
	.byte	123
	.byte	-24
	.byte	-83
	.section	.rodata.m.5116,"a"
	.align	2
	.set	.LANCHOR9,. + 0
	.type	m.5116, @object
	.size	m.5116, 256
m.5116:
	.byte	48
	.byte	49
	.byte	54
	.byte	100
	.byte	97
	.byte	52
	.byte	49
	.byte	102
	.byte	52
	.byte	98
	.byte	102
	.byte	53
	.byte	56
	.byte	97
	.byte	54
	.byte	50
	.byte	53
	.byte	97
	.byte	97
	.byte	53
	.byte	99
	.byte	51
	.byte	48
	.byte	55
	.byte	98
	.byte	99
	.byte	100
	.byte	49
	.byte	97
	.byte	55
	.byte	53
	.byte	48
	.byte	51
	.byte	100
	.byte	98
	.byte	48
	.byte	54
	.byte	99
	.byte	57
	.byte	55
	.byte	98
	.byte	48
	.byte	57
	.byte	49
	.byte	57
	.byte	51
	.byte	56
	.byte	97
	.byte	50
	.byte	49
	.byte	98
	.byte	53
	.byte	102
	.byte	54
	.byte	56
	.byte	101
	.byte	51
	.byte	55
	.byte	55
	.byte	97
	.byte	98
	.byte	56
	.byte	57
	.byte	57
	.byte	98
	.byte	101
	.byte	102
	.byte	55
	.byte	99
	.byte	97
	.byte	49
	.byte	54
	.byte	53
	.byte	48
	.byte	101
	.byte	56
	.byte	102
	.byte	48
	.byte	56
	.byte	100
	.byte	55
	.byte	50
	.byte	56
	.byte	55
	.byte	100
	.byte	100
	.byte	48
	.byte	102
	.byte	54
	.byte	100
	.byte	50
	.byte	97
	.byte	100
	.byte	54
	.byte	52
	.byte	49
	.byte	50
	.byte	56
	.byte	56
	.byte	51
	.byte	56
	.byte	99
	.byte	53
	.byte	57
	.byte	53
	.byte	97
	.byte	50
	.byte	100
	.byte	49
	.byte	48
	.byte	101
	.byte	52
	.byte	54
	.byte	55
	.byte	97
	.byte	98
	.byte	53
	.byte	52
	.byte	53
	.byte	51
	.byte	99
	.byte	52
	.byte	101
	.byte	99
	.byte	55
	.byte	55
	.byte	48
	.byte	53
	.byte	51
	.byte	56
	.byte	97
	.byte	99
	.byte	57
	.byte	102
	.byte	56
	.byte	48
	.byte	54
	.byte	102
	.byte	48
	.byte	56
	.byte	102
	.byte	102
	.byte	51
	.byte	48
	.byte	56
	.byte	101
	.byte	54
	.byte	101
	.byte	100
	.byte	98
	.byte	53
	.byte	53
	.byte	52
	.byte	49
	.byte	102
	.byte	57
	.byte	102
	.byte	48
	.byte	52
	.byte	54
	.byte	99
	.byte	54
	.byte	55
	.byte	50
	.byte	98
	.byte	49
	.byte	50
	.byte	48
	.byte	55
	.byte	55
	.byte	53
	.byte	53
	.byte	98
	.byte	48
	.byte	53
	.byte	102
	.byte	53
	.byte	54
	.byte	100
	.byte	51
	.byte	97
	.byte	54
	.byte	54
	.byte	49
	.byte	55
	.byte	100
	.byte	99
	.byte	55
	.byte	53
	.byte	52
	.byte	100
	.byte	53
	.byte	101
	.byte	50
	.byte	48
	.byte	52
	.byte	99
	.byte	49
	.byte	54
	.byte	49
	.byte	54
	.byte	97
	.byte	49
	.byte	51
	.byte	101
	.byte	51
	.byte	98
	.byte	49
	.byte	52
	.byte	101
	.byte	56
	.byte	101
	.byte	50
	.byte	57
	.byte	99
	.byte	57
	.byte	53
	.byte	51
	.byte	51
	.byte	56
	.byte	54
	.byte	101
	.byte	101
	.byte	100
	.byte	98
	.byte	99
	.byte	48
	.byte	57
	.byte	52
	.byte	48
	.byte	55
	.byte	98
	.byte	57
	.byte	52
	.byte	51
	.byte	52
	.byte	56
	.byte	55
	.byte	55
	.byte	54
	.byte	54
	.byte	55
	.byte	99
	.byte	98
	.byte	51
	.byte	48
	.byte	57
	.byte	99
	.byte	54
	.byte	51
	.byte	48
	.byte	52
	.byte	50
	.byte	50
	.byte	54
	.byte	50
	.section	.rodata.n.5115,"a"
	.align	2
	.set	.LANCHOR7,. + 0
	.type	n.5115, @object
	.size	n.5115, 256
n.5115:
	.byte	-40
	.byte	-90
	.byte	79
	.byte	-22
	.byte	40
	.byte	-7
	.byte	-33
	.byte	7
	.byte	4
	.byte	85
	.byte	-6
	.byte	-5
	.byte	80
	.byte	93
	.byte	-66
	.byte	-74
	.byte	-97
	.byte	123
	.byte	83
	.byte	-106
	.byte	-17
	.byte	5
	.byte	94
	.byte	10
	.byte	-11
	.byte	45
	.byte	-29
	.byte	103
	.byte	120
	.byte	7
	.byte	107
	.byte	-10
	.byte	-78
	.byte	23
	.byte	-84
	.byte	46
	.byte	81
	.byte	66
	.byte	-124
	.byte	-69
	.byte	-2
	.byte	62
	.byte	95
	.byte	12
	.byte	-123
	.byte	-60
	.byte	-99
	.byte	-44
	.byte	-117
	.byte	-43
	.byte	-6
	.byte	23
	.byte	45
	.byte	-79
	.byte	38
	.byte	-127
	.byte	-25
	.byte	121
	.byte	7
	.byte	69
	.byte	-126
	.byte	66
	.byte	34
	.byte	61
	.byte	13
	.byte	-105
	.byte	-49
	.byte	-34
	.byte	-22
	.byte	-72
	.byte	-70
	.byte	22
	.byte	5
	.byte	-118
	.byte	91
	.byte	15
	.byte	-20
	.byte	7
	.byte	48
	.byte	-92
	.byte	-58
	.byte	-65
	.byte	-1
	.byte	32
	.byte	82
	.byte	27
	.byte	-108
	.byte	-83
	.byte	-6
	.byte	-73
	.byte	110
	.byte	-125
	.byte	20
	.byte	72
	.byte	88
	.byte	20
	.byte	-103
	.byte	-25
	.byte	-93
	.byte	-98
	.byte	-63
	.byte	8
	.byte	-67
	.byte	-2
	.byte	32
	.byte	17
	.byte	86
	.byte	-37
	.byte	-106
	.byte	10
	.byte	-69
	.byte	11
	.byte	-68
	.byte	-44
	.byte	55
	.byte	85
	.byte	-7
	.byte	-100
	.byte	109
	.byte	91
	.byte	-121
	.byte	78
	.byte	80
	.byte	-97
	.byte	36
	.byte	14
	.byte	58
	.byte	26
	.byte	12
	.byte	84
	.byte	103
	.byte	-67
	.byte	15
	.byte	52
	.byte	3
	.byte	94
	.byte	69
	.byte	91
	.byte	-109
	.byte	66
	.byte	-66
	.byte	113
	.byte	-26
	.byte	-89
	.byte	-7
	.byte	73
	.byte	26
	.byte	-77
	.byte	-78
	.byte	-5
	.byte	14
	.byte	-18
	.byte	61
	.byte	-49
	.byte	12
	.byte	90
	.byte	-8
	.byte	-75
	.byte	-128
	.byte	66
	.byte	124
	.byte	12
	.byte	117
	.byte	-59
	.byte	-31
	.byte	23
	.byte	41
	.byte	57
	.byte	85
	.byte	43
	.byte	-79
	.byte	-11
	.byte	114
	.byte	6
	.byte	-98
	.byte	84
	.byte	11
	.byte	14
	.byte	-14
	.byte	-107
	.byte	-56
	.byte	91
	.byte	105
	.byte	-81
	.byte	91
	.byte	-127
	.byte	-105
	.byte	-82
	.byte	-79
	.byte	110
	.byte	-60
	.byte	109
	.byte	-107
	.byte	-40
	.byte	34
	.byte	30
	.byte	57
	.byte	-16
	.byte	118
	.byte	84
	.byte	25
	.byte	-106
	.byte	3
	.byte	76
	.byte	37
	.byte	-123
	.byte	47
	.byte	-31
	.byte	-124
	.byte	-41
	.byte	-63
	.byte	98
	.byte	-31
	.byte	-98
	.byte	-97
	.byte	31
	.byte	-44
	.byte	-72
	.byte	-16
	.byte	-62
	.byte	104
	.byte	118
	.byte	124
	.byte	-49
	.byte	67
	.byte	62
	.byte	96
	.byte	-109
	.byte	-48
	.byte	-119
	.byte	101
	.byte	-82
	.byte	114
	.byte	-51
	.byte	-42
	.byte	0
	.byte	13
	.byte	-111
	.byte	66
	.byte	-112
	.byte	-104
	.byte	2
	.byte	-87
	.byte	-10
	.byte	-126
	.byte	27
	.byte	-75
	.byte	34
	.byte	-3
	.byte	-74
	.byte	-62
	.byte	92
	.byte	-83
	.byte	-122
	.byte	-127
	.byte	29
	.section	.rodata.n.5129,"a"
	.align	2
	.set	.LANCHOR4,. + 0
	.type	n.5129, @object
	.size	n.5129, 256
n.5129:
	.byte	-40
	.byte	-90
	.byte	79
	.byte	-22
	.byte	40
	.byte	-7
	.byte	-33
	.byte	7
	.byte	4
	.byte	85
	.byte	-6
	.byte	-5
	.byte	80
	.byte	93
	.byte	-66
	.byte	-74
	.byte	-97
	.byte	123
	.byte	83
	.byte	-106
	.byte	-17
	.byte	5
	.byte	94
	.byte	10
	.byte	-11
	.byte	45
	.byte	-29
	.byte	103
	.byte	120
	.byte	7
	.byte	107
	.byte	-10
	.byte	-78
	.byte	23
	.byte	-84
	.byte	46
	.byte	81
	.byte	66
	.byte	-124
	.byte	-69
	.byte	-2
	.byte	62
	.byte	95
	.byte	12
	.byte	-123
	.byte	-60
	.byte	-99
	.byte	-44
	.byte	-117
	.byte	-43
	.byte	-6
	.byte	23
	.byte	45
	.byte	-79
	.byte	38
	.byte	-127
	.byte	-25
	.byte	121
	.byte	7
	.byte	69
	.byte	-126
	.byte	66
	.byte	34
	.byte	61
	.byte	13
	.byte	-105
	.byte	-49
	.byte	-34
	.byte	-22
	.byte	-72
	.byte	-70
	.byte	22
	.byte	5
	.byte	-118
	.byte	91
	.byte	15
	.byte	-20
	.byte	7
	.byte	48
	.byte	-92
	.byte	-58
	.byte	-65
	.byte	-1
	.byte	32
	.byte	82
	.byte	27
	.byte	-108
	.byte	-83
	.byte	-6
	.byte	-73
	.byte	110
	.byte	-125
	.byte	20
	.byte	72
	.byte	88
	.byte	20
	.byte	-103
	.byte	-25
	.byte	-93
	.byte	-98
	.byte	-63
	.byte	8
	.byte	-67
	.byte	-2
	.byte	32
	.byte	17
	.byte	86
	.byte	-37
	.byte	-106
	.byte	10
	.byte	-69
	.byte	11
	.byte	-68
	.byte	-44
	.byte	55
	.byte	85
	.byte	-7
	.byte	-100
	.byte	109
	.byte	91
	.byte	-121
	.byte	78
	.byte	80
	.byte	-97
	.byte	36
	.byte	14
	.byte	58
	.byte	26
	.byte	12
	.byte	84
	.byte	103
	.byte	-67
	.byte	15
	.byte	52
	.byte	3
	.byte	94
	.byte	69
	.byte	91
	.byte	-109
	.byte	66
	.byte	-66
	.byte	113
	.byte	-26
	.byte	-89
	.byte	-7
	.byte	73
	.byte	26
	.byte	-77
	.byte	-78
	.byte	-5
	.byte	14
	.byte	-18
	.byte	61
	.byte	-49
	.byte	12
	.byte	90
	.byte	-8
	.byte	-75
	.byte	-128
	.byte	66
	.byte	124
	.byte	12
	.byte	117
	.byte	-59
	.byte	-31
	.byte	23
	.byte	41
	.byte	57
	.byte	85
	.byte	43
	.byte	-79
	.byte	-11
	.byte	114
	.byte	6
	.byte	-98
	.byte	84
	.byte	11
	.byte	14
	.byte	-14
	.byte	-107
	.byte	-56
	.byte	91
	.byte	105
	.byte	-81
	.byte	91
	.byte	-127
	.byte	-105
	.byte	-82
	.byte	-79
	.byte	110
	.byte	-60
	.byte	109
	.byte	-107
	.byte	-40
	.byte	34
	.byte	30
	.byte	57
	.byte	-16
	.byte	118
	.byte	84
	.byte	25
	.byte	-106
	.byte	3
	.byte	76
	.byte	37
	.byte	-123
	.byte	47
	.byte	-31
	.byte	-124
	.byte	-41
	.byte	-63
	.byte	98
	.byte	-31
	.byte	-98
	.byte	-97
	.byte	31
	.byte	-44
	.byte	-72
	.byte	-16
	.byte	-62
	.byte	104
	.byte	118
	.byte	124
	.byte	-49
	.byte	67
	.byte	62
	.byte	96
	.byte	-109
	.byte	-48
	.byte	-119
	.byte	101
	.byte	-82
	.byte	114
	.byte	-51
	.byte	-42
	.byte	0
	.byte	13
	.byte	-111
	.byte	66
	.byte	-112
	.byte	-104
	.byte	2
	.byte	-87
	.byte	-10
	.byte	-126
	.byte	27
	.byte	-75
	.byte	34
	.byte	-3
	.byte	-74
	.byte	-62
	.byte	92
	.byte	-83
	.byte	-122
	.byte	-127
	.byte	29
	.section	.rodata.n_exp.5130,"a"
	.align	2
	.set	.LANCHOR5,. + 0
	.type	n_exp.5130, @object
	.size	n_exp.5130, 256
n_exp.5130:
	.byte	0
	.byte	0
	.byte	0
	.byte	0
	.byte	0
	.byte	0
	.byte	0
	.byte	0
	.byte	0
	.byte	0
	.byte	0
	.byte	0
	.byte	0
	.byte	0
	.byte	0
	.byte	0
	.byte	0
	.byte	0
	.byte	0
	.byte	0
	.byte	0
	.byte	0
	.byte	0
	.byte	0
	.byte	0
	.byte	0
	.byte	0
	.byte	0
	.byte	0
	.byte	0
	.byte	0
	.byte	0
	.byte	0
	.byte	0
	.byte	0
	.byte	0
	.byte	0
	.byte	0
	.byte	0
	.byte	0
	.byte	0
	.byte	0
	.byte	0
	.byte	0
	.byte	0
	.byte	0
	.byte	0
	.byte	0
	.byte	0
	.byte	0
	.byte	0
	.byte	0
	.byte	0
	.byte	0
	.byte	0
	.byte	0
	.byte	0
	.byte	0
	.byte	0
	.byte	0
	.byte	0
	.byte	0
	.byte	0
	.byte	0
	.byte	0
	.byte	0
	.byte	0
	.byte	0
	.byte	0
	.byte	0
	.byte	0
	.byte	0
	.byte	0
	.byte	0
	.byte	0
	.byte	0
	.byte	0
	.byte	0
	.byte	0
	.byte	0
	.byte	0
	.byte	0
	.byte	0
	.byte	0
	.byte	0
	.byte	0
	.byte	0
	.byte	0
	.byte	0
	.byte	0
	.byte	0
	.byte	0
	.byte	0
	.byte	0
	.byte	0
	.byte	0
	.byte	0
	.byte	0
	.byte	0
	.byte	0
	.byte	0
	.byte	0
	.byte	0
	.byte	0
	.byte	0
	.byte	0
	.byte	0
	.byte	0
	.byte	0
	.byte	0
	.byte	0
	.byte	0
	.byte	0
	.byte	0
	.byte	0
	.byte	0
	.byte	0
	.byte	0
	.byte	0
	.byte	0
	.byte	0
	.byte	0
	.byte	0
	.byte	0
	.byte	0
	.byte	0
	.byte	0
	.byte	0
	.byte	0
	.byte	0
	.byte	0
	.byte	0
	.byte	0
	.byte	0
	.byte	0
	.byte	0
	.byte	0
	.byte	0
	.byte	0
	.byte	0
	.byte	0
	.byte	0
	.byte	0
	.byte	0
	.byte	0
	.byte	0
	.byte	0
	.byte	0
	.byte	0
	.byte	0
	.byte	0
	.byte	0
	.byte	0
	.byte	0
	.byte	0
	.byte	0
	.byte	0
	.byte	0
	.byte	0
	.byte	0
	.byte	0
	.byte	0
	.byte	0
	.byte	0
	.byte	0
	.byte	0
	.byte	0
	.byte	0
	.byte	0
	.byte	0
	.byte	0
	.byte	0
	.byte	0
	.byte	0
	.byte	0
	.byte	0
	.byte	0
	.byte	0
	.byte	0
	.byte	0
	.byte	0
	.byte	0
	.byte	0
	.byte	0
	.byte	0
	.byte	0
	.byte	0
	.byte	0
	.byte	0
	.byte	0
	.byte	0
	.byte	0
	.byte	0
	.byte	0
	.byte	0
	.byte	0
	.byte	0
	.byte	0
	.byte	0
	.byte	0
	.byte	0
	.byte	0
	.byte	0
	.byte	0
	.byte	0
	.byte	0
	.byte	0
	.byte	0
	.byte	0
	.byte	0
	.byte	0
	.byte	0
	.byte	0
	.byte	0
	.byte	0
	.byte	0
	.byte	0
	.byte	0
	.byte	0
	.byte	0
	.byte	0
	.byte	0
	.byte	0
	.byte	0
	.byte	0
	.byte	0
	.byte	0
	.byte	0
	.byte	0
	.byte	0
	.byte	0
	.byte	0
	.byte	0
	.byte	0
	.byte	0
	.byte	0
	.byte	0
	.byte	0
	.byte	0
	.byte	0
	.byte	0
	.byte	0
	.byte	0
	.byte	0
	.byte	0
	.byte	0
	.byte	0
	.byte	0
	.byte	0
	.byte	0
	.byte	0
	.byte	0
	.byte	0
	.byte	0
	.byte	0
	.byte	1
	.section	.rodata.nprime.5118,"a"
	.align	2
	.set	.LANCHOR8,. + 0
	.type	nprime.5118, @object
	.size	nprime.5118, 256
nprime.5118:
	.byte	56
	.byte	98
	.byte	-63
	.byte	-11
	.byte	85
	.byte	45
	.byte	61
	.byte	96
	.byte	94
	.byte	66
	.byte	-31
	.byte	101
	.byte	-34
	.byte	-19
	.byte	53
	.byte	-43
	.byte	-59
	.byte	-123
	.byte	-28
	.byte	78
	.byte	-21
	.byte	116
	.byte	-91
	.byte	34
	.byte	-77
	.byte	-19
	.byte	95
	.byte	91
	.byte	-79
	.byte	-71
	.byte	-23
	.byte	10
	.byte	125
	.byte	-91
	.byte	116
	.byte	88
	.byte	-8
	.byte	-95
	.byte	-85
	.byte	23
	.byte	116
	.byte	-48
	.byte	7
	.byte	-93
	.byte	127
	.byte	-46
	.byte	-101
	.byte	80
	.byte	42
	.byte	-19
	.byte	94
	.byte	-36
	.byte	90
	.byte	105
	.byte	-2
	.byte	14
	.byte	-79
	.byte	-40
	.byte	83
	.byte	53
	.byte	-101
	.byte	-17
	.byte	29
	.byte	118
	.byte	82
	.byte	-98
	.byte	-121
	.byte	60
	.byte	-80
	.byte	-126
	.byte	78
	.byte	3
	.byte	-33
	.byte	117
	.byte	-19
	.byte	9
	.byte	-97
	.byte	61
	.byte	55
	.byte	-10
	.byte	-24
	.byte	13
	.byte	-55
	.byte	46
	.byte	-127
	.byte	-14
	.byte	-99
	.byte	46
	.byte	-86
	.byte	-26
	.byte	83
	.byte	121
	.byte	107
	.byte	-103
	.byte	-17
	.byte	70
	.byte	54
	.byte	-39
	.byte	46
	.byte	-99
	.byte	21
	.byte	-47
	.byte	127
	.byte	35
	.byte	20
	.byte	-71
	.byte	-21
	.byte	51
	.byte	-89
	.byte	-44
	.byte	-114
	.byte	-122
	.byte	96
	.byte	-55
	.byte	-39
	.byte	124
	.byte	-54
	.byte	84
	.byte	89
	.byte	87
	.byte	-108
	.byte	30
	.byte	82
	.byte	77
	.byte	-56
	.byte	63
	.byte	-101
	.byte	36
	.byte	40
	.byte	37
	.byte	-53
	.byte	87
	.byte	-54
	.byte	-113
	.byte	22
	.byte	90
	.byte	55
	.byte	-62
	.byte	-58
	.byte	-82
	.byte	-59
	.byte	-25
	.byte	-60
	.byte	46
	.byte	-13
	.byte	36
	.byte	28
	.byte	-73
	.byte	-23
	.byte	-11
	.byte	-110
	.byte	78
	.byte	-44
	.byte	81
	.byte	80
	.byte	-1
	.byte	-34
	.byte	68
	.byte	60
	.byte	-82
	.byte	114
	.byte	-67
	.byte	22
	.byte	57
	.byte	99
	.byte	-118
	.byte	34
	.byte	-100
	.byte	-107
	.byte	-38
	.byte	33
	.byte	-16
	.byte	76
	.byte	18
	.byte	54
	.byte	45
	.byte	0
	.byte	-83
	.byte	-77
	.byte	-119
	.byte	-75
	.byte	9
	.byte	-98
	.byte	61
	.byte	36
	.byte	-127
	.byte	-4
	.byte	-17
	.byte	-103
	.byte	-107
	.byte	34
	.byte	-99
	.byte	-77
	.byte	-108
	.byte	57
	.byte	50
	.byte	-35
	.byte	-60
	.byte	43
	.byte	47
	.byte	-80
	.byte	19
	.byte	-2
	.byte	-75
	.byte	94
	.byte	-57
	.byte	100
	.byte	-109
	.byte	122
	.byte	-75
	.byte	-127
	.byte	-109
	.byte	31
	.byte	-97
	.byte	-106
	.byte	30
	.byte	122
	.byte	92
	.byte	-115
	.byte	-34
	.byte	-113
	.byte	-82
	.byte	-39
	.byte	-56
	.byte	-35
	.byte	53
	.byte	30
	.byte	23
	.byte	71
	.byte	-74
	.byte	-85
	.byte	-19
	.byte	-74
	.byte	-126
	.byte	34
	.byte	76
	.byte	98
	.byte	-67
	.byte	18
	.byte	78
	.byte	68
	.byte	92
	.byte	72
	.byte	43
	.byte	117
	.byte	99
	.byte	28
	.byte	-34
	.byte	-6
	.byte	21
	.byte	13
	.byte	-79
	.byte	80
	.byte	49
	.byte	-74
	.byte	-53
	.section	.rodata.sec_trng_IRQHandler.str1.4,"aMS",@progbits,1
	.align	2
.LC3:
	.string	"[BL] [SEC] TRNG Handler\r\n"
	.zero	2
.LC4:
	.string	"[%10u][%s: %s:%4d] random number is %08lx\r\n"
	.section	.rodata.str1.4,"aMS",@progbits,1
	.align	2
.LC20:
	.string	"hal_drv.bl_sec"
	.zero	1
.LC21:
	.string	"hal_drv"
	.section	.rodata.wait_trng4feed.str1.4,"aMS",@progbits,1
	.align	2
.LC0:
	.string	"bl_sec.c"
	.zero	3
.LC1:
	.string	"DEBUG "
	.zero	1
.LC2:
	.string	"[%10u][%s: %s:%4d] Feed random number is %08lx\r\n"
	.section	.sbss.g_bl_sec_sha_mutex,"aw",@nobits
	.align	2
	.set	.LANCHOR3,. + 0
	.type	g_bl_sec_sha_mutex, @object
	.size	g_bl_sec_sha_mutex, 4
g_bl_sec_sha_mutex:
	.zero	4
	.section	.sbss.trng_idx,"aw",@nobits
	.align	2
	.set	.LANCHOR1,. + 0
	.type	trng_idx, @object
	.size	trng_idx, 4
trng_idx:
	.zero	4
	.section	.sdata2.BLOG_HARD_DECLARE_DISABLE,"a"
	.align	2
	.type	BLOG_HARD_DECLARE_DISABLE, @object
	.size	BLOG_HARD_DECLARE_DISABLE, 4
BLOG_HARD_DECLARE_DISABLE:
	.zero	4
	.section	.sdata2.e.5117,"a"
	.align	2
	.set	.LANCHOR10,. + 0
	.type	e.5117, @object
	.size	e.5117, 4
e.5117:
	.byte	0
	.byte	1
	.byte	0
	.byte	1
	.section	.static_blogcomponent_code.hal_drv,"a"
	.align	2
	.type	_fsymc_info_hal_drv, @object
	.size	_fsymc_info_hal_drv, 8
_fsymc_info_hal_drv:
	.word	_fsymc_level_hal_drv
	.word	.LC21
	.section	.static_blogfile_code.hal_drvbl_sec,"a"
	.align	2
	.type	_fsymf_info_hal_drvbl_sec, @object
	.size	_fsymf_info_hal_drvbl_sec, 8
_fsymf_info_hal_drvbl_sec:
	.word	_fsymf_level_hal_drvbl_sec
	.word	.LC20
	.text
.Letext0:
	.file 3 "/b-l/bl_iot_sdk/toolchain/riscv/Linux/riscv64-unknown-elf/include/machine/_default_types.h"
	.file 4 "/b-l/bl_iot_sdk/toolchain/riscv/Linux/lib/gcc/riscv64-unknown-elf/8.3.0/include/stddef.h"
	.file 5 "/b-l/bl_iot_sdk/toolchain/riscv/Linux/riscv64-unknown-elf/include/sys/_types.h"
	.file 6 "/b-l/bl_iot_sdk/toolchain/riscv/Linux/riscv64-unknown-elf/include/sys/reent.h"
	.file 7 "/b-l/bl_iot_sdk/toolchain/riscv/Linux/riscv64-unknown-elf/include/sys/lock.h"
	.file 8 "/b-l/bl_iot_sdk/toolchain/riscv/Linux/riscv64-unknown-elf/include/sys/_stdint.h"
	.file 9 "/b-l/bl_iot_sdk/components/bl602/bl602_std/bl602_std/RISCV/Device/Bouffalo/BL602/Startup/system_bl602.h"
	.file 10 "/b-l/bl_iot_sdk/components/bl602/bl602_std/bl602_std/Device/Bouffalo/BL602/Peripherals/bl602.h"
	.file 11 "/b-l/bl_iot_sdk/components/bl602/bl602_std/bl602_std/StdDriver/Inc/bl602_common.h"
	.file 12 "/b-l/bl_iot_sdk/components/bl602/bl602_std/bl602_std/StdDriver/Inc/bl602_sec_eng.h"
	.file 13 "/b-l/bl_iot_sdk/components/bl602/freertos_riscv_ram/config/FreeRTOS.h"
	.file 14 "/b-l/bl_iot_sdk/components/bl602/freertos_riscv_ram/config/queue.h"
	.file 15 "/b-l/bl_iot_sdk/components/bl602/freertos_riscv_ram/config/semphr.h"
	.file 16 "/b-l/bl_iot_sdk/components/hal_drv/bl602_hal/bl_sec.h"
	.file 17 "/b-l/bl_iot_sdk/components/stage/blog/blog_type.h"
	.file 18 "/b-l/bl_iot_sdk/components/stage/blog/blog.h"
	.file 19 "/b-l/bl_iot_sdk/toolchain/riscv/Linux/riscv64-unknown-elf/include/stdio.h"
	.file 20 "/b-l/bl_iot_sdk/components/hal_drv/bl602_hal/bl_irq.h"
	.file 21 "/b-l/bl_iot_sdk/components/bl602/freertos_riscv_ram/config/task.h"
	.file 22 "/b-l/bl_iot_sdk/components/utils/include/utils_log.h"
	.file 23 "/b-l/bl_iot_sdk/components/stage/yloop/include/aos/kernel.h"
	.file 24 "/b-l/bl_iot_sdk/toolchain/riscv/Linux/riscv64-unknown-elf/include/string.h"