	.file	"hal_hwtimer.c"
	.option nopic
	.attribute arch, "rv32i2p0_m2p0_f2p0_c2p0"
	.attribute unaligned_access, 0
	.attribute stack_align, 16
	.text
.Ltext0:
	.cfi_sections	.debug_frame
	.section	.text.hwtimer_process,"ax",@progbits
	.align	1
	.type	hwtimer_process, @function
hwtimer_process:
.LFB27:
	.file 1 "/b-l/bl_iot_sdk/components/hal_drv/bl602_hal/hal_hwtimer.c"
	.loc 1 52 1
	.cfi_startproc
.LVL0:
	.loc 1 53 5
	.loc 1 54 5
	.loc 1 55 5
	.loc 1 56 5
	.loc 1 58 5
	.loc 1 52 1 is_stmt 0
	addi	sp,sp,-48
	.cfi_def_cfa_offset 48
	sw	s1,36(sp)
	.loc 1 59 5
	li	a2,1
	.cfi_offset 9, -12
	.loc 1 52 1
	mv	s1,a0
.LVL1:
	.loc 1 59 5 is_stmt 1
	li	a1,3
	li	a0,0
.LVL2:
	.loc 1 52 1 is_stmt 0
	sw	ra,44(sp)
	sw	s0,40(sp)
	sw	s2,32(sp)
	.cfi_offset 1, -4
	.cfi_offset 8, -8
	.cfi_offset 18, -16
	.loc 1 59 5
	call	TIMER_IntMask
.LVL3:
	.loc 1 60 5 is_stmt 1
	li	a1,0
	li	a0,0
	call	TIMER_ClearIntStatus
.LVL4:
	.loc 1 63 5
	.loc 1 63 15 is_stmt 0
	lw	a5,4(s1)
	lw	s0,4(a5)
.LVL5:
.L2:
	.loc 1 63 5 discriminator 1
	lw	a5,4(s1)
	bne	s0,a5,.L6
	.loc 1 79 5 is_stmt 1
	li	a2,0
	li	a1,0
	li	a0,0
	call	TIMER_IntMask
.LVL6:
	.loc 1 80 1 is_stmt 0
	lw	ra,44(sp)
	.cfi_remember_state
	.cfi_restore 1
	lw	s0,40(sp)
	.cfi_restore 8
.LVL7:
	lw	s1,36(sp)
	.cfi_restore 9
.LVL8:
	lw	s2,32(sp)
	.cfi_restore 18
	addi	sp,sp,48
	.cfi_def_cfa_offset 0
	jr	ra
.LVL9:
.L6:
	.cfi_restore_state
	.loc 1 64 9 is_stmt 1
	.loc 1 64 43 is_stmt 0
	lw	a5,20(s0)
	.loc 1 65 12
	lw	a4,16(s0)
	.loc 1 64 43
	addi	a5,a5,1
	.loc 1 64 25
	sw	a5,20(s0)
	.loc 1 65 9 is_stmt 1
	.loc 1 65 12 is_stmt 0
	bltu	a5,a4,.L3
	.loc 1 66 13 is_stmt 1
	.loc 1 67 16 is_stmt 0
	lw	a5,8(s0)
	.loc 1 66 21
	lw	s2,12(s0)
.LVL10:
	.loc 1 67 13 is_stmt 1
	.loc 1 67 16 is_stmt 0
	bne	a5,zero,.L4
	.loc 1 68 17 is_stmt 1
	mv	a1,s0
	li	a2,24
	addi	a0,sp,8
	call	memcpy
.LVL11:
	.loc 1 69 17
.LBB42:
.LBB43:
	.file 2 "/b-l/bl_iot_sdk/components/utils/include/utils_list.h"
	.loc 2 317 5
	.loc 2 317 20 is_stmt 0
	lw	a4,0(s0)
.LVL12:
	.loc 2 318 5 is_stmt 1
	.loc 2 318 20 is_stmt 0
	lw	a5,4(s0)
.LVL13:
	.loc 2 320 5 is_stmt 1
.LBE43:
.LBE42:
	.loc 1 70 17 is_stmt 0
	mv	a0,s0
	.loc 1 71 22
	addi	s0,sp,8
.LVL14:
.LBB45:
.LBB44:
	.loc 2 320 16
	sw	a5,4(a4)
	.loc 2 321 5 is_stmt 1
	.loc 2 321 16 is_stmt 0
	sw	a4,0(a5)
.LVL15:
.LBE44:
.LBE45:
	.loc 1 70 17 is_stmt 1
	call	vPortFree
.LVL16:
	.loc 1 71 17
.L5:
	.loc 1 75 13
	jalr	s2
.LVL17:
.L3:
	.loc 1 63 164 is_stmt 0 discriminator 2
	lw	s0,4(s0)
.LVL18:
	j	.L2
.LVL19:
.L4:
	.loc 1 73 17 is_stmt 1
	.loc 1 73 33 is_stmt 0
	sw	zero,20(s0)
	j	.L5
	.cfi_endproc
.LFE27:
	.size	hwtimer_process, .-hwtimer_process
	.section	.text.hal_hwtimer_init,"ax",@progbits
	.align	1
	.globl	hal_hwtimer_init
	.type	hal_hwtimer_init, @function
hal_hwtimer_init:
.LFB28:
	.loc 1 83 1 is_stmt 1
	.cfi_startproc
	.loc 1 84 5
	.loc 1 85 5
	.loc 1 83 1 is_stmt 0
	addi	sp,sp,-48
	.cfi_def_cfa_offset 48
	.loc 1 85 20
	lui	a1,%hi(.LANCHOR0)
	li	a2,24
	addi	a1,a1,%lo(.LANCHOR0)
	addi	a0,sp,8
	.loc 1 83 1
	sw	ra,44(sp)
	sw	s0,40(sp)
	.cfi_offset 1, -4
	.cfi_offset 8, -8
	.loc 1 85 20
	call	memcpy
.LVL20:
	.loc 1 99 5 is_stmt 1
	.loc 1 99 14 is_stmt 0
	li	a0,8
	call	pvPortMalloc
.LVL21:
	.loc 1 100 5 is_stmt 1
	.loc 1 100 8 is_stmt 0
	bne	a0,zero,.L9
	.loc 1 101 9 is_stmt 1 discriminator 1
	.loc 1 101 47 discriminator 1
	.loc 1 101 52 discriminator 1
	.loc 1 101 75 is_stmt 0 discriminator 1
	lui	a5,%hi(_fsymc_level_hal_drv)
	.loc 1 101 55 discriminator 1
	lbu	a4,%lo(_fsymc_level_hal_drv)(a5)
	li	a5,4
	bleu	a4,a5,.L10
.LVL22:
.L23:
	.loc 1 119 16 discriminator 10
	li	a0,-1
.L8:
	.loc 1 133 1
	lw	ra,44(sp)
	.cfi_remember_state
	.cfi_restore 1
	lw	s0,40(sp)
	.cfi_restore 8
	addi	sp,sp,48
	.cfi_def_cfa_offset 0
	jr	ra
.LVL23:
.L10:
	.cfi_restore_state
	.loc 1 101 121 discriminator 3
	lui	a4,%hi(_fsymf_level_hal_drvhal_hwtimer)
	.loc 1 101 100 discriminator 3
	lbu	a4,%lo(_fsymf_level_hal_drvhal_hwtimer)(a4)
	bgtu	a4,a5,.L23
	.loc 1 101 161 is_stmt 1
.LBB46:
.LBB47:
	.file 3 "/b-l/bl_iot_sdk/components/bl602/freertos_riscv_ram/portable/GCC/RISC-V/portmacro.h"
	.loc 3 151 5
	.loc 3 151 31 is_stmt 0
	lui	a5,%hi(TrapNetCounter)
.LBE47:
.LBE46:
	.loc 1 101 161
	lw	a5,%lo(TrapNetCounter)(a5)
	beq	a5,zero,.L13
	.loc 1 101 247 discriminator 7
	call	xTaskGetTickCountFromISR
.LVL24:
.L14:
	.loc 1 101 161 discriminator 10
	lui	a3,%hi(.LC1)
	lui	a2,%hi(.LC2)
	mv	a1,a0
	lui	a0,%hi(.LC3)
	li	a4,101
	addi	a3,a3,%lo(.LC1)
	addi	a2,a2,%lo(.LC2)
	addi	a0,a0,%lo(.LC3)
.L22:
	.loc 1 117 161 discriminator 10
	call	bl_printk
.LVL25:
	j	.L23
.LVL26:
.L13:
	.loc 1 101 276 discriminator 8
	call	xTaskGetTickCount
.LVL27:
	j	.L14
.LVL28:
.L9:
	mv	s0,a0
	.loc 1 105 5 is_stmt 1
	.loc 1 105 24 is_stmt 0
	li	a0,8
.LVL29:
	call	pvPortMalloc
.LVL30:
	.loc 1 105 22
	sw	a0,4(s0)
	.loc 1 106 5 is_stmt 1
	.loc 1 106 8 is_stmt 0
	bne	a0,zero,.L15
	.loc 1 107 9 is_stmt 1
	mv	a0,s0
	call	vPortFree
.LVL31:
	.loc 1 108 9
	.loc 1 108 47
	.loc 1 108 52
	.loc 1 108 75 is_stmt 0
	lui	a5,%hi(_fsymc_level_hal_drv)
	.loc 1 108 55
	lbu	a4,%lo(_fsymc_level_hal_drv)(a5)
	li	a5,4
	bgtu	a4,a5,.L23
	.loc 1 108 121 discriminator 3
	lui	a4,%hi(_fsymf_level_hal_drvhal_hwtimer)
	.loc 1 108 100 discriminator 3
	lbu	a4,%lo(_fsymf_level_hal_drvhal_hwtimer)(a4)
	bgtu	a4,a5,.L23
	.loc 1 108 161 is_stmt 1
.LBB48:
.LBB49:
	.loc 3 151 5
	.loc 3 151 31 is_stmt 0
	lui	a5,%hi(TrapNetCounter)
.LBE49:
.LBE48:
	.loc 1 108 161
	lw	a5,%lo(TrapNetCounter)(a5)
	beq	a5,zero,.L16
	.loc 1 108 249 discriminator 7
	call	xTaskGetTickCountFromISR
.LVL32:
.L17:
	.loc 1 108 161 discriminator 10
	lui	a3,%hi(.LC1)
	lui	a2,%hi(.LC2)
	mv	a1,a0
	lui	a0,%hi(.LC4)
	li	a4,108
	addi	a3,a3,%lo(.LC1)
	addi	a2,a2,%lo(.LC2)
	addi	a0,a0,%lo(.LC4)
	j	.L22
.L16:
	.loc 1 108 278 discriminator 8
	call	xTaskGetTickCount
.LVL33:
	j	.L17
.L15:
	.loc 1 113 5 is_stmt 1
	.loc 1 113 27 is_stmt 0
	li	a0,1
	call	xQueueCreateMutex
.LVL34:
	.loc 1 113 25
	sw	a0,0(s0)
	.loc 1 114 5 is_stmt 1
	.loc 1 114 8 is_stmt 0
	bne	a0,zero,.L18
	.loc 1 115 9 is_stmt 1
	lw	a0,4(s0)
	call	vPortFree
.LVL35:
	.loc 1 116 9
	mv	a0,s0
	call	vPortFree
.LVL36:
	.loc 1 117 9
	.loc 1 117 47
	.loc 1 117 52
	.loc 1 117 75 is_stmt 0
	lui	a5,%hi(_fsymc_level_hal_drv)
	.loc 1 117 55
	lbu	a4,%lo(_fsymc_level_hal_drv)(a5)
	li	a5,4
	bgtu	a4,a5,.L23
	.loc 1 117 121 discriminator 3
	lui	a4,%hi(_fsymf_level_hal_drvhal_hwtimer)
	.loc 1 117 100 discriminator 3
	lbu	a4,%lo(_fsymf_level_hal_drvhal_hwtimer)(a4)
	bgtu	a4,a5,.L23
	.loc 1 117 161 is_stmt 1
.LBB50:
.LBB51:
	.loc 3 151 5
	.loc 3 151 31 is_stmt 0
	lui	a5,%hi(TrapNetCounter)
.LBE51:
.LBE50:
	.loc 1 117 161
	lw	a5,%lo(TrapNetCounter)(a5)
	beq	a5,zero,.L19
	.loc 1 117 247 discriminator 7
	call	xTaskGetTickCountFromISR
.LVL37:
.L20:
	.loc 1 117 161 discriminator 10
	lui	a3,%hi(.LC1)
	lui	a2,%hi(.LC2)
	mv	a1,a0
	lui	a0,%hi(.LC5)
	li	a4,117
	addi	a3,a3,%lo(.LC1)
	addi	a2,a2,%lo(.LC2)
	addi	a0,a0,%lo(.LC5)
	j	.L22
.L19:
	.loc 1 117 276 discriminator 8
	call	xTaskGetTickCount
.LVL38:
	j	.L20
.L18:
	.loc 1 122 5 is_stmt 1
	li	a0,21
	call	GLB_AHB_Slave1_Reset
.LVL39:
	.loc 1 123 5
	lbu	a0,8(sp)
	li	a2,1
	li	a1,3
	call	TIMER_IntMask
.LVL40:
	.loc 1 124 5
	lbu	a0,8(sp)
	call	TIMER_Disable
.LVL41:
	.loc 1 125 5
	addi	a0,sp,8
	call	TIMER_Init
.LVL42:
	.loc 1 127 5
	lw	a5,4(s0)
.LVL43:
.LBB52:
.LBB53:
	.loc 2 331 5
.LBE53:
.LBE52:
	.loc 1 128 5 is_stmt 0
	lui	a1,%hi(hwtimer_process)
	mv	a2,s0
.LBB55:
.LBB54:
	.loc 2 331 16
	sw	a5,4(a5)
	.loc 2 332 5 is_stmt 1
	.loc 2 332 16 is_stmt 0
	sw	a5,0(a5)
.LVL44:
.LBE54:
.LBE55:
	.loc 1 128 5 is_stmt 1
	addi	a1,a1,%lo(hwtimer_process)
	li	a0,52
	call	bl_irq_register_with_ctx
.LVL45:
	.loc 1 129 5
	li	a0,52
	call	bl_irq_enable
.LVL46:
	.loc 1 130 5
	li	a0,0
	call	TIMER_Enable
.LVL47:
	.loc 1 132 5
	.loc 1 132 12 is_stmt 0
	li	a0,0
	j	.L8
	.cfi_endproc
.LFE28:
	.size	hal_hwtimer_init, .-hal_hwtimer_init
	.section	.text.hal_hwtimer_create,"ax",@progbits
	.align	1
	.globl	hal_hwtimer_create
	.type	hal_hwtimer_create, @function
hal_hwtimer_create:
.LFB29:
	.loc 1 136 1 is_stmt 1
	.cfi_startproc
.LVL48:
	.loc 1 137 5
	.loc 1 138 5
	.loc 1 140 5
	.loc 1 136 1 is_stmt 0
	addi	sp,sp,-48
	.cfi_def_cfa_offset 48
	sw	ra,44(sp)
	sw	s0,40(sp)
	sw	s1,36(sp)
	sw	s2,32(sp)
	sw	s3,28(sp)
	.cfi_offset 1, -4
	.cfi_offset 8, -8
	.cfi_offset 9, -12
	.cfi_offset 18, -16
	.cfi_offset 19, -20
	.loc 1 140 8
	beq	a0,zero,.L25
	mv	s1,a1
	.loc 1 140 21 discriminator 1
	beq	a1,zero,.L25
	.loc 1 140 39 discriminator 2
	li	s0,1
	mv	s2,a2
	bleu	a2,s0,.L26
.L25:
	.loc 1 141 9 is_stmt 1 discriminator 1
	.loc 1 141 47 discriminator 1
	.loc 1 141 52 discriminator 1
	.loc 1 141 75 is_stmt 0 discriminator 1
	lui	a5,%hi(_fsymc_level_hal_drv)
	.loc 1 141 55 discriminator 1
	lbu	a4,%lo(_fsymc_level_hal_drv)(a5)
	li	a5,4
	.loc 1 143 15 discriminator 1
	li	s0,0
	.loc 1 141 55 discriminator 1
	bgtu	a4,a5,.L24
	.loc 1 141 121 discriminator 3
	lui	a4,%hi(_fsymf_level_hal_drvhal_hwtimer)
	.loc 1 141 100 discriminator 3
	lbu	a4,%lo(_fsymf_level_hal_drvhal_hwtimer)(a4)
	bgtu	a4,a5,.L24
	.loc 1 141 161 is_stmt 1
.LBB56:
.LBB57:
	.loc 3 151 5
	.loc 3 151 31 is_stmt 0
	lui	a5,%hi(TrapNetCounter)
.LBE57:
.LBE56:
	.loc 1 141 161
	lw	a5,%lo(TrapNetCounter)(a5)
	beq	a5,zero,.L28
	.loc 1 141 264 discriminator 7
	call	xTaskGetTickCountFromISR
.LVL49:
.L29:
	.loc 1 141 161 discriminator 10
	mv	a1,a0
	lui	a3,%hi(.LC1)
	lui	a2,%hi(.LC2)
	lui	a0,%hi(.LC6)
	li	a4,141
	addi	a3,a3,%lo(.LC1)
	addi	a2,a2,%lo(.LC2)
	addi	a0,a0,%lo(.LC6)
	call	bl_printk
.LVL50:
	.loc 1 143 15 discriminator 10
	li	s0,0
.L24:
	.loc 1 163 1
	mv	a0,s0
	lw	ra,44(sp)
	.cfi_remember_state
	.cfi_restore 1
	lw	s0,40(sp)
	.cfi_restore 8
	lw	s1,36(sp)
	.cfi_restore 9
	lw	s2,32(sp)
	.cfi_restore 18
	lw	s3,28(sp)
	.cfi_restore 19
	addi	sp,sp,48
	.cfi_def_cfa_offset 0
	jr	ra
.LVL51:
.L28:
	.cfi_restore_state
	.loc 1 141 293 discriminator 8
	call	xTaskGetTickCount
.LVL52:
	j	.L29
.LVL53:
.L26:
	.loc 1 146 5
	addi	a1,sp,12
	mv	s3,a0
	.loc 1 146 5 is_stmt 1
	li	a0,52
.LVL54:
	call	bl_irq_ctx_get
.LVL55:
	.loc 1 147 5
	.loc 1 147 9 is_stmt 0
	lw	a5,12(sp)
	li	a1,-1
	lw	a0,0(a5)
	call	xQueueSemaphoreTake
.LVL56:
	.loc 1 147 7
	bne	a0,s0,.L30
	.loc 1 148 9 is_stmt 1 discriminator 1
	.loc 1 148 47 discriminator 1
	.loc 1 148 52 discriminator 1
	.loc 1 148 74 is_stmt 0 discriminator 1
	lui	a5,%hi(_fsymc_level_hal_drv)
	.loc 1 148 55 discriminator 1
	lbu	a4,%lo(_fsymc_level_hal_drv)(a5)
	li	a5,2
	bgtu	a4,a5,.L30
	.loc 1 148 119 discriminator 3
	lui	a4,%hi(_fsymf_level_hal_drvhal_hwtimer)
	.loc 1 148 99 discriminator 3
	lbu	a4,%lo(_fsymf_level_hal_drvhal_hwtimer)(a4)
	bgtu	a4,a5,.L30
	.loc 1 148 159 is_stmt 1
.LBB58:
.LBB59:
	.loc 3 151 5
	.loc 3 151 31 is_stmt 0
	lui	a5,%hi(TrapNetCounter)
.LBE59:
.LBE58:
	.loc 1 148 159
	lw	a5,%lo(TrapNetCounter)(a5)
	beq	a5,zero,.L31
	.loc 1 148 243 discriminator 7
	call	xTaskGetTickCountFromISR
.LVL57:
.L32:
	.loc 1 148 159 discriminator 10
	lui	a3,%hi(.LC1)
	lui	a2,%hi(.LC7)
	mv	a1,a0
	lui	a0,%hi(.LC8)
	li	a4,148
	addi	a3,a3,%lo(.LC1)
	addi	a2,a2,%lo(.LC7)
	addi	a0,a0,%lo(.LC8)
	call	bl_printk
.LVL58:
.L30:
	.loc 1 148 358 is_stmt 1 discriminator 11
	.loc 1 151 5 discriminator 11
	li	a2,1
	li	a1,3
	li	a0,0
	call	TIMER_IntMask
.LVL59:
	.loc 1 153 5 discriminator 11
	.loc 1 153 15 is_stmt 0 discriminator 11
	li	a0,24
	call	pvPortMalloc
.LVL60:
	.loc 1 158 5 discriminator 11
	lw	a5,12(sp)
	.loc 1 154 27 discriminator 11
	sw	s3,16(a0)
	.loc 1 155 21 discriminator 11
	sw	s2,8(a0)
	.loc 1 157 22 discriminator 11
	sw	s1,12(a0)
	.loc 1 156 24 discriminator 11
	sw	zero,20(a0)
	.loc 1 158 5 discriminator 11
	lw	a5,4(a5)
	.loc 1 153 15 discriminator 11
	mv	s0,a0
.LVL61:
	.loc 1 154 5 is_stmt 1 discriminator 11
	.loc 1 155 5 discriminator 11
	.loc 1 156 5 discriminator 11
	.loc 1 157 5 discriminator 11
	.loc 1 158 5 discriminator 11
.LBB60:
.LBB61:
	.loc 2 307 5 discriminator 11
.LBE61:
.LBE60:
	.loc 1 159 5 is_stmt 0 discriminator 11
	li	a2,0
.LBB68:
.LBB66:
	.loc 2 307 41 discriminator 11
	lw	a4,4(a5)
.LVL62:
.LBB62:
.LBB63:
	.loc 2 287 5 is_stmt 1 discriminator 11
	.loc 2 288 16 is_stmt 0 discriminator 11
	sw	a5,0(a0)
.LBE63:
.LBE62:
.LBE66:
.LBE68:
	.loc 1 159 5 discriminator 11
	li	a1,0
.LBB69:
.LBB67:
.LBB65:
.LBB64:
	.loc 2 287 16 discriminator 11
	sw	a4,4(a0)
	.loc 2 288 5 is_stmt 1 discriminator 11
	.loc 2 290 5 discriminator 11
	.loc 2 290 16 is_stmt 0 discriminator 11
	sw	a0,4(a5)
	.loc 2 291 5 is_stmt 1 discriminator 11
	.loc 2 291 16 is_stmt 0 discriminator 11
	sw	a0,0(a4)
.LVL63:
.LBE64:
.LBE65:
.LBE67:
.LBE69:
	.loc 1 159 5 is_stmt 1 discriminator 11
	li	a0,0
	call	TIMER_IntMask
.LVL64:
	.loc 1 160 5 discriminator 11
	lw	a5,12(sp)
	li	a3,0
	li	a2,0
	lw	a0,0(a5)
	li	a1,0
	call	xQueueGenericSend
.LVL65:
	.loc 1 162 5 discriminator 11
	.loc 1 162 12 is_stmt 0 discriminator 11
	j	.L24
.LVL66:
.L31:
	.loc 1 148 272 discriminator 8
	call	xTaskGetTickCount
.LVL67:
	j	.L32
	.cfi_endproc
.LFE29:
	.size	hal_hwtimer_create, .-hal_hwtimer_create
	.section	.text.hal_hwtimer_delete,"ax",@progbits
	.align	1
	.globl	hal_hwtimer_delete
	.type	hal_hwtimer_delete, @function
hal_hwtimer_delete:
.LFB30:
	.loc 1 166 1 is_stmt 1
	.cfi_startproc
.LVL68:
	.loc 1 167 5
	.loc 1 168 5
	.loc 1 169 5
	.loc 1 171 5
	.loc 1 166 1 is_stmt 0
	addi	sp,sp,-32
	.cfi_def_cfa_offset 32
	sw	s0,24(sp)
	.loc 1 171 5
	addi	a1,sp,12
	.cfi_offset 8, -8
	.loc 1 166 1
	mv	s0,a0
	.loc 1 171 5
	li	a0,52
.LVL69:
	.loc 1 166 1
	sw	ra,28(sp)
	.cfi_offset 1, -4
	.loc 1 171 5
	call	bl_irq_ctx_get
.LVL70:
	.loc 1 172 5 is_stmt 1
	.loc 1 172 9 is_stmt 0
	lw	a5,12(sp)
	li	a1,-1
	lw	a0,0(a5)
	call	xQueueSemaphoreTake
.LVL71:
	.loc 1 172 7
	li	a5,1
	bne	a0,a5,.L43
	.loc 1 173 9 is_stmt 1 discriminator 1
	.loc 1 173 47 discriminator 1
	.loc 1 173 52 discriminator 1
	.loc 1 173 74 is_stmt 0 discriminator 1
	lui	a5,%hi(_fsymc_level_hal_drv)
	.loc 1 173 55 discriminator 1
	lbu	a4,%lo(_fsymc_level_hal_drv)(a5)
	li	a5,2
	bgtu	a4,a5,.L43
	.loc 1 173 119 discriminator 3
	lui	a4,%hi(_fsymf_level_hal_drvhal_hwtimer)
	.loc 1 173 99 discriminator 3
	lbu	a4,%lo(_fsymf_level_hal_drvhal_hwtimer)(a4)
	bgtu	a4,a5,.L43
	.loc 1 173 159 is_stmt 1
.LBB76:
.LBB77:
	.loc 3 151 5
	.loc 3 151 31 is_stmt 0
	lui	a5,%hi(TrapNetCounter)
.LBE77:
.LBE76:
	.loc 1 173 159
	lw	a5,%lo(TrapNetCounter)(a5)
	beq	a5,zero,.L44
	.loc 1 173 243 discriminator 7
	call	xTaskGetTickCountFromISR
.LVL72:
.L45:
	.loc 1 173 159 discriminator 10
	lui	a3,%hi(.LC1)
	lui	a2,%hi(.LC7)
	mv	a1,a0
	lui	a0,%hi(.LC8)
	li	a4,173
	addi	a3,a3,%lo(.LC1)
	addi	a2,a2,%lo(.LC7)
	addi	a0,a0,%lo(.LC8)
	call	bl_printk
.LVL73:
.L43:
	.loc 1 173 358 is_stmt 1 discriminator 11
	.loc 1 176 5 discriminator 11
	li	a2,1
	li	a1,3
	li	a0,0
	call	TIMER_IntMask
.LVL74:
	.loc 1 177 5 discriminator 11
	.loc 1 177 51 is_stmt 0 discriminator 11
	lw	a5,12(sp)
	lw	a3,4(a5)
	.loc 1 177 15 discriminator 11
	lw	a5,4(a3)
.LVL75:
.L46:
	.loc 1 177 5 discriminator 1
	bne	a3,a5,.L48
	.loc 1 183 5 is_stmt 1
	.loc 1 184 9
	.loc 1 184 47
	.loc 1 184 52
	.loc 1 184 75 is_stmt 0
	lui	a5,%hi(_fsymc_level_hal_drv)
.LVL76:
	.loc 1 184 55
	lbu	a4,%lo(_fsymc_level_hal_drv)(a5)
	li	a5,4
	bgtu	a4,a5,.L58
	.loc 1 184 121 discriminator 3
	lui	a4,%hi(_fsymf_level_hal_drvhal_hwtimer)
	.loc 1 184 100 discriminator 3
	lbu	a4,%lo(_fsymf_level_hal_drvhal_hwtimer)(a4)
	.loc 1 185 13 discriminator 3
	li	s0,-1
.LVL77:
	.loc 1 184 100 discriminator 3
	bgtu	a4,a5,.L50
	.loc 1 184 161 is_stmt 1
.LBB78:
.LBB79:
	.loc 3 151 5
	.loc 3 151 31 is_stmt 0
	lui	a5,%hi(TrapNetCounter)
.LBE79:
.LBE78:
	.loc 1 184 161
	lw	a5,%lo(TrapNetCounter)(a5)
	beq	a5,zero,.L51
	.loc 1 184 243 discriminator 7
	call	xTaskGetTickCountFromISR
.LVL78:
.L52:
	.loc 1 184 161 discriminator 10
	lui	a3,%hi(.LC1)
	lui	a2,%hi(.LC2)
	mv	a1,a0
	lui	a0,%hi(.LC9)
	li	a4,184
	addi	a3,a3,%lo(.LC1)
	addi	a2,a2,%lo(.LC2)
	addi	a0,a0,%lo(.LC9)
	call	bl_printk
.LVL79:
.L58:
	.loc 1 185 13
	li	s0,-1
	j	.L50
.LVL80:
.L44:
	.loc 1 173 272 discriminator 8
	call	xTaskGetTickCount
.LVL81:
	j	.L45
.LVL82:
.L48:
	.loc 1 178 9 is_stmt 1
	lw	a4,4(a5)
	.loc 1 178 12 is_stmt 0
	beq	a5,s0,.L47
	mv	a5,a4
.LVL83:
	j	.L46
.LVL84:
.L51:
	.loc 1 184 272 discriminator 8
	call	xTaskGetTickCount
.LVL85:
	j	.L52
.LVL86:
.L47:
	.loc 1 183 5 is_stmt 1
	.loc 1 188 5
	.loc 1 189 9
.LBB80:
.LBB81:
	.loc 2 317 5
	.loc 2 317 20 is_stmt 0
	lw	a5,0(a5)
.LVL87:
	.loc 2 318 5 is_stmt 1
	.loc 2 320 5
.LBE81:
.LBE80:
	.loc 1 168 9 is_stmt 0
	li	s0,0
.LVL88:
.LBB83:
.LBB82:
	.loc 2 320 16
	sw	a4,4(a5)
.LVL89:
	.loc 2 321 5 is_stmt 1
	.loc 2 321 16 is_stmt 0
	sw	a5,0(a4)
.LVL90:
.L50:
.LBE82:
.LBE83:
	.loc 1 192 5 is_stmt 1
	li	a2,0
	li	a1,0
	li	a0,0
	call	TIMER_IntMask
.LVL91:
	.loc 1 193 5
	lw	a5,12(sp)
	li	a3,0
	li	a2,0
	lw	a0,0(a5)
	li	a1,0
	call	xQueueGenericSend
.LVL92:
	.loc 1 194 5
	.loc 1 195 1 is_stmt 0
	mv	a0,s0
	lw	ra,28(sp)
	.cfi_restore 1
	lw	s0,24(sp)
	.cfi_restore 8
	addi	sp,sp,32
	.cfi_def_cfa_offset 0
	jr	ra
	.cfi_endproc
.LFE30:
	.size	hal_hwtimer_delete, .-hal_hwtimer_delete
	.section	.text.hal_hwtimer_change_period,"ax",@progbits
	.align	1
	.globl	hal_hwtimer_change_period
	.type	hal_hwtimer_change_period, @function
hal_hwtimer_change_period:
.LFB31:
	.loc 1 198 1 is_stmt 1
	.cfi_startproc
.LVL93:
	.loc 1 199 5
	.loc 1 200 5
	.loc 1 201 5
	.loc 1 203 5
	.loc 1 198 1 is_stmt 0
	addi	sp,sp,-32
	.cfi_def_cfa_offset 32
	sw	ra,28(sp)
	sw	s0,24(sp)
	sw	s1,20(sp)
	.cfi_offset 1, -4
	.cfi_offset 8, -8
	.cfi_offset 9, -12
	.loc 1 203 8
	bne	a1,zero,.L60
	.loc 1 204 9 is_stmt 1 discriminator 1
	.loc 1 204 47 discriminator 1
	.loc 1 204 52 discriminator 1
	.loc 1 204 75 is_stmt 0 discriminator 1
	lui	a5,%hi(_fsymc_level_hal_drv)
	.loc 1 204 55 discriminator 1
	lbu	a4,%lo(_fsymc_level_hal_drv)(a5)
	li	a5,4
	.loc 1 205 16 discriminator 1
	li	s0,-1
	.loc 1 204 55 discriminator 1
	bgtu	a4,a5,.L59
	.loc 1 204 121 discriminator 3
	lui	a4,%hi(_fsymf_level_hal_drvhal_hwtimer)
	.loc 1 204 100 discriminator 3
	lbu	a4,%lo(_fsymf_level_hal_drvhal_hwtimer)(a4)
	bgtu	a4,a5,.L59
	.loc 1 204 161 is_stmt 1
.LBB84:
.LBB85:
	.loc 3 151 5
	.loc 3 151 31 is_stmt 0
	lui	a5,%hi(TrapNetCounter)
.LBE85:
.LBE84:
	.loc 1 204 161
	lw	a5,%lo(TrapNetCounter)(a5)
	beq	a5,zero,.L62
	.loc 1 204 267 discriminator 7
	call	xTaskGetTickCountFromISR
.LVL94:
.L63:
	.loc 1 204 161 discriminator 10
	mv	a1,a0
	lui	a3,%hi(.LC1)
	lui	a2,%hi(.LC2)
	lui	a0,%hi(.LC10)
	li	a4,204
	addi	a3,a3,%lo(.LC1)
	addi	a2,a2,%lo(.LC2)
	addi	a0,a0,%lo(.LC10)
	call	bl_printk
.LVL95:
	.loc 1 205 16 discriminator 10
	li	s0,-1
.L59:
	.loc 1 233 1
	mv	a0,s0
	lw	ra,28(sp)
	.cfi_remember_state
	.cfi_restore 1
	lw	s0,24(sp)
	.cfi_restore 8
	lw	s1,20(sp)
	.cfi_restore 9
	addi	sp,sp,32
	.cfi_def_cfa_offset 0
	jr	ra
.LVL96:
.L62:
	.cfi_restore_state
	.loc 1 204 296 discriminator 8
	call	xTaskGetTickCount
.LVL97:
	j	.L63
.LVL98:
.L60:
	mv	s1,a0
	mv	s0,a1
	.loc 1 208 5 is_stmt 1
	li	a0,52
.LVL99:
	addi	a1,sp,12
.LVL100:
	call	bl_irq_ctx_get
.LVL101:
	.loc 1 209 5
	.loc 1 209 9 is_stmt 0
	lw	a5,12(sp)
	li	a1,-1
	lw	a0,0(a5)
	call	xQueueSemaphoreTake
.LVL102:
	.loc 1 209 7
	li	a5,1
	bne	a0,a5,.L64
	.loc 1 210 9 is_stmt 1 discriminator 1
	.loc 1 210 47 discriminator 1
	.loc 1 210 52 discriminator 1
	.loc 1 210 74 is_stmt 0 discriminator 1
	lui	a5,%hi(_fsymc_level_hal_drv)
	.loc 1 210 55 discriminator 1
	lbu	a4,%lo(_fsymc_level_hal_drv)(a5)
	li	a5,2
	bgtu	a4,a5,.L64
	.loc 1 210 119 discriminator 3
	lui	a4,%hi(_fsymf_level_hal_drvhal_hwtimer)
	.loc 1 210 99 discriminator 3
	lbu	a4,%lo(_fsymf_level_hal_drvhal_hwtimer)(a4)
	bgtu	a4,a5,.L64
	.loc 1 210 159 is_stmt 1
.LBB86:
.LBB87:
	.loc 3 151 5
	.loc 3 151 31 is_stmt 0
	lui	a5,%hi(TrapNetCounter)
.LBE87:
.LBE86:
	.loc 1 210 159
	lw	a5,%lo(TrapNetCounter)(a5)
	beq	a5,zero,.L65
	.loc 1 210 243 discriminator 7
	call	xTaskGetTickCountFromISR
.LVL103:
.L66:
	.loc 1 210 159 discriminator 10
	lui	a3,%hi(.LC1)
	lui	a2,%hi(.LC7)
	mv	a1,a0
	lui	a0,%hi(.LC8)
	li	a4,210
	addi	a3,a3,%lo(.LC1)
	addi	a2,a2,%lo(.LC7)
	addi	a0,a0,%lo(.LC8)
	call	bl_printk
.LVL104:
.L64:
	.loc 1 210 358 is_stmt 1 discriminator 11
	.loc 1 213 5 discriminator 11
	li	a2,1
	li	a1,3
	li	a0,0
	call	TIMER_IntMask
.LVL105:
	.loc 1 214 5 discriminator 11
	.loc 1 214 51 is_stmt 0 discriminator 11
	lw	a5,12(sp)
	lw	a4,4(a5)
	.loc 1 214 15 discriminator 11
	lw	a5,4(a4)
.LVL106:
.L67:
	.loc 1 214 5 discriminator 1
	bne	a4,a5,.L69
	.loc 1 220 5 is_stmt 1
	.loc 1 221 9
	.loc 1 221 47
	.loc 1 221 52
	.loc 1 221 75 is_stmt 0
	lui	a5,%hi(_fsymc_level_hal_drv)
.LVL107:
	.loc 1 221 55
	lbu	a4,%lo(_fsymc_level_hal_drv)(a5)
	li	a5,4
	bgtu	a4,a5,.L80
	.loc 1 221 121 discriminator 3
	lui	a4,%hi(_fsymf_level_hal_drvhal_hwtimer)
	.loc 1 221 100 discriminator 3
	lbu	a4,%lo(_fsymf_level_hal_drvhal_hwtimer)(a4)
	.loc 1 222 13 discriminator 3
	li	s0,-1
.LVL108:
	.loc 1 221 100 discriminator 3
	bgtu	a4,a5,.L71
	.loc 1 221 161 is_stmt 1
.LBB88:
.LBB89:
	.loc 3 151 5
	.loc 3 151 31 is_stmt 0
	lui	a5,%hi(TrapNetCounter)
.LBE89:
.LBE88:
	.loc 1 221 161
	lw	a5,%lo(TrapNetCounter)(a5)
	beq	a5,zero,.L72
	.loc 1 221 243 discriminator 7
	call	xTaskGetTickCountFromISR
.LVL109:
.L73:
	.loc 1 221 161 discriminator 10
	lui	a3,%hi(.LC1)
	lui	a2,%hi(.LC2)
	mv	a1,a0
	lui	a0,%hi(.LC9)
	li	a4,221
	addi	a3,a3,%lo(.LC1)
	addi	a2,a2,%lo(.LC2)
	addi	a0,a0,%lo(.LC9)
	call	bl_printk
.LVL110:
.L80:
	.loc 1 222 13 discriminator 10
	li	s0,-1
.L71:
	.loc 1 230 5 is_stmt 1
	li	a2,0
	li	a1,0
	li	a0,0
	call	TIMER_IntMask
.LVL111:
	.loc 1 231 5
	lw	a5,12(sp)
	li	a3,0
	li	a2,0
	lw	a0,0(a5)
	li	a1,0
	call	xQueueGenericSend
.LVL112:
	.loc 1 232 5
	.loc 1 232 12 is_stmt 0
	j	.L59
.LVL113:
.L65:
	.loc 1 210 272 discriminator 8
	call	xTaskGetTickCount
.LVL114:
	j	.L66
.LVL115:
.L69:
	.loc 1 215 9 is_stmt 1
	.loc 1 215 12 is_stmt 0
	beq	a5,s1,.L68
	.loc 1 214 164 discriminator 2
	lw	a5,4(a5)
.LVL116:
	j	.L67
.LVL117:
.L72:
	.loc 1 221 272 discriminator 8
	call	xTaskGetTickCount
.LVL118:
	j	.L73
.LVL119:
.L68:
	.loc 1 220 5 is_stmt 1
	.loc 1 225 5
	.loc 1 226 9
	.loc 1 226 28 is_stmt 0
	sw	s0,16(a5)
	.loc 1 227 9 is_stmt 1
	.loc 1 227 25 is_stmt 0
	sw	zero,20(a5)
	.loc 1 200 9
	li	s0,0
.LVL120:
	j	.L71
	.cfi_endproc
.LFE31:
	.size	hal_hwtimer_change_period, .-hal_hwtimer_change_period
	.globl	_fsymf_info_hal_drvhal_hwtimer
	.comm	_fsymf_level_hal_drvhal_hwtimer,1,1
	.comm	_fsymc_level_hal_drv,1,1
	.section	.rodata
	.align	2
	.set	.LANCHOR0,. + 0
.LC0:
	.byte	0
	.byte	3
	.byte	1
	.byte	0
	.byte	0
	.zero	3
	.word	39998
	.word	32000000
	.word	32000000
	.word	0
	.section	.rodata.hal_hwtimer_change_period.str1.4,"aMS",@progbits,1
	.align	2
.LC10:
	.string	"[%10u][%s: %s:%4d] period illegal , change period failed \r\n"
	.section	.rodata.hal_hwtimer_create.str1.4,"aMS",@progbits,1
	.align	2
.LC6:
	.string	"[%10u][%s: %s:%4d] para illegal , create timer failed \r\n"
	.zero	3
.LC7:
	.string	"\033[32mINFO  \033[0m"
.LC8:
	.string	"[%10u][%s: %s:%4d] get mux success \r\n"
	.section	.rodata.hal_hwtimer_delete.str1.4,"aMS",@progbits,1
	.align	2
.LC9:
	.string	"[%10u][%s: %s:%4d] not find node \r\n"
	.section	.rodata.hal_hwtimer_init.str1.4,"aMS",@progbits,1
	.align	2
.LC1:
	.string	"hal_hwtimer.c"
	.zero	2
.LC2:
	.string	"\033[31mERROR \033[0m"
.LC3:
	.string	"[%10u][%s: %s:%4d] create ctx failed \r\n"
.LC4:
	.string	"[%10u][%s: %s:%4d] create queue failed \r\n"
	.zero	2
.LC5:
	.string	"[%10u][%s: %s:%4d] create mux failed \r\n"
	.section	.rodata.str1.4,"aMS",@progbits,1
	.align	2
.LC11:
	.string	"hal_drv.hal_hwtimer"
.LC12:
	.string	"hal_drv"
	.section	.sdata2.BLOG_HARD_DECLARE_DISABLE,"a"
	.align	2
	.type	BLOG_HARD_DECLARE_DISABLE, @object
	.size	BLOG_HARD_DECLARE_DISABLE, 4
BLOG_HARD_DECLARE_DISABLE:
	.zero	4
	.section	.static_blogcomponent_code.hal_drv,"a"
	.align	2
	.type	_fsymc_info_hal_drv, @object
	.size	_fsymc_info_hal_drv, 8
_fsymc_info_hal_drv:
	.word	_fsymc_level_hal_drv
	.word	.LC12
	.section	.static_blogfile_code.hal_drvhal_hwtimer,"a"
	.align	2
	.type	_fsymf_info_hal_drvhal_hwtimer, @object
	.size	_fsymf_info_hal_drvhal_hwtimer, 8
_fsymf_info_hal_drvhal_hwtimer:
	.word	_fsymf_level_hal_drvhal_hwtimer
	.word	.LC11
	.text
.Letext0:
	.file 4 "/b-l/bl_iot_sdk/components/bl602/bl602_std/bl602_std/Device/Bouffalo/BL602/Peripherals/bl602.h"
	.file 5 "/b-l/bl_iot_sdk/toolchain/riscv/Linux/lib/gcc/riscv64-unknown-elf/8.3.0/include/stdint-gcc.h"
	.file 6 "/b-l/bl_iot_sdk/toolchain/riscv/Linux/lib/gcc/riscv64-unknown-elf/8.3.0/include/stddef.h"
	.file 7 "/b-l/bl_iot_sdk/toolchain/riscv/Linux/riscv64-unknown-elf/include/sys/_types.h"
	.file 8 "/b-l/bl_iot_sdk/toolchain/riscv/Linux/riscv64-unknown-elf/include/sys/reent.h"
	.file 9 "/b-l/bl_iot_sdk/toolchain/riscv/Linux/riscv64-unknown-elf/include/sys/lock.h"
	.file 10 "/b-l/bl_iot_sdk/components/bl602/bl602_std/bl602_std/RISCV/Device/Bouffalo/BL602/Startup/system_bl602.h"
	.file 11 "/b-l/bl_iot_sdk/components/bl602/bl602_std/bl602_std/StdDriver/Inc/bl602_common.h"
	.file 12 "/b-l/bl_iot_sdk/components/bl602/bl602_std/bl602_std/StdDriver/Inc/bl602_timer.h"
	.file 13 "/b-l/bl_iot_sdk/components/stage/blog/blog_type.h"
	.file 14 "/b-l/bl_iot_sdk/components/stage/blog/blog.h"
	.file 15 "/b-l/bl_iot_sdk/components/hal_drv/bl602_hal/hal_hwtimer.h"
	.file 16 "/b-l/bl_iot_sdk/components/bl602/freertos_riscv_ram/config/queue.h"
	.file 17 "/b-l/bl_iot_sdk/components/bl602/freertos_riscv_ram/config/semphr.h"
	.file 18 "/b-l/bl_iot_sdk/components/bl602/freertos_riscv_ram/config/task.h"
	.file 19 "/b-l/bl_iot_sdk/components/utils/include/utils_log.h"
	.file 20 "/b-l/bl_iot_sdk/components/hal_drv/bl602_hal/bl_irq.h"
	.file 21 "/b-l/bl_iot_sdk/components/bl602/freertos_riscv_ram/config/portable.h"
	.file 22 "/b-l/bl_iot_sdk/components/bl602/bl602_std/bl602_std/StdDriver/Inc/bl602_glb.h"
	.file 23 "/b-l/bl_iot_sdk/toolchain/riscv/Linux/riscv64-unknown-elf/include/string.h"
	.file 24 "<built-in>"