	.file	"memp.c"
	.option nopic
	.attribute arch, "rv32i2p0_m2p0_f2p0_c2p0"
	.attribute unaligned_access, 0
	.attribute stack_align, 16
	.text
.Ltext0:
	.cfi_sections	.debug_frame
	.section	.text.do_memp_malloc_pool,"ax",@progbits
	.align	1
	.type	do_memp_malloc_pool, @function
do_memp_malloc_pool:
.LFB7:
	.file 1 "/b-l/bl_iot_sdk_new/components/network/lwip/src/core/memp.c"
	.loc 1 249 1
	.cfi_startproc
.LVL0:
	.loc 1 250 3
	.loc 1 251 3
	.loc 1 257 3
	.loc 1 249 1 is_stmt 0
	addi	sp,sp,-16
	.cfi_def_cfa_offset 16
	sw	s0,8(sp)
	sw	s1,4(sp)
	.cfi_offset 8, -8
	.cfi_offset 9, -12
	mv	s0,a0
	sw	ra,12(sp)
	.cfi_offset 1, -4
	.loc 1 257 15
	call	sys_arch_protect
.LVL1:
	.loc 1 259 3 is_stmt 1
	.loc 1 259 15 is_stmt 0
	lw	a5,12(s0)
	.loc 1 259 8
	lw	s1,0(a5)
.LVL2:
	.loc 1 262 3 is_stmt 1
	.loc 1 262 6 is_stmt 0
	beq	s1,zero,.L2
	.loc 1 268 22
	lw	a4,0(s1)
	mv	a3,a0
	.loc 1 268 5 is_stmt 1
	.loc 1 268 16 is_stmt 0
	sw	a4,0(a5)
	.loc 1 280 5 is_stmt 1
	.loc 1 280 10
	.loc 1 280 47
	.loc 1 283 5
	.loc 1 283 9 is_stmt 0
	lw	a4,0(s0)
	.loc 1 283 22
	lhu	a5,4(a4)
	addi	a5,a5,1
	sh	a5,4(a4)
	.loc 1 284 5 is_stmt 1
	.loc 1 284 13 is_stmt 0
	lw	a5,0(s0)
	.loc 1 284 20
	lhu	a4,4(a5)
	.loc 1 284 8
	lhu	a2,6(a5)
	bgeu	a2,a4,.L3
	.loc 1 285 7 is_stmt 1
	.loc 1 285 24 is_stmt 0
	sh	a4,6(a5)
.L3:
	.loc 1 288 5 is_stmt 1
	mv	a0,a3
.LVL3:
.L6:
	.loc 1 295 5
	call	sys_arch_unprotect
.LVL4:
	.loc 1 296 5
	.loc 1 299 3
	.loc 1 300 1 is_stmt 0
	lw	ra,12(sp)
	.cfi_remember_state
	.cfi_restore 1
	lw	s0,8(sp)
	.cfi_restore 8
.LVL5:
	mv	a0,s1
	lw	s1,4(sp)
	.cfi_restore 9
.LVL6:
	addi	sp,sp,16
	.cfi_def_cfa_offset 0
	jr	ra
.LVL7:
.L2:
	.cfi_restore_state
	.loc 1 293 5 is_stmt 1
	.loc 1 293 9 is_stmt 0
	lw	a4,0(s0)
	.loc 1 293 21
	lhu	a5,0(a4)
	addi	a5,a5,1
	sh	a5,0(a4)
	j	.L6
	.cfi_endproc
.LFE7:
	.size	do_memp_malloc_pool, .-do_memp_malloc_pool
	.section	.text.memp_init_pool,"ax",@progbits
	.align	1
	.globl	memp_init_pool
	.type	memp_init_pool, @function
memp_init_pool:
.LFB5:
	.loc 1 176 1 is_stmt 1
	.cfi_startproc
.LVL8:
	.loc 1 180 3
	.loc 1 181 3
	.loc 1 183 3
	.loc 1 183 8 is_stmt 0
	lw	a5,12(a0)
	.loc 1 194 10
	li	a4,0
	.loc 1 183 14
	sw	zero,0(a5)
	.loc 1 184 3 is_stmt 1
	.loc 1 184 64 is_stmt 0
	lw	a5,8(a0)
	addi	a5,a5,3
	.loc 1 184 69
	andi	a5,a5,-4
.LVL9:
	.loc 1 194 3 is_stmt 1
.L8:
	.loc 1 194 23 is_stmt 0 discriminator 1
	lhu	a3,6(a0)
	.loc 1 194 3 discriminator 1
	bgt	a3,a4,.L9
	.loc 1 208 3 is_stmt 1
	.loc 1 208 7 is_stmt 0
	lw	a5,0(a0)
.LVL10:
	.loc 1 208 22
	sh	a3,2(a5)
	.loc 1 215 1
	ret
.LVL11:
.L9:
	.loc 1 195 5 is_stmt 1 discriminator 3
	.loc 1 195 18 is_stmt 0 discriminator 3
	lw	a3,12(a0)
	.loc 1 194 30 discriminator 3
	addi	a4,a4,1
.LVL12:
	.loc 1 195 18 discriminator 3
	lw	a3,0(a3)
	.loc 1 195 16 discriminator 3
	sw	a3,0(a5)
	.loc 1 196 5 is_stmt 1 discriminator 3
	.loc 1 196 10 is_stmt 0 discriminator 3
	lw	a3,12(a0)
	.loc 1 196 16 discriminator 3
	sw	a5,0(a3)
	.loc 1 201 5 is_stmt 1 discriminator 3
	.loc 1 201 59 is_stmt 0 discriminator 3
	lhu	a3,4(a0)
	.loc 1 201 10 discriminator 3
	add	a5,a5,a3
.LVL13:
	j	.L8
	.cfi_endproc
.LFE5:
	.size	memp_init_pool, .-memp_init_pool
	.section	.text.memp_init,"ax",@progbits
	.align	1
	.globl	memp_init
	.type	memp_init, @function
memp_init:
.LFB6:
	.loc 1 225 1 is_stmt 1
	.cfi_startproc
	.loc 1 226 3
	.loc 1 229 3
.LVL14:
	.loc 1 225 1 is_stmt 0
	addi	sp,sp,-32
	.cfi_def_cfa_offset 32
	sw	s0,24(sp)
	sw	s2,16(sp)
	.cfi_offset 8, -8
	.cfi_offset 18, -16
	lui	s0,%hi(lwip_stats)
	.loc 1 230 5
	lui	s2,%hi(.LANCHOR0)
	.loc 1 225 1
	sw	s1,20(sp)
	sw	s4,8(sp)
	sw	ra,28(sp)
	sw	s3,12(sp)
	.cfi_offset 9, -12
	.cfi_offset 20, -24
	.cfi_offset 1, -4
	.cfi_offset 19, -20
	addi	s0,s0,%lo(lwip_stats)
	.loc 1 225 1
	li	s1,0
	.loc 1 230 5
	addi	s2,s2,%lo(.LANCHOR0)
	.loc 1 229 3
	li	s4,60
.LVL15:
.L11:
	.loc 1 230 5 is_stmt 1 discriminator 3
	add	a5,s2,s1
	lw	s3,0(a5)
	addi	s1,s1,4
	addi	s0,s0,4
	mv	a0,s3
	call	memp_init_pool
.LVL16:
	.loc 1 233 5 discriminator 3
	.loc 1 233 39 is_stmt 0 discriminator 3
	lw	a5,0(s3)
	.loc 1 233 24 discriminator 3
	sw	a5,180(s0)
	.loc 1 229 3 discriminator 3
	bne	s1,s4,.L11
	.loc 1 241 1
	lw	ra,28(sp)
	.cfi_restore 1
	lw	s0,24(sp)
	.cfi_restore 8
	lw	s1,20(sp)
	.cfi_restore 9
	lw	s2,16(sp)
	.cfi_restore 18
	lw	s3,12(sp)
	.cfi_restore 19
	lw	s4,8(sp)
	.cfi_restore 20
	addi	sp,sp,32
	.cfi_def_cfa_offset 0
	jr	ra
	.cfi_endproc
.LFE6:
	.size	memp_init, .-memp_init
	.section	.text.memp_malloc_pool,"ax",@progbits
	.align	1
	.globl	memp_malloc_pool
	.type	memp_malloc_pool, @function
memp_malloc_pool:
.LFB8:
	.loc 1 315 1 is_stmt 1
	.cfi_startproc
.LVL17:
	.loc 1 316 3
	.loc 1 316 8
	.loc 1 316 7
	.loc 1 317 3
	.loc 1 317 6 is_stmt 0
	beq	a0,zero,.L15
	.loc 1 322 3 is_stmt 1
	.loc 1 322 10 is_stmt 0
	tail	do_memp_malloc_pool
.LVL18:
.L15:
	.loc 1 326 1
	ret
	.cfi_endproc
.LFE8:
	.size	memp_malloc_pool, .-memp_malloc_pool
	.section	.text.memp_malloc,"ax",@progbits
	.align	1
	.globl	memp_malloc
	.type	memp_malloc, @function
memp_malloc:
.LFB9:
	.loc 1 341 1 is_stmt 1
	.cfi_startproc
.LVL19:
	.loc 1 342 3
	.loc 1 343 3
	.loc 1 343 8
	.loc 1 343 11 is_stmt 0
	li	a5,14
	bgtu	a0,a5,.L17
	.loc 1 343 3 is_stmt 1 discriminator 2
	.loc 1 350 3 discriminator 2
	.loc 1 350 10 is_stmt 0 discriminator 2
	slli	a5,a0,2
	lui	a0,%hi(.LANCHOR0)
.LVL20:
	addi	a0,a0,%lo(.LANCHOR0)
	add	a0,a0,a5
	lw	a0,0(a0)
	tail	do_memp_malloc_pool
.LVL21:
.L17:
	.loc 1 356 1
	li	a0,0
.LVL22:
	ret
	.cfi_endproc
.LFE9:
	.size	memp_malloc, .-memp_malloc
	.section	.text.memp_free_pool,"ax",@progbits
	.align	1
	.globl	memp_free_pool
	.type	memp_free_pool, @function
memp_free_pool:
.LFB11:
	.loc 1 404 1 is_stmt 1
	.cfi_startproc
.LVL23:
	.loc 1 405 3
	.loc 1 405 8
	.loc 1 405 7
	.loc 1 406 3
	.loc 1 406 6 is_stmt 0
	beq	a0,zero,.L18
	.loc 1 406 21 discriminator 1
	beq	a1,zero,.L18
	.loc 1 404 1
	addi	sp,sp,-16
	.cfi_def_cfa_offset 16
	sw	s0,8(sp)
	sw	s1,4(sp)
	sw	ra,12(sp)
	.cfi_offset 8, -8
	.cfi_offset 9, -12
	.cfi_offset 1, -4
	mv	s0,a0
	.loc 1 410 3 is_stmt 1
.LVL24:
	mv	s1,a1
.LVL25:
.LBB4:
.LBB5:
	.loc 1 361 3
	.loc 1 362 3
	.loc 1 364 3
	.loc 1 364 8
	.loc 1 364 44
	.loc 1 368 3
	.loc 1 370 3
	.loc 1 370 15 is_stmt 0
	call	sys_arch_protect
.LVL26:
	.loc 1 377 3 is_stmt 1
	.loc 1 377 7 is_stmt 0
	lw	a4,0(s0)
	.loc 1 377 20
	lhu	a5,4(a4)
	addi	a5,a5,-1
	sh	a5,4(a4)
	.loc 1 385 3 is_stmt 1
	.loc 1 385 16 is_stmt 0
	lw	a5,12(s0)
	lw	a5,0(a5)
	.loc 1 385 14
	sw	a5,0(s1)
	.loc 1 386 3 is_stmt 1
	.loc 1 386 8 is_stmt 0
	lw	a5,12(s0)
	.loc 1 386 14
	sw	s1,0(a5)
	.loc 1 392 3 is_stmt 1
.LBE5:
.LBE4:
	.loc 1 411 1 is_stmt 0
	lw	s0,8(sp)
	.cfi_restore 8
.LVL27:
	lw	ra,12(sp)
	.cfi_restore 1
	lw	s1,4(sp)
	.cfi_restore 9
.LVL28:
	addi	sp,sp,16
	.cfi_def_cfa_offset 0
.LBB7:
.LBB6:
	.loc 1 392 3
	tail	sys_arch_unprotect
.LVL29:
.L18:
	ret
.LBE6:
.LBE7:
	.cfi_endproc
.LFE11:
	.size	memp_free_pool, .-memp_free_pool
	.section	.text.memp_free,"ax",@progbits
	.align	1
	.globl	memp_free
	.type	memp_free, @function
memp_free:
.LFB12:
	.loc 1 421 1 is_stmt 1
	.cfi_startproc
.LVL30:
	.loc 1 426 3
	.loc 1 426 8
	.loc 1 426 11 is_stmt 0
	li	a5,14
	bgtu	a0,a5,.L29
	.loc 1 426 45 is_stmt 1 discriminator 2
	.loc 1 428 3 discriminator 2
	.loc 1 428 6 is_stmt 0 discriminator 2
	beq	a1,zero,.L29
	.loc 1 440 3
	lui	a5,%hi(.LANCHOR0)
	addi	a5,a5,%lo(.LANCHOR0)
	slli	a0,a0,2
.LVL31:
	.loc 1 421 1
	addi	sp,sp,-16
	.cfi_def_cfa_offset 16
	.loc 1 440 3
	add	a0,a5,a0
	.loc 1 421 1
	sw	s1,4(sp)
	.cfi_offset 9, -12
	.loc 1 440 3
	lw	s1,0(a0)
	.loc 1 421 1
	sw	s0,8(sp)
	sw	ra,12(sp)
	.cfi_offset 8, -8
	.cfi_offset 1, -4
	mv	s0,a1
	.loc 1 440 3 is_stmt 1
.LVL32:
.LBB10:
.LBB11:
	.loc 1 361 3
	.loc 1 362 3
	.loc 1 364 3
	.loc 1 364 8
	.loc 1 364 44
	.loc 1 368 3
	.loc 1 370 3
	.loc 1 370 15 is_stmt 0
	call	sys_arch_protect
.LVL33:
	.loc 1 377 3 is_stmt 1
	.loc 1 377 7 is_stmt 0
	lw	a4,0(s1)
	.loc 1 377 20
	lhu	a5,4(a4)
	addi	a5,a5,-1
	sh	a5,4(a4)
	.loc 1 385 3 is_stmt 1
	.loc 1 385 16 is_stmt 0
	lw	a5,12(s1)
	lw	a5,0(a5)
	.loc 1 385 14
	sw	a5,0(s0)
	.loc 1 386 3 is_stmt 1
	.loc 1 386 8 is_stmt 0
	lw	a5,12(s1)
	.loc 1 386 14
	sw	s0,0(a5)
	.loc 1 392 3 is_stmt 1
.LBE11:
.LBE10:
	.loc 1 447 1 is_stmt 0
	lw	s0,8(sp)
	.cfi_restore 8
.LVL34:
	lw	ra,12(sp)
	.cfi_restore 1
	lw	s1,4(sp)
	.cfi_restore 9
.LVL35:
	addi	sp,sp,16
	.cfi_def_cfa_offset 0
.LBB13:
.LBB12:
	.loc 1 392 3
	tail	sys_arch_unprotect
.LVL36:
.L29:
	ret
.LBE12:
.LBE13:
	.cfi_endproc
.LFE12:
	.size	memp_free, .-memp_free
	.globl	memp_pools
	.globl	memp_PBUF_POOL
	.globl	memp_memory_PBUF_POOL_base
	.globl	memp_PBUF
	.globl	memp_memory_PBUF_base
	.globl	memp_NETDB
	.globl	memp_memory_NETDB_base
	.globl	memp_SYS_TIMEOUT
	.globl	memp_memory_SYS_TIMEOUT_base
	.globl	memp_IGMP_GROUP
	.globl	memp_memory_IGMP_GROUP_base
	.globl	memp_TCPIP_MSG_INPKT
	.globl	memp_memory_TCPIP_MSG_INPKT_base
	.globl	memp_TCPIP_MSG_API
	.globl	memp_memory_TCPIP_MSG_API_base
	.globl	memp_NETCONN
	.globl	memp_memory_NETCONN_base
	.globl	memp_NETBUF
	.globl	memp_memory_NETBUF_base
	.globl	memp_ALTCP_PCB
	.globl	memp_memory_ALTCP_PCB_base
	.globl	memp_TCP_SEG
	.globl	memp_memory_TCP_SEG_base
	.globl	memp_TCP_PCB_LISTEN
	.globl	memp_memory_TCP_PCB_LISTEN_base
	.globl	memp_TCP_PCB
	.globl	memp_memory_TCP_PCB_base
	.globl	memp_UDP_PCB
	.globl	memp_memory_UDP_PCB_base
	.globl	memp_RAW_PCB
	.globl	memp_memory_RAW_PCB_base
	.section	.bss.memp_stats_ALTCP_PCB,"aw",@nobits
	.align	2
	.type	memp_stats_ALTCP_PCB, @object
	.size	memp_stats_ALTCP_PCB, 10
memp_stats_ALTCP_PCB:
	.zero	10
	.section	.bss.memp_stats_IGMP_GROUP,"aw",@nobits
	.align	2
	.type	memp_stats_IGMP_GROUP, @object
	.size	memp_stats_IGMP_GROUP, 10
memp_stats_IGMP_GROUP:
	.zero	10
	.section	.bss.memp_stats_NETBUF,"aw",@nobits
	.align	2
	.type	memp_stats_NETBUF, @object
	.size	memp_stats_NETBUF, 10
memp_stats_NETBUF:
	.zero	10
	.section	.bss.memp_stats_NETCONN,"aw",@nobits
	.align	2
	.type	memp_stats_NETCONN, @object
	.size	memp_stats_NETCONN, 10
memp_stats_NETCONN:
	.zero	10
	.section	.bss.memp_stats_NETDB,"aw",@nobits
	.align	2
	.type	memp_stats_NETDB, @object
	.size	memp_stats_NETDB, 10
memp_stats_NETDB:
	.zero	10
	.section	.bss.memp_stats_PBUF,"aw",@nobits
	.align	2
	.type	memp_stats_PBUF, @object
	.size	memp_stats_PBUF, 10
memp_stats_PBUF:
	.zero	10
	.section	.bss.memp_stats_PBUF_POOL,"aw",@nobits
	.align	2
	.type	memp_stats_PBUF_POOL, @object
	.size	memp_stats_PBUF_POOL, 10
memp_stats_PBUF_POOL:
	.zero	10
	.section	.bss.memp_stats_RAW_PCB,"aw",@nobits
	.align	2
	.type	memp_stats_RAW_PCB, @object
	.size	memp_stats_RAW_PCB, 10
memp_stats_RAW_PCB:
	.zero	10
	.section	.bss.memp_stats_SYS_TIMEOUT,"aw",@nobits
	.align	2
	.type	memp_stats_SYS_TIMEOUT, @object
	.size	memp_stats_SYS_TIMEOUT, 10
memp_stats_SYS_TIMEOUT:
	.zero	10
	.section	.bss.memp_stats_TCPIP_MSG_API,"aw",@nobits
	.align	2
	.type	memp_stats_TCPIP_MSG_API, @object
	.size	memp_stats_TCPIP_MSG_API, 10
memp_stats_TCPIP_MSG_API:
	.zero	10
	.section	.bss.memp_stats_TCPIP_MSG_INPKT,"aw",@nobits
	.align	2
	.type	memp_stats_TCPIP_MSG_INPKT, @object
	.size	memp_stats_TCPIP_MSG_INPKT, 10
memp_stats_TCPIP_MSG_INPKT:
	.zero	10
	.section	.bss.memp_stats_TCP_PCB,"aw",@nobits
	.align	2
	.type	memp_stats_TCP_PCB, @object
	.size	memp_stats_TCP_PCB, 10
memp_stats_TCP_PCB:
	.zero	10
	.section	.bss.memp_stats_TCP_PCB_LISTEN,"aw",@nobits
	.align	2
	.type	memp_stats_TCP_PCB_LISTEN, @object
	.size	memp_stats_TCP_PCB_LISTEN, 10
memp_stats_TCP_PCB_LISTEN:
	.zero	10
	.section	.bss.memp_stats_TCP_SEG,"aw",@nobits
	.align	2
	.type	memp_stats_TCP_SEG, @object
	.size	memp_stats_TCP_SEG, 10
memp_stats_TCP_SEG:
	.zero	10
	.section	.bss.memp_stats_UDP_PCB,"aw",@nobits
	.align	2
	.type	memp_stats_UDP_PCB, @object
	.size	memp_stats_UDP_PCB, 10
memp_stats_UDP_PCB:
	.zero	10
	.section	.rodata.memp_ALTCP_PCB,"a"
	.align	2
	.type	memp_ALTCP_PCB, @object
	.size	memp_ALTCP_PCB, 16
memp_ALTCP_PCB:
	.word	memp_stats_ALTCP_PCB
	.half	44
	.half	10
	.word	memp_memory_ALTCP_PCB_base
	.word	memp_tab_ALTCP_PCB
	.section	.rodata.memp_IGMP_GROUP,"a"
	.align	2
	.type	memp_IGMP_GROUP, @object
	.size	memp_IGMP_GROUP, 16
memp_IGMP_GROUP:
	.word	memp_stats_IGMP_GROUP
	.half	16
	.half	8
	.word	memp_memory_IGMP_GROUP_base
	.word	memp_tab_IGMP_GROUP
	.section	.rodata.memp_NETBUF,"a"
	.align	2
	.type	memp_NETBUF, @object
	.size	memp_NETBUF, 16
memp_NETBUF:
	.word	memp_stats_NETBUF
	.half	20
	.half	2
	.word	memp_memory_NETBUF_base
	.word	memp_tab_NETBUF
	.section	.rodata.memp_NETCONN,"a"
	.align	2
	.type	memp_NETCONN, @object
	.size	memp_NETCONN, 16
memp_NETCONN:
	.word	memp_stats_NETCONN
	.half	48
	.half	21
	.word	memp_memory_NETCONN_base
	.word	memp_tab_NETCONN
	.section	.rodata.memp_NETDB,"a"
	.align	2
	.type	memp_NETDB, @object
	.size	memp_NETDB, 16
memp_NETDB:
	.word	memp_stats_NETDB
	.half	308
	.half	1
	.word	memp_memory_NETDB_base
	.word	memp_tab_NETDB
	.section	.rodata.memp_PBUF,"a"
	.align	2
	.type	memp_PBUF, @object
	.size	memp_PBUF, 16
memp_PBUF:
	.word	memp_stats_PBUF
	.half	16
	.half	26
	.word	memp_memory_PBUF_base
	.word	memp_tab_PBUF
	.section	.rodata.memp_PBUF_POOL,"a"
	.align	2
	.type	memp_PBUF_POOL, @object
	.size	memp_PBUF_POOL, 16
memp_PBUF_POOL:
	.word	memp_stats_PBUF_POOL
	.half	776
	.half	0
	.word	memp_memory_PBUF_POOL_base
	.word	memp_tab_PBUF_POOL
	.section	.rodata.memp_RAW_PCB,"a"
	.align	2
	.type	memp_RAW_PCB, @object
	.size	memp_RAW_PCB, 16
memp_RAW_PCB:
	.word	memp_stats_RAW_PCB
	.half	28
	.half	4
	.word	memp_memory_RAW_PCB_base
	.word	memp_tab_RAW_PCB
	.section	.rodata.memp_SYS_TIMEOUT,"a"
	.align	2
	.type	memp_SYS_TIMEOUT, @object
	.size	memp_SYS_TIMEOUT, 16
memp_SYS_TIMEOUT:
	.word	memp_stats_SYS_TIMEOUT
	.half	16
	.half	17
	.word	memp_memory_SYS_TIMEOUT_base
	.word	memp_tab_SYS_TIMEOUT
	.section	.rodata.memp_TCPIP_MSG_API,"a"
	.align	2
	.type	memp_TCPIP_MSG_API, @object
	.size	memp_TCPIP_MSG_API, 16
memp_TCPIP_MSG_API:
	.word	memp_stats_TCPIP_MSG_API
	.half	16
	.half	8
	.word	memp_memory_TCPIP_MSG_API_base
	.word	memp_tab_TCPIP_MSG_API
	.section	.rodata.memp_TCPIP_MSG_INPKT,"a"
	.align	2
	.type	memp_TCPIP_MSG_INPKT, @object
	.size	memp_TCPIP_MSG_INPKT, 16
memp_TCPIP_MSG_INPKT:
	.word	memp_stats_TCPIP_MSG_INPKT
	.half	16
	.half	32
	.word	memp_memory_TCPIP_MSG_INPKT_base
	.word	memp_tab_TCPIP_MSG_INPKT
	.section	.rodata.memp_TCP_PCB,"a"
	.align	2
	.type	memp_TCP_PCB, @object
	.size	memp_TCP_PCB, 16
memp_TCP_PCB:
	.word	memp_stats_TCP_PCB
	.half	164
	.half	10
	.word	memp_memory_TCP_PCB_base
	.word	memp_tab_TCP_PCB
	.section	.rodata.memp_TCP_PCB_LISTEN,"a"
	.align	2
	.type	memp_TCP_PCB_LISTEN, @object
	.size	memp_TCP_PCB_LISTEN, 16
memp_TCP_PCB_LISTEN:
	.word	memp_stats_TCP_PCB_LISTEN
	.half	28
	.half	5
	.word	memp_memory_TCP_PCB_LISTEN_base
	.word	memp_tab_TCP_PCB_LISTEN
	.section	.rodata.memp_TCP_SEG,"a"
	.align	2
	.type	memp_TCP_SEG, @object
	.size	memp_TCP_SEG, 16
memp_TCP_SEG:
	.word	memp_stats_TCP_SEG
	.half	20
	.half	32
	.word	memp_memory_TCP_SEG_base
	.word	memp_tab_TCP_SEG
	.section	.rodata.memp_UDP_PCB,"a"
	.align	2
	.type	memp_UDP_PCB, @object
	.size	memp_UDP_PCB, 16
memp_UDP_PCB:
	.word	memp_stats_UDP_PCB
	.half	40
	.half	6
	.word	memp_memory_UDP_PCB_base
	.word	memp_tab_UDP_PCB
	.section	.rodata.memp_pools,"a"
	.align	2
	.set	.LANCHOR0,. + 0
	.type	memp_pools, @object
	.size	memp_pools, 60
memp_pools:
	.word	memp_RAW_PCB
	.word	memp_UDP_PCB
	.word	memp_TCP_PCB
	.word	memp_TCP_PCB_LISTEN
	.word	memp_TCP_SEG
	.word	memp_ALTCP_PCB
	.word	memp_NETBUF
	.word	memp_NETCONN
	.word	memp_TCPIP_MSG_API
	.word	memp_TCPIP_MSG_INPKT
	.word	memp_IGMP_GROUP
	.word	memp_SYS_TIMEOUT
	.word	memp_NETDB
	.word	memp_PBUF
	.word	memp_PBUF_POOL
	.section	.sbss.memp_tab_ALTCP_PCB,"aw",@nobits
	.align	2
	.type	memp_tab_ALTCP_PCB, @object
	.size	memp_tab_ALTCP_PCB, 4
memp_tab_ALTCP_PCB:
	.zero	4
	.section	.sbss.memp_tab_IGMP_GROUP,"aw",@nobits
	.align	2
	.type	memp_tab_IGMP_GROUP, @object
	.size	memp_tab_IGMP_GROUP, 4
memp_tab_IGMP_GROUP:
	.zero	4
	.section	.sbss.memp_tab_NETBUF,"aw",@nobits
	.align	2
	.type	memp_tab_NETBUF, @object
	.size	memp_tab_NETBUF, 4
memp_tab_NETBUF:
	.zero	4
	.section	.sbss.memp_tab_NETCONN,"aw",@nobits
	.align	2
	.type	memp_tab_NETCONN, @object
	.size	memp_tab_NETCONN, 4
memp_tab_NETCONN:
	.zero	4
	.section	.sbss.memp_tab_NETDB,"aw",@nobits
	.align	2
	.type	memp_tab_NETDB, @object
	.size	memp_tab_NETDB, 4
memp_tab_NETDB:
	.zero	4
	.section	.sbss.memp_tab_PBUF,"aw",@nobits
	.align	2
	.type	memp_tab_PBUF, @object
	.size	memp_tab_PBUF, 4
memp_tab_PBUF:
	.zero	4
	.section	.sbss.memp_tab_PBUF_POOL,"aw",@nobits
	.align	2
	.type	memp_tab_PBUF_POOL, @object
	.size	memp_tab_PBUF_POOL, 4
memp_tab_PBUF_POOL:
	.zero	4
	.section	.sbss.memp_tab_RAW_PCB,"aw",@nobits
	.align	2
	.type	memp_tab_RAW_PCB, @object
	.size	memp_tab_RAW_PCB, 4
memp_tab_RAW_PCB:
	.zero	4
	.section	.sbss.memp_tab_SYS_TIMEOUT,"aw",@nobits
	.align	2
	.type	memp_tab_SYS_TIMEOUT, @object
	.size	memp_tab_SYS_TIMEOUT, 4
memp_tab_SYS_TIMEOUT:
	.zero	4
	.section	.sbss.memp_tab_TCPIP_MSG_API,"aw",@nobits
	.align	2
	.type	memp_tab_TCPIP_MSG_API, @object
	.size	memp_tab_TCPIP_MSG_API, 4
memp_tab_TCPIP_MSG_API:
	.zero	4
	.section	.sbss.memp_tab_TCPIP_MSG_INPKT,"aw",@nobits
	.align	2
	.type	memp_tab_TCPIP_MSG_INPKT, @object
	.size	memp_tab_TCPIP_MSG_INPKT, 4
memp_tab_TCPIP_MSG_INPKT:
	.zero	4
	.section	.sbss.memp_tab_TCP_PCB,"aw",@nobits
	.align	2
	.type	memp_tab_TCP_PCB, @object
	.size	memp_tab_TCP_PCB, 4
memp_tab_TCP_PCB:
	.zero	4
	.section	.sbss.memp_tab_TCP_PCB_LISTEN,"aw",@nobits
	.align	2
	.type	memp_tab_TCP_PCB_LISTEN, @object
	.size	memp_tab_TCP_PCB_LISTEN, 4
memp_tab_TCP_PCB_LISTEN:
	.zero	4
	.section	.sbss.memp_tab_TCP_SEG,"aw",@nobits
	.align	2
	.type	memp_tab_TCP_SEG, @object
	.size	memp_tab_TCP_SEG, 4
memp_tab_TCP_SEG:
	.zero	4
	.section	.sbss.memp_tab_UDP_PCB,"aw",@nobits
	.align	2
	.type	memp_tab_UDP_PCB, @object
	.size	memp_tab_UDP_PCB, 4
memp_tab_UDP_PCB:
	.zero	4
	.section	.wifi_ram,"aw"
	.align	2
	.type	memp_memory_PBUF_POOL_base, @object
	.size	memp_memory_PBUF_POOL_base, 3
memp_memory_PBUF_POOL_base:
	.zero	3
	.zero	1
	.type	memp_memory_PBUF_base, @object
	.size	memp_memory_PBUF_base, 419
memp_memory_PBUF_base:
	.zero	419
	.zero	1
	.type	memp_memory_NETDB_base, @object
	.size	memp_memory_NETDB_base, 311
memp_memory_NETDB_base:
	.zero	311
	.zero	1
	.type	memp_memory_SYS_TIMEOUT_base, @object
	.size	memp_memory_SYS_TIMEOUT_base, 275
memp_memory_SYS_TIMEOUT_base:
	.zero	275
	.zero	1
	.type	memp_memory_IGMP_GROUP_base, @object
	.size	memp_memory_IGMP_GROUP_base, 131
memp_memory_IGMP_GROUP_base:
	.zero	131
	.zero	1
	.type	memp_memory_TCPIP_MSG_INPKT_base, @object
	.size	memp_memory_TCPIP_MSG_INPKT_base, 515
memp_memory_TCPIP_MSG_INPKT_base:
	.zero	515
	.zero	1
	.type	memp_memory_TCPIP_MSG_API_base, @object
	.size	memp_memory_TCPIP_MSG_API_base, 131
memp_memory_TCPIP_MSG_API_base:
	.zero	131
	.zero	1
	.type	memp_memory_NETCONN_base, @object
	.size	memp_memory_NETCONN_base, 1011
memp_memory_NETCONN_base:
	.zero	1011
	.zero	1
	.type	memp_memory_NETBUF_base, @object
	.size	memp_memory_NETBUF_base, 43
memp_memory_NETBUF_base:
	.zero	43
	.zero	1
	.type	memp_memory_ALTCP_PCB_base, @object
	.size	memp_memory_ALTCP_PCB_base, 443
memp_memory_ALTCP_PCB_base:
	.zero	443
	.zero	1
	.type	memp_memory_TCP_SEG_base, @object
	.size	memp_memory_TCP_SEG_base, 643
memp_memory_TCP_SEG_base:
	.zero	643
	.zero	1
	.type	memp_memory_TCP_PCB_LISTEN_base, @object
	.size	memp_memory_TCP_PCB_LISTEN_base, 143
memp_memory_TCP_PCB_LISTEN_base:
	.zero	143
	.zero	1
	.type	memp_memory_TCP_PCB_base, @object
	.size	memp_memory_TCP_PCB_base, 1643
memp_memory_TCP_PCB_base:
	.zero	1643
	.zero	1
	.type	memp_memory_UDP_PCB_base, @object
	.size	memp_memory_UDP_PCB_base, 243
memp_memory_UDP_PCB_base:
	.zero	243
	.zero	1
	.type	memp_memory_RAW_PCB_base, @object
	.size	memp_memory_RAW_PCB_base, 115
memp_memory_RAW_PCB_base:
	.zero	115
	.text
.Letext0:
	.file 2 "/b-l/bl_iot_sdk_new/components/network/lwip/lwip-port/arch/cc.h"
	.file 3 "/b-l/bl_iot_sdk_new/toolchain/riscv/Linux/riscv64-unknown-elf/include/machine/_default_types.h"
	.file 4 "/b-l/bl_iot_sdk_new/toolchain/riscv/Linux/lib/gcc/riscv64-unknown-elf/8.3.0/include/stddef.h"
	.file 5 "/b-l/bl_iot_sdk_new/toolchain/riscv/Linux/riscv64-unknown-elf/include/sys/_types.h"
	.file 6 "/b-l/bl_iot_sdk_new/toolchain/riscv/Linux/riscv64-unknown-elf/include/sys/reent.h"
	.file 7 "/b-l/bl_iot_sdk_new/toolchain/riscv/Linux/riscv64-unknown-elf/include/sys/lock.h"
	.file 8 "/b-l/bl_iot_sdk_new/toolchain/riscv/Linux/riscv64-unknown-elf/include/sys/_stdint.h"
	.file 9 "/b-l/bl_iot_sdk_new/toolchain/riscv/Linux/riscv64-unknown-elf/include/stdlib.h"
	.file 10 "/b-l/bl_iot_sdk_new/components/network/lwip/src/include/lwip/arch.h"
	.file 11 "/b-l/bl_iot_sdk_new/toolchain/riscv/Linux/riscv64-unknown-elf/include/ctype.h"
	.file 12 "/b-l/bl_iot_sdk_new/components/network/lwip/src/include/lwip/memp.h"
	.file 13 "/b-l/bl_iot_sdk_new/components/network/lwip/src/include/lwip/mem.h"
	.file 14 "/b-l/bl_iot_sdk_new/components/network/lwip/src/include/lwip/priv/memp_priv.h"
	.file 15 "/b-l/bl_iot_sdk_new/components/network/lwip/src/include/lwip/stats.h"
	.file 16 "/b-l/bl_iot_sdk_new/components/network/lwip/src/include/lwip/err.h"
	.file 17 "/b-l/bl_iot_sdk_new/components/bl602/freertos_riscv_ram/portable/GCC/RISC-V/portmacro.h"
	.file 18 "/b-l/bl_iot_sdk_new/components/network/lwip/src/include/lwip/pbuf.h"
	.file 19 "/b-l/bl_iot_sdk_new/components/network/lwip/src/include/lwip/ip4_addr.h"
	.file 20 "/b-l/bl_iot_sdk_new/components/network/lwip/src/include/lwip/ip_addr.h"
	.file 21 "/b-l/bl_iot_sdk_new/components/network/lwip/src/include/lwip/netif.h"
	.file 22 "/b-l/bl_iot_sdk_new/components/network/lwip/src/include/lwip/prot/ip4.h"
	.file 23 "/b-l/bl_iot_sdk_new/components/network/lwip/src/include/lwip/ip.h"
	.file 24 "/b-l/bl_iot_sdk_new/components/network/lwip/src/include/lwip/udp.h"
	.file 25 "/b-l/bl_iot_sdk_new/components/network/lwip/src/include/lwip/tcpbase.h"
	.file 26 "/b-l/bl_iot_sdk_new/components/network/lwip/src/include/lwip/tcp.h"
	.file 27 "/b-l/bl_iot_sdk_new/components/network/lwip/src/include/lwip/priv/tcp_priv.h"
	.file 28 "/b-l/bl_iot_sdk_new/components/network/lwip/src/include/lwip/prot/tcp.h"
	.file 29 "/b-l/bl_iot_sdk_new/components/network/lwip/src/include/lwip/timeouts.h"
	.file 30 "/b-l/bl_iot_sdk_new/components/network/lwip/src/include/lwip/inet.h"
	.file 31 "/b-l/bl_iot_sdk_new/components/network/lwip/src/include/lwip/errno.h"
	.file 32 "/b-l/bl_iot_sdk_new/components/network/lwip/src/include/lwip/netdb.h"
	.file 33 "/b-l/bl_iot_sdk_new/components/network/lwip/src/include/lwip/dns.h"
	.file 34 "/b-l/bl_iot_sdk_new/components/network/lwip/src/include/lwip/priv/memp_std.h"
	.file 35 "/b-l/bl_iot_sdk_new/components/network/lwip/src/include/lwip/sys.h"