	.file	"raw.c"
	.option nopic
	.attribute arch, "rv32i2p0_m2p0_f2p0_c2p0"
	.attribute unaligned_access, 0
	.attribute stack_align, 16
	.text
.Ltext0:
	.cfi_sections	.debug_frame
	.section	.text.raw_input,"ax",@progbits
	.align	1
	.globl	raw_input
	.type	raw_input, @function
raw_input:
.LFB5:
	.file 1 "/b-l/bl_iot_sdk_new/components/network/lwip/src/core/raw.c"
	.loc 1 136 1
	.cfi_startproc
.LVL0:
	.loc 1 137 3
	.loc 1 138 3
	.loc 1 139 3
	.loc 1 140 3
	.loc 1 136 1 is_stmt 0
	addi	sp,sp,-48
	.cfi_def_cfa_offset 48
	sw	s1,36(sp)
	.cfi_offset 9, -12
	.loc 1 140 92
	lui	s1,%hi(ip_data)
	addi	a5,s1,%lo(ip_data)
	.loc 1 136 1
	sw	s0,40(sp)
	sw	s2,32(sp)
	sw	s3,28(sp)
	sw	s4,24(sp)
	sw	s5,20(sp)
	sw	s6,16(sp)
	sw	s7,12(sp)
	sw	ra,44(sp)
	.cfi_offset 8, -8
	.cfi_offset 18, -16
	.cfi_offset 19, -20
	.cfi_offset 20, -24
	.cfi_offset 21, -28
	.cfi_offset 22, -32
	.cfi_offset 23, -36
	.cfi_offset 1, -4
	.loc 1 136 1
	mv	s4,a0
	.loc 1 140 20
	lw	a1,0(a5)
.LVL1:
	lw	a0,20(a5)
.LVL2:
	.loc 1 163 7
	lui	s2,%hi(.LANCHOR0)
	.loc 1 162 8
	li	s3,0
	.loc 1 140 20
	call	ip4_addr_isbroadcast_u32
.LVL3:
	.loc 1 158 43
	lw	a5,4(s4)
	.loc 1 140 20
	mv	s6,a0
.LVL4:
	.loc 1 142 3 is_stmt 1
	.loc 1 158 5
	.loc 1 163 7 is_stmt 0
	lw	s0,%lo(.LANCHOR0)(s2)
	.loc 1 158 43
	lbu	s5,9(a5)
.LVL5:
	.loc 1 162 3 is_stmt 1
	.loc 1 163 3
	.loc 1 166 3
	.loc 1 139 21 is_stmt 0
	li	a0,0
	addi	s1,s1,%lo(ip_data)
	addi	s2,s2,%lo(.LANCHOR0)
.LBB5:
	.loc 1 178 17
	lui	s7,%hi(ip_data+16)
.LVL6:
.L2:
.LBE5:
	.loc 1 166 9
	beq	s0,zero,.L8
	.loc 1 167 5 is_stmt 1
	.loc 1 167 8 is_stmt 0
	lbu	a5,16(s0)
	bne	a5,s5,.L3
.LVL7:
.LBB6:
.LBB7:
	.loc 1 71 3 is_stmt 1
	.loc 1 74 3
	.loc 1 74 11 is_stmt 0
	lbu	a4,8(s0)
	.loc 1 74 6
	beq	a4,zero,.L4
	.loc 1 75 63
	lw	a5,4(s1)
	.loc 1 75 27
	lbu	a5,68(a5)
	addi	a5,a5,1
	.loc 1 74 31
	andi	a5,a5,0xff
	bne	a4,a5,.L3
.L4:
	.loc 1 92 3 is_stmt 1
	.loc 1 96 5
	lw	a5,0(s0)
	.loc 1 96 8 is_stmt 0
	beq	s6,zero,.L5
	.loc 1 101 9 is_stmt 1
	.loc 1 101 12 is_stmt 0
	bne	a5,zero,.L3
.L6:
.LBE7:
.LBE6:
	.loc 1 167 75 discriminator 2
	lbu	a5,17(s0)
	andi	a5,a5,1
	beq	a5,zero,.L7
	.loc 1 168 38
	lw	a4,4(s0)
	lw	a5,16(s1)
	bne	a4,a5,.L3
.L7:
	.loc 1 171 7 is_stmt 1
	.loc 1 171 14 is_stmt 0
	lw	a5,20(s0)
	.loc 1 171 10
	beq	a5,zero,.L3
.LBB9:
	.loc 1 172 9 is_stmt 1
	.loc 1 174 9
.LVL8:
	.loc 1 176 9
	.loc 1 178 9
	.loc 1 178 17 is_stmt 0
	lw	a0,24(s0)
	addi	a3,s7,%lo(ip_data+16)
	mv	a2,s4
	mv	a1,s0
	jalr	a5
.LVL9:
	.loc 1 179 9 is_stmt 1
	.loc 1 179 12 is_stmt 0
	beq	a0,zero,.L10
	.loc 1 181 11 is_stmt 1
.LVL10:
	.loc 1 182 11
	.loc 1 189 18 is_stmt 0
	li	a0,1
.LVL11:
	.loc 1 182 14
	beq	s3,zero,.L8
	.loc 1 185 13 is_stmt 1
	.loc 1 185 29 is_stmt 0
	lw	a5,12(s0)
	.loc 1 185 24
	sw	a5,12(s3)
	.loc 1 186 13 is_stmt 1
	.loc 1 186 23 is_stmt 0
	lw	a5,0(s2)
	.loc 1 187 22
	sw	s0,0(s2)
	.loc 1 186 23
	sw	a5,12(s0)
	.loc 1 187 13 is_stmt 1
.LVL12:
.L8:
.LBE9:
	.loc 1 203 1 is_stmt 0
	lw	ra,44(sp)
	.cfi_remember_state
	.cfi_restore 1
	lw	s0,40(sp)
	.cfi_restore 8
.LVL13:
	lw	s1,36(sp)
	.cfi_restore 9
	lw	s2,32(sp)
	.cfi_restore 18
	lw	s3,28(sp)
	.cfi_restore 19
.LVL14:
	lw	s4,24(sp)
	.cfi_restore 20
	lw	s5,20(sp)
	.cfi_restore 21
.LVL15:
	lw	s6,16(sp)
	.cfi_restore 22
.LVL16:
	lw	s7,12(sp)
	.cfi_restore 23
	addi	sp,sp,48
	.cfi_def_cfa_offset 0
	jr	ra
.LVL17:
.L5:
	.cfi_restore_state
.LBB10:
.LBB8:
	.loc 1 108 7 is_stmt 1
	.loc 1 108 10 is_stmt 0
	beq	a5,zero,.L6
	.loc 1 108 66
	lw	a4,20(s1)
	beq	a4,a5,.L6
.LVL18:
.L3:
.LBE8:
.LBE10:
.LBB11:
	.loc 1 192 52 is_stmt 1 discriminator 1
.LBE11:
	.loc 1 199 5 discriminator 1
	.loc 1 200 5 discriminator 1
	.loc 1 200 9 is_stmt 0 discriminator 1
	mv	s3,s0
	lw	s0,12(s0)
.LVL19:
	j	.L2
.LVL20:
.L10:
.LBB12:
	.loc 1 176 13
	li	a0,2
.LVL21:
	j	.L3
.LBE12:
	.cfi_endproc
.LFE5:
	.size	raw_input, .-raw_input
	.section	.text.raw_bind,"ax",@progbits
	.align	1
	.globl	raw_bind
	.type	raw_bind, @function
raw_bind:
.LFB6:
	.loc 1 222 1 is_stmt 1
	.cfi_startproc
.LVL22:
	.loc 1 223 3
	.loc 1 224 3
	.loc 1 225 12 is_stmt 0
	li	a5,-6
	.loc 1 224 6
	beq	a0,zero,.L29
	.loc 1 224 20 discriminator 1
	beq	a1,zero,.L29
	.loc 1 227 3 is_stmt 1 discriminator 1
	.loc 1 227 6 is_stmt 0 discriminator 1
	lw	a5,0(a1)
	.loc 1 227 27 discriminator 1
	sw	a5,0(a0)
	.loc 1 237 3 is_stmt 1 discriminator 1
	.loc 1 237 10 is_stmt 0 discriminator 1
	li	a5,0
.L29:
	.loc 1 238 1
	mv	a0,a5
.LVL23:
	ret
	.cfi_endproc
.LFE6:
	.size	raw_bind, .-raw_bind
	.section	.text.raw_bind_netif,"ax",@progbits
	.align	1
	.globl	raw_bind_netif
	.type	raw_bind_netif, @function
raw_bind_netif:
.LFB7:
	.loc 1 254 1 is_stmt 1
	.cfi_startproc
.LVL24:
	.loc 1 255 3
	.loc 1 256 3
	.loc 1 259 20 is_stmt 0
	li	a5,0
	.loc 1 256 6
	beq	a1,zero,.L33
	.loc 1 257 5 is_stmt 1
	.loc 1 257 23 is_stmt 0
	lbu	a5,68(a1)
	addi	a5,a5,1
	andi	a5,a5,0xff
.L33:
	sb	a5,8(a0)
	.loc 1 261 1
	ret
	.cfi_endproc
.LFE7:
	.size	raw_bind_netif, .-raw_bind_netif
	.section	.text.raw_connect,"ax",@progbits
	.align	1
	.globl	raw_connect
	.type	raw_connect, @function
raw_connect:
.LFB8:
	.loc 1 279 1 is_stmt 1
	.cfi_startproc
.LVL25:
	.loc 1 280 3
	.loc 1 281 3
	.loc 1 279 1 is_stmt 0
	mv	a5,a0
	.loc 1 282 12
	li	a0,-6
.LVL26:
	.loc 1 281 6
	beq	a5,zero,.L36
	.loc 1 281 20 discriminator 1
	beq	a1,zero,.L36
	.loc 1 284 3 is_stmt 1 discriminator 1
	.loc 1 284 6 is_stmt 0 discriminator 1
	lw	a4,0(a1)
	.loc 1 294 10 discriminator 1
	li	a0,0
	.loc 1 284 28 discriminator 1
	sw	a4,4(a5)
	.loc 1 293 3 is_stmt 1 discriminator 1
	.loc 1 293 8 discriminator 1
	.loc 1 293 23 is_stmt 0 discriminator 1
	lbu	a4,17(a5)
	ori	a4,a4,1
	.loc 1 293 21 discriminator 1
	sb	a4,17(a5)
	.loc 1 294 3 is_stmt 1 discriminator 1
	.loc 1 294 10 is_stmt 0 discriminator 1
	ret
.L36:
	.loc 1 295 1
	ret
	.cfi_endproc
.LFE8:
	.size	raw_connect, .-raw_connect
	.section	.text.raw_disconnect,"ax",@progbits
	.align	1
	.globl	raw_disconnect
	.type	raw_disconnect, @function
raw_disconnect:
.LFB9:
	.loc 1 305 1 is_stmt 1
	.cfi_startproc
.LVL27:
	.loc 1 306 3
	.loc 1 313 5
	.loc 1 319 23 is_stmt 0
	lbu	a5,17(a0)
	.loc 1 313 30
	sw	zero,4(a0)
	.loc 1 317 3 is_stmt 1
	.loc 1 317 18 is_stmt 0
	sb	zero,8(a0)
	.loc 1 319 3 is_stmt 1
	.loc 1 319 8
	.loc 1 319 23 is_stmt 0
	andi	a5,a5,-2
	.loc 1 319 21
	sb	a5,17(a0)
	.loc 1 320 1
	ret
	.cfi_endproc
.LFE9:
	.size	raw_disconnect, .-raw_disconnect
	.section	.text.raw_recv,"ax",@progbits
	.align	1
	.globl	raw_recv
	.type	raw_recv, @function
raw_recv:
.LFB10:
	.loc 1 335 1 is_stmt 1
	.cfi_startproc
.LVL28:
	.loc 1 336 3
	.loc 1 338 3
	.loc 1 338 13 is_stmt 0
	sw	a1,20(a0)
	.loc 1 339 3 is_stmt 1
	.loc 1 339 17 is_stmt 0
	sw	a2,24(a0)
	.loc 1 340 1
	ret
	.cfi_endproc
.LFE10:
	.size	raw_recv, .-raw_recv
	.section	.text.raw_sendto_if_src,"ax",@progbits
	.align	1
	.globl	raw_sendto_if_src
	.type	raw_sendto_if_src, @function
raw_sendto_if_src:
.LFB12:
	.loc 1 422 1 is_stmt 1
	.cfi_startproc
.LVL29:
	.loc 1 423 3
	.loc 1 424 3
	.loc 1 425 3
	.loc 1 426 3
	.loc 1 428 3
	.loc 1 430 3
	.loc 1 422 1 is_stmt 0
	addi	sp,sp,-32
	.cfi_def_cfa_offset 32
	sw	ra,28(sp)
	sw	s0,24(sp)
	sw	s1,20(sp)
	sw	s2,16(sp)
	sw	s3,12(sp)
	sw	s4,8(sp)
	sw	s5,4(sp)
	.cfi_offset 1, -4
	.cfi_offset 8, -8
	.cfi_offset 9, -12
	.cfi_offset 18, -16
	.cfi_offset 19, -20
	.cfi_offset 20, -24
	.cfi_offset 21, -28
	.loc 1 430 6
	beq	a0,zero,.L55
	.loc 1 430 20 discriminator 1
	beq	a2,zero,.L55
	.loc 1 430 40 discriminator 2
	beq	a3,zero,.L55
	mv	s0,a1
	mv	a1,a4
.LVL30:
	.loc 1 431 10
	beq	a4,zero,.L55
	.loc 1 435 3 is_stmt 1
.LVL31:
	.loc 1 446 3
	.loc 1 446 6 is_stmt 0
	lbu	a5,17(a0)
	andi	a5,a5,2
	beq	a5,zero,.L43
	.loc 1 449 5 is_stmt 1
	.loc 1 449 8 is_stmt 0
	lhu	a4,10(s0)
.LVL32:
	li	a5,19
	bleu	a4,a5,.L55
	.loc 1 453 5 is_stmt 1
	.loc 1 454 5
	.loc 1 454 11 is_stmt 0
	mv	a0,s0
.LVL33:
	.loc 1 535 1
	lw	s0,24(sp)
	.cfi_remember_state
	.cfi_restore 8
.LVL34:
	lw	ra,28(sp)
	.cfi_restore 1
	lw	s1,20(sp)
	.cfi_restore 9
	lw	s2,16(sp)
	.cfi_restore 18
	lw	s3,12(sp)
	.cfi_restore 19
	lw	s4,8(sp)
	.cfi_restore 20
	lw	s5,4(sp)
	.cfi_restore 21
	.loc 1 454 11
	mv	a6,a3
	.loc 1 535 1
	.loc 1 454 11
	li	a5,0
	li	a4,0
	li	a3,0
.LVL35:
	li	a2,0
.LVL36:
	.loc 1 535 1
	addi	sp,sp,32
	.cfi_def_cfa_offset 0
	.loc 1 454 11
	tail	ip4_output_if
.LVL37:
.L43:
	.cfi_restore_state
	.loc 1 460 3 is_stmt 1
	.loc 1 460 6 is_stmt 0
	lhu	a4,8(s0)
	li	a5,65536
	addi	a5,a5,-21
	bleu	a4,a5,.L44
.LVL38:
.L46:
	.loc 1 461 12
	li	s1,-1
.LVL39:
.L42:
	.loc 1 535 1
	lw	ra,28(sp)
	.cfi_remember_state
	.cfi_restore 1
	lw	s0,24(sp)
	.cfi_restore 8
	mv	a0,s1
	lw	s2,16(sp)
	.cfi_restore 18
	lw	s1,20(sp)
	.cfi_restore 9
	lw	s3,12(sp)
	.cfi_restore 19
	lw	s4,8(sp)
	.cfi_restore 20
	lw	s5,4(sp)
	.cfi_restore 21
	addi	sp,sp,32
	.cfi_def_cfa_offset 0
	jr	ra
.LVL40:
.L44:
	.cfi_restore_state
	mv	s4,a1
	mv	s1,a0
.LVL41:
.LBB15:
.LBB16:
	.loc 1 464 7
	li	a1,20
.LVL42:
	mv	a0,s0
.LVL43:
	mv	s5,a3
	mv	s3,a2
.LVL44:
	.loc 1 464 3 is_stmt 1
	.loc 1 464 7 is_stmt 0
	call	pbuf_add_header
.LVL45:
	.loc 1 464 6
	beq	a0,zero,.L45
	.loc 1 466 5 is_stmt 1
	.loc 1 466 9 is_stmt 0
	li	a2,640
	li	a1,0
	li	a0,162
	call	pbuf_alloc
.LVL46:
	mv	s2,a0
.LVL47:
	.loc 1 468 5 is_stmt 1
	.loc 1 468 8 is_stmt 0
	beq	a0,zero,.L46
	.loc 1 472 5 is_stmt 1
	.loc 1 472 8 is_stmt 0
	lhu	a5,8(s0)
	beq	a5,zero,.L47
	.loc 1 474 7 is_stmt 1
	mv	a1,s0
	call	pbuf_chain
.LVL48:
.L47:
	.loc 1 503 3
	.loc 1 503 6 is_stmt 0
	lbu	a5,17(s1)
	andi	a5,a5,4
	beq	a5,zero,.L48
	.loc 1 503 35
	lw	a5,0(s3)
	li	a4,224
	andi	a5,a5,240
	bne	a5,a4,.L49
	.loc 1 504 5 is_stmt 1
	.loc 1 504 14 is_stmt 0
	lbu	a5,13(s2)
	ori	a5,a5,4
	sb	a5,13(s2)
.L48:
	.loc 1 520 3 is_stmt 1
	.loc 1 520 27 is_stmt 0
	lw	a5,0(s3)
	.loc 1 520 7
	li	a4,224
	.loc 1 520 27
	andi	a5,a5,240
	.loc 1 520 7
	bne	a5,a4,.L49
	lbu	a3,19(s1)
.L50:
.LVL49:
	.loc 1 525 3 is_stmt 1
	.loc 1 526 3
	.loc 1 526 9 is_stmt 0
	lbu	a5,16(s1)
	lbu	a4,10(s1)
	mv	a6,s5
	mv	a2,s3
	mv	a1,s4
	mv	a0,s2
	call	ip4_output_if
.LVL50:
	mv	s1,a0
.LVL51:
	.loc 1 527 3 is_stmt 1
	.loc 1 530 3
	.loc 1 530 6 is_stmt 0
	beq	s0,s2,.L42
	.loc 1 532 5 is_stmt 1
	mv	a0,s2
	call	pbuf_free
.LVL52:
	j	.L42
.LVL53:
.L45:
	.loc 1 480 5
	.loc 1 481 5
	.loc 1 481 9 is_stmt 0
	li	a1,20
	mv	a0,s0
	call	pbuf_remove_header
.LVL54:
	.loc 1 481 8
	bne	a0,zero,.L46
	mv	s2,s0
	j	.L47
.LVL55:
.L49:
	.loc 1 520 7
	lbu	a3,11(s1)
	j	.L50
.LVL56:
.L55:
.LBE16:
.LBE15:
	.loc 1 432 12
	li	s1,-6
	j	.L42
	.cfi_endproc
.LFE12:
	.size	raw_sendto_if_src, .-raw_sendto_if_src
	.section	.text.raw_sendto,"ax",@progbits
	.align	1
	.globl	raw_sendto
	.type	raw_sendto, @function
raw_sendto:
.LFB11:
	.loc 1 355 1 is_stmt 1
	.cfi_startproc
.LVL57:
	.loc 1 356 3
	.loc 1 357 3
	.loc 1 359 3
	.loc 1 359 6 is_stmt 0
	beq	a0,zero,.L76
	.loc 1 359 40 discriminator 1
	beq	a2,zero,.L76
	.loc 1 355 1
	addi	sp,sp,-16
	.cfi_def_cfa_offset 16
	sw	s0,8(sp)
	sw	s1,4(sp)
	sw	s2,0(sp)
	sw	ra,12(sp)
	.cfi_offset 8, -8
	.cfi_offset 9, -12
	.cfi_offset 18, -16
	.cfi_offset 1, -4
	mv	s0,a0
	.loc 1 363 3 is_stmt 1
	.loc 1 365 3
	.loc 1 365 10 is_stmt 0
	lbu	a0,8(a0)
.LVL58:
	mv	s1,a2
	mv	s2,a1
	.loc 1 365 6
	beq	a0,zero,.L68
	.loc 1 366 5 is_stmt 1
	.loc 1 366 13 is_stmt 0
	call	netif_get_by_index
.LVL59:
.L69:
	.loc 1 384 3 is_stmt 1
	.loc 1 384 6 is_stmt 0
	bne	a0,zero,.L72
	.loc 1 404 1
	lw	ra,12(sp)
	.cfi_remember_state
	.cfi_restore 1
	lw	s0,8(sp)
	.cfi_restore 8
.LVL60:
	lw	s1,4(sp)
	.cfi_restore 9
.LVL61:
	lw	s2,0(sp)
	.cfi_restore 18
.LVL62:
	.loc 1 387 12
	li	a0,-4
.LVL63:
	.loc 1 404 1
	addi	sp,sp,16
	.cfi_def_cfa_offset 0
	jr	ra
.LVL64:
.L68:
	.cfi_restore_state
	.loc 1 369 5 is_stmt 1
	.loc 1 370 5
	.loc 1 370 26 is_stmt 0
	lw	a5,0(a2)
	.loc 1 370 8
	li	a4,224
	.loc 1 370 26
	andi	a5,a5,240
	.loc 1 370 8
	beq	a5,a4,.L70
.LVL65:
.L71:
	.loc 1 380 7 is_stmt 1
	.loc 1 380 15 is_stmt 0
	mv	a0,s1
	call	ip4_route
.LVL66:
	j	.L69
.LVL67:
.L70:
	.loc 1 374 7 is_stmt 1
	.loc 1 374 15 is_stmt 0
	lbu	a0,18(s0)
	call	netif_get_by_index
.LVL68:
	.loc 1 377 5 is_stmt 1
	.loc 1 377 8 is_stmt 0
	beq	a0,zero,.L71
.L72:
	.loc 1 390 3 is_stmt 1
	.loc 1 390 29 is_stmt 0
	lw	a5,0(s0)
	.loc 1 390 6
	beq	a5,zero,.L73
	.loc 1 390 90 discriminator 2
	andi	a5,a5,240
	.loc 1 390 62 discriminator 2
	li	a4,224
	beq	a5,a4,.L73
	.loc 1 390 9
	mv	a4,s0
.L74:
.LVL69:
	.loc 1 403 3 is_stmt 1
	.loc 1 403 10 is_stmt 0
	mv	a3,a0
	mv	a0,s0
.LVL70:
	.loc 1 404 1
	lw	s0,8(sp)
	.cfi_remember_state
	.cfi_restore 8
.LVL71:
	lw	ra,12(sp)
	.cfi_restore 1
	.loc 1 403 10
	mv	a2,s1
	mv	a1,s2
	.loc 1 404 1
	lw	s1,4(sp)
	.cfi_restore 9
.LVL72:
	lw	s2,0(sp)
	.cfi_restore 18
.LVL73:
	addi	sp,sp,16
	.cfi_def_cfa_offset 0
	.loc 1 403 10
	tail	raw_sendto_if_src
.LVL74:
.L73:
	.cfi_restore_state
	.loc 1 392 5 is_stmt 1 discriminator 1
	.loc 1 392 57 is_stmt 0 discriminator 1
	addi	a4,a0,4
.LVL75:
	.loc 1 392 12 discriminator 1
	j	.L74
.LVL76:
.L76:
	.cfi_def_cfa_offset 0
	.cfi_restore 1
	.cfi_restore 8
	.cfi_restore 9
	.cfi_restore 18
	.loc 1 360 12
	li	a0,-6
.LVL77:
	.loc 1 404 1
	ret
	.cfi_endproc
.LFE11:
	.size	raw_sendto, .-raw_sendto
	.section	.text.raw_send,"ax",@progbits
	.align	1
	.globl	raw_send
	.type	raw_send, @function
raw_send:
.LFB13:
	.loc 1 547 1 is_stmt 1
	.cfi_startproc
.LVL78:
	.loc 1 548 3
	.loc 1 548 10 is_stmt 0
	addi	a2,a0,4
	tail	raw_sendto
.LVL79:
	.cfi_endproc
.LFE13:
	.size	raw_send, .-raw_send
	.section	.text.raw_remove,"ax",@progbits
	.align	1
	.globl	raw_remove
	.type	raw_remove, @function
raw_remove:
.LFB14:
	.loc 1 562 1 is_stmt 1
	.cfi_startproc
.LVL80:
	.loc 1 563 3
	.loc 1 564 3
	.loc 1 566 3
	.loc 1 566 16 is_stmt 0
	lui	a4,%hi(.LANCHOR0)
	addi	a4,a4,%lo(.LANCHOR0)
	lw	a5,0(a4)
	.loc 1 562 1
	mv	a1,a0
	.loc 1 566 6
	bne	a5,a0,.L90
	.loc 1 568 5 is_stmt 1
	.loc 1 568 14 is_stmt 0
	lw	a5,12(a0)
	sw	a5,0(a4)
.L91:
	.loc 1 580 3 is_stmt 1
	li	a0,0
.LVL81:
	tail	memp_free
.LVL82:
.L93:
	mv	a5,a4
.LVL83:
.L90:
	.loc 1 571 5 is_stmt 0 discriminator 1
	beq	a5,zero,.L91
	.loc 1 573 7 is_stmt 1
	.loc 1 573 15 is_stmt 0
	lw	a4,12(a5)
	.loc 1 573 10
	beq	a4,zero,.L91
	.loc 1 573 29 discriminator 1
	bne	a4,a1,.L93
	.loc 1 575 9 is_stmt 1
	.loc 1 575 25 is_stmt 0
	lw	a4,12(a1)
	.loc 1 575 20
	sw	a4,12(a5)
	.loc 1 576 9 is_stmt 1
	j	.L91
	.cfi_endproc
.LFE14:
	.size	raw_remove, .-raw_remove
	.section	.text.raw_new,"ax",@progbits
	.align	1
	.globl	raw_new
	.type	raw_new, @function
raw_new:
.LFB15:
	.loc 1 596 1
	.cfi_startproc
.LVL84:
	.loc 1 597 3
	.loc 1 599 3
	.loc 1 600 3
	.loc 1 602 3
	.loc 1 596 1 is_stmt 0
	addi	sp,sp,-16
	.cfi_def_cfa_offset 16
	sw	s1,4(sp)
	.cfi_offset 9, -12
	mv	s1,a0
	.loc 1 602 27
	li	a0,0
.LVL85:
	.loc 1 596 1
	sw	s0,8(sp)
	sw	ra,12(sp)
	.cfi_offset 8, -8
	.cfi_offset 1, -4
	.loc 1 602 27
	call	memp_malloc
.LVL86:
	mv	s0,a0
.LVL87:
	.loc 1 604 3 is_stmt 1
	.loc 1 604 6 is_stmt 0
	beq	a0,zero,.L98
	.loc 1 606 5 is_stmt 1
	li	a2,28
	li	a1,0
	call	memset
.LVL88:
	.loc 1 607 5
	.loc 1 608 14 is_stmt 0
	li	a5,-1
	sb	a5,11(s0)
	.loc 1 610 23
	sb	a5,19(s0)
	.loc 1 612 15
	lui	a5,%hi(.LANCHOR0)
	addi	a5,a5,%lo(.LANCHOR0)
	lw	a4,0(a5)
	.loc 1 607 19
	sb	s1,16(s0)
	.loc 1 608 5 is_stmt 1
	.loc 1 610 5
	.loc 1 612 5
	.loc 1 613 14 is_stmt 0
	sw	s0,0(a5)
	.loc 1 612 15
	sw	a4,12(s0)
	.loc 1 613 5 is_stmt 1
	.loc 1 615 3
.L98:
	.loc 1 616 1 is_stmt 0
	mv	a0,s0
	lw	ra,12(sp)
	.cfi_restore 1
	lw	s0,8(sp)
	.cfi_restore 8
.LVL89:
	lw	s1,4(sp)
	.cfi_restore 9
	addi	sp,sp,16
	.cfi_def_cfa_offset 0
	jr	ra
	.cfi_endproc
.LFE15:
	.size	raw_new, .-raw_new
	.section	.text.raw_new_ip_type,"ax",@progbits
	.align	1
	.globl	raw_new_ip_type
	.type	raw_new_ip_type, @function
raw_new_ip_type:
.LFB16:
	.loc 1 635 1 is_stmt 1
	.cfi_startproc
.LVL90:
	.loc 1 636 3
	.loc 1 637 3
	.loc 1 638 3
	.loc 1 638 9 is_stmt 0
	mv	a0,a1
.LVL91:
	tail	raw_new
.LVL92:
	.cfi_endproc
.LFE16:
	.size	raw_new_ip_type, .-raw_new_ip_type
	.section	.text.raw_netif_ip_addr_changed,"ax",@progbits
	.align	1
	.globl	raw_netif_ip_addr_changed
	.type	raw_netif_ip_addr_changed, @function
raw_netif_ip_addr_changed:
.LFB17:
	.loc 1 656 1 is_stmt 1
	.cfi_startproc
.LVL93:
	.loc 1 657 3
	.loc 1 659 3
	.loc 1 659 6 is_stmt 0
	beq	a0,zero,.L105
	.loc 1 659 7 discriminator 1
	lw	a5,0(a0)
	beq	a5,zero,.L105
	.loc 1 659 57 discriminator 2
	beq	a1,zero,.L105
	.loc 1 659 60 discriminator 3
	lw	a5,0(a1)
	beq	a5,zero,.L105
	.loc 1 660 5 is_stmt 1
	.loc 1 660 15 is_stmt 0
	lui	a5,%hi(.LANCHOR0)
	lw	a5,%lo(.LANCHOR0)(a5)
.LVL94:
.L108:
	.loc 1 660 5 discriminator 1
	bne	a5,zero,.L110
.LVL95:
.L105:
	.loc 1 669 1
	ret
.LVL96:
.L110:
	.loc 1 662 7 is_stmt 1
	.loc 1 662 10 is_stmt 0
	lw	a3,0(a5)
	lw	a4,0(a0)
	bne	a3,a4,.L109
	.loc 1 665 9 is_stmt 1
	.loc 1 665 45 is_stmt 0
	lw	a4,0(a1)
	.loc 1 665 32
	sw	a4,0(a5)
.L109:
	.loc 1 660 45 discriminator 2
	lw	a5,12(a5)
.LVL97:
	j	.L108
	.cfi_endproc
.LFE17:
	.size	raw_netif_ip_addr_changed, .-raw_netif_ip_addr_changed
	.section	.text.raw_get_pcbs,"ax",@progbits
	.align	1
	.globl	raw_get_pcbs
	.type	raw_get_pcbs, @function
raw_get_pcbs:
.LFB18:
	.loc 1 673 1 is_stmt 1
	.cfi_startproc
	.loc 1 674 3
	.loc 1 675 1 is_stmt 0
	lui	a5,%hi(.LANCHOR0)
	lw	a0,%lo(.LANCHOR0)(a5)
	ret
	.cfi_endproc
.LFE18:
	.size	raw_get_pcbs, .-raw_get_pcbs
	.section	.sbss.raw_pcbs,"aw",@nobits
	.align	2
	.set	.LANCHOR0,. + 0
	.type	raw_pcbs, @object
	.size	raw_pcbs, 4
raw_pcbs:
	.zero	4
	.text
.Letext0:
	.file 2 "/b-l/bl_iot_sdk_new/toolchain/riscv/Linux/riscv64-unknown-elf/include/machine/_default_types.h"
	.file 3 "/b-l/bl_iot_sdk_new/toolchain/riscv/Linux/lib/gcc/riscv64-unknown-elf/8.3.0/include/stddef.h"
	.file 4 "/b-l/bl_iot_sdk_new/toolchain/riscv/Linux/riscv64-unknown-elf/include/sys/_types.h"
	.file 5 "/b-l/bl_iot_sdk_new/toolchain/riscv/Linux/riscv64-unknown-elf/include/sys/reent.h"
	.file 6 "/b-l/bl_iot_sdk_new/toolchain/riscv/Linux/riscv64-unknown-elf/include/sys/lock.h"
	.file 7 "/b-l/bl_iot_sdk_new/toolchain/riscv/Linux/riscv64-unknown-elf/include/sys/_stdint.h"
	.file 8 "/b-l/bl_iot_sdk_new/toolchain/riscv/Linux/riscv64-unknown-elf/include/stdlib.h"
	.file 9 "/b-l/bl_iot_sdk_new/components/network/lwip/src/include/lwip/arch.h"
	.file 10 "/b-l/bl_iot_sdk_new/toolchain/riscv/Linux/riscv64-unknown-elf/include/ctype.h"
	.file 11 "/b-l/bl_iot_sdk_new/components/network/lwip/src/include/lwip/mem.h"
	.file 12 "/b-l/bl_iot_sdk_new/components/network/lwip/src/include/lwip/priv/memp_priv.h"
	.file 13 "/b-l/bl_iot_sdk_new/components/network/lwip/src/include/lwip/stats.h"
	.file 14 "/b-l/bl_iot_sdk_new/components/network/lwip/src/include/lwip/memp.h"
	.file 15 "/b-l/bl_iot_sdk_new/components/network/lwip/src/include/lwip/ip4_addr.h"
	.file 16 "/b-l/bl_iot_sdk_new/components/network/lwip/src/include/lwip/ip_addr.h"
	.file 17 "/b-l/bl_iot_sdk_new/components/network/lwip/src/include/lwip/err.h"
	.file 18 "/b-l/bl_iot_sdk_new/components/network/lwip/src/include/lwip/pbuf.h"
	.file 19 "/b-l/bl_iot_sdk_new/components/network/lwip/src/include/lwip/netif.h"
	.file 20 "/b-l/bl_iot_sdk_new/components/network/lwip/src/include/lwip/prot/ip4.h"
	.file 21 "/b-l/bl_iot_sdk_new/components/network/lwip/src/include/lwip/ip.h"
	.file 22 "/b-l/bl_iot_sdk_new/components/network/lwip/src/include/lwip/raw.h"
	.file 23 "/b-l/bl_iot_sdk_new/components/network/lwip/src/include/lwip/priv/raw_priv.h"
	.file 24 "/b-l/bl_iot_sdk_new/toolchain/riscv/Linux/riscv64-unknown-elf/include/string.h"
	.file 25 "/b-l/bl_iot_sdk_new/components/network/lwip/src/include/lwip/ip4.h"