	.file	"tcp_in.c"
	.option nopic
	.attribute arch, "rv32i2p0_m2p0_f2p0_c2p0"
	.attribute unaligned_access, 0
	.attribute stack_align, 16
	.text
.Ltext0:
	.cfi_sections	.debug_frame
	.section	.text.tcp_get_next_optbyte,"ax",@progbits
	.align	1
	.type	tcp_get_next_optbyte, @function
tcp_get_next_optbyte:
.LFB12:
	.file 1 "/b-l/bl_iot_sdk_new/components/network/lwip/src/core/tcp_in.c"
	.loc 1 1889 1
	.cfi_startproc
	.loc 1 1890 3
	.loc 1 1890 28 is_stmt 0
	lui	a4,%hi(.LANCHOR0)
	addi	a4,a4,%lo(.LANCHOR0)
	lhu	a5,0(a4)
	addi	a3,a5,1
	sh	a3,0(a4)
.LVL0:
	.loc 1 1891 3 is_stmt 1
	.loc 1 1891 20 is_stmt 0
	lui	a4,%hi(.LANCHOR1)
	lw	a4,%lo(.LANCHOR1)(a4)
	.loc 1 1891 6
	beq	a4,zero,.L2
	.loc 1 1891 39 discriminator 1
	lui	a3,%hi(.LANCHOR2)
	lhu	a3,%lo(.LANCHOR2)(a3)
	.loc 1 1891 28 discriminator 1
	bgeu	a5,a3,.L3
.L2:
.LBB4:
	.loc 1 1892 5 is_stmt 1
.LVL1:
	.loc 1 1893 5
	.loc 1 1893 16 is_stmt 0
	lui	a4,%hi(.LANCHOR3)
	lw	a4,%lo(.LANCHOR3)(a4)
	add	a5,a4,a5
.LVL2:
	lbu	a0,20(a5)
	ret
.LVL3:
.L3:
.LBE4:
.LBB5:
	.loc 1 1895 5 is_stmt 1
	.loc 1 1896 5
	.loc 1 1895 10 is_stmt 0
	sub	a5,a5,a3
.LVL4:
	.loc 1 1896 23
	andi	a5,a5,0xff
	add	a5,a4,a5
	lbu	a0,0(a5)
.LBE5:
	.loc 1 1898 1
	ret
	.cfi_endproc
.LFE12:
	.size	tcp_get_next_optbyte, .-tcp_get_next_optbyte
	.section	.text.tcp_oos_insert_segment,"ax",@progbits
	.align	1
	.type	tcp_oos_insert_segment, @function
tcp_oos_insert_segment:
.LFB9:
	.loc 1 1052 1 is_stmt 1
	.cfi_startproc
.LVL5:
	.loc 1 1053 3
	.loc 1 1055 3
	.loc 1 1055 8
	.loc 1 1055 7
	.loc 1 1057 3
	.loc 1 1052 1 is_stmt 0
	addi	sp,sp,-32
	.cfi_def_cfa_offset 32
	sw	s1,20(sp)
	sw	s2,16(sp)
	sw	ra,28(sp)
	sw	s0,24(sp)
	sw	s3,12(sp)
	.cfi_offset 9, -12
	.cfi_offset 18, -16
	.cfi_offset 1, -4
	.cfi_offset 8, -8
	.cfi_offset 19, -20
	.loc 1 1057 16
	lw	a5,16(a0)
	.loc 1 1052 1
	mv	s1,a0
	mv	s2,a1
	.loc 1 1057 16
	lbu	a0,12(a5)
.LVL6:
	lbu	a5,13(a5)
	slli	a5,a5,8
	or	a0,a5,a0
	call	lwip_htons
.LVL7:
	.loc 1 1057 6
	andi	a0,a0,1
	bne	a0,zero,.L21
	.loc 1 1065 21
	lui	s3,%hi(.LANCHOR4)
.L9:
	.loc 1 1065 65 discriminator 1
	lw	a4,16(s2)
	.loc 1 1065 21 discriminator 1
	lw	a2,%lo(.LANCHOR4)(s3)
	.loc 1 1065 42 discriminator 1
	lhu	a5,8(s1)
	.loc 1 1065 73 discriminator 1
	lbu	a3,5(a4)
	lbu	a1,4(a4)
	.loc 1 1065 21 discriminator 1
	add	a5,a5,a2
	.loc 1 1065 73 discriminator 1
	slli	a3,a3,8
	or	a1,a3,a1
	lbu	a3,6(a4)
	slli	a3,a3,16
	or	a3,a3,a1
	lbu	a1,7(a4)
	slli	a1,a1,24
	or	a1,a1,a3
	.loc 1 1065 87 discriminator 1
	lhu	a3,8(s2)
	.loc 1 1065 50 discriminator 1
	add	a3,a3,a1
	sub	a3,a5,a3
	.loc 1 1064 17 discriminator 1
	bge	a3,zero,.L12
	.loc 1 1075 5 is_stmt 1
	.loc 1 1076 45 is_stmt 0
	sub	a5,a5,a1
	.loc 1 1075 14
	ble	a5,zero,.L10
	.loc 1 1078 7 is_stmt 1
	.loc 1 1078 19 is_stmt 0
	sub	a1,a1,a2
	slli	a1,a1,16
	.loc 1 1079 7
	lw	a0,4(s1)
	.loc 1 1078 19
	srli	a1,a1,16
	.loc 1 1078 17
	sh	a1,8(s1)
	.loc 1 1079 7 is_stmt 1
	call	pbuf_realloc
.LVL8:
.L10:
	.loc 1 1082 3
	.loc 1 1083 1 is_stmt 0
	lw	ra,28(sp)
	.cfi_remember_state
	.cfi_restore 1
	lw	s0,24(sp)
	.cfi_restore 8
	.loc 1 1082 14
	sw	s2,0(s1)
	.loc 1 1083 1
	lw	s3,12(sp)
	.cfi_restore 19
	lw	s1,20(sp)
	.cfi_restore 9
.LVL9:
	lw	s2,16(sp)
	.cfi_restore 18
.LVL10:
	addi	sp,sp,32
	.cfi_def_cfa_offset 0
	jr	ra
.LVL11:
.L21:
	.cfi_restore_state
	.loc 1 1059 5 is_stmt 1
	mv	a0,s2
	call	tcp_segs_free
.LVL12:
	.loc 1 1060 5
.L15:
	li	s2,0
	j	.L10
.LVL13:
.L12:
	.loc 1 1068 7
	.loc 1 1068 20 is_stmt 0
	lbu	a5,13(a4)
	lbu	a0,12(a4)
	slli	a5,a5,8
	or	a0,a5,a0
	call	lwip_htons
.LVL14:
	.loc 1 1068 10
	andi	a0,a0,1
	beq	a0,zero,.L11
	.loc 1 1069 9 is_stmt 1
	.loc 1 1069 61 is_stmt 0
	lw	a5,16(s1)
	lbu	s0,13(a5)
	lbu	a0,12(a5)
	slli	s0,s0,8
	or	s0,s0,a0
	.loc 1 1069 84
	li	a0,1
	call	lwip_htons
.LVL15:
	.loc 1 1069 14
	lw	a5,16(s1)
	.loc 1 1069 44
	or	a0,s0,a0
	slli	a0,a0,16
	srli	a0,a0,16
	sb	a0,12(a5)
	srli	a0,a0,8
	sb	a0,13(a5)
.L11:
	.loc 1 1071 7 is_stmt 1
.LVL16:
	.loc 1 1072 7
	.loc 1 1072 12 is_stmt 0
	lw	s0,0(s2)
.LVL17:
	.loc 1 1073 7 is_stmt 1
	mv	a0,s2
	call	tcp_seg_free
.LVL18:
	.loc 1 1064 11 is_stmt 0
	beq	s0,zero,.L15
	mv	s2,s0
.LVL19:
	j	.L9
	.cfi_endproc
.LFE9:
	.size	tcp_oos_insert_segment, .-tcp_oos_insert_segment
	.section	.text.tcp_parseopt.isra.0.part.1,"ax",@progbits
	.align	1
	.type	tcp_parseopt.isra.0.part.1, @function
tcp_parseopt.isra.0.part.1:
.LFB16:
	.loc 1 1909 1 is_stmt 1
	.cfi_startproc
	.loc 1 1921 5
	.loc 1 1909 1 is_stmt 0
	addi	sp,sp,-48
	.cfi_def_cfa_offset 48
	sw	s1,36(sp)
	.cfi_offset 9, -12
	.loc 1 1921 21
	lui	s1,%hi(.LANCHOR0)
	.loc 1 1909 1
	sw	s2,32(sp)
	sw	s3,28(sp)
	sw	s4,24(sp)
	sw	s5,20(sp)
	sw	s6,16(sp)
	sw	s7,12(sp)
	sw	s8,8(sp)
	.loc 1 1921 21
	sh	zero,%lo(.LANCHOR0)(s1)
	.loc 1 1909 1
	sw	ra,44(sp)
	sw	s0,40(sp)
	.cfi_offset 18, -16
	.cfi_offset 19, -20
	.cfi_offset 20, -24
	.cfi_offset 21, -28
	.cfi_offset 22, -32
	.cfi_offset 23, -36
	.cfi_offset 24, -40
	.cfi_offset 1, -4
	.cfi_offset 8, -8
	.loc 1 1909 1
	mv	s3,a0
	addi	s1,s1,%lo(.LANCHOR0)
	.loc 1 1921 37
	lui	s2,%hi(.LANCHOR5)
.LBB6:
	.loc 1 1923 7
	li	s4,1
	li	s5,1
	li	s6,2
	.loc 1 1934 14
	li	s7,4
	.loc 1 1943 20
	li	s8,687
.L27:
.LBE6:
	.loc 1 1921 37
	lhu	s0,%lo(.LANCHOR5)(s2)
	.loc 1 1921 5
	lhu	a5,0(s1)
	bltu	a5,s0,.L34
.L25:
	.loc 1 2026 1
	lw	ra,44(sp)
	.cfi_remember_state
	.cfi_restore 1
	lw	s0,40(sp)
	.cfi_restore 8
	lw	s1,36(sp)
	.cfi_restore 9
	lw	s2,32(sp)
	.cfi_restore 18
	lw	s3,28(sp)
	.cfi_restore 19
	lw	s4,24(sp)
	.cfi_restore 20
	lw	s5,20(sp)
	.cfi_restore 21
	lw	s6,16(sp)
	.cfi_restore 22
	lw	s7,12(sp)
	.cfi_restore 23
	lw	s8,8(sp)
	.cfi_restore 24
	addi	sp,sp,48
	.cfi_def_cfa_offset 0
	jr	ra
.L34:
	.cfi_restore_state
.LBB7:
	.loc 1 1922 7 is_stmt 1
	.loc 1 1922 18 is_stmt 0
	call	tcp_get_next_optbyte
.LVL20:
	.loc 1 1923 7 is_stmt 1
	beq	a0,s4,.L27
	slli	a5,a0,24
	srai	a5,a5,24
	beq	a5,zero,.L25
	bne	a0,s6,.L29
	.loc 1 1933 11
	.loc 1 1934 11
	.loc 1 1934 15 is_stmt 0
	call	tcp_get_next_optbyte
.LVL21:
	.loc 1 1934 14
	bne	a0,s7,.L25
	.loc 1 1934 67
	lhu	a5,0(s1)
	addi	a5,a5,1
	.loc 1 1934 43
	bge	a5,s0,.L25
	.loc 1 1940 11 is_stmt 1
	.loc 1 1940 25 is_stmt 0
	call	tcp_get_next_optbyte
.LVL22:
	.loc 1 1940 15
	slli	a0,a0,8
	slli	s0,a0,16
	srli	s0,s0,16
.LVL23:
	.loc 1 1941 11 is_stmt 1
	.loc 1 1941 18 is_stmt 0
	call	tcp_get_next_optbyte
.LVL24:
	.loc 1 1941 15
	or	a0,s0,a0
	slli	a0,a0,16
	srli	a0,a0,16
.LVL25:
	.loc 1 1943 11 is_stmt 1
	.loc 1 1943 51 is_stmt 0
	addi	a5,a0,-1
	.loc 1 1943 20
	slli	a5,a5,16
	srli	a5,a5,16
	bleu	a5,s8,.L32
	li	a0,688
.LVL26:
.L32:
	sh	a0,0(s3)
	.loc 1 1944 11 is_stmt 1
	j	.L27
.LVL27:
.L29:
	.loc 1 2012 11
	.loc 1 2013 11
	.loc 1 2013 18 is_stmt 0
	call	tcp_get_next_optbyte
.LVL28:
	.loc 1 2014 11 is_stmt 1
	.loc 1 2014 14 is_stmt 0
	bleu	a0,s5,.L25
	.loc 1 2022 11 is_stmt 1
	.loc 1 2022 22 is_stmt 0
	lhu	a5,0(s1)
	addi	a5,a5,-2
	add	a5,a5,a0
	sh	a5,0(s1)
	j	.L27
.LBE7:
	.cfi_endproc
.LFE16:
	.size	tcp_parseopt.isra.0.part.1, .-tcp_parseopt.isra.0.part.1
	.section	.text.tcp_input_delayed_close,"ax",@progbits
	.align	1
	.type	tcp_input_delayed_close, @function
tcp_input_delayed_close:
.LFB5:
	.loc 1 601 1 is_stmt 1
	.cfi_startproc
.LVL29:
	.loc 1 602 3
	.loc 1 602 8
	.loc 1 602 7
	.loc 1 604 3
	.loc 1 604 6 is_stmt 0
	lui	a5,%hi(.LANCHOR6)
	lbu	a5,%lo(.LANCHOR6)(a5)
	andi	a5,a5,16
	beq	a5,zero,.L43
	.loc 1 601 1
	addi	sp,sp,-16
	.cfi_def_cfa_offset 16
	sw	s0,8(sp)
	sw	ra,12(sp)
	.cfi_offset 8, -8
	.cfi_offset 1, -4
	.loc 1 607 8
	lhu	a5,26(a0)
	mv	s0,a0
	.loc 1 607 5 is_stmt 1
	.loc 1 607 8 is_stmt 0
	andi	a5,a5,16
	bne	a5,zero,.L42
	.loc 1 611 7 is_stmt 1
	.loc 1 611 12
	.loc 1 611 30
	.loc 1 611 37 is_stmt 0
	lw	a5,144(a0)
	.loc 1 611 32
	beq	a5,zero,.L42
	.loc 1 611 8 is_stmt 1 discriminator 1
	.loc 1 611 12 is_stmt 0 discriminator 1
	lw	a0,16(a0)
.LVL30:
	li	a1,-15
	jalr	a5
.LVL31:
.L42:
.LBB10:
.LBB11:
	.loc 1 613 5 is_stmt 1
	lui	a0,%hi(tcp_active_pcbs)
	mv	a1,s0
	addi	a0,a0,%lo(tcp_active_pcbs)
	call	tcp_pcb_remove
.LVL32:
	.loc 1 614 5
	mv	a0,s0
	call	tcp_free
.LVL33:
	.loc 1 615 5
.LBE11:
.LBE10:
	.loc 1 618 1 is_stmt 0
	lw	ra,12(sp)
	.cfi_restore 1
	lw	s0,8(sp)
	.cfi_restore 8
.LVL34:
.LBB13:
.LBB12:
	.loc 1 614 5
	li	a0,1
.LBE12:
.LBE13:
	.loc 1 618 1
	addi	sp,sp,16
	.cfi_def_cfa_offset 0
	jr	ra
.LVL35:
.L43:
	.loc 1 617 10
	li	a0,0
.LVL36:
	.loc 1 618 1
	ret
	.cfi_endproc
.LFE5:
	.size	tcp_input_delayed_close, .-tcp_input_delayed_close
	.section	.text.tcp_free_acked_segments.isra.3,"ax",@progbits
	.align	1
	.type	tcp_free_acked_segments.isra.3, @function
tcp_free_acked_segments.isra.3:
.LFB18:
	.loc 1 1088 1 is_stmt 1
	.cfi_startproc
.LVL37:
	addi	sp,sp,-32
	.cfi_def_cfa_offset 32
	sw	s0,24(sp)
	sw	s2,16(sp)
	sw	s3,12(sp)
	sw	s4,8(sp)
	sw	ra,28(sp)
	sw	s1,20(sp)
	sw	s5,4(sp)
	.cfi_offset 8, -8
	.cfi_offset 18, -16
	.cfi_offset 19, -20
	.cfi_offset 20, -24
	.cfi_offset 1, -4
	.cfi_offset 9, -12
	.cfi_offset 21, -28
	.loc 1 1088 1 is_stmt 0
	mv	s2,a0
	mv	s0,a1
	.loc 1 1098 200
	lui	s3,%hi(.LANCHOR8)
	.loc 1 1114 16
	lui	s4,%hi(.LANCHOR7)
.LVL38:
.L52:
	.loc 1 1121 11 is_stmt 1
	.loc 1 1097 9 is_stmt 0
	beq	s0,zero,.L51
	.loc 1 1098 27
	lw	a4,16(s0)
	lbu	a0,5(a4)
	lbu	a5,4(a4)
	slli	a0,a0,8
	or	a0,a0,a5
	lbu	a5,6(a4)
	slli	a5,a5,16
	or	a5,a5,a0
	lbu	a0,7(a4)
	slli	a0,a0,24
	or	a0,a0,a5
	call	lwip_htonl
.LVL39:
	.loc 1 1098 96
	lw	a5,16(s0)
	.loc 1 1098 27
	mv	s5,a0
	.loc 1 1098 76
	lhu	s1,8(s0)
	.loc 1 1098 96
	lbu	a0,12(a5)
	lbu	a5,13(a5)
	slli	a5,a5,8
	or	a0,a5,a0
	call	lwip_htons
.LVL40:
	.loc 1 1098 198
	lw	a5,%lo(.LANCHOR8)(s3)
	.loc 1 1098 190
	andi	a0,a0,3
	snez	a0,a0
	.loc 1 1098 198
	sub	s1,s1,a5
	add	s1,s1,s5
	add	s1,s1,a0
	.loc 1 1097 26
	ble	s1,zero,.L54
.L51:
	.loc 1 1126 1
	mv	a0,s0
	lw	ra,28(sp)
	.cfi_remember_state
	.cfi_restore 1
	lw	s0,24(sp)
	.cfi_restore 8
.LVL41:
	lw	s1,20(sp)
	.cfi_restore 9
	lw	s2,16(sp)
	.cfi_restore 18
	lw	s3,12(sp)
	.cfi_restore 19
	lw	s4,8(sp)
	.cfi_restore 20
	lw	s5,4(sp)
	.cfi_restore 21
	addi	sp,sp,32
	.cfi_def_cfa_offset 0
	jr	ra
.LVL42:
.L54:
	.cfi_restore_state
	.loc 1 1103 50 is_stmt 1
	.loc 1 1105 5
	.loc 1 1106 5
	.loc 1 1108 12 is_stmt 0
	lw	a0,4(s0)
	.loc 1 1106 14
	lw	s1,0(s0)
.LVL43:
	.loc 1 1108 5 is_stmt 1
	.loc 1 1108 12 is_stmt 0
	call	pbuf_clen
.LVL44:
	.loc 1 1110 68 is_stmt 1
	.loc 1 1111 5
	.loc 1 1111 10
	.loc 1 1111 48
	.loc 1 1113 5
	.loc 1 1113 25 is_stmt 0
	lhu	a5,0(s2)
	.loc 1 1114 16
	addi	a4,s4,%lo(.LANCHOR7)
	.loc 1 1114 18
	lhu	a3,0(a4)
	.loc 1 1113 25
	sub	a0,a5,a0
.LVL45:
	.loc 1 1113 23
	sh	a0,0(s2)
	.loc 1 1114 5 is_stmt 1
	.loc 1 1114 18 is_stmt 0
	lhu	a5,8(s0)
	.loc 1 1115 5
	mv	a0,s0
	.loc 1 1106 14
	mv	s0,s1
.LVL46:
	.loc 1 1114 18
	add	a5,a5,a3
	.loc 1 1114 16
	sh	a5,0(a4)
	.loc 1 1115 5 is_stmt 1
	call	tcp_seg_free
.LVL47:
	.loc 1 1119 49
	.loc 1 1120 5
	j	.L52
	.cfi_endproc
.LFE18:
	.size	tcp_free_acked_segments.isra.3, .-tcp_free_acked_segments.isra.3
	.section	.text.tcp_receive,"ax",@progbits
	.align	1
	.type	tcp_receive, @function
tcp_receive:
.LFB11:
	.loc 1 1142 1
	.cfi_startproc
.LVL48:
	.loc 1 1143 3
	.loc 1 1144 3
	.loc 1 1145 3
	.loc 1 1147 3
	.loc 1 1147 8
	.loc 1 1147 7
	.loc 1 1148 3
	.loc 1 1148 8
	.loc 1 1148 44
	.loc 1 1150 3
	.loc 1 1150 6 is_stmt 0
	lui	a5,%hi(.LANCHOR9)
	lbu	a5,%lo(.LANCHOR9)(a5)
	.loc 1 1142 1
	addi	sp,sp,-48
	.cfi_def_cfa_offset 48
	sw	s0,40(sp)
	sw	s3,28(sp)
	sw	s4,24(sp)
	.cfi_offset 8, -8
	.cfi_offset 19, -20
	.cfi_offset 20, -24
	lui	s3,%hi(.LANCHOR4)
	lui	s4,%hi(.LANCHOR10)
	sw	ra,44(sp)
	sw	s1,36(sp)
	sw	s2,32(sp)
	sw	s5,20(sp)
	sw	s6,16(sp)
	sw	s7,12(sp)
	.cfi_offset 1, -4
	.cfi_offset 9, -12
	.cfi_offset 18, -16
	.cfi_offset 21, -28
	.cfi_offset 22, -32
	.cfi_offset 23, -36
	.loc 1 1150 6
	andi	a5,a5,16
	.loc 1 1142 1
	mv	s0,a0
	addi	s3,s3,%lo(.LANCHOR4)
	addi	s4,s4,%lo(.LANCHOR10)
	.loc 1 1150 6
	beq	a5,zero,.L61
	lw	a1,0(s3)
	.loc 1 1151 5 is_stmt 1
	.loc 1 1154 29 is_stmt 0
	lw	a5,84(a0)
	lui	s1,%hi(.LANCHOR8)
	.loc 1 1148 17
	lbu	a6,20(a0)
	.loc 1 1151 25
	lhu	a3,96(a0)
	.loc 1 1151 40
	lw	a2,88(a0)
.LVL49:
	.loc 1 1154 5 is_stmt 1
	.loc 1 1154 40 is_stmt 0
	sub	a0,a5,a1
.LVL50:
	lw	a4,%lo(.LANCHOR8)(s1)
	addi	s1,s1,%lo(.LANCHOR8)
	.loc 1 1154 8
	blt	a0,zero,.L62
	.loc 1 1154 63 discriminator 1
	bne	a5,a1,.L63
	.loc 1 1155 66
	sub	a5,a2,a4
	.loc 1 1155 32
	blt	a5,zero,.L62
.L63:
	.loc 1 1155 90 discriminator 1
	bne	a2,a4,.L64
	.loc 1 1156 49
	lui	a5,%hi(.LANCHOR3)
	lw	a0,%lo(.LANCHOR3)(a5)
	lbu	a5,15(a0)
	lbu	a7,14(a0)
	slli	a5,a5,8
	.loc 1 1156 32
	or	a5,a5,a7
	bgeu	a3,a5,.L64
.L62:
	.loc 1 1157 7 is_stmt 1
	.loc 1 1157 29 is_stmt 0
	lui	a5,%hi(.LANCHOR3)
	lw	a0,%lo(.LANCHOR3)(a5)
	lbu	a5,15(a0)
	lbu	a7,14(a0)
	.loc 1 1160 10
	lhu	a0,98(s0)
	.loc 1 1157 29
	slli	a5,a5,8
	or	a5,a5,a7
	.loc 1 1157 20
	sh	a5,96(s0)
	.loc 1 1160 7 is_stmt 1
	.loc 1 1160 10 is_stmt 0
	bgeu	a0,a5,.L65
	.loc 1 1161 9 is_stmt 1
	.loc 1 1161 26 is_stmt 0
	sh	a5,98(s0)
.L65:
	.loc 1 1163 7 is_stmt 1
	.loc 1 1163 20 is_stmt 0
	sw	a1,84(s0)
	.loc 1 1164 7 is_stmt 1
	.loc 1 1164 20 is_stmt 0
	sw	a4,88(s0)
.L64:
	.loc 1 1165 7 is_stmt 1
	.loc 1 1198 5
	.loc 1 1198 46 is_stmt 0
	lw	a1,68(s0)
	.loc 1 1198 33
	sub	a5,a4,a1
	.loc 1 1198 8
	bgt	a5,zero,.L66
	.loc 1 1200 7 is_stmt 1
	.loc 1 1200 10 is_stmt 0
	lhu	a5,0(s4)
	bne	a5,zero,.L67
	.loc 1 1202 9 is_stmt 1
	.loc 1 1202 31 is_stmt 0
	lhu	a5,96(s0)
	.loc 1 1202 26
	lw	a0,88(s0)
	.loc 1 1151 20
	add	a3,a3,a2
.LVL51:
	.loc 1 1202 26
	add	a5,a5,a0
	.loc 1 1202 12
	bne	a5,a3,.L67
	.loc 1 1204 11 is_stmt 1
	.loc 1 1204 14 is_stmt 0
	lh	a5,48(s0)
	blt	a5,zero,.L67
	.loc 1 1206 13 is_stmt 1
	.loc 1 1206 16 is_stmt 0
	bne	a1,a4,.L67
	.loc 1 1207 15 is_stmt 1
.LVL52:
	.loc 1 1208 15
	.loc 1 1208 29 is_stmt 0
	lbu	a5,67(s0)
	.loc 1 1208 18
	li	a4,255
	beq	a5,a4,.L68
	.loc 1 1209 17 is_stmt 1
	addi	a5,a5,1
	sb	a5,67(s0)
.L68:
	.loc 1 1211 15
	.loc 1 1211 22 is_stmt 0
	lbu	a4,67(s0)
	.loc 1 1211 18
	li	a5,3
	bleu	a4,a5,.L69
	.loc 1 1213 17 is_stmt 1
	.loc 1 1213 22
	.loc 1 1213 45 is_stmt 0
	lhu	a4,72(s0)
	.loc 1 1213 26
	lhu	a5,50(s0)
	add	a5,a4,a5
	slli	a5,a5,16
	srli	a5,a5,16
	.loc 1 1213 25
	bleu	a4,a5,.L71
	.loc 1 1213 150
	li	a5,65536
	addi	a5,a5,-1
.L71:
	sh	a5,72(s0)
	.loc 1 1215 15 is_stmt 1
	j	.L72
.L69:
	.loc 1 1215 15
	.loc 1 1215 18 is_stmt 0
	bne	a4,a5,.L73
.L72:
	.loc 1 1217 17 is_stmt 1
	mv	a0,s0
	call	tcp_rexmit_fast
.LVL53:
	.loc 1 1225 7
.L73:
	.loc 1 1339 65
	.loc 1 1344 5
	.loc 1 1344 12 is_stmt 0
	lw	a2,52(s0)
	.loc 1 1344 8
	beq	a2,zero,.L61
	.loc 1 1344 53 discriminator 1
	lw	a5,56(s0)
	lw	a4,0(s1)
	sub	a5,a5,a4
	.loc 1 1344 21 discriminator 1
	bge	a5,zero,.L61
	.loc 1 1347 7 is_stmt 1
	.loc 1 1353 27 is_stmt 0
	lh	a3,60(s0)
	.loc 1 1347 29
	lui	a5,%hi(tcp_ticks)
	lhu	a4,%lo(tcp_ticks)(a5)
	slli	a2,a2,16
	.loc 1 1353 21
	srai	a1,a3,3
	.loc 1 1347 29
	srli	a2,a2,16
.LVL54:
	.loc 1 1350 70 is_stmt 1
	.loc 1 1353 7
	.loc 1 1353 21 is_stmt 0
	slli	a1,a1,16
	srli	a1,a1,16
	.loc 1 1347 29
	sub	a5,a4,a2
	.loc 1 1353 21
	sub	a5,a5,a1
	slli	a5,a5,16
	srli	a5,a5,16
	.loc 1 1353 9
	slli	a0,a5,16
	.loc 1 1354 33
	add	a5,a5,a3
	.loc 1 1354 17
	slli	a5,a5,16
	srai	a5,a5,16
	.loc 1 1353 9
	srai	a0,a0,16
.LVL55:
	.loc 1 1354 7 is_stmt 1
	.loc 1 1354 15 is_stmt 0
	sh	a5,60(s0)
	.loc 1 1355 7 is_stmt 1
	.loc 1 1355 10 is_stmt 0
	bge	a0,zero,.L90
	.loc 1 1356 9 is_stmt 1
	.loc 1 1356 13 is_stmt 0
	sub	a2,a2,a4
	add	a2,a1,a2
	.loc 1 1356 11
	slli	a0,a2,16
.LVL56:
	srai	a0,a0,16
.LVL57:
.L90:
	.loc 1 1358 7 is_stmt 1
	.loc 1 1358 27 is_stmt 0
	lh	a3,62(s0)
.LVL58:
	.loc 1 1359 7 is_stmt 1
	.loc 1 1360 41 is_stmt 0
	srai	a5,a5,3
	.loc 1 1365 19
	sw	zero,52(s0)
	.loc 1 1358 21
	srai	a4,a3,2
	.loc 1 1359 33
	sub	a4,a3,a4
	add	a4,a4,a0
	slli	a4,a4,16
	srli	a4,a4,16
	.loc 1 1360 41
	add	a5,a4,a5
	.loc 1 1359 15
	sh	a4,62(s0)
	.loc 1 1360 7 is_stmt 1
	.loc 1 1360 16 is_stmt 0
	sh	a5,64(s0)
	.loc 1 1363 84 is_stmt 1
	.loc 1 1365 7
.LVL59:
.L61:
	.loc 1 1373 3
	.loc 1 1373 15 is_stmt 0
	lhu	a2,0(s4)
	lw	a3,36(s0)
	lw	a5,0(s3)
	.loc 1 1373 6
	beq	a2,zero,.L91
	.loc 1 1373 20 discriminator 1
	lbu	a1,20(s0)
	li	a4,6
	bgtu	a1,a4,.L91
	.loc 1 1404 5 is_stmt 1
	.loc 1 1404 41 is_stmt 0
	sub	a1,a3,a5
	addi	a4,a1,-1
	.loc 1 1404 8
	blt	a4,zero,.L92
	.loc 1 1404 103 discriminator 1
	li	a4,1
	sub	a4,a4,a5
	sub	a4,a4,a2
	add	a4,a4,a3
	.loc 1 1404 69 discriminator 1
	bgt	a4,zero,.L92
.LBB14:
	.loc 1 1425 7 is_stmt 1
	.loc 1 1425 20 is_stmt 0
	lui	a4,%hi(.LANCHOR11)
	addi	a5,a4,%lo(.LANCHOR11)
	.loc 1 1432 17
	lhu	a3,8(a5)
	.loc 1 1430 11
	slli	a1,a1,16
	srli	a1,a1,16
	.loc 1 1425 20
	lw	a0,4(a5)
.LVL60:
	.loc 1 1426 7 is_stmt 1
	.loc 1 1427 7
	.loc 1 1428 7
	.loc 1 1428 12
	.loc 1 1428 30
	.loc 1 1429 7
	.loc 1 1429 12
	.loc 1 1429 39
	.loc 1 1430 7
	.loc 1 1431 7
	.loc 1 1431 12
	.loc 1 1431 57
	.loc 1 1432 7
	.loc 1 1432 17 is_stmt 0
	sub	a3,a3,a1
	sh	a3,8(a5)
	.loc 1 1433 7 is_stmt 1
	.loc 1 1433 19 is_stmt 0
	lhu	a5,8(a0)
	addi	s1,a4,%lo(.LANCHOR11)
	sub	a5,a5,a1
	slli	a5,a5,16
	srli	a5,a5,16
.LVL61:
	.loc 1 1434 7 is_stmt 1
.L93:
	.loc 1 1434 15 is_stmt 0
	lhu	a4,10(a0)
	.loc 1 1434 13
	bltu	a4,a1,.L94
	.loc 1 1442 7 is_stmt 1
	call	pbuf_remove_header
.LVL62:
	.loc 1 1443 7
	.loc 1 1443 40 is_stmt 0
	lw	a5,36(s0)
	.loc 1 1443 12
	lw	a4,16(s1)
	.loc 1 1443 27
	srli	a3,a5,8
	.loc 1 1443 35
	sw	a5,0(s3)
	.loc 1 1443 27
	sb	a5,4(a4)
	sb	a3,5(a4)
	srli	a3,a5,16
	srli	a5,a5,24
	sb	a3,6(a4)
	sb	a5,7(a4)
.L95:
.LBE14:
	.loc 1 1457 5 is_stmt 1
	.loc 1 1457 19 is_stmt 0
	lw	a5,0(s3)
	.loc 1 1457 47
	lw	a4,36(s0)
	.loc 1 1457 34
	sub	a3,a5,a4
	.loc 1 1457 8
	blt	a3,zero,.L129
	.loc 1 1457 120 discriminator 1
	lhu	a2,40(s0)
	addi	a0,a5,1
	.loc 1 1457 92 discriminator 1
	sub	a3,a0,a4
	sub	a3,a3,a2
	.loc 1 1457 65 discriminator 1
	bgt	a3,zero,.L129
	.loc 1 1459 7 is_stmt 1
	.loc 1 1459 10 is_stmt 0
	bne	a5,a4,.L97
	.loc 1 1463 9 is_stmt 1
	.loc 1 1463 27 is_stmt 0
	lui	s1,%hi(.LANCHOR11)
	addi	a5,s1,%lo(.LANCHOR11)
	lhu	s2,8(a5)
	.loc 1 1463 47
	lw	a5,16(a5)
	addi	s1,s1,%lo(.LANCHOR11)
	lbu	a0,12(a5)
	lbu	a5,13(a5)
	slli	a5,a5,8
	or	a0,a5,a0
	call	lwip_htons
.LVL63:
	.loc 1 1463 33
	andi	a0,a0,3
	snez	a0,a0
	add	a0,s2,a0
	slli	a0,a0,16
	.loc 1 1465 12
	lhu	a5,40(s0)
	.loc 1 1463 33
	srli	a0,a0,16
	.loc 1 1463 16
	sh	a0,0(s4)
	.loc 1 1465 9 is_stmt 1
	.loc 1 1465 12 is_stmt 0
	bgeu	a5,a0,.L98
	.loc 1 1469 68 is_stmt 1
	.loc 1 1470 11
	.loc 1 1470 24 is_stmt 0
	lw	a5,16(s1)
	lbu	a0,12(a5)
	lbu	a5,13(a5)
	slli	a5,a5,8
	or	a0,a5,a0
	call	lwip_htons
.LVL64:
	.loc 1 1470 14
	andi	a0,a0,1
	beq	a0,zero,.L99
	.loc 1 1473 13 is_stmt 1
	.loc 1 1473 66 is_stmt 0
	lw	a5,16(s1)
	lbu	s2,13(a5)
	lbu	a0,12(a5)
	slli	s2,s2,8
	or	s2,s2,a0
	.loc 1 1473 195
	mv	a0,s2
	call	lwip_htons
.LVL65:
	.loc 1 1473 175
	andi	a0,a0,62
	call	lwip_htons
.LVL66:
	.loc 1 1473 87
	li	a5,-16384
	addi	a5,a5,255
	and	s2,s2,a5
	.loc 1 1473 19
	lw	a4,16(s1)
	.loc 1 1473 173
	or	a0,s2,a0
	.loc 1 1473 48
	slli	a0,a0,16
	srli	a0,a0,16
	sb	a0,12(a4)
	srli	a0,a0,8
	sb	a0,13(a4)
.L99:
	.loc 1 1476 11 is_stmt 1
	.loc 1 1477 11
	.loc 1 1477 21 is_stmt 0
	lhu	a5,40(s0)
	sh	a5,8(s1)
	.loc 1 1478 11 is_stmt 1
	.loc 1 1478 24 is_stmt 0
	lw	a5,16(s1)
	lbu	a0,12(a5)
	lbu	a5,13(a5)
	slli	a5,a5,8
	or	a0,a5,a0
	call	lwip_htons
.LVL67:
	.loc 1 1478 14
	andi	a0,a0,2
	beq	a0,zero,.L100
	.loc 1 1479 13 is_stmt 1
	.loc 1 1479 23 is_stmt 0
	lhu	a5,8(s1)
	addi	a5,a5,-1
	sh	a5,8(s1)
.L100:
	.loc 1 1481 11 is_stmt 1
	lhu	a1,8(s1)
	lw	a0,4(s1)
	call	pbuf_realloc
.LVL68:
	.loc 1 1482 11
	.loc 1 1482 49 is_stmt 0
	lw	a5,16(s1)
	.loc 1 1482 29
	lhu	s2,8(s1)
	.loc 1 1482 49
	lbu	a0,12(a5)
	lbu	a5,13(a5)
	slli	a5,a5,8
	or	a0,a5,a0
	call	lwip_htons
.LVL69:
	.loc 1 1482 35
	andi	a0,a0,3
	snez	a0,a0
	add	s2,s2,a0
	.loc 1 1482 18
	sh	s2,0(s4)
	.loc 1 1483 11 is_stmt 1
	.loc 1 1483 16
.L98:
	.loc 1 1483 76 discriminator 1
	.loc 1 1490 9 discriminator 1
	.loc 1 1490 12 is_stmt 0 discriminator 1
	lw	a5,116(s0)
	beq	a5,zero,.L102
	.loc 1 1491 11 is_stmt 1
	.loc 1 1491 24 is_stmt 0
	lw	a5,16(s1)
	lbu	a0,12(a5)
	lbu	a5,13(a5)
	slli	a5,a5,8
	or	a0,a5,a0
	call	lwip_htons
.LVL70:
	.loc 1 1491 14
	andi	a0,a0,1
	bne	a0,zero,.L103
.LBB15:
	.loc 1 1503 13 is_stmt 1
	.loc 1 1503 29 is_stmt 0
	lw	s5,116(s0)
.LVL71:
	.loc 1 1506 13 is_stmt 1
.L107:
	lw	a1,0(s3)
	lhu	a4,0(s4)
	add	a4,a4,a1
	.loc 1 1506 19 is_stmt 0
	beq	s5,zero,.L111
	.loc 1 1507 67 discriminator 1
	lw	a3,16(s5)
	.loc 1 1507 75 discriminator 1
	lbu	a2,5(a3)
	lbu	a5,4(a3)
	slli	a2,a2,8
	or	a5,a2,a5
	lbu	a2,6(a3)
	slli	a2,a2,16
	or	a2,a2,a5
	lbu	a5,7(a3)
	slli	a5,a5,24
	or	a5,a5,a2
	.loc 1 1507 89 discriminator 1
	lhu	a2,8(s5)
	.loc 1 1507 53 discriminator 1
	add	a2,a2,a5
	sub	a2,a4,a2
	.loc 1 1506 25 discriminator 1
	bge	a2,zero,.L112
	.loc 1 1522 13 is_stmt 1
	.loc 1 1523 50 is_stmt 0
	sub	a4,a4,a5
	.loc 1 1522 22
	ble	a4,zero,.L111
	.loc 1 1526 15 is_stmt 1
	.loc 1 1526 27 is_stmt 0
	sub	a5,a5,a1
	.loc 1 1526 25
	sh	a5,8(s1)
	.loc 1 1527 15 is_stmt 1
	.loc 1 1527 28 is_stmt 0
	lw	a5,16(s1)
	lbu	a0,12(a5)
	lbu	a5,13(a5)
	slli	a5,a5,8
	or	a0,a5,a0
	call	lwip_htons
.LVL72:
	.loc 1 1527 18
	andi	a0,a0,2
	beq	a0,zero,.L114
	.loc 1 1528 17 is_stmt 1
	.loc 1 1528 27 is_stmt 0
	lhu	a5,8(s1)
	addi	a5,a5,-1
	sh	a5,8(s1)
.L114:
	.loc 1 1530 15 is_stmt 1
	lhu	a1,8(s1)
	lw	a0,4(s1)
	call	pbuf_realloc
.LVL73:
	.loc 1 1531 15
	.loc 1 1531 53 is_stmt 0
	lw	a5,16(s1)
	.loc 1 1531 33
	lhu	s2,8(s1)
	.loc 1 1531 53
	lbu	a0,12(a5)
	lbu	a5,13(a5)
	slli	a5,a5,8
	or	a0,a5,a0
	call	lwip_htons
.LVL74:
	.loc 1 1531 39
	andi	a0,a0,3
	snez	a0,a0
	add	s2,s2,a0
	.loc 1 1531 22
	sh	s2,0(s4)
	.loc 1 1532 15 is_stmt 1
	.loc 1 1532 20
.L111:
	.loc 1 1532 70 discriminator 1
	.loc 1 1535 13 discriminator 1
	.loc 1 1535 24 is_stmt 0 discriminator 1
	sw	s5,116(s0)
	j	.L102
.LVL75:
.L67:
.LBE15:
	.loc 1 1226 9 is_stmt 1
	.loc 1 1226 22 is_stmt 0
	sb	zero,67(s0)
	j	.L73
.LVL76:
.L66:
	.loc 1 1228 12 is_stmt 1
	.loc 1 1228 103 is_stmt 0
	lw	a3,80(s0)
.LVL77:
	sub	a3,a4,a3
	.loc 1 1228 76
	bgt	a3,zero,.L74
.LBB17:
	.loc 1 1230 7 is_stmt 1
	.loc 1 1235 7
	.loc 1 1235 14 is_stmt 0
	lhu	a3,26(s0)
	.loc 1 1235 10
	andi	a2,a3,4
	beq	a2,zero,.L75
	.loc 1 1236 9 is_stmt 1
	.loc 1 1236 14
	.loc 1 1236 29 is_stmt 0
	andi	a3,a3,-5
	.loc 1 1236 27
	sh	a3,26(s0)
	.loc 1 1237 9 is_stmt 1
	.loc 1 1237 19 is_stmt 0
	lhu	a3,74(s0)
	.loc 1 1238 26
	sh	zero,106(s0)
	.loc 1 1237 19
	sh	a3,72(s0)
	.loc 1 1238 9 is_stmt 1
.L75:
	.loc 1 1242 7
	.loc 1 1245 7
	.loc 1 1245 41 is_stmt 0
	lh	a3,60(s0)
	lhu	a2,62(s0)
	.loc 1 1252 20
	sw	a4,68(s0)
	.loc 1 1245 41
	srai	a3,a3,3
	add	a3,a3,a2
	.loc 1 1245 16
	sh	a3,64(s0)
	.loc 1 1248 7 is_stmt 1
.LVL78:
	.loc 1 1251 7
	.loc 1 1242 17 is_stmt 0
	sh	zero,66(s0)
	.loc 1 1252 7 is_stmt 1
	.loc 1 1256 7
	.loc 1 1256 10 is_stmt 0
	li	a4,3
.LVL79:
	bleu	a6,a4,.L77
.LVL80:
	.loc 1 1257 16
	lhu	a3,72(s0)
	.loc 1 1257 12
	lhu	a4,74(s0)
	.loc 1 1248 13
	slli	a5,a5,16
	srli	a5,a5,16
	.loc 1 1257 9 is_stmt 1
	.loc 1 1257 12 is_stmt 0
	bleu	a4,a3,.L78
.LBB18:
	.loc 1 1258 11 is_stmt 1
	.loc 1 1260 11
	.loc 1 1260 16 is_stmt 0
	lhu	a2,26(s0)
	li	a4,4096
	addi	a4,a4,-2048
	and	a4,a4,a2
	.loc 1 1262 35
	lhu	a2,50(s0)
	.loc 1 1260 16
	seqz	a4,a4
	addi	a4,a4,1
.LVL81:
	.loc 1 1262 11 is_stmt 1
	.loc 1 1263 11
	.loc 1 1263 16
	.loc 1 1262 35 is_stmt 0
	mul	a4,a4,a2
.LVL82:
	.loc 1 1262 20
	mv	a2,a4
	slli	a4,a4,16
	srli	a4,a4,16
	bleu	a4,a5,.L80
	.loc 1 1262 20 discriminator 4
	mv	a2,a5
.L80:
	.loc 1 1263 20 discriminator 4
	add	a5,a3,a2
.LVL83:
.L207:
.LBE18:
	.loc 1 1270 22
	slli	a5,a5,16
	srli	a5,a5,16
	.loc 1 1270 21
	bleu	a3,a5,.L200
.LBB19:
	.loc 1 1263 134 is_stmt 1 discriminator 2
	.loc 1 1263 144 is_stmt 0 discriminator 2
	li	a5,-1
.L200:
.LBE19:
	.loc 1 1270 76 is_stmt 1 discriminator 1
	.loc 1 1270 86 is_stmt 0 discriminator 1
	sh	a5,72(s0)
	j	.L77
.L78:
	.loc 1 1267 11 is_stmt 1
	.loc 1 1267 16
	.loc 1 1267 39 is_stmt 0
	lhu	a4,106(s0)
	.loc 1 1267 20
	add	a5,a4,a5
	slli	a5,a5,16
	srli	a5,a5,16
	.loc 1 1267 19
	bgtu	a4,a5,.L141
	.loc 1 1268 11 is_stmt 1
	.loc 1 1268 14 is_stmt 0
	bleu	a3,a5,.L82
	sh	a5,106(s0)
.L77:
	.loc 1 1272 11 is_stmt 1
	.loc 1 1280 109
	.loc 1 1284 7
	.loc 1 1284 22 is_stmt 0
	lw	a1,112(s0)
.LVL84:
	addi	s2,s0,102
	mv	a0,s2
	call	tcp_free_acked_segments.isra.3
.LVL85:
	.loc 1 1291 21
	lw	a1,108(s0)
	.loc 1 1284 20
	sw	a0,112(s0)
	.loc 1 1291 7 is_stmt 1
	.loc 1 1291 21 is_stmt 0
	mv	a0,s2
	call	tcp_free_acked_segments.isra.3
.LVL86:
	.loc 1 1295 14
	lw	a5,112(s0)
	.loc 1 1291 19
	sw	a0,108(s0)
	.loc 1 1295 7 is_stmt 1
	.loc 1 1301 20 is_stmt 0
	sb	zero,28(s0)
	.loc 1 1295 10
	seqz	a4,a5
	neg	a4,a4
	sh	a4,48(s0)
	.loc 1 1301 7 is_stmt 1
	.loc 1 1304 7
	.loc 1 1304 10 is_stmt 0
	bne	a0,zero,.L84
	.loc 1 1305 9 is_stmt 1
	.loc 1 1305 30 is_stmt 0
	sh	zero,104(s0)
.L84:
	.loc 1 1316 7 is_stmt 1
	.loc 1 1316 22 is_stmt 0
	lui	a3,%hi(.LANCHOR7)
	lhu	a4,100(s0)
	lhu	a3,%lo(.LANCHOR7)(a3)
	add	a4,a4,a3
	.loc 1 1316 20
	sh	a4,100(s0)
	.loc 1 1318 7 is_stmt 1
	.loc 1 1318 10 is_stmt 0
	lhu	a4,26(s0)
	slli	a3,a4,20
	bge	a3,zero,.L73
	.loc 1 1323 9 is_stmt 1
	.loc 1 1323 12 is_stmt 0
	bne	a5,zero,.L86
	.loc 1 1324 11 is_stmt 1
	.loc 1 1324 14 is_stmt 0
	bne	a0,zero,.L87
.L201:
	.loc 1 1329 11 is_stmt 1
	.loc 1 1329 16
	.loc 1 1329 31 is_stmt 0
	lhu	a5,26(s0)
	li	a4,-4096
	addi	a4,a4,2047
	and	a5,a5,a4
	.loc 1 1329 29
	sh	a5,26(s0)
	j	.L73
.LVL87:
.L141:
	.loc 1 1267 173
	li	a5,65536
	addi	a5,a5,-1
.L82:
	.loc 1 1269 13 is_stmt 1
	.loc 1 1269 32 is_stmt 0
	sub	a5,a5,a3
	.loc 1 1269 30
	sh	a5,106(s0)
	.loc 1 1270 13 is_stmt 1
	.loc 1 1270 18
	.loc 1 1270 22 is_stmt 0
	lhu	a5,50(s0)
	add	a5,a3,a5
	j	.L207
.LVL88:
.L87:
	.loc 1 1325 36 discriminator 1
	lw	s2,76(s0)
	.loc 1 1325 57 discriminator 1
	lw	a4,16(a0)
.L209:
	.loc 1 1328 61
	lbu	a0,5(a4)
	lbu	a5,4(a4)
	slli	a0,a0,8
	or	a0,a0,a5
	lbu	a5,6(a4)
	slli	a5,a5,16
	or	a5,a5,a0
	lbu	a0,7(a4)
	slli	a0,a0,24
	or	a0,a0,a5
	call	lwip_htonl
.LVL89:
	.loc 1 1328 51
	sub	a0,s2,a0
	.loc 1 1328 19
	bgt	a0,zero,.L73
	j	.L201
.L86:
	.loc 1 1328 16 is_stmt 1
	.loc 1 1328 40 is_stmt 0
	lw	s2,76(s0)
	.loc 1 1328 61
	lw	a4,16(a5)
	j	.L209
.L74:
.LBE17:
	.loc 1 1335 7 is_stmt 1
	mv	a0,s0
	call	tcp_send_empty_ack
.LVL90:
	j	.L73
.LVL91:
.L94:
.LBB20:
	.loc 1 1435 9
	.loc 1 1435 13 is_stmt 0
	sub	a1,a1,a4
.LVL92:
	slli	a1,a1,16
	.loc 1 1437 20
	sh	a5,8(a0)
	.loc 1 1438 16
	sh	zero,10(a0)
	.loc 1 1435 13
	srli	a1,a1,16
.LVL93:
	.loc 1 1437 9 is_stmt 1
	.loc 1 1438 9
	.loc 1 1439 9
	.loc 1 1439 11 is_stmt 0
	lw	a0,0(a0)
.LVL94:
	j	.L93
.LVL95:
.L92:
.LBE20:
	.loc 1 1445 7 is_stmt 1
	.loc 1 1445 35 is_stmt 0
	sub	a5,a5,a3
	.loc 1 1445 10
	bge	a5,zero,.L95
	.loc 1 1449 9 is_stmt 1
	.loc 1 1450 9
	.loc 1 1450 14
	.loc 1 1450 29 is_stmt 0
	lhu	a5,26(s0)
	ori	a5,a5,2
	.loc 1 1450 27
	sh	a5,26(s0)
	j	.L95
.L105:
.LBB21:
	.loc 1 1498 15 is_stmt 1
.LVL96:
	.loc 1 1499 15
	.loc 1 1499 38 is_stmt 0
	lw	a5,0(a0)
	.loc 1 1499 26
	sw	a5,116(s0)
	.loc 1 1500 15 is_stmt 1
	call	tcp_seg_free
.LVL97:
.L103:
.LBE21:
	.loc 1 1497 23 is_stmt 0
	lw	a0,116(s0)
	.loc 1 1497 19
	bne	a0,zero,.L105
.L102:
	.loc 1 1540 9 is_stmt 1
	.loc 1 1540 30 is_stmt 0
	lhu	a3,0(s4)
	.loc 1 1544 22
	lhu	a5,40(s0)
	.loc 1 1540 30
	lw	a4,0(s3)
	.loc 1 1546 9
	mv	a0,s0
	.loc 1 1544 22
	sub	a5,a5,a3
	.loc 1 1540 30
	add	a4,a4,a3
	.loc 1 1540 22
	sw	a4,36(s0)
	.loc 1 1543 9 is_stmt 1
	.loc 1 1543 14
	.loc 1 1543 47
	.loc 1 1544 9
	.loc 1 1544 22 is_stmt 0
	sh	a5,40(s0)
	.loc 1 1546 9 is_stmt 1
	call	tcp_update_rcv_ann_wnd
.LVL98:
	.loc 1 1557 9
	.loc 1 1557 18 is_stmt 0
	lw	a5,4(s1)
	.loc 1 1557 12
	lhu	a4,8(a5)
	beq	a4,zero,.L115
	.loc 1 1558 11 is_stmt 1
	.loc 1 1558 21 is_stmt 0
	lui	a4,%hi(.LANCHOR12)
	sw	a5,%lo(.LANCHOR12)(a4)
	.loc 1 1562 11 is_stmt 1
	.loc 1 1562 19 is_stmt 0
	sw	zero,4(s1)
.L115:
	.loc 1 1564 9 is_stmt 1
	.loc 1 1564 22 is_stmt 0
	lw	a5,16(s1)
	lbu	a0,12(a5)
	lbu	a5,13(a5)
	slli	a5,a5,8
	or	a0,a5,a0
	call	lwip_htons
.LVL99:
	.loc 1 1564 12
	andi	a0,a0,1
	beq	a0,zero,.L116
	.loc 1 1565 11 is_stmt 1
	.loc 1 1566 11
	.loc 1 1566 22 is_stmt 0
	lui	a5,%hi(.LANCHOR6)
	addi	a5,a5,%lo(.LANCHOR6)
	lbu	a4,0(a5)
	ori	a4,a4,32
	sb	a4,0(a5)
.L116:
.LBB22:
	.loc 1 1591 17
	lui	s2,%hi(.LANCHOR12)
	.loc 1 1600 24
	lui	s4,%hi(.LANCHOR6)
	.loc 1 1601 16
	li	s5,4
	.loc 1 1602 26
	li	s6,7
	j	.L123
.LVL100:
.L112:
.LBE22:
.LBB23:
.LBB16:
	.loc 1 1509 15 is_stmt 1
	.loc 1 1511 15
	.loc 1 1511 29 is_stmt 0
	lbu	a5,13(a3)
	lbu	a0,12(a3)
	slli	a5,a5,8
	or	a0,a5,a0
	call	lwip_htons
.LVL101:
	.loc 1 1511 18
	andi	a0,a0,1
	beq	a0,zero,.L109
	.loc 1 1512 29 discriminator 1
	lw	a5,16(s1)
	lbu	a0,12(a5)
	lbu	a5,13(a5)
	slli	a5,a5,8
	or	a0,a5,a0
	call	lwip_htons
.LVL102:
	.loc 1 1511 101 discriminator 1
	andi	a0,a0,2
	bne	a0,zero,.L109
	.loc 1 1513 17 is_stmt 1
	.loc 1 1513 69 is_stmt 0
	lw	a5,16(s1)
	lbu	s2,13(a5)
	lbu	a0,12(a5)
	slli	s2,s2,8
	or	s2,s2,a0
	.loc 1 1513 92
	li	a0,1
	call	lwip_htons
.LVL103:
	.loc 1 1513 23
	lw	a5,16(s1)
	.loc 1 1513 52
	or	a0,s2,a0
	slli	a0,a0,16
	srli	a0,a0,16
	sb	a0,12(a5)
	srli	a0,a0,8
	sb	a0,13(a5)
	.loc 1 1514 17 is_stmt 1
	.loc 1 1514 55 is_stmt 0
	lw	a5,16(s1)
	.loc 1 1514 35
	lhu	s2,8(s1)
	.loc 1 1514 55
	lbu	a0,12(a5)
	lbu	a5,13(a5)
	slli	a5,a5,8
	or	a0,a5,a0
	call	lwip_htons
.LVL104:
	.loc 1 1514 41
	andi	a0,a0,3
	snez	a0,a0
	add	s2,s2,a0
	.loc 1 1514 24
	sh	s2,0(s4)
.L109:
	.loc 1 1516 15 is_stmt 1
.LVL105:
	.loc 1 1517 15
	.loc 1 1517 20 is_stmt 0
	lw	s2,0(s5)
.LVL106:
	.loc 1 1518 15 is_stmt 1
	mv	a0,s5
	call	tcp_seg_free
.LVL107:
	.loc 1 1517 20 is_stmt 0
	mv	s5,s2
.LVL108:
	j	.L107
.LVL109:
.L125:
.LBE16:
.LBE23:
.LBB24:
	.loc 1 1575 11 is_stmt 1
	.loc 1 1576 11
	.loc 1 1576 17 is_stmt 0
	sw	a5,0(s3)
	.loc 1 1578 11 is_stmt 1
	.loc 1 1578 54 is_stmt 0
	lbu	a5,13(a4)
	lbu	a0,12(a4)
	.loc 1 1578 34
	lhu	s7,8(s1)
	.loc 1 1578 54
	slli	a5,a5,8
	or	a0,a5,a0
	call	lwip_htons
.LVL110:
	.loc 1 1578 24
	lw	a5,36(s0)
	.loc 1 1578 144
	andi	a0,a0,3
	snez	a0,a0
	.loc 1 1578 24
	add	s7,s7,a5
	add	a0,a0,s7
	sw	a0,36(s0)
	.loc 1 1579 11 is_stmt 1
	.loc 1 1579 16
	.loc 1 1579 65 is_stmt 0
	lw	a5,16(s1)
	lbu	a0,12(a5)
	lbu	a5,13(a5)
	slli	a5,a5,8
	or	a0,a5,a0
	call	lwip_htons
.LVL111:
	.loc 1 1579 166 is_stmt 1
	.loc 1 1581 11
	.loc 1 1581 54 is_stmt 0
	lw	a5,16(s1)
	.loc 1 1581 34
	lhu	s7,8(s1)
	.loc 1 1581 54
	lbu	a0,12(a5)
	lbu	a5,13(a5)
	slli	a5,a5,8
	or	a0,a5,a0
	call	lwip_htons
.LVL112:
	.loc 1 1581 24
	lhu	a5,40(s0)
	.loc 1 1581 144
	andi	a0,a0,3
	snez	a0,a0
	.loc 1 1581 40
	add	a0,a0,s7
	.loc 1 1581 24
	sub	a0,a5,a0
	sh	a0,40(s0)
	.loc 1 1583 11 is_stmt 1
	mv	a0,s0
	call	tcp_update_rcv_ann_wnd
.LVL113:
	.loc 1 1585 11
	.loc 1 1585 19 is_stmt 0
	lw	a1,4(s1)
	.loc 1 1585 14
	lhu	a5,8(a1)
	beq	a5,zero,.L117
	.loc 1 1591 13 is_stmt 1
	.loc 1 1591 17 is_stmt 0
	addi	a5,s2,%lo(.LANCHOR12)
	lw	a0,0(a5)
	.loc 1 1591 16
	beq	a0,zero,.L118
	.loc 1 1592 15 is_stmt 1
	call	pbuf_cat
.LVL114:
.L119:
	.loc 1 1596 13
	.loc 1 1596 21 is_stmt 0
	sw	zero,4(s1)
.L117:
	.loc 1 1598 11 is_stmt 1
	.loc 1 1598 24 is_stmt 0
	lw	a5,16(s1)
	lbu	a0,12(a5)
	lbu	a5,13(a5)
	slli	a5,a5,8
	or	a0,a5,a0
	call	lwip_htons
.LVL115:
	.loc 1 1598 14
	andi	a0,a0,1
	beq	a0,zero,.L121
	.loc 1 1599 13 is_stmt 1
	.loc 1 1600 13
	.loc 1 1600 24 is_stmt 0
	addi	a4,s4,%lo(.LANCHOR6)
	lbu	a5,0(a4)
	ori	a5,a5,32
	sb	a5,0(a4)
	.loc 1 1601 13 is_stmt 1
	.loc 1 1601 16 is_stmt 0
	lbu	a5,20(s0)
	bne	a5,s5,.L121
	.loc 1 1602 15 is_stmt 1
	.loc 1 1602 26 is_stmt 0
	sb	s6,20(s0)
.L121:
	.loc 1 1606 11 is_stmt 1
	.loc 1 1606 28 is_stmt 0
	lw	a5,0(s1)
	.loc 1 1607 11
	mv	a0,s1
	.loc 1 1606 22
	sw	a5,116(s0)
	.loc 1 1607 11 is_stmt 1
	call	tcp_seg_free
.LVL116:
.L123:
.LBE24:
	.loc 1 1572 19 is_stmt 0
	lw	s1,116(s0)
	.loc 1 1572 15
	beq	s1,zero,.L124
	.loc 1 1573 26 discriminator 1
	lw	a4,16(s1)
	.loc 1 1573 34 discriminator 1
	lbu	a3,5(a4)
	lbu	a5,4(a4)
	slli	a3,a3,8
	or	a3,a3,a5
	lbu	a5,6(a4)
	slli	a5,a5,16
	or	a3,a5,a3
	lbu	a5,7(a4)
	slli	a5,a5,24
	or	a5,a5,a3
	.loc 1 1572 34 discriminator 1
	lw	a3,36(s0)
	beq	a5,a3,.L125
.L124:
	.loc 1 1625 9 is_stmt 1
	.loc 1 1625 14
	.loc 1 1625 22 is_stmt 0
	lhu	a5,26(s0)
	.loc 1 1625 16
	andi	a4,a5,1
	beq	a4,zero,.L126
	.loc 1 1625 41 is_stmt 1 discriminator 1
	.loc 1 1625 46 discriminator 1
	.loc 1 1625 136 discriminator 1
	.loc 1 1625 141 discriminator 1
	.loc 1 1625 61 is_stmt 0 discriminator 1
	andi	a5,a5,-2
.L205:
	.loc 1 1882 27
	ori	a5,a5,2
	j	.L204
.LVL117:
.L118:
.LBB25:
	.loc 1 1594 15 is_stmt 1
	.loc 1 1594 25 is_stmt 0
	sw	a1,0(a5)
	j	.L119
.LVL118:
.L126:
.LBE25:
	.loc 1 1625 215 is_stmt 1 discriminator 2
	.loc 1 1625 220 discriminator 2
	.loc 1 1625 235 is_stmt 0 discriminator 2
	ori	a5,a5,1
.L204:
	.loc 1 1882 25
	sh	a5,26(s0)
.L59:
	.loc 1 1885 1
	lw	ra,44(sp)
	.cfi_remember_state
	.cfi_restore 1
	lw	s0,40(sp)
	.cfi_restore 8
.LVL119:
	lw	s1,36(sp)
	.cfi_restore 9
	lw	s2,32(sp)
	.cfi_restore 18
	lw	s3,28(sp)
	.cfi_restore 19
	lw	s4,24(sp)
	.cfi_restore 20
	lw	s5,20(sp)
	.cfi_restore 21
	lw	s6,16(sp)
	.cfi_restore 22
	lw	s7,12(sp)
	.cfi_restore 23
	addi	sp,sp,48
	.cfi_def_cfa_offset 0
	jr	ra
.LVL120:
.L97:
	.cfi_restore_state
	.loc 1 1649 9 is_stmt 1
	.loc 1 1649 16 is_stmt 0
	lw	s1,116(s0)
.LBB26:
	.loc 1 1676 34
	li	s2,0
	.loc 1 1720 46
	addi	a6,a5,-1
.LBE26:
	.loc 1 1649 12
	bne	s1,zero,.L128
	.loc 1 1650 11 is_stmt 1
	.loc 1 1650 24 is_stmt 0
	lui	a0,%hi(.LANCHOR11)
	addi	a0,a0,%lo(.LANCHOR11)
	call	tcp_seg_copy
.LVL121:
	.loc 1 1650 22
	sw	a0,116(s0)
.L129:
	.loc 1 1872 9 is_stmt 1
	mv	a0,s0
	.loc 1 1885 1 is_stmt 0
	lw	s0,40(sp)
	.cfi_remember_state
	.cfi_restore 8
.LVL122:
	lw	ra,44(sp)
	.cfi_restore 1
	lw	s1,36(sp)
	.cfi_restore 9
	lw	s2,32(sp)
	.cfi_restore 18
	lw	s3,28(sp)
	.cfi_restore 19
	lw	s4,24(sp)
	.cfi_restore 20
	lw	s5,20(sp)
	.cfi_restore 21
	lw	s6,16(sp)
	.cfi_restore 22
	lw	s7,12(sp)
	.cfi_restore 23
	addi	sp,sp,48
	.cfi_def_cfa_offset 0
	.loc 1 1872 9
	tail	tcp_send_empty_ack
.LVL123:
.L143:
	.cfi_restore_state
.LBB32:
	mv	s1,a3
.LVL124:
.L128:
	.loc 1 1678 13 is_stmt 1
	.loc 1 1678 30 is_stmt 0
	lw	a2,16(s1)
	.loc 1 1678 38
	lbu	a3,5(a2)
	lbu	a4,4(a2)
	slli	a3,a3,8
	or	a3,a3,a4
	lbu	a4,6(a2)
	slli	a4,a4,16
	or	a3,a4,a3
	lbu	a4,7(a2)
	slli	a4,a4,24
	or	a4,a4,a3
	.loc 1 1678 16
	bne	a5,a4,.L130
	.loc 1 1683 15 is_stmt 1
	.loc 1 1683 24 is_stmt 0
	lui	a0,%hi(.LANCHOR11)
	addi	a5,a0,%lo(.LANCHOR11)
	.loc 1 1683 18
	lhu	a4,8(a5)
	lhu	a5,8(s1)
	bleu	a4,a5,.L129
.LBB27:
	.loc 1 1687 17 is_stmt 1
	.loc 1 1687 40 is_stmt 0
	addi	a0,a0,%lo(.LANCHOR11)
	call	tcp_seg_copy
.LVL125:
	.loc 1 1688 17 is_stmt 1
	.loc 1 1688 20 is_stmt 0
	beq	a0,zero,.L129
	.loc 1 1689 19 is_stmt 1
	.loc 1 1689 22 is_stmt 0
	beq	s2,zero,.L131
	.loc 1 1690 21 is_stmt 1
	.loc 1 1690 32 is_stmt 0
	sw	a0,0(s2)
.LVL126:
.L202:
.LBE27:
.LBB28:
	.loc 1 1713 21 is_stmt 1
	mv	a1,s1
.L203:
	call	tcp_oos_insert_segment
.LVL127:
	j	.L129
.LVL128:
.L131:
.LBE28:
.LBB29:
	.loc 1 1692 21
	.loc 1 1692 32 is_stmt 0
	sw	a0,116(s0)
	.loc 1 1694 19 is_stmt 1
	j	.L202
.LVL129:
.L130:
.LBE29:
	.loc 1 1704 15
	.loc 1 1704 18 is_stmt 0
	bne	s2,zero,.L133
	.loc 1 1705 17 is_stmt 1
	.loc 1 1705 45 is_stmt 0
	sub	a3,a5,a4
	.loc 1 1705 20
	bge	a3,zero,.L134
.LBB30:
	.loc 1 1710 19 is_stmt 1
	.loc 1 1710 42 is_stmt 0
	lui	a0,%hi(.LANCHOR11)
	addi	a0,a0,%lo(.LANCHOR11)
	call	tcp_seg_copy
.LVL130:
	.loc 1 1711 19 is_stmt 1
	.loc 1 1711 22 is_stmt 0
	beq	a0,zero,.L129
	.loc 1 1712 21 is_stmt 1
	.loc 1 1712 32 is_stmt 0
	sw	a0,116(s0)
	j	.L202
.LVL131:
.L133:
.LBE30:
	.loc 1 1720 17 is_stmt 1
	.loc 1 1720 68 is_stmt 0
	lw	a7,16(s2)
	lbu	a1,5(a7)
	lbu	a3,4(a7)
	slli	a1,a1,8
	or	a1,a1,a3
	lbu	a3,6(a7)
	slli	a3,a3,16
	or	a1,a3,a1
	lbu	a3,7(a7)
	slli	a3,a3,24
	or	a3,a3,a1
	.loc 1 1720 46
	sub	a3,a6,a3
	.loc 1 1720 20
	blt	a3,zero,.L134
	.loc 1 1720 115 discriminator 1
	sub	a3,a0,a4
	.loc 1 1720 88 discriminator 1
	bgt	a3,zero,.L134
.LBB31:
	.loc 1 1726 19 is_stmt 1
	.loc 1 1726 42 is_stmt 0
	lui	a0,%hi(.LANCHOR11)
	addi	a0,a0,%lo(.LANCHOR11)
	call	tcp_seg_copy
.LVL132:
	mv	s4,a0
.LVL133:
	.loc 1 1727 19 is_stmt 1
	.loc 1 1727 22 is_stmt 0
	beq	a0,zero,.L129
	.loc 1 1728 21 is_stmt 1
	.loc 1 1728 54 is_stmt 0
	lw	a4,16(s2)
	lbu	a5,5(a4)
	lbu	a1,4(a4)
	slli	a5,a5,8
	or	a1,a5,a1
	lbu	a5,6(a4)
	slli	a5,a5,16
	or	a5,a5,a1
	lbu	a1,7(a4)
	.loc 1 1728 68
	lhu	a4,8(s2)
	.loc 1 1728 54
	slli	a1,a1,24
	or	a5,a1,a5
	.loc 1 1728 77
	lw	a1,0(s3)
	.loc 1 1728 34
	add	a4,a4,a5
	.loc 1 1728 75
	sub	a4,a4,a1
	.loc 1 1728 24
	ble	a4,zero,.L135
	.loc 1 1730 23 is_stmt 1
	.loc 1 1730 35 is_stmt 0
	sub	a1,a1,a5
	slli	a1,a1,16
	.loc 1 1731 23
	lw	a0,4(s2)
.LVL134:
	.loc 1 1730 35
	srli	a1,a1,16
	.loc 1 1730 33
	sh	a1,8(s2)
	.loc 1 1731 23 is_stmt 1
	call	pbuf_realloc
.LVL135:
.L135:
	.loc 1 1733 21
	.loc 1 1733 32 is_stmt 0
	sw	s4,0(s2)
	.loc 1 1734 21 is_stmt 1
	mv	a1,s1
	mv	a0,s4
	j	.L203
.LVL136:
.L134:
.LBE31:
	.loc 1 1751 15
	.loc 1 1756 15
	.loc 1 1756 23 is_stmt 0
	lw	a3,0(s1)
	mv	s2,s1
	.loc 1 1756 18
	bne	a3,zero,.L143
	.loc 1 1757 43 discriminator 1
	sub	a5,a5,a4
	.loc 1 1756 37 discriminator 1
	ble	a5,zero,.L129
	.loc 1 1758 17 is_stmt 1
	.loc 1 1758 30 is_stmt 0
	lbu	a5,13(a2)
	lbu	a0,12(a2)
	slli	a5,a5,8
	or	a0,a5,a0
	call	lwip_htons
.LVL137:
	.loc 1 1758 20
	andi	a0,a0,1
	bne	a0,zero,.L129
	.loc 1 1762 17 is_stmt 1
	.loc 1 1762 30 is_stmt 0
	lui	a0,%hi(.LANCHOR11)
	addi	a0,a0,%lo(.LANCHOR11)
	call	tcp_seg_copy
.LVL138:
	.loc 1 1762 28
	sw	a0,0(s1)
	.loc 1 1763 17 is_stmt 1
	.loc 1 1763 20 is_stmt 0
	beq	a0,zero,.L129
	.loc 1 1764 19 is_stmt 1
	.loc 1 1764 52 is_stmt 0
	lw	a4,16(s1)
	lbu	a5,5(a4)
	lbu	a1,4(a4)
	slli	a5,a5,8
	or	a1,a5,a1
	lbu	a5,6(a4)
	slli	a5,a5,16
	or	a5,a5,a1
	lbu	a1,7(a4)
	.loc 1 1764 66
	lhu	a4,8(s1)
	.loc 1 1764 52
	slli	a1,a1,24
	or	a5,a1,a5
	.loc 1 1764 75
	lw	a1,0(s3)
	.loc 1 1764 32
	add	a4,a4,a5
	.loc 1 1764 73
	sub	a4,a4,a1
	.loc 1 1764 22
	ble	a4,zero,.L136
	.loc 1 1766 21 is_stmt 1
	.loc 1 1766 33 is_stmt 0
	sub	a1,a1,a5
	slli	a1,a1,16
	.loc 1 1767 21
	lw	a0,4(s1)
	.loc 1 1766 33
	srli	a1,a1,16
	.loc 1 1766 31
	sh	a1,8(s1)
	.loc 1 1767 21 is_stmt 1
	call	pbuf_realloc
.LVL139:
.L136:
	.loc 1 1770 19
	.loc 1 1770 32 is_stmt 0
	lw	a4,0(s3)
	.loc 1 1770 40
	lhu	a5,0(s4)
	.loc 1 1770 32
	add	a5,a5,a4
	.loc 1 1770 63
	lw	a4,36(s0)
	sub	a5,a5,a4
	.loc 1 1770 88
	lhu	a4,40(s0)
	.loc 1 1770 63
	sub	a5,a5,a4
	.loc 1 1770 22
	ble	a5,zero,.L129
	.loc 1 1774 78 is_stmt 1
	.loc 1 1775 21
	.loc 1 1775 56 is_stmt 0
	lw	a5,0(s1)
	.loc 1 1775 34
	lw	a5,16(a5)
	lbu	a0,12(a5)
	lbu	a5,13(a5)
	slli	a5,a5,8
	or	a0,a5,a0
	call	lwip_htons
.LVL140:
	.loc 1 1775 24
	andi	a0,a0,1
	beq	a0,zero,.L137
	.loc 1 1778 23 is_stmt 1
	.loc 1 1778 79 is_stmt 0
	lw	a5,0(s1)
	.loc 1 1778 88
	lw	a5,16(a5)
	lbu	s2,13(a5)
	lbu	a0,12(a5)
	slli	s2,s2,8
	or	s2,s2,a0
	.loc 1 1778 217
	mv	a0,s2
	call	lwip_htons
.LVL141:
	.loc 1 1778 197
	andi	a0,a0,62
	call	lwip_htons
.LVL142:
	.loc 1 1778 34
	lw	a5,0(s1)
	lw	a4,16(a5)
	.loc 1 1778 109
	li	a5,-16384
	addi	a5,a5,255
	and	s2,s2,a5
	.loc 1 1778 195
	or	a0,s2,a0
	.loc 1 1778 64
	slli	a0,a0,16
	srli	a0,a0,16
	sb	a0,12(a4)
	srli	a0,a0,8
	sb	a0,13(a4)
.L137:
	.loc 1 1781 21 is_stmt 1
	.loc 1 1781 39 is_stmt 0
	lw	a3,0(s3)
	lhu	a5,40(s0)
	.loc 1 1781 25
	lw	a4,0(s1)
	.loc 1 1781 39
	sub	a5,a5,a3
	.loc 1 1781 60
	lw	a3,36(s0)
	.loc 1 1781 39
	add	a5,a5,a3
	.loc 1 1781 37
	sh	a5,8(a4)
	.loc 1 1782 21 is_stmt 1
	.loc 1 1782 38 is_stmt 0
	lw	a5,0(s1)
	.loc 1 1782 21
	lhu	a1,8(a5)
	lw	a0,4(a5)
	call	pbuf_realloc
.LVL143:
	.loc 1 1783 21 is_stmt 1
	.loc 1 1783 36 is_stmt 0
	lw	a5,0(s1)
	.loc 1 1783 43
	lhu	s1,8(a5)
.LVL144:
	.loc 1 1783 63
	lw	a5,16(a5)
	lbu	a0,12(a5)
	lbu	a5,13(a5)
	slli	a5,a5,8
	or	a0,a5,a0
	call	lwip_htons
.LVL145:
	.loc 1 1783 49
	andi	a0,a0,3
	snez	a0,a0
	add	s1,s1,a0
	.loc 1 1783 28
	sh	s1,0(s4)
	.loc 1 1784 21 is_stmt 1
	.loc 1 1784 26
	j	.L129
.L91:
.LBE32:
	.loc 1 1881 5
	.loc 1 1881 35 is_stmt 0
	sub	a4,a5,a3
	.loc 1 1881 8
	blt	a4,zero,.L138
	.loc 1 1881 121 discriminator 1
	lhu	a4,40(s0)
	.loc 1 1881 93 discriminator 1
	addi	a5,a5,1
	sub	a5,a5,a3
	sub	a5,a5,a4
	.loc 1 1881 9 discriminator 1
	ble	a5,zero,.L59
.L138:
	.loc 1 1882 7 is_stmt 1
	.loc 1 1882 12
	.loc 1 1882 27 is_stmt 0
	lhu	a5,26(s0)
	j	.L205
	.cfi_endproc
.LFE11:
	.size	tcp_receive, .-tcp_receive
	.section	.text.tcp_input,"ax",@progbits
	.align	1
	.globl	tcp_input
	.type	tcp_input, @function
tcp_input:
.LFB4:
	.loc 1 119 1 is_stmt 1
	.cfi_startproc
.LVL146:
	.loc 1 120 3
	.loc 1 121 3
	.loc 1 123 3
	.loc 1 124 3
	.loc 1 126 3
	.loc 1 127 3
	.loc 1 129 3
	.loc 1 130 3
	.loc 1 131 3
	.loc 1 131 8
	.loc 1 131 7
	.loc 1 133 3
	.loc 1 135 3
	.loc 1 119 1 is_stmt 0
	addi	sp,sp,-80
	.cfi_def_cfa_offset 80
	.loc 1 135 3
	lui	a7,%hi(lwip_stats)
	.loc 1 119 1
	sw	s0,72(sp)
	sw	s1,68(sp)
	sw	s2,64(sp)
	sw	s10,32(sp)
	sw	ra,76(sp)
	sw	s3,60(sp)
	sw	s4,56(sp)
	sw	s5,52(sp)
	sw	s6,48(sp)
	sw	s7,44(sp)
	sw	s8,40(sp)
	sw	s9,36(sp)
	sw	s11,28(sp)
	.cfi_offset 8, -8
	.cfi_offset 9, -12
	.cfi_offset 18, -16
	.cfi_offset 26, -48
	.cfi_offset 1, -4
	.cfi_offset 19, -20
	.cfi_offset 20, -24
	.cfi_offset 21, -28
	.cfi_offset 22, -32
	.cfi_offset 23, -36
	.cfi_offset 24, -40
	.cfi_offset 25, -44
	.cfi_offset 27, -52
	.loc 1 135 3
	addi	a4,a7,%lo(lwip_stats)
	lhu	a5,150(a4)
	.loc 1 138 10
	lui	s2,%hi(.LANCHOR3)
	.loc 1 145 6
	li	s0,19
	.loc 1 135 3
	addi	a5,a5,1
	sh	a5,150(a4)
	.loc 1 136 3 is_stmt 1
	.loc 1 138 3
	.loc 1 138 10 is_stmt 0
	lw	a5,4(a0)
	.loc 1 119 1
	mv	s1,a0
	addi	s10,a7,%lo(lwip_stats)
	.loc 1 138 10
	sw	a5,%lo(.LANCHOR3)(s2)
	.loc 1 145 3 is_stmt 1
	.loc 1 145 6 is_stmt 0
	lhu	a5,10(a0)
	bgtu	a5,s0,.L211
.LVL147:
.L431:
	.loc 1 240 7 is_stmt 1
	.loc 1 241 7
	lhu	a5,158(s10)
	addi	a5,a5,1
	sh	a5,158(s10)
	.loc 1 242 7
	j	.L212
.LVL148:
.L211:
	.loc 1 153 3
	.loc 1 153 79 is_stmt 0
	lui	s4,%hi(ip_data)
	addi	s3,s4,%lo(ip_data)
	.loc 1 153 7
	lw	a1,0(s3)
.LVL149:
	lw	a0,20(s3)
	addi	s4,s4,%lo(ip_data)
	call	ip4_addr_isbroadcast_u32
.LVL150:
	.loc 1 153 6
	bne	a0,zero,.L213
	.loc 1 154 47 discriminator 1
	lw	a5,20(s3)
	.loc 1 153 96 discriminator 1
	li	a4,224
	.loc 1 154 47 discriminator 1
	andi	a5,a5,240
	.loc 1 153 96 discriminator 1
	bne	a5,a4,.L214
.L213:
	.loc 1 155 5 is_stmt 1
	lhu	a5,164(s10)
	addi	a5,a5,1
	sh	a5,164(s10)
	.loc 1 156 5
.L212:
	.loc 1 589 3
	lhu	a5,154(s10)
	addi	a5,a5,1
	sh	a5,154(s10)
	j	.L432
.L214:
.LBB50:
	.loc 1 162 5
	.loc 1 162 20 is_stmt 0
	lhu	a2,8(s1)
	lui	s5,%hi(ip_data+20)
	lui	s6,%hi(ip_data+16)
	addi	a4,s5,%lo(ip_data+20)
	addi	a3,s6,%lo(ip_data+16)
	li	a1,6
	mv	a0,s1
	call	ip_chksum_pseudo
.LVL151:
	.loc 1 164 5 is_stmt 1
	sw	s5,4(sp)
	.loc 1 164 8 is_stmt 0
	beq	a0,zero,.L215
	.loc 1 166 45 is_stmt 1
	.loc 1 167 7
	.loc 1 168 7
	lhu	a5,156(s10)
	addi	a5,a5,1
	sh	a5,156(s10)
	.loc 1 169 7
	j	.L212
.L215:
	addi	s2,s2,%lo(.LANCHOR3)
.LBE50:
	.loc 1 175 3
	.loc 1 175 35 is_stmt 0
	lw	a5,0(s2)
	lbu	a0,12(a5)
.LVL152:
	lbu	a5,13(a5)
	slli	a5,a5,8
	or	a0,a5,a0
	call	lwip_htons
.LVL153:
	.loc 1 175 16
	srli	a1,a0,10
	andi	a1,a1,252
.LVL154:
	.loc 1 176 3 is_stmt 1
	.loc 1 176 6 is_stmt 0
	bleu	a1,s0,.L431
	.loc 1 176 27 discriminator 1
	lhu	a5,8(s1)
	.loc 1 176 44 discriminator 1
	slli	a4,a1,16
	srli	a4,a4,16
	.loc 1 176 27 discriminator 1
	bltu	a5,a4,.L431
	.loc 1 184 3 is_stmt 1
	.loc 1 184 19 is_stmt 0
	addi	a5,a4,-20
	.loc 1 184 17
	lui	a2,%hi(.LANCHOR5)
	.loc 1 184 19
	slli	a5,a5,16
	.loc 1 185 15
	lui	s8,%hi(.LANCHOR1)
	.loc 1 186 6
	lhu	a3,10(s1)
	.loc 1 184 17
	addi	s7,a2,%lo(.LANCHOR5)
	.loc 1 184 19
	srli	a5,a5,16
	.loc 1 185 15
	addi	s8,s8,%lo(.LANCHOR1)
	addi	a2,a2,%lo(.LANCHOR5)
	lui	s3,%hi(.LANCHOR2)
	.loc 1 184 17
	sh	a5,0(s7)
	.loc 1 185 3 is_stmt 1
	.loc 1 185 15 is_stmt 0
	sw	zero,0(s8)
	.loc 1 186 3 is_stmt 1
	sw	a2,8(sp)
	addi	s3,s3,%lo(.LANCHOR2)
	.loc 1 186 6 is_stmt 0
	bltu	a3,a4,.L218
	.loc 1 188 5 is_stmt 1
	.loc 1 189 5 is_stmt 0
	mv	a0,s1
	.loc 1 188 20
	sh	a5,0(s3)
	.loc 1 189 5 is_stmt 1
	call	pbuf_remove_header
.LVL155:
.L219:
.LBB51:
	.loc 1 224 51 discriminator 1
.LBE51:
	.loc 1 228 3 discriminator 1
	.loc 1 228 34 is_stmt 0 discriminator 1
	lw	s0,0(s2)
	.loc 1 230 9 discriminator 1
	lui	s11,%hi(.LANCHOR4)
	.loc 1 231 9 discriminator 1
	lui	s5,%hi(.LANCHOR8)
	.loc 1 228 17 discriminator 1
	lbu	a5,1(s0)
	lbu	a0,0(s0)
	.loc 1 234 9 discriminator 1
	lui	s7,%hi(.LANCHOR9)
	.loc 1 228 17 discriminator 1
	slli	a5,a5,8
	or	a0,a5,a0
	call	lwip_htons
.LVL156:
	.loc 1 228 15 discriminator 1
	sb	a0,0(s0)
	srli	a0,a0,8
	sb	a0,1(s0)
	.loc 1 229 3 is_stmt 1 discriminator 1
	.loc 1 229 35 is_stmt 0 discriminator 1
	lw	s0,0(s2)
	.loc 1 229 18 discriminator 1
	lbu	a5,3(s0)
	lbu	a0,2(s0)
	slli	a5,a5,8
	or	a0,a5,a0
	call	lwip_htons
.LVL157:
	.loc 1 229 16 discriminator 1
	sb	a0,2(s0)
	srli	a0,a0,8
	sb	a0,3(s0)
	.loc 1 230 3 is_stmt 1 discriminator 1
	.loc 1 230 44 is_stmt 0 discriminator 1
	lw	s0,0(s2)
	.loc 1 230 27 discriminator 1
	lbu	a0,5(s0)
	lbu	a5,4(s0)
	slli	a0,a0,8
	or	a0,a0,a5
	lbu	a5,6(s0)
	slli	a5,a5,16
	or	a5,a5,a0
	lbu	a0,7(s0)
	slli	a0,a0,24
	or	a0,a0,a5
	call	lwip_htonl
.LVL158:
	.loc 1 230 25 discriminator 1
	srli	a5,a0,8
	sb	a5,5(s0)
	srli	a5,a0,16
	sb	a5,6(s0)
	srli	a5,a0,24
	sb	a0,4(s0)
	sb	a5,7(s0)
	.loc 1 231 44 discriminator 1
	lw	s0,0(s2)
	.loc 1 230 9 discriminator 1
	sw	a0,%lo(.LANCHOR4)(s11)
	.loc 1 231 3 is_stmt 1 discriminator 1
	addi	s11,s11,%lo(.LANCHOR4)
	.loc 1 231 27 is_stmt 0 discriminator 1
	lbu	a0,9(s0)
	lbu	a5,8(s0)
	slli	a0,a0,8
	or	a0,a0,a5
	lbu	a5,10(s0)
	slli	a5,a5,16
	or	a5,a5,a0
	lbu	a0,11(s0)
	slli	a0,a0,24
	or	a0,a0,a5
	call	lwip_htonl
.LVL159:
	.loc 1 231 25 discriminator 1
	srli	a5,a0,8
	sb	a5,9(s0)
	srli	a5,a0,16
	sb	a5,10(s0)
	srli	a5,a0,24
	sb	a0,8(s0)
	sb	a5,11(s0)
	.loc 1 232 34 discriminator 1
	lw	s0,0(s2)
	.loc 1 231 9 discriminator 1
	sw	a0,%lo(.LANCHOR8)(s5)
	.loc 1 232 3 is_stmt 1 discriminator 1
	addi	s5,s5,%lo(.LANCHOR8)
	.loc 1 232 17 is_stmt 0 discriminator 1
	lbu	a5,15(s0)
	lbu	a0,14(s0)
	slli	a5,a5,8
	or	a0,a5,a0
	call	lwip_htons
.LVL160:
	.loc 1 234 20 discriminator 1
	lw	a5,0(s2)
	.loc 1 232 15 discriminator 1
	sb	a0,14(s0)
	srli	a0,a0,8
	sb	a0,15(s0)
	.loc 1 234 3 is_stmt 1 discriminator 1
	.loc 1 234 20 is_stmt 0 discriminator 1
	lbu	a0,12(a5)
	lbu	a5,13(a5)
	slli	a5,a5,8
	or	a0,a5,a0
	call	lwip_htons
.LVL161:
	.loc 1 234 12 discriminator 1
	andi	a4,a0,0xff
	andi	a5,a4,63
	.loc 1 234 9 discriminator 1
	sb	a5,%lo(.LANCHOR9)(s7)
	.loc 1 235 3 is_stmt 1 discriminator 1
	lui	a2,%hi(.LANCHOR10)
	.loc 1 236 6 is_stmt 0 discriminator 1
	andi	a5,a4,3
	.loc 1 235 13 discriminator 1
	lhu	a3,8(s1)
	.loc 1 236 3 is_stmt 1 discriminator 1
	addi	s7,s7,%lo(.LANCHOR9)
	addi	a2,a2,%lo(.LANCHOR10)
	.loc 1 236 6 is_stmt 0 discriminator 1
	beq	a5,zero,.L221
	.loc 1 237 5 is_stmt 1
	.loc 1 237 11 is_stmt 0
	addi	a5,a3,1
	slli	a5,a5,16
	srli	a5,a5,16
	sh	a5,0(a2)
	.loc 1 238 5 is_stmt 1
	.loc 1 238 8 is_stmt 0
	bgtu	a3,a5,.L431
.L222:
	.loc 1 248 3 is_stmt 1
.LVL162:
	.loc 1 250 3
	.loc 1 250 12 is_stmt 0
	lui	s3,%hi(tcp_active_pcbs)
	lw	a6,%lo(tcp_active_pcbs)(s3)
.LVL163:
	.loc 1 257 44
	lw	t4,4(s4)
	.loc 1 262 35
	lw	a3,0(s2)
	.loc 1 264 67
	lw	t6,16(s4)
	.loc 1 265 67
	lw	t5,20(s4)
	.loc 1 250 12
	mv	s0,a6
	.loc 1 248 8
	li	a0,0
.LVL164:
.L223:
	.loc 1 250 3 discriminator 1
	bne	s0,zero,.L228
	.loc 1 283 3 is_stmt 1
	.loc 1 286 5
	.loc 1 286 14 is_stmt 0
	lui	a5,%hi(tcp_tw_pcbs)
	lw	a0,%lo(tcp_tw_pcbs)(a5)
.LVL165:
	.loc 1 286 5
	j	.L321
.LVL166:
.L218:
.LBB52:
	.loc 1 191 5 is_stmt 1
	.loc 1 194 5
	.loc 1 194 10
	.loc 1 194 9
	.loc 1 197 5
	li	a1,20
.LVL167:
	mv	a0,s1
.LVL168:
	call	pbuf_remove_header
.LVL169:
	.loc 1 200 5
	.loc 1 200 23 is_stmt 0
	lhu	s0,10(s1)
	.loc 1 205 5
	mv	a0,s1
	.loc 1 201 15
	lhu	s7,0(s7)
	.loc 1 205 5
	mv	a1,s0
	.loc 1 200 20
	sh	s0,0(s3)
	.loc 1 201 5 is_stmt 1
	.loc 1 205 5 is_stmt 0
	call	pbuf_remove_header
.LVL170:
	.loc 1 208 20
	lw	a0,0(s1)
	.loc 1 201 13
	sub	s3,s7,s0
	slli	s3,s3,16
	.loc 1 208 8
	lhu	a5,10(a0)
	.loc 1 201 13
	srli	s3,s3,16
.LVL171:
	.loc 1 205 5 is_stmt 1
	.loc 1 208 5
	.loc 1 208 8 is_stmt 0
	bltu	a5,s3,.L431
	.loc 1 216 5 is_stmt 1
	.loc 1 216 17 is_stmt 0
	lw	a5,4(a0)
	.loc 1 220 5
	mv	a1,s3
	.loc 1 216 17
	sw	a5,0(s8)
	.loc 1 220 5 is_stmt 1
	call	pbuf_remove_header
.LVL172:
	.loc 1 221 5
	.loc 1 221 18 is_stmt 0
	lhu	a5,8(s1)
	add	s0,s0,a5
	sub	s0,s0,s7
	.loc 1 221 16
	sh	s0,8(s1)
	.loc 1 223 5 is_stmt 1
	.loc 1 223 10
	.loc 1 223 32
	.loc 1 224 5
	.loc 1 224 10
	j	.L219
.LVL173:
.L221:
.LBE52:
	.loc 1 235 10 is_stmt 0
	sh	a3,0(a2)
	j	.L222
.LVL174:
.L228:
	.loc 1 251 5 is_stmt 1
	.loc 1 251 10
	.loc 1 251 41
	.loc 1 252 5
	.loc 1 252 10
	.loc 1 252 44
	.loc 1 253 5
	.loc 1 253 10
	.loc 1 253 41
	.loc 1 256 5
	.loc 1 256 13 is_stmt 0
	lbu	t3,8(s0)
	.loc 1 256 8
	beq	t3,zero,.L224
	.loc 1 257 29 discriminator 1
	lbu	a5,68(t4)
	addi	a5,a5,1
	.loc 1 256 33 discriminator 1
	andi	a5,a5,0xff
	bne	t3,a5,.L225
.L224:
	.loc 1 262 5 is_stmt 1
	.loc 1 262 35 is_stmt 0
	lbu	a5,1(a3)
	lbu	t0,0(a3)
	.loc 1 262 8
	lhu	t3,24(s0)
	.loc 1 262 35
	slli	a5,a5,8
	.loc 1 262 8
	or	a5,a5,t0
	bne	t3,a5,.L225
	.loc 1 263 34 discriminator 1
	lbu	a5,3(a3)
	lbu	t0,2(a3)
	.loc 1 262 41 discriminator 1
	lhu	t3,22(s0)
	.loc 1 263 34 discriminator 1
	slli	a5,a5,8
	.loc 1 262 41 discriminator 1
	or	a5,a5,t0
	bne	t3,a5,.L225
	.loc 1 263 41
	lw	a5,4(s0)
	bne	a5,t6,.L225
	.loc 1 264 75
	lw	a5,0(s0)
	bne	a5,t5,.L225
	.loc 1 269 7 is_stmt 1
	.loc 1 269 12
	.loc 1 269 39
	.loc 1 270 7
	.loc 1 270 10 is_stmt 0
	beq	a0,zero,.L226
	.loc 1 269 21
	lw	a5,12(s0)
	.loc 1 271 9 is_stmt 1
	.loc 1 273 25 is_stmt 0
	sw	s0,%lo(tcp_active_pcbs)(s3)
	.loc 1 271 20
	sw	a5,12(a0)
	.loc 1 272 9 is_stmt 1
	.loc 1 272 19 is_stmt 0
	sw	a6,12(s0)
	.loc 1 273 9 is_stmt 1
.L227:
	.loc 1 283 3
	.loc 1 401 3
	.loc 1 408 5
	.loc 1 409 18 is_stmt 0
	lhu	a0,8(s1)
.LVL175:
	.loc 1 408 16
	lui	a1,%hi(.LANCHOR11)
	addi	a5,a1,%lo(.LANCHOR11)
	.loc 1 413 15
	lui	s9,%hi(.LANCHOR12)
	.loc 1 414 16
	lui	s4,%hi(.LANCHOR6)
	.loc 1 415 16
	lui	s8,%hi(.LANCHOR7)
	.loc 1 413 15
	sw	zero,%lo(.LANCHOR12)(s9)
	.loc 1 414 16
	sb	zero,%lo(.LANCHOR6)(s4)
	.loc 1 415 16
	sh	zero,%lo(.LANCHOR7)(s8)
	.loc 1 408 16
	sw	zero,0(a5)
	.loc 1 409 5 is_stmt 1
	.loc 1 409 15 is_stmt 0
	sh	a0,8(a5)
	.loc 1 410 5 is_stmt 1
	.loc 1 410 13 is_stmt 0
	sw	s1,4(a5)
	.loc 1 411 5 is_stmt 1
	.loc 1 411 18 is_stmt 0
	sw	a3,16(a5)
	.loc 1 413 5 is_stmt 1
	.loc 1 414 5
	.loc 1 415 5
	.loc 1 417 5
	.loc 1 417 8 is_stmt 0
	andi	a4,a4,8
	sw	a5,12(sp)
	addi	s4,s4,%lo(.LANCHOR6)
	addi	s8,s8,%lo(.LANCHOR7)
	addi	s9,s9,%lo(.LANCHOR12)
	beq	a4,zero,.L320
	.loc 1 418 7 is_stmt 1
	.loc 1 418 16 is_stmt 0
	lbu	a5,13(s1)
	ori	a5,a5,1
	sb	a5,13(s1)
.L320:
	.loc 1 422 5 is_stmt 1
	.loc 1 422 8 is_stmt 0
	lw	a5,120(s0)
	lui	s1,%hi(tcp_input_pcb)
.LVL176:
	beq	a5,zero,.L250
	.loc 1 423 7 is_stmt 1
	.loc 1 423 12 is_stmt 0
	mv	a0,s0
	call	tcp_process_refused_data
.LVL177:
	.loc 1 423 10
	li	a5,-13
	beq	a0,a5,.L251
	.loc 1 423 55 discriminator 1
	lw	a5,120(s0)
	lui	a4,%hi(.LANCHOR10)
	addi	a2,a4,%lo(.LANCHOR10)
	beq	a5,zero,.L250
	.loc 1 424 39
	lhu	a5,0(a2)
	beq	a5,zero,.L250
.L251:
	.loc 1 427 9 is_stmt 1
	.loc 1 427 12 is_stmt 0
	lhu	a5,42(s0)
	bne	a5,zero,.L252
	.loc 1 430 11 is_stmt 1
	mv	a0,s0
	call	tcp_send_empty_ack
.LVL178:
.L252:
	.loc 1 432 9
	lhu	a5,154(s10)
	addi	a5,a5,1
	sh	a5,154(s10)
	.loc 1 433 9
	.loc 1 434 9
.L253:
	.loc 1 564 5
	.loc 1 568 14 is_stmt 0
	lw	a5,12(sp)
	.loc 1 564 19
	sw	zero,%lo(tcp_input_pcb)(s1)
	.loc 1 565 5 is_stmt 1
	.loc 1 565 15 is_stmt 0
	sw	zero,0(s9)
	.loc 1 568 5 is_stmt 1
	.loc 1 568 14 is_stmt 0
	lw	a0,4(a5)
	.loc 1 568 8
	beq	a0,zero,.L210
	.loc 1 569 7 is_stmt 1
	call	pbuf_free
.LVL179:
	.loc 1 570 7
	.loc 1 570 15 is_stmt 0
	lw	a5,12(sp)
	sw	zero,4(a5)
.L210:
	.loc 1 592 1
	lw	ra,76(sp)
	.cfi_remember_state
	.cfi_restore 1
	lw	s0,72(sp)
	.cfi_restore 8
.LVL180:
	lw	s1,68(sp)
	.cfi_restore 9
	lw	s2,64(sp)
	.cfi_restore 18
	lw	s3,60(sp)
	.cfi_restore 19
	lw	s4,56(sp)
	.cfi_restore 20
	lw	s5,52(sp)
	.cfi_restore 21
	lw	s6,48(sp)
	.cfi_restore 22
	lw	s7,44(sp)
	.cfi_restore 23
	lw	s8,40(sp)
	.cfi_restore 24
	lw	s9,36(sp)
	.cfi_restore 25
	lw	s10,32(sp)
	.cfi_restore 26
	lw	s11,28(sp)
	.cfi_restore 27
	addi	sp,sp,80
	.cfi_def_cfa_offset 0
	jr	ra
.LVL181:
.L226:
	.cfi_restore_state
	.loc 1 275 9 is_stmt 1
	lhu	a5,170(s10)
	addi	a5,a5,1
	sh	a5,170(s10)
	j	.L227
.L225:
.LVL182:
	.loc 1 250 47 is_stmt 0 discriminator 2
	mv	a0,s0
	lw	s0,12(s0)
.LVL183:
	j	.L223
.LVL184:
.L237:
	.loc 1 287 7 is_stmt 1
	.loc 1 287 12
	.loc 1 287 46
	.loc 1 290 7
	.loc 1 290 15 is_stmt 0
	lbu	a6,8(a0)
	.loc 1 290 10
	beq	a6,zero,.L230
	.loc 1 291 31 discriminator 1
	lbu	a5,68(t4)
	addi	a5,a5,1
	.loc 1 290 35 discriminator 1
	andi	a5,a5,0xff
	bne	a6,a5,.L231
.L230:
	.loc 1 295 7 is_stmt 1
	.loc 1 295 37 is_stmt 0
	lbu	a5,1(a3)
	lbu	a6,0(a3)
	slli	a5,a5,8
	or	a5,a5,a6
	.loc 1 295 10
	lhu	a6,24(a0)
	bne	a6,a5,.L231
	.loc 1 296 36 discriminator 1
	lbu	t3,3(a3)
	lbu	a5,2(a3)
	slli	t3,t3,8
	or	t3,t3,a5
	.loc 1 295 43 discriminator 1
	lhu	a5,22(a0)
	bne	a5,t3,.L231
	.loc 1 296 43
	lw	t3,4(a0)
	bne	t6,t3,.L231
	.loc 1 297 77
	lw	t3,0(a0)
	bne	t5,t3,.L231
	.loc 1 302 9 is_stmt 1
	.loc 1 308 11
.LVL185:
.LBB53:
.LBB54:
	.loc 1 746 3
	.loc 1 746 6 is_stmt 0
	andi	a3,a4,4
	bne	a3,zero,.L432
	.loc 1 750 3 is_stmt 1
	.loc 1 750 8
	.loc 1 750 7
	.loc 1 753 3
	.loc 1 753 6 is_stmt 0
	andi	a3,a4,2
	lhu	a2,0(a2)
	beq	a3,zero,.L234
	.loc 1 756 5 is_stmt 1
	.loc 1 756 19 is_stmt 0
	lw	a7,0(s11)
	.loc 1 756 34
	lw	a4,36(a0)
	sub	a4,a7,a4
	.loc 1 756 8
	blt	a4,zero,.L235
	.loc 1 756 120
	lhu	a3,40(a0)
	.loc 1 756 92
	sub	a4,a4,a3
	.loc 1 756 65
	bgt	a4,zero,.L235
	.loc 1 758 7 is_stmt 1
	lw	a3,4(sp)
	lw	a1,0(s5)
	addi	a4,s6,%lo(ip_data+16)
	addi	a3,a3,%lo(ip_data+20)
	add	a2,a2,a7
.LVL186:
.L423:
.LBE54:
.LBE53:
.LBB56:
.LBB57:
	.loc 1 649 5 is_stmt 0
	call	tcp_rst
.LVL187:
	j	.L432
.LVL188:
.L234:
.LBE57:
.LBE56:
.LBB63:
.LBB55:
	.loc 1 762 10 is_stmt 1
	.loc 1 762 13 is_stmt 0
	andi	a4,a4,1
	beq	a4,zero,.L235
	.loc 1 765 5 is_stmt 1
	.loc 1 765 14 is_stmt 0
	lui	a5,%hi(tcp_ticks)
	lw	a5,%lo(tcp_ticks)(a5)
	sw	a5,32(a0)
.L235:
	.loc 1 768 3 is_stmt 1
	.loc 1 768 6 is_stmt 0
	beq	a2,zero,.L432
	.loc 1 770 5 is_stmt 1
	.loc 1 770 10
	.loc 1 770 25 is_stmt 0
	lhu	a5,26(a0)
	ori	a5,a5,2
	.loc 1 770 23
	sh	a5,26(a0)
.LVL189:
.L424:
	.loc 1 771 5 is_stmt 1
	call	tcp_output
.LVL190:
.LBE55:
.LBE63:
	.loc 1 310 9
.L432:
	.loc 1 590 3
	.loc 1 591 3
	.loc 1 592 1 is_stmt 0
	lw	s0,72(sp)
	.cfi_remember_state
	.cfi_restore 8
	lw	ra,76(sp)
	.cfi_restore 1
	lw	s2,64(sp)
	.cfi_restore 18
	lw	s3,60(sp)
	.cfi_restore 19
	lw	s4,56(sp)
	.cfi_restore 20
	lw	s5,52(sp)
	.cfi_restore 21
	lw	s6,48(sp)
	.cfi_restore 22
	lw	s7,44(sp)
	.cfi_restore 23
	lw	s8,40(sp)
	.cfi_restore 24
	lw	s9,36(sp)
	.cfi_restore 25
	lw	s10,32(sp)
	.cfi_restore 26
	lw	s11,28(sp)
	.cfi_restore 27
	.loc 1 591 3
	mv	a0,s1
	.loc 1 592 1
	lw	s1,68(sp)
	.cfi_restore 9
.LVL191:
	addi	sp,sp,80
	.cfi_def_cfa_offset 0
	.loc 1 591 3
	tail	pbuf_free
.LVL192:
.L231:
	.cfi_restore_state
	.loc 1 286 45 discriminator 2
	lw	a0,12(a0)
.LVL193:
.L321:
	.loc 1 286 5 discriminator 1
	bne	a0,zero,.L237
	.loc 1 317 5 is_stmt 1
.LVL194:
	.loc 1 318 5
	.loc 1 318 15 is_stmt 0
	lui	t3,%hi(tcp_listen_pcbs)
	lw	t0,%lo(tcp_listen_pcbs)(t3)
.LVL195:
	.loc 1 124 26
	li	s7,0
	.loc 1 123 19
	li	t6,0
	.loc 1 318 15
	mv	a5,t0
.LVL196:
.L238:
	.loc 1 318 5 discriminator 1
	bne	a5,zero,.L242
	.loc 1 354 5 is_stmt 1
	.loc 1 356 7
.LVL197:
	.loc 1 357 7
	.loc 1 360 5
	.loc 1 360 8 is_stmt 0
	beq	s7,zero,.L421
	mv	a0,t6
	j	.L241
.LVL198:
.L242:
	.loc 1 320 7 is_stmt 1
	.loc 1 320 16 is_stmt 0
	lbu	t2,8(a5)
	.loc 1 320 10
	beq	t2,zero,.L239
	.loc 1 321 32 discriminator 1
	lbu	a6,68(t4)
	addi	a6,a6,1
	.loc 1 320 36 discriminator 1
	andi	a6,a6,0xff
	bne	t2,a6,.L240
.L239:
	.loc 1 326 7 is_stmt 1
	.loc 1 326 37 is_stmt 0
	lbu	a6,3(a3)
	lbu	s0,2(a3)
	.loc 1 326 10
	lhu	t2,22(a5)
	.loc 1 326 37
	slli	a6,a6,8
	.loc 1 326 10
	or	a6,a6,s0
	bne	t2,a6,.L240
	.loc 1 327 9 is_stmt 1
	.loc 1 335 16
	.loc 1 336 11
	.loc 1 336 33 is_stmt 0
	lw	a6,0(a5)
	.loc 1 336 14
	beq	t5,a6,.L322
	.loc 1 339 18 is_stmt 1
	.loc 1 339 21 is_stmt 0
	bne	a6,zero,.L240
.LVL199:
	mv	s7,a5
.LVL200:
	mv	t6,a0
.LVL201:
.L240:
	.loc 1 318 64 discriminator 2
	mv	a0,a5
	lw	a5,12(a5)
.LVL202:
	j	.L238
.L322:
.LVL203:
	mv	s7,a5
.LVL204:
.L241:
	.loc 1 364 7 is_stmt 1
	.loc 1 364 10 is_stmt 0
	beq	a0,zero,.L244
	.loc 1 365 9 is_stmt 1
	.loc 1 365 53 is_stmt 0
	lw	a5,12(s7)
	.loc 1 369 37
	sw	s7,%lo(tcp_listen_pcbs)(t3)
	.loc 1 365 47
	sw	a5,12(a0)
	.loc 1 367 9 is_stmt 1
	.loc 1 367 20 is_stmt 0
	sw	t0,12(s7)
	.loc 1 369 9 is_stmt 1
.L245:
	.loc 1 374 7
	.loc 1 380 9
.LVL205:
.LBB64:
.LBB61:
	.loc 1 632 3
	.loc 1 633 3
	.loc 1 634 3
	.loc 1 636 3
	.loc 1 636 6 is_stmt 0
	andi	a5,a4,4
	bne	a5,zero,.L432
	.loc 1 641 3 is_stmt 1
	.loc 1 641 8
	.loc 1 641 7
	.loc 1 645 3
	.loc 1 645 6 is_stmt 0
	andi	a5,a4,16
	beq	a5,zero,.L246
	.loc 1 648 5 is_stmt 1
	.loc 1 649 5
	.loc 1 650 49 is_stmt 0
	lw	a4,0(s2)
	.loc 1 649 5
	lhu	a0,0(a2)
.LVL206:
	lw	a2,0(s11)
	lbu	a3,1(a4)
	lbu	a6,0(a4)
	lbu	a5,3(a4)
	slli	a3,a3,8
	lbu	a7,2(a4)
	or	a6,a3,a6
	lw	a3,4(sp)
	slli	a5,a5,8
	add	a2,a0,a2
	or	a5,a5,a7
	addi	a4,s6,%lo(ip_data+16)
	addi	a3,a3,%lo(ip_data+20)
	lw	a1,0(s5)
	mv	a0,s7
	j	.L423
.LVL207:
.L244:
.LBE61:
.LBE64:
	.loc 1 371 9 is_stmt 1
	lhu	a5,170(s10)
	addi	a5,a5,1
	sh	a5,170(s10)
	j	.L245
.L246:
.LBB65:
.LBB62:
	.loc 1 651 10
	.loc 1 651 13 is_stmt 0
	andi	a4,a4,2
	beq	a4,zero,.L432
	.loc 1 652 5 is_stmt 1
	.loc 1 659 5
	.loc 1 659 12 is_stmt 0
	lbu	a0,21(s7)
.LVL208:
	call	tcp_alloc
.LVL209:
	mv	s0,a0
.LVL210:
	.loc 1 663 5 is_stmt 1
	.loc 1 663 8 is_stmt 0
	bne	a0,zero,.L247
.LBB58:
	.loc 1 664 7 is_stmt 1
	.loc 1 665 7
	.loc 1 666 7
	lhu	a5,160(s10)
	addi	a5,a5,1
	sh	a5,160(s10)
	.loc 1 667 7
	.loc 1 667 12
	.loc 1 667 20 is_stmt 0
	lw	a5,24(s7)
	.loc 1 667 14
	beq	a5,zero,.L432
	.loc 1 667 8 is_stmt 1
	.loc 1 667 16 is_stmt 0
	lw	a0,16(s7)
	li	a2,-1
	li	a1,0
	jalr	a5
.LVL211:
	j	.L432
.L247:
.LBE58:
	.loc 1 676 5 is_stmt 1
	.loc 1 676 62 is_stmt 0
	lw	a5,20(s4)
	.loc 1 679 31
	lw	a4,0(s2)
	.loc 1 676 28
	sw	a5,0(a0)
	.loc 1 677 5 is_stmt 1
	.loc 1 677 62 is_stmt 0
	lw	a5,16(s4)
	.loc 1 677 29
	sw	a5,4(a0)
	.loc 1 678 5 is_stmt 1
	.loc 1 678 27 is_stmt 0
	lhu	a5,22(s7)
	.loc 1 678 22
	sh	a5,22(a0)
	.loc 1 679 5 is_stmt 1
	.loc 1 679 31 is_stmt 0
	lbu	a5,1(a4)
	lbu	a3,0(a4)
	slli	a5,a5,8
	or	a5,a5,a3
	.loc 1 679 23
	sh	a5,24(a0)
	.loc 1 680 5 is_stmt 1
	.loc 1 680 17 is_stmt 0
	li	a5,3
	sb	a5,20(a0)
	.loc 1 681 5 is_stmt 1
	.loc 1 681 27 is_stmt 0
	lw	a5,0(s11)
	addi	a5,a5,1
	.loc 1 681 19
	sw	a5,36(a0)
	.loc 1 682 5 is_stmt 1
	.loc 1 682 30 is_stmt 0
	sw	a5,44(a0)
	.loc 1 683 5 is_stmt 1
	.loc 1 683 11 is_stmt 0
	call	tcp_next_iss
.LVL212:
	.loc 1 684 5 is_stmt 1
	.loc 1 688 27 is_stmt 0
	lw	a5,0(s11)
	.loc 1 684 19
	sw	a0,88(s0)
	.loc 1 685 5 is_stmt 1
	.loc 1 685 19 is_stmt 0
	sw	a0,80(s0)
	.loc 1 686 5 is_stmt 1
	.loc 1 688 27 is_stmt 0
	addi	a5,a5,-1
	.loc 1 686 19
	sw	a0,68(s0)
	.loc 1 687 5 is_stmt 1
	.loc 1 687 19 is_stmt 0
	sw	a0,92(s0)
	.loc 1 688 5 is_stmt 1
	.loc 1 688 19 is_stmt 0
	sw	a5,84(s0)
	.loc 1 689 5 is_stmt 1
	.loc 1 689 29 is_stmt 0
	lw	a5,16(s7)
	.loc 1 691 20
	sw	s7,124(s0)
	.loc 1 689 24
	sw	a5,16(s0)
	.loc 1 691 5 is_stmt 1
	.loc 1 694 5
	.loc 1 694 40 is_stmt 0
	lbu	a5,9(s7)
	andi	a5,a5,12
	.loc 1 694 22
	sb	a5,9(s0)
	.loc 1 695 5 is_stmt 1
	.loc 1 695 26 is_stmt 0
	lbu	a5,8(s7)
	.loc 1 695 21
	sb	a5,8(s0)
	.loc 1 698 5 is_stmt 1
	.loc 1 698 10
	.loc 1 698 15
	.loc 1 698 28 is_stmt 0
	lw	a5,%lo(tcp_active_pcbs)(s3)
	.loc 1 698 69
	sw	s0,%lo(tcp_active_pcbs)(s3)
	.loc 1 698 28
	sw	a5,12(s0)
	.loc 1 698 49 is_stmt 1
	.loc 1 698 79
	call	tcp_timer_needed
.LVL213:
	.loc 1 698 112
	.loc 1 698 136 is_stmt 0
	lui	a5,%hi(tcp_active_pcbs_changed)
	li	a4,1
	sb	a4,%lo(tcp_active_pcbs_changed)(a5)
	.loc 1 701 5 is_stmt 1
.LVL214:
.LBB59:
.LBB60:
	.loc 1 1911 3
	.loc 1 1912 3
	.loc 1 1917 3
	.loc 1 1917 8
	.loc 1 1917 7
	.loc 1 1920 3
	.loc 1 1920 6 is_stmt 0
	lw	a5,8(sp)
	lhu	a5,0(a5)
	beq	a5,zero,.L248
	addi	a0,s0,50
	call	tcp_parseopt.isra.0.part.1
.LVL215:
.L248:
.LBE60:
.LBE59:
	.loc 1 702 5 is_stmt 1
	.loc 1 702 27 is_stmt 0
	lw	a4,0(s2)
	.loc 1 706 61
	addi	a2,s0,4
	.loc 1 706 17
	mv	a0,a2
	.loc 1 702 27
	lbu	a5,15(a4)
	lbu	a3,14(a4)
	.loc 1 706 17
	lhu	s2,50(s0)
	.loc 1 702 27
	slli	a5,a5,8
	or	a5,a5,a3
	.loc 1 702 19
	sh	a5,96(s0)
	.loc 1 703 5 is_stmt 1
	.loc 1 703 23 is_stmt 0
	sh	a5,98(s0)
	.loc 1 706 5 is_stmt 1
	.loc 1 706 17 is_stmt 0
	sw	a2,4(sp)
	call	ip4_route
.LVL216:
	lw	a2,4(sp)
	mv	a1,a0
	mv	a0,s2
	call	tcp_eff_send_mss_netif
.LVL217:
	.loc 1 706 15
	sh	a0,50(s0)
	.loc 1 709 5 is_stmt 1
	.loc 1 719 5
	.loc 1 719 10 is_stmt 0
	li	a1,18
	mv	a0,s0
	call	tcp_enqueue_flags
.LVL218:
	.loc 1 720 5 is_stmt 1
	.loc 1 720 8 is_stmt 0
	beq	a0,zero,.L249
	.loc 1 721 7 is_stmt 1
	li	a1,0
	mv	a0,s0
.LVL219:
	call	tcp_abandon
.LVL220:
	.loc 1 722 7
	j	.L432
.LVL221:
.L249:
	.loc 1 724 5
	mv	a0,s0
.LVL222:
	j	.L424
.LVL223:
.L250:
.LBE62:
.LBE65:
	.loc 1 437 5
.LBB66:
.LBB67:
	.loc 1 799 13 is_stmt 0
	lbu	a4,0(s7)
.LBE67:
.LBE66:
	.loc 1 437 19
	sw	s0,%lo(tcp_input_pcb)(s1)
	.loc 1 438 5 is_stmt 1
.LVL224:
.LBB85:
.LBB77:
	.loc 1 790 3
	.loc 1 791 3
	.loc 1 792 3
	.loc 1 794 3
	.loc 1 796 3
	.loc 1 796 8
	.loc 1 796 7
	.loc 1 799 3
	.loc 1 799 6 is_stmt 0
	andi	a5,a4,4
	beq	a5,zero,.L254
.LVL225:
	.loc 1 801 5 is_stmt 1
	.loc 1 801 8 is_stmt 0
	lbu	a4,20(s0)
	li	a5,2
	bne	a4,a5,.L255
	.loc 1 804 7 is_stmt 1
	.loc 1 804 10 is_stmt 0
	lw	a4,80(s0)
	lw	a5,0(s5)
	bne	a4,a5,.L257
.L256:
	.loc 1 823 7 is_stmt 1
	.loc 1 824 7
	.loc 1 824 12
	.loc 1 824 43
	.loc 1 825 7
	.loc 1 825 18 is_stmt 0
	lbu	a5,0(s4)
	ori	a5,a5,8
	sb	a5,0(s4)
	.loc 1 826 7 is_stmt 1
	.loc 1 826 12
	.loc 1 826 27 is_stmt 0
	lhu	a5,26(s0)
	andi	a5,a5,-2
.LVL226:
.L428:
	.loc 1 906 27
	sh	a5,26(s0)
.LVL227:
.LBE77:
.LBE85:
	.loc 1 441 5 is_stmt 1
.L257:
	.loc 1 442 7
	.loc 1 442 10 is_stmt 0
	lbu	a5,0(s4)
	andi	a5,a5,8
	beq	a5,zero,.L301
	.loc 1 447 9 is_stmt 1
	.loc 1 447 14
	.loc 1 447 32
	.loc 1 447 39 is_stmt 0
	lw	a5,144(s0)
	.loc 1 447 34
	beq	a5,zero,.L302
	.loc 1 447 10 is_stmt 1 discriminator 1
	.loc 1 447 14 is_stmt 0 discriminator 1
	lw	a0,16(s0)
	li	a1,-14
	jalr	a5
.LVL228:
.L302:
	.loc 1 448 9 is_stmt 1
	addi	a0,s3,%lo(tcp_active_pcbs)
	mv	a1,s0
	call	tcp_pcb_remove
.LVL229:
	.loc 1 449 9
	mv	a0,s0
	call	tcp_free
.LVL230:
	j	.L253
.LVL231:
.L255:
.LBB86:
.LBB78:
	.loc 1 810 7
	.loc 1 810 23 is_stmt 0
	lw	a4,36(s0)
	.loc 1 810 17
	lw	a5,0(s11)
	.loc 1 810 10
	beq	a4,a5,.L256
	.loc 1 812 14 is_stmt 1
	.loc 1 812 43 is_stmt 0
	sub	a5,a5,a4
	.loc 1 812 17
	blt	a5,zero,.L257
	.loc 1 812 129
	lhu	a4,40(s0)
	.loc 1 812 101
	sub	a5,a5,a4
	.loc 1 812 74
	bgt	a5,zero,.L257
.LVL232:
.L279:
	.loc 1 906 9 is_stmt 1
	.loc 1 906 14
	.loc 1 906 29 is_stmt 0
	lhu	a5,26(s0)
	j	.L429
.LVL233:
.L254:
	.loc 1 837 3 is_stmt 1
	andi	s10,a4,2
	lhu	a5,26(s0)
	.loc 1 837 6 is_stmt 0
	beq	s10,zero,.L259
	.loc 1 837 50
	lbu	a3,20(s0)
	.loc 1 837 23
	li	a0,1
	.loc 1 837 50
	addi	a3,a3,-2
	.loc 1 837 23
	andi	a3,a3,0xff
	bleu	a3,a0,.L259
.LVL234:
.L429:
	.loc 1 906 29
	ori	a5,a5,2
	j	.L428
.LVL235:
.L259:
	.loc 1 843 3 is_stmt 1
	.loc 1 843 6 is_stmt 0
	andi	a5,a5,16
	bne	a5,zero,.L260
	.loc 1 845 5 is_stmt 1
	.loc 1 845 14 is_stmt 0
	lui	a5,%hi(tcp_ticks)
	lw	a5,%lo(tcp_ticks)(a5)
	sw	a5,32(s0)
.L260:
	.loc 1 847 3 is_stmt 1
	.loc 1 848 3
.LBB68:
.LBB69:
	.loc 1 1920 6 is_stmt 0
	lw	a5,8(sp)
.LBE69:
.LBE68:
	.loc 1 848 22
	sh	zero,162(s0)
	.loc 1 850 3 is_stmt 1
.LVL236:
.LBB71:
.LBB70:
	.loc 1 1911 3
	.loc 1 1912 3
	.loc 1 1917 3
	.loc 1 1917 8
	.loc 1 1917 7
	.loc 1 1920 3
	.loc 1 1920 6 is_stmt 0
	lhu	a5,0(a5)
	beq	a5,zero,.L261
	addi	a0,s0,50
	sw	a4,8(sp)
	call	tcp_parseopt.isra.0.part.1
.LVL237:
	lw	a4,8(sp)
	lui	a5,%hi(.LANCHOR10)
	addi	a2,a5,%lo(.LANCHOR10)
.L261:
.LBE70:
.LBE71:
	.loc 1 853 3 is_stmt 1
	lbu	a5,20(s0)
	li	a3,7
	addi	a5,a5,-2
	andi	a5,a5,0xff
	bgtu	a5,a3,.L257
	lui	a3,%hi(.L263)
	slli	a5,a5,2
	addi	a3,a3,%lo(.L263)
	add	a5,a5,a3
	lw	a5,0(a5)
	jr	a5
	.section	.rodata.tcp_input,"a",@progbits
	.align	2
	.align	2
.L263:
	.word	.L269
	.word	.L268
	.word	.L265
	.word	.L267
	.word	.L266
	.word	.L265
	.word	.L264
	.word	.L262
	.section	.text.tcp_input
.L269:
	.loc 1 856 92
	.loc 1 858 7
	.loc 1 858 10 is_stmt 0
	andi	a5,a4,18
	li	a3,18
	bne	a5,a3,.L270
	.loc 1 859 37
	lw	a5,68(s0)
	.loc 1 859 21
	lw	a3,0(s5)
	.loc 1 859 37
	addi	a5,a5,1
	.loc 1 859 11
	bne	a5,a3,.L270
	.loc 1 860 9 is_stmt 1
	.loc 1 860 30 is_stmt 0
	lw	a4,0(s11)
	.loc 1 862 22
	sw	a5,68(s0)
	.loc 1 860 30
	addi	a3,a4,1
	.loc 1 860 22
	sw	a3,36(s0)
	.loc 1 861 9 is_stmt 1
	.loc 1 861 33 is_stmt 0
	sw	a3,44(s0)
	.loc 1 862 9 is_stmt 1
	.loc 1 863 9
	.loc 1 863 30 is_stmt 0
	lw	a3,0(s2)
	.loc 1 865 30
	addi	a4,a4,-1
	.loc 1 869 20
	lhu	s2,50(s0)
	.loc 1 863 30
	lbu	a5,15(a3)
	lbu	a2,14(a3)
	.loc 1 865 22
	sw	a4,84(s0)
	.loc 1 863 30
	slli	a5,a5,8
	or	a5,a5,a2
	.loc 1 863 22
	sh	a5,96(s0)
	.loc 1 864 9 is_stmt 1
	.loc 1 869 63 is_stmt 0
	addi	a2,s0,4
	.loc 1 864 26
	sh	a5,98(s0)
	.loc 1 865 9 is_stmt 1
	.loc 1 866 9
	.loc 1 866 20 is_stmt 0
	li	a5,4
	sb	a5,20(s0)
	.loc 1 869 9 is_stmt 1
	.loc 1 869 20 is_stmt 0
	mv	a0,a2
	sw	a2,4(sp)
	call	ip4_route
.LVL238:
	lw	a2,4(sp)
	mv	a1,a0
	mv	a0,s2
	call	tcp_eff_send_mss_netif
.LVL239:
	.loc 1 872 69
	slli	a4,a0,1
	.loc 1 869 18
	sh	a0,50(s0)
	.loc 1 872 9 is_stmt 1
	.loc 1 872 44 is_stmt 0
	slli	a5,a0,2
	.loc 1 872 117
	li	a0,4096
	addi	a0,a0,284
	mv	a3,a4
	bgeu	a4,a0,.L272
	mv	a3,a0
.L272:
	.loc 1 872 22
	bgeu	a5,a3,.L271
	slli	a0,a5,16
.L425:
	srli	a0,a0,16
.L273:
	.loc 1 877 9
	lhu	a5,102(s0)
	.loc 1 872 19
	sh	a0,72(s0)
	.loc 1 875 64 is_stmt 1
	.loc 1 876 9
	.loc 1 876 14
	.loc 1 876 48
	.loc 1 877 9
	.loc 1 879 14 is_stmt 0
	lw	a0,112(s0)
	.loc 1 877 9
	addi	a5,a5,-1
	sh	a5,102(s0)
	.loc 1 878 9 is_stmt 1
	.loc 1 879 9
.LVL240:
	.loc 1 880 9
	.loc 1 880 12 is_stmt 0
	bne	a0,zero,.L274
	.loc 1 883 11 is_stmt 1
	.loc 1 883 16 is_stmt 0
	lw	a0,108(s0)
.LVL241:
	.loc 1 884 11 is_stmt 1
	.loc 1 884 16
	.loc 1 884 15
	.loc 1 885 11
	.loc 1 885 29 is_stmt 0
	lw	a5,0(a0)
	.loc 1 885 23
	sw	a5,108(s0)
.L275:
	.loc 1 889 9 is_stmt 1
	call	tcp_seg_free
.LVL242:
	.loc 1 893 9
	.loc 1 893 12 is_stmt 0
	lw	a5,112(s0)
	bne	a5,zero,.L276
	.loc 1 894 11 is_stmt 1
	.loc 1 894 22 is_stmt 0
	li	a5,-1
	sh	a5,48(s0)
.L277:
	.loc 1 902 9 is_stmt 1
	.loc 1 902 14
	.loc 1 902 22 is_stmt 0
	lw	a5,136(s0)
	.loc 1 902 16
	beq	a5,zero,.L279
	.loc 1 902 10 is_stmt 1
	.loc 1 902 18 is_stmt 0
	lw	a0,16(s0)
	li	a2,0
	mv	a1,s0
	jalr	a5
.LVL243:
	.loc 1 903 9 is_stmt 1
	.loc 1 903 12 is_stmt 0
	li	a5,-13
	bne	a0,a5,.L279
	j	.L253
.LVL244:
.L271:
	.loc 1 872 22
	bleu	a4,a0,.L273
	slli	a0,a4,16
	j	.L425
.LVL245:
.L274:
	.loc 1 887 11 is_stmt 1
	.loc 1 887 30 is_stmt 0
	lw	a5,0(a0)
	.loc 1 887 24
	sw	a5,112(s0)
	j	.L275
.LVL246:
.L276:
	.loc 1 896 11 is_stmt 1
	.loc 1 896 22 is_stmt 0
	sh	zero,48(s0)
	.loc 1 897 11 is_stmt 1
	.loc 1 897 21 is_stmt 0
	sb	zero,66(s0)
	j	.L277
.L270:
	.loc 1 909 12 is_stmt 1
	.loc 1 909 15 is_stmt 0
	andi	a4,a4,16
	beq	a4,zero,.L257
	.loc 1 911 9 is_stmt 1
	.loc 1 912 53 is_stmt 0
	lw	a4,0(s2)
	.loc 1 911 9
	lhu	a0,0(a2)
	lw	a2,0(s11)
	lbu	a3,1(a4)
	lbu	a6,0(a4)
	lbu	a5,3(a4)
	slli	a3,a3,8
	lbu	a7,2(a4)
	or	a6,a3,a6
	lw	a3,4(sp)
	lw	a1,0(s5)
	slli	a5,a5,8
	or	a5,a5,a7
	addi	a4,s6,%lo(ip_data+16)
	add	a2,a0,a2
	addi	a3,a3,%lo(ip_data+20)
	mv	a0,s0
	call	tcp_rst
.LVL247:
	.loc 1 916 9 is_stmt 1
	.loc 1 916 12 is_stmt 0
	lbu	a4,66(s0)
	li	a5,5
	bgtu	a4,a5,.L257
	.loc 1 917 11 is_stmt 1
	.loc 1 917 22 is_stmt 0
	sh	zero,48(s0)
	.loc 1 918 11 is_stmt 1
	mv	a0,s0
	call	tcp_rexmit_rto
.LVL248:
.LBE78:
.LBE86:
	.loc 1 441 5
	j	.L257
.LVL249:
.L268:
.LBB87:
.LBB79:
	.loc 1 923 7
	.loc 1 923 10 is_stmt 0
	andi	a4,a4,16
	beq	a4,zero,.L280
	.loc 1 925 9 is_stmt 1
	.loc 1 925 38 is_stmt 0
	lw	a1,0(s5)
	lw	a4,68(s0)
	addi	a5,a1,-1
	sub	a5,a5,a4
	.loc 1 925 12
	blt	a5,zero,.L281
	.loc 1 925 100
	lw	a5,80(s0)
	sub	a5,a1,a5
	.loc 1 925 73
	bgt	a5,zero,.L281
	.loc 1 926 11 is_stmt 1
	.loc 1 926 22 is_stmt 0
	li	a5,4
	sb	a5,20(s0)
	.loc 1 927 11 is_stmt 1
	.loc 1 929 11
	.loc 1 929 18 is_stmt 0
	lw	a5,124(s0)
	.loc 1 929 14
	bne	a5,zero,.L282
.LVL250:
.L430:
.LBE79:
.LBE87:
	.loc 1 496 13 is_stmt 1
	mv	a0,s0
	call	tcp_abort
.LVL251:
	.loc 1 497 13
	j	.L253
.LVL252:
.L282:
.LBB88:
.LBB80:
	.loc 1 936 13
	.loc 1 936 18
	.loc 1 936 37 is_stmt 0
	lw	a5,24(a5)
	.loc 1 936 17 is_stmt 1
	.loc 1 938 13
	.loc 1 940 13
	.loc 1 940 18
	.loc 1 940 20 is_stmt 0
	beq	a5,zero,.L430
	.loc 1 940 14 is_stmt 1
	.loc 1 940 26 is_stmt 0
	lw	a0,16(s0)
	li	a2,0
	mv	a1,s0
	jalr	a5
.LVL253:
	.loc 1 942 11 is_stmt 1
	.loc 1 942 14 is_stmt 0
	beq	a0,zero,.L284
	.loc 1 946 13 is_stmt 1
	.loc 1 946 16 is_stmt 0
	li	a5,-13
	beq	a0,a5,.L253
	j	.L430
.L284:
	.loc 1 953 11 is_stmt 1
	mv	a0,s0
.LVL254:
	call	tcp_receive
.LVL255:
	.loc 1 956 11
	.loc 1 956 26 is_stmt 0
	lhu	a5,0(s8)
	.loc 1 956 14
	beq	a5,zero,.L286
	.loc 1 957 13 is_stmt 1
	.loc 1 957 23 is_stmt 0
	addi	a5,a5,-1
	sh	a5,0(s8)
.L286:
	.loc 1 960 11 is_stmt 1
	.loc 1 960 52 is_stmt 0
	lhu	a5,50(s0)
	.loc 1 960 71
	slli	a3,a5,1
	.loc 1 960 46
	slli	a4,a5,2
	.loc 1 960 119
	li	a5,4096
	addi	a5,a5,284
	mv	a2,a3
	bgeu	a3,a5,.L288
	mv	a2,a5
.L288:
	.loc 1 960 24
	bgeu	a4,a2,.L287
	slli	a5,a4,16
.L426:
	srli	a5,a5,16
.L289:
	.loc 1 960 21
	sh	a5,72(s0)
	.loc 1 963 66 is_stmt 1
	.loc 1 965 11
.L437:
	.loc 1 983 7
	.loc 1 983 10 is_stmt 0
	lbu	a5,0(s4)
	andi	a5,a5,32
	beq	a5,zero,.L257
	.loc 1 984 9 is_stmt 1
	.loc 1 984 14
	.loc 1 984 29 is_stmt 0
	lhu	a5,26(s0)
	ori	a5,a5,2
	.loc 1 984 27
	sh	a5,26(s0)
	.loc 1 985 9 is_stmt 1
	.loc 1 985 20 is_stmt 0
	li	a5,7
.L427:
	.loc 1 1006 20
	sb	a5,20(s0)
.LVL256:
.LBE80:
.LBE88:
	.loc 1 441 5 is_stmt 1
	j	.L257
.LVL257:
.L287:
.LBB89:
.LBB81:
	.loc 1 960 24 is_stmt 0
	bleu	a3,a5,.L289
	slli	a5,a3,16
	j	.L426
.LVL258:
.L281:
	.loc 1 971 11 is_stmt 1
	.loc 1 972 55 is_stmt 0
	lw	a4,0(s2)
	.loc 1 971 11
	lhu	a0,0(a2)
	lw	a2,0(s11)
	lbu	a3,1(a4)
	lbu	a6,0(a4)
	lbu	a5,3(a4)
	slli	a3,a3,8
	lbu	a7,2(a4)
	or	a6,a3,a6
	lw	a3,4(sp)
	slli	a5,a5,8
	add	a2,a0,a2
	or	a5,a5,a7
	addi	a4,s6,%lo(ip_data+16)
	addi	a3,a3,%lo(ip_data+20)
	mv	a0,s0
	call	tcp_rst
.LVL259:
.LBE81:
.LBE89:
	.loc 1 441 5 is_stmt 1
	j	.L257
.LVL260:
.L280:
.LBB90:
.LBB82:
	.loc 1 974 14
	.loc 1 974 17 is_stmt 0
	beq	s10,zero,.L257
	.loc 1 974 60
	lw	a5,36(s0)
	.loc 1 974 34
	lw	a4,0(s11)
	.loc 1 974 60
	addi	a5,a5,-1
	.loc 1 974 34
	bne	a5,a4,.L257
	.loc 1 976 9 is_stmt 1
	mv	a0,s0
	call	tcp_rexmit
.LVL261:
.LBE82:
.LBE90:
	.loc 1 441 5
	j	.L257
.LVL262:
.L265:
.LBB91:
.LBB83:
	.loc 1 982 7
	mv	a0,s0
	call	tcp_receive
.LVL263:
	j	.L437
.L267:
	.loc 1 989 7
	mv	a0,s0
	call	tcp_receive
.LVL264:
	.loc 1 990 7
	.loc 1 990 10 is_stmt 0
	lbu	a5,0(s4)
	andi	a5,a5,32
	beq	a5,zero,.L290
	.loc 1 991 9 is_stmt 1
	.loc 1 991 12 is_stmt 0
	lbu	a4,0(s7)
	lhu	a5,26(s0)
	andi	a4,a4,16
	beq	a4,zero,.L291
	.loc 1 991 29
	lw	a3,80(s0)
	lw	a4,0(s5)
	bne	a3,a4,.L291
	.loc 1 991 56
	lw	a4,108(s0)
	bne	a4,zero,.L291
	.loc 1 994 124 is_stmt 1
	.loc 1 995 11
	.loc 1 995 16
	.loc 1 995 31 is_stmt 0
	ori	a5,a5,2
	.loc 1 995 29
	sh	a5,26(s0)
	.loc 1 996 11 is_stmt 1
	mv	a0,s0
	call	tcp_pcb_purge
.LVL265:
	.loc 1 997 11
	.loc 1 997 16
	.loc 1 997 21
	.loc 1 997 44 is_stmt 0
	lw	a5,%lo(tcp_active_pcbs)(s3)
	.loc 1 997 23
	bne	s0,a5,.L292
.L434:
	.loc 1 1025 54 is_stmt 1
	.loc 1 1025 76 is_stmt 0
	lw	a5,12(s0)
	sw	a5,%lo(tcp_active_pcbs)(s3)
	j	.L299
.LVL266:
.L294:
.LBB72:
	.loc 1 997 47 is_stmt 1
	.loc 1 997 61 is_stmt 0
	lw	a4,12(a5)
	.loc 1 997 49
	bne	s0,a4,.L325
.LVL267:
.L435:
.LBE72:
.LBB73:
	.loc 1 1025 78 is_stmt 1
	.loc 1 1025 103 is_stmt 0
	lw	a4,12(s0)
	.loc 1 1025 96
	sw	a4,12(a5)
	.loc 1 1025 111 is_stmt 1
	j	.L299
.LVL268:
.L325:
.LBE73:
.LBB74:
	.loc 1 997 49 is_stmt 0
	mv	a5,a4
.LVL269:
.L292:
	.loc 1 997 145
	bne	a5,zero,.L294
.LVL270:
.L299:
.LBE74:
	.loc 1 1025 124 is_stmt 1
	.loc 1 1025 22
	.loc 1 1025 46 is_stmt 0
	lui	a5,%hi(tcp_active_pcbs_changed)
	li	a4,1
	sb	a4,%lo(tcp_active_pcbs_changed)(a5)
	.loc 1 1026 9 is_stmt 1
	.loc 1 1026 20 is_stmt 0
	li	a5,10
	sb	a5,20(s0)
	.loc 1 1027 9 is_stmt 1
	.loc 1 1027 14
	.loc 1 1027 26 is_stmt 0
	lui	a5,%hi(tcp_tw_pcbs)
	lw	a4,%lo(tcp_tw_pcbs)(a5)
	.loc 1 1027 59
	sw	s0,%lo(tcp_tw_pcbs)(a5)
	.loc 1 1027 26
	sw	a4,12(s0)
	.loc 1 1027 43 is_stmt 1
	.loc 1 1027 68
	call	tcp_timer_needed
.LVL271:
.LBE83:
.LBE91:
	.loc 1 441 5
	j	.L257
.LVL272:
.L291:
.LBB92:
.LBB84:
	.loc 1 1001 11
	.loc 1 1001 16
	.loc 1 1001 31 is_stmt 0
	ori	a5,a5,2
	.loc 1 1001 29
	sh	a5,26(s0)
	.loc 1 1002 11 is_stmt 1
	.loc 1 1002 22 is_stmt 0
	li	a5,8
	j	.L427
.L290:
	.loc 1 1004 14 is_stmt 1
	.loc 1 1004 17 is_stmt 0
	lbu	a5,0(s7)
	andi	a5,a5,16
	beq	a5,zero,.L257
	.loc 1 1004 34
	lw	a4,80(s0)
	lw	a5,0(s5)
	bne	a4,a5,.L257
	.loc 1 1004 61
	lw	a5,108(s0)
	bne	a5,zero,.L257
	.loc 1 1006 9 is_stmt 1
	.loc 1 1006 20 is_stmt 0
	li	a5,6
	j	.L427
.L266:
	.loc 1 1010 7 is_stmt 1
	mv	a0,s0
	call	tcp_receive
.LVL273:
	.loc 1 1011 7
	.loc 1 1011 10 is_stmt 0
	lbu	a5,0(s4)
	andi	a5,a5,32
	beq	a5,zero,.L257
	.loc 1 1012 9 is_stmt 1
	.loc 1 1013 9
	.loc 1 1013 14
	.loc 1 1013 29 is_stmt 0
	lhu	a5,26(s0)
	.loc 1 1014 9
	mv	a0,s0
	.loc 1 1013 29
	ori	a5,a5,2
	.loc 1 1013 27
	sh	a5,26(s0)
	.loc 1 1014 9 is_stmt 1
	call	tcp_pcb_purge
.LVL274:
	.loc 1 1015 9
	.loc 1 1015 14
	.loc 1 1015 19
	.loc 1 1015 42 is_stmt 0
	lw	a5,%lo(tcp_active_pcbs)(s3)
	.loc 1 1015 21
	beq	s0,a5,.L434
.L295:
.LVL275:
.LBB75:
	.loc 1 1015 143
	beq	a5,zero,.L299
	.loc 1 1015 45 is_stmt 1
	.loc 1 1015 59 is_stmt 0
	lw	a4,12(a5)
	.loc 1 1015 47
	beq	s0,a4,.L435
	mv	a5,a4
.LVL276:
	j	.L295
.L264:
.LBE75:
	.loc 1 1021 7 is_stmt 1
	mv	a0,s0
	call	tcp_receive
.LVL277:
	.loc 1 1022 7
	.loc 1 1022 10 is_stmt 0
	lbu	a5,0(s7)
	andi	a5,a5,16
	beq	a5,zero,.L257
	.loc 1 1022 27
	lw	a4,80(s0)
	lw	a5,0(s5)
	bne	a4,a5,.L257
	.loc 1 1022 52
	lw	a5,108(s0)
	bne	a5,zero,.L257
	.loc 1 1023 9 is_stmt 1
	.loc 1 1024 9
	mv	a0,s0
	call	tcp_pcb_purge
.LVL278:
	.loc 1 1025 9
	.loc 1 1025 14
	.loc 1 1025 19
	.loc 1 1025 42 is_stmt 0
	lw	a5,%lo(tcp_active_pcbs)(s3)
	.loc 1 1025 21
	beq	s0,a5,.L434
.L298:
.LVL279:
.LBB76:
	.loc 1 1025 143
	beq	a5,zero,.L299
	.loc 1 1025 45 is_stmt 1
	.loc 1 1025 59 is_stmt 0
	lw	a4,12(a5)
	.loc 1 1025 47
	beq	s0,a4,.L435
	mv	a5,a4
.LVL280:
	j	.L298
.L262:
.LBE76:
	.loc 1 1031 7 is_stmt 1
	mv	a0,s0
	call	tcp_receive
.LVL281:
	.loc 1 1032 7
	.loc 1 1032 10 is_stmt 0
	lbu	a5,0(s7)
	andi	a5,a5,16
	beq	a5,zero,.L257
	.loc 1 1032 27
	lw	a4,80(s0)
	lw	a5,0(s5)
	bne	a4,a5,.L257
	.loc 1 1032 52
	lw	a5,108(s0)
	bne	a5,zero,.L257
	.loc 1 1033 9 is_stmt 1
	.loc 1 1035 9
	.loc 1 1035 20 is_stmt 0
	lbu	a5,0(s4)
	ori	a5,a5,16
	sb	a5,0(s4)
.LVL282:
.LBE84:
.LBE92:
	.loc 1 441 5 is_stmt 1
	j	.L257
.LVL283:
.L301:
	.loc 1 451 9
	.loc 1 455 9
	.loc 1 455 24 is_stmt 0
	lhu	a2,0(s8)
	.loc 1 455 12
	beq	a2,zero,.L303
.LBB93:
	.loc 1 456 11 is_stmt 1
	.loc 1 466 13
.LVL284:
	.loc 1 468 13
	.loc 1 468 18
	.loc 1 468 26 is_stmt 0
	lw	a5,128(s0)
	.loc 1 468 20
	bne	a5,zero,.L304
.LVL285:
.L305:
	.loc 1 473 11 is_stmt 1
	.loc 1 473 22 is_stmt 0
	sh	zero,0(s8)
.L303:
.LBE93:
	.loc 1 475 9 is_stmt 1
	.loc 1 475 13 is_stmt 0
	mv	a0,s0
	call	tcp_input_delayed_close
.LVL286:
	.loc 1 475 12
	bne	a0,zero,.L253
	.loc 1 483 9 is_stmt 1
	.loc 1 483 23 is_stmt 0
	lw	a2,0(s9)
	.loc 1 483 12
	beq	a2,zero,.L307
	.loc 1 486 11 is_stmt 1
	.loc 1 486 16
	.loc 1 486 15
	.loc 1 487 11
	.loc 1 487 14 is_stmt 0
	lhu	a5,26(s0)
	andi	a5,a5,16
	beq	a5,zero,.L308
	.loc 1 490 13 is_stmt 1
	mv	a0,a2
	call	pbuf_free
.LVL287:
	j	.L430
.LVL288:
.L304:
.LBB94:
	.loc 1 468 14 discriminator 1
	.loc 1 468 22 is_stmt 0 discriminator 1
	lw	a0,16(s0)
	mv	a1,s0
	jalr	a5
.LVL289:
	.loc 1 469 13 is_stmt 1 discriminator 1
	.loc 1 469 16 is_stmt 0 discriminator 1
	li	a5,-13
	bne	a0,a5,.L305
	j	.L253
.LVL290:
.L308:
.LBE94:
	.loc 1 501 11 is_stmt 1
	.loc 1 501 16
	.loc 1 501 24 is_stmt 0
	lw	a5,132(s0)
	.loc 1 501 22
	li	a3,0
	mv	a1,s0
	.loc 1 501 18
	beq	a5,zero,.L309
	.loc 1 501 14 is_stmt 1 discriminator 1
	.loc 1 501 22 is_stmt 0 discriminator 1
	lw	a0,16(s0)
	jalr	a5
.LVL291:
.L310:
	.loc 1 502 11 is_stmt 1
	.loc 1 502 14 is_stmt 0
	li	a5,-13
	beq	a0,a5,.L253
	.loc 1 512 11 is_stmt 1
	.loc 1 512 14 is_stmt 0
	beq	a0,zero,.L307
	.loc 1 518 13 is_stmt 1
	.loc 1 518 31 is_stmt 0
	lw	a5,0(s9)
	sw	a5,120(s0)
.LVL292:
.L307:
	.loc 1 519 13 is_stmt 1
	.loc 1 531 9
	.loc 1 531 12 is_stmt 0
	lbu	a5,0(s4)
	andi	a5,a5,32
	beq	a5,zero,.L313
	.loc 1 532 11 is_stmt 1
	.loc 1 532 18 is_stmt 0
	lw	a5,120(s0)
	.loc 1 532 14
	beq	a5,zero,.L314
	.loc 1 534 13 is_stmt 1
	.loc 1 534 38 is_stmt 0
	lbu	a4,13(a5)
	ori	a4,a4,32
	sb	a4,13(a5)
.L313:
	.loc 1 548 9 is_stmt 1
	.loc 1 549 13 is_stmt 0
	mv	a0,s0
	.loc 1 548 23
	sw	zero,%lo(tcp_input_pcb)(s1)
	.loc 1 549 9 is_stmt 1
	.loc 1 549 13 is_stmt 0
	call	tcp_input_delayed_close
.LVL293:
	.loc 1 549 12
	bne	a0,zero,.L253
	.loc 1 553 9 is_stmt 1
	mv	a0,s0
	call	tcp_output
.LVL294:
	j	.L253
.L309:
	.loc 1 501 92 discriminator 2
	.loc 1 501 100 is_stmt 0 discriminator 2
	call	tcp_recv_null
.LVL295:
	j	.L310
.LVL296:
.L314:
	.loc 1 538 13 is_stmt 1
	.loc 1 538 20 is_stmt 0
	lhu	a5,40(s0)
	.loc 1 538 16
	li	a4,4096
	addi	a4,a4,-2032
	beq	a5,a4,.L315
	.loc 1 539 15 is_stmt 1
	.loc 1 539 27 is_stmt 0
	addi	a5,a5,1
	sh	a5,40(s0)
.L315:
	.loc 1 541 13 is_stmt 1
	.loc 1 541 18
	.loc 1 541 27 is_stmt 0
	lw	a5,132(s0)
	.loc 1 541 20
	beq	a5,zero,.L313
	.loc 1 541 17 is_stmt 1 discriminator 1
	.loc 1 541 25 is_stmt 0 discriminator 1
	lw	a0,16(s0)
	li	a3,0
	li	a2,0
	mv	a1,s0
	jalr	a5
.LVL297:
	.loc 1 542 13 is_stmt 1 discriminator 1
	.loc 1 542 16 is_stmt 0 discriminator 1
	li	a5,-13
	bne	a0,a5,.L313
	j	.L253
.LVL298:
.L421:
	.loc 1 401 3 is_stmt 1
	.loc 1 575 5
	.loc 1 576 5
	.loc 1 576 20 is_stmt 0
	lbu	a5,13(a3)
	lbu	a0,12(a3)
	slli	a5,a5,8
	or	a0,a5,a0
	call	lwip_htons
.LVL299:
	.loc 1 576 8
	lui	a5,%hi(.LANCHOR10)
	andi	a0,a0,4
	addi	a2,a5,%lo(.LANCHOR10)
	bne	a0,zero,.L432
	.loc 1 577 7 is_stmt 1
	lhu	a5,164(s10)
	.loc 1 580 51 is_stmt 0
	lw	a4,0(s2)
	.loc 1 579 7
	lhu	a0,0(a2)
	.loc 1 577 7
	addi	a5,a5,1
	sh	a5,164(s10)
	.loc 1 578 7 is_stmt 1
	lhu	a5,154(s10)
	.loc 1 579 7 is_stmt 0
	lw	a2,0(s11)
	lw	a1,0(s5)
	.loc 1 578 7
	addi	a5,a5,1
	sh	a5,154(s10)
	.loc 1 579 7 is_stmt 1
	lbu	a3,1(a4)
	lbu	a6,0(a4)
	lbu	a5,3(a4)
	slli	a3,a3,8
	lbu	a7,2(a4)
	or	a6,a3,a6
	lw	a3,4(sp)
	slli	a5,a5,8
	add	a2,a0,a2
	or	a5,a5,a7
	addi	a4,s6,%lo(ip_data+16)
	addi	a3,a3,%lo(ip_data+20)
	li	a0,0
	j	.L423
	.cfi_endproc
.LFE4:
	.size	tcp_input, .-tcp_input
	.section	.text.tcp_trigger_input_pcb_close,"ax",@progbits
	.align	1
	.globl	tcp_trigger_input_pcb_close
	.type	tcp_trigger_input_pcb_close, @function
tcp_trigger_input_pcb_close:
.LFB14:
	.loc 1 2030 1
	.cfi_startproc
	.loc 1 2031 3
	.loc 1 2031 14 is_stmt 0
	lui	a5,%hi(.LANCHOR6)
	addi	a5,a5,%lo(.LANCHOR6)
	lbu	a4,0(a5)
	ori	a4,a4,16
	sb	a4,0(a5)
	.loc 1 2032 1
	ret
	.cfi_endproc
.LFE14:
	.size	tcp_trigger_input_pcb_close, .-tcp_trigger_input_pcb_close
	.comm	tcp_input_pcb,4,4
	.section	.bss.inseg,"aw",@nobits
	.align	2
	.set	.LANCHOR11,. + 0
	.type	inseg, @object
	.size	inseg, 20
inseg:
	.zero	20
	.section	.sbss.ackno,"aw",@nobits
	.align	2
	.set	.LANCHOR8,. + 0
	.type	ackno, @object
	.size	ackno, 4
ackno:
	.zero	4
	.section	.sbss.flags,"aw",@nobits
	.set	.LANCHOR9,. + 0
	.type	flags, @object
	.size	flags, 1
flags:
	.zero	1
	.section	.sbss.recv_acked,"aw",@nobits
	.align	1
	.set	.LANCHOR7,. + 0
	.type	recv_acked, @object
	.size	recv_acked, 2
recv_acked:
	.zero	2
	.section	.sbss.recv_data,"aw",@nobits
	.align	2
	.set	.LANCHOR12,. + 0
	.type	recv_data, @object
	.size	recv_data, 4
recv_data:
	.zero	4
	.section	.sbss.recv_flags,"aw",@nobits
	.set	.LANCHOR6,. + 0
	.type	recv_flags, @object
	.size	recv_flags, 1
recv_flags:
	.zero	1
	.section	.sbss.seqno,"aw",@nobits
	.align	2
	.set	.LANCHOR4,. + 0
	.type	seqno, @object
	.size	seqno, 4
seqno:
	.zero	4
	.section	.sbss.tcp_optidx,"aw",@nobits
	.align	1
	.set	.LANCHOR0,. + 0
	.type	tcp_optidx, @object
	.size	tcp_optidx, 2
tcp_optidx:
	.zero	2
	.section	.sbss.tcphdr,"aw",@nobits
	.align	2
	.set	.LANCHOR3,. + 0
	.type	tcphdr, @object
	.size	tcphdr, 4
tcphdr:
	.zero	4
	.section	.sbss.tcphdr_opt1len,"aw",@nobits
	.align	1
	.set	.LANCHOR2,. + 0
	.type	tcphdr_opt1len, @object
	.size	tcphdr_opt1len, 2
tcphdr_opt1len:
	.zero	2
	.section	.sbss.tcphdr_opt2,"aw",@nobits
	.align	2
	.set	.LANCHOR1,. + 0
	.type	tcphdr_opt2, @object
	.size	tcphdr_opt2, 4
tcphdr_opt2:
	.zero	4
	.section	.sbss.tcphdr_optlen,"aw",@nobits
	.align	1
	.set	.LANCHOR5,. + 0
	.type	tcphdr_optlen, @object
	.size	tcphdr_optlen, 2
tcphdr_optlen:
	.zero	2
	.section	.sbss.tcplen,"aw",@nobits
	.align	1
	.set	.LANCHOR10,. + 0
	.type	tcplen, @object
	.size	tcplen, 2
tcplen:
	.zero	2
	.text
.Letext0:
	.file 2 "/b-l/bl_iot_sdk_new/toolchain/riscv/Linux/riscv64-unknown-elf/include/machine/_default_types.h"
	.file 3 "/b-l/bl_iot_sdk_new/toolchain/riscv/Linux/lib/gcc/riscv64-unknown-elf/8.3.0/include/stddef.h"
	.file 4 "/b-l/bl_iot_sdk_new/toolchain/riscv/Linux/riscv64-unknown-elf/include/sys/_types.h"
	.file 5 "/b-l/bl_iot_sdk_new/toolchain/riscv/Linux/riscv64-unknown-elf/include/sys/reent.h"
	.file 6 "/b-l/bl_iot_sdk_new/toolchain/riscv/Linux/riscv64-unknown-elf/include/sys/lock.h"
	.file 7 "/b-l/bl_iot_sdk_new/toolchain/riscv/Linux/riscv64-unknown-elf/include/sys/_stdint.h"
	.file 8 "/b-l/bl_iot_sdk_new/toolchain/riscv/Linux/riscv64-unknown-elf/include/stdlib.h"
	.file 9 "/b-l/bl_iot_sdk_new/components/network/lwip/src/include/lwip/arch.h"
	.file 10 "/b-l/bl_iot_sdk_new/toolchain/riscv/Linux/riscv64-unknown-elf/include/ctype.h"
	.file 11 "/b-l/bl_iot_sdk_new/components/network/lwip/src/include/lwip/tcpbase.h"
	.file 12 "/b-l/bl_iot_sdk_new/components/network/lwip/src/include/lwip/mem.h"
	.file 13 "/b-l/bl_iot_sdk_new/components/network/lwip/src/include/lwip/err.h"
	.file 14 "/b-l/bl_iot_sdk_new/components/network/lwip/src/include/lwip/pbuf.h"
	.file 15 "/b-l/bl_iot_sdk_new/components/network/lwip/src/include/lwip/ip4_addr.h"
	.file 16 "/b-l/bl_iot_sdk_new/components/network/lwip/src/include/lwip/ip_addr.h"
	.file 17 "/b-l/bl_iot_sdk_new/components/network/lwip/src/include/lwip/memp.h"
	.file 18 "/b-l/bl_iot_sdk_new/components/network/lwip/src/include/lwip/priv/memp_priv.h"
	.file 19 "/b-l/bl_iot_sdk_new/components/network/lwip/src/include/lwip/stats.h"
	.file 20 "/b-l/bl_iot_sdk_new/components/network/lwip/src/include/lwip/netif.h"
	.file 21 "/b-l/bl_iot_sdk_new/components/network/lwip/src/include/lwip/prot/ip4.h"
	.file 22 "/b-l/bl_iot_sdk_new/components/network/lwip/src/include/lwip/ip.h"
	.file 23 "/b-l/bl_iot_sdk_new/components/network/lwip/src/include/lwip/tcp.h"
	.file 24 "/b-l/bl_iot_sdk_new/components/network/lwip/src/include/lwip/priv/tcp_priv.h"
	.file 25 "/b-l/bl_iot_sdk_new/components/network/lwip/src/include/lwip/prot/tcp.h"
	.file 26 "/b-l/bl_iot_sdk_new/components/network/lwip/src/include/lwip/def.h"
	.file 27 "/b-l/bl_iot_sdk_new/components/network/lwip/src/include/lwip/inet_chksum.h"
	.file 28 "/b-l/bl_iot_sdk_new/components/network/lwip/src/include/lwip/ip4.h"