	.file	"tc_blfdt_wifi.c"
	.option nopic
	.attribute arch, "rv32i2p0_m2p0_f2p0_c2p0"
	.attribute unaligned_access, 0
	.attribute stack_align, 16
	.text
.Ltext0:
	.cfi_sections	.debug_frame
	.section	.text.tc_fdt_wifi_module,"ax",@progbits
	.align	1
	.type	tc_fdt_wifi_module, @function
tc_fdt_wifi_module:
.LFB40:
	.file 1 "/b-l/bl_iot_sdk_new/components/stage/blfdt/test/tc_blfdt_wifi.c"
	.loc 1 39 1
	.cfi_startproc
	.loc 1 40 5
.LVL0:
	.loc 1 42 5
	.loc 1 43 5
	.loc 1 45 5
	.loc 1 46 5
	.loc 1 47 5
	.loc 1 39 1 is_stmt 0
	addi	sp,sp,-320
	.cfi_def_cfa_offset 320
	sw	s0,312(sp)
	.loc 1 52 19
	lui	a2,%hi(.LC0)
	.cfi_offset 8, -8
	lui	s0,%hi(tc_wifi_dtb)
	addi	a2,a2,%lo(.LC0)
	li	a1,0
	addi	a0,s0,%lo(tc_wifi_dtb)
	.loc 1 39 1
	sw	ra,316(sp)
	sw	s1,308(sp)
	sw	s2,304(sp)
	sw	s3,300(sp)
	sw	s4,296(sp)
	sw	s5,292(sp)
	sw	s6,288(sp)
	sw	s7,284(sp)
	sw	s8,280(sp)
	sw	s9,276(sp)
	sw	s10,272(sp)
	.cfi_offset 1, -4
	.cfi_offset 9, -12
	.cfi_offset 18, -16
	.cfi_offset 19, -20
	.cfi_offset 20, -24
	.cfi_offset 21, -28
	.cfi_offset 22, -32
	.cfi_offset 23, -36
	.cfi_offset 24, -40
	.cfi_offset 25, -44
	.cfi_offset 26, -48
	.loc 1 47 9
	sw	zero,12(sp)
	.loc 1 48 5 is_stmt 1
.LVL1:
	.loc 1 49 5
	.loc 1 52 5
	.loc 1 52 19 is_stmt 0
	call	fdt_subnode_offset
.LVL2:
	.loc 1 54 5 is_stmt 1
	.loc 1 54 8 is_stmt 0
	bgt	a0,zero,.L2
	.loc 1 55 9 is_stmt 1
	.loc 1 55 14
	.loc 1 55 16
.LBB124:
.LBB125:
	.file 2 "/b-l/bl_iot_sdk_new/components/bl602/freertos_riscv_ram/portable/GCC/RISC-V/portmacro.h"
	.loc 2 151 5
	.loc 2 151 31 is_stmt 0
	lui	a5,%hi(TrapNetCounter)
.LBE125:
.LBE124:
	.loc 1 55 16
	lw	a5,%lo(TrapNetCounter)(a5)
	beq	a5,zero,.L3
	.loc 1 55 94 discriminator 1
	call	xTaskGetTickCountFromISR
.LVL3:
.L4:
	.loc 1 55 16 discriminator 4
	lui	a3,%hi(.LC1)
	lui	a2,%hi(.LC2)
	mv	a1,a0
	lui	a0,%hi(.LC3)
	li	a4,55
	addi	a3,a3,%lo(.LC1)
	addi	a2,a2,%lo(.LC2)
	addi	a0,a0,%lo(.LC3)
.LVL4:
.L101:
	.loc 1 220 16 discriminator 4
	call	bl_printk
.LVL5:
	j	.L102
.LVL6:
.L3:
	.loc 1 55 123 discriminator 2
	call	xTaskGetTickCount
.LVL7:
	j	.L4
.LVL8:
.L2:
	.loc 1 60 15
	lui	a2,%hi(.LC4)
	mv	a1,a0
	mv	s3,a0
	.loc 1 60 5 is_stmt 1
	.loc 1 60 15 is_stmt 0
	addi	a2,a2,%lo(.LC4)
	addi	a0,s0,%lo(tc_wifi_dtb)
.LVL9:
	call	fdt_subnode_offset
.LVL10:
	mv	a1,a0
.LVL11:
	.loc 1 61 5 is_stmt 1
	.loc 1 61 8 is_stmt 0
	ble	a0,zero,.L6
	.loc 1 62 9 is_stmt 1
	.loc 1 62 21 is_stmt 0
	lui	a2,%hi(.LC5)
	addi	a3,sp,12
	addi	a2,a2,%lo(.LC5)
	addi	a0,s0,%lo(tc_wifi_dtb)
.LVL12:
	call	fdt_getprop
.LVL13:
	lui	a5,%hi(TrapNetCounter)
	mv	s2,a0
.LVL14:
	.loc 1 63 9 is_stmt 1
	lui	s1,%hi(.LC1)
	.loc 1 64 20 is_stmt 0
	lw	a5,%lo(TrapNetCounter)(a5)
	.loc 1 63 12
	beq	a0,zero,.L7
	.loc 1 64 13 is_stmt 1
	.loc 1 64 18
	.loc 1 64 20
.LBB126:
.LBB127:
	.loc 2 151 5
.LBE127:
.LBE126:
	.loc 1 64 20 is_stmt 0
	beq	a5,zero,.L8
	.loc 1 64 112 discriminator 1
	call	xTaskGetTickCountFromISR
.LVL15:
.L9:
	.loc 1 64 20 discriminator 4
	lw	a4,0(s2)
.LVL16:
.LBB128:
.LBB129:
	.file 3 "/b-l/bl_iot_sdk_new/components/stage/blfdt/inc/libfdt_env.h"
	.loc 3 122 5 is_stmt 1 discriminator 4
.LBE129:
.LBE128:
	.loc 1 64 20 is_stmt 0 discriminator 4
	lw	a6,12(sp)
	lui	a2,%hi(.LC6)
.LBB131:
.LBB130:
	.loc 3 122 212 discriminator 4
	srli	a3,a4,24
	.loc 3 122 12 discriminator 4
	slli	a5,a4,24
	or	a5,a5,a3
	.loc 3 122 112 discriminator 4
	srli	a3,a4,8
	andi	a3,a3,0xff
	.loc 3 122 163 discriminator 4
	srli	a4,a4,16
	.loc 3 122 117 discriminator 4
	slli	a3,a3,16
	.loc 3 122 163 discriminator 4
	andi	a4,a4,0xff
	.loc 3 122 12 discriminator 4
	or	a5,a5,a3
	.loc 3 122 168 discriminator 4
	slli	a4,a4,8
.LBE130:
.LBE131:
	.loc 1 64 20 discriminator 4
	mv	a1,a0
	lui	a0,%hi(.LC7)
	or	a5,a5,a4
	addi	a3,s1,%lo(.LC1)
	li	a4,64
	addi	a2,a2,%lo(.LC6)
	addi	a0,a0,%lo(.LC7)
	call	bl_printk
.LVL17:
	.loc 1 64 246 is_stmt 1 discriminator 4
.L6:
	.loc 1 71 5
	.loc 1 71 15 is_stmt 0
	lui	a2,%hi(.LC9)
	addi	a2,a2,%lo(.LC9)
	mv	a1,s3
	addi	a0,s0,%lo(tc_wifi_dtb)
	call	fdt_subnode_offset
.LVL18:
	mv	s5,a0
.LVL19:
	.loc 1 72 5 is_stmt 1
	.loc 1 72 8 is_stmt 0
	ble	a0,zero,.L13
	.loc 1 74 9 is_stmt 1
	.loc 1 74 21 is_stmt 0
	lui	a2,%hi(.LC10)
	mv	a1,a0
	addi	a3,sp,12
	addi	a2,a2,%lo(.LC10)
	addi	a0,s0,%lo(tc_wifi_dtb)
.LVL20:
	call	fdt_getprop
.LVL21:
	.loc 1 75 12
	lw	a4,12(sp)
	li	a5,6
	.loc 1 74 21
	mv	a1,a0
.LVL22:
	.loc 1 75 9 is_stmt 1
	lui	s4,%hi(TrapNetCounter)
	lui	s1,%hi(.LC1)
	.loc 1 75 12 is_stmt 0
	bne	a4,a5,.L14
.LBB132:
	.loc 1 76 13 is_stmt 1
	.loc 1 78 13
	li	a2,6
	addi	a0,sp,16
.LVL23:
	call	memcpy
.LVL24:
	.loc 1 79 13
	.loc 1 79 18
	.loc 1 79 20
.LBB133:
.LBB134:
	.loc 2 151 5
.LBE134:
.LBE133:
	.loc 1 79 20 is_stmt 0
	lw	a5,%lo(TrapNetCounter)(s4)
	beq	a5,zero,.L15
	.loc 1 79 97 discriminator 1
	call	xTaskGetTickCountFromISR
.LVL25:
.L16:
	.loc 1 79 20 discriminator 4
	mv	a1,a0
	lui	s2,%hi(.LC6)
	lui	a0,%hi(.LC11)
	li	a4,79
	addi	a3,s1,%lo(.LC1)
	addi	a2,s2,%lo(.LC6)
	addi	a0,a0,%lo(.LC11)
	call	bl_printk
.LVL26:
	.loc 1 79 197 is_stmt 1 discriminator 4
	.loc 1 80 13 discriminator 4
	li	a4,0
	li	a3,6
	addi	a2,sp,16
	li	a1,80
	addi	a0,s1,%lo(.LC1)
	call	log_buf_out
.LVL27:
.LBE132:
	.loc 1 87 9 discriminator 4
	.loc 1 87 21 is_stmt 0 discriminator 4
	lui	a2,%hi(.LC12)
	mv	a1,s5
	addi	a3,sp,12
	addi	a2,a2,%lo(.LC12)
	addi	a0,s0,%lo(tc_wifi_dtb)
	call	fdt_getprop
.LVL28:
	.loc 1 88 12 discriminator 4
	lw	a4,12(sp)
	li	a5,6
	.loc 1 87 21 discriminator 4
	mv	a1,a0
.LVL29:
	.loc 1 88 9 is_stmt 1 discriminator 4
	.loc 1 88 12 is_stmt 0 discriminator 4
	bne	a4,a5,.L13
.LBB135:
	.loc 1 89 13 is_stmt 1
	.loc 1 91 13
	li	a2,6
	addi	a0,sp,16
.LVL30:
	call	memcpy
.LVL31:
	.loc 1 92 13
	.loc 1 92 18
	.loc 1 92 20
.LBB136:
.LBB137:
	.loc 2 151 5
.LBE137:
.LBE136:
	.loc 1 92 20 is_stmt 0
	lw	a5,%lo(TrapNetCounter)(s4)
	beq	a5,zero,.L21
	.loc 1 92 96 discriminator 1
	call	xTaskGetTickCountFromISR
.LVL32:
.L22:
	.loc 1 92 20 discriminator 4
	mv	a1,a0
	lui	a0,%hi(.LC14)
	li	a4,92
	addi	a3,s1,%lo(.LC1)
	addi	a2,s2,%lo(.LC6)
	addi	a0,a0,%lo(.LC14)
	call	bl_printk
.LVL33:
	.loc 1 92 196 is_stmt 1 discriminator 4
	.loc 1 93 13 discriminator 4
	li	a4,0
	li	a3,6
	addi	a2,sp,16
	li	a1,93
	addi	a0,s1,%lo(.LC1)
	call	log_buf_out
.LVL34:
.L13:
.LBE135:
	.loc 1 98 5
	.loc 1 98 15 is_stmt 0
	lui	a2,%hi(.LC15)
	addi	a2,a2,%lo(.LC15)
	mv	a1,s3
	addi	a0,s0,%lo(tc_wifi_dtb)
	call	fdt_subnode_offset
.LVL35:
	mv	s5,a0
.LVL36:
	.loc 1 99 5 is_stmt 1
	.loc 1 99 8 is_stmt 0
	ble	a0,zero,.L23
	.loc 1 101 9 is_stmt 1
	.loc 1 101 22 is_stmt 0
	lui	s2,%hi(.LC16)
	mv	a1,a0
	addi	a2,s2,%lo(.LC16)
	addi	a0,s0,%lo(tc_wifi_dtb)
.LVL37:
	call	fdt_stringlist_count
.LVL38:
	mv	s4,a0
.LVL39:
	.loc 1 102 9 is_stmt 1
	.loc 1 102 12 is_stmt 0
	ble	a0,zero,.L24
	.loc 1 103 20
	li	s1,0
.LBB138:
.LBB139:
	.loc 2 151 31
	lui	s6,%hi(TrapNetCounter)
.LBE139:
.LBE138:
	.loc 1 106 28
	lui	s7,%hi(.LC1)
	lui	s8,%hi(.LC6)
	lui	s9,%hi(.LC17)
.LVL40:
.L28:
	.loc 1 104 17 is_stmt 1
	.loc 1 104 26 is_stmt 0
	addi	a4,sp,12
	mv	a3,s1
	addi	a2,s2,%lo(.LC16)
	mv	a1,s5
	addi	a0,s0,%lo(tc_wifi_dtb)
	call	fdt_stringlist_get
.LVL41:
	.loc 1 105 20
	lw	a5,12(sp)
	.loc 1 104 26
	mv	s10,a0
.LVL42:
	.loc 1 105 17 is_stmt 1
	.loc 1 105 20 is_stmt 0
	ble	a5,zero,.L25
	.loc 1 106 21 is_stmt 1
	.loc 1 106 26
	.loc 1 106 28
.LBB141:
.LBB140:
	.loc 2 151 5
.LBE140:
.LBE141:
	.loc 1 106 28 is_stmt 0
	lw	a5,%lo(TrapNetCounter)(s6)
	beq	a5,zero,.L26
	.loc 1 106 127 discriminator 1
	call	xTaskGetTickCountFromISR
.LVL43:
.L27:
	.loc 1 106 28 discriminator 4
	lw	a7,12(sp)
	mv	a1,a0
	mv	a6,s10
	mv	a5,s1
	li	a4,106
	addi	a3,s7,%lo(.LC1)
	addi	a2,s8,%lo(.LC6)
	addi	a0,s9,%lo(.LC17)
	call	bl_printk
.LVL44:
.L25:
	.loc 1 106 247 is_stmt 1 discriminator 5
	.loc 1 103 42 is_stmt 0 discriminator 5
	addi	s1,s1,1
.LVL45:
	.loc 1 103 13 discriminator 5
	bne	s4,s1,.L28
	.loc 1 115 9 is_stmt 1
	.loc 1 115 22 is_stmt 0
	lui	s2,%hi(.LC19)
	addi	a2,s2,%lo(.LC19)
	mv	a1,s5
	addi	a0,s0,%lo(tc_wifi_dtb)
	call	fdt_stringlist_count
.LVL46:
	mv	s4,a0
.LVL47:
	.loc 1 116 9 is_stmt 1
	.loc 1 116 12 is_stmt 0
	ble	a0,zero,.L32
	.loc 1 117 20
	li	s1,0
.LVL48:
.LBB142:
.LBB143:
	.loc 2 151 31
	lui	s6,%hi(TrapNetCounter)
.LBE143:
.LBE142:
	.loc 1 121 28
	lui	s7,%hi(.LC1)
	lui	s8,%hi(.LC6)
	lui	s9,%hi(.LC20)
.LVL49:
.L36:
	.loc 1 118 17 is_stmt 1
	.loc 1 118 26 is_stmt 0
	addi	a4,sp,12
	mv	a3,s1
	addi	a2,s2,%lo(.LC19)
	mv	a1,s5
	addi	a0,s0,%lo(tc_wifi_dtb)
	call	fdt_stringlist_get
.LVL50:
	.loc 1 119 20
	lw	a5,12(sp)
	.loc 1 118 26
	mv	s10,a0
.LVL51:
	.loc 1 119 17 is_stmt 1
	.loc 1 119 20 is_stmt 0
	ble	a5,zero,.L33
	.loc 1 121 21 is_stmt 1
	.loc 1 121 26
	.loc 1 121 28
.LBB145:
.LBB144:
	.loc 2 151 5
.LBE144:
.LBE145:
	.loc 1 121 28 is_stmt 0
	lw	a5,%lo(TrapNetCounter)(s6)
	beq	a5,zero,.L34
	.loc 1 121 128 discriminator 1
	call	xTaskGetTickCountFromISR
.LVL52:
.L35:
	.loc 1 121 28 discriminator 4
	lw	a7,12(sp)
	mv	a1,a0
	mv	a6,s10
	mv	a5,s1
	li	a4,121
	addi	a3,s7,%lo(.LC1)
	addi	a2,s8,%lo(.LC6)
	addi	a0,s9,%lo(.LC20)
	call	bl_printk
.LVL53:
.L33:
	.loc 1 121 248 is_stmt 1 discriminator 5
	.loc 1 117 42 is_stmt 0 discriminator 5
	addi	s1,s1,1
.LVL54:
	.loc 1 117 13 discriminator 5
	bne	s4,s1,.L36
	.loc 1 130 9 is_stmt 1
	.loc 1 130 21 is_stmt 0
	lui	a2,%hi(.LC22)
	addi	a3,sp,12
	addi	a2,a2,%lo(.LC22)
	mv	a1,s5
	addi	a0,s0,%lo(tc_wifi_dtb)
	call	fdt_getprop
.LVL55:
	lui	s2,%hi(TrapNetCounter)
	mv	s4,a0
.LVL56:
	.loc 1 131 9 is_stmt 1
	lui	s1,%hi(.LC1)
.LVL57:
	.loc 1 132 20 is_stmt 0
	lw	a5,%lo(TrapNetCounter)(s2)
	.loc 1 131 12
	beq	a0,zero,.L40
	.loc 1 132 13 is_stmt 1
	.loc 1 132 18
	.loc 1 132 20
.LBB146:
.LBB147:
	.loc 2 151 5
.LBE147:
.LBE146:
	.loc 1 132 20 is_stmt 0
	beq	a5,zero,.L41
	.loc 1 132 104 discriminator 1
	call	xTaskGetTickCountFromISR
.LVL58:
.L42:
	.loc 1 132 20 discriminator 4
	lw	a4,0(s4)
.LVL59:
.LBB148:
.LBB149:
	.loc 3 122 5 is_stmt 1 discriminator 4
.LBE149:
.LBE148:
	.loc 1 132 20 is_stmt 0 discriminator 4
	mv	a1,a0
	lui	s4,%hi(.LC6)
.LVL60:
.LBB151:
.LBB150:
	.loc 3 122 212 discriminator 4
	srli	a3,a4,24
	.loc 3 122 12 discriminator 4
	slli	a5,a4,24
	or	a5,a5,a3
	.loc 3 122 112 discriminator 4
	srli	a3,a4,8
	andi	a3,a3,0xff
	.loc 3 122 163 discriminator 4
	srli	a4,a4,16
	.loc 3 122 117 discriminator 4
	slli	a3,a3,16
	.loc 3 122 163 discriminator 4
	andi	a4,a4,0xff
	.loc 3 122 12 discriminator 4
	or	a5,a5,a3
	.loc 3 122 168 discriminator 4
	slli	a4,a4,8
.LBE150:
.LBE151:
	.loc 1 132 20 discriminator 4
	lui	a0,%hi(.LC23)
	or	a5,a5,a4
	addi	a3,s1,%lo(.LC1)
	li	a4,132
	addi	a2,s4,%lo(.LC6)
	addi	a0,a0,%lo(.LC23)
	call	bl_printk
.LVL61:
	.loc 1 132 231 is_stmt 1 discriminator 4
	.loc 1 139 9 discriminator 4
	.loc 1 139 22 is_stmt 0 discriminator 4
	lui	s7,%hi(.LC24)
	addi	a2,s7,%lo(.LC24)
	mv	a1,s5
	addi	a0,s0,%lo(tc_wifi_dtb)
	call	fdt_stringlist_count
.LVL62:
	mv	s8,a0
.LVL63:
	.loc 1 140 9 is_stmt 1 discriminator 4
	.loc 1 141 20 is_stmt 0 discriminator 4
	li	s6,0
	.loc 1 140 12 discriminator 4
	ble	a0,zero,.L94
	.loc 1 144 28
	lui	s9,%hi(.LC26)
.LVL64:
.L43:
	.loc 1 142 17 is_stmt 1
	.loc 1 142 26 is_stmt 0
	addi	a4,sp,12
	mv	a3,s6
	addi	a2,s7,%lo(.LC24)
	mv	a1,s5
	addi	a0,s0,%lo(tc_wifi_dtb)
	call	fdt_stringlist_get
.LVL65:
	.loc 1 143 20
	lw	a5,12(sp)
	.loc 1 142 26
	mv	s10,a0
.LVL66:
	.loc 1 143 17 is_stmt 1
	.loc 1 143 20 is_stmt 0
	ble	a5,zero,.L47
	.loc 1 144 21 is_stmt 1
	.loc 1 144 26
	.loc 1 144 28
.LBB152:
.LBB153:
	.loc 2 151 5
.LBE153:
.LBE152:
	.loc 1 144 28 is_stmt 0
	lw	a5,%lo(TrapNetCounter)(s2)
	beq	a5,zero,.L48
	.loc 1 144 141 discriminator 1
	call	xTaskGetTickCountFromISR
.LVL67:
.L49:
	.loc 1 144 28 discriminator 4
	lw	a7,12(sp)
	mv	a1,a0
	mv	a6,s10
	mv	a5,s6
	li	a4,144
	addi	a3,s1,%lo(.LC1)
	addi	a2,s4,%lo(.LC6)
	addi	a0,s9,%lo(.LC26)
	call	bl_printk
.LVL68:
.L47:
	.loc 1 144 261 is_stmt 1 discriminator 5
	.loc 1 141 42 is_stmt 0 discriminator 5
	addi	s6,s6,1
.LVL69:
	.loc 1 141 13 discriminator 5
	bne	s8,s6,.L43
	.loc 1 157 5 is_stmt 1
	.loc 1 157 15 is_stmt 0
	lui	a2,%hi(.LC28)
	mv	a1,s3
	addi	a2,a2,%lo(.LC28)
	addi	a0,s0,%lo(tc_wifi_dtb)
	call	fdt_subnode_offset
.LVL70:
	mv	s3,a0
.LVL71:
	.loc 1 158 5 is_stmt 1
	.loc 1 158 8 is_stmt 0
	ble	a0,zero,.L55
	.loc 1 160 9 is_stmt 1
	.loc 1 160 21 is_stmt 0
	lui	a2,%hi(.LC29)
	mv	a1,a0
	addi	a3,sp,12
	addi	a2,a2,%lo(.LC29)
	addi	a0,s0,%lo(tc_wifi_dtb)
.LVL72:
	call	fdt_getprop
.LVL73:
	.loc 1 161 12
	lw	a4,12(sp)
	li	a5,20
	.loc 1 160 21
	mv	a1,a0
.LVL74:
	.loc 1 161 9 is_stmt 1
	.loc 1 161 12 is_stmt 0
	bne	a4,a5,.L56
.LBB154:
	.loc 1 162 13 is_stmt 1
	.loc 1 164 13
	li	a2,20
	addi	a0,sp,16
.LVL75:
	call	memcpy
.LVL76:
	.loc 1 165 13
	.loc 1 165 18
	.loc 1 165 20
.LBB155:
.LBB156:
	.loc 2 151 5
.LBE156:
.LBE155:
	.loc 1 165 20 is_stmt 0
	lw	a5,%lo(TrapNetCounter)(s2)
	beq	a5,zero,.L57
	.loc 1 165 94 discriminator 1
	call	xTaskGetTickCountFromISR
.LVL77:
.L58:
	.loc 1 165 20 discriminator 4
	mv	a1,a0
	lui	a0,%hi(.LC30)
	li	a4,165
	addi	a3,s1,%lo(.LC1)
	addi	a2,s4,%lo(.LC6)
	addi	a0,a0,%lo(.LC30)
	call	bl_printk
.LVL78:
	.loc 1 165 195 is_stmt 1 discriminator 4
	.loc 1 166 13 discriminator 4
	li	a4,0
	li	a3,20
	addi	a2,sp,16
	li	a1,166
	addi	a0,s1,%lo(.LC1)
	call	log_buf_out
.LVL79:
.LBE154:
	.loc 1 172 9 discriminator 4
	.loc 1 172 21 is_stmt 0 discriminator 4
	lui	a2,%hi(.LC31)
	mv	a1,s3
	addi	a3,sp,12
	addi	a2,a2,%lo(.LC31)
	addi	a0,s0,%lo(tc_wifi_dtb)
	call	fdt_getprop
.LVL80:
	.loc 1 173 12 discriminator 4
	lw	a4,12(sp)
	li	a5,256
	.loc 1 172 21 discriminator 4
	mv	a1,a0
.LVL81:
	.loc 1 173 9 is_stmt 1 discriminator 4
	.loc 1 173 12 is_stmt 0 discriminator 4
	beq	a4,a5,.L59
	.loc 1 180 13 is_stmt 1
	.loc 1 180 18
	.loc 1 180 20
.LBB157:
.LBB158:
	.loc 2 151 5
.LBE158:
.LBE157:
	.loc 1 180 20 is_stmt 0
	lw	a5,%lo(TrapNetCounter)(s2)
	beq	a5,zero,.L67
	.loc 1 180 116 discriminator 1
	call	xTaskGetTickCountFromISR
.LVL82:
.L68:
	.loc 1 180 20 discriminator 4
	lw	a5,12(sp)
	lui	a2,%hi(.LC2)
	mv	a1,a0
	lui	a0,%hi(.LC35)
	li	a4,180
	addi	a3,s1,%lo(.LC1)
	addi	a2,a2,%lo(.LC2)
	addi	a0,a0,%lo(.LC35)
	call	bl_printk
.LVL83:
	.loc 1 180 225 is_stmt 1 discriminator 4
	.loc 1 181 13 discriminator 4
.L102:
	.loc 1 220 197 discriminator 4
	.loc 1 221 9 discriminator 4
	.loc 1 221 16 is_stmt 0 discriminator 4
	li	a0,-1
	j	.L1
.LVL84:
.L8:
	.loc 1 64 141 discriminator 2
	call	xTaskGetTickCount
.LVL85:
	j	.L9
.LVL86:
.L7:
	.loc 1 66 13 is_stmt 1
	.loc 1 66 18
	.loc 1 66 20
.LBB159:
.LBB160:
	.loc 2 151 5
.LBE160:
.LBE159:
	.loc 1 66 20 is_stmt 0
	beq	a5,zero,.L10
	.loc 1 66 106 discriminator 1
	call	xTaskGetTickCountFromISR
.LVL87:
.L11:
	.loc 1 66 20 discriminator 4
	lui	a2,%hi(.LC2)
	mv	a1,a0
	lui	a0,%hi(.LC8)
	li	a4,66
	addi	a3,s1,%lo(.LC1)
	addi	a2,a2,%lo(.LC2)
	addi	a0,a0,%lo(.LC8)
	j	.L101
.LVL88:
.L10:
	.loc 1 66 135 discriminator 2
	call	xTaskGetTickCount
.LVL89:
	j	.L11
.LVL90:
.L15:
.LBB161:
	.loc 1 79 126 discriminator 2
	call	xTaskGetTickCount
.LVL91:
	j	.L16
.LVL92:
.L14:
.LBE161:
	.loc 1 82 13 is_stmt 1
	.loc 1 82 18
	.loc 1 82 20
.LBB162:
.LBB163:
	.loc 2 151 5
.LBE163:
.LBE162:
	.loc 1 82 20 is_stmt 0
	lw	a5,%lo(TrapNetCounter)(s4)
	beq	a5,zero,.L19
	.loc 1 82 106 discriminator 1
	call	xTaskGetTickCountFromISR
.LVL93:
.L20:
	.loc 1 82 20 discriminator 4
	lui	a2,%hi(.LC2)
	mv	a1,a0
	lui	a0,%hi(.LC13)
	li	a4,82
	addi	a3,s1,%lo(.LC1)
	addi	a2,a2,%lo(.LC2)
	addi	a0,a0,%lo(.LC13)
	j	.L101
.LVL94:
.L19:
	.loc 1 82 135 discriminator 2
	call	xTaskGetTickCount
.LVL95:
	j	.L20
.L21:
.LBB164:
	.loc 1 92 125 discriminator 2
	call	xTaskGetTickCount
.LVL96:
	j	.L22
.LVL97:
.L26:
.LBE164:
	.loc 1 106 156 discriminator 2
	call	xTaskGetTickCount
.LVL98:
	j	.L27
.LVL99:
.L24:
	.loc 1 110 13 is_stmt 1
	.loc 1 110 18
	.loc 1 110 20
.LBB165:
.LBB166:
	.loc 2 151 5
	.loc 2 151 31 is_stmt 0
	lui	a5,%hi(TrapNetCounter)
.LBE166:
.LBE165:
	.loc 1 110 20
	lw	a5,%lo(TrapNetCounter)(a5)
	beq	a5,zero,.L30
	.loc 1 110 96 discriminator 1
	call	xTaskGetTickCountFromISR
.LVL100:
.L31:
	.loc 1 110 20 discriminator 4
	li	a4,110
.LVL101:
.L103:
	.loc 1 152 16 discriminator 4
	lui	a3,%hi(.LC1)
	lui	a2,%hi(.LC2)
	mv	a1,a0
	lui	a0,%hi(.LC18)
	addi	a3,a3,%lo(.LC1)
	addi	a2,a2,%lo(.LC2)
	addi	a0,a0,%lo(.LC18)
	j	.L101
.LVL102:
.L30:
	.loc 1 110 125 discriminator 2
	call	xTaskGetTickCount
.LVL103:
	j	.L31
.LVL104:
.L34:
	.loc 1 121 157 discriminator 2
	call	xTaskGetTickCount
.LVL105:
	j	.L35
.LVL106:
.L32:
	.loc 1 125 13 is_stmt 1
	.loc 1 125 18
	.loc 1 125 20
.LBB167:
.LBB168:
	.loc 2 151 5
	.loc 2 151 31 is_stmt 0
	lui	a5,%hi(TrapNetCounter)
.LBE168:
.LBE167:
	.loc 1 125 20
	lw	a5,%lo(TrapNetCounter)(a5)
	beq	a5,zero,.L38
	.loc 1 125 97 discriminator 1
	call	xTaskGetTickCountFromISR
.LVL107:
.L39:
	.loc 1 125 20 discriminator 4
	lui	a3,%hi(.LC1)
	lui	a2,%hi(.LC2)
	mv	a1,a0
	lui	a0,%hi(.LC21)
	li	a4,125
	addi	a3,a3,%lo(.LC1)
	addi	a2,a2,%lo(.LC2)
	addi	a0,a0,%lo(.LC21)
	j	.L101
.LVL108:
.L38:
	.loc 1 125 126 discriminator 2
	call	xTaskGetTickCount
.LVL109:
	j	.L39
.LVL110:
.L41:
	.loc 1 132 133 discriminator 2
	call	xTaskGetTickCount
.LVL111:
	j	.L42
.LVL112:
.L40:
	.loc 1 134 13 is_stmt 1
	.loc 1 134 18
	.loc 1 134 20
.LBB169:
.LBB170:
	.loc 2 151 5
.LBE170:
.LBE169:
	.loc 1 134 20 is_stmt 0
	beq	a5,zero,.L45
	.loc 1 134 104 discriminator 1
	call	xTaskGetTickCountFromISR
.LVL113:
.L46:
	.loc 1 134 20 discriminator 4
	lui	a2,%hi(.LC2)
	mv	a1,a0
	lui	a0,%hi(.LC25)
	li	a4,134
	addi	a3,s1,%lo(.LC1)
	addi	a2,a2,%lo(.LC2)
	addi	a0,a0,%lo(.LC25)
	j	.L101
.LVL114:
.L45:
	.loc 1 134 133 discriminator 2
	call	xTaskGetTickCount
.LVL115:
	j	.L46
.LVL116:
.L48:
	.loc 1 144 170 discriminator 2
	call	xTaskGetTickCount
.LVL117:
	j	.L49
.LVL118:
.L94:
	.loc 1 148 13 is_stmt 1
	.loc 1 148 18
	.loc 1 148 20
.LBB171:
.LBB172:
	.loc 2 151 5
.LBE172:
.LBE171:
	.loc 1 148 20 is_stmt 0
	lw	a5,%lo(TrapNetCounter)(s2)
	beq	a5,zero,.L51
	.loc 1 148 110 discriminator 1
	call	xTaskGetTickCountFromISR
.LVL119:
.L52:
	.loc 1 148 20 discriminator 4
	lui	a2,%hi(.LC2)
	mv	a1,a0
	lui	a0,%hi(.LC27)
	li	a4,148
	addi	a3,s1,%lo(.LC1)
	addi	a2,a2,%lo(.LC2)
	addi	a0,a0,%lo(.LC27)
	j	.L101
.LVL120:
.L51:
	.loc 1 148 139 discriminator 2
	call	xTaskGetTickCount
.LVL121:
	j	.L52
.LVL122:
.L23:
	.loc 1 152 9 is_stmt 1
	.loc 1 152 14
	.loc 1 152 16
.LBB173:
.LBB174:
	.loc 2 151 5
	.loc 2 151 31 is_stmt 0
	lui	a5,%hi(TrapNetCounter)
.LBE174:
.LBE173:
	.loc 1 152 16
	lw	a5,%lo(TrapNetCounter)(a5)
	beq	a5,zero,.L53
	.loc 1 152 92 discriminator 1
	call	xTaskGetTickCountFromISR
.LVL123:
.L54:
	.loc 1 152 16 discriminator 4
	li	a4,152
	j	.L103
.LVL124:
.L53:
	.loc 1 152 121 discriminator 2
	call	xTaskGetTickCount
.LVL125:
	j	.L54
.LVL126:
.L57:
.LBB175:
	.loc 1 165 123 discriminator 2
	call	xTaskGetTickCount
.LVL127:
	j	.L58
.LVL128:
.L56:
.LBE175:
	.loc 1 168 13 is_stmt 1
	.loc 1 168 18
	.loc 1 168 20
.LBB176:
.LBB177:
	.loc 2 151 5
.LBE177:
.LBE176:
	.loc 1 168 20 is_stmt 0
	lw	a5,%lo(TrapNetCounter)(s2)
	beq	a5,zero,.L61
	.loc 1 168 94 discriminator 1
	call	xTaskGetTickCountFromISR
.LVL129:
.L62:
	.loc 1 168 20 discriminator 4
	lui	a2,%hi(.LC2)
	mv	a1,a0
	lui	a0,%hi(.LC32)
	li	a4,168
	addi	a3,s1,%lo(.LC1)
	addi	a2,a2,%lo(.LC2)
	addi	a0,a0,%lo(.LC32)
	j	.L101
.LVL130:
.L61:
	.loc 1 168 123 discriminator 2
	call	xTaskGetTickCount
.LVL131:
	j	.L62
.LVL132:
.L59:
.LBB178:
	.loc 1 174 13 is_stmt 1
	.loc 1 176 13
	li	a2,256
	addi	a0,sp,16
.LVL133:
	call	memcpy
.LVL134:
	.loc 1 177 13
	.loc 1 177 18
	.loc 1 177 20
.LBB179:
.LBB180:
	.loc 2 151 5
.LBE180:
.LBE179:
	.loc 1 177 20 is_stmt 0
	lw	a5,%lo(TrapNetCounter)(s2)
	beq	a5,zero,.L63
	.loc 1 177 99 discriminator 1
	call	xTaskGetTickCountFromISR
.LVL135:
.L64:
	.loc 1 177 20 discriminator 4
	mv	a1,a0
	lui	a0,%hi(.LC33)
	li	a4,177
	addi	a3,s1,%lo(.LC1)
	addi	a2,s4,%lo(.LC6)
	addi	a0,a0,%lo(.LC33)
	call	bl_printk
.LVL136:
	.loc 1 177 200 is_stmt 1 discriminator 4
	.loc 1 178 13 discriminator 4
	li	a4,0
	li	a3,256
	addi	a2,sp,16
	li	a1,178
	addi	a0,s1,%lo(.LC1)
	call	log_buf_out
.LVL137:
.LBE178:
	.loc 1 184 9 discriminator 4
	.loc 1 184 21 is_stmt 0 discriminator 4
	lui	a2,%hi(.LC34)
	mv	a1,s3
	addi	a3,sp,12
	addi	a2,a2,%lo(.LC34)
	addi	a0,s0,%lo(tc_wifi_dtb)
	call	fdt_getprop
.LVL138:
	.loc 1 185 12 discriminator 4
	lw	a4,12(sp)
	li	a5,60
	.loc 1 184 21 discriminator 4
	mv	a1,a0
.LVL139:
	.loc 1 185 9 is_stmt 1 discriminator 4
	.loc 1 185 12 is_stmt 0 discriminator 4
	beq	a4,a5,.L65
	.loc 1 192 13 is_stmt 1
	.loc 1 192 18
	.loc 1 192 20
.LBB181:
.LBB182:
	.loc 2 151 5
.LBE182:
.LBE181:
	.loc 1 192 20 is_stmt 0
	lw	a5,%lo(TrapNetCounter)(s2)
	beq	a5,zero,.L73
	.loc 1 192 111 discriminator 1
	call	xTaskGetTickCountFromISR
.LVL140:
.L74:
	.loc 1 192 20 discriminator 4
	lui	a2,%hi(.LC2)
	mv	a1,a0
	lui	a0,%hi(.LC38)
	li	a4,192
	addi	a3,s1,%lo(.LC1)
	addi	a2,a2,%lo(.LC2)
	addi	a0,a0,%lo(.LC38)
	j	.L101
.L63:
.LBB183:
	.loc 1 177 128 discriminator 2
	call	xTaskGetTickCount
.LVL141:
	j	.L64
.LVL142:
.L67:
.LBE183:
	.loc 1 180 145 discriminator 2
	call	xTaskGetTickCount
.LVL143:
	j	.L68
.LVL144:
.L65:
.LBB184:
	.loc 1 186 13 is_stmt 1
	.loc 1 188 13
	li	a2,60
	addi	a0,sp,16
.LVL145:
	call	memcpy
.LVL146:
	.loc 1 189 13
	.loc 1 189 18
	.loc 1 189 20
.LBB185:
.LBB186:
	.loc 2 151 5
.LBE186:
.LBE185:
	.loc 1 189 20 is_stmt 0
	lw	a5,%lo(TrapNetCounter)(s2)
	beq	a5,zero,.L69
	.loc 1 189 107 discriminator 1
	call	xTaskGetTickCountFromISR
.LVL147:
.L70:
	.loc 1 189 20 discriminator 4
	mv	a1,a0
	lui	a0,%hi(.LC36)
	li	a4,189
	addi	a3,s1,%lo(.LC1)
	addi	a2,s4,%lo(.LC6)
	addi	a0,a0,%lo(.LC36)
	call	bl_printk
.LVL148:
	.loc 1 189 208 is_stmt 1 discriminator 4
	.loc 1 190 13 discriminator 4
	li	a4,0
	li	a3,60
	addi	a2,sp,16
	li	a1,190
	addi	a0,s1,%lo(.LC1)
	call	log_buf_out
.LVL149:
.LBE184:
	.loc 1 196 9 discriminator 4
	.loc 1 196 21 is_stmt 0 discriminator 4
	lui	a2,%hi(.LC37)
	mv	a1,s3
	addi	a3,sp,12
	addi	a2,a2,%lo(.LC37)
	addi	a0,s0,%lo(tc_wifi_dtb)
	call	fdt_getprop
.LVL150:
	.loc 1 197 12 discriminator 4
	lw	a4,12(sp)
	li	a5,56
	.loc 1 196 21 discriminator 4
	mv	a1,a0
.LVL151:
	.loc 1 197 9 is_stmt 1 discriminator 4
	.loc 1 197 12 is_stmt 0 discriminator 4
	beq	a4,a5,.L71
	.loc 1 204 13 is_stmt 1
	.loc 1 204 18
	.loc 1 204 20
.LBB187:
.LBB188:
	.loc 2 151 5
.LBE188:
.LBE187:
	.loc 1 204 20 is_stmt 0
	lw	a5,%lo(TrapNetCounter)(s2)
	beq	a5,zero,.L79
	.loc 1 204 111 discriminator 1
	call	xTaskGetTickCountFromISR
.LVL152:
.L80:
	.loc 1 204 20 discriminator 4
	lui	a2,%hi(.LC2)
	mv	a1,a0
	lui	a0,%hi(.LC41)
	li	a4,204
	addi	a3,s1,%lo(.LC1)
	addi	a2,a2,%lo(.LC2)
	addi	a0,a0,%lo(.LC41)
	j	.L101
.L69:
.LBB189:
	.loc 1 189 136 discriminator 2
	call	xTaskGetTickCount
.LVL153:
	j	.L70
.LVL154:
.L73:
.LBE189:
	.loc 1 192 140 discriminator 2
	call	xTaskGetTickCount
.LVL155:
	j	.L74
.LVL156:
.L71:
.LBB190:
	.loc 1 198 13 is_stmt 1
	.loc 1 200 13
	li	a2,56
	addi	a0,sp,16
.LVL157:
	call	memcpy
.LVL158:
	.loc 1 201 13
	.loc 1 201 18
	.loc 1 201 20
.LBB191:
.LBB192:
	.loc 2 151 5
.LBE192:
.LBE191:
	.loc 1 201 20 is_stmt 0
	lw	a5,%lo(TrapNetCounter)(s2)
	beq	a5,zero,.L75
	.loc 1 201 107 discriminator 1
	call	xTaskGetTickCountFromISR
.LVL159:
.L76:
	.loc 1 201 20 discriminator 4
	mv	a1,a0
	lui	a0,%hi(.LC39)
	li	a4,201
	addi	a3,s1,%lo(.LC1)
	addi	a2,s4,%lo(.LC6)
	addi	a0,a0,%lo(.LC39)
	call	bl_printk
.LVL160:
	.loc 1 201 208 is_stmt 1 discriminator 4
	.loc 1 202 13 discriminator 4
	li	a4,0
	li	a3,56
	addi	a2,sp,16
	li	a1,202
	addi	a0,s1,%lo(.LC1)
	call	log_buf_out
.LVL161:
.LBE190:
	.loc 1 208 9 discriminator 4
	.loc 1 208 21 is_stmt 0 discriminator 4
	lui	a2,%hi(.LC40)
	mv	a1,s3
	addi	a3,sp,12
	addi	a2,a2,%lo(.LC40)
	addi	a0,s0,%lo(tc_wifi_dtb)
	call	fdt_getprop
.LVL162:
	.loc 1 209 12 discriminator 4
	lw	a4,12(sp)
	li	a5,4
	.loc 1 208 21 discriminator 4
	mv	a1,a0
.LVL163:
	.loc 1 209 9 is_stmt 1 discriminator 4
	.loc 1 209 12 is_stmt 0 discriminator 4
	beq	a4,a5,.L77
	.loc 1 216 13 is_stmt 1
	.loc 1 216 18
	.loc 1 216 20
.LBB193:
.LBB194:
	.loc 2 151 5
.LBE194:
.LBE193:
	.loc 1 216 20 is_stmt 0
	lw	a5,%lo(TrapNetCounter)(s2)
	beq	a5,zero,.L83
	.loc 1 216 105 discriminator 1
	call	xTaskGetTickCountFromISR
.LVL164:
.L84:
	.loc 1 216 20 discriminator 4
	lui	a2,%hi(.LC2)
	mv	a1,a0
	lui	a0,%hi(.LC43)
	li	a4,216
	addi	a3,s1,%lo(.LC1)
	addi	a2,a2,%lo(.LC2)
	addi	a0,a0,%lo(.LC43)
	j	.L101
.L75:
.LBB195:
	.loc 1 201 136 discriminator 2
	call	xTaskGetTickCount
.LVL165:
	j	.L76
.LVL166:
.L79:
.LBE195:
	.loc 1 204 140 discriminator 2
	call	xTaskGetTickCount
.LVL167:
	j	.L80
.LVL168:
.L77:
.LBB196:
	.loc 1 210 13 is_stmt 1
	.loc 1 212 13
	li	a2,4
	addi	a0,sp,16
.LVL169:
	call	memcpy
.LVL170:
	.loc 1 213 13
	.loc 1 213 18
	.loc 1 213 20
.LBB197:
.LBB198:
	.loc 2 151 5
.LBE198:
.LBE197:
	.loc 1 213 20 is_stmt 0
	lw	a5,%lo(TrapNetCounter)(s2)
	beq	a5,zero,.L81
	.loc 1 213 101 discriminator 1
	call	xTaskGetTickCountFromISR
.LVL171:
.L82:
	.loc 1 213 20 discriminator 4
	mv	a1,a0
	lui	a0,%hi(.LC42)
	li	a4,213
	addi	a3,s1,%lo(.LC1)
	addi	a2,s4,%lo(.LC6)
	addi	a0,a0,%lo(.LC42)
	call	bl_printk
.LVL172:
	.loc 1 213 202 is_stmt 1 discriminator 4
	.loc 1 214 13 discriminator 4
	li	a4,0
	li	a3,4
	addi	a2,sp,16
	li	a1,214
	addi	a0,s1,%lo(.LC1)
	call	log_buf_out
.LVL173:
.LBE196:
	.loc 1 224 5 discriminator 4
	.loc 1 224 12 is_stmt 0 discriminator 4
	li	a0,0
.LVL174:
.L1:
	.loc 1 225 1
	lw	ra,316(sp)
	.cfi_remember_state
	.cfi_restore 1
	lw	s0,312(sp)
	.cfi_restore 8
	lw	s1,308(sp)
	.cfi_restore 9
	lw	s2,304(sp)
	.cfi_restore 18
	lw	s3,300(sp)
	.cfi_restore 19
	lw	s4,296(sp)
	.cfi_restore 20
	lw	s5,292(sp)
	.cfi_restore 21
	lw	s6,288(sp)
	.cfi_restore 22
	lw	s7,284(sp)
	.cfi_restore 23
	lw	s8,280(sp)
	.cfi_restore 24
	lw	s9,276(sp)
	.cfi_restore 25
	lw	s10,272(sp)
	.cfi_restore 26
	addi	sp,sp,320
	.cfi_def_cfa_offset 0
	jr	ra
.LVL175:
.L81:
	.cfi_restore_state
.LBB199:
	.loc 1 213 130 discriminator 2
	call	xTaskGetTickCount
.LVL176:
	j	.L82
.LVL177:
.L83:
.LBE199:
	.loc 1 216 134 discriminator 2
	call	xTaskGetTickCount
.LVL178:
	j	.L84
.LVL179:
.L55:
	.loc 1 220 9 is_stmt 1
	.loc 1 220 14
	.loc 1 220 16
.LBB200:
.LBB201:
	.loc 2 151 5
.LBE201:
.LBE200:
	.loc 1 220 16 is_stmt 0
	lw	a5,%lo(TrapNetCounter)(s2)
	beq	a5,zero,.L85
	.loc 1 220 96 discriminator 1
	call	xTaskGetTickCountFromISR
.LVL180:
.L86:
	.loc 1 220 16 discriminator 4
	lui	a2,%hi(.LC2)
	mv	a1,a0
	lui	a0,%hi(.LC44)
	li	a4,220
	addi	a3,s1,%lo(.LC1)
	addi	a2,a2,%lo(.LC2)
	addi	a0,a0,%lo(.LC44)
	j	.L101
.LVL181:
.L85:
	.loc 1 220 125 discriminator 2
	call	xTaskGetTickCount
.LVL182:
	j	.L86
	.cfi_endproc
.LFE40:
	.size	tc_fdt_wifi_module, .-tc_fdt_wifi_module
	.section	.text.tc_fdt_wifi,"ax",@progbits
	.align	1
	.globl	tc_fdt_wifi
	.type	tc_fdt_wifi, @function
tc_fdt_wifi:
.LFB41:
	.loc 1 228 1 is_stmt 1
	.cfi_startproc
	.loc 1 229 5
	.loc 1 230 5
	.loc 1 228 1 is_stmt 0
	addi	sp,sp,-16
	.cfi_def_cfa_offset 16
	sw	s0,8(sp)
	sw	ra,12(sp)
	.cfi_offset 8, -8
	.cfi_offset 1, -4
	.loc 1 230 14
	call	tc_fdt_wifi_module
.LVL183:
	mv	s0,a0
.LVL184:
	.loc 1 232 5 is_stmt 1
	.loc 1 232 8 is_stmt 0
	beq	a0,zero,.L105
	.loc 1 233 9 is_stmt 1
	lui	a0,%hi(.LC45)
	addi	a0,a0,%lo(.LC45)
.L108:
	.loc 1 235 9 is_stmt 0
	call	printf
.LVL185:
	.loc 1 238 5 is_stmt 1
	.loc 1 239 1 is_stmt 0
	mv	a0,s0
	lw	ra,12(sp)
	.cfi_remember_state
	.cfi_restore 1
	lw	s0,8(sp)
	.cfi_restore 8
.LVL186:
	addi	sp,sp,16
	.cfi_def_cfa_offset 0
	jr	ra
.LVL187:
.L105:
	.cfi_restore_state
	.loc 1 235 9 is_stmt 1
	lui	a0,%hi(.LC46)
	addi	a0,a0,%lo(.LC46)
	j	.L108
	.cfi_endproc
.LFE41:
	.size	tc_fdt_wifi, .-tc_fdt_wifi
	.section	.rodata.tc_fdt_wifi.str1.4,"aMS",@progbits,1
	.align	2
.LC45:
	.string	"fdt wifi module failed\r\n"
	.zero	3
.LC46:
	.string	"fdt wifi module successed\r\n"
	.section	.rodata.tc_fdt_wifi_module.str1.4,"aMS",@progbits,1
	.align	2
.LC0:
	.string	"wifi"
	.zero	3
.LC1:
	.string	"tc_blfdt_wifi.c"
.LC2:
	.string	"\033[31mERROR \033[0m"
.LC3:
	.string	"[%10u][%s: %s:%4d] wifi NULL.\r\n"
.LC4:
	.string	"region"
	.zero	1
.LC5:
	.string	"country_code"
	.zero	3
.LC6:
	.string	"\033[32mINFO  \033[0m"
.LC7:
	.string	"[%10u][%s: %s:%4d] value = %ld, lentmp = %d\r\n"
	.zero	2
.LC8:
	.string	"[%10u][%s: %s:%4d] country_code NULL.\r\n"
.LC9:
	.string	"mac"
.LC10:
	.string	"sta_mac_addr"
	.zero	3
.LC11:
	.string	"[%10u][%s: %s:%4d] sta_mac :\r\n"
	.zero	1
.LC12:
	.string	"ap_mac_addr"
.LC13:
	.string	"[%10u][%s: %s:%4d] sta_mac_addr NULL.\r\n"
.LC14:
	.string	"[%10u][%s: %s:%4d] ap_mac :\r\n"
	.zero	2
.LC15:
	.string	"ap"
	.zero	1
.LC16:
	.string	"ssid"
	.zero	3
.LC17:
	.string	"[%10u][%s: %s:%4d] ap string[%d] = %s, lentmp = %d\r\n"
	.zero	3
.LC18:
	.string	"[%10u][%s: %s:%4d] ap NULL.\r\n"
	.zero	2
.LC19:
	.string	"pwd"
.LC20:
	.string	"[%10u][%s: %s:%4d] pwd string[%d] = %s, lentmp = %d\r\n"
	.zero	2
.LC21:
	.string	"[%10u][%s: %s:%4d] pwd NULL.\r\n"
	.zero	1
.LC22:
	.string	"ap_channel"
	.zero	1
.LC23:
	.string	"[%10u][%s: %s:%4d] ap_channel = %ld\r\n"
	.zero	2
.LC24:
	.string	"auto_chan_detect"
	.zero	3
.LC25:
	.string	"[%10u][%s: %s:%4d] ap_channel NULL.\r\n"
	.zero	2
.LC26:
	.string	"[%10u][%s: %s:%4d] auto_chan_detect string[%d] = %s, lentmp = %d\r\n"
	.zero	1
.LC27:
	.string	"[%10u][%s: %s:%4d] auto_chan_detect NULL.\r\n"
.LC28:
	.string	"brd_rf"
	.zero	1
.LC29:
	.string	"xtal"
	.zero	3
.LC30:
	.string	"[%10u][%s: %s:%4d] xtal :\r\n"
.LC31:
	.string	"pwr_table"
	.zero	2
.LC32:
	.string	"[%10u][%s: %s:%4d] xtal NULL."
	.zero	2
.LC33:
	.string	"[%10u][%s: %s:%4d] pwr_table :\r\n"
	.zero	3
.LC34:
	.string	"channel_div_table"
	.zero	2
.LC35:
	.string	"[%10u][%s: %s:%4d] pwr_table NULL. lentmp = %d.\r\n"
	.zero	2
.LC36:
	.string	"[%10u][%s: %s:%4d] channel_div_table :\r\n"
	.zero	3
.LC37:
	.string	"channel_cnt_table"
	.zero	2
.LC38:
	.string	"[%10u][%s: %s:%4d] channel_div_table NULL.\r\n"
	.zero	3
.LC39:
	.string	"[%10u][%s: %s:%4d] channel_cnt_table :\r\n"
	.zero	3
.LC40:
	.string	"lo_fcal_div"
.LC41:
	.string	"[%10u][%s: %s:%4d] channel_cnt_table NULL.\r\n"
	.zero	3
.LC42:
	.string	"[%10u][%s: %s:%4d] lo_fcal_div :\r\n"
	.zero	1
.LC43:
	.string	"[%10u][%s: %s:%4d] lo_fcal_div NULL.\r\n"
	.zero	1
.LC44:
	.string	"[%10u][%s: %s:%4d] brd_rf NULL.\r\n"
	.text
.Letext0:
	.file 4 "/b-l/bl_iot_sdk_new/toolchain/riscv/Linux/lib/gcc/riscv64-unknown-elf/8.3.0/include/stdint-gcc.h"
	.file 5 "/b-l/bl_iot_sdk_new/toolchain/riscv/Linux/lib/gcc/riscv64-unknown-elf/8.3.0/include/stddef.h"
	.file 6 "/b-l/bl_iot_sdk_new/toolchain/riscv/Linux/riscv64-unknown-elf/include/sys/_types.h"
	.file 7 "/b-l/bl_iot_sdk_new/toolchain/riscv/Linux/riscv64-unknown-elf/include/sys/reent.h"
	.file 8 "/b-l/bl_iot_sdk_new/toolchain/riscv/Linux/riscv64-unknown-elf/include/sys/lock.h"
	.file 9 "/b-l/bl_iot_sdk_new/toolchain/riscv/Linux/riscv64-unknown-elf/include/stdlib.h"
	.file 10 "/b-l/bl_iot_sdk_new/toolchain/riscv/Linux/riscv64-unknown-elf/include/stdio.h"
	.file 11 "/b-l/bl_iot_sdk_new/toolchain/riscv/Linux/riscv64-unknown-elf/include/string.h"
	.file 12 "/b-l/bl_iot_sdk_new/components/bl602/freertos_riscv_ram/config/task.h"
	.file 13 "/b-l/bl_iot_sdk_new/components/utils/include/utils_log.h"
	.file 14 "/b-l/bl_iot_sdk_new/components/stage/blfdt/inc/libfdt.h"