	.file	"vfs_file.c"
	.option nopic
	.attribute arch, "rv32i2p0_m2p0_f2p0_c2p0"
	.attribute unaligned_access, 0
	.attribute stack_align, 16
	.text
.Ltext0:
	.cfi_sections	.debug_frame
	.section	.text.new_file,"ax",@progbits
	.align	1
	.globl	new_file
	.type	new_file, @function
new_file:
.LFB3:
	.file 1 "/home/hogc/build-tools/sdk/bl/bl_iot_sdk/components/fs/vfs/src/vfs_file.c"
	.loc 1 13 1
	.cfi_startproc
.LVL0:
	.loc 1 14 5
	.loc 1 15 5
	.loc 1 17 5
	.loc 1 13 1 is_stmt 0
	addi	sp,sp,-16
	.cfi_def_cfa_offset 16
	sw	s0,8(sp)
	.cfi_offset 8, -8
	lui	s0,%hi(.LANCHOR0)
	addi	a4,s0,%lo(.LANCHOR0)
	sw	ra,12(sp)
	.cfi_offset 1, -4
	.loc 1 17 14
	li	a5,0
	addi	s0,s0,%lo(.LANCHOR0)
	.loc 1 17 5
	li	a3,60
.LVL1:
.L4:
	.loc 1 18 9 is_stmt 1
	.loc 1 20 9
	.loc 1 20 12 is_stmt 0
	lw	a2,0(a4)
	bne	a2,zero,.L2
	.loc 1 18 11
	li	a4,12
	mul	a5,a5,a4
.LVL2:
	add	s0,s0,a5
	.loc 1 21 13 is_stmt 1
.LDL1:
	.loc 1 28 5
	.loc 1 28 13 is_stmt 0
	sw	a0,0(s0)
	.loc 1 29 5 is_stmt 1
	.loc 1 29 14 is_stmt 0
	sw	zero,4(s0)
	.loc 1 30 5 is_stmt 1
	.loc 1 30 15 is_stmt 0
	sw	zero,8(s0)
	.loc 1 31 5 is_stmt 1
	call	inode_ref
.LVL3:
	.loc 1 32 5
.L1:
	.loc 1 33 1 is_stmt 0
	mv	a0,s0
	lw	ra,12(sp)
	.cfi_remember_state
	.cfi_restore 1
	lw	s0,8(sp)
	.cfi_restore 8
	addi	sp,sp,16
	.cfi_def_cfa_offset 0
	jr	ra
.LVL4:
.L2:
	.cfi_restore_state
	.loc 1 17 38 discriminator 2
	addi	a5,a5,1
.LVL5:
	addi	a4,a4,12
	.loc 1 17 5 discriminator 2
	bne	a5,a3,.L4
	.loc 1 25 11
	li	s0,0
	j	.L1
	.cfi_endproc
.LFE3:
	.size	new_file, .-new_file
	.section	.text.del_file,"ax",@progbits
	.align	1
	.globl	del_file
	.type	del_file, @function
del_file:
.LFB4:
	.loc 1 36 1 is_stmt 1
	.cfi_startproc
.LVL6:
	.loc 1 37 5
	.loc 1 36 1 is_stmt 0
	addi	sp,sp,-16
	.cfi_def_cfa_offset 16
	sw	s0,8(sp)
	sw	ra,12(sp)
	.cfi_offset 8, -8
	.cfi_offset 1, -4
	.loc 1 36 1
	mv	s0,a0
	.loc 1 37 5
	lw	a0,0(a0)
.LVL7:
	call	inode_unref
.LVL8:
	.loc 1 38 5 is_stmt 1
	.loc 1 39 1 is_stmt 0
	lw	ra,12(sp)
	.cfi_restore 1
	.loc 1 38 16
	sw	zero,0(s0)
	.loc 1 39 1
	lw	s0,8(sp)
	.cfi_restore 8
.LVL9:
	addi	sp,sp,16
	.cfi_def_cfa_offset 0
	jr	ra
	.cfi_endproc
.LFE4:
	.size	del_file, .-del_file
	.section	.text.get_fd,"ax",@progbits
	.align	1
	.globl	get_fd
	.type	get_fd, @function
get_fd:
.LFB5:
	.loc 1 42 1 is_stmt 1
	.cfi_startproc
.LVL10:
	.loc 1 43 5
	.loc 1 43 18 is_stmt 0
	lui	a5,%hi(.LANCHOR0)
	addi	a5,a5,%lo(.LANCHOR0)
	sub	a0,a0,a5
.LVL11:
	li	a5,-1431654400
	addi	a5,a5,-1365
	srai	a0,a0,2
.LVL12:
	mul	a0,a0,a5
	.loc 1 44 1
	addi	a0,a0,2
	ret
	.cfi_endproc
.LFE5:
	.size	get_fd, .-get_fd
	.section	.text.get_file,"ax",@progbits
	.align	1
	.globl	get_file
	.type	get_file, @function
get_file:
.LFB6:
	.loc 1 47 1 is_stmt 1
	.cfi_startproc
.LVL13:
	.loc 1 48 5
	.loc 1 50 5
	.loc 1 52 5
	.loc 1 56 5
	.loc 1 56 8 is_stmt 0
	addi	a0,a0,-2
.LVL14:
	li	a5,59
	bgtu	a0,a5,.L12
	.loc 1 60 5 is_stmt 1
	.loc 1 60 7 is_stmt 0
	li	a5,12
	mul	a0,a0,a5
.LVL15:
	lui	a5,%hi(.LANCHOR0)
	addi	a5,a5,%lo(.LANCHOR0)
	add	a5,a5,a0
.LVL16:
	.loc 1 61 5 is_stmt 1
	.loc 1 61 13 is_stmt 0
	lw	a0,0(a5)
	.loc 1 61 24
	beq	a0,zero,.L10
	mv	a0,a5
	ret
.LVL17:
.L12:
	li	a0,0
.LVL18:
.L10:
	.loc 1 62 1
	ret
	.cfi_endproc
.LFE6:
	.size	get_file, .-get_file
	.section	.bss.files,"aw",@nobits
	.align	2
	.set	.LANCHOR0,. + 0
	.type	files, @object
	.size	files, 720
files:
	.zero	720
	.text
.Letext0:
	.file 2 "/home/hogc/build-tools/sdk/bl/bl_iot_sdk/toolchain/riscv/Linux/lib/gcc/riscv64-unknown-elf/8.3.0/include/stddef.h"
	.file 3 "/home/hogc/build-tools/sdk/bl/bl_iot_sdk/toolchain/riscv/Linux/riscv64-unknown-elf/include/machine/_default_types.h"
	.file 4 "/home/hogc/build-tools/sdk/bl/bl_iot_sdk/toolchain/riscv/Linux/riscv64-unknown-elf/include/sys/_types.h"
	.file 5 "/home/hogc/build-tools/sdk/bl/bl_iot_sdk/toolchain/riscv/Linux/riscv64-unknown-elf/include/sys/reent.h"
	.file 6 "/home/hogc/build-tools/sdk/bl/bl_iot_sdk/toolchain/riscv/Linux/riscv64-unknown-elf/include/sys/lock.h"
	.file 7 "/home/hogc/build-tools/sdk/bl/bl_iot_sdk/toolchain/riscv/Linux/riscv64-unknown-elf/include/sys/errno.h"
	.file 8 "/home/hogc/build-tools/sdk/bl/bl_iot_sdk/toolchain/riscv/Linux/lib/gcc/riscv64-unknown-elf/8.3.0/include/stdint-gcc.h"
	.file 9 "/home/hogc/build-tools/sdk/bl/bl_iot_sdk/toolchain/riscv/Linux/riscv64-unknown-elf/include/sys/_timeval.h"
	.file 10 "/home/hogc/build-tools/sdk/bl/bl_iot_sdk/toolchain/riscv/Linux/riscv64-unknown-elf/include/sys/types.h"
	.file 11 "/home/hogc/build-tools/sdk/bl/bl_iot_sdk/toolchain/riscv/Linux/riscv64-unknown-elf/include/time.h"
	.file 12 "/home/hogc/build-tools/sdk/bl/bl_iot_sdk/toolchain/riscv/Linux/riscv64-unknown-elf/include/sys/stat.h"
	.file 13 "/home/hogc/build-tools/sdk/bl/bl_iot_sdk/components/fs/vfs/include/vfs_dir.h"
	.file 14 "/home/hogc/build-tools/sdk/bl/bl_iot_sdk/components/fs/vfs/include/vfs_inode.h"