	.file	"ring_buffer.c"
	.option nopic
	.attribute arch, "rv32i2p0_m2p0_f2p0_c2p0"
	.attribute unaligned_access, 0
	.attribute stack_align, 16
	.text
.Ltext0:
	.cfi_sections	.debug_frame
	.section	.text.Ring_Buffer_Write_Copy,"ax",@progbits
	.align	1
	.type	Ring_Buffer_Write_Copy, @function
Ring_Buffer_Write_Copy:
.LFB11:
	.file 1 "/home/hogc/build-tools/sdk/bl/bl_iot_sdk/components/bl602/bl602_std/bl602_std/Common/ring_buffer/ring_buffer.c"
	.loc 1 210 1
	.cfi_startproc
.LVL0:
	.loc 1 211 5
	.loc 1 210 1 is_stmt 0
	addi	sp,sp,-16
	.cfi_def_cfa_offset 16
	sw	s0,8(sp)
	.cfi_offset 8, -8
	mv	s0,a0
.LVL1:
	.loc 1 213 5 is_stmt 1
	.loc 1 210 1 is_stmt 0
	mv	a0,a1
.LVL2:
	.loc 1 213 5
	lw	a1,0(s0)
.LVL3:
	.loc 1 210 1
	sw	s1,4(sp)
	sw	ra,12(sp)
	.cfi_offset 9, -12
	.cfi_offset 1, -4
	.loc 1 210 1
	mv	s1,a2
	.loc 1 213 5
	call	BL602_MemCpy_Fast
.LVL4:
	.loc 1 214 5 is_stmt 1
	.loc 1 214 10 is_stmt 0
	lw	a2,0(s0)
	.loc 1 215 1
	lw	ra,12(sp)
	.cfi_restore 1
	.loc 1 214 10
	add	a2,a2,s1
	sw	a2,0(s0)
	.loc 1 215 1
	lw	s0,8(sp)
	.cfi_restore 8
.LVL5:
	lw	s1,4(sp)
	.cfi_restore 9
	addi	sp,sp,16
	.cfi_def_cfa_offset 0
	jr	ra
	.cfi_endproc
.LFE11:
	.size	Ring_Buffer_Write_Copy, .-Ring_Buffer_Write_Copy
	.section	.text.Ring_Buffer_Read_Copy,"ax",@progbits
	.align	1
	.type	Ring_Buffer_Read_Copy, @function
Ring_Buffer_Read_Copy:
.LFB17:
	.loc 1 445 1 is_stmt 1
	.cfi_startproc
.LVL6:
	.loc 1 446 5
	.loc 1 448 5
	.loc 1 445 1 is_stmt 0
	addi	sp,sp,-16
	.cfi_def_cfa_offset 16
	sw	s0,8(sp)
	sw	s1,4(sp)
	sw	ra,12(sp)
	.cfi_offset 8, -8
	.cfi_offset 9, -12
	.cfi_offset 1, -4
	.loc 1 445 1
	mv	s0,a0
	.loc 1 448 5
	lw	a0,0(a0)
.LVL7:
	.loc 1 445 1
	mv	s1,a2
	.loc 1 448 5
	call	BL602_MemCpy_Fast
.LVL8:
	.loc 1 449 5 is_stmt 1
	.loc 1 449 11 is_stmt 0
	lw	a2,0(s0)
	.loc 1 450 1
	lw	ra,12(sp)
	.cfi_restore 1
	.loc 1 449 11
	add	a2,a2,s1
	sw	a2,0(s0)
	.loc 1 450 1
	lw	s0,8(sp)
	.cfi_restore 8
.LVL9:
	lw	s1,4(sp)
	.cfi_restore 9
	addi	sp,sp,16
	.cfi_def_cfa_offset 0
	jr	ra
	.cfi_endproc
.LFE17:
	.size	Ring_Buffer_Read_Copy, .-Ring_Buffer_Read_Copy
	.section	.text.Ring_Buffer_Init,"ax",@progbits
	.align	1
	.globl	Ring_Buffer_Init
	.type	Ring_Buffer_Init, @function
Ring_Buffer_Init:
.LFB8:
	.loc 1 100 1 is_stmt 1
	.cfi_startproc
.LVL10:
	.loc 1 102 5
	.loc 1 102 21 is_stmt 0
	sw	a1,0(a0)
	.loc 1 105 5 is_stmt 1
	.loc 1 105 24 is_stmt 0
	sb	zero,4(a0)
	.loc 1 106 5 is_stmt 1
	.loc 1 106 23 is_stmt 0
	sh	zero,6(a0)
	.loc 1 107 5 is_stmt 1
	.loc 1 107 25 is_stmt 0
	sb	zero,8(a0)
	.loc 1 108 5 is_stmt 1
	.loc 1 108 24 is_stmt 0
	sh	zero,10(a0)
	.loc 1 111 5 is_stmt 1
	.loc 1 111 18 is_stmt 0
	sh	a2,12(a0)
	.loc 1 114 5 is_stmt 1
	.loc 1 114 18 is_stmt 0
	sw	a3,16(a0)
	.loc 1 115 5 is_stmt 1
	.loc 1 115 20 is_stmt 0
	sw	a4,20(a0)
	.loc 1 117 5 is_stmt 1
	.loc 1 118 1 is_stmt 0
	li	a0,0
.LVL11:
	ret
	.cfi_endproc
.LFE8:
	.size	Ring_Buffer_Init, .-Ring_Buffer_Init
	.section	.text.Ring_Buffer_Reset,"ax",@progbits
	.align	1
	.globl	Ring_Buffer_Reset
	.type	Ring_Buffer_Reset, @function
Ring_Buffer_Reset:
.LFB9:
	.loc 1 130 1 is_stmt 1
	.cfi_startproc
.LVL12:
	.loc 1 132 5
	.loc 1 132 24 is_stmt 0
	sb	zero,4(a0)
	.loc 1 133 5 is_stmt 1
	.loc 1 133 23 is_stmt 0
	sh	zero,6(a0)
	.loc 1 134 5 is_stmt 1
	.loc 1 134 25 is_stmt 0
	sb	zero,8(a0)
	.loc 1 135 5 is_stmt 1
	.loc 1 135 24 is_stmt 0
	sh	zero,10(a0)
	.loc 1 137 5 is_stmt 1
	.loc 1 138 1 is_stmt 0
	li	a0,0
.LVL13:
	ret
	.cfi_endproc
.LFE9:
	.size	Ring_Buffer_Reset, .-Ring_Buffer_Reset
	.section	.text.Ring_Buffer_Get_Length,"ax",@progbits
	.align	1
	.globl	Ring_Buffer_Get_Length
	.type	Ring_Buffer_Get_Length, @function
Ring_Buffer_Get_Length:
.LFB22:
	.loc 1 602 1 is_stmt 1
	.cfi_startproc
.LVL14:
	.loc 1 603 5
	.loc 1 602 1 is_stmt 0
	addi	sp,sp,-16
	.cfi_def_cfa_offset 16
	sw	s0,8(sp)
	sw	ra,12(sp)
	.cfi_offset 8, -8
	.cfi_offset 1, -4
	.loc 1 603 14
	lw	a5,16(a0)
	.loc 1 602 1
	mv	s0,a0
	.loc 1 603 7
	beq	a5,zero,.L8
	.loc 1 604 9 is_stmt 1
	jalr	a5
.LVL15:
.L8:
	.loc 1 607 5
	.loc 1 607 7 is_stmt 0
	lbu	a3,4(s0)
	lbu	a4,8(s0)
	lw	a5,20(s0)
	bne	a3,a4,.L9
.LVL16:
.LBB4:
.LBB5:
	.loc 1 608 9 is_stmt 1
	.loc 1 608 11 is_stmt 0
	beq	a5,zero,.L10
	.loc 1 609 13 is_stmt 1
	jalr	a5
.LVL17:
.L10:
	.loc 1 611 9
	.loc 1 611 35 is_stmt 0
	lhu	a5,10(s0)
.LVL18:
.L23:
.LBE5:
.LBE4:
	.loc 1 616 29
	lhu	a0,6(s0)
	.loc 1 618 1
	lw	ra,12(sp)
	.cfi_remember_state
	.cfi_restore 1
	lw	s0,8(sp)
	.cfi_restore 8
.LVL19:
	.loc 1 616 29
	sub	a0,a5,a0
	slli	a0,a0,16
	srli	a0,a0,16
	.loc 1 618 1
	addi	sp,sp,16
	.cfi_def_cfa_offset 0
	jr	ra
.LVL20:
.L9:
	.cfi_restore_state
	.loc 1 613 9 is_stmt 1
	.loc 1 613 11 is_stmt 0
	beq	a5,zero,.L12
	.loc 1 614 13 is_stmt 1
	jalr	a5
.LVL21:
.L12:
	.loc 1 616 9
	.loc 1 616 29 is_stmt 0
	lhu	a5,12(s0)
	lhu	a0,10(s0)
	add	a5,a5,a0
	j	.L23
	.cfi_endproc
.LFE22:
	.size	Ring_Buffer_Get_Length, .-Ring_Buffer_Get_Length
	.section	.text.Ring_Buffer_Read_Callback,"ax",@progbits
	.align	1
	.globl	Ring_Buffer_Read_Callback
	.type	Ring_Buffer_Read_Callback, @function
Ring_Buffer_Read_Callback:
.LFB16:
	.loc 1 388 1 is_stmt 1
	.cfi_startproc
.LVL22:
	.loc 1 389 5
	.loc 1 388 1 is_stmt 0
	addi	sp,sp,-32
	.cfi_def_cfa_offset 32
	sw	s3,12(sp)
	.cfi_offset 19, -20
	mv	s3,a2
	sw	s0,24(sp)
	sw	s2,16(sp)
	sw	s4,8(sp)
	sw	ra,28(sp)
	sw	s1,20(sp)
	sw	s5,4(sp)
	.cfi_offset 8, -8
	.cfi_offset 18, -16
	.cfi_offset 20, -24
	.cfi_offset 1, -4
	.cfi_offset 9, -12
	.cfi_offset 21, -28
	.loc 1 388 1
	mv	s0,a0
	mv	s2,a1
	mv	s4,a3
	.loc 1 389 21
	call	Ring_Buffer_Get_Length
.LVL23:
	.loc 1 391 5 is_stmt 1
	.loc 1 391 7 is_stmt 0
	bne	s3,zero,.L25
.LVL24:
.L29:
	.loc 1 392 16
	li	s1,0
.LVL25:
.L26:
	.loc 1 431 1
	lw	ra,28(sp)
	.cfi_remember_state
	.cfi_restore 1
	lw	s0,24(sp)
	.cfi_restore 8
.LVL26:
	mv	a0,s1
	lw	s2,16(sp)
	.cfi_restore 18
	lw	s1,20(sp)
	.cfi_restore 9
	lw	s3,12(sp)
	.cfi_restore 19
.LVL27:
	lw	s4,8(sp)
	.cfi_restore 20
.LVL28:
	lw	s5,4(sp)
	.cfi_restore 21
	addi	sp,sp,32
	.cfi_def_cfa_offset 0
	jr	ra
.LVL29:
.L25:
	.cfi_restore_state
	.loc 1 395 14
	lw	a5,16(s0)
	mv	s1,a0
	.loc 1 395 5 is_stmt 1
	.loc 1 395 7 is_stmt 0
	beq	a5,zero,.L27
	.loc 1 396 9 is_stmt 1
	jalr	a5
.LVL30:
.L27:
	.loc 1 400 5
	.loc 1 400 7 is_stmt 0
	bne	s1,zero,.L28
	.loc 1 401 9 is_stmt 1
	.loc 1 401 18 is_stmt 0
	lw	a5,20(s0)
	.loc 1 401 11
	beq	a5,zero,.L29
.LVL31:
.L43:
	.loc 1 428 9 is_stmt 1
	jalr	a5
.LVL32:
	j	.L26
.LVL33:
.L28:
	.loc 1 408 5
	mv	a5,s1
	bleu	s1,s2,.L30
	mv	a5,s2
.L30:
	.loc 1 413 33 is_stmt 0
	lhu	s2,6(s0)
	.loc 1 413 18
	lhu	s5,12(s0)
	lw	a1,0(s0)
	slli	s1,a5,16
	.loc 1 413 10
	sub	a2,s5,s2
	slli	a2,a2,16
	srli	s1,s1,16
.LVL34:
	.loc 1 413 5 is_stmt 1
	.loc 1 413 10 is_stmt 0
	srli	a2,a2,16
.LVL35:
	.loc 1 415 5 is_stmt 1
	add	a1,a1,s2
	.loc 1 415 7 is_stmt 0
	bleu	a2,s1,.L31
	.loc 1 417 9 is_stmt 1
	mv	a2,s1
.LVL36:
	mv	a0,s4
	jalr	s3
.LVL37:
	.loc 1 418 9
	.loc 1 418 27 is_stmt 0
	lhu	a5,6(s0)
	add	a5,s1,a5
	sh	a5,6(s0)
.LVL38:
.L32:
	.loc 1 427 5 is_stmt 1
	.loc 1 427 14 is_stmt 0
	lw	a5,20(s0)
	.loc 1 427 7
	bne	a5,zero,.L43
	j	.L26
.LVL39:
.L31:
	.loc 1 421 9 is_stmt 1
	mv	a0,s4
	.loc 1 422 9 is_stmt 0
	sub	s2,s2,s5
	.loc 1 421 9
	jalr	s3
.LVL40:
	.loc 1 422 9 is_stmt 1
	add	s2,s1,s2
	slli	s2,s2,16
	lw	a1,0(s0)
	srli	s2,s2,16
	mv	a2,s2
	mv	a0,s4
	jalr	s3
.LVL41:
	.loc 1 423 9
	.loc 1 424 28 is_stmt 0
	lbu	a5,4(s0)
	.loc 1 423 27
	sh	s2,6(s0)
	.loc 1 424 9 is_stmt 1
	.loc 1 424 28 is_stmt 0
	not	a5,a5
	sb	a5,4(s0)
	j	.L32
	.cfi_endproc
.LFE16:
	.size	Ring_Buffer_Read_Callback, .-Ring_Buffer_Read_Callback
	.section	.text.Ring_Buffer_Read,"ax",@progbits
	.align	1
	.globl	Ring_Buffer_Read
	.type	Ring_Buffer_Read, @function
Ring_Buffer_Read:
.LFB18:
	.loc 1 464 1 is_stmt 1
	.cfi_startproc
.LVL42:
	.loc 1 465 5
	.loc 1 464 1 is_stmt 0
	addi	sp,sp,-32
	.cfi_def_cfa_offset 32
	sw	a1,12(sp)
	mv	a1,a2
.LVL43:
	.loc 1 465 12
	lui	a2,%hi(Ring_Buffer_Read_Copy)
.LVL44:
	addi	a3,sp,12
.LVL45:
	addi	a2,a2,%lo(Ring_Buffer_Read_Copy)
	.loc 1 464 1
	sw	ra,28(sp)
	.cfi_offset 1, -4
	.loc 1 465 12
	call	Ring_Buffer_Read_Callback
.LVL46:
	.loc 1 466 1
	lw	ra,28(sp)
	.cfi_restore 1
	addi	sp,sp,32
	.cfi_def_cfa_offset 0
	jr	ra
	.cfi_endproc
.LFE18:
	.size	Ring_Buffer_Read, .-Ring_Buffer_Read
	.section	.text.Ring_Buffer_Read_Byte,"ax",@progbits
	.align	1
	.globl	Ring_Buffer_Read_Byte
	.type	Ring_Buffer_Read_Byte, @function
Ring_Buffer_Read_Byte:
.LFB19:
	.loc 1 479 1 is_stmt 1
	.cfi_startproc
.LVL47:
	.loc 1 480 5
	.loc 1 479 1 is_stmt 0
	addi	sp,sp,-32
	.cfi_def_cfa_offset 32
	sw	s0,24(sp)
	sw	s1,20(sp)
	sw	ra,28(sp)
	.cfi_offset 8, -8
	.cfi_offset 9, -12
	.cfi_offset 1, -4
	.loc 1 480 14
	lw	a5,16(a0)
	.loc 1 479 1
	mv	s0,a0
	mv	s1,a1
	.loc 1 480 7
	beq	a5,zero,.L47
	.loc 1 481 9 is_stmt 1
	jalr	a5
.LVL48:
.L47:
	.loc 1 485 5
	.loc 1 485 9 is_stmt 0
	mv	a0,s0
	call	Ring_Buffer_Get_Length
.LVL49:
	.loc 1 485 7
	bne	a0,zero,.L48
	.loc 1 486 9 is_stmt 1
	.loc 1 486 18 is_stmt 0
	lw	a5,20(s0)
	.loc 1 486 11
	beq	a5,zero,.L49
	sw	a0,12(sp)
	.loc 1 487 13 is_stmt 1
	jalr	a5
.LVL50:
	lw	a0,12(sp)
.L49:
	.loc 1 507 1 is_stmt 0
	lw	ra,28(sp)
	.cfi_remember_state
	.cfi_restore 1
	lw	s0,24(sp)
	.cfi_restore 8
.LVL51:
	lw	s1,20(sp)
	.cfi_restore 9
.LVL52:
	addi	sp,sp,32
	.cfi_def_cfa_offset 0
	jr	ra
.LVL53:
.L48:
	.cfi_restore_state
	.loc 1 493 5 is_stmt 1
	.loc 1 493 35 is_stmt 0
	lhu	a4,6(s0)
	.loc 1 493 28
	lw	a5,0(s0)
	add	a5,a5,a4
	lbu	a5,0(a5)
	.loc 1 493 11
	sb	a5,0(s1)
	.loc 1 496 5 is_stmt 1
	.loc 1 496 35 is_stmt 0
	lhu	a4,12(s0)
	.loc 1 496 14
	lhu	a5,6(s0)
	.loc 1 496 41
	addi	a4,a4,-1
	.loc 1 496 7
	bne	a5,a4,.L50
	.loc 1 497 9 is_stmt 1
	.loc 1 498 28 is_stmt 0
	lbu	a5,4(s0)
	.loc 1 497 27
	sh	zero,6(s0)
	.loc 1 498 9 is_stmt 1
	.loc 1 498 28 is_stmt 0
	not	a5,a5
	sb	a5,4(s0)
.L51:
	.loc 1 503 5 is_stmt 1
	.loc 1 503 14 is_stmt 0
	lw	a5,20(s0)
	.loc 1 506 12
	li	a0,1
	.loc 1 503 7
	beq	a5,zero,.L49
	.loc 1 504 9 is_stmt 1
	jalr	a5
.LVL54:
	.loc 1 506 12 is_stmt 0
	li	a0,1
	j	.L49
.L50:
	.loc 1 500 9 is_stmt 1
	.loc 1 500 26 is_stmt 0
	addi	a5,a5,1
	sh	a5,6(s0)
	j	.L51
	.cfi_endproc
.LFE19:
	.size	Ring_Buffer_Read_Byte, .-Ring_Buffer_Read_Byte
	.section	.text.Ring_Buffer_Peek,"ax",@progbits
	.align	1
	.globl	Ring_Buffer_Peek
	.type	Ring_Buffer_Peek, @function
Ring_Buffer_Peek:
.LFB20:
	.loc 1 521 1 is_stmt 1
	.cfi_startproc
.LVL55:
	.loc 1 522 5
	.loc 1 521 1 is_stmt 0
	addi	sp,sp,-32
	.cfi_def_cfa_offset 32
	sw	s0,24(sp)
	sw	s1,20(sp)
	sw	s2,16(sp)
	sw	s3,12(sp)
	.cfi_offset 8, -8
	.cfi_offset 9, -12
	.cfi_offset 18, -16
	.cfi_offset 19, -20
	mv	s2,a0
	sw	ra,28(sp)
	.cfi_offset 1, -4
	.loc 1 521 1
	mv	s3,a1
	mv	s1,a2
	.loc 1 522 21
	call	Ring_Buffer_Get_Length
.LVL56:
	.loc 1 524 14
	lw	a5,16(s2)
	.loc 1 522 21
	mv	s0,a0
.LVL57:
	.loc 1 524 5 is_stmt 1
	.loc 1 524 7 is_stmt 0
	beq	a5,zero,.L61
	.loc 1 525 9 is_stmt 1
	jalr	a5
.LVL58:
.L61:
	.loc 1 529 5
	.loc 1 529 7 is_stmt 0
	bne	s0,zero,.L62
.LVL59:
.L80:
	.loc 1 553 5 is_stmt 1
	.loc 1 553 14 is_stmt 0
	lw	a5,20(s2)
	.loc 1 553 7
	beq	a5,zero,.L63
	.loc 1 554 9 is_stmt 1
	jalr	a5
.LVL60:
.L63:
	.loc 1 557 1 is_stmt 0
	mv	a0,s0
	lw	ra,28(sp)
	.cfi_remember_state
	.cfi_restore 1
	lw	s0,24(sp)
	.cfi_restore 8
	lw	s1,20(sp)
	.cfi_restore 9
	lw	s2,16(sp)
	.cfi_restore 18
.LVL61:
	lw	s3,12(sp)
	.cfi_restore 19
.LVL62:
	addi	sp,sp,32
	.cfi_def_cfa_offset 0
	jr	ra
.LVL63:
.L62:
	.cfi_restore_state
	.loc 1 537 5 is_stmt 1
	mv	a5,s0
	bleu	s0,s1,.L64
	mv	a5,s1
.L64:
	slli	s0,a5,16
.LVL64:
	.loc 1 542 10 is_stmt 0
	lhu	s1,12(s2)
	.loc 1 542 33
	lhu	a5,6(s2)
	lw	a1,0(s2)
	srli	s0,s0,16
.LVL65:
	.loc 1 542 5 is_stmt 1
	.loc 1 542 10 is_stmt 0
	sub	s1,s1,a5
	slli	s1,s1,16
	srli	s1,s1,16
.LVL66:
	.loc 1 544 5 is_stmt 1
	add	a1,a1,a5
	.loc 1 544 7 is_stmt 0
	bleu	s1,s0,.L65
	.loc 1 546 9 is_stmt 1
	mv	a2,s0
	mv	a0,s3
.L77:
	.loc 1 550 9 is_stmt 0
	call	BL602_MemCpy_Fast
.LVL67:
	j	.L80
.L65:
	.loc 1 549 9 is_stmt 1
	mv	a2,s1
	mv	a0,s3
	call	BL602_MemCpy_Fast
.LVL68:
	.loc 1 550 9
	sub	a2,s0,s1
	lw	a1,0(s2)
	add	a0,s3,s1
	j	.L77
	.cfi_endproc
.LFE20:
	.size	Ring_Buffer_Peek, .-Ring_Buffer_Peek
	.section	.text.Ring_Buffer_Peek_Byte,"ax",@progbits
	.align	1
	.globl	Ring_Buffer_Peek_Byte
	.type	Ring_Buffer_Peek_Byte, @function
Ring_Buffer_Peek_Byte:
.LFB21:
	.loc 1 570 1
	.cfi_startproc
.LVL69:
	.loc 1 571 5
	.loc 1 570 1 is_stmt 0
	addi	sp,sp,-32
	.cfi_def_cfa_offset 32
	sw	s0,24(sp)
	sw	s1,20(sp)
	sw	ra,28(sp)
	.cfi_offset 8, -8
	.cfi_offset 9, -12
	.cfi_offset 1, -4
	.loc 1 571 14
	lw	a5,16(a0)
	.loc 1 570 1
	mv	s0,a0
	mv	s1,a1
	.loc 1 571 7
	beq	a5,zero,.L82
	.loc 1 572 9 is_stmt 1
	jalr	a5
.LVL70:
.L82:
	.loc 1 576 5
	.loc 1 576 9 is_stmt 0
	mv	a0,s0
	call	Ring_Buffer_Get_Length
.LVL71:
	.loc 1 576 7
	bne	a0,zero,.L83
	.loc 1 577 9 is_stmt 1
	.loc 1 577 18 is_stmt 0
	lw	a5,20(s0)
	.loc 1 577 11
	beq	a5,zero,.L84
	sw	a0,12(sp)
	.loc 1 578 13 is_stmt 1
	jalr	a5
.LVL72:
	lw	a0,12(sp)
.L84:
	.loc 1 590 1 is_stmt 0
	lw	ra,28(sp)
	.cfi_remember_state
	.cfi_restore 1
	lw	s0,24(sp)
	.cfi_restore 8
.LVL73:
	lw	s1,20(sp)
	.cfi_restore 9
.LVL74:
	addi	sp,sp,32
	.cfi_def_cfa_offset 0
	jr	ra
.LVL75:
.L83:
	.cfi_restore_state
	.loc 1 584 5 is_stmt 1
	.loc 1 584 35 is_stmt 0
	lhu	a4,6(s0)
	.loc 1 584 28
	lw	a5,0(s0)
	.loc 1 589 12
	li	a0,1
	.loc 1 584 28
	add	a5,a5,a4
	lbu	a5,0(a5)
	.loc 1 584 11
	sb	a5,0(s1)
	.loc 1 586 5 is_stmt 1
	.loc 1 586 14 is_stmt 0
	lw	a5,20(s0)
	.loc 1 586 7
	beq	a5,zero,.L84
	.loc 1 587 9 is_stmt 1
	jalr	a5
.LVL76:
	.loc 1 589 12 is_stmt 0
	li	a0,1
	j	.L84
	.cfi_endproc
.LFE21:
	.size	Ring_Buffer_Peek_Byte, .-Ring_Buffer_Peek_Byte
	.section	.text.Ring_Buffer_Get_Empty_Length,"ax",@progbits
	.align	1
	.globl	Ring_Buffer_Get_Empty_Length
	.type	Ring_Buffer_Get_Empty_Length, @function
Ring_Buffer_Get_Empty_Length:
.LFB23:
	.loc 1 630 1 is_stmt 1
	.cfi_startproc
.LVL77:
	.loc 1 631 5
	.loc 1 630 1 is_stmt 0
	addi	sp,sp,-16
	.cfi_def_cfa_offset 16
	sw	ra,12(sp)
	sw	s0,8(sp)
	.cfi_offset 1, -4
	.cfi_offset 8, -8
	.loc 1 631 19
	lhu	s0,12(a0)
	.loc 1 631 28
	call	Ring_Buffer_Get_Length
.LVL78:
	.loc 1 632 1
	lw	ra,12(sp)
	.cfi_restore 1
	.loc 1 631 26
	sub	a0,s0,a0
	.loc 1 632 1
	lw	s0,8(sp)
	.cfi_restore 8
	slli	a0,a0,16
	srli	a0,a0,16
	addi	sp,sp,16
	.cfi_def_cfa_offset 0
	jr	ra
	.cfi_endproc
.LFE23:
	.size	Ring_Buffer_Get_Empty_Length, .-Ring_Buffer_Get_Empty_Length
	.section	.text.Ring_Buffer_Write_Callback,"ax",@progbits
	.align	1
	.globl	Ring_Buffer_Write_Callback
	.type	Ring_Buffer_Write_Callback, @function
Ring_Buffer_Write_Callback:
.LFB10:
	.loc 1 153 1 is_stmt 1
	.cfi_startproc
.LVL79:
	.loc 1 154 5
	.loc 1 153 1 is_stmt 0
	addi	sp,sp,-32
	.cfi_def_cfa_offset 32
	sw	s3,12(sp)
	.cfi_offset 19, -20
	mv	s3,a2
	sw	s0,24(sp)
	sw	s2,16(sp)
	sw	s4,8(sp)
	sw	ra,28(sp)
	sw	s1,20(sp)
	sw	s5,4(sp)
	.cfi_offset 8, -8
	.cfi_offset 18, -16
	.cfi_offset 20, -24
	.cfi_offset 1, -4
	.cfi_offset 9, -12
	.cfi_offset 21, -28
	.loc 1 153 1
	mv	s0,a0
	mv	s2,a1
	mv	s4,a3
	.loc 1 154 29
	call	Ring_Buffer_Get_Empty_Length
.LVL80:
	.loc 1 156 5 is_stmt 1
	.loc 1 156 7 is_stmt 0
	bne	s3,zero,.L96
.LVL81:
.L100:
	.loc 1 157 16
	li	s1,0
.LVL82:
.L97:
	.loc 1 196 1
	lw	ra,28(sp)
	.cfi_remember_state
	.cfi_restore 1
	lw	s0,24(sp)
	.cfi_restore 8
.LVL83:
	mv	a0,s1
	lw	s2,16(sp)
	.cfi_restore 18
	lw	s1,20(sp)
	.cfi_restore 9
	lw	s3,12(sp)
	.cfi_restore 19
.LVL84:
	lw	s4,8(sp)
	.cfi_restore 20
.LVL85:
	lw	s5,4(sp)
	.cfi_restore 21
	addi	sp,sp,32
	.cfi_def_cfa_offset 0
	jr	ra
.LVL86:
.L96:
	.cfi_restore_state
	.loc 1 160 14
	lw	a5,16(s0)
	mv	s1,a0
	.loc 1 160 5 is_stmt 1
	.loc 1 160 7 is_stmt 0
	beq	a5,zero,.L98
	.loc 1 161 9 is_stmt 1
	jalr	a5
.LVL87:
.L98:
	.loc 1 165 5
	.loc 1 165 7 is_stmt 0
	bne	s1,zero,.L99
	.loc 1 166 9 is_stmt 1
	.loc 1 166 18 is_stmt 0
	lw	a5,20(s0)
	.loc 1 166 11
	beq	a5,zero,.L100
.LVL88:
.L114:
	.loc 1 193 9 is_stmt 1
	jalr	a5
.LVL89:
	j	.L97
.LVL90:
.L99:
	.loc 1 173 5
	mv	a5,s1
	bleu	s1,s2,.L101
	mv	a5,s2
.L101:
	.loc 1 178 41 is_stmt 0
	lhu	s2,10(s0)
	.loc 1 178 26
	lhu	s5,12(s0)
	lw	a1,0(s0)
	slli	s1,a5,16
	.loc 1 178 18
	sub	a2,s5,s2
	slli	a2,a2,16
	srli	s1,s1,16
.LVL91:
	.loc 1 178 5 is_stmt 1
	.loc 1 178 18 is_stmt 0
	srli	a2,a2,16
.LVL92:
	.loc 1 180 5 is_stmt 1
	add	a1,a1,s2
	.loc 1 180 7 is_stmt 0
	bleu	a2,s1,.L102
	.loc 1 182 9 is_stmt 1
	mv	a2,s1
.LVL93:
	mv	a0,s4
	jalr	s3
.LVL94:
	.loc 1 183 9
	.loc 1 183 28 is_stmt 0
	lhu	a5,10(s0)
	add	a5,s1,a5
	sh	a5,10(s0)
.LVL95:
.L103:
	.loc 1 192 5 is_stmt 1
	.loc 1 192 14 is_stmt 0
	lw	a5,20(s0)
	.loc 1 192 7
	bne	a5,zero,.L114
	j	.L97
.LVL96:
.L102:
	.loc 1 186 9 is_stmt 1
	mv	a0,s4
	.loc 1 187 9 is_stmt 0
	sub	s2,s2,s5
	.loc 1 186 9
	jalr	s3
.LVL97:
	.loc 1 187 9 is_stmt 1
	add	s2,s1,s2
	slli	s2,s2,16
	lw	a1,0(s0)
	srli	s2,s2,16
	mv	a2,s2
	mv	a0,s4
	jalr	s3
.LVL98:
	.loc 1 188 9
	.loc 1 189 29 is_stmt 0
	lbu	a5,8(s0)
	.loc 1 188 28
	sh	s2,10(s0)
	.loc 1 189 9 is_stmt 1
	.loc 1 189 29 is_stmt 0
	not	a5,a5
	sb	a5,8(s0)
	j	.L103
	.cfi_endproc
.LFE10:
	.size	Ring_Buffer_Write_Callback, .-Ring_Buffer_Write_Callback
	.section	.text.Ring_Buffer_Write,"ax",@progbits
	.align	1
	.globl	Ring_Buffer_Write
	.type	Ring_Buffer_Write, @function
Ring_Buffer_Write:
.LFB12:
	.loc 1 229 1 is_stmt 1
	.cfi_startproc
.LVL99:
	.loc 1 230 5
	.loc 1 229 1 is_stmt 0
	addi	sp,sp,-32
	.cfi_def_cfa_offset 32
	sw	a1,12(sp)
	mv	a1,a2
.LVL100:
	.loc 1 230 12
	lui	a2,%hi(Ring_Buffer_Write_Copy)
.LVL101:
	addi	a3,sp,12
.LVL102:
	addi	a2,a2,%lo(Ring_Buffer_Write_Copy)
	.loc 1 229 1
	sw	ra,28(sp)
	.cfi_offset 1, -4
	.loc 1 230 12
	call	Ring_Buffer_Write_Callback
.LVL103:
	.loc 1 231 1
	lw	ra,28(sp)
	.cfi_restore 1
	addi	sp,sp,32
	.cfi_def_cfa_offset 0
	jr	ra
	.cfi_endproc
.LFE12:
	.size	Ring_Buffer_Write, .-Ring_Buffer_Write
	.section	.text.Ring_Buffer_Write_Byte,"ax",@progbits
	.align	1
	.globl	Ring_Buffer_Write_Byte
	.type	Ring_Buffer_Write_Byte, @function
Ring_Buffer_Write_Byte:
.LFB13:
	.loc 1 244 1 is_stmt 1
	.cfi_startproc
.LVL104:
	.loc 1 245 5
	.loc 1 244 1 is_stmt 0
	addi	sp,sp,-32
	.cfi_def_cfa_offset 32
	sw	s0,24(sp)
	sw	s1,20(sp)
	sw	ra,28(sp)
	.cfi_offset 8, -8
	.cfi_offset 9, -12
	.cfi_offset 1, -4
	.loc 1 245 14
	lw	a5,16(a0)
	.loc 1 244 1
	mv	s0,a0
	mv	s1,a1
	.loc 1 245 7
	beq	a5,zero,.L118
	.loc 1 246 9 is_stmt 1
	jalr	a5
.LVL105:
.L118:
	.loc 1 250 5
	.loc 1 250 9 is_stmt 0
	mv	a0,s0
	call	Ring_Buffer_Get_Empty_Length
.LVL106:
	.loc 1 250 7
	bne	a0,zero,.L119
	.loc 1 251 9 is_stmt 1
	.loc 1 251 18 is_stmt 0
	lw	a5,20(s0)
	.loc 1 251 11
	beq	a5,zero,.L120
	sw	a0,12(sp)
	.loc 1 252 13 is_stmt 1
	jalr	a5
.LVL107:
	lw	a0,12(sp)
.L120:
	.loc 1 271 1 is_stmt 0
	lw	ra,28(sp)
	.cfi_remember_state
	.cfi_restore 1
	lw	s0,24(sp)
	.cfi_restore 8
.LVL108:
	lw	s1,20(sp)
	.cfi_restore 9
	addi	sp,sp,32
	.cfi_def_cfa_offset 0
	jr	ra
.LVL109:
.L119:
	.cfi_restore_state
	.loc 1 257 5 is_stmt 1
	.loc 1 257 27 is_stmt 0
	lhu	a4,10(s0)
	.loc 1 257 41
	lw	a5,0(s0)
	add	a5,a5,a4
	sb	s1,0(a5)
	.loc 1 260 5 is_stmt 1
	.loc 1 260 37 is_stmt 0
	lhu	a4,12(s0)
	.loc 1 260 14
	lhu	a5,10(s0)
	.loc 1 260 43
	addi	a4,a4,-1
	.loc 1 260 7
	beq	a5,a4,.L121
	.loc 1 261 9 is_stmt 1
	.loc 1 261 27 is_stmt 0
	addi	a5,a5,1
	sh	a5,10(s0)
.L122:
	.loc 1 267 5 is_stmt 1
	.loc 1 267 14 is_stmt 0
	lw	a5,20(s0)
	.loc 1 270 12
	li	a0,1
	.loc 1 267 7
	beq	a5,zero,.L120
	.loc 1 268 9 is_stmt 1
	jalr	a5
.LVL110:
	.loc 1 270 12 is_stmt 0
	li	a0,1
	j	.L120
.L121:
	.loc 1 263 9 is_stmt 1
	.loc 1 264 29 is_stmt 0
	lbu	a5,8(s0)
	.loc 1 263 28
	sh	zero,10(s0)
	.loc 1 264 9 is_stmt 1
	.loc 1 264 29 is_stmt 0
	not	a5,a5
	sb	a5,8(s0)
	j	.L122
	.cfi_endproc
.LFE13:
	.size	Ring_Buffer_Write_Byte, .-Ring_Buffer_Write_Byte
	.section	.text.Ring_Buffer_Write_Force,"ax",@progbits
	.align	1
	.globl	Ring_Buffer_Write_Force
	.type	Ring_Buffer_Write_Force, @function
Ring_Buffer_Write_Force:
.LFB14:
	.loc 1 286 1 is_stmt 1
	.cfi_startproc
.LVL111:
	.loc 1 287 5
	.loc 1 286 1 is_stmt 0
	addi	sp,sp,-32
	.cfi_def_cfa_offset 32
	sw	s0,24(sp)
	.cfi_offset 8, -8
	mv	s0,a0
	sw	s1,20(sp)
	sw	s2,16(sp)
	sw	s3,12(sp)
	sw	s4,8(sp)
	sw	s5,4(sp)
	sw	s6,0(sp)
	sw	ra,28(sp)
	.cfi_offset 9, -12
	.cfi_offset 18, -16
	.cfi_offset 19, -20
	.cfi_offset 20, -24
	.cfi_offset 21, -28
	.cfi_offset 22, -32
	.cfi_offset 1, -4
	.loc 1 286 1
	mv	s5,a1
	mv	s1,a2
	.loc 1 287 29
	call	Ring_Buffer_Get_Empty_Length
.LVL112:
	.loc 1 288 36
	lhu	s6,12(s0)
	.loc 1 288 51
	lhu	s2,10(s0)
	.loc 1 290 14
	lw	a5,16(s0)
	.loc 1 287 29
	mv	s4,a0
.LVL113:
	.loc 1 288 5 is_stmt 1
	.loc 1 288 14 is_stmt 0
	sub	s3,s6,s2
	slli	s3,s3,16
	srli	s3,s3,16
.LVL114:
	.loc 1 290 5 is_stmt 1
	.loc 1 290 7 is_stmt 0
	beq	a5,zero,.L132
	.loc 1 291 9 is_stmt 1
	jalr	a5
.LVL115:
.L132:
	.loc 1 295 5
	.loc 1 295 23 is_stmt 0
	lhu	a5,12(s0)
	.loc 1 295 7
	bgeu	a5,s1,.L133
	.loc 1 296 9 is_stmt 1
	.loc 1 296 29 is_stmt 0
	sub	s1,s1,a5
	.loc 1 296 14
	add	s5,s5,s1
.LVL116:
	.loc 1 297 9 is_stmt 1
	.loc 1 296 14 is_stmt 0
	mv	s1,a5
.LVL117:
.L133:
	.loc 1 300 5 is_stmt 1
	lhu	a5,10(s0)
	lw	a0,0(s0)
	add	a0,a0,a5
	.loc 1 300 7 is_stmt 0
	bgeu	s1,s3,.L134
	.loc 1 302 9 is_stmt 1
	mv	a2,s1
	mv	a1,s5
	call	BL602_MemCpy_Fast
.LVL118:
	.loc 1 303 9
	.loc 1 303 28 is_stmt 0
	lhu	a5,10(s0)
	add	a5,s1,a5
	slli	a5,a5,16
	srli	a5,a5,16
	sh	a5,10(s0)
	.loc 1 306 9 is_stmt 1
	.loc 1 306 11 is_stmt 0
	bleu	s1,s4,.L136
	.loc 1 307 13 is_stmt 1
	.loc 1 307 31 is_stmt 0
	sh	a5,6(s0)
.L136:
	.loc 1 323 5 is_stmt 1
	.loc 1 323 14 is_stmt 0
	lw	a5,20(s0)
	.loc 1 323 7
	beq	a5,zero,.L138
	.loc 1 324 9 is_stmt 1
	jalr	a5
.LVL119:
.L138:
	.loc 1 326 5
	.loc 1 327 1 is_stmt 0
	lw	ra,28(sp)
	.cfi_remember_state
	.cfi_restore 1
	lw	s0,24(sp)
	.cfi_restore 8
.LVL120:
	mv	a0,s1
	lw	s2,16(sp)
	.cfi_restore 18
	lw	s1,20(sp)
	.cfi_restore 9
.LVL121:
	lw	s3,12(sp)
	.cfi_restore 19
.LVL122:
	lw	s4,8(sp)
	.cfi_restore 20
.LVL123:
	lw	s5,4(sp)
	.cfi_restore 21
.LVL124:
	lw	s6,0(sp)
	.cfi_restore 22
	addi	sp,sp,32
	.cfi_def_cfa_offset 0
	jr	ra
.LVL125:
.L134:
	.cfi_restore_state
	.loc 1 311 9 is_stmt 1
	mv	a2,s3
	mv	a1,s5
	call	BL602_MemCpy_Fast
.LVL126:
	.loc 1 312 9
	lw	a0,0(s0)
	sub	a2,s1,s3
	add	a1,s5,s3
	call	BL602_MemCpy_Fast
.LVL127:
	.loc 1 313 9
	.loc 1 314 29 is_stmt 0
	lbu	a5,8(s0)
	.loc 1 313 36
	sub	s2,s2,s6
	add	s2,s1,s2
	slli	s2,s2,16
	srli	s2,s2,16
	.loc 1 314 29
	not	a5,a5
	.loc 1 313 28
	sh	s2,10(s0)
	.loc 1 314 9 is_stmt 1
	.loc 1 314 29 is_stmt 0
	sb	a5,8(s0)
	.loc 1 317 9 is_stmt 1
	.loc 1 317 11 is_stmt 0
	bleu	s1,s4,.L136
	.loc 1 318 13 is_stmt 1
	.loc 1 319 32 is_stmt 0
	lbu	a5,4(s0)
	.loc 1 318 31
	sh	s2,6(s0)
	.loc 1 319 13 is_stmt 1
	.loc 1 319 32 is_stmt 0
	not	a5,a5
	sb	a5,4(s0)
	j	.L136
	.cfi_endproc
.LFE14:
	.size	Ring_Buffer_Write_Force, .-Ring_Buffer_Write_Force
	.section	.text.Ring_Buffer_Get_Status,"ax",@progbits
	.align	1
	.globl	Ring_Buffer_Get_Status
	.type	Ring_Buffer_Get_Status, @function
Ring_Buffer_Get_Status:
.LFB24:
	.loc 1 644 1 is_stmt 1
	.cfi_startproc
.LVL128:
	.loc 1 645 5
	.loc 1 644 1 is_stmt 0
	addi	sp,sp,-32
	.cfi_def_cfa_offset 32
	sw	ra,28(sp)
	.cfi_offset 1, -4
	.loc 1 645 14
	lw	a5,16(a0)
	.loc 1 645 7
	beq	a5,zero,.L147
	sw	a0,12(sp)
	.loc 1 646 9 is_stmt 1
	jalr	a5
.LVL129:
	lw	a0,12(sp)
.LVL130:
.L147:
	.loc 1 650 5
	.loc 1 650 7 is_stmt 0
	lhu	a3,6(a0)
	lhu	a4,10(a0)
	lw	a5,20(a0)
	bne	a3,a4,.L148
	.loc 1 651 9 is_stmt 1
	.loc 1 651 11 is_stmt 0
	lbu	a3,4(a0)
	lbu	a4,8(a0)
	bne	a3,a4,.L149
.LVL131:
.LBB8:
.LBB9:
	.loc 1 652 13 is_stmt 1
	.loc 1 652 15 is_stmt 0
	li	a0,0
	beq	a5,zero,.L150
	.loc 1 653 17 is_stmt 1
	jalr	a5
.LVL132:
	li	a0,0
.LVL133:
.L150:
.LBE9:
.LBE8:
	.loc 1 667 1 is_stmt 0
	lw	ra,28(sp)
	.cfi_remember_state
	.cfi_restore 1
	addi	sp,sp,32
	.cfi_def_cfa_offset 0
	jr	ra
.L149:
	.cfi_restore_state
	.loc 1 657 13 is_stmt 1
	.loc 1 660 20 is_stmt 0
	li	a0,2
	.loc 1 657 15
	beq	a5,zero,.L150
	.loc 1 658 17 is_stmt 1
	jalr	a5
.LVL134:
	.loc 1 660 20 is_stmt 0
	li	a0,2
	j	.L150
.L148:
	.loc 1 663 5 is_stmt 1
	.loc 1 666 12 is_stmt 0
	li	a0,1
	.loc 1 663 7
	beq	a5,zero,.L150
	.loc 1 664 9 is_stmt 1
	jalr	a5
.LVL135:
	.loc 1 666 12 is_stmt 0
	li	a0,1
	j	.L150
	.cfi_endproc
.LFE24:
	.size	Ring_Buffer_Get_Status, .-Ring_Buffer_Get_Status
	.section	.text.Ring_Buffer_Write_Byte_Force,"ax",@progbits
	.align	1
	.globl	Ring_Buffer_Write_Byte_Force
	.type	Ring_Buffer_Write_Byte_Force, @function
Ring_Buffer_Write_Byte_Force:
.LFB15:
	.loc 1 341 1 is_stmt 1
	.cfi_startproc
.LVL136:
	.loc 1 342 5
	.loc 1 341 1 is_stmt 0
	addi	sp,sp,-32
	.cfi_def_cfa_offset 32
	sw	s0,24(sp)
	sw	s1,20(sp)
	.cfi_offset 8, -8
	.cfi_offset 9, -12
	mv	s0,a0
	sw	ra,28(sp)
	.cfi_offset 1, -4
	.loc 1 341 1
	mv	s1,a1
	.loc 1 342 38
	call	Ring_Buffer_Get_Status
.LVL137:
	.loc 1 344 5 is_stmt 1
	.loc 1 344 14 is_stmt 0
	lw	a5,16(s0)
	.loc 1 344 7
	beq	a5,zero,.L159
	sw	a0,12(sp)
	.loc 1 345 9 is_stmt 1
	jalr	a5
.LVL138:
	lw	a0,12(sp)
.L159:
	.loc 1 348 5
	.loc 1 348 27 is_stmt 0
	lhu	a4,10(s0)
	.loc 1 348 41
	lw	a5,0(s0)
	add	a5,a5,a4
	sb	s1,0(a5)
	.loc 1 351 5 is_stmt 1
	.loc 1 351 36 is_stmt 0
	lhu	a4,12(s0)
	.loc 1 351 14
	lhu	a5,10(s0)
	.loc 1 351 42
	addi	a4,a4,-1
	.loc 1 351 7
	bne	a5,a4,.L160
	.loc 1 352 9 is_stmt 1
	.loc 1 353 29 is_stmt 0
	lbu	a5,8(s0)
	.loc 1 352 28
	sh	zero,10(s0)
	.loc 1 353 9 is_stmt 1
	.loc 1 353 29 is_stmt 0
	not	a5,a5
	sb	a5,8(s0)
	.loc 1 356 9 is_stmt 1
	.loc 1 356 11 is_stmt 0
	li	a5,2
	bne	a0,a5,.L162
	.loc 1 357 13 is_stmt 1
	.loc 1 358 32 is_stmt 0
	lbu	a5,4(s0)
	.loc 1 357 31
	sh	zero,6(s0)
	.loc 1 358 13 is_stmt 1
	.loc 1 358 32 is_stmt 0
	not	a5,a5
	sb	a5,4(s0)
.L162:
	.loc 1 369 5 is_stmt 1
	.loc 1 369 14 is_stmt 0
	lw	a5,20(s0)
	.loc 1 369 7
	beq	a5,zero,.L164
	.loc 1 370 9 is_stmt 1
	jalr	a5
.LVL139:
.L164:
	.loc 1 372 5
	.loc 1 373 1 is_stmt 0
	lw	ra,28(sp)
	.cfi_remember_state
	.cfi_restore 1
	lw	s0,24(sp)
	.cfi_restore 8
.LVL140:
	lw	s1,20(sp)
	.cfi_restore 9
	li	a0,1
	addi	sp,sp,32
	.cfi_def_cfa_offset 0
	jr	ra
.LVL141:
.L160:
	.cfi_restore_state
	.loc 1 361 9 is_stmt 1
	.loc 1 361 27 is_stmt 0
	addi	a5,a5,1
	slli	a5,a5,16
	srli	a5,a5,16
	sh	a5,10(s0)
	.loc 1 364 9 is_stmt 1
	.loc 1 364 11 is_stmt 0
	li	a4,2
	bne	a0,a4,.L162
	.loc 1 365 13 is_stmt 1
	.loc 1 365 31 is_stmt 0
	sh	a5,6(s0)
	j	.L162
	.cfi_endproc
.LFE15:
	.size	Ring_Buffer_Write_Byte_Force, .-Ring_Buffer_Write_Byte_Force
	.text
.Letext0:
	.file 2 "/home/hogc/build-tools/sdk/bl/bl_iot_sdk/toolchain/riscv/Linux/lib/gcc/riscv64-unknown-elf/8.3.0/include/stdint-gcc.h"
	.file 3 "/home/hogc/build-tools/sdk/bl/bl_iot_sdk/toolchain/riscv/Linux/lib/gcc/riscv64-unknown-elf/8.3.0/include/stddef.h"
	.file 4 "/home/hogc/build-tools/sdk/bl/bl_iot_sdk/toolchain/riscv/Linux/riscv64-unknown-elf/include/sys/_types.h"
	.file 5 "/home/hogc/build-tools/sdk/bl/bl_iot_sdk/toolchain/riscv/Linux/riscv64-unknown-elf/include/sys/reent.h"
	.file 6 "/home/hogc/build-tools/sdk/bl/bl_iot_sdk/toolchain/riscv/Linux/riscv64-unknown-elf/include/sys/lock.h"
	.file 7 "/home/hogc/build-tools/sdk/bl/bl_iot_sdk/components/bl602/bl602_std/bl602_std/RISCV/Device/Bouffalo/BL602/Startup/system_bl602.h"
	.file 8 "/home/hogc/build-tools/sdk/bl/bl_iot_sdk/components/bl602/bl602_std/bl602_std/StdDriver/Inc/bl602_common.h"
	.file 9 "/home/hogc/build-tools/sdk/bl/bl_iot_sdk/components/bl602/bl602_std/bl602_std/Common/ring_buffer/ring_buffer.h"