	.file	"bl_gpio.c"
	.option nopic
	.attribute arch, "rv32i2p0_m2p0_f2p0_c2p0"
	.attribute unaligned_access, 0
	.attribute stack_align, 16
	.text
.Ltext0:
	.cfi_sections	.debug_frame
	.section	.text.gpio_interrupt_entry,"ax",@progbits
	.align	1
	.type	gpio_interrupt_entry, @function
gpio_interrupt_entry:
.LFB18:
	.file 1 "/home/hogc/build-tools/sdk/bl/bl_iot_sdk/components/hal_drv/bl602_hal/bl_gpio.c"
	.loc 1 152 1
	.cfi_startproc
.LVL0:
	.loc 1 153 5
	.loc 1 155 5
	.loc 1 152 1 is_stmt 0
	addi	sp,sp,-16
	.cfi_def_cfa_offset 16
	sw	s0,8(sp)
	sw	s1,4(sp)
	sw	s2,0(sp)
	sw	ra,12(sp)
	.cfi_offset 8, -8
	.cfi_offset 9, -12
	.cfi_offset 18, -16
	.cfi_offset 1, -4
	.loc 1 152 1
	mv	s0,a0
.LBB16:
.LBB17:
	.loc 1 130 14
	li	s1,1
	.loc 1 131 13
	li	s2,1073741824
.LVL1:
.L2:
.LBE17:
.LBE16:
	.loc 1 155 11
	bne	s0,zero,.L6
	.loc 1 164 1
	lw	ra,12(sp)
	.cfi_remember_state
	.cfi_restore 1
	lw	s0,8(sp)
	.cfi_restore 8
.LVL2:
	lw	s1,4(sp)
	.cfi_restore 9
	lw	s2,0(sp)
	.cfi_restore 18
	addi	sp,sp,16
	.cfi_def_cfa_offset 0
	jr	ra
.LVL3:
.L6:
	.cfi_restore_state
	.loc 1 156 9 is_stmt 1
	.loc 1 156 46 is_stmt 0
	lbu	a0,12(s0)
.LVL4:
.LBB19:
.LBB18:
	.loc 1 127 5 is_stmt 1
	.loc 1 128 5
	.loc 1 130 5
	.loc 1 133 19 is_stmt 0
	lw	a5,424(s2)
	.loc 1 130 14
	sll	a4,s1,a0
.LVL5:
	.loc 1 131 5 is_stmt 1
	.loc 1 133 5
	.loc 1 133 19 is_stmt 0
	and	a5,a4,a5
	.loc 1 133 8
	bne	a4,a5,.L4
	.loc 1 134 9 is_stmt 1
.LVL6:
.LBE18:
.LBE19:
	.loc 1 157 9
	.loc 1 158 13
.LBB20:
.LBB21:
	.loc 1 141 5
.LBB22:
.LBB23:
	.loc 1 101 5
	li	a1,1
	call	GLB_GPIO_IntMask
.LVL7:
.LBE23:
.LBE22:
	.loc 1 143 5
	.loc 1 143 16 is_stmt 0
	lw	a5,4(s0)
	.loc 1 143 8
	beq	a5,zero,.L4
	.loc 1 144 9 is_stmt 1
	mv	a0,s0
	jalr	a5
.LVL8:
	.loc 1 145 9
.L4:
.LBE21:
.LBE20:
	.loc 1 161 9
	.loc 1 161 17 is_stmt 0
	lw	s0,0(s0)
.LVL9:
	j	.L2
	.cfi_endproc
.LFE18:
	.size	gpio_interrupt_entry, .-gpio_interrupt_entry
	.section	.text.bl_gpio_enable_output,"ax",@progbits
	.align	1
	.globl	bl_gpio_enable_output
	.type	bl_gpio_enable_output, @function
bl_gpio_enable_output:
.LFB8:
	.loc 1 41 1 is_stmt 1
	.cfi_startproc
.LVL10:
	.loc 1 42 5
	.loc 1 44 5
	.loc 1 45 5
	.loc 1 41 1 is_stmt 0
	addi	sp,sp,-32
	.cfi_def_cfa_offset 32
	.loc 1 44 14
	li	a5,256
	sh	a5,12(sp)
	.loc 1 46 5 is_stmt 1
	.loc 1 47 17 is_stmt 0
	li	a5,11
	sb	a5,9(sp)
	.loc 1 48 18
	li	a5,1
	.loc 1 41 1
	sw	ra,28(sp)
	.cfi_offset 1, -4
	.loc 1 46 17
	sb	a0,8(sp)
	.loc 1 47 5 is_stmt 1
	.loc 1 48 5
	.loc 1 48 18 is_stmt 0
	sb	a5,10(sp)
	.loc 1 49 5 is_stmt 1
	.loc 1 50 5
	.loc 1 50 8 is_stmt 0
	bne	a1,zero,.L12
	.loc 1 49 18
	li	a5,2
	sb	a5,11(sp)
.L13:
	.loc 1 53 5 is_stmt 1
	.loc 1 53 8 is_stmt 0
	beq	a2,zero,.L14
	.loc 1 54 9 is_stmt 1
	.loc 1 54 22 is_stmt 0
	li	a5,1
	sb	a5,11(sp)
.L14:
	.loc 1 56 5 is_stmt 1
	addi	a0,sp,8
.LVL11:
	call	GLB_GPIO_Init
.LVL12:
	.loc 1 58 5
	.loc 1 59 1 is_stmt 0
	lw	ra,28(sp)
	.cfi_remember_state
	.cfi_restore 1
	li	a0,0
	addi	sp,sp,32
	.cfi_def_cfa_offset 0
	jr	ra
.LVL13:
.L12:
	.cfi_restore_state
	.loc 1 51 9 is_stmt 1
	.loc 1 51 22 is_stmt 0
	sb	zero,11(sp)
	j	.L13
	.cfi_endproc
.LFE8:
	.size	bl_gpio_enable_output, .-bl_gpio_enable_output
	.section	.text.bl_gpio_enable_input,"ax",@progbits
	.align	1
	.globl	bl_gpio_enable_input
	.type	bl_gpio_enable_input, @function
bl_gpio_enable_input:
.LFB9:
	.loc 1 62 1 is_stmt 1
	.cfi_startproc
.LVL14:
	.loc 1 63 5
	.loc 1 65 5
	.loc 1 66 5
	.loc 1 62 1 is_stmt 0
	addi	sp,sp,-32
	.cfi_def_cfa_offset 32
	.loc 1 65 14
	li	a5,256
	sh	a5,12(sp)
	.loc 1 67 5 is_stmt 1
	.loc 1 68 17 is_stmt 0
	li	a5,11
	.loc 1 62 1
	sw	ra,28(sp)
	.cfi_offset 1, -4
	.loc 1 67 17
	sb	a0,8(sp)
	.loc 1 68 5 is_stmt 1
	.loc 1 68 17 is_stmt 0
	sb	a5,9(sp)
	.loc 1 69 5 is_stmt 1
	.loc 1 69 18 is_stmt 0
	sb	zero,10(sp)
	.loc 1 70 5 is_stmt 1
	.loc 1 71 5
	.loc 1 71 8 is_stmt 0
	bne	a1,zero,.L20
	.loc 1 70 18
	li	a5,2
	sb	a5,11(sp)
.L21:
	.loc 1 74 5 is_stmt 1
	.loc 1 74 8 is_stmt 0
	beq	a2,zero,.L22
	.loc 1 75 9 is_stmt 1
	.loc 1 75 22 is_stmt 0
	li	a5,1
	sb	a5,11(sp)
.L22:
	.loc 1 77 5 is_stmt 1
	addi	a0,sp,8
.LVL15:
	call	GLB_GPIO_Init
.LVL16:
	.loc 1 79 5
	.loc 1 80 1 is_stmt 0
	lw	ra,28(sp)
	.cfi_remember_state
	.cfi_restore 1
	li	a0,0
	addi	sp,sp,32
	.cfi_def_cfa_offset 0
	jr	ra
.LVL17:
.L20:
	.cfi_restore_state
	.loc 1 72 9 is_stmt 1
	.loc 1 72 22 is_stmt 0
	sb	zero,11(sp)
	j	.L21
	.cfi_endproc
.LFE9:
	.size	bl_gpio_enable_input, .-bl_gpio_enable_input
	.section	.text.bl_gpio_output_set,"ax",@progbits
	.align	1
	.globl	bl_gpio_output_set
	.type	bl_gpio_output_set, @function
bl_gpio_output_set:
.LFB10:
	.loc 1 83 1 is_stmt 1
	.cfi_startproc
.LVL18:
	.loc 1 84 5
	.loc 1 83 1 is_stmt 0
	addi	sp,sp,-16
	.cfi_def_cfa_offset 16
	.loc 1 84 5
	snez	a1,a1
.LVL19:
	.loc 1 83 1
	sw	ra,12(sp)
	.cfi_offset 1, -4
	.loc 1 84 5
	call	GLB_GPIO_Write
.LVL20:
	.loc 1 85 5 is_stmt 1
	.loc 1 86 1 is_stmt 0
	lw	ra,12(sp)
	.cfi_restore 1
	li	a0,0
	addi	sp,sp,16
	.cfi_def_cfa_offset 0
	jr	ra
	.cfi_endproc
.LFE10:
	.size	bl_gpio_output_set, .-bl_gpio_output_set
	.section	.text.bl_gpio_input_get,"ax",@progbits
	.align	1
	.globl	bl_gpio_input_get
	.type	bl_gpio_input_get, @function
bl_gpio_input_get:
.LFB11:
	.loc 1 89 1 is_stmt 1
	.cfi_startproc
.LVL21:
	.loc 1 90 5
	.loc 1 89 1 is_stmt 0
	addi	sp,sp,-32
	.cfi_def_cfa_offset 32
	sw	ra,28(sp)
	.cfi_offset 1, -4
	.loc 1 89 1
	sw	a1,12(sp)
	.loc 1 90 14
	call	GLB_GPIO_Read
.LVL22:
	.loc 1 90 12
	lw	a1,12(sp)
	sb	a0,0(a1)
	.loc 1 91 5 is_stmt 1
	.loc 1 92 1 is_stmt 0
	lw	ra,28(sp)
	.cfi_restore 1
	li	a0,0
	addi	sp,sp,32
	.cfi_def_cfa_offset 0
.LVL23:
	jr	ra
	.cfi_endproc
.LFE11:
	.size	bl_gpio_input_get, .-bl_gpio_input_get
	.section	.text.bl_gpio_input_get_value,"ax",@progbits
	.align	1
	.globl	bl_gpio_input_get_value
	.type	bl_gpio_input_get_value, @function
bl_gpio_input_get_value:
.LFB12:
	.loc 1 95 1 is_stmt 1
	.cfi_startproc
.LVL24:
	.loc 1 96 5
	.loc 1 96 12 is_stmt 0
	tail	GLB_GPIO_Read
.LVL25:
	.cfi_endproc
.LFE12:
	.size	bl_gpio_input_get_value, .-bl_gpio_input_get_value
	.section	.text.bl_gpio_intmask,"ax",@progbits
	.align	1
	.globl	bl_gpio_intmask
	.type	bl_gpio_intmask, @function
bl_gpio_intmask:
.LFB13:
	.loc 1 100 1 is_stmt 1
	.cfi_startproc
.LVL26:
	.loc 1 101 5
	snez	a1,a1
.LVL27:
	tail	GLB_GPIO_IntMask
.LVL28:
	.cfi_endproc
.LFE13:
	.size	bl_gpio_intmask, .-bl_gpio_intmask
	.section	.text.bl_set_gpio_intmod,"ax",@progbits
	.align	1
	.globl	bl_set_gpio_intmod
	.type	bl_set_gpio_intmod, @function
bl_set_gpio_intmod:
.LFB14:
	.loc 1 105 1
	.cfi_startproc
.LVL29:
	.loc 1 106 5
	tail	GLB_Set_GPIO_IntMod
.LVL30:
	.cfi_endproc
.LFE14:
	.size	bl_set_gpio_intmod, .-bl_set_gpio_intmod
	.section	.text.bl_gpio_int_clear,"ax",@progbits
	.align	1
	.globl	bl_gpio_int_clear
	.type	bl_gpio_int_clear, @function
bl_gpio_int_clear:
.LFB15:
	.loc 1 110 1
	.cfi_startproc
.LVL31:
	.loc 1 111 5
	.loc 1 112 5
	.loc 1 112 8 is_stmt 0
	li	a5,31
	bgtu	a0,a5,.L35
	.loc 1 114 9 is_stmt 1
	.loc 1 114 16 is_stmt 0
	li	a5,1073741824
	lw	a5,432(a5)
.LVL32:
	.loc 1 115 9 is_stmt 1
	li	a4,1
	sll	a0,a4,a0
.LVL33:
	.loc 1 115 11 is_stmt 0
	bne	a1,a4,.L36
	.loc 1 116 13 is_stmt 1
	.loc 1 116 20 is_stmt 0
	or	a0,a0,a5
.LVL34:
.L37:
	.loc 1 120 9 is_stmt 1
	.loc 1 120 65 is_stmt 0
	li	a5,1073741824
	sw	a0,432(a5)
.LVL35:
.L35:
	.loc 1 122 5 is_stmt 1
	.loc 1 123 1 is_stmt 0
	li	a0,0
	ret
.LVL36:
.L36:
	.loc 1 118 13 is_stmt 1
	.loc 1 118 29 is_stmt 0
	not	a0,a0
	.loc 1 118 20
	and	a0,a0,a5
.LVL37:
	j	.L37
	.cfi_endproc
.LFE15:
	.size	bl_gpio_int_clear, .-bl_gpio_int_clear
	.section	.text.bl_gpio_register,"ax",@progbits
	.align	1
	.globl	bl_gpio_register
	.type	bl_gpio_register, @function
bl_gpio_register:
.LFB19:
	.loc 1 167 1 is_stmt 1
	.cfi_startproc
.LVL38:
	.loc 1 168 5
.LBB24:
.LBB25:
	.loc 1 101 5
.LBE25:
.LBE24:
	.loc 1 167 1 is_stmt 0
	addi	sp,sp,-16
	.cfi_def_cfa_offset 16
	sw	ra,12(sp)
.LVL39:
	sw	s0,8(sp)
	.cfi_offset 1, -4
	.cfi_offset 8, -8
	.loc 1 167 1
	mv	s0,a0
.LBB27:
.LBB26:
	.loc 1 101 5
	lbu	a0,12(a0)
.LVL40:
	li	a1,1
	call	GLB_GPIO_IntMask
.LVL41:
.LBE26:
.LBE27:
	.loc 1 169 5 is_stmt 1
.LBB28:
.LBB29:
	.loc 1 106 5
	lbu	a2,14(s0)
	lbu	a1,13(s0)
	lbu	a0,12(s0)
	call	GLB_Set_GPIO_IntMod
.LVL42:
.LBE29:
.LBE28:
	.loc 1 170 5
	lui	a1,%hi(gpio_interrupt_entry)
	mv	a2,s0
	addi	a1,a1,%lo(gpio_interrupt_entry)
	li	a0,60
	call	bl_irq_register_with_ctx
.LVL43:
	.loc 1 171 5
.LBB30:
.LBB31:
	.loc 1 101 5
	lbu	a0,12(s0)
	li	a1,0
	call	GLB_GPIO_IntMask
.LVL44:
.LBE31:
.LBE30:
	.loc 1 172 5
	.loc 1 173 1 is_stmt 0
	lw	s0,8(sp)
	.cfi_restore 8
.LVL45:
	lw	ra,12(sp)
	.cfi_restore 1
	.loc 1 172 5
	li	a0,60
	.loc 1 173 1
	addi	sp,sp,16
	.cfi_def_cfa_offset 0
	.loc 1 172 5
	tail	bl_irq_enable
.LVL46:
	.cfi_endproc
.LFE19:
	.size	bl_gpio_register, .-bl_gpio_register
	.text
.Letext0:
	.file 2 "/home/hogc/build-tools/sdk/bl/bl_iot_sdk/toolchain/riscv/Linux/lib/gcc/riscv64-unknown-elf/8.3.0/include/stdint-gcc.h"
	.file 3 "/home/hogc/build-tools/sdk/bl/bl_iot_sdk/components/bl602/bl602_std/bl602_std/Device/Bouffalo/BL602/Peripherals/bl602.h"
	.file 4 "/home/hogc/build-tools/sdk/bl/bl_iot_sdk/components/bl602/bl602_std/bl602_std/StdDriver/Inc/bl602_gpio.h"
	.file 5 "/home/hogc/build-tools/sdk/bl/bl_iot_sdk/toolchain/riscv/Linux/lib/gcc/riscv64-unknown-elf/8.3.0/include/stddef.h"
	.file 6 "/home/hogc/build-tools/sdk/bl/bl_iot_sdk/toolchain/riscv/Linux/riscv64-unknown-elf/include/sys/_types.h"
	.file 7 "/home/hogc/build-tools/sdk/bl/bl_iot_sdk/toolchain/riscv/Linux/riscv64-unknown-elf/include/sys/reent.h"
	.file 8 "/home/hogc/build-tools/sdk/bl/bl_iot_sdk/toolchain/riscv/Linux/riscv64-unknown-elf/include/sys/lock.h"
	.file 9 "/home/hogc/build-tools/sdk/bl/bl_iot_sdk/components/bl602/bl602_std/bl602_std/RISCV/Device/Bouffalo/BL602/Startup/system_bl602.h"
	.file 10 "/home/hogc/build-tools/sdk/bl/bl_iot_sdk/components/bl602/bl602_std/bl602_std/StdDriver/Inc/bl602_common.h"
	.file 11 "/home/hogc/build-tools/sdk/bl/bl_iot_sdk/components/hal_drv/bl602_hal/bl_gpio.h"
	.file 12 "/home/hogc/build-tools/sdk/bl/bl_iot_sdk/components/bl602/bl602_std/bl602_std/StdDriver/Inc/bl602_glb.h"
	.file 13 "/home/hogc/build-tools/sdk/bl/bl_iot_sdk/components/hal_drv/bl602_hal/bl_irq.h"