	.file	"hal_spi.c"
	.option nopic
	.attribute arch, "rv32i2p0_m2p0_f2p0_c2p0"
	.attribute unaligned_access, 0
	.attribute stack_align, 16
	.text
.Ltext0:
	.cfi_sections	.debug_frame
	.section	.text.fdt32_to_cpu,"ax",@progbits
	.align	1
	.type	fdt32_to_cpu, @function
fdt32_to_cpu:
.LFB29:
	.file 1 "/home/hogc/build-tools/sdk/bl/bl_iot_sdk/components/stage/blfdt/inc/libfdt_env.h"
	.loc 1 121 1
	.cfi_startproc
.LVL0:
	.loc 1 122 5
	.loc 1 122 212 is_stmt 0
	srli	a4,a0,24
	.loc 1 122 12
	slli	a5,a0,24
	or	a5,a5,a4
	.loc 1 122 112
	srli	a4,a0,8
	andi	a4,a4,0xff
	.loc 1 122 163
	srli	a0,a0,16
.LVL1:
	.loc 1 122 117
	slli	a4,a4,16
	.loc 1 122 163
	andi	a0,a0,0xff
	.loc 1 122 12
	or	a5,a5,a4
	.loc 1 122 168
	slli	a0,a0,8
	.loc 1 123 1
	or	a0,a5,a0
	ret
	.cfi_endproc
.LFE29:
	.size	fdt32_to_cpu, .-fdt32_to_cpu
	.section	.text.bl_spi0_dma_int_handler_tx,"ax",@progbits
	.align	1
	.globl	bl_spi0_dma_int_handler_tx
	.type	bl_spi0_dma_int_handler_tx, @function
bl_spi0_dma_int_handler_tx:
.LFB77:
	.file 2 "/home/hogc/build-tools/sdk/bl/bl_iot_sdk/components/hal_drv/bl602_hal/hal_spi.c"
	.loc 2 750 1 is_stmt 1
	.cfi_startproc
	.loc 2 751 5
.LVL2:
	.loc 2 752 5
	.loc 2 750 1 is_stmt 0
	addi	sp,sp,-32
	.cfi_def_cfa_offset 32
	sw	s0,24(sp)
	.cfi_offset 8, -8
	.loc 2 754 13
	lui	s0,%hi(.LANCHOR0)
	addi	s0,s0,%lo(.LANCHOR0)
	lw	a5,0(s0)
	.loc 2 750 1
	sw	ra,28(sp)
	.cfi_offset 1, -4
	.loc 2 752 16
	sw	zero,12(sp)
	.loc 2 754 5 is_stmt 1
	.loc 2 754 8 is_stmt 0
	beq	a5,zero,.L2
	.loc 2 755 9 is_stmt 1
	lbu	a0,9(a5)
	call	bl_dma_int_clear
.LVL3:
	.loc 2 757 9
	.loc 2 757 32 is_stmt 0
	lw	a5,0(s0)
	lw	a0,16(a5)
	.loc 2 757 12
	beq	a0,zero,.L2
	.loc 2 758 13 is_stmt 1
	.loc 2 758 23 is_stmt 0
	addi	a2,sp,12
	li	a1,1
	call	xEventGroupSetBitsFromISR
.LVL4:
	.loc 2 763 9 is_stmt 1
	.loc 2 763 11 is_stmt 0
	beq	a0,zero,.L2
	.loc 2 764 13 is_stmt 1
	.loc 2 764 15 is_stmt 0
	lw	a5,12(sp)
	beq	a5,zero,.L2
	.loc 2 764 44 is_stmt 1 discriminator 1
	call	vTaskSwitchContext
.LVL5:
	.loc 2 767 9 discriminator 1
	.loc 2 770 5 discriminator 1
.L2:
	.loc 2 771 1 is_stmt 0
	lw	ra,28(sp)
	.cfi_restore 1
	lw	s0,24(sp)
	.cfi_restore 8
	addi	sp,sp,32
	.cfi_def_cfa_offset 0
	jr	ra
	.cfi_endproc
.LFE77:
	.size	bl_spi0_dma_int_handler_tx, .-bl_spi0_dma_int_handler_tx
	.section	.text.bl_spi0_dma_int_handler_rx,"ax",@progbits
	.align	1
	.globl	bl_spi0_dma_int_handler_rx
	.type	bl_spi0_dma_int_handler_rx, @function
bl_spi0_dma_int_handler_rx:
.LFB78:
	.loc 2 774 1 is_stmt 1
	.cfi_startproc
	.loc 2 775 5
.LVL6:
	.loc 2 776 5
	.loc 2 774 1 is_stmt 0
	addi	sp,sp,-32
	.cfi_def_cfa_offset 32
	sw	s0,24(sp)
	.cfi_offset 8, -8
	.loc 2 778 13
	lui	s0,%hi(.LANCHOR0)
	addi	s0,s0,%lo(.LANCHOR0)
	lw	a5,0(s0)
	.loc 2 774 1
	sw	ra,28(sp)
	.cfi_offset 1, -4
	.loc 2 776 16
	sw	zero,12(sp)
	.loc 2 778 5 is_stmt 1
	.loc 2 778 8 is_stmt 0
	beq	a5,zero,.L16
	.loc 2 779 9 is_stmt 1
	lbu	a0,10(a5)
	call	bl_dma_int_clear
.LVL7:
	.loc 2 781 9
	.loc 2 781 32 is_stmt 0
	lw	a5,0(s0)
	lw	a0,16(a5)
	.loc 2 781 12
	beq	a0,zero,.L16
	.loc 2 782 13 is_stmt 1
	.loc 2 782 23 is_stmt 0
	addi	a2,sp,12
	li	a1,2
	call	xEventGroupSetBitsFromISR
.LVL8:
	.loc 2 787 9 is_stmt 1
	.loc 2 787 11 is_stmt 0
	beq	a0,zero,.L16
	.loc 2 788 13 is_stmt 1
	.loc 2 788 15 is_stmt 0
	lw	a5,12(sp)
	beq	a5,zero,.L16
	.loc 2 788 44 is_stmt 1 discriminator 1
	call	vTaskSwitchContext
.LVL9:
	.loc 2 791 9 discriminator 1
	.loc 2 793 5 discriminator 1
.L16:
	.loc 2 794 1 is_stmt 0
	lw	ra,28(sp)
	.cfi_restore 1
	lw	s0,24(sp)
	.cfi_restore 8
	addi	sp,sp,32
	.cfi_def_cfa_offset 0
	jr	ra
	.cfi_endproc
.LFE78:
	.size	bl_spi0_dma_int_handler_rx, .-bl_spi0_dma_int_handler_rx
	.section	.text.hal_spi_init,"ax",@progbits
	.align	1
	.globl	hal_spi_init
	.type	hal_spi_init, @function
hal_spi_init:
.LFB66:
	.loc 2 343 1 is_stmt 1
	.cfi_startproc
.LVL10:
	.loc 2 344 5
	.loc 2 345 5
	.loc 2 347 5
	.loc 2 348 9
	.loc 2 351 5
	.loc 2 343 1 is_stmt 0
	addi	sp,sp,-48
	.cfi_def_cfa_offset 48
	sw	ra,44(sp)
	sw	s0,40(sp)
	sw	s1,36(sp)
	sw	s2,32(sp)
	.cfi_offset 1, -4
	.cfi_offset 8, -8
	.cfi_offset 9, -12
	.cfi_offset 18, -16
	.loc 2 351 10
	lw	s0,12(a0)
.LVL11:
	.loc 2 352 5 is_stmt 1
	.loc 2 353 16 is_stmt 0
	li	a0,-1
.LVL12:
	.loc 2 352 8
	beq	s0,zero,.L30
.LVL13:
	.loc 2 357 9 is_stmt 1 discriminator 1
.LBB6:
.LBB7:
	.loc 2 92 5 discriminator 1
	.loc 2 94 5 discriminator 1
	.loc 2 99 5 discriminator 1
	.loc 2 99 17 is_stmt 0 discriminator 1
	lbu	a5,12(s0)
	.loc 2 104 5 discriminator 1
	li	a2,4
	addi	a1,sp,24
	.loc 2 99 17 discriminator 1
	sb	a5,24(sp)
	.loc 2 100 5 is_stmt 1 discriminator 1
	.loc 2 100 17 is_stmt 0 discriminator 1
	lbu	a5,11(s0)
	.loc 2 104 5 discriminator 1
	li	a0,4
	.loc 2 100 17 discriminator 1
	sb	a5,25(sp)
	.loc 2 101 5 is_stmt 1 discriminator 1
	.loc 2 101 17 is_stmt 0 discriminator 1
	lbu	a5,13(s0)
	sb	a5,26(sp)
	.loc 2 102 5 is_stmt 1 discriminator 1
	.loc 2 102 17 is_stmt 0 discriminator 1
	lbu	a5,14(s0)
	sb	a5,27(sp)
	.loc 2 104 5 is_stmt 1 discriminator 1
	call	GLB_GPIO_Func_Init
.LVL14:
	.loc 2 106 5 discriminator 1
	.loc 2 106 8 is_stmt 0 discriminator 1
	lbu	a5,2(s0)
	.loc 2 107 9 discriminator 1
	li	a0,1
	.loc 2 106 8 discriminator 1
	beq	a5,zero,.L46
	.loc 2 109 9 is_stmt 1
	li	a0,0
.L46:
	call	GLB_Set_SPI_0_ACT_MOD_Sel
.LVL15:
.LBE7:
.LBE6:
	.loc 2 358 9
.LBB8:
.LBB9:
	.loc 2 196 5
	.loc 2 197 5
	.loc 2 198 5
	.loc 2 199 5
	.loc 2 200 5
	.loc 2 201 5
	.loc 2 203 5
	.loc 2 212 34 is_stmt 0
	lw	a5,4(s0)
	li	s1,40001536
	addi	s1,s1,-1536
	divu	s1,s1,a5
	.loc 2 203 12
	lbu	s2,1(s0)
.LVL16:
	.loc 2 212 5 is_stmt 1
	.loc 2 213 5 is_stmt 0
	li	a1,0
	li	a0,1
	call	GLB_Set_SPI_CLK
.LVL17:
	.loc 2 219 5
	addi	a1,sp,16
	mv	a0,s2
	.loc 2 212 13
	andi	s1,s1,0xff
.LVL18:
	.loc 2 213 5 is_stmt 1
	.loc 2 214 5
	.loc 2 214 23 is_stmt 0
	sb	s1,16(sp)
	.loc 2 215 5 is_stmt 1
	.loc 2 215 22 is_stmt 0
	sb	s1,17(sp)
	.loc 2 216 5 is_stmt 1
	.loc 2 216 28 is_stmt 0
	sb	s1,18(sp)
	.loc 2 217 5 is_stmt 1
	.loc 2 217 28 is_stmt 0
	sb	s1,19(sp)
	.loc 2 218 5 is_stmt 1
	.loc 2 218 26 is_stmt 0
	sb	s1,20(sp)
	.loc 2 219 5 is_stmt 1
	call	SPI_ClockConfig
.LVL19:
	.loc 2 222 5
	.loc 2 223 5
	.loc 2 224 5
	.loc 2 222 27 is_stmt 0
	li	a4,256
	sw	a4,24(sp)
	.loc 2 226 22
	sb	zero,30(sp)
	.loc 2 228 5 is_stmt 1
	.loc 2 228 15 is_stmt 0
	lbu	a5,8(s0)
	.loc 2 228 8
	bne	a5,zero,.L34
	.loc 2 229 9 is_stmt 1
	.loc 2 230 9
	.loc 2 229 28 is_stmt 0
	sh	zero,28(sp)
.L35:
	.loc 2 241 9 is_stmt 1
	.loc 2 243 5
	addi	a1,sp,24
	li	a0,0
	call	SPI_Init
.LVL20:
	.loc 2 245 5
	.loc 2 245 8 is_stmt 0
	lbu	a5,2(s0)
	.loc 2 247 9
	li	a1,1
	.loc 2 245 8
	beq	a5,zero,.L48
	.loc 2 249 9 is_stmt 1
	li	a1,0
.L48:
	mv	a0,s2
	call	SPI_Disable
.LVL21:
	.loc 2 252 5
	li	a2,1
	li	a1,6
	mv	a0,s2
	call	SPI_IntMask
.LVL22:
	.loc 2 255 5
	.loc 2 256 5
	.loc 2 257 5
	.loc 2 258 5
	.loc 2 255 29 is_stmt 0
	li	a5,16842752
	addi	a5,a5,257
	.loc 2 259 5
	addi	a1,sp,12
	mv	a0,s2
	.loc 2 255 29
	sw	a5,12(sp)
	.loc 2 259 5 is_stmt 1
	call	SPI_FifoConfig
.LVL23:
	.loc 2 261 5
	call	DMA_Disable
.LVL24:
	.loc 2 262 5
	lbu	a0,9(s0)
	li	a2,1
	li	a1,2
	call	DMA_IntMask
.LVL25:
	.loc 2 263 5
	lbu	a0,9(s0)
	li	a2,0
	li	a1,0
	call	DMA_IntMask
.LVL26:
	.loc 2 264 5
	lbu	a0,9(s0)
	li	a2,0
	li	a1,1
	call	DMA_IntMask
.LVL27:
	.loc 2 266 5
	lbu	a0,10(s0)
	li	a2,1
	li	a1,2
	call	DMA_IntMask
.LVL28:
	.loc 2 267 5
	lbu	a0,10(s0)
	li	a2,0
	li	a1,0
	call	DMA_IntMask
.LVL29:
	.loc 2 268 5
	lbu	a0,10(s0)
	li	a2,0
	li	a1,1
	call	DMA_IntMask
.LVL30:
	.loc 2 270 5
	li	a0,31
	call	bl_irq_enable
.LVL31:
	.loc 2 271 5
	lbu	a0,9(s0)
	lui	a1,%hi(bl_spi0_dma_int_handler_tx)
	li	a3,0
	li	a2,0
	addi	a1,a1,%lo(bl_spi0_dma_int_handler_tx)
	call	bl_dma_irq_register
.LVL32:
	.loc 2 272 5
	lbu	a0,10(s0)
	lui	a1,%hi(bl_spi0_dma_int_handler_rx)
	li	a3,0
	li	a2,0
	addi	a1,a1,%lo(bl_spi0_dma_int_handler_rx)
	call	bl_dma_irq_register
.LVL33:
	.loc 2 274 5
.LBE9:
.LBE8:
	.loc 2 365 12 is_stmt 0
	li	a0,0
.LVL34:
.L30:
	.loc 2 366 1
	lw	ra,44(sp)
	.cfi_remember_state
	.cfi_restore 1
	lw	s0,40(sp)
	.cfi_restore 8
.LVL35:
	lw	s1,36(sp)
	.cfi_restore 9
	lw	s2,32(sp)
	.cfi_restore 18
	addi	sp,sp,48
	.cfi_def_cfa_offset 0
	jr	ra
.LVL36:
.L34:
	.cfi_restore_state
.LBB11:
.LBB10:
	.loc 2 231 12 is_stmt 1
	.loc 2 231 15 is_stmt 0
	li	a3,1
	bne	a5,a3,.L36
.L47:
	.loc 2 238 28
	sh	a5,28(sp)
	j	.L35
.L36:
	.loc 2 234 12 is_stmt 1
	.loc 2 234 15 is_stmt 0
	li	a3,2
	bne	a5,a3,.L37
	.loc 2 235 9 is_stmt 1
	.loc 2 236 9
	.loc 2 235 28 is_stmt 0
	sh	a4,28(sp)
	j	.L35
.L37:
	.loc 2 237 12 is_stmt 1
	.loc 2 237 15 is_stmt 0
	li	a4,3
	bne	a5,a4,.L35
	.loc 2 238 9 is_stmt 1
	.loc 2 239 9
	.loc 2 238 28 is_stmt 0
	li	a5,257
	j	.L47
.LBE10:
.LBE11:
	.cfi_endproc
.LFE66:
	.size	hal_spi_init, .-hal_spi_init
	.section	.text.hal_spi_finalize,"ax",@progbits
	.align	1
	.globl	hal_spi_finalize
	.type	hal_spi_finalize, @function
hal_spi_finalize:
.LFB67:
	.loc 2 369 1 is_stmt 1
	.cfi_startproc
.LVL37:
	.loc 2 370 5
	.loc 2 371 5
	.loc 2 372 1 is_stmt 0
	li	a0,0
.LVL38:
	ret
	.cfi_endproc
.LFE67:
	.size	hal_spi_finalize, .-hal_spi_finalize
	.section	.text.hal_spi_send,"ax",@progbits
	.align	1
	.globl	hal_spi_send
	.type	hal_spi_send, @function
hal_spi_send:
.LFB68:
	.loc 2 375 1 is_stmt 1
	.cfi_startproc
.LVL39:
	.loc 2 376 5
	.loc 2 377 5
	.loc 2 378 1 is_stmt 0
	li	a0,0
.LVL40:
	ret
	.cfi_endproc
.LFE68:
	.size	hal_spi_send, .-hal_spi_send
	.section	.text.hal_spi_recv,"ax",@progbits
	.align	1
	.globl	hal_spi_recv
	.type	hal_spi_recv, @function
hal_spi_recv:
.LFB80:
	.cfi_startproc
	li	a0,0
	ret
	.cfi_endproc
.LFE80:
	.size	hal_spi_recv, .-hal_spi_recv
	.section	.text.hal_spi_send_recv,"ax",@progbits
	.align	1
	.globl	hal_spi_send_recv
	.type	hal_spi_send_recv, @function
hal_spi_send_recv:
.LFB70:
	.loc 2 387 1 is_stmt 1
	.cfi_startproc
.LVL41:
	.loc 2 388 5
	.loc 2 389 5
	.loc 2 390 1 is_stmt 0
	li	a0,0
.LVL42:
	ret
	.cfi_endproc
.LFE70:
	.size	hal_spi_send_recv, .-hal_spi_send_recv
	.section	.text.hal_spi_set_rwmode,"ax",@progbits
	.align	1
	.globl	hal_spi_set_rwmode
	.type	hal_spi_set_rwmode, @function
hal_spi_set_rwmode:
.LFB71:
	.loc 2 393 1 is_stmt 1
	.cfi_startproc
.LVL43:
	.loc 2 394 5
	.loc 2 399 5
	.loc 2 399 8 is_stmt 0
	li	a4,3
	bgtu	a1,a4,.L55
	.loc 2 404 5 is_stmt 1
	.loc 2 393 1 is_stmt 0
	addi	sp,sp,-16
	.cfi_def_cfa_offset 16
	sw	ra,12(sp)
	.cfi_offset 1, -4
	.loc 2 405 24
	lbu	a3,0(a0)
	.loc 2 405 37
	li	a2,20
	.loc 2 404 10
	lw	a4,12(a0)
.LVL44:
	.loc 2 405 5 is_stmt 1
	.loc 2 405 37 is_stmt 0
	mul	a3,a3,a2
	andi	a1,a1,0xff
.LVL45:
	add	a4,a4,a3
.LVL46:
	sb	a1,2(a4)
.LVL47:
	.loc 2 406 5 is_stmt 1
	.loc 2 406 26 is_stmt 0
	sb	a1,4(a0)
	.loc 2 408 5 is_stmt 1
	call	hal_spi_init
.LVL48:
	.loc 2 409 5
	.loc 2 410 1 is_stmt 0
	lw	ra,12(sp)
	.cfi_restore 1
	.loc 2 409 12
	li	a0,0
	.loc 2 410 1
	addi	sp,sp,16
	.cfi_def_cfa_offset 0
	jr	ra
.LVL49:
.L55:
	.loc 2 401 16
	li	a0,-1
.LVL50:
	.loc 2 410 1
	ret
	.cfi_endproc
.LFE71:
	.size	hal_spi_set_rwmode, .-hal_spi_set_rwmode
	.section	.text.hal_spi_set_rwspeed,"ax",@progbits
	.align	1
	.globl	hal_spi_set_rwspeed
	.type	hal_spi_set_rwspeed, @function
hal_spi_set_rwspeed:
.LFB72:
	.loc 2 413 1 is_stmt 1
	.cfi_startproc
.LVL51:
	.loc 2 414 5
	.loc 2 415 5
	.loc 2 416 5
	.loc 2 417 5
	.loc 2 422 5
	.loc 2 422 8 is_stmt 0
	lw	a5,8(a0)
	beq	a5,a1,.L67
	.loc 2 428 31
	li	a6,40001536
	.loc 2 417 14
	li	a5,0
	.loc 2 416 13
	li	a7,0
	.loc 2 427 12
	li	a4,0
	.loc 2 428 31
	addi	a6,a6,-1536
	.loc 2 427 5
	li	t1,256
.LVL52:
.L64:
	.loc 2 428 9 is_stmt 1
	.loc 2 428 34 is_stmt 0
	addi	a3,a4,1
	.loc 2 428 31
	div	a2,a6,a3
	.loc 2 428 12
	beq	a2,a1,.L68
	.loc 2 431 16 is_stmt 1
	.loc 2 431 19 is_stmt 0
	bleu	a2,a1,.L63
.LVL53:
.L62:
	mv	a4,a3
	.loc 2 427 5 discriminator 1
	bne	a3,t1,.L64
	.loc 2 438 5 is_stmt 1
	.loc 2 441 20 is_stmt 0
	li	a3,-1
.LVL54:
	.loc 2 438 8
	beq	a7,zero,.L75
	j	.L66
.L68:
	mv	a5,a1
.LVL55:
	.loc 2 430 23
	li	a7,1
.LVL56:
	j	.L62
.LVL57:
.L63:
	.loc 2 438 5 is_stmt 1
	.loc 2 438 8 is_stmt 0
	bne	a7,zero,.L66
	.loc 2 439 9 is_stmt 1
	.loc 2 441 20 is_stmt 0
	li	a3,-1
	.loc 2 439 12
	beq	a4,zero,.L75
	.loc 2 442 16 is_stmt 1
	.loc 2 446 13
	.loc 2 446 65 is_stmt 0
	div	a5,a6,a4
.LVL58:
	.loc 2 446 36
	sub	a4,a2,a1
.LVL59:
	.loc 2 446 54
	sub	a1,a1,a5
.LVL60:
	.loc 2 446 16
	bleu	a4,a1,.L66
	.loc 2 431 37
	mv	a5,a2
.L66:
.LVL61:
	.loc 2 451 17 is_stmt 1
	.loc 2 456 5
	.loc 2 413 1 is_stmt 0
	addi	sp,sp,-16
	.cfi_def_cfa_offset 16
	sw	ra,12(sp)
	.cfi_offset 1, -4
	.loc 2 457 24
	lbu	a3,0(a0)
	.loc 2 457 37
	li	a2,20
	.loc 2 456 10
	lw	a4,12(a0)
.LVL62:
	.loc 2 457 5 is_stmt 1
	.loc 2 457 37 is_stmt 0
	mul	a3,a3,a2
	add	a4,a4,a3
.LVL63:
	sw	a5,4(a4)
.LVL64:
	.loc 2 458 5 is_stmt 1
	.loc 2 458 26 is_stmt 0
	sw	a5,8(a0)
	.loc 2 460 5 is_stmt 1
	call	hal_spi_init
.LVL65:
	.loc 2 461 5
	.loc 2 462 1 is_stmt 0
	lw	ra,12(sp)
	.cfi_restore 1
	.loc 2 461 12
	li	a3,0
	.loc 2 462 1
	mv	a0,a3
	addi	sp,sp,16
	.cfi_def_cfa_offset 0
	jr	ra
.LVL66:
.L67:
	.loc 2 424 16
	li	a3,0
.LVL67:
.L75:
	.loc 2 462 1
	mv	a0,a3
.LVL68:
	ret
	.cfi_endproc
.LFE72:
	.size	hal_spi_set_rwspeed, .-hal_spi_set_rwspeed
	.section	.text.hal_spi_transfer,"ax",@progbits
	.align	1
	.globl	hal_spi_transfer
	.type	hal_spi_transfer, @function
hal_spi_transfer:
.LFB73:
	.loc 2 465 1 is_stmt 1
	.cfi_startproc
.LVL69:
	.loc 2 466 5
	.loc 2 467 5
	.loc 2 468 5
	.loc 2 470 5
	.loc 2 472 16 is_stmt 0
	li	a5,-1
	.loc 2 470 8
	beq	a0,zero,.L106
	.loc 2 470 20 discriminator 1
	beq	a1,zero,.L106
	.loc 2 475 5 is_stmt 1
	.loc 2 465 1 is_stmt 0
	addi	sp,sp,-96
	.cfi_def_cfa_offset 96
	sw	ra,92(sp)
	sw	s0,88(sp)
	sw	s1,84(sp)
	sw	s2,80(sp)
	sw	s3,76(sp)
	sw	s4,72(sp)
	sw	s5,68(sp)
	sw	s6,64(sp)
	sw	s7,60(sp)
	sw	s8,56(sp)
	sw	s9,52(sp)
	sw	s10,48(sp)
	sw	s11,44(sp)
	.cfi_offset 1, -4
	.cfi_offset 8, -8
	.cfi_offset 9, -12
	.cfi_offset 18, -16
	.cfi_offset 19, -20
	.cfi_offset 20, -24
	.cfi_offset 21, -28
	.cfi_offset 22, -32
	.cfi_offset 23, -36
	.cfi_offset 24, -40
	.cfi_offset 25, -44
	.cfi_offset 26, -48
	.cfi_offset 27, -52
	.loc 2 475 15
	lw	s4,12(a0)
.LVL70:
	.loc 2 476 5 is_stmt 1
	.loc 2 476 8 is_stmt 0
	beq	s4,zero,.L77
	.loc 2 490 5
	slli	a5,a2,16
	srli	a5,a5,16
.LBB16:
.LBB17:
	.loc 2 295 18
	li	s5,4096
	sw	a0,12(sp)
	mv	s1,a1
.LBE17:
.LBE16:
	.loc 2 490 12
	li	s3,0
	.loc 2 490 5
	sw	a5,8(sp)
.LBB32:
.LBB26:
.LBB18:
.LBB19:
	.loc 2 157 38
	addi	s6,s5,-1
	.loc 2 173 35
	li	s7,1073782784
.LVL71:
.L79:
.LBE19:
.LBE18:
.LBE26:
.LBE32:
	.loc 2 490 5 discriminator 1
	lw	a5,8(sp)
	bgtu	a5,s3,.L90
	.loc 2 501 12
	li	a5,0
.LVL72:
.L77:
	.loc 2 502 1
	lw	ra,92(sp)
	.cfi_remember_state
	.cfi_restore 1
	lw	s0,88(sp)
	.cfi_restore 8
	lw	s1,84(sp)
	.cfi_restore 9
	lw	s2,80(sp)
	.cfi_restore 18
	lw	s3,76(sp)
	.cfi_restore 19
	lw	s4,72(sp)
	.cfi_restore 20
.LVL73:
	lw	s5,68(sp)
	.cfi_restore 21
	lw	s6,64(sp)
	.cfi_restore 22
	lw	s7,60(sp)
	.cfi_restore 23
	lw	s8,56(sp)
	.cfi_restore 24
	lw	s9,52(sp)
	.cfi_restore 25
	lw	s10,48(sp)
	.cfi_restore 26
	lw	s11,44(sp)
	.cfi_restore 27
	mv	a0,a5
	addi	sp,sp,96
	.cfi_def_cfa_offset 0
	jr	ra
.LVL74:
.L90:
	.cfi_restore_state
	.loc 2 494 9 is_stmt 1 discriminator 3
	.loc 2 494 52 is_stmt 0 discriminator 3
	lw	a5,12(sp)
.LBB33:
.LBB27:
	.loc 2 300 5 discriminator 3
	li	s0,20
	li	a1,3
.LBE27:
.LBE33:
	.loc 2 494 52 discriminator 3
	lbu	s2,0(a5)
	.loc 2 495 37 discriminator 3
	lw	a5,0(s1)
	.loc 2 494 9 discriminator 3
	lw	s8,8(s1)
.LBB34:
.LBB28:
	.loc 2 300 5 discriminator 3
	mul	s0,s2,s0
.LBE28:
.LBE34:
	.loc 2 495 37 discriminator 3
	sw	a5,0(sp)
	.loc 2 495 66 discriminator 3
	lw	a5,4(s1)
.LBB35:
.LBB29:
	.loc 2 297 24 discriminator 3
	sb	zero,30(sp)
.LBE29:
.LBE35:
	.loc 2 495 66 discriminator 3
	sw	a5,4(sp)
.LVL75:
.LBB36:
.LBB30:
	.loc 2 279 5 is_stmt 1 discriminator 3
	.loc 2 280 5 discriminator 3
	.loc 2 281 5 discriminator 3
	.loc 2 282 5 discriminator 3
	.loc 2 283 5 discriminator 3
	.loc 2 284 5 discriminator 3
	.loc 2 286 5 discriminator 3
	.loc 2 291 5 discriminator 3
	.loc 2 292 5 discriminator 3
	.loc 2 293 5 discriminator 3
	.loc 2 291 18 is_stmt 0 discriminator 3
	li	a5,1
.LVL76:
	sh	a5,24(sp)
	.loc 2 293 24 discriminator 3
	li	a5,11
	sb	a5,26(sp)
	.loc 2 295 5 is_stmt 1 discriminator 3
	.loc 2 296 5 discriminator 3
	.loc 2 297 5 discriminator 3
	.loc 2 300 5 discriminator 3
	add	s0,s4,s0
.LVL77:
	lw	a0,16(s0)
	.loc 2 295 18 is_stmt 0 discriminator 3
	li	a5,4096
	addi	a5,a5,-1534
	sh	a5,28(sp)
	.loc 2 300 5 discriminator 3
	call	xEventGroupClearBits
.LVL78:
	.loc 2 302 5 is_stmt 1 discriminator 3
	lbu	a0,9(s0)
	call	DMA_Channel_Disable
.LVL79:
	.loc 2 303 5 discriminator 3
	lbu	a0,10(s0)
	call	DMA_Channel_Disable
.LVL80:
	.loc 2 304 5 discriminator 3
	lbu	a0,9(s0)
	call	bl_dma_int_clear
.LVL81:
	.loc 2 305 5 discriminator 3
	lbu	a0,10(s0)
	call	bl_dma_int_clear
.LVL82:
	.loc 2 306 5 discriminator 3
	call	DMA_Enable
.LVL83:
	.loc 2 308 5 discriminator 3
	.loc 2 308 8 is_stmt 0 discriminator 3
	lbu	a5,2(s0)
	lbu	a0,1(s0)
	.loc 2 309 9 discriminator 3
	li	a1,1
	.loc 2 308 8 discriminator 3
	beq	a5,zero,.L109
	.loc 2 311 9 is_stmt 1
	li	a1,0
.L109:
.LBB23:
.LBB20:
	.loc 2 123 11 is_stmt 0
	srli	s10,s8,11
	.loc 2 124 15
	andi	s8,s8,2047
.LVL84:
.LBE20:
.LBE23:
	.loc 2 311 9
	call	SPI_Enable
.LVL85:
	.loc 2 314 5 is_stmt 1
.LBB24:
.LBB21:
	.loc 2 117 5
	.loc 2 118 5
	.loc 2 119 5
	.loc 2 120 5
	.loc 2 123 5
	.loc 2 124 5
	.loc 2 126 5
	.loc 2 126 8 is_stmt 0
	beq	s8,zero,.L82
	.loc 2 127 9 is_stmt 1
	.loc 2 127 15 is_stmt 0
	addi	s10,s10,1
.LVL86:
.L82:
	.loc 2 130 5 is_stmt 1
	.loc 2 131 5
	.loc 2 132 5
	.loc 2 133 5
	.loc 2 134 5
	.loc 2 135 5
	.loc 2 137 5
	.loc 2 137 55 is_stmt 0
	slli	s11,s10,4
	.loc 2 137 16
	mv	a0,s11
	call	pvPortMalloc
.LVL87:
	mv	s9,a0
.LVL88:
	.loc 2 138 5 is_stmt 1
	.loc 2 138 8 is_stmt 0
	beq	a0,zero,.L89
	.loc 2 144 5 is_stmt 1
	.loc 2 144 16 is_stmt 0
	mv	a0,s11
.LVL89:
	call	pvPortMalloc
.LVL90:
	mv	s11,a0
.LVL91:
	.loc 2 145 5 is_stmt 1
	.loc 2 147 9 is_stmt 0
	mv	a0,s9
.LVL92:
	.loc 2 145 8
	beq	s11,zero,.L110
	.loc 2 174 31
	li	a6,-2113925120
	li	a7,-2147483648
	.loc 2 145 8
	mv	a3,s11
	mv	a4,s9
	.loc 2 152 12
	li	a2,0
	addi	t3,s10,-1
	.loc 2 154 34
	addi	t4,s5,-2048
	.loc 2 157 38
	and	t6,s8,s6
	.loc 2 174 31
	li	t5,-4096
	addi	a6,a6,-1
	li	t0,67108864
	xori	a7,a7,-1
	.loc 2 178 34
	addi	t2,s7,652
	.loc 2 180 31
	li	ra,134217728
.LVL93:
.L85:
	.loc 2 152 5
	bne	s10,a2,.L88
.LVL94:
.LBE21:
.LBE24:
	.loc 2 315 5 is_stmt 1
	.loc 2 321 5
	lbu	a0,9(s0)
	addi	a1,sp,24
	call	DMA_LLI_Init
.LVL95:
	.loc 2 322 5
	lbu	a0,10(s0)
	addi	a1,sp,28
	call	DMA_LLI_Init
.LVL96:
	.loc 2 323 5
	lbu	a0,9(s0)
	mv	a1,s9
	call	DMA_LLI_Update
.LVL97:
	.loc 2 324 5
	lbu	a0,10(s0)
	mv	a1,s11
	call	DMA_LLI_Update
.LVL98:
	.loc 2 325 5
	lbu	a0,9(s0)
	call	DMA_Channel_Enable
.LVL99:
	.loc 2 326 5
	lbu	a0,10(s0)
	call	DMA_Channel_Enable
.LVL100:
	.loc 2 328 5
	.loc 2 328 14 is_stmt 0
	li	a5,20
	mul	s2,s2,a5
	li	a4,-1
	li	a3,1
	li	a2,1
	li	a1,3
	add	s2,s4,s2
	lw	a0,16(s2)
	call	xEventGroupWaitBits
.LVL101:
	.loc 2 334 5 is_stmt 1
	.loc 2 335 9
	.loc 2 338 5
	mv	a0,s9
	call	vPortFree
.LVL102:
	.loc 2 339 5
	mv	a0,s11
.LVL103:
.L110:
	call	vPortFree
.LVL104:
.L89:
.LBE30:
.LBE36:
	.loc 2 490 28 is_stmt 0 discriminator 3
	addi	s3,s3,1
.LVL105:
	slli	s3,s3,16
	srli	s3,s3,16
.LVL106:
	addi	s1,s1,28
	j	.L79
.LVL107:
.L88:
.LBB37:
.LBB31:
.LBB25:
.LBB22:
	.loc 2 153 9 is_stmt 1
	.loc 2 154 34 is_stmt 0
	mv	a0,t4
	.loc 2 153 12
	beq	s8,zero,.L86
	.loc 2 156 13 is_stmt 1
	.loc 2 156 16 is_stmt 0
	bne	a2,t3,.L86
	.loc 2 157 17 is_stmt 1
	.loc 2 157 38 is_stmt 0
	mv	a0,t6
.LVL108:
.L86:
	.loc 2 163 9 is_stmt 1
	.loc 2 164 9
	.loc 2 166 9
	.loc 2 172 34 is_stmt 0
	lw	a5,0(sp)
	slli	t1,a2,11
	.loc 2 174 31
	and	a0,a0,s6
.LVL109:
	.loc 2 172 34
	add	a5,a5,t1
	sw	a5,0(a4)
	.loc 2 173 35
	li	a5,1073782784
	addi	a5,a5,648
	sw	a5,4(a4)
	.loc 2 174 31
	lw	a5,12(a4)
	.loc 2 166 12
	sub	a1,a2,t3
	seqz	a1,a1
.LVL110:
	.loc 2 172 9 is_stmt 1
	.loc 2 173 9
	.loc 2 174 9
	.loc 2 174 31 is_stmt 0
	and	a5,a5,t5
	or	a5,a5,a0
	and	a5,a5,a6
	or	a5,a5,t0
	slli	a1,a1,31
.LVL111:
	and	a5,a5,a7
	or	a5,a5,a1
	sw	a5,12(a4)
	.loc 2 176 9 is_stmt 1
.LVL112:
	.loc 2 177 9
	.loc 2 178 9
	.loc 2 179 35 is_stmt 0
	lw	a5,4(sp)
	.loc 2 178 34
	sw	t2,0(a3)
	.loc 2 179 9 is_stmt 1
	.loc 2 179 35 is_stmt 0
	add	t1,a5,t1
	.loc 2 180 31
	lw	a5,12(a3)
	.loc 2 179 35
	sw	t1,4(a3)
	.loc 2 180 9 is_stmt 1
	.loc 2 180 31 is_stmt 0
	and	a5,a5,t5
	or	a5,a5,a0
	and	a5,a5,a6
	or	a5,a5,ra
	and	a5,a5,a7
	or	a1,a5,a1
	sw	a1,12(a3)
	.loc 2 182 9 is_stmt 1
	.loc 2 182 12 is_stmt 0
	beq	a2,zero,.L87
	.loc 2 183 13 is_stmt 1
	.loc 2 183 37 is_stmt 0
	sw	a4,-8(a4)
	.loc 2 184 13 is_stmt 1
	.loc 2 184 37 is_stmt 0
	sw	a3,-8(a3)
.L87:
	.loc 2 187 9 is_stmt 1
	.loc 2 187 31 is_stmt 0
	sw	zero,8(a4)
	.loc 2 188 9 is_stmt 1
	.loc 2 188 31 is_stmt 0
	sw	zero,8(a3)
	.loc 2 152 29
	addi	a2,a2,1
.LVL113:
	addi	a4,a4,16
	addi	a3,a3,16
	j	.L85
.LVL114:
.L106:
	.cfi_def_cfa_offset 0
	.cfi_restore 1
	.cfi_restore 8
	.cfi_restore 9
	.cfi_restore 18
	.cfi_restore 19
	.cfi_restore 20
	.cfi_restore 21
	.cfi_restore 22
	.cfi_restore 23
	.cfi_restore 24
	.cfi_restore 25
	.cfi_restore 26
	.cfi_restore 27
.LBE22:
.LBE25:
.LBE31:
.LBE37:
	.loc 2 502 1
	mv	a0,a5
.LVL115:
	ret
	.cfi_endproc
.LFE73:
	.size	hal_spi_transfer, .-hal_spi_transfer
	.section	.text.vfs_spi_init_fullname,"ax",@progbits
	.align	1
	.globl	vfs_spi_init_fullname
	.type	vfs_spi_init_fullname, @function
vfs_spi_init_fullname:
.LFB74:
	.loc 2 507 1 is_stmt 1
	.cfi_startproc
.LVL116:
	.loc 2 508 5
	.loc 2 509 5
	.loc 2 511 5
	.loc 2 507 1 is_stmt 0
	addi	sp,sp,-64
	.cfi_def_cfa_offset 64
	sw	s3,44(sp)
	sw	s4,40(sp)
	sw	s5,36(sp)
	sw	s6,32(sp)
	sw	s7,28(sp)
	sw	s8,24(sp)
	sw	s9,20(sp)
	sw	s10,16(sp)
	sw	s11,12(sp)
	.cfi_offset 19, -20
	.cfi_offset 20, -24
	.cfi_offset 21, -28
	.cfi_offset 22, -32
	.cfi_offset 23, -36
	.cfi_offset 24, -40
	.cfi_offset 25, -44
	.cfi_offset 26, -48
	.cfi_offset 27, -52
	mv	s8,a5
	sw	ra,60(sp)
	sw	s0,56(sp)
	sw	s1,52(sp)
	sw	s2,48(sp)
	.cfi_offset 1, -4
	.cfi_offset 8, -8
	.cfi_offset 9, -12
	.cfi_offset 18, -16
	.loc 2 507 1
	mv	s5,a0
	mv	s11,a1
	mv	s10,a2
	mv	s9,a3
	mv	s4,a4
	mv	s7,a6
	mv	s6,a7
	.loc 2 511 11
	call	strlen
.LVL117:
	.loc 2 512 5 is_stmt 1
	.loc 2 512 8 is_stmt 0
	li	a5,31
	.loc 2 514 16
	li	s3,-22
	.loc 2 512 8
	bgt	a0,a5,.L111
	.loc 2 518 5 is_stmt 1
	.loc 2 518 13 is_stmt 0
	lui	s0,%hi(.LANCHOR0)
	.loc 2 518 8
	lw	a5,%lo(.LANCHOR0)(s0)
	addi	s0,s0,%lo(.LANCHOR0)
	bne	a5,zero,.L113
	.loc 2 519 9 is_stmt 1
	.loc 2 519 39 is_stmt 0
	li	a0,20
.LVL118:
	call	aos_malloc
.LVL119:
	.loc 2 519 19
	sw	a0,0(s0)
	.loc 2 520 9 is_stmt 1
	.loc 2 522 20 is_stmt 0
	li	s3,-12
	.loc 2 520 12
	beq	a0,zero,.L111
	.loc 2 524 9 is_stmt 1
	li	a2,20
	li	a1,0
	call	memset
.LVL120:
.L113:
	.loc 2 527 5
	.loc 2 527 48 is_stmt 0
	li	s1,20
	mul	s1,s11,s1
	.loc 2 527 14
	lw	s2,0(s0)
	.loc 2 527 50
	call	xEventGroupCreate
.LVL121:
	.loc 2 527 48
	add	s2,s2,s1
	sw	a0,16(s2)
	.loc 2 529 62 is_stmt 1
	.loc 2 530 5
	.loc 2 530 25 is_stmt 0
	lw	a0,0(s0)
	.loc 2 530 38
	add	a5,a0,s1
	.loc 2 530 8
	lw	a5,16(a5)
	bne	a5,zero,.L114
.L122:
	.loc 2 539 9
	call	aos_free
.LVL122:
	.loc 2 540 9 is_stmt 1
	.loc 2 540 16 is_stmt 0
	li	s3,-12
.L111:
	.loc 2 571 1
	lw	ra,60(sp)
	.cfi_remember_state
	.cfi_restore 1
	lw	s0,56(sp)
	.cfi_restore 8
	mv	a0,s3
	lw	s1,52(sp)
	.cfi_restore 9
	lw	s2,48(sp)
	.cfi_restore 18
	lw	s3,44(sp)
	.cfi_restore 19
	lw	s4,40(sp)
	.cfi_restore 20
.LVL123:
	lw	s5,36(sp)
	.cfi_restore 21
.LVL124:
	lw	s6,32(sp)
	.cfi_restore 22
	lw	s7,28(sp)
	.cfi_restore 23
	lw	s8,24(sp)
	.cfi_restore 24
	lw	s9,20(sp)
	.cfi_restore 25
	lw	s10,16(sp)
	.cfi_restore 26
	lw	s11,12(sp)
	.cfi_restore 27
	addi	sp,sp,64
	.cfi_def_cfa_offset 0
.LVL125:
	jr	ra
.LVL126:
.L114:
	.cfi_restore_state
	.loc 2 535 5 is_stmt 1
	.loc 2 535 23 is_stmt 0
	li	a0,16
	call	aos_malloc
.LVL127:
	mv	s2,a0
.LVL128:
	.loc 2 536 5 is_stmt 1
	.loc 2 536 8 is_stmt 0
	bne	a0,zero,.L115
	.loc 2 537 9 is_stmt 1
	.loc 2 538 9
	lw	a5,0(s0)
	add	s1,a5,s1
	lw	a0,16(s1)
.LVL129:
	call	vEventGroupDelete
.LVL130:
	.loc 2 539 9
	lw	a0,0(s0)
	j	.L122
.LVL131:
.L115:
	.loc 2 543 5
	li	a2,16
	li	a1,0
	call	memset
.LVL132:
	.loc 2 544 5
	.loc 2 544 15 is_stmt 0
	sb	s11,0(s2)
	.loc 2 545 5 is_stmt 1
	.loc 2 547 14 is_stmt 0
	lw	a5,0(s0)
	.loc 2 545 22
	sb	s10,4(s2)
	.loc 2 546 5 is_stmt 1
	.loc 2 546 22 is_stmt 0
	sw	s4,8(s2)
	.loc 2 547 5 is_stmt 1
	.loc 2 547 35 is_stmt 0
	add	a5,a5,s1
	sb	s11,1(a5)
	.loc 2 548 5 is_stmt 1
	.loc 2 548 14 is_stmt 0
	lw	a5,0(s0)
	.loc 2 554 35
	lbu	a3,64(sp)
	.loc 2 562 11
	lui	a1,%hi(spi_ops)
	.loc 2 548 33
	add	a5,a5,s1
	sb	s10,2(a5)
	.loc 2 549 5 is_stmt 1
	.loc 2 549 14 is_stmt 0
	lw	a4,0(s0)
	.loc 2 562 11
	mv	a2,s2
	addi	a1,a1,%lo(spi_ops)
	add	a5,a4,s1
	.loc 2 554 35
	sb	a3,12(a5)
	.loc 2 555 37
	lbu	a3,68(sp)
	.loc 2 549 40
	sb	s9,8(a5)
	.loc 2 550 5 is_stmt 1
	.loc 2 550 33 is_stmt 0
	sw	s4,4(a5)
	.loc 2 551 5 is_stmt 1
	.loc 2 555 37 is_stmt 0
	sb	a3,13(a5)
	.loc 2 556 37
	lbu	a3,72(sp)
	.loc 2 551 38
	sb	s8,9(a5)
	.loc 2 552 5 is_stmt 1
	.loc 2 552 38 is_stmt 0
	sb	s7,10(a5)
	.loc 2 553 5 is_stmt 1
	.loc 2 553 36 is_stmt 0
	sb	s6,11(a5)
	.loc 2 554 5 is_stmt 1
	.loc 2 555 5
	.loc 2 556 5
	.loc 2 556 37 is_stmt 0
	sb	a3,14(a5)
	.loc 2 557 5 is_stmt 1
	.loc 2 557 15 is_stmt 0
	sw	a4,12(s2)
	.loc 2 560 108 is_stmt 1
	.loc 2 562 5
	.loc 2 562 11 is_stmt 0
	mv	a0,s5
	call	aos_register_driver
.LVL133:
	mv	s3,a0
.LVL134:
	.loc 2 563 5 is_stmt 1
	.loc 2 563 8 is_stmt 0
	beq	a0,zero,.L111
	.loc 2 564 9 is_stmt 1
	mv	a0,s2
.LVL135:
	call	aos_free
.LVL136:
	.loc 2 565 9
	lw	a5,0(s0)
	add	s1,a5,s1
	lw	a0,16(s1)
	call	vEventGroupDelete
.LVL137:
	.loc 2 566 9
	lw	a0,0(s0)
	call	aos_free
.LVL138:
	.loc 2 567 9
	.loc 2 567 16 is_stmt 0
	j	.L111
	.cfi_endproc
.LFE74:
	.size	vfs_spi_init_fullname, .-vfs_spi_init_fullname
	.section	.text.spi_arg_set_fdt2,"ax",@progbits
	.align	1
	.globl	spi_arg_set_fdt2
	.type	spi_arg_set_fdt2, @function
spi_arg_set_fdt2:
.LFB75:
	.loc 2 578 1 is_stmt 1
	.cfi_startproc
.LVL139:
	.loc 2 580 5
	.loc 2 581 5
	.loc 2 582 5
	.loc 2 583 5
	.loc 2 584 5
	.loc 2 585 5
	.loc 2 586 5
	.loc 2 587 5
	.loc 2 588 5
	.loc 2 589 5
	.loc 2 590 5
	.loc 2 592 5
	.loc 2 593 5
	.loc 2 594 5
	.loc 2 595 5
	.loc 2 609 19 is_stmt 0
	lui	a2,%hi(.LC0)
	.loc 2 578 1
	addi	sp,sp,-112
	.cfi_def_cfa_offset 112
	.loc 2 609 19
	addi	a2,a2,%lo(.LC0)
	.loc 2 578 1
	sw	s0,104(sp)
	sw	ra,108(sp)
	sw	s1,100(sp)
	sw	s2,96(sp)
	sw	s3,92(sp)
	sw	s4,88(sp)
	sw	s5,84(sp)
	sw	s6,80(sp)
	sw	s7,76(sp)
	sw	s8,72(sp)
	sw	s9,68(sp)
	sw	s10,64(sp)
	sw	s11,60(sp)
	.cfi_offset 8, -8
	.cfi_offset 1, -4
	.cfi_offset 9, -12
	.cfi_offset 18, -16
	.cfi_offset 19, -20
	.cfi_offset 20, -24
	.cfi_offset 21, -28
	.cfi_offset 22, -32
	.cfi_offset 23, -36
	.cfi_offset 24, -40
	.cfi_offset 25, -44
	.cfi_offset 26, -48
	.cfi_offset 27, -52
	.loc 2 578 1
	mv	s0,a0
	.loc 2 595 9
	sw	zero,44(sp)
	.loc 2 596 5 is_stmt 1
.LVL140:
	.loc 2 597 5
	.loc 2 599 5
	.loc 2 600 5
	.loc 2 602 5
	.loc 2 607 5
	.loc 2 609 9
	.loc 2 609 19 is_stmt 0
	call	fdt_subnode_offset
.LVL141:
	.loc 2 610 9 is_stmt 1
	.loc 2 610 12 is_stmt 0
	ble	a0,zero,.L143
	.loc 2 614 18
	lui	a2,%hi(.LC1)
	mv	a1,a0
	addi	a4,sp,44
	mv	s1,a0
	.loc 2 614 9 is_stmt 1
	.loc 2 614 18 is_stmt 0
	li	a3,0
	addi	a2,a2,%lo(.LC1)
	mv	a0,s0
.LVL142:
	call	fdt_stringlist_get
.LVL143:
	.loc 2 615 12
	lw	a4,44(sp)
	li	a5,4
	.loc 2 614 18
	mv	a1,a0
.LVL144:
	.loc 2 615 9 is_stmt 1
	.loc 2 615 12 is_stmt 0
	bne	a4,a5,.L143
	.loc 2 615 31 discriminator 1
	lui	a0,%hi(.LC2)
.LVL145:
	li	a2,4
	addi	a0,a0,%lo(.LC2)
	call	memcmp
.LVL146:
	.loc 2 615 27 discriminator 1
	bne	a0,zero,.L143
	.loc 2 620 9 is_stmt 1
	.loc 2 620 18 is_stmt 0
	lui	a2,%hi(.LC3)
	addi	a4,sp,44
	li	a3,0
	addi	a2,a2,%lo(.LC3)
	mv	a1,s1
	mv	a0,s0
	call	fdt_stringlist_get
.LVL147:
	.loc 2 621 26
	lw	a5,44(sp)
	.loc 2 621 12
	li	a4,1
	.loc 2 620 18
	mv	s2,a0
.LVL148:
	.loc 2 621 9 is_stmt 1
	.loc 2 621 26 is_stmt 0
	addi	a5,a5,-5
	.loc 2 621 12
	bgtu	a5,a4,.L143
	lui	s4,%hi(.LC4)
	.loc 2 621 47 discriminator 1
	mv	a1,a0
	li	a2,6
	addi	a0,s4,%lo(.LC4)
.LVL149:
	lui	s3,%hi(.LC5)
	call	memcmp
.LVL150:
	.loc 2 621 42 discriminator 1
	bne	a0,zero,.L127
.L130:
	.loc 2 626 9 is_stmt 1
	.loc 2 626 13 is_stmt 0
	li	a2,6
	mv	a1,s2
	addi	a0,s4,%lo(.LC4)
	call	memcmp
.LVL151:
	mv	s5,a0
.LVL152:
	.loc 2 633 9 is_stmt 1
	.loc 2 633 22 is_stmt 0
	addi	a2,s3,%lo(.LC5)
	mv	a1,s1
	mv	a0,s0
.LVL153:
	call	fdt_stringlist_count
.LVL154:
	.loc 2 634 9 is_stmt 1
	.loc 2 634 12 is_stmt 0
	li	a5,1
	bne	a0,a5,.L143
	.loc 2 638 9 is_stmt 1
	.loc 2 638 18 is_stmt 0
	li	a3,0
	addi	a2,s3,%lo(.LC5)
	mv	a1,s1
	addi	a4,sp,44
	mv	a0,s0
.LVL155:
	call	fdt_stringlist_get
.LVL156:
	.loc 2 645 21
	lui	a2,%hi(.LC7)
	.loc 2 638 18
	mv	s4,a0
.LVL157:
	.loc 2 639 9 is_stmt 1
	.loc 2 640 13
	.loc 2 642 9
	.loc 2 645 9
	.loc 2 645 21 is_stmt 0
	addi	a3,sp,44
	addi	a2,a2,%lo(.LC7)
	mv	a1,s1
	mv	a0,s0
.LVL158:
	call	fdt_getprop
.LVL159:
	.loc 2 646 9 is_stmt 1
	.loc 2 646 12 is_stmt 0
	beq	a0,zero,.L143
	.loc 2 650 9 is_stmt 1
	.loc 2 650 26 is_stmt 0
	lw	a0,0(a0)
.LVL160:
	call	fdt32_to_cpu
.LVL161:
	.loc 2 651 12
	andi	a5,a0,255
	.loc 2 650 26
	mv	s3,a0
.LVL162:
	.loc 2 651 9 is_stmt 1
	.loc 2 651 12 is_stmt 0
	bne	a5,zero,.L143
	.loc 2 657 9 is_stmt 1
	.loc 2 657 21 is_stmt 0
	lui	a2,%hi(.LC8)
	addi	a3,sp,44
	addi	a2,a2,%lo(.LC8)
	mv	a1,s1
	mv	a0,s0
.LVL163:
	call	fdt_getprop
.LVL164:
	.loc 2 658 9 is_stmt 1
	.loc 2 658 12 is_stmt 0
	beq	a0,zero,.L143
	.loc 2 662 9 is_stmt 1
	.loc 2 665 21 is_stmt 0
	lui	a2,%hi(.LC9)
	.loc 2 662 33
	lw	s6,0(a0)
	.loc 2 665 9 is_stmt 1
	.loc 2 665 21 is_stmt 0
	addi	a3,sp,44
	addi	a2,a2,%lo(.LC9)
	mv	a1,s1
	mv	a0,s0
.LVL165:
	call	fdt_getprop
.LVL166:
	.loc 2 666 9 is_stmt 1
	.loc 2 666 12 is_stmt 0
	beq	a0,zero,.L143
	.loc 2 670 9 is_stmt 1
	.loc 2 673 19 is_stmt 0
	lui	a2,%hi(.LC10)
	.loc 2 670 27
	lw	s7,0(a0)
	.loc 2 673 9 is_stmt 1
	.loc 2 673 19 is_stmt 0
	addi	a2,a2,%lo(.LC10)
	mv	a1,s1
	mv	a0,s0
.LVL167:
	call	fdt_subnode_offset
.LVL168:
	.loc 2 679 21
	lui	a2,%hi(.LC11)
	.loc 2 673 19
	mv	s2,a0
.LVL169:
	.loc 2 674 9 is_stmt 1
	.loc 2 679 9
	.loc 2 679 21 is_stmt 0
	mv	a1,a0
	addi	a3,sp,44
	addi	a2,a2,%lo(.LC11)
	mv	a0,s0
.LVL170:
	call	fdt_getprop
.LVL171:
	.loc 2 680 9 is_stmt 1
	.loc 2 680 12 is_stmt 0
	beq	a0,zero,.L143
	.loc 2 684 9 is_stmt 1
	.loc 2 687 21 is_stmt 0
	lui	a2,%hi(.LC12)
	.loc 2 684 29
	lw	s8,0(a0)
	.loc 2 687 9 is_stmt 1
	.loc 2 687 21 is_stmt 0
	addi	a3,sp,44
	addi	a2,a2,%lo(.LC12)
	mv	a1,s2
	mv	a0,s0
.LVL172:
	call	fdt_getprop
.LVL173:
	.loc 2 688 9 is_stmt 1
	.loc 2 688 12 is_stmt 0
	beq	a0,zero,.L143
	.loc 2 692 9 is_stmt 1
	.loc 2 695 21 is_stmt 0
	lui	a2,%hi(.LC13)
	.loc 2 692 28
	lw	s9,0(a0)
	.loc 2 695 9 is_stmt 1
	.loc 2 695 21 is_stmt 0
	addi	a3,sp,44
	addi	a2,a2,%lo(.LC13)
	mv	a1,s2
	mv	a0,s0
.LVL174:
	call	fdt_getprop
.LVL175:
	.loc 2 696 9 is_stmt 1
	.loc 2 696 12 is_stmt 0
	beq	a0,zero,.L143
	.loc 2 700 9 is_stmt 1
	.loc 2 703 21 is_stmt 0
	lui	a2,%hi(.LC14)
	.loc 2 700 30
	lw	s10,0(a0)
	.loc 2 703 9 is_stmt 1
	.loc 2 703 21 is_stmt 0
	addi	a3,sp,44
	addi	a2,a2,%lo(.LC14)
	mv	a1,s2
	mv	a0,s0
.LVL176:
	call	fdt_getprop
.LVL177:
	.loc 2 704 9 is_stmt 1
	.loc 2 704 12 is_stmt 0
	beq	a0,zero,.L143
	.loc 2 708 9 is_stmt 1
	.loc 2 711 19 is_stmt 0
	lui	a2,%hi(.LC15)
	.loc 2 708 30
	lw	s2,0(a0)
.LVL178:
	.loc 2 711 9 is_stmt 1
	.loc 2 711 19 is_stmt 0
	addi	a2,a2,%lo(.LC15)
	mv	a1,s1
	mv	a0,s0
.LVL179:
	call	fdt_subnode_offset
.LVL180:
	.loc 2 717 21
	lui	a2,%hi(.LC16)
	.loc 2 711 19
	mv	s11,a0
.LVL181:
	.loc 2 712 9 is_stmt 1
	.loc 2 717 9
	.loc 2 717 21 is_stmt 0
	mv	a1,a0
	addi	a3,sp,44
	addi	a2,a2,%lo(.LC16)
	mv	a0,s0
.LVL182:
	call	fdt_getprop
.LVL183:
	.loc 2 718 9 is_stmt 1
	.loc 2 718 12 is_stmt 0
	beq	a0,zero,.L143
	.loc 2 722 9 is_stmt 1
	.loc 2 725 21 is_stmt 0
	lui	a2,%hi(.LC17)
	.loc 2 722 31
	lw	s1,0(a0)
.LVL184:
	.loc 2 725 9 is_stmt 1
	.loc 2 725 21 is_stmt 0
	addi	a3,sp,44
	addi	a2,a2,%lo(.LC17)
	mv	a1,s11
	mv	a0,s0
.LVL185:
	call	fdt_getprop
.LVL186:
	.loc 2 726 9 is_stmt 1
	.loc 2 726 12 is_stmt 0
	beq	a0,zero,.L143
	.loc 2 730 9 is_stmt 1
	.loc 2 730 31 is_stmt 0
	lw	a0,0(a0)
.LVL187:
	call	fdt32_to_cpu
.LVL188:
	sw	a0,28(sp)
.LVL189:
	.loc 2 732 9 is_stmt 1
	.loc 2 722 31 is_stmt 0
	mv	a0,s1
	call	fdt32_to_cpu
.LVL190:
	mv	s11,a0
.LVL191:
	.loc 2 708 30
	mv	a0,s2
	call	fdt32_to_cpu
.LVL192:
	mv	s2,a0
	.loc 2 700 30
	mv	a0,s10
	call	fdt32_to_cpu
.LVL193:
	mv	s1,a0
	.loc 2 692 28
	mv	a0,s9
	call	fdt32_to_cpu
.LVL194:
	mv	s0,a0
.LVL195:
	.loc 2 684 29
	mv	a0,s8
	call	fdt32_to_cpu
.LVL196:
	mv	s8,a0
	.loc 2 670 27
	mv	a0,s7
	call	fdt32_to_cpu
.LVL197:
	sw	a0,24(sp)
	.loc 2 662 33
	mv	a0,s6
	call	fdt32_to_cpu
.LVL198:
	.loc 2 732 15
	lw	a6,28(sp)
	lw	a4,24(sp)
	andi	s2,s2,0xff
	andi	s1,s1,0xff
	andi	s0,s0,0xff
	andi	a3,a0,0xff
	sw	s2,8(sp)
	sw	s1,4(sp)
	sw	s0,0(sp)
	andi	a7,s8,0xff
	andi	a6,a6,0xff
	andi	a5,s11,0xff
	snez	a2,s5
	andi	a1,s3,0xff
	mv	a0,s4
	call	vfs_spi_init_fullname
.LVL199:
	.loc 2 733 9 is_stmt 1
	j	.L143
.LVL200:
.L127:
	.loc 2 621 85 is_stmt 0 discriminator 2
	lui	a0,%hi(.LC6)
	li	a2,5
	mv	a1,s2
	addi	a0,a0,%lo(.LC6)
	call	memcmp
.LVL201:
	.loc 2 621 81 discriminator 2
	beq	a0,zero,.L130
.LVL202:
.L143:
	.loc 2 740 1
	lw	ra,108(sp)
	.cfi_restore 1
	lw	s0,104(sp)
	.cfi_restore 8
	lw	s1,100(sp)
	.cfi_restore 9
	lw	s2,96(sp)
	.cfi_restore 18
	lw	s3,92(sp)
	.cfi_restore 19
	lw	s4,88(sp)
	.cfi_restore 20
	lw	s5,84(sp)
	.cfi_restore 21
	lw	s6,80(sp)
	.cfi_restore 22
	lw	s7,76(sp)
	.cfi_restore 23
	lw	s8,72(sp)
	.cfi_restore 24
	lw	s9,68(sp)
	.cfi_restore 25
	lw	s10,64(sp)
	.cfi_restore 26
	lw	s11,60(sp)
	.cfi_restore 27
	li	a0,0
	addi	sp,sp,112
	.cfi_def_cfa_offset 0
	jr	ra
	.cfi_endproc
.LFE75:
	.size	spi_arg_set_fdt2, .-spi_arg_set_fdt2
	.section	.text.vfs_spi_fdt_init,"ax",@progbits
	.align	1
	.globl	vfs_spi_fdt_init
	.type	vfs_spi_fdt_init, @function
vfs_spi_fdt_init:
.LFB76:
	.loc 2 743 1 is_stmt 1
	.cfi_startproc
.LVL203:
	.loc 2 744 5
	.loc 2 743 1 is_stmt 0
	addi	sp,sp,-16
	.cfi_def_cfa_offset 16
	sw	ra,12(sp)
	.cfi_offset 1, -4
	.loc 2 744 5
	call	spi_arg_set_fdt2
.LVL204:
	.loc 2 745 5 is_stmt 1
	.loc 2 746 5
	.loc 2 747 1 is_stmt 0
	lw	ra,12(sp)
	.cfi_restore 1
	li	a0,0
	addi	sp,sp,16
	.cfi_def_cfa_offset 0
	jr	ra
	.cfi_endproc
.LFE76:
	.size	vfs_spi_fdt_init, .-vfs_spi_fdt_init
	.globl	g_hal_buf
	.section	.rodata.spi_arg_set_fdt2.str1.4,"aMS",@progbits,1
	.align	2
.LC0:
	.string	"spi@4000F000"
	.zero	3
.LC1:
	.string	"status"
	.zero	1
.LC2:
	.string	"okay"
	.zero	3
.LC3:
	.string	"mode"
	.zero	3
.LC4:
	.string	"master"
	.zero	1
.LC5:
	.string	"path"
	.zero	3
.LC6:
	.string	"slave"
	.zero	2
.LC7:
	.string	"port"
	.zero	3
.LC8:
	.string	"polar_phase"
.LC9:
	.string	"freq"
	.zero	3
.LC10:
	.string	"pin"
.LC11:
	.string	"clk"
.LC12:
	.string	"cs"
	.zero	1
.LC13:
	.string	"mosi"
	.zero	3
.LC14:
	.string	"miso"
	.zero	3
.LC15:
	.string	"dma_cfg"
.LC16:
	.string	"tx_dma_ch"
	.zero	2
.LC17:
	.string	"rx_dma_ch"
	.section	.sbss.g_hal_buf,"aw",@nobits
	.align	2
	.set	.LANCHOR0,. + 0
	.type	g_hal_buf, @object
	.size	g_hal_buf, 4
g_hal_buf:
	.zero	4
	.text
.Letext0:
	.file 3 "/home/hogc/build-tools/sdk/bl/bl_iot_sdk/toolchain/riscv/Linux/lib/gcc/riscv64-unknown-elf/8.3.0/include/stddef.h"
	.file 4 "/home/hogc/build-tools/sdk/bl/bl_iot_sdk/toolchain/riscv/Linux/riscv64-unknown-elf/include/machine/_default_types.h"
	.file 5 "/home/hogc/build-tools/sdk/bl/bl_iot_sdk/toolchain/riscv/Linux/riscv64-unknown-elf/include/sys/_types.h"
	.file 6 "/home/hogc/build-tools/sdk/bl/bl_iot_sdk/toolchain/riscv/Linux/riscv64-unknown-elf/include/sys/reent.h"
	.file 7 "/home/hogc/build-tools/sdk/bl/bl_iot_sdk/toolchain/riscv/Linux/riscv64-unknown-elf/include/sys/lock.h"
	.file 8 "/home/hogc/build-tools/sdk/bl/bl_iot_sdk/toolchain/riscv/Linux/riscv64-unknown-elf/include/sys/_stdint.h"
	.file 9 "/home/hogc/build-tools/sdk/bl/bl_iot_sdk/toolchain/riscv/Linux/riscv64-unknown-elf/include/sys/_timeval.h"
	.file 10 "/home/hogc/build-tools/sdk/bl/bl_iot_sdk/toolchain/riscv/Linux/riscv64-unknown-elf/include/sys/types.h"
	.file 11 "/home/hogc/build-tools/sdk/bl/bl_iot_sdk/toolchain/riscv/Linux/riscv64-unknown-elf/include/time.h"
	.file 12 "/home/hogc/build-tools/sdk/bl/bl_iot_sdk/toolchain/riscv/Linux/riscv64-unknown-elf/include/sys/stat.h"
	.file 13 "/home/hogc/build-tools/sdk/bl/bl_iot_sdk/components/fs/vfs/include/vfs_dir.h"
	.file 14 "/home/hogc/build-tools/sdk/bl/bl_iot_sdk/components/fs/vfs/include/vfs_inode.h"
	.file 15 "/home/hogc/build-tools/sdk/bl/bl_iot_sdk/components/fs/vfs/include/device/vfs_spi.h"
	.file 16 "/home/hogc/build-tools/sdk/bl/bl_iot_sdk/toolchain/riscv/Linux/riscv64-unknown-elf/include/sys/errno.h"
	.file 17 "/home/hogc/build-tools/sdk/bl/bl_iot_sdk/components/fs/vfs/include/hal/soc/spi.h"
	.file 18 "/home/hogc/build-tools/sdk/bl/bl_iot_sdk/components/bl602/bl602_std/bl602_std/RISCV/Device/Bouffalo/BL602/Startup/system_bl602.h"
	.file 19 "/home/hogc/build-tools/sdk/bl/bl_iot_sdk/components/bl602/bl602_std/bl602_std/Device/Bouffalo/BL602/Peripherals/bl602.h"
	.file 20 "/home/hogc/build-tools/sdk/bl/bl_iot_sdk/components/bl602/bl602_std/bl602_std/StdDriver/Inc/bl602_common.h"
	.file 21 "/home/hogc/build-tools/sdk/bl/bl_iot_sdk/components/bl602/bl602_std/bl602_std/StdDriver/Inc/bl602_spi.h"
	.file 22 "/home/hogc/build-tools/sdk/bl/bl_iot_sdk/components/bl602/bl602_std/bl602_std/StdDriver/Inc/bl602_gpio.h"
	.file 23 "/home/hogc/build-tools/sdk/bl/bl_iot_sdk/components/bl602/bl602_std/bl602_std/StdDriver/Inc/bl602_glb.h"
	.file 24 "/home/hogc/build-tools/sdk/bl/bl_iot_sdk/components/bl602/bl602_std/bl602_std/Device/Bouffalo/BL602/Peripherals/dma_reg.h"
	.file 25 "/home/hogc/build-tools/sdk/bl/bl_iot_sdk/components/bl602/bl602_std/bl602_std/StdDriver/Inc/bl602_dma.h"
	.file 26 "/home/hogc/build-tools/sdk/bl/bl_iot_sdk/components/bl602/freertos_riscv_ram/portable/GCC/RISC-V/portmacro.h"
	.file 27 "/home/hogc/build-tools/sdk/bl/bl_iot_sdk/components/bl602/freertos_riscv_ram/config/event_groups.h"
	.file 28 "/home/hogc/build-tools/sdk/bl/bl_iot_sdk/toolchain/riscv/Linux/riscv64-unknown-elf/include/stdlib.h"
	.file 29 "/home/hogc/build-tools/sdk/bl/bl_iot_sdk/components/hal_drv/bl602_hal/bl_dma.h"
	.file 30 "/home/hogc/build-tools/sdk/bl/bl_iot_sdk/components/bl602/freertos_riscv_ram/config/task.h"
	.file 31 "/home/hogc/build-tools/sdk/bl/bl_iot_sdk/components/stage/blfdt/inc/libfdt.h"
	.file 32 "/home/hogc/build-tools/sdk/bl/bl_iot_sdk/toolchain/riscv/Linux/riscv64-unknown-elf/include/string.h"
	.file 33 "/home/hogc/build-tools/sdk/bl/bl_iot_sdk/components/stage/yloop/include/aos/kernel.h"
	.file 34 "/home/hogc/build-tools/sdk/bl/bl_iot_sdk/components/fs/vfs/include/vfs_register.h"
	.file 35 "/home/hogc/build-tools/sdk/bl/bl_iot_sdk/components/bl602/freertos_riscv_ram/config/portable.h"
	.file 36 "/home/hogc/build-tools/sdk/bl/bl_iot_sdk/components/hal_drv/bl602_hal/bl_irq.h"