	.file	"hal_uart.c"
	.option nopic
	.attribute arch, "rv32i2p0_m2p0_f2p0_c2p0"
	.attribute unaligned_access, 0
	.attribute stack_align, 16
	.text
.Ltext0:
	.cfi_sections	.debug_frame
	.section	.text.dev_uart_init,"ax",@progbits
	.align	1
	.type	dev_uart_init, @function
dev_uart_init:
.LFB46:
	.file 1 "/home/hogc/build-tools/sdk/bl/bl_iot_sdk/components/hal_drv/bl602_hal/hal_uart.c"
	.loc 1 96 1
	.cfi_startproc
.LVL0:
	.loc 1 97 5
	.loc 1 98 5
	.loc 1 100 5
	.loc 1 100 8 is_stmt 0
	li	a5,2
	bgtu	a0,a5,.L22
	.loc 1 100 19 discriminator 1
	beq	a1,zero,.L22
	.loc 1 105 5 is_stmt 1
	.loc 1 96 1 is_stmt 0
	addi	sp,sp,-32
	.cfi_def_cfa_offset 32
	sw	ra,28(sp)
	sw	s0,24(sp)
	sw	s1,20(sp)
	sw	s2,16(sp)
	sw	s3,12(sp)
	sw	s4,8(sp)
	.cfi_offset 1, -4
	.cfi_offset 8, -8
	.cfi_offset 9, -12
	.cfi_offset 18, -16
	.cfi_offset 19, -20
	.cfi_offset 20, -24
	.loc 1 105 5
	beq	a0,zero,.L5
	li	a5,1
	beq	a0,a5,.L6
.LVL1:
.L1:
	.loc 1 132 1
	lw	ra,28(sp)
	.cfi_remember_state
	.cfi_restore 1
	lw	s0,24(sp)
	.cfi_restore 8
	lw	s1,20(sp)
	.cfi_restore 9
	lw	s2,16(sp)
	.cfi_restore 18
	lw	s3,12(sp)
	.cfi_restore 19
	lw	s4,8(sp)
	.cfi_restore 20
	li	a0,-1
	addi	sp,sp,32
	.cfi_def_cfa_offset 0
	jr	ra
.LVL2:
.L5:
	.cfi_restore_state
	.loc 1 108 18
	lui	s0,%hi(.LANCHOR1)
	lw	a5,%lo(.LANCHOR1)(s0)
	addi	s0,s0,%lo(.LANCHOR1)
.LVL3:
.L7:
	.loc 1 118 11 is_stmt 1
	.loc 1 121 5
.LBB6:
.LBB7:
	.loc 1 53 5
	.loc 1 53 8 is_stmt 0
	bne	a5,zero,.L1
	mv	s1,a0
	.loc 1 58 5 is_stmt 1
	.loc 1 58 13 is_stmt 0
	li	a0,304
.LVL4:
	mv	s3,a1
	call	pvPortMalloc
.LVL5:
	.loc 1 58 11
	sw	a0,0(s0)
	.loc 1 59 5 is_stmt 1
	.loc 1 59 8 is_stmt 0
	beq	a0,zero,.L1
	.loc 1 63 5 is_stmt 1
	li	a2,304
	li	a1,0
	call	memset
.LVL6:
	.loc 1 65 5
	.loc 1 65 6 is_stmt 0
	lw	a5,0(s0)
	.loc 1 65 30
	li	s2,2
	.loc 1 67 21
	li	a0,4
	.loc 1 65 30
	sb	s2,296(a5)
	.loc 1 66 5 is_stmt 1
	.loc 1 66 6 is_stmt 0
	lw	a5,0(s0)
	.loc 1 66 19
	sw	zero,300(a5)
	.loc 1 67 5 is_stmt 1
	.loc 1 67 6 is_stmt 0
	lw	s4,0(s0)
	.loc 1 67 21
	call	pvPortMalloc
.LVL7:
	.loc 1 67 19
	sw	a0,300(s4)
	.loc 1 68 5 is_stmt 1
	.loc 1 68 16 is_stmt 0
	lw	a5,0(s0)
	lw	a0,300(a5)
	.loc 1 68 8
	beq	a0,zero,.L1
	.loc 1 72 5 is_stmt 1
	li	a2,4
	li	a1,0
	call	memset
.LVL8:
	.loc 1 74 5
.LBE7:
.LBE6:
	.loc 1 125 5
.LBB8:
.LBB9:
	.loc 1 79 5
	.loc 1 79 9 is_stmt 0
	lw	a5,0(s0)
	.loc 1 79 8
	beq	a5,zero,.L8
	.loc 1 84 5 is_stmt 1
	.loc 1 84 19 is_stmt 0
	sb	s1,0(a5)
	.loc 1 85 5 is_stmt 1
	.loc 1 85 6 is_stmt 0
	lw	a5,0(s0)
	.loc 1 85 30
	sb	s2,296(a5)
	.loc 1 87 5 is_stmt 1
	.loc 1 87 6 is_stmt 0
	lw	a4,0(s0)
	.loc 1 87 31
	li	a5,114688
	addi	a5,a5,512
	sw	a5,4(a4)
	.loc 1 88 5 is_stmt 1
	.loc 1 88 6 is_stmt 0
	lw	a5,0(s0)
	.loc 1 88 32
	li	a4,3
	sb	a4,8(a5)
	.loc 1 89 5 is_stmt 1
	.loc 1 89 6 is_stmt 0
	lw	a5,0(s0)
	.loc 1 89 28
	sb	zero,9(a5)
	.loc 1 90 5 is_stmt 1
	.loc 1 90 6 is_stmt 0
	lw	a5,0(s0)
	.loc 1 90 31
	sb	zero,10(a5)
	.loc 1 91 5 is_stmt 1
	.loc 1 91 6 is_stmt 0
	lw	a5,0(s0)
	.loc 1 91 34
	sb	zero,11(a5)
	.loc 1 92 5 is_stmt 1
	.loc 1 92 6 is_stmt 0
	lw	a5,0(s0)
	.loc 1 92 26
	sb	s2,12(a5)
.L8:
.LVL9:
.LBE9:
.LBE8:
	.loc 1 126 5 is_stmt 1
	.loc 1 126 11 is_stmt 0
	lw	a2,0(s0)
	.loc 1 132 1
	lw	s0,24(sp)
	.cfi_remember_state
	.cfi_restore 8
.LVL10:
	lw	ra,28(sp)
	.cfi_restore 1
	lw	s1,20(sp)
	.cfi_restore 9
	lw	s2,16(sp)
	.cfi_restore 18
	lw	s4,8(sp)
	.cfi_restore 20
	.loc 1 126 11
	mv	a0,s3
	.loc 1 132 1
	lw	s3,12(sp)
	.cfi_restore 19
.LVL11:
	.loc 1 126 11
	lui	a1,%hi(uart_ops)
	.loc 1 132 1
	.loc 1 126 11
	addi	a1,a1,%lo(uart_ops)
	.loc 1 132 1
	addi	sp,sp,32
	.cfi_def_cfa_offset 0
	.loc 1 126 11
	tail	aos_register_driver
.LVL12:
.L6:
	.cfi_restore_state
	.loc 1 112 13 is_stmt 1
	.loc 1 113 11
	.loc 1 112 18 is_stmt 0
	lui	s0,%hi(.LANCHOR0)
	lw	a5,%lo(.LANCHOR0)(s0)
	addi	s0,s0,%lo(.LANCHOR0)
	.loc 1 113 9
	j	.L7
.LVL13:
.L22:
	.cfi_def_cfa_offset 0
	.cfi_restore 1
	.cfi_restore 8
	.cfi_restore 9
	.cfi_restore 18
	.cfi_restore 19
	.cfi_restore 20
	.loc 1 132 1
	li	a0,-1
.LVL14:
	ret
	.cfi_endproc
.LFE46:
	.size	dev_uart_init, .-dev_uart_init
	.section	.text.hal_uart_send_trigger,"ax",@progbits
	.align	1
	.globl	hal_uart_send_trigger
	.type	hal_uart_send_trigger, @function
hal_uart_send_trigger:
.LFB47:
	.loc 1 135 1 is_stmt 1
	.cfi_startproc
.LVL15:
	.loc 1 136 5
	.loc 1 135 1 is_stmt 0
	addi	sp,sp,-16
	.cfi_def_cfa_offset 16
	sw	ra,12(sp)
	.cfi_offset 1, -4
	.loc 1 136 5
	lbu	a0,0(a0)
.LVL16:
	call	bl_uart_int_tx_enable
.LVL17:
	.loc 1 137 5 is_stmt 1
	.loc 1 138 1 is_stmt 0
	lw	ra,12(sp)
	.cfi_restore 1
	li	a0,0
	addi	sp,sp,16
	.cfi_def_cfa_offset 0
	jr	ra
	.cfi_endproc
.LFE47:
	.size	hal_uart_send_trigger, .-hal_uart_send_trigger
	.section	.text.hal_uart_init,"ax",@progbits
	.align	1
	.globl	hal_uart_init
	.type	hal_uart_init, @function
hal_uart_init:
.LFB48:
	.loc 1 141 1 is_stmt 1
	.cfi_startproc
.LVL18:
	.loc 1 142 5
	.loc 1 143 5
	.loc 1 145 5
	.loc 1 146 5
	.loc 1 141 1 is_stmt 0
	addi	sp,sp,-32
	.cfi_def_cfa_offset 32
	sw	s0,24(sp)
.LVL19:
	sw	s1,20(sp)
	sw	ra,28(sp)
	.cfi_offset 8, -8
	.cfi_offset 9, -12
	.cfi_offset 1, -4
	.loc 1 141 1
	mv	s0,a0
	.loc 1 146 9
	lw	a0,300(a0)
.LVL20:
	.loc 1 148 16
	li	s1,-1
	.loc 1 146 9
	call	aos_mutex_new
.LVL21:
	.loc 1 146 8
	bne	a0,zero,.L27
	mv	s1,a0
	.loc 1 151 5 is_stmt 1
	lbu	a0,0(s0)
	addi	a1,sp,15
	call	bl_uart_getdefconfig
.LVL22:
	.loc 1 153 5
	.loc 1 153 16 is_stmt 0
	lbu	a5,15(sp)
	.loc 1 153 8
	bne	a5,zero,.L29
	.loc 1 154 9 is_stmt 1
	.loc 1 154 29 is_stmt 0
	sb	zero,9(s0)
.L30:
	.loc 1 161 5 is_stmt 1
	lbu	a0,0(s0)
	addi	a6,s0,274
	addi	a5,s0,275
	addi	a4,s0,146
	addi	a3,s0,144
	addi	a2,s0,145
	addi	a1,s0,16
	call	bl_uart_int_enable
.LVL23:
	.loc 1 167 5
.L27:
	.loc 1 168 1 is_stmt 0
	lw	ra,28(sp)
	.cfi_remember_state
	.cfi_restore 1
	lw	s0,24(sp)
	.cfi_restore 8
.LVL24:
	mv	a0,s1
	lw	s1,20(sp)
	.cfi_restore 9
	addi	sp,sp,32
	.cfi_def_cfa_offset 0
	jr	ra
.LVL25:
.L29:
	.cfi_restore_state
	.loc 1 155 12 is_stmt 1
	.loc 1 155 15 is_stmt 0
	li	a4,1
	bne	a5,a4,.L31
.L34:
	.loc 1 158 29
	sb	a5,9(s0)
	j	.L30
.L31:
	.loc 1 158 9 is_stmt 1
	.loc 1 158 29 is_stmt 0
	li	a5,2
	j	.L34
	.cfi_endproc
.LFE48:
	.size	hal_uart_init, .-hal_uart_init
	.section	.text.hal_uart_recv_II,"ax",@progbits
	.align	1
	.globl	hal_uart_recv_II
	.type	hal_uart_recv_II, @function
hal_uart_recv_II:
.LFB49:
	.loc 1 171 1 is_stmt 1
	.cfi_startproc
.LVL26:
	.loc 1 172 5
	.loc 1 173 5
	.loc 1 175 5
	.loc 1 171 1 is_stmt 0
	addi	sp,sp,-32
	.cfi_def_cfa_offset 32
	sw	s0,24(sp)
	sw	s1,20(sp)
	sw	ra,28(sp)
	.cfi_offset 8, -8
	.cfi_offset 9, -12
	.cfi_offset 1, -4
	.loc 1 171 1
	mv	s1,a0
	.loc 1 173 14
	li	s0,0
.LVL27:
.L36:
	.loc 1 175 11
	beq	s0,a2,.L39
	.loc 1 175 43 discriminator 1
	lbu	a0,0(s1)
	sw	a3,12(sp)
	sw	a2,8(sp)
	sw	a1,4(sp)
	call	bl_uart_data_recv
.LVL28:
	.loc 1 175 34 discriminator 1
	lw	a1,4(sp)
	lw	a2,8(sp)
	lw	a3,12(sp)
	bge	a0,zero,.L38
.LVL29:
.L39:
	.loc 1 180 5 is_stmt 1
	.loc 1 180 16 is_stmt 0
	sw	s0,0(a3)
	.loc 1 181 5 is_stmt 1
	.loc 1 182 1 is_stmt 0
	lw	ra,28(sp)
	.cfi_remember_state
	.cfi_restore 1
	lw	s0,24(sp)
	.cfi_restore 8
.LVL30:
	lw	s1,20(sp)
	.cfi_restore 9
.LVL31:
	li	a0,0
	addi	sp,sp,32
	.cfi_def_cfa_offset 0
	jr	ra
.LVL32:
.L38:
	.cfi_restore_state
	.loc 1 176 9 is_stmt 1
	.loc 1 176 35 is_stmt 0
	add	a5,a1,s0
	sb	a0,0(a5)
	.loc 1 177 9 is_stmt 1
	.loc 1 177 16 is_stmt 0
	addi	s0,s0,1
.LVL33:
	j	.L36
	.cfi_endproc
.LFE49:
	.size	hal_uart_recv_II, .-hal_uart_recv_II
	.section	.text.hal_uart_finalize,"ax",@progbits
	.align	1
	.globl	hal_uart_finalize
	.type	hal_uart_finalize, @function
hal_uart_finalize:
.LFB50:
	.loc 1 185 1 is_stmt 1
	.cfi_startproc
.LVL34:
	.loc 1 186 5
	.loc 1 188 5
	.loc 1 189 5
	.loc 1 185 1 is_stmt 0
	addi	sp,sp,-16
	.cfi_def_cfa_offset 16
	sw	ra,12(sp)
.LVL35:
	.cfi_offset 1, -4
	.loc 1 189 5
	lw	a0,300(a0)
.LVL36:
	call	aos_mutex_free
.LVL37:
	.loc 1 191 5 is_stmt 1
	.loc 1 192 1 is_stmt 0
	lw	ra,12(sp)
	.cfi_restore 1
	li	a0,0
	addi	sp,sp,16
	.cfi_def_cfa_offset 0
	jr	ra
	.cfi_endproc
.LFE50:
	.size	hal_uart_finalize, .-hal_uart_finalize
	.section	.text.hal_uart_notify_register,"ax",@progbits
	.align	1
	.globl	hal_uart_notify_register
	.type	hal_uart_notify_register, @function
hal_uart_notify_register:
.LFB51:
	.loc 1 196 1 is_stmt 1
	.cfi_startproc
.LVL38:
	.loc 1 197 5
	.loc 1 196 1 is_stmt 0
	addi	sp,sp,-16
	.cfi_def_cfa_offset 16
	sw	ra,12(sp)
	.cfi_offset 1, -4
	.loc 1 196 1
	mv	a2,a0
	.loc 1 197 5
	lbu	a0,0(a0)
.LVL39:
	call	bl_uart_int_cb_notify_register
.LVL40:
	.loc 1 198 5 is_stmt 1
	.loc 1 199 1 is_stmt 0
	lw	ra,12(sp)
	.cfi_restore 1
	li	a0,0
	addi	sp,sp,16
	.cfi_def_cfa_offset 0
	jr	ra
	.cfi_endproc
.LFE51:
	.size	hal_uart_notify_register, .-hal_uart_notify_register
	.section	.text.hal_uart_notify_unregister,"ax",@progbits
	.align	1
	.globl	hal_uart_notify_unregister
	.type	hal_uart_notify_unregister, @function
hal_uart_notify_unregister:
.LFB52:
	.loc 1 202 1 is_stmt 1
	.cfi_startproc
.LVL41:
	.loc 1 203 5
	.loc 1 202 1 is_stmt 0
	addi	sp,sp,-16
	.cfi_def_cfa_offset 16
	sw	ra,12(sp)
	.cfi_offset 1, -4
	.loc 1 202 1
	mv	a2,a0
	.loc 1 203 5
	lbu	a0,0(a0)
.LVL42:
	call	bl_uart_int_cb_notify_unregister
.LVL43:
	.loc 1 204 5 is_stmt 1
	.loc 1 205 1 is_stmt 0
	lw	ra,12(sp)
	.cfi_restore 1
	li	a0,0
	addi	sp,sp,16
	.cfi_def_cfa_offset 0
	jr	ra
	.cfi_endproc
.LFE52:
	.size	hal_uart_notify_unregister, .-hal_uart_notify_unregister
	.section	.text.vfs_uart_init_simple_mode,"ax",@progbits
	.align	1
	.globl	vfs_uart_init_simple_mode
	.type	vfs_uart_init_simple_mode, @function
vfs_uart_init_simple_mode:
.LFB54:
	.loc 1 364 1 is_stmt 1
	.cfi_startproc
.LVL44:
	.loc 1 365 5
	.loc 1 364 1 is_stmt 0
	addi	sp,sp,-32
	.cfi_def_cfa_offset 32
	sw	ra,28(sp)
	sw	s0,24(sp)
	sw	s1,20(sp)
	.cfi_offset 1, -4
	.cfi_offset 8, -8
	.cfi_offset 9, -12
	.loc 1 364 1
	mv	s0,a0
	mv	s1,a4
	sw	a1,12(sp)
	sw	a2,8(sp)
	sw	a3,4(sp)
	.loc 1 365 5
	call	bl_uart_flush
.LVL45:
	.loc 1 367 5 is_stmt 1
	lw	a5,4(sp)
	lw	a2,8(sp)
	lw	a1,12(sp)
	li	a4,255
	li	a3,255
	mv	a0,s0
	call	bl_uart_init
.LVL46:
	.loc 1 369 5
	.loc 1 369 9 is_stmt 0
	mv	a1,s1
	mv	a0,s0
	call	dev_uart_init
.LVL47:
	.loc 1 370 9 is_stmt 1
	.loc 1 373 5
	.loc 1 374 1 is_stmt 0
	lw	ra,28(sp)
	.cfi_restore 1
	lw	s0,24(sp)
	.cfi_restore 8
	lw	s1,20(sp)
	.cfi_restore 9
.LVL48:
	li	a0,0
	addi	sp,sp,32
	.cfi_def_cfa_offset 0
.LVL49:
	jr	ra
	.cfi_endproc
.LFE54:
	.size	vfs_uart_init_simple_mode, .-vfs_uart_init_simple_mode
	.section	.text.vfs_uart_init,"ax",@progbits
	.align	1
	.globl	vfs_uart_init
	.type	vfs_uart_init, @function
vfs_uart_init:
.LFB55:
	.loc 1 377 1 is_stmt 1
	.cfi_startproc
.LVL50:
	.loc 1 378 5
	.loc 1 378 16 is_stmt 0
	lui	a5,%hi(.LANCHOR2)
	.loc 1 378 8
	lb	a3,%lo(.LANCHOR2)(a5)
	.loc 1 377 1
	addi	sp,sp,-144
	.cfi_def_cfa_offset 144
	addi	a5,a5,%lo(.LANCHOR2)
	sw	ra,140(sp)
	sw	s0,136(sp)
	sw	s1,132(sp)
	sw	s2,128(sp)
	sw	s3,124(sp)
	sw	s4,120(sp)
	sw	s5,116(sp)
	sw	s6,112(sp)
	sw	s7,108(sp)
	sw	s8,104(sp)
	sw	s9,100(sp)
	sw	s10,96(sp)
	sw	s11,92(sp)
	.cfi_offset 1, -4
	.cfi_offset 8, -8
	.cfi_offset 9, -12
	.cfi_offset 18, -16
	.cfi_offset 19, -20
	.cfi_offset 20, -24
	.cfi_offset 21, -28
	.cfi_offset 22, -32
	.cfi_offset 23, -36
	.cfi_offset 24, -40
	.cfi_offset 25, -44
	.cfi_offset 26, -48
	.cfi_offset 27, -52
	.loc 1 378 8
	li	a4,1
	sw	a5,0(sp)
	beq	a3,a4,.L51
.LBB18:
.LBB19:
	.loc 1 229 17
	lui	a5,%hi(.LC5)
	addi	a5,a5,%lo(.LC5)
	sw	a1,4(sp)
	sw	a5,24(sp)
	.loc 1 238 7
	addi	s5,sp,32
	.loc 1 229 17
	lui	a5,%hi(.LC6)
	.loc 1 238 7
	lui	a1,%hi(.LANCHOR3)
.LVL51:
	.loc 1 229 17
	addi	a5,a5,%lo(.LC6)
	mv	s0,a0
.LBE19:
.LBE18:
	.loc 1 382 5 is_stmt 1
.LVL52:
.LBB33:
.LBB32:
	.loc 1 216 5
	.loc 1 217 5
	.loc 1 219 5
	.loc 1 220 5
	.loc 1 238 7 is_stmt 0
	li	a2,48
	addi	a1,a1,%lo(.LANCHOR3)
	mv	a0,s5
.LVL53:
	.loc 1 220 9
	sw	zero,20(sp)
	.loc 1 221 5 is_stmt 1
.LVL54:
	.loc 1 222 5
	.loc 1 223 5
	.loc 1 225 5
	.loc 1 226 5
	.loc 1 227 5
	.loc 1 229 5
	.loc 1 229 17 is_stmt 0
	sw	a5,28(sp)
	.loc 1 234 5 is_stmt 1
	addi	s4,sp,24
	.loc 1 238 7 is_stmt 0
	call	memcpy
.LVL55:
	.loc 1 261 5 is_stmt 1
	.loc 1 268 22 is_stmt 0
	lui	s7,%hi(.LC8)
	.loc 1 274 31
	lui	s8,%hi(.LC9)
	.loc 1 280 22
	lui	s9,%hi(.LC10)
.LVL56:
.L60:
	.loc 1 262 9 is_stmt 1
	.loc 1 262 19 is_stmt 0
	lw	a2,0(s4)
	lw	a1,4(sp)
	mv	a0,s0
	call	fdt_subnode_offset
.LVL57:
	mv	s2,a0
.LVL58:
	.loc 1 263 9 is_stmt 1
	.loc 1 263 12 is_stmt 0
	ble	a0,zero,.L53
	.loc 1 268 9 is_stmt 1
	.loc 1 268 22 is_stmt 0
	mv	a1,a0
	addi	a2,s7,%lo(.LC8)
	mv	a0,s0
.LVL59:
	call	fdt_stringlist_count
.LVL60:
	.loc 1 269 12
	li	a5,1
	.loc 1 268 22
	mv	s1,a0
.LVL61:
	.loc 1 269 9 is_stmt 1
	.loc 1 269 12 is_stmt 0
	bne	a0,a5,.L53
	.loc 1 273 9 is_stmt 1
	.loc 1 273 18 is_stmt 0
	addi	a4,sp,20
	mv	a1,s2
	li	a3,0
	addi	a2,s7,%lo(.LC8)
	mv	a0,s0
	call	fdt_stringlist_get
.LVL62:
	.loc 1 274 12
	lw	a4,20(sp)
	li	a5,4
	.loc 1 273 18
	mv	a1,a0
.LVL63:
	.loc 1 274 9 is_stmt 1
	.loc 1 274 12 is_stmt 0
	bne	a4,a5,.L53
	.loc 1 274 31
	li	a2,4
	addi	a0,s8,%lo(.LC9)
.LVL64:
	call	memcmp
.LVL65:
	.loc 1 274 27
	bne	a0,zero,.L53
	.loc 1 280 9 is_stmt 1
	.loc 1 280 22 is_stmt 0
	addi	a2,s9,%lo(.LC10)
	mv	a1,s2
	mv	a0,s0
	call	fdt_stringlist_count
.LVL66:
	.loc 1 281 9 is_stmt 1
	.loc 1 281 12 is_stmt 0
	bne	a0,s1,.L53
	.loc 1 285 9 is_stmt 1
	.loc 1 285 18 is_stmt 0
	li	a3,0
	addi	a2,s9,%lo(.LC10)
	mv	a1,s2
	addi	a4,sp,20
	mv	a0,s0
.LVL67:
	call	fdt_stringlist_get
.LVL68:
	.loc 1 293 21
	lui	a5,%hi(.LC11)
	.loc 1 285 18
	mv	s10,a0
.LVL69:
	.loc 1 286 9 is_stmt 1
	.loc 1 288 13
	.loc 1 290 9
	.loc 1 293 9
	.loc 1 293 21 is_stmt 0
	addi	a3,sp,20
	addi	a2,a5,%lo(.LC11)
	mv	a1,s2
	mv	a0,s0
.LVL70:
	call	fdt_getprop
.LVL71:
	.loc 1 294 9 is_stmt 1
	.loc 1 294 12 is_stmt 0
	beq	a0,zero,.L53
	.loc 1 298 9 is_stmt 1
	.loc 1 301 21 is_stmt 0
	lui	a5,%hi(.LC12)
	.loc 1 298 31
	lw	s1,0(a0)
.LVL72:
.LBB20:
.LBB21:
	.file 2 "/home/hogc/build-tools/sdk/bl/bl_iot_sdk/components/stage/blfdt/inc/libfdt_env.h"
	.loc 2 122 5 is_stmt 1
.LBE21:
.LBE20:
	.loc 1 301 9
	.loc 1 301 21 is_stmt 0
	addi	a3,sp,20
	addi	a2,a5,%lo(.LC12)
	mv	a1,s2
	mv	a0,s0
.LVL73:
	call	fdt_getprop
.LVL74:
	.loc 1 302 9 is_stmt 1
	.loc 1 302 12 is_stmt 0
	beq	a0,zero,.L53
	.loc 1 306 9 is_stmt 1
.LVL75:
.LBB25:
.LBB26:
	.loc 2 122 5
.LBE26:
.LBE25:
	.loc 1 306 12 is_stmt 0
	lbu	s6,3(a0)
.LVL76:
	.loc 1 308 9 is_stmt 1
	mv	s3,s5
	.loc 1 320 16 is_stmt 0
	li	s11,4
.LVL77:
.L59:
	.loc 1 309 13 is_stmt 1
	.loc 1 309 23 is_stmt 0
	lui	a5,%hi(.LC13)
	addi	a2,a5,%lo(.LC13)
	mv	a1,s2
	mv	a0,s0
	call	fdt_subnode_offset
.LVL78:
	.loc 1 310 13 is_stmt 1
	.loc 1 310 16 is_stmt 0
	ble	a0,zero,.L56
	.loc 1 314 13 is_stmt 1
	.loc 1 314 75 is_stmt 0
	lw	a6,0(s3)
	.loc 1 314 26
	mv	a1,a0
	sw	a0,8(sp)
	mv	a2,a6
	mv	a0,s0
.LVL79:
	sw	a6,12(sp)
	call	fdt_stringlist_count
.LVL80:
	.loc 1 315 13 is_stmt 1
	.loc 1 315 16 is_stmt 0
	li	a4,1
	lw	a5,8(sp)
	lw	a6,12(sp)
	bne	a0,a4,.L56
	.loc 1 319 13 is_stmt 1
	.loc 1 319 22 is_stmt 0
	mv	a1,a5
	addi	a4,sp,20
	li	a3,0
	mv	a2,a6
	mv	a0,s0
.LVL81:
	call	fdt_stringlist_get
.LVL82:
	.loc 1 320 16
	lw	a5,20(sp)
	.loc 1 319 22
	mv	a1,a0
.LVL83:
	.loc 1 320 13 is_stmt 1
	.loc 1 320 16 is_stmt 0
	bne	a5,s11,.L56
	.loc 1 320 35
	li	a2,4
	addi	a0,s8,%lo(.LC9)
.LVL84:
	call	memcmp
.LVL85:
	.loc 1 320 31
	bne	a0,zero,.L56
	.loc 1 326 13 is_stmt 1
	.loc 1 326 23 is_stmt 0
	lui	a5,%hi(.LC14)
	mv	a1,s2
	addi	a2,a5,%lo(.LC14)
	mv	a0,s0
	call	fdt_subnode_offset
.LVL86:
	mv	a1,a0
.LVL87:
	.loc 1 327 13 is_stmt 1
	.loc 1 327 16 is_stmt 0
	ble	a0,zero,.L58
	.loc 1 331 13 is_stmt 1
	.loc 1 331 25 is_stmt 0
	lw	a2,4(s3)
	addi	a3,sp,20
	mv	a0,s0
.LVL88:
	call	fdt_getprop
.LVL89:
	.loc 1 332 13 is_stmt 1
	.loc 1 332 16 is_stmt 0
	beq	a0,zero,.L56
	.loc 1 336 13 is_stmt 1
.LVL90:
.LBB27:
.LBB28:
	.loc 2 122 5
	.loc 2 122 212 is_stmt 0
	lbu	a5,3(a0)
.LBE28:
.LBE27:
	.loc 1 336 37
	sb	a5,8(s3)
.LVL91:
.L56:
	addi	s3,s3,12
	.loc 1 308 9
	addi	a5,sp,80
	bne	s3,a5,.L59
.L58:
	.loc 1 344 22 is_stmt 1
	.loc 1 347 9
	mv	a0,s6
	call	bl_uart_flush
.LVL92:
	.loc 1 349 9
.LBB29:
.LBB22:
	.loc 2 122 212 is_stmt 0
	srli	a4,s1,24
	.loc 2 122 12
	slli	a5,s1,24
	or	a5,a5,a4
	.loc 2 122 112
	srli	a4,s1,8
	andi	a4,a4,0xff
	.loc 2 122 117
	slli	a4,a4,16
	.loc 2 122 163
	srli	s1,s1,16
.LVL93:
	.loc 2 122 12
	or	a5,a5,a4
.LBE22:
.LBE29:
	.loc 1 349 9
	lbu	a1,40(sp)
.LBB30:
.LBB23:
	.loc 2 122 163
	andi	s1,s1,0xff
.LBE23:
.LBE30:
	.loc 1 349 9
	lbu	a4,76(sp)
	lbu	a3,64(sp)
	lbu	a2,52(sp)
.LBB31:
.LBB24:
	.loc 2 122 168
	slli	s1,s1,8
.LBE24:
.LBE31:
	.loc 1 349 9
	or	a5,a5,s1
	mv	a0,s6
	call	bl_uart_init
.LVL94:
	.loc 1 352 9 is_stmt 1
	.loc 1 353 9
	.loc 1 355 9
	.loc 1 355 13 is_stmt 0
	mv	a1,s10
	mv	a0,s6
	call	dev_uart_init
.LVL95:
.L53:
	.loc 1 356 13 is_stmt 1
	addi	s4,s4,4
	.loc 1 261 5 is_stmt 0
	bne	s5,s4,.L60
.LVL96:
.LBE32:
.LBE33:
	.loc 1 384 5 is_stmt 1
	.loc 1 384 12 is_stmt 0
	lw	a4,0(sp)
	li	a5,1
	sb	a5,0(a4)
	.loc 1 386 5 is_stmt 1
.LVL97:
.L51:
	.loc 1 387 1 is_stmt 0
	lw	ra,140(sp)
	.cfi_restore 1
	lw	s0,136(sp)
	.cfi_restore 8
	lw	s1,132(sp)
	.cfi_restore 9
	lw	s2,128(sp)
	.cfi_restore 18
	lw	s3,124(sp)
	.cfi_restore 19
	lw	s4,120(sp)
	.cfi_restore 20
	lw	s5,116(sp)
	.cfi_restore 21
	lw	s6,112(sp)
	.cfi_restore 22
	lw	s7,108(sp)
	.cfi_restore 23
	lw	s8,104(sp)
	.cfi_restore 24
	lw	s9,100(sp)
	.cfi_restore 25
	lw	s10,96(sp)
	.cfi_restore 26
	lw	s11,92(sp)
	.cfi_restore 27
	li	a0,0
	addi	sp,sp,144
	.cfi_def_cfa_offset 0
	jr	ra
	.cfi_endproc
.LFE55:
	.size	vfs_uart_init, .-vfs_uart_init
	.section	.text.hal_uart_send_flush,"ax",@progbits
	.align	1
	.globl	hal_uart_send_flush
	.type	hal_uart_send_flush, @function
hal_uart_send_flush:
.LFB56:
	.loc 1 390 1 is_stmt 1
	.cfi_startproc
.LVL98:
	.loc 1 391 5
	.loc 1 390 1 is_stmt 0
	addi	sp,sp,-16
	.cfi_def_cfa_offset 16
	sw	ra,12(sp)
	.cfi_offset 1, -4
	.loc 1 391 5
	lbu	a0,0(a0)
.LVL99:
	call	bl_uart_flush
.LVL100:
	.loc 1 392 5 is_stmt 1
	.loc 1 393 1 is_stmt 0
	lw	ra,12(sp)
	.cfi_restore 1
	li	a0,0
	addi	sp,sp,16
	.cfi_def_cfa_offset 0
	jr	ra
	.cfi_endproc
.LFE56:
	.size	hal_uart_send_flush, .-hal_uart_send_flush
	.section	.text.hal_uart_setbaud,"ax",@progbits
	.align	1
	.globl	hal_uart_setbaud
	.type	hal_uart_setbaud, @function
hal_uart_setbaud:
.LFB57:
	.loc 1 396 1 is_stmt 1
	.cfi_startproc
.LVL101:
	.loc 1 397 5
	lbu	a0,0(a0)
.LVL102:
	tail	bl_uart_setbaud
.LVL103:
	.cfi_endproc
.LFE57:
	.size	hal_uart_setbaud, .-hal_uart_setbaud
	.section	.text.hal_uart_setconfig,"ax",@progbits
	.align	1
	.globl	hal_uart_setconfig
	.type	hal_uart_setconfig, @function
hal_uart_setconfig:
.LFB58:
	.loc 1 401 1
	.cfi_startproc
.LVL104:
	.loc 1 402 5
	lbu	a0,0(a0)
.LVL105:
	tail	bl_uart_setconfig
.LVL106:
	.cfi_endproc
.LFE58:
	.size	hal_uart_setconfig, .-hal_uart_setconfig
	.section	.rodata
	.align	2
	.set	.LANCHOR3,. + 0
.LC7:
	.word	.LC0
	.word	.LC0
	.byte	-1
	.zero	3
	.word	.LC1
	.word	.LC1
	.byte	-1
	.zero	3
	.word	.LC2
	.word	.LC2
	.byte	-1
	.zero	3
	.word	.LC3
	.word	.LC3
	.byte	-1
	.zero	3
	.section	.rodata.str1.4,"aMS",@progbits,1
	.align	2
.LC0:
	.string	"tx"
	.zero	1
.LC1:
	.string	"rx"
	.zero	1
.LC2:
	.string	"cts"
.LC3:
	.string	"rts"
	.section	.rodata.vfs_uart_init.str1.4,"aMS",@progbits,1
	.align	2
.LC5:
	.string	"uart@4000A000"
	.zero	2
.LC6:
	.string	"uart@4000A100"
	.zero	2
.LC8:
	.string	"status"
	.zero	1
.LC9:
	.string	"okay"
	.zero	3
.LC10:
	.string	"path"
	.zero	3
.LC11:
	.string	"baudrate"
	.zero	3
.LC12:
	.string	"id"
	.zero	1
.LC13:
	.string	"feature"
.LC14:
	.string	"pin"
	.section	.sbss.dev_uart0,"aw",@nobits
	.align	2
	.set	.LANCHOR1,. + 0
	.type	dev_uart0, @object
	.size	dev_uart0, 4
dev_uart0:
	.zero	4
	.section	.sbss.dev_uart1,"aw",@nobits
	.align	2
	.set	.LANCHOR0,. + 0
	.type	dev_uart1, @object
	.size	dev_uart1, 4
dev_uart1:
	.zero	4
	.section	.sbss.inited,"aw",@nobits
	.set	.LANCHOR2,. + 0
	.type	inited, @object
	.size	inited, 1
inited:
	.zero	1
	.text
.Letext0:
	.file 3 "/home/hogc/build-tools/sdk/bl/bl_iot_sdk/toolchain/riscv/Linux/lib/gcc/riscv64-unknown-elf/8.3.0/include/stdint-gcc.h"
	.file 4 "/home/hogc/build-tools/sdk/bl/bl_iot_sdk/toolchain/riscv/Linux/riscv64-unknown-elf/include/machine/_default_types.h"
	.file 5 "/home/hogc/build-tools/sdk/bl/bl_iot_sdk/toolchain/riscv/Linux/lib/gcc/riscv64-unknown-elf/8.3.0/include/stddef.h"
	.file 6 "/home/hogc/build-tools/sdk/bl/bl_iot_sdk/toolchain/riscv/Linux/riscv64-unknown-elf/include/sys/_types.h"
	.file 7 "/home/hogc/build-tools/sdk/bl/bl_iot_sdk/toolchain/riscv/Linux/riscv64-unknown-elf/include/sys/reent.h"
	.file 8 "/home/hogc/build-tools/sdk/bl/bl_iot_sdk/toolchain/riscv/Linux/riscv64-unknown-elf/include/sys/lock.h"
	.file 9 "/home/hogc/build-tools/sdk/bl/bl_iot_sdk/toolchain/riscv/Linux/riscv64-unknown-elf/include/sys/_timeval.h"
	.file 10 "/home/hogc/build-tools/sdk/bl/bl_iot_sdk/toolchain/riscv/Linux/riscv64-unknown-elf/include/sys/types.h"
	.file 11 "/home/hogc/build-tools/sdk/bl/bl_iot_sdk/toolchain/riscv/Linux/riscv64-unknown-elf/include/time.h"
	.file 12 "/home/hogc/build-tools/sdk/bl/bl_iot_sdk/toolchain/riscv/Linux/riscv64-unknown-elf/include/sys/stat.h"
	.file 13 "/home/hogc/build-tools/sdk/bl/bl_iot_sdk/components/fs/vfs/include/vfs_dir.h"
	.file 14 "/home/hogc/build-tools/sdk/bl/bl_iot_sdk/components/fs/vfs/include/vfs_inode.h"
	.file 15 "/home/hogc/build-tools/sdk/bl/bl_iot_sdk/components/fs/vfs/include/device/vfs_uart.h"
	.file 16 "/home/hogc/build-tools/sdk/bl/bl_iot_sdk/toolchain/riscv/Linux/riscv64-unknown-elf/include/sys/errno.h"
	.file 17 "/home/hogc/build-tools/sdk/bl/bl_iot_sdk/components/fs/vfs/include/hal/soc/uart.h"
	.file 18 "/home/hogc/build-tools/sdk/bl/bl_iot_sdk/components/stage/yloop/include/aos/kernel.h"
	.file 19 "/home/hogc/build-tools/sdk/bl/bl_iot_sdk/components/bl602/bl602_std/bl602_std/RISCV/Device/Bouffalo/BL602/Startup/system_bl602.h"
	.file 20 "/home/hogc/build-tools/sdk/bl/bl_iot_sdk/components/bl602/bl602_std/bl602_std/StdDriver/Inc/bl602_common.h"
	.file 21 "/home/hogc/build-tools/sdk/bl/bl_iot_sdk/components/bl602/bl602_std/bl602_std/StdDriver/Inc/bl602_uart.h"
	.file 22 "/home/hogc/build-tools/sdk/bl/bl_iot_sdk/toolchain/riscv/Linux/riscv64-unknown-elf/include/stdlib.h"
	.file 23 "/home/hogc/build-tools/sdk/bl/bl_iot_sdk/components/bl602/freertos_riscv_ram/portable/GCC/RISC-V/portmacro.h"
	.file 24 "/home/hogc/build-tools/sdk/bl/bl_iot_sdk/components/hal_drv/bl602_hal/bl_uart.h"
	.file 25 "/home/hogc/build-tools/sdk/bl/bl_iot_sdk/components/stage/blfdt/inc/libfdt.h"
	.file 26 "/home/hogc/build-tools/sdk/bl/bl_iot_sdk/toolchain/riscv/Linux/riscv64-unknown-elf/include/string.h"
	.file 27 "/home/hogc/build-tools/sdk/bl/bl_iot_sdk/components/bl602/freertos_riscv_ram/config/portable.h"
	.file 28 "/home/hogc/build-tools/sdk/bl/bl_iot_sdk/components/fs/vfs/include/vfs_register.h"
	.file 29 "<built-in>"