	.file	"ssl_ciphersuites.c"
	.option nopic
	.attribute arch, "rv32i2p0_m2p0_f2p0_c2p0"
	.attribute unaligned_access, 0
	.attribute stack_align, 16
	.text
.Ltext0:
	.cfi_sections	.debug_frame
	.section	.text.mbedtls_ssl_ciphersuite_from_string,"ax",@progbits
	.align	1
	.globl	mbedtls_ssl_ciphersuite_from_string
	.type	mbedtls_ssl_ciphersuite_from_string, @function
mbedtls_ssl_ciphersuite_from_string:
.LFB16:
	.file 1 "/b-l/bl_iot_sdk/components/security/mbedtls/src/ssl_ciphersuites.c"
	.loc 1 1757 1
	.cfi_startproc
.LVL0:
	.loc 1 1758 5
	.loc 1 1760 5
	.loc 1 1757 1 is_stmt 0
	addi	sp,sp,-16
	.cfi_def_cfa_offset 16
	sw	ra,12(sp)
	sw	s0,8(sp)
	sw	s1,4(sp)
	.cfi_offset 1, -4
	.cfi_offset 8, -8
	.cfi_offset 9, -12
	.loc 1 1760 7
	beq	a0,zero,.L2
.LBB4:
.LBB5:
	.loc 1 1758 38
	lui	s0,%hi(.LANCHOR0)
	mv	s1,a0
	addi	s0,s0,%lo(.LANCHOR0)
.LVL1:
.L4:
	.loc 1 1765 9 is_stmt 1
	.loc 1 1765 18 is_stmt 0
	lw	a0,4(s0)
	mv	a1,s1
	call	strcmp
.LVL2:
	.loc 1 1765 11
	beq	a0,zero,.L1
	.loc 1 1768 9 is_stmt 1
	.loc 1 1768 12 is_stmt 0
	addi	s0,s0,32
.LVL3:
	.loc 1 1763 10
	lw	a5,0(s0)
	bne	a5,zero,.L4
.LVL4:
.L2:
.LBE5:
.LBE4:
	.loc 1 1761 15
	li	s0,0
.L1:
	.loc 1 1772 1
	mv	a0,s0
	lw	ra,12(sp)
	.cfi_restore 1
	lw	s0,8(sp)
	.cfi_restore 8
	lw	s1,4(sp)
	.cfi_restore 9
	addi	sp,sp,16
	.cfi_def_cfa_offset 0
	jr	ra
	.cfi_endproc
.LFE16:
	.size	mbedtls_ssl_ciphersuite_from_string, .-mbedtls_ssl_ciphersuite_from_string
	.section	.text.mbedtls_ssl_ciphersuite_from_id,"ax",@progbits
	.align	1
	.globl	mbedtls_ssl_ciphersuite_from_id
	.type	mbedtls_ssl_ciphersuite_from_id, @function
mbedtls_ssl_ciphersuite_from_id:
.LFB17:
	.loc 1 1775 1 is_stmt 1
	.cfi_startproc
.LVL5:
	.loc 1 1776 5
	.loc 1 1778 5
	.loc 1 1776 38 is_stmt 0
	lui	a5,%hi(.LANCHOR0)
	addi	a5,a5,%lo(.LANCHOR0)
.LVL6:
.L14:
	.loc 1 1778 15
	lw	a4,0(a5)
	.loc 1 1778 10
	bne	a4,zero,.L16
	.loc 1 1786 11
	li	a5,0
.LVL7:
.L13:
	.loc 1 1787 1
	mv	a0,a5
.LVL8:
	ret
.LVL9:
.L16:
	.loc 1 1780 9 is_stmt 1
	.loc 1 1780 11 is_stmt 0
	beq	a4,a0,.L13
	.loc 1 1783 9 is_stmt 1
	.loc 1 1783 12 is_stmt 0
	addi	a5,a5,32
.LVL10:
	j	.L14
	.cfi_endproc
.LFE17:
	.size	mbedtls_ssl_ciphersuite_from_id, .-mbedtls_ssl_ciphersuite_from_id
	.section	.text.mbedtls_ssl_list_ciphersuites,"ax",@progbits
	.align	1
	.globl	mbedtls_ssl_list_ciphersuites
	.type	mbedtls_ssl_list_ciphersuites, @function
mbedtls_ssl_list_ciphersuites:
.LFB15:
	.loc 1 1723 1 is_stmt 1
	.cfi_startproc
	.loc 1 1728 5
	.loc 1 1728 24 is_stmt 0
	lui	a5,%hi(.LANCHOR3)
	.loc 1 1728 7
	lw	a4,%lo(.LANCHOR3)(a5)
	.loc 1 1723 1
	addi	sp,sp,-32
	.cfi_def_cfa_offset 32
	sw	s4,8(sp)
	sw	ra,28(sp)
	sw	s0,24(sp)
	sw	s1,20(sp)
	sw	s2,16(sp)
	sw	s3,12(sp)
	sw	s5,4(sp)
	.cfi_offset 20, -24
	.cfi_offset 1, -4
	.cfi_offset 8, -8
	.cfi_offset 9, -12
	.cfi_offset 18, -16
	.cfi_offset 19, -20
	.cfi_offset 21, -28
	lui	s4,%hi(.LANCHOR1)
	.loc 1 1728 7
	beq	a4,zero,.L24
.L19:
	.loc 1 1751 5 is_stmt 1
	.loc 1 1752 1 is_stmt 0
	lw	ra,28(sp)
	.cfi_remember_state
	.cfi_restore 1
	lw	s0,24(sp)
	.cfi_restore 8
	addi	a0,s4,%lo(.LANCHOR1)
	lw	s1,20(sp)
	.cfi_restore 9
	lw	s2,16(sp)
	.cfi_restore 18
	lw	s3,12(sp)
	.cfi_restore 19
	lw	s4,8(sp)
	.cfi_restore 20
	lw	s5,4(sp)
	.cfi_restore 21
	addi	sp,sp,32
	.cfi_def_cfa_offset 0
	jr	ra
.L24:
	.cfi_restore_state
.LBB6:
	.loc 1 1733 44
	addi	s0,s4,%lo(.LANCHOR1)
	.loc 1 1733 16
	lui	s1,%hi(.LANCHOR2)
	addi	s2,a5,%lo(.LANCHOR3)
	addi	s1,s1,%lo(.LANCHOR2)
	.loc 1 1734 22
	addi	s5,s0,20
	j	.L18
.LVL11:
.L21:
	bgeu	s0,s5,.L23
	.loc 1 1742 13 is_stmt 1
	.loc 1 1742 17 is_stmt 0
	mv	a0,s3
	call	mbedtls_ssl_ciphersuite_from_id
.LVL12:
	.loc 1 1742 15
	beq	a0,zero,.L20
	.loc 1 1744 17 is_stmt 1
.LVL13:
	.loc 1 1744 24 is_stmt 0
	sw	s3,0(s0)
	.loc 1 1744 20
	addi	s0,s0,4
.LVL14:
.L20:
	.loc 1 1735 15
	addi	s1,s1,4
.LVL15:
.L18:
	.loc 1 1734 14 discriminator 1
	lw	s3,0(s1)
	.loc 1 1733 9 discriminator 1
	bne	s3,zero,.L21
.L23:
	.loc 1 1746 9 is_stmt 1
	.loc 1 1748 24 is_stmt 0
	li	a5,1
	.loc 1 1746 12
	sw	zero,0(s0)
	.loc 1 1748 9 is_stmt 1
	.loc 1 1748 24 is_stmt 0
	sw	a5,0(s2)
	j	.L19
.LBE6:
	.cfi_endproc
.LFE15:
	.size	mbedtls_ssl_list_ciphersuites, .-mbedtls_ssl_list_ciphersuites
	.section	.text.mbedtls_ssl_get_ciphersuite_name,"ax",@progbits
	.align	1
	.globl	mbedtls_ssl_get_ciphersuite_name
	.type	mbedtls_ssl_get_ciphersuite_name, @function
mbedtls_ssl_get_ciphersuite_name:
.LFB18:
	.loc 1 1790 1 is_stmt 1
	.cfi_startproc
.LVL16:
	.loc 1 1791 5
	.loc 1 1793 5
	.loc 1 1790 1 is_stmt 0
	addi	sp,sp,-16
	.cfi_def_cfa_offset 16
	sw	ra,12(sp)
	.cfi_offset 1, -4
	.loc 1 1793 11
	call	mbedtls_ssl_ciphersuite_from_id
.LVL17:
	.loc 1 1795 5 is_stmt 1
	.loc 1 1795 7 is_stmt 0
	beq	a0,zero,.L31
	.loc 1 1798 5 is_stmt 1
	.loc 1 1798 16 is_stmt 0
	lw	a0,4(a0)
.LVL18:
.L29:
	.loc 1 1799 1
	lw	ra,12(sp)
	.cfi_remember_state
	.cfi_restore 1
	addi	sp,sp,16
	.cfi_def_cfa_offset 0
	jr	ra
.LVL19:
.L31:
	.cfi_restore_state
	.loc 1 1796 15
	lui	a0,%hi(.LC0)
.LVL20:
	addi	a0,a0,%lo(.LC0)
	j	.L29
	.cfi_endproc
.LFE18:
	.size	mbedtls_ssl_get_ciphersuite_name, .-mbedtls_ssl_get_ciphersuite_name
	.section	.text.mbedtls_ssl_get_ciphersuite_id,"ax",@progbits
	.align	1
	.globl	mbedtls_ssl_get_ciphersuite_id
	.type	mbedtls_ssl_get_ciphersuite_id, @function
mbedtls_ssl_get_ciphersuite_id:
.LFB19:
	.loc 1 1802 1 is_stmt 1
	.cfi_startproc
.LVL21:
	.loc 1 1803 5
	.loc 1 1805 5
	.loc 1 1802 1 is_stmt 0
	addi	sp,sp,-16
	.cfi_def_cfa_offset 16
	sw	ra,12(sp)
	.cfi_offset 1, -4
	.loc 1 1805 11
	call	mbedtls_ssl_ciphersuite_from_string
.LVL22:
	.loc 1 1807 5 is_stmt 1
	.loc 1 1807 7 is_stmt 0
	beq	a0,zero,.L35
	.loc 1 1810 5 is_stmt 1
	.loc 1 1810 16 is_stmt 0
	lw	a0,0(a0)
.LVL23:
.L33:
	.loc 1 1811 1
	lw	ra,12(sp)
	.cfi_remember_state
	.cfi_restore 1
	addi	sp,sp,16
	.cfi_def_cfa_offset 0
	jr	ra
.LVL24:
.L35:
	.cfi_restore_state
	.loc 1 1808 15
	li	a0,0
.LVL25:
	j	.L33
	.cfi_endproc
.LFE19:
	.size	mbedtls_ssl_get_ciphersuite_id, .-mbedtls_ssl_get_ciphersuite_id
	.section	.text.mbedtls_ssl_get_ciphersuite_sig_pk_alg,"ax",@progbits
	.align	1
	.globl	mbedtls_ssl_get_ciphersuite_sig_pk_alg
	.type	mbedtls_ssl_get_ciphersuite_sig_pk_alg, @function
mbedtls_ssl_get_ciphersuite_sig_pk_alg:
.LFB20:
	.loc 1 1815 1 is_stmt 1
	.cfi_startproc
.LVL26:
	.loc 1 1816 5
	.loc 1 1816 17 is_stmt 0
	lbu	a0,10(a0)
.LVL27:
	li	a5,10
	bgtu	a0,a5,.L39
	li	a5,1
	sll	a5,a5,a0
	andi	a4,a5,142
	.loc 1 1822 19
	li	a0,1
	bne	a4,zero,.L38
	andi	a4,a5,1536
	.loc 1 1829 19
	li	a0,2
	bne	a4,zero,.L38
	andi	a5,a5,16
	.loc 1 1825 19
	snez	a0,a5
	slli	a0,a0,2
	ret
.L39:
	.loc 1 1832 19
	li	a0,0
.L38:
	.loc 1 1834 1
	ret
	.cfi_endproc
.LFE20:
	.size	mbedtls_ssl_get_ciphersuite_sig_pk_alg, .-mbedtls_ssl_get_ciphersuite_sig_pk_alg
	.section	.bss.supported_ciphersuites,"aw",@nobits
	.align	2
	.set	.LANCHOR1,. + 0
	.type	supported_ciphersuites, @object
	.size	supported_ciphersuites, 24
supported_ciphersuites:
	.zero	24
	.section	.rodata.ciphersuite_definitions,"a"
	.align	2
	.set	.LANCHOR0,. + 0
	.type	ciphersuite_definitions, @object
	.size	ciphersuite_definitions, 192
ciphersuite_definitions:
	.word	156
	.word	.LC1
	.byte	14
	.byte	6
	.byte	1
	.zero	1
	.word	3
	.word	3
	.word	3
	.word	3
	.byte	0
	.zero	3
	.word	60
	.word	.LC2
	.byte	5
	.byte	6
	.byte	1
	.zero	1
	.word	3
	.word	3
	.word	3
	.word	3
	.byte	0
	.zero	3
	.word	61
	.word	.LC3
	.byte	7
	.byte	6
	.byte	1
	.zero	1
	.word	3
	.word	3
	.word	3
	.word	3
	.byte	0
	.zero	3
	.word	47
	.word	.LC4
	.byte	5
	.byte	4
	.byte	1
	.zero	1
	.word	3
	.word	0
	.word	3
	.word	3
	.byte	0
	.zero	3
	.word	53
	.word	.LC5
	.byte	7
	.byte	4
	.byte	1
	.zero	1
	.word	3
	.word	0
	.word	3
	.word	3
	.byte	0
	.zero	3
	.word	0
	.word	.LC6
	.byte	0
	.byte	0
	.byte	0
	.zero	1
	.word	0
	.word	0
	.word	0
	.word	0
	.byte	0
	.zero	3
	.section	.rodata.ciphersuite_preference,"a"
	.align	2
	.set	.LANCHOR2,. + 0
	.type	ciphersuite_preference, @object
	.size	ciphersuite_preference, 652
ciphersuite_preference:
	.word	49196
	.word	49200
	.word	159
	.word	49325
	.word	49311
	.word	49188
	.word	49192
	.word	107
	.word	49162
	.word	49172
	.word	57
	.word	49327
	.word	49315
	.word	49287
	.word	49291
	.word	49277
	.word	49267
	.word	49271
	.word	196
	.word	136
	.word	49195
	.word	49199
	.word	158
	.word	49324
	.word	49310
	.word	49187
	.word	49191
	.word	103
	.word	49161
	.word	49171
	.word	51
	.word	49326
	.word	49314
	.word	49286
	.word	49290
	.word	49276
	.word	49266
	.word	49270
	.word	190
	.word	69
	.word	49160
	.word	49170
	.word	22
	.word	171
	.word	49319
	.word	49208
	.word	179
	.word	49206
	.word	145
	.word	49297
	.word	49307
	.word	49303
	.word	49323
	.word	170
	.word	49318
	.word	49207
	.word	178
	.word	49205
	.word	144
	.word	49296
	.word	49302
	.word	49306
	.word	49322
	.word	49204
	.word	143
	.word	49407
	.word	157
	.word	49309
	.word	61
	.word	53
	.word	49202
	.word	49194
	.word	49167
	.word	49198
	.word	49190
	.word	49157
	.word	49313
	.word	49275
	.word	192
	.word	132
	.word	49293
	.word	49273
	.word	49289
	.word	49269
	.word	156
	.word	49308
	.word	60
	.word	47
	.word	49201
	.word	49193
	.word	49166
	.word	49197
	.word	49189
	.word	49156
	.word	49312
	.word	49274
	.word	186
	.word	65
	.word	49292
	.word	49272
	.word	49288
	.word	49268
	.word	10
	.word	49165
	.word	49155
	.word	173
	.word	183
	.word	149
	.word	49299
	.word	49305
	.word	172
	.word	182
	.word	148
	.word	49298
	.word	49304
	.word	147
	.word	169
	.word	49317
	.word	175
	.word	141
	.word	49295
	.word	49301
	.word	49321
	.word	168
	.word	49316
	.word	174
	.word	140
	.word	49294
	.word	49300
	.word	49320
	.word	139
	.word	49159
	.word	49169
	.word	49203
	.word	142
	.word	5
	.word	4
	.word	49164
	.word	49154
	.word	146
	.word	138
	.word	21
	.word	9
	.word	49158
	.word	49168
	.word	49211
	.word	49210
	.word	49209
	.word	181
	.word	180
	.word	45
	.word	59
	.word	2
	.word	1
	.word	49163
	.word	49153
	.word	185
	.word	184
	.word	46
	.word	177
	.word	176
	.word	44
	.word	0
	.section	.rodata.mbedtls_ssl_get_ciphersuite_name.str1.4,"aMS",@progbits,1
	.align	2
.LC0:
	.string	"unknown"
	.section	.rodata.str1.4,"aMS",@progbits,1
	.align	2
.LC1:
	.string	"TLS-RSA-WITH-AES-128-GCM-SHA256"
.LC2:
	.string	"TLS-RSA-WITH-AES-128-CBC-SHA256"
.LC3:
	.string	"TLS-RSA-WITH-AES-256-CBC-SHA256"
.LC4:
	.string	"TLS-RSA-WITH-AES-128-CBC-SHA"
	.zero	3
.LC5:
	.string	"TLS-RSA-WITH-AES-256-CBC-SHA"
	.zero	3
.LC6:
	.string	""
	.section	.sbss.supported_init,"aw",@nobits
	.align	2
	.set	.LANCHOR3,. + 0
	.type	supported_init, @object
	.size	supported_init, 4
supported_init:
	.zero	4
	.text
.Letext0:
	.file 2 "/b-l/bl_iot_sdk/toolchain/riscv/Linux/riscv64-unknown-elf/include/machine/_default_types.h"
	.file 3 "/b-l/bl_iot_sdk/toolchain/riscv/Linux/lib/gcc/riscv64-unknown-elf/8.3.0/include/stddef.h"
	.file 4 "/b-l/bl_iot_sdk/toolchain/riscv/Linux/riscv64-unknown-elf/include/sys/_types.h"
	.file 5 "/b-l/bl_iot_sdk/toolchain/riscv/Linux/riscv64-unknown-elf/include/sys/reent.h"
	.file 6 "/b-l/bl_iot_sdk/toolchain/riscv/Linux/riscv64-unknown-elf/include/sys/lock.h"
	.file 7 "/b-l/bl_iot_sdk/toolchain/riscv/Linux/riscv64-unknown-elf/include/sys/_stdint.h"
	.file 8 "/b-l/bl_iot_sdk/toolchain/riscv/Linux/riscv64-unknown-elf/include/stdlib.h"
	.file 9 "/b-l/bl_iot_sdk/toolchain/riscv/Linux/riscv64-unknown-elf/include/time.h"
	.file 10 "/b-l/bl_iot_sdk/components/bl602/freertos_riscv_ram/portable/GCC/RISC-V/portmacro.h"
	.file 11 "/b-l/bl_iot_sdk/components/security/mbedtls/include/mbedtls/md.h"
	.file 12 "/b-l/bl_iot_sdk/components/security/mbedtls/include/mbedtls/pk.h"
	.file 13 "/b-l/bl_iot_sdk/components/security/mbedtls/include/mbedtls/cipher.h"
	.file 14 "/b-l/bl_iot_sdk/components/security/mbedtls/include/mbedtls/ssl_ciphersuites.h"
	.file 15 "/b-l/bl_iot_sdk/components/security/mbedtls/include/mbedtls/x509_crt.h"
	.file 16 "/b-l/bl_iot_sdk/toolchain/riscv/Linux/riscv64-unknown-elf/include/string.h"