	.file	"x509.c"
	.option nopic
	.attribute arch, "rv32i2p0_m2p0_f2p0_c2p0"
	.attribute unaligned_access, 0
	.attribute stack_align, 16
	.text
.Ltext0:
	.cfi_sections	.debug_frame
	.section	.text.x509_parse_int,"ax",@progbits
	.align	1
	.type	x509_parse_int, @function
x509_parse_int:
.LFB20:
	.file 1 "/b-l/bl_iot_sdk/components/security/mbedtls/src/x509.c"
	.loc 1 491 1
	.cfi_startproc
.LVL0:
	.loc 1 492 5
	.loc 1 492 10 is_stmt 0
	sw	zero,0(a2)
	.loc 1 494 5 is_stmt 1
	.loc 1 496 11 is_stmt 0
	li	a6,9
	.loc 1 499 14
	li	a3,10
.L3:
	.loc 1 496 9 is_stmt 1
	.loc 1 496 15 is_stmt 0
	lw	a5,0(a0)
	.loc 1 496 26
	lbu	a5,0(a5)
	addi	a5,a5,-48
	.loc 1 496 11
	andi	a5,a5,0xff
	bgtu	a5,a6,.L4
	.loc 1 499 9 is_stmt 1
	.loc 1 499 14 is_stmt 0
	lw	a5,0(a2)
	.loc 1 494 19
	addi	a1,a1,-1
.LVL1:
	.loc 1 499 14
	mul	a5,a5,a3
	sw	a5,0(a2)
	.loc 1 500 9 is_stmt 1
.LVL2:
	.loc 1 500 21 is_stmt 0
	lw	a5,0(a0)
	.loc 1 500 24
	addi	a4,a5,1
	sw	a4,0(a0)
	.loc 1 500 19
	lbu	a5,0(a5)
	.loc 1 500 27
	addi	a4,a5,-48
	.loc 1 500 14
	lw	a5,0(a2)
	add	a5,a5,a4
	sw	a5,0(a2)
	.loc 1 494 5
	bne	a1,zero,.L3
	.loc 1 503 11
	li	a0,0
.LVL3:
	ret
.LVL4:
.L4:
	.loc 1 497 20
	li	a0,-8192
.LVL5:
	addi	a0,a0,-1024
	.loc 1 504 1
	ret
	.cfi_endproc
.LFE20:
	.size	x509_parse_int, .-x509_parse_int
	.section	.text.mbedtls_x509_get_serial,"ax",@progbits
	.align	1
	.globl	mbedtls_x509_get_serial
	.type	mbedtls_x509_get_serial, @function
mbedtls_x509_get_serial:
.LFB15:
	.loc 1 97 1 is_stmt 1
	.cfi_startproc
.LVL6:
	.loc 1 98 5
	.loc 1 100 5
	.loc 1 100 17 is_stmt 0
	lw	a5,0(a0)
	.loc 1 100 15
	sub	a4,a1,a5
	.loc 1 100 7
	ble	a4,zero,.L9
	.loc 1 104 5 is_stmt 1
	.loc 1 104 36 is_stmt 0
	lbu	a4,0(a5)
	li	a3,2
	andi	a4,a4,127
	bne	a4,a3,.L10
	.loc 1 97 1
	addi	sp,sp,-16
	.cfi_def_cfa_offset 16
	sw	s0,8(sp)
	sw	s1,4(sp)
	sw	ra,12(sp)
	.cfi_offset 8, -8
	.cfi_offset 9, -12
	.cfi_offset 1, -4
	.loc 1 109 24
	addi	a4,a5,1
	sw	a4,0(a0)
	.loc 1 109 19
	lbu	a5,0(a5)
	mv	s1,a2
	.loc 1 109 5 is_stmt 1
	.loc 1 111 17 is_stmt 0
	addi	a2,a2,4
.LVL7:
	.loc 1 109 19
	sw	a5,-4(a2)
	.loc 1 111 5 is_stmt 1
	mv	s0,a0
	.loc 1 111 17 is_stmt 0
	call	mbedtls_asn1_get_len
.LVL8:
	.loc 1 111 7
	beq	a0,zero,.L8
	.loc 1 112 9 is_stmt 1
	.loc 1 112 25 is_stmt 0
	li	a5,-8192
	addi	a5,a5,-640
	add	a0,a0,a5
.LVL9:
.L6:
	.loc 1 118 1
	lw	ra,12(sp)
	.cfi_remember_state
	.cfi_restore 1
	lw	s0,8(sp)
	.cfi_restore 8
.LVL10:
	lw	s1,4(sp)
	.cfi_restore 9
.LVL11:
	addi	sp,sp,16
	.cfi_def_cfa_offset 0
	jr	ra
.LVL12:
.L8:
	.cfi_restore_state
	.loc 1 114 5 is_stmt 1
	.loc 1 114 17 is_stmt 0
	lw	a5,0(s0)
	.loc 1 115 8
	lw	a4,4(s1)
	.loc 1 114 15
	sw	a5,8(s1)
	.loc 1 115 5 is_stmt 1
	.loc 1 115 8 is_stmt 0
	add	a5,a5,a4
	sw	a5,0(s0)
	.loc 1 117 5 is_stmt 1
	.loc 1 117 11 is_stmt 0
	j	.L6
.LVL13:
.L9:
	.cfi_def_cfa_offset 0
	.cfi_restore 1
	.cfi_restore 8
	.cfi_restore 9
	.loc 1 101 15
	li	a0,-8192
.LVL14:
	addi	a0,a0,-736
	ret
.LVL15:
.L10:
	.loc 1 106 15
	li	a0,-8192
.LVL16:
	addi	a0,a0,-738
	.loc 1 118 1
	ret
	.cfi_endproc
.LFE15:
	.size	mbedtls_x509_get_serial, .-mbedtls_x509_get_serial
	.section	.text.mbedtls_x509_get_alg_null,"ax",@progbits
	.align	1
	.globl	mbedtls_x509_get_alg_null
	.type	mbedtls_x509_get_alg_null, @function
mbedtls_x509_get_alg_null:
.LFB16:
	.loc 1 128 1 is_stmt 1
	.cfi_startproc
.LVL17:
	.loc 1 129 5
	.loc 1 131 5
	.loc 1 128 1 is_stmt 0
	addi	sp,sp,-16
	.cfi_def_cfa_offset 16
	sw	ra,12(sp)
	.cfi_offset 1, -4
	.loc 1 131 17
	call	mbedtls_asn1_get_alg_null
.LVL18:
	.loc 1 131 7
	beq	a0,zero,.L15
	.loc 1 132 9 is_stmt 1
	.loc 1 132 25 is_stmt 0
	li	a5,-8192
	addi	a5,a5,-768
	add	a0,a0,a5
.LVL19:
.L15:
	.loc 1 135 1
	lw	ra,12(sp)
	.cfi_restore 1
	addi	sp,sp,16
	.cfi_def_cfa_offset 0
	jr	ra
	.cfi_endproc
.LFE16:
	.size	mbedtls_x509_get_alg_null, .-mbedtls_x509_get_alg_null
	.section	.text.mbedtls_x509_get_alg,"ax",@progbits
	.align	1
	.globl	mbedtls_x509_get_alg
	.type	mbedtls_x509_get_alg, @function
mbedtls_x509_get_alg:
.LFB17:
	.loc 1 142 1 is_stmt 1
	.cfi_startproc
.LVL20:
	.loc 1 143 5
	.loc 1 145 5
	.loc 1 142 1 is_stmt 0
	addi	sp,sp,-16
	.cfi_def_cfa_offset 16
	sw	ra,12(sp)
	.cfi_offset 1, -4
	.loc 1 145 17
	call	mbedtls_asn1_get_alg
.LVL21:
	.loc 1 145 7
	beq	a0,zero,.L21
	.loc 1 146 9 is_stmt 1
	.loc 1 146 25 is_stmt 0
	li	a5,-8192
	addi	a5,a5,-768
	add	a0,a0,a5
.LVL22:
.L21:
	.loc 1 149 1
	lw	ra,12(sp)
	.cfi_restore 1
	addi	sp,sp,16
	.cfi_def_cfa_offset 0
	jr	ra
	.cfi_endproc
.LFE17:
	.size	mbedtls_x509_get_alg, .-mbedtls_x509_get_alg
	.section	.text.mbedtls_x509_get_name,"ax",@progbits
	.align	1
	.globl	mbedtls_x509_get_name
	.type	mbedtls_x509_get_name, @function
mbedtls_x509_get_name:
.LFB19:
	.loc 1 439 1 is_stmt 1
	.cfi_startproc
.LVL23:
	addi	sp,sp,-64
	.cfi_def_cfa_offset 64
	sw	s3,44(sp)
	sw	s4,40(sp)
	.cfi_offset 19, -20
	.cfi_offset 20, -24
.LBB4:
.LBB5:
	.loc 1 404 25 is_stmt 0
	li	s3,-8192
	.loc 1 395 36
	li	s4,1347948544
.LBE5:
.LBE4:
	.loc 1 439 1
	sw	s1,52(sp)
	sw	s5,36(sp)
	sw	s6,32(sp)
	sw	ra,60(sp)
	sw	s0,56(sp)
	sw	s2,48(sp)
	sw	s7,28(sp)
	.cfi_offset 9, -12
	.cfi_offset 21, -28
	.cfi_offset 22, -32
	.cfi_offset 1, -4
	.cfi_offset 8, -8
	.cfi_offset 18, -16
	.cfi_offset 23, -36
	.loc 1 439 1
	mv	s1,a0
	mv	s5,a1
	mv	s6,a2
.LBB10:
.LBB6:
	.loc 1 395 36
	addi	s4,s4,8
	.loc 1 404 25
	addi	s3,s3,-896
.LVL24:
.L41:
.LBE6:
.LBE10:
	.loc 1 440 5 is_stmt 1
	.loc 1 441 5
	.loc 1 442 5
	.loc 1 445 5
	.loc 1 450 9
	.loc 1 450 21 is_stmt 0
	li	a3,49
	addi	a2,sp,8
	mv	a1,s5
	mv	a0,s1
	call	mbedtls_asn1_get_tag
.LVL25:
	.loc 1 450 11
	beq	a0,zero,.L28
	.loc 1 452 13 is_stmt 1
	.loc 1 452 29 is_stmt 0
	li	a5,-8192
	addi	a5,a5,-896
	add	a0,a0,a5
.LVL26:
.L27:
	.loc 1 488 1
	lw	ra,60(sp)
	.cfi_remember_state
	.cfi_restore 1
	lw	s0,56(sp)
	.cfi_restore 8
	lw	s1,52(sp)
	.cfi_restore 9
.LVL27:
	lw	s2,48(sp)
	.cfi_restore 18
	lw	s3,44(sp)
	.cfi_restore 19
	lw	s4,40(sp)
	.cfi_restore 20
	lw	s5,36(sp)
	.cfi_restore 21
.LVL28:
	lw	s6,32(sp)
	.cfi_restore 22
	lw	s7,28(sp)
	.cfi_restore 23
	addi	sp,sp,64
	.cfi_def_cfa_offset 0
	jr	ra
.LVL29:
.L28:
	.cfi_restore_state
	.loc 1 454 9 is_stmt 1
	.loc 1 454 17 is_stmt 0
	lw	s2,0(s1)
	lw	a5,8(sp)
	mv	s0,s6
.LBB11:
.LBB7:
	.loc 1 395 36
	li	s7,30
.LBE7:
.LBE11:
	.loc 1 454 17
	add	s2,s2,a5
.LVL30:
	.loc 1 465 30
	li	s6,1
.LVL31:
.L39:
	.loc 1 456 9 is_stmt 1
	.loc 1 458 13
.LBB12:
.LBB8:
	.loc 1 367 5
	.loc 1 368 5
	.loc 1 369 5
	.loc 1 370 5
	.loc 1 372 5
	.loc 1 372 17 is_stmt 0
	li	a3,48
	addi	a2,sp,12
	mv	a1,s2
	mv	a0,s1
	call	mbedtls_asn1_get_tag
.LVL32:
	.loc 1 372 7
	beq	a0,zero,.L30
.L49:
	.loc 1 404 9 is_stmt 1
	.loc 1 404 25 is_stmt 0
	add	a0,a0,s3
.LVL33:
.LBE8:
.LBE12:
	.loc 1 458 15
	bne	a0,zero,.L27
.LVL34:
.L37:
	.loc 1 461 13 is_stmt 1
	.loc 1 461 15 is_stmt 0
	lw	a5,0(s1)
	beq	a5,s2,.L38
	.loc 1 465 13 is_stmt 1
	.loc 1 465 30 is_stmt 0
	sb	s6,28(s0)
	.loc 1 467 13 is_stmt 1
	.loc 1 467 25 is_stmt 0
	li	a1,32
	li	a0,1
	call	mycalloc
.LVL35:
	.loc 1 467 23
	sw	a0,24(s0)
	.loc 1 469 13 is_stmt 1
	mv	s0,a0
.LVL36:
	.loc 1 469 15 is_stmt 0
	bne	a0,zero,.L39
.L40:
	.loc 1 470 23
	li	a0,-12288
	addi	a0,a0,1920
	j	.L27
.LVL37:
.L30:
.LBB13:
.LBB9:
	.loc 1 376 5 is_stmt 1
	.loc 1 376 17 is_stmt 0
	lw	a5,0(s1)
	.loc 1 376 15
	sub	a4,s2,a5
	.loc 1 376 7
	bgt	a4,zero,.L32
.L34:
.LVL38:
	.loc 1 377 15
	li	a0,-8192
	addi	a0,a0,-992
	j	.L27
.LVL39:
.L32:
	.loc 1 380 5 is_stmt 1
	.loc 1 381 5
	.loc 1 381 16 is_stmt 0
	lbu	a5,0(a5)
	.loc 1 383 17
	li	a3,6
	addi	a2,s0,4
	.loc 1 381 16
	sw	a5,0(s0)
	.loc 1 383 5 is_stmt 1
	.loc 1 383 17 is_stmt 0
	mv	a1,s2
	mv	a0,s1
.LVL40:
	call	mbedtls_asn1_get_tag
.LVL41:
	.loc 1 383 7
	bne	a0,zero,.L49
	.loc 1 386 5 is_stmt 1
	.loc 1 386 14 is_stmt 0
	lw	a5,0(s1)
	.loc 1 387 8
	lw	a4,4(s0)
	.loc 1 386 12
	sw	a5,8(s0)
	.loc 1 387 5 is_stmt 1
	.loc 1 387 8 is_stmt 0
	add	a5,a5,a4
	sw	a5,0(s1)
	.loc 1 389 5 is_stmt 1
	.loc 1 389 15 is_stmt 0
	sub	a4,s2,a5
	.loc 1 389 7
	ble	a4,zero,.L34
	.loc 1 393 5 is_stmt 1
	.loc 1 393 9 is_stmt 0
	lbu	a4,0(a5)
	.loc 1 395 36
	bgtu	a4,s7,.L35
	srl	a4,s4,a4
	andi	a4,a4,1
	beq	a4,zero,.L35
	.loc 1 400 5 is_stmt 1
.LVL42:
	.loc 1 401 5
	.loc 1 401 21 is_stmt 0
	addi	a4,a5,1
	sw	a4,0(s1)
	.loc 1 401 16
	lbu	a5,0(a5)
	.loc 1 403 17
	addi	a2,s0,16
	mv	a1,s2
	.loc 1 401 16
	sw	a5,12(s0)
	.loc 1 403 5 is_stmt 1
	.loc 1 403 17 is_stmt 0
	mv	a0,s1
.LVL43:
	call	mbedtls_asn1_get_len
.LVL44:
	.loc 1 403 7
	bne	a0,zero,.L49
	.loc 1 406 5 is_stmt 1
	.loc 1 406 14 is_stmt 0
	lw	a5,0(s1)
	.loc 1 407 8
	lw	a4,16(s0)
	.loc 1 406 12
	sw	a5,20(s0)
	.loc 1 407 5 is_stmt 1
	.loc 1 407 8 is_stmt 0
	add	a5,a5,a4
	sw	a5,0(s1)
	.loc 1 409 5 is_stmt 1
	.loc 1 409 15 is_stmt 0
	sw	zero,24(s0)
	.loc 1 411 5 is_stmt 1
.LVL45:
	j	.L37
.LVL46:
.L35:
	.loc 1 397 15 is_stmt 0
	li	a0,-8192
	addi	a0,a0,-994
	j	.L27
.LVL47:
.L38:
.LBE9:
.LBE13:
	.loc 1 478 9 is_stmt 1
	.loc 1 478 11 is_stmt 0
	beq	s5,s2,.L42
	.loc 1 481 9 is_stmt 1
	.loc 1 481 21 is_stmt 0
	li	a1,32
	li	a0,1
	call	mycalloc
.LVL48:
	.loc 1 481 19
	sw	a0,24(s0)
	.loc 1 483 9 is_stmt 1
	.loc 1 481 21 is_stmt 0
	mv	s6,a0
	.loc 1 483 11
	bne	a0,zero,.L41
	j	.L40
.L42:
	.loc 1 479 19
	li	a0,0
	j	.L27
	.cfi_endproc
.LFE19:
	.size	mbedtls_x509_get_name, .-mbedtls_x509_get_name
	.section	.text.mbedtls_x509_get_time,"ax",@progbits
	.align	1
	.globl	mbedtls_x509_get_time
	.type	mbedtls_x509_get_time, @function
mbedtls_x509_get_time:
.LFB23:
	.loc 1 604 1 is_stmt 1
	.cfi_startproc
.LVL49:
	.loc 1 605 5
	.loc 1 606 5
	.loc 1 607 5
	.loc 1 609 5
	.loc 1 609 17 is_stmt 0
	lw	a5,0(a0)
	.loc 1 609 15
	sub	a4,a1,a5
	.loc 1 609 7
	ble	a4,zero,.L64
	.loc 1 613 5 is_stmt 1
	.loc 1 604 1 is_stmt 0
	addi	sp,sp,-48
	.cfi_def_cfa_offset 48
	sw	ra,44(sp)
	sw	s0,40(sp)
	sw	s1,36(sp)
	sw	s2,32(sp)
	sw	s3,28(sp)
	.cfi_offset 1, -4
	.cfi_offset 8, -8
	.cfi_offset 9, -12
	.cfi_offset 18, -16
	.cfi_offset 19, -20
	.loc 1 613 9
	lbu	a4,0(a5)
.LVL50:
	.loc 1 615 5 is_stmt 1
	.loc 1 615 7 is_stmt 0
	li	a3,23
	beq	a4,a3,.L65
	.loc 1 617 10 is_stmt 1
	.loc 1 617 12 is_stmt 0
	li	a3,24
	.loc 1 618 18
	li	s3,4
	.loc 1 617 12
	beq	a4,a3,.L52
	.loc 1 620 15
	li	a0,-8192
.LVL51:
	addi	a0,a0,-1122
	j	.L50
.LVL52:
.L65:
	.loc 1 616 18
	li	s3,2
.L52:
	.loc 1 623 9
	addi	a5,a5,1
	mv	s0,a2
	sw	a5,0(a0)
	.loc 1 624 11
	addi	a2,sp,12
.LVL53:
	mv	s1,a0
.LVL54:
	.loc 1 623 5 is_stmt 1
	.loc 1 624 5
	.loc 1 624 11 is_stmt 0
	call	mbedtls_asn1_get_len
.LVL55:
	.loc 1 626 5 is_stmt 1
	.loc 1 626 7 is_stmt 0
	beq	a0,zero,.L53
	.loc 1 627 9 is_stmt 1
	.loc 1 627 25 is_stmt 0
	li	a5,-8192
	addi	a5,a5,-1024
	add	a0,a0,a5
.LVL56:
.L50:
	.loc 1 630 1
	lw	ra,44(sp)
	.cfi_remember_state
	.cfi_restore 1
	lw	s0,40(sp)
	.cfi_restore 8
	lw	s1,36(sp)
	.cfi_restore 9
	lw	s2,32(sp)
	.cfi_restore 18
	lw	s3,28(sp)
	.cfi_restore 19
	addi	sp,sp,48
	.cfi_def_cfa_offset 0
	jr	ra
.LVL57:
.L53:
	.cfi_restore_state
	.loc 1 629 5 is_stmt 1
	.loc 1 629 12 is_stmt 0
	lw	s2,12(sp)
.LVL58:
.LBB18:
.LBB19:
	.loc 1 540 5 is_stmt 1
	.loc 1 545 5
	.loc 1 545 24 is_stmt 0
	addi	a5,s3,8
	.loc 1 545 8
	bgeu	s2,a5,.L54
.LVL59:
.L57:
	.loc 1 546 16
	li	a0,-8192
	addi	a0,a0,-1024
	j	.L50
.LVL60:
.L54:
	.loc 1 547 5 is_stmt 1
	.loc 1 552 5
	.loc 1 552 17 is_stmt 0
	mv	a2,s0
	mv	a1,s3
	mv	a0,s1
.LVL61:
	call	x509_parse_int
.LVL62:
	.loc 1 552 7
	bne	a0,zero,.L50
	.loc 1 552 85 is_stmt 1
	.loc 1 553 5
	.loc 1 553 8 is_stmt 0
	li	a5,2
	bne	s3,a5,.L55
	.loc 1 555 9 is_stmt 1
	.loc 1 555 18 is_stmt 0
	lw	a5,0(s0)
	.loc 1 555 12
	li	a4,49
	bgt	a5,a4,.L56
	.loc 1 556 13 is_stmt 1
	.loc 1 556 24 is_stmt 0
	addi	a5,a5,100
	sw	a5,0(s0)
.L56:
	.loc 1 558 9 is_stmt 1
	.loc 1 558 20 is_stmt 0
	lw	a5,0(s0)
	addi	a5,a5,1900
	sw	a5,0(s0)
.L55:
	.loc 1 561 5 is_stmt 1
	.loc 1 561 17 is_stmt 0
	addi	a2,s0,4
	li	a1,2
	mv	a0,s1
.LVL63:
	call	x509_parse_int
.LVL64:
	.loc 1 561 7
	bne	a0,zero,.L50
	.loc 1 561 78 is_stmt 1
	.loc 1 562 5
	.loc 1 562 17 is_stmt 0
	addi	a2,s0,8
	li	a1,2
	mv	a0,s1
.LVL65:
	call	x509_parse_int
.LVL66:
	.loc 1 562 7
	bne	a0,zero,.L50
	.loc 1 562 78 is_stmt 1
	.loc 1 563 5
	.loc 1 563 17 is_stmt 0
	addi	a2,s0,12
	li	a1,2
	mv	a0,s1
.LVL67:
	call	x509_parse_int
.LVL68:
	.loc 1 563 7
	bne	a0,zero,.L50
	.loc 1 563 79 is_stmt 1
	.loc 1 564 5
	.loc 1 564 17 is_stmt 0
	addi	a2,s0,16
	li	a1,2
	mv	a0,s1
.LVL69:
	call	x509_parse_int
.LVL70:
	.loc 1 564 7
	bne	a0,zero,.L50
	.loc 1 547 9
	sub	s2,s2,s3
.LVL71:
	.loc 1 564 78 is_stmt 1
	.loc 1 569 5
	.loc 1 547 9 is_stmt 0
	addi	a5,s2,-8
	.loc 1 569 8
	li	s3,1
.LVL72:
	bleu	a5,s3,.L57
	.loc 1 571 9 is_stmt 1
	.loc 1 571 21 is_stmt 0
	addi	a2,s0,20
	li	a1,2
	mv	a0,s1
.LVL73:
	call	x509_parse_int
.LVL74:
	.loc 1 571 11
	bne	a0,zero,.L50
	.loc 1 571 82 is_stmt 1
	.loc 1 572 9
	.loc 1 572 13 is_stmt 0
	addi	s2,s2,-10
.LVL75:
	.loc 1 580 5 is_stmt 1
	.loc 1 580 8 is_stmt 0
	bne	s2,s3,.L58
	.loc 1 580 30
	lw	a5,0(s1)
	.loc 1 580 19
	li	a4,90
	lbu	a3,0(a5)
	bne	a3,a4,.L57
	.loc 1 582 9 is_stmt 1
	.loc 1 582 13 is_stmt 0
	addi	a5,a5,1
	sw	a5,0(s1)
	.loc 1 583 9 is_stmt 1
.LVL76:
	.loc 1 589 5
.L59:
	.loc 1 592 5
.LBB20:
.LBB21:
	.loc 1 508 5
	.loc 1 510 5
	.loc 1 510 24 is_stmt 0
	lw	a5,0(s0)
	.loc 1 510 7
	li	a4,8192
	addi	a4,a4,1807
	bgtu	a5,a4,.L57
	.loc 1 510 64 is_stmt 1
	.loc 1 511 5
	.loc 1 511 7 is_stmt 0
	lw	a3,12(s0)
	li	a4,23
	bgtu	a3,a4,.L57
	.loc 1 511 62 is_stmt 1
	.loc 1 512 5
	.loc 1 512 7 is_stmt 0
	lw	a3,16(s0)
	li	a4,59
	bgtu	a3,a4,.L57
	.loc 1 512 60 is_stmt 1
	.loc 1 513 5
	.loc 1 513 7 is_stmt 0
	lw	a3,20(s0)
	bgtu	a3,a4,.L57
	.loc 1 513 60 is_stmt 1
	.loc 1 515 5
	lw	a4,4(s0)
	addi	a3,a4,-1
	li	a4,11
	bgtu	a3,a4,.L57
	li	a4,1
	sll	a4,a4,a3
	li	a3,4096
	addi	a3,a3,-1323
	and	a3,a4,a3
	bne	a3,zero,.L60
	andi	a3,a4,1320
	bne	a3,zero,.L61
	andi	a4,a4,2
	beq	a4,zero,.L57
	.loc 1 524 13
	.loc 1 524 21 is_stmt 0
	lw	a4,8(s0)
	.loc 1 524 15
	ble	a4,zero,.L57
	.loc 1 524 67
	andi	a5,a5,3
	.loc 1 524 49
	seqz	a5,a5
	addi	a5,a5,28
	.loc 1 524 31
	ble	a4,a5,.L50
	j	.L57
.LVL77:
.L58:
.LBE21:
.LBE20:
	.loc 1 589 5 is_stmt 1
	.loc 1 589 8 is_stmt 0
	beq	s2,zero,.L59
	j	.L57
.LVL78:
.L60:
.LBB23:
.LBB22:
	.loc 1 518 13 is_stmt 1
	.loc 1 518 31 is_stmt 0
	lw	a5,8(s0)
	.loc 1 518 15
	li	a4,30
	.loc 1 518 31
	addi	a5,a5,-1
.L73:
	.loc 1 521 15
	bleu	a5,a4,.L50
	j	.L57
.L61:
	.loc 1 521 13 is_stmt 1
	.loc 1 521 31 is_stmt 0
	lw	a5,8(s0)
	.loc 1 521 15
	li	a4,29
	.loc 1 521 31
	addi	a5,a5,-1
	j	.L73
.LVL79:
.L64:
	.cfi_def_cfa_offset 0
	.cfi_restore 1
	.cfi_restore 8
	.cfi_restore 9
	.cfi_restore 18
	.cfi_restore 19
.LBE22:
.LBE23:
.LBE19:
.LBE18:
	.loc 1 610 15
	li	a0,-8192
.LVL80:
	addi	a0,a0,-1120
	.loc 1 630 1
	ret
	.cfi_endproc
.LFE23:
	.size	mbedtls_x509_get_time, .-mbedtls_x509_get_time
	.section	.text.mbedtls_x509_get_sig,"ax",@progbits
	.align	1
	.globl	mbedtls_x509_get_sig
	.type	mbedtls_x509_get_sig, @function
mbedtls_x509_get_sig:
.LFB24:
	.loc 1 633 1 is_stmt 1
	.cfi_startproc
.LVL81:
	.loc 1 634 5
	.loc 1 635 5
	.loc 1 636 5
	.loc 1 638 5
	.loc 1 638 17 is_stmt 0
	lw	a5,0(a0)
	.loc 1 638 15
	sub	a4,a1,a5
	.loc 1 638 7
	ble	a4,zero,.L77
	.loc 1 633 1
	addi	sp,sp,-32
	.cfi_def_cfa_offset 32
	sw	s0,24(sp)
	sw	s1,20(sp)
	sw	ra,28(sp)
	sw	s2,16(sp)
	.cfi_offset 8, -8
	.cfi_offset 9, -12
	.cfi_offset 1, -4
	.cfi_offset 18, -16
	mv	s1,a2
	.loc 1 642 5 is_stmt 1
	.loc 1 644 17 is_stmt 0
	addi	a2,sp,12
.LVL82:
	mv	s0,a0
	.loc 1 642 16
	lbu	s2,0(a5)
.LVL83:
	.loc 1 644 5 is_stmt 1
	.loc 1 644 17 is_stmt 0
	call	mbedtls_asn1_get_bitstring_null
.LVL84:
	.loc 1 644 7
	beq	a0,zero,.L76
	.loc 1 645 9 is_stmt 1
	.loc 1 645 25 is_stmt 0
	li	a5,-8192
	addi	a5,a5,-1152
	add	a0,a0,a5
.LVL85:
.L74:
	.loc 1 654 1
	lw	ra,28(sp)
	.cfi_remember_state
	.cfi_restore 1
	lw	s0,24(sp)
	.cfi_restore 8
.LVL86:
	lw	s1,20(sp)
	.cfi_restore 9
.LVL87:
	lw	s2,16(sp)
	.cfi_restore 18
.LVL88:
	addi	sp,sp,32
	.cfi_def_cfa_offset 0
	jr	ra
.LVL89:
.L76:
	.cfi_restore_state
	.loc 1 647 5 is_stmt 1
	.loc 1 648 14 is_stmt 0
	lw	a4,12(sp)
	.loc 1 642 14
	sw	s2,0(s1)
	.loc 1 648 5 is_stmt 1
	.loc 1 648 14 is_stmt 0
	sw	a4,4(s1)
	.loc 1 649 5 is_stmt 1
	.loc 1 649 14 is_stmt 0
	lw	a5,0(s0)
	.loc 1 649 12
	sw	a5,8(s1)
	.loc 1 651 5 is_stmt 1
	.loc 1 651 8 is_stmt 0
	add	a5,a5,a4
	sw	a5,0(s0)
	.loc 1 653 5 is_stmt 1
	.loc 1 653 11 is_stmt 0
	j	.L74
.LVL90:
.L77:
	.cfi_def_cfa_offset 0
	.cfi_restore 1
	.cfi_restore 8
	.cfi_restore 9
	.cfi_restore 18
	.loc 1 639 15
	li	a0,-8192
.LVL91:
	addi	a0,a0,-1248
	.loc 1 654 1
	ret
	.cfi_endproc
.LFE24:
	.size	mbedtls_x509_get_sig, .-mbedtls_x509_get_sig
	.section	.text.mbedtls_x509_get_sig_alg,"ax",@progbits
	.align	1
	.globl	mbedtls_x509_get_sig_alg
	.type	mbedtls_x509_get_sig_alg, @function
mbedtls_x509_get_sig_alg:
.LFB25:
	.loc 1 662 1 is_stmt 1
	.cfi_startproc
.LVL92:
	.loc 1 664 5
	.loc 1 667 5
	.loc 1 667 7 is_stmt 0
	lw	a5,0(a4)
	bne	a5,zero,.L86
	.loc 1 662 1
	addi	sp,sp,-16
	.cfi_def_cfa_offset 16
	sw	s0,8(sp)
	.cfi_offset 8, -8
	mv	s0,a1
	mv	a1,a2
.LVL93:
	mv	a2,a3
.LVL94:
	.loc 1 703 5 is_stmt 1
	.loc 1 662 1 is_stmt 0
	sw	ra,12(sp)
	.cfi_offset 1, -4
	.loc 1 703 17
	call	mbedtls_oid_get_sig_alg
.LVL95:
	.loc 1 703 7
	beq	a0,zero,.L84
	.loc 1 704 9 is_stmt 1
	.loc 1 704 25 is_stmt 0
	li	a5,-8192
	addi	a5,a5,-1536
	add	a0,a0,a5
.LVL96:
.L82:
	.loc 1 739 1
	lw	ra,12(sp)
	.cfi_remember_state
	.cfi_restore 1
	lw	s0,8(sp)
	.cfi_restore 8
.LVL97:
	addi	sp,sp,16
	.cfi_def_cfa_offset 0
	jr	ra
.LVL98:
.L84:
	.cfi_restore_state
	.loc 1 733 9 is_stmt 1
	.loc 1 733 25 is_stmt 0
	lw	a5,0(s0)
	.loc 1 733 11
	li	a4,5
	beq	a5,a4,.L85
	.loc 1 733 39 discriminator 1
	bne	a5,zero,.L88
.L85:
	.loc 1 733 65 discriminator 3
	lw	a5,4(s0)
	beq	a5,zero,.L82
.L88:
	.loc 1 735 15
	li	a0,-8192
.LVL99:
	addi	a0,a0,-768
	j	.L82
.LVL100:
.L86:
	.cfi_def_cfa_offset 0
	.cfi_restore 1
	.cfi_restore 8
	.loc 1 668 15
	li	a0,-8192
.LVL101:
	addi	a0,a0,-2048
	.loc 1 739 1
	ret
	.cfi_endproc
.LFE25:
	.size	mbedtls_x509_get_sig_alg, .-mbedtls_x509_get_sig_alg
	.section	.text.mbedtls_x509_get_ext,"ax",@progbits
	.align	1
	.globl	mbedtls_x509_get_ext
	.type	mbedtls_x509_get_ext, @function
mbedtls_x509_get_ext:
.LFB26:
	.loc 1 747 1 is_stmt 1
	.cfi_startproc
.LVL102:
	.loc 1 748 5
	.loc 1 749 5
	.loc 1 751 5
	.loc 1 751 9 is_stmt 0
	lw	a5,0(a0)
	.loc 1 751 7
	bne	a5,a1,.L94
	.loc 1 752 15
	li	a0,0
.LVL103:
	.loc 1 780 1
	ret
.LVL104:
.L94:
	.loc 1 747 1
	addi	sp,sp,-32
	.cfi_def_cfa_offset 32
	sw	s0,24(sp)
	sw	s1,20(sp)
	sw	ra,28(sp)
	.cfi_offset 8, -8
	.cfi_offset 9, -12
	.cfi_offset 1, -4
	.loc 1 754 16
	lbu	a5,0(a5)
	mv	s1,a2
	.loc 1 754 5 is_stmt 1
	.loc 1 756 17 is_stmt 0
	ori	a3,a3,160
.LVL105:
	.loc 1 754 16
	sw	a5,0(a2)
	.loc 1 756 5 is_stmt 1
	.loc 1 756 17 is_stmt 0
	addi	a2,a2,4
.LVL106:
	mv	s0,a0
	call	mbedtls_asn1_get_tag
.LVL107:
	.loc 1 756 7
	bne	a0,zero,.L93
	.loc 1 760 5 is_stmt 1
	.loc 1 760 14 is_stmt 0
	lw	a5,0(s0)
	.loc 1 771 17
	li	a3,48
	addi	a2,sp,12
	.loc 1 760 12
	sw	a5,8(s1)
	.loc 1 761 5 is_stmt 1
	.loc 1 761 9 is_stmt 0
	lw	s1,4(s1)
.LVL108:
	.loc 1 771 17
	mv	a0,s0
.LVL109:
	.loc 1 761 9
	add	s1,a5,s1
.LVL110:
	.loc 1 771 5 is_stmt 1
	.loc 1 771 17 is_stmt 0
	mv	a1,s1
	call	mbedtls_asn1_get_tag
.LVL111:
	.loc 1 771 7
	beq	a0,zero,.L96
	.loc 1 773 9 is_stmt 1
	.loc 1 773 25 is_stmt 0
	li	a5,-8192
	addi	a5,a5,-1280
	add	a0,a0,a5
.LVL112:
.L93:
	.loc 1 780 1
	lw	ra,28(sp)
	.cfi_remember_state
	.cfi_restore 1
	lw	s0,24(sp)
	.cfi_restore 8
.LVL113:
	lw	s1,20(sp)
	.cfi_restore 9
	addi	sp,sp,32
	.cfi_def_cfa_offset 0
	jr	ra
.LVL114:
.L96:
	.cfi_restore_state
	.loc 1 775 5 is_stmt 1
	.loc 1 775 19 is_stmt 0
	lw	a5,0(s0)
	lw	a4,12(sp)
	.loc 1 752 15
	li	a0,0
.LVL115:
	.loc 1 775 19
	add	a5,a5,a4
	.loc 1 775 7
	beq	s1,a5,.L93
	.loc 1 776 15
	li	a0,-8192
	addi	a0,a0,-1382
	j	.L93
	.cfi_endproc
.LFE26:
	.size	mbedtls_x509_get_ext, .-mbedtls_x509_get_ext
	.section	.text.mbedtls_x509_dn_gets,"ax",@progbits
	.align	1
	.globl	mbedtls_x509_dn_gets
	.type	mbedtls_x509_dn_gets, @function
mbedtls_x509_dn_gets:
.LFB27:
	.loc 1 788 1 is_stmt 1
	.cfi_startproc
.LVL116:
	.loc 1 789 5
	.loc 1 790 5
	.loc 1 791 5
	.loc 1 792 5
	.loc 1 793 5
	.loc 1 788 1 is_stmt 0
	addi	sp,sp,-320
	.cfi_def_cfa_offset 320
	sw	s1,308(sp)
	sw	s3,300(sp)
	sw	s6,288(sp)
	.cfi_offset 9, -12
	.cfi_offset 19, -20
	.cfi_offset 22, -32
	mv	s3,a1
	mv	s6,a2
	mv	s1,a0
	.loc 1 796 5
	li	a2,256
.LVL117:
	li	a1,0
.LVL118:
	addi	a0,sp,16
.LVL119:
	.loc 1 788 1
	sw	s0,312(sp)
	sw	s2,304(sp)
	sw	s4,296(sp)
	sw	s5,292(sp)
	sw	s7,284(sp)
	sw	s8,280(sp)
	sw	s9,276(sp)
	sw	ra,316(sp)
	.cfi_offset 8, -8
	.cfi_offset 18, -16
	.cfi_offset 20, -24
	.cfi_offset 21, -28
	.cfi_offset 23, -36
	.cfi_offset 24, -40
	.cfi_offset 25, -44
	.cfi_offset 1, -4
	.loc 1 793 17
	sw	zero,12(sp)
	.loc 1 794 5 is_stmt 1
	.loc 1 796 5
	.loc 1 812 19 is_stmt 0
	lui	s4,%hi(.LC0)
	.loc 1 796 5
	call	memset
.LVL120:
	.loc 1 798 5 is_stmt 1
	.loc 1 799 5
	.loc 1 800 5
	.loc 1 802 5
	.loc 1 812 19 is_stmt 0
	lui	s5,%hi(.LC1)
	.loc 1 798 10
	mv	s2,s6
	.loc 1 800 7
	mv	s0,s3
	.loc 1 791 22
	li	a5,0
	.loc 1 835 15
	lui	s7,%hi(.LC4)
	.loc 1 821 19
	lui	s8,%hi(.LC3)
	.loc 1 819 19
	lui	s9,%hi(.LC2)
	.loc 1 812 19
	addi	s4,s4,%lo(.LC0)
	addi	s5,s5,%lo(.LC1)
.LVL121:
.L102:
	.loc 1 802 10
	bne	s2,zero,.L116
	.loc 1 842 5 is_stmt 1
	.loc 1 842 26 is_stmt 0
	sub	a0,s3,s0
	.loc 1 842 13
	j	.L101
.L116:
	.loc 1 804 9 is_stmt 1
	.loc 1 804 11 is_stmt 0
	lw	a4,8(s2)
	bne	a4,zero,.L103
.LVL122:
.L121:
	.loc 1 839 9 is_stmt 1 discriminator 4
	.loc 1 839 14 is_stmt 0 discriminator 4
	lw	s2,24(s2)
.LVL123:
	j	.L102
.L103:
	.loc 1 810 9 is_stmt 1
	.loc 1 810 11 is_stmt 0
	beq	s2,s6,.L105
	.loc 1 812 13 is_stmt 1
	.loc 1 812 19 is_stmt 0
	mv	a2,s4
	bne	a5,zero,.L106
	mv	a2,s5
.L106:
	.loc 1 812 19 discriminator 4
	mv	a1,s0
	mv	a0,s1
	call	snprintf
.LVL124:
	.loc 1 813 13 is_stmt 1 discriminator 4
	.loc 1 813 18 discriminator 4
	.loc 1 813 20 is_stmt 0 discriminator 4
	bge	a0,zero,.L107
.L109:
	.loc 1 813 59
	li	a0,-12288
.LVL125:
	addi	a0,a0,1664
.L101:
	.loc 1 843 1
	lw	ra,316(sp)
	.cfi_remember_state
	.cfi_restore 1
	lw	s0,312(sp)
	.cfi_restore 8
.LVL126:
	lw	s1,308(sp)
	.cfi_restore 9
.LVL127:
	lw	s2,304(sp)
	.cfi_restore 18
.LVL128:
	lw	s3,300(sp)
	.cfi_restore 19
.LVL129:
	lw	s4,296(sp)
	.cfi_restore 20
	lw	s5,292(sp)
	.cfi_restore 21
	lw	s6,288(sp)
	.cfi_restore 22
.LVL130:
	lw	s7,284(sp)
	.cfi_restore 23
	lw	s8,280(sp)
	.cfi_restore 24
	lw	s9,276(sp)
	.cfi_restore 25
	addi	sp,sp,320
	.cfi_def_cfa_offset 0
	jr	ra
.LVL131:
.L107:
	.cfi_restore_state
	.loc 1 813 30 discriminator 2
	bgeu	a0,s0,.L109
	.loc 1 813 72 is_stmt 1 discriminator 4
	.loc 1 813 74 is_stmt 0 discriminator 4
	sub	s0,s0,a0
.LVL132:
	.loc 1 813 91 is_stmt 1 discriminator 4
	.loc 1 813 93 is_stmt 0 discriminator 4
	add	s1,s1,a0
.LVL133:
.L105:
	.loc 1 816 9 is_stmt 1
	.loc 1 816 15 is_stmt 0
	addi	a1,sp,12
	mv	a0,s2
	call	mbedtls_oid_get_attr_short_name
.LVL134:
	.loc 1 818 9 is_stmt 1
	.loc 1 818 11 is_stmt 0
	bne	a0,zero,.L110
	.loc 1 819 13 is_stmt 1
	.loc 1 819 19 is_stmt 0
	lw	a3,12(sp)
	addi	a2,s9,%lo(.LC2)
	mv	a1,s0
	mv	a0,s1
.LVL135:
	call	snprintf
.LVL136:
.L111:
	.loc 1 822 9 is_stmt 1
	.loc 1 822 14
	.loc 1 822 16 is_stmt 0
	blt	a0,zero,.L109
	.loc 1 822 26 discriminator 2
	bgeu	a0,s0,.L109
	.loc 1 822 68 is_stmt 1 discriminator 4
	.loc 1 822 70 is_stmt 0 discriminator 4
	sub	s0,s0,a0
.LVL137:
	.loc 1 822 87 is_stmt 1 discriminator 4
	.loc 1 822 89 is_stmt 0 discriminator 4
	add	s1,s1,a0
.LVL138:
	.loc 1 824 9 is_stmt 1 discriminator 4
	.loc 1 824 16 is_stmt 0 discriminator 4
	li	a5,0
	.loc 1 826 15 discriminator 4
	li	a2,255
	.loc 1 830 15 discriminator 4
	li	a1,31
	.loc 1 830 24 discriminator 4
	li	a0,127
.LVL139:
	.loc 1 830 36 discriminator 4
	li	a6,30
.LVL140:
.L112:
	.loc 1 824 9 discriminator 1
	lw	a4,16(s2)
	bgtu	a4,a5,.L115
.L113:
	.loc 1 834 9 is_stmt 1
	.loc 1 834 14 is_stmt 0
	addi	a4,sp,272
	add	a5,a4,a5
.LVL141:
	.loc 1 835 15
	addi	a3,sp,16
	addi	a2,s7,%lo(.LC4)
	mv	a1,s0
	mv	a0,s1
	.loc 1 834 14
	sb	zero,-256(a5)
	.loc 1 835 9 is_stmt 1
	.loc 1 835 15 is_stmt 0
	call	snprintf
.LVL142:
	.loc 1 836 9 is_stmt 1
	.loc 1 836 14
	.loc 1 836 16 is_stmt 0
	blt	a0,zero,.L109
	.loc 1 836 26 discriminator 2
	bgeu	a0,s0,.L109
	.loc 1 836 68 is_stmt 1 discriminator 4
	.loc 1 836 70 is_stmt 0 discriminator 4
	sub	s0,s0,a0
.LVL143:
	.loc 1 836 87 is_stmt 1 discriminator 4
	.loc 1 836 89 is_stmt 0 discriminator 4
	add	s1,s1,a0
.LVL144:
	.loc 1 838 9 is_stmt 1 discriminator 4
	.loc 1 838 15 is_stmt 0 discriminator 4
	lbu	a5,28(s2)
	j	.L121
.L110:
	.loc 1 821 13 is_stmt 1
	.loc 1 821 19 is_stmt 0
	addi	a2,s8,%lo(.LC3)
	mv	a1,s0
	mv	a0,s1
.LVL145:
	call	snprintf
.LVL146:
	j	.L111
.LVL147:
.L115:
	.loc 1 826 13 is_stmt 1
	.loc 1 826 15 is_stmt 0
	beq	a5,a2,.L113
	.loc 1 829 13 is_stmt 1
	.loc 1 829 15 is_stmt 0
	lw	a4,20(s2)
	add	a4,a4,a5
	lbu	a4,0(a4)
.LVL148:
	.loc 1 830 13 is_stmt 1
	.loc 1 830 15 is_stmt 0
	bleu	a4,a1,.L119
	.loc 1 830 24 discriminator 1
	beq	a4,a0,.L119
	.loc 1 830 49 discriminator 2
	addi	a3,a4,127
	.loc 1 830 36 discriminator 2
	andi	a3,a3,0xff
	bgtu	a3,a6,.L114
.L119:
	.loc 1 831 23
	li	a4,63
.LVL149:
.L114:
	addi	a3,sp,16
	add	a3,a3,a5
	sb	a4,0(a3)
.LVL150:
	.loc 1 824 41 discriminator 2
	addi	a5,a5,1
.LVL151:
	j	.L112
	.cfi_endproc
.LFE27:
	.size	mbedtls_x509_dn_gets, .-mbedtls_x509_dn_gets
	.section	.text.mbedtls_x509_serial_gets,"ax",@progbits
	.align	1
	.globl	mbedtls_x509_serial_gets
	.type	mbedtls_x509_serial_gets, @function
mbedtls_x509_serial_gets:
.LFB28:
	.loc 1 851 1 is_stmt 1
	.cfi_startproc
.LVL152:
	.loc 1 852 5
	.loc 1 853 5
	.loc 1 854 5
	.loc 1 856 5
	.loc 1 857 5
	.loc 1 851 1 is_stmt 0
	addi	sp,sp,-48
	.cfi_def_cfa_offset 48
	sw	s1,36(sp)
	sw	s4,24(sp)
	sw	s5,20(sp)
	sw	ra,44(sp)
	sw	s0,40(sp)
	sw	s2,32(sp)
	sw	s3,28(sp)
	sw	s6,16(sp)
	sw	s7,12(sp)
	sw	s8,8(sp)
	sw	s9,4(sp)
	sw	s10,0(sp)
	.cfi_offset 9, -12
	.cfi_offset 20, -24
	.cfi_offset 21, -28
	.cfi_offset 1, -4
	.cfi_offset 8, -8
	.cfi_offset 18, -16
	.cfi_offset 19, -20
	.cfi_offset 22, -32
	.cfi_offset 23, -36
	.cfi_offset 24, -40
	.cfi_offset 25, -44
	.cfi_offset 26, -48
	.loc 1 859 18
	lw	s3,4(a2)
	.loc 1 860 23
	li	a5,32
	.loc 1 851 1
	mv	s4,a0
	mv	s1,a1
.LVL153:
	.loc 1 859 5 is_stmt 1
	.loc 1 851 1 is_stmt 0
	mv	s5,a2
	.loc 1 860 23
	bleu	s3,a5,.L123
	li	s3,28
.L123:
.LVL154:
	.loc 1 862 5 is_stmt 1
	.loc 1 867 15 is_stmt 0
	lui	s6,%hi(.LC5)
	lui	s7,%hi(.LC6)
	.loc 1 857 7
	mv	s0,s1
	.loc 1 862 12
	li	s2,0
	.loc 1 868 40
	addi	s8,s3,-1
	.loc 1 867 15
	lui	s9,%hi(.LC7)
	addi	s6,s6,%lo(.LC5)
	addi	s7,s7,%lo(.LC6)
	.loc 1 864 20
	li	s10,1
.LVL155:
.L124:
	.loc 1 862 5 discriminator 1
	bne	s2,s3,.L131
	.loc 1 872 5 is_stmt 1
	.loc 1 872 7 is_stmt 0
	lw	a5,4(s5)
	beq	a5,s2,.L132
	.loc 1 874 9 is_stmt 1
	.loc 1 874 15 is_stmt 0
	lui	a2,%hi(.LC8)
	addi	a2,a2,%lo(.LC8)
	mv	a1,s0
	mv	a0,s4
	call	snprintf
.LVL156:
	.loc 1 875 9 is_stmt 1
	.loc 1 875 14
	.loc 1 875 16 is_stmt 0
	blt	a0,zero,.L130
	.loc 1 875 26 discriminator 2
	bgeu	a0,s0,.L130
	.loc 1 875 68 is_stmt 1 discriminator 4
	.loc 1 875 70 is_stmt 0 discriminator 4
	sub	s0,s0,a0
.LVL157:
	.loc 1 875 87 is_stmt 1 discriminator 4
.L132:
	.loc 1 878 5
	.loc 1 878 26 is_stmt 0
	sub	a0,s1,s0
	.loc 1 878 13
	j	.L122
.LVL158:
.L131:
	.loc 1 864 9 is_stmt 1
	lw	a5,8(s5)
	.loc 1 864 11 is_stmt 0
	bne	s2,zero,.L125
.LVL159:
	.loc 1 864 20 discriminator 1
	beq	s3,s10,.L125
	.loc 1 864 30 discriminator 2
	lbu	a4,0(a5)
	beq	a4,zero,.L126
.LVL160:
.L125:
	.loc 1 867 9 is_stmt 1
	.loc 1 868 26 is_stmt 0
	add	a5,a5,s2
	.loc 1 867 15
	lbu	a3,0(a5)
	mv	a4,s6
	bgtu	s8,s2,.L127
	mv	a4,s7
.L127:
	.loc 1 867 15 discriminator 4
	addi	a2,s9,%lo(.LC7)
	mv	a1,s0
	mv	a0,s4
	call	snprintf
.LVL161:
	.loc 1 869 9 is_stmt 1 discriminator 4
	.loc 1 869 14 discriminator 4
	.loc 1 869 16 is_stmt 0 discriminator 4
	bge	a0,zero,.L128
.L130:
	.loc 1 869 55
	li	a0,-12288
.LVL162:
	addi	a0,a0,1664
.LVL163:
.L122:
	.loc 1 879 1
	lw	ra,44(sp)
	.cfi_remember_state
	.cfi_restore 1
	lw	s0,40(sp)
	.cfi_restore 8
.LVL164:
	lw	s1,36(sp)
	.cfi_restore 9
.LVL165:
	lw	s2,32(sp)
	.cfi_restore 18
	lw	s3,28(sp)
	.cfi_restore 19
.LVL166:
	lw	s4,24(sp)
	.cfi_restore 20
	lw	s5,20(sp)
	.cfi_restore 21
.LVL167:
	lw	s6,16(sp)
	.cfi_restore 22
	lw	s7,12(sp)
	.cfi_restore 23
	lw	s8,8(sp)
	.cfi_restore 24
.LVL168:
	lw	s9,4(sp)
	.cfi_restore 25
	lw	s10,0(sp)
	.cfi_restore 26
	addi	sp,sp,48
	.cfi_def_cfa_offset 0
	jr	ra
.LVL169:
.L128:
	.cfi_restore_state
	.loc 1 869 26 discriminator 2
	bgeu	a0,s0,.L130
	.loc 1 869 68 is_stmt 1 discriminator 4
	.loc 1 869 70 is_stmt 0 discriminator 4
	sub	s0,s0,a0
.LVL170:
	.loc 1 869 87 is_stmt 1 discriminator 4
	.loc 1 869 89 is_stmt 0 discriminator 4
	add	s4,s4,a0
.LVL171:
.L126:
	.loc 1 862 26 discriminator 2
	addi	s2,s2,1
.LVL172:
	j	.L124
	.cfi_endproc
.LFE28:
	.size	mbedtls_x509_serial_gets, .-mbedtls_x509_serial_gets
	.section	.text.mbedtls_x509_sig_alg_gets,"ax",@progbits
	.align	1
	.globl	mbedtls_x509_sig_alg_gets
	.type	mbedtls_x509_sig_alg_gets, @function
mbedtls_x509_sig_alg_gets:
.LFB29:
	.loc 1 888 1 is_stmt 1
	.cfi_startproc
.LVL173:
	.loc 1 889 5
	.loc 1 890 5
	.loc 1 888 1 is_stmt 0
	addi	sp,sp,-32
	.cfi_def_cfa_offset 32
	sw	s0,24(sp)
	sw	s1,20(sp)
	.cfi_offset 8, -8
	.cfi_offset 9, -12
	mv	s0,a1
	mv	s1,a0
.LVL174:
	.loc 1 891 5 is_stmt 1
	.loc 1 892 5
	.loc 1 894 11 is_stmt 0
	addi	a1,sp,12
.LVL175:
	mv	a0,a2
.LVL176:
	.loc 1 888 1
	sw	ra,28(sp)
	.cfi_offset 1, -4
	.loc 1 892 17
	sw	zero,12(sp)
	.loc 1 894 5 is_stmt 1
	.loc 1 894 11 is_stmt 0
	call	mbedtls_oid_get_sig_alg_desc
.LVL177:
	.loc 1 895 5 is_stmt 1
	.loc 1 895 7 is_stmt 0
	beq	a0,zero,.L140
	.loc 1 896 9 is_stmt 1
	.loc 1 896 15 is_stmt 0
	lui	a2,%hi(.LC9)
	addi	a2,a2,%lo(.LC9)
	mv	a1,s0
	mv	a0,s1
.LVL178:
	call	snprintf
.LVL179:
.L141:
	.loc 1 899 5 is_stmt 1
	.loc 1 899 10
	.loc 1 899 12 is_stmt 0
	blt	a0,zero,.L144
	.loc 1 899 22 discriminator 2
	bltu	a0,s0,.L139
.L144:
	.loc 1 899 51
	li	a0,-12288
.LVL180:
	addi	a0,a0,1664
.L139:
	.loc 1 925 1
	lw	ra,28(sp)
	.cfi_remember_state
	.cfi_restore 1
	lw	s0,24(sp)
	.cfi_restore 8
.LVL181:
	lw	s1,20(sp)
	.cfi_restore 9
.LVL182:
	addi	sp,sp,32
	.cfi_def_cfa_offset 0
	jr	ra
.LVL183:
.L140:
	.cfi_restore_state
	.loc 1 898 9 is_stmt 1
	.loc 1 898 15 is_stmt 0
	lw	a3,12(sp)
	lui	a2,%hi(.LC4)
	addi	a2,a2,%lo(.LC4)
	mv	a1,s0
	mv	a0,s1
.LVL184:
	call	snprintf
.LVL185:
	j	.L141
	.cfi_endproc
.LFE29:
	.size	mbedtls_x509_sig_alg_gets, .-mbedtls_x509_sig_alg_gets
	.section	.text.mbedtls_x509_key_size_helper,"ax",@progbits
	.align	1
	.globl	mbedtls_x509_key_size_helper
	.type	mbedtls_x509_key_size_helper, @function
mbedtls_x509_key_size_helper:
.LFB30:
	.loc 1 932 1 is_stmt 1
	.cfi_startproc
.LVL186:
	.loc 1 933 5
	.loc 1 934 5
	.loc 1 937 11 is_stmt 0
	mv	a3,a2
	lui	a2,%hi(.LC10)
.LVL187:
	.loc 1 932 1
	addi	sp,sp,-16
	.cfi_def_cfa_offset 16
	.loc 1 937 11
	addi	a2,a2,%lo(.LC10)
	.loc 1 932 1
	sw	s0,8(sp)
	sw	ra,12(sp)
	.cfi_offset 8, -8
	.cfi_offset 1, -4
	.loc 1 932 1
	mv	s0,a1
.LVL188:
	.loc 1 935 5 is_stmt 1
	.loc 1 937 5
	.loc 1 937 11 is_stmt 0
	call	snprintf
.LVL189:
	.loc 1 938 5 is_stmt 1
	.loc 1 938 10
	.loc 1 938 12 is_stmt 0
	blt	a0,zero,.L149
	.loc 1 938 22 discriminator 2
	bgeu	a0,s0,.L149
	.loc 1 940 11
	li	a0,0
.LVL190:
.L146:
	.loc 1 941 1
	lw	ra,12(sp)
	.cfi_remember_state
	.cfi_restore 1
	lw	s0,8(sp)
	.cfi_restore 8
.LVL191:
	addi	sp,sp,16
	.cfi_def_cfa_offset 0
	jr	ra
.LVL192:
.L149:
	.cfi_restore_state
	.loc 1 938 51
	li	a0,-12288
.LVL193:
	addi	a0,a0,1664
	j	.L146
	.cfi_endproc
.LFE30:
	.size	mbedtls_x509_key_size_helper, .-mbedtls_x509_key_size_helper
	.section	.text.mbedtls_x509_time_is_past,"ax",@progbits
	.align	1
	.globl	mbedtls_x509_time_is_past
	.type	mbedtls_x509_time_is_past, @function
mbedtls_x509_time_is_past:
.LFB31:
	.loc 1 1064 1 is_stmt 1
	.cfi_startproc
.LVL194:
	.loc 1 1065 5
	.loc 1 1066 5
	.loc 1 1067 1 is_stmt 0
	li	a0,0
.LVL195:
	ret
	.cfi_endproc
.LFE31:
	.size	mbedtls_x509_time_is_past, .-mbedtls_x509_time_is_past
	.section	.text.mbedtls_x509_time_is_future,"ax",@progbits
	.align	1
	.globl	mbedtls_x509_time_is_future
	.type	mbedtls_x509_time_is_future, @function
mbedtls_x509_time_is_future:
.LFB34:
	.cfi_startproc
	li	a0,0
	ret
	.cfi_endproc
.LFE34:
	.size	mbedtls_x509_time_is_future, .-mbedtls_x509_time_is_future
	.section	.rodata.mbedtls_x509_dn_gets.str1.4,"aMS",@progbits,1
	.align	2
.LC0:
	.string	" + "
.LC1:
	.string	", "
	.zero	1
.LC2:
	.string	"%s="
.LC3:
	.string	"??="
.LC4:
	.string	"%s"
	.section	.rodata.mbedtls_x509_key_size_helper.str1.4,"aMS",@progbits,1
	.align	2
.LC10:
	.string	"%s key size"
	.section	.rodata.mbedtls_x509_serial_gets.str1.4,"aMS",@progbits,1
	.align	2
.LC5:
	.string	":"
	.zero	2
.LC6:
	.string	""
	.zero	3
.LC7:
	.string	"%02X%s"
	.zero	1
.LC8:
	.string	"...."
	.section	.rodata.mbedtls_x509_sig_alg_gets.str1.4,"aMS",@progbits,1
	.align	2
.LC9:
	.string	"???"
	.text
.Letext0:
	.file 2 "/b-l/bl_iot_sdk/toolchain/riscv/Linux/lib/gcc/riscv64-unknown-elf/8.3.0/include/stddef.h"
	.file 3 "/b-l/bl_iot_sdk/toolchain/riscv/Linux/lib/gcc/riscv64-unknown-elf/8.3.0/include/stdint-gcc.h"
	.file 4 "/b-l/bl_iot_sdk/toolchain/riscv/Linux/riscv64-unknown-elf/include/sys/_types.h"
	.file 5 "/b-l/bl_iot_sdk/toolchain/riscv/Linux/riscv64-unknown-elf/include/sys/reent.h"
	.file 6 "/b-l/bl_iot_sdk/toolchain/riscv/Linux/riscv64-unknown-elf/include/sys/lock.h"
	.file 7 "/b-l/bl_iot_sdk/components/security/mbedtls/include/mbedtls/asn1.h"
	.file 8 "/b-l/bl_iot_sdk/components/security/mbedtls/include/mbedtls/md.h"
	.file 9 "/b-l/bl_iot_sdk/components/security/mbedtls/include/mbedtls/pk.h"
	.file 10 "/b-l/bl_iot_sdk/components/security/mbedtls/include/mbedtls/x509.h"
	.file 11 "/b-l/bl_iot_sdk/components/security/mbedtls/include/mbedtls/x509_crt.h"
	.file 12 "/b-l/bl_iot_sdk/toolchain/riscv/Linux/riscv64-unknown-elf/include/stdlib.h"
	.file 13 "/b-l/bl_iot_sdk/toolchain/riscv/Linux/riscv64-unknown-elf/include/time.h"
	.file 14 "/b-l/bl_iot_sdk/components/bl602/freertos_riscv_ram/portable/GCC/RISC-V/portmacro.h"
	.file 15 "/b-l/bl_iot_sdk/toolchain/riscv/Linux/riscv64-unknown-elf/include/stdio.h"
	.file 16 "/b-l/bl_iot_sdk/components/security/mbedtls/include/mbedtls/oid.h"
	.file 17 "/b-l/bl_iot_sdk/toolchain/riscv/Linux/riscv64-unknown-elf/include/string.h"
	.file 18 "/b-l/bl_iot_sdk/components/security/mbedtls/include/mbedtls/mycalloc.h"