	.file	"doit_light_driver.c"
	.option nopic
	.attribute arch, "rv32i2p0_m2p0_f2p0_c2p0"
	.attribute unaligned_access, 0
	.attribute stack_align, 16
	.text
.Ltext0:
	.cfi_sections	.debug_frame
	.section	.text.hw_test_timer_cb,"ax",@progbits
	.align	1
	.globl	hw_test_timer_cb
	.type	hw_test_timer_cb, @function
hw_test_timer_cb:
.LFB29:
	.file 1 "/b-l/DoHome_Light_rgbcw/DoHome_Light_rgbcw/components/product/driver/doit_light_driver.c"
	.loc 1 161 1
	.cfi_startproc
.LVL0:
	.loc 1 162 2
	lui	a5,%hi(task_sem)
	lw	a0,%lo(task_sem)(a5)
.LVL1:
	li	a3,0
	li	a2,0
	li	a1,0
	tail	xQueueGenericSend
.LVL2:
	.cfi_endproc
.LFE29:
	.size	hw_test_timer_cb, .-hw_test_timer_cb
	.section	.text.hw_timer_disable,"ax",@progbits
	.align	1
	.type	hw_timer_disable, @function
hw_timer_disable:
.LFB32:
	.loc 1 190 39
	.cfi_startproc
	.loc 1 192 2
	.loc 1 192 6 is_stmt 0
	lui	a5,%hi(.LANCHOR0)
	lw	a0,%lo(.LANCHOR0)(a5)
	li	a4,100
	li	a3,0
	li	a2,0
	li	a1,3
	tail	xTimerGenericCommand
.LVL3:
	.cfi_endproc
.LFE32:
	.size	hw_timer_disable, .-hw_timer_disable
	.section	.text.hw_timer_arm,"ax",@progbits
	.align	1
	.type	hw_timer_arm, @function
hw_timer_arm:
.LFB31:
	.loc 1 179 46 is_stmt 1
	.cfi_startproc
.LVL4:
	.loc 1 181 2
	.loc 1 181 5 is_stmt 0
	lui	a5,%hi(.LANCHOR0)
	mv	a2,a0
	lw	a0,%lo(.LANCHOR0)(a5)
.LVL5:
	li	a4,1000
	li	a3,0
	li	a1,4
	tail	xTimerGenericCommand
.LVL6:
	.cfi_endproc
.LFE31:
	.size	hw_timer_arm, .-hw_timer_arm
	.section	.text.update_config_upload,"ax",@progbits
	.align	1
	.globl	update_config_upload
	.type	update_config_upload, @function
update_config_upload:
.LFB23:
	.loc 1 85 1 is_stmt 1
	.cfi_startproc
	.loc 1 86 2
	.loc 1 86 5 is_stmt 0
	lui	a5,%hi(.LANCHOR1)
	lw	a5,%lo(.LANCHOR1)(a5)
	.loc 1 86 4
	beq	a5,zero,.L10
	.loc 1 87 3 is_stmt 1
	.loc 1 85 1 is_stmt 0
	addi	sp,sp,-16
	.cfi_def_cfa_offset 16
	sw	ra,12(sp)
	.cfi_offset 1, -4
	.loc 1 87 3
	jalr	a5
.LVL7:
	.loc 1 89 2 is_stmt 1
	.loc 1 90 1 is_stmt 0
	lw	ra,12(sp)
	.cfi_restore 1
	li	a0,0
	addi	sp,sp,16
	.cfi_def_cfa_offset 0
	jr	ra
.L10:
	.loc 1 89 2 is_stmt 1
	.loc 1 90 1 is_stmt 0
	li	a0,0
	ret
	.cfi_endproc
.LFE23:
	.size	update_config_upload, .-update_config_upload
	.section	.text.delay_update_config_upload,"ax",@progbits
	.align	1
	.globl	delay_update_config_upload
	.type	delay_update_config_upload, @function
delay_update_config_upload:
.LFB24:
	.loc 1 96 1 is_stmt 1
	.cfi_startproc
	.loc 1 97 2
	.loc 1 97 5 is_stmt 0
	lui	a5,%hi(.LANCHOR2)
	lw	a5,%lo(.LANCHOR2)(a5)
	.loc 1 97 4
	beq	a5,zero,.L19
	.loc 1 98 3 is_stmt 1
	.loc 1 96 1 is_stmt 0
	addi	sp,sp,-16
	.cfi_def_cfa_offset 16
	sw	ra,12(sp)
	.cfi_offset 1, -4
	.loc 1 98 3
	jalr	a5
.LVL8:
	.loc 1 100 2 is_stmt 1
	.loc 1 101 1 is_stmt 0
	lw	ra,12(sp)
	.cfi_restore 1
	li	a0,0
	addi	sp,sp,16
	.cfi_def_cfa_offset 0
	jr	ra
.L19:
	.loc 1 100 2 is_stmt 1
	.loc 1 101 1 is_stmt 0
	li	a0,0
	ret
	.cfi_endproc
.LFE24:
	.size	delay_update_config_upload, .-delay_update_config_upload
	.section	.text.get_brightness,"ax",@progbits
	.align	1
	.globl	get_brightness
	.type	get_brightness, @function
get_brightness:
.LFB25:
	.loc 1 107 1 is_stmt 1
	.cfi_startproc
.LVL9:
	.loc 1 108 2
	.loc 1 109 2
	.loc 1 110 2
	.loc 1 111 2
	.loc 1 112 2
	.loc 1 113 2
	.loc 1 114 2
	.loc 1 113 25 is_stmt 0
	bge	a2,a3,.L23
	mv	a2,a3
.LVL10:
.L23:
	bge	a2,a1,.L24
	mv	a2,a1
.L24:
	bge	a2,a0,.L25
	mv	a2,a0
.L25:
	li	a0,100
.LVL11:
	mul	a2,a2,a0
	.loc 1 115 1
	li	a0,255
	div	a0,a2,a0
	ret
	.cfi_endproc
.LFE25:
	.size	get_brightness, .-get_brightness
	.section	.text.get_led_cfg_mode,"ax",@progbits
	.align	1
	.globl	get_led_cfg_mode
	.type	get_led_cfg_mode, @function
get_led_cfg_mode:
.LFB27:
	.loc 1 133 1 is_stmt 1
	.cfi_startproc
	.loc 1 134 2
	.loc 1 135 1 is_stmt 0
	lui	a5,%hi(.LANCHOR3)
	lbu	a0,%lo(.LANCHOR3)(a5)
	ret
	.cfi_endproc
.LFE27:
	.size	get_led_cfg_mode, .-get_led_cfg_mode
	.section	.text.set_light_work_mode,"ax",@progbits
	.align	1
	.globl	set_light_work_mode
	.type	set_light_work_mode, @function
set_light_work_mode:
.LFB28:
	.loc 1 146 1 is_stmt 1
	.cfi_startproc
.LVL12:
	.loc 1 147 2
	.loc 1 146 1 is_stmt 0
	addi	sp,sp,-16
	.cfi_def_cfa_offset 16
	sw	s0,8(sp)
	.cfi_offset 8, -8
	mv	s0,a0
	.loc 1 147 2
	li	a0,0
.LVL13:
	.loc 1 146 1
	sw	ra,12(sp)
	.cfi_offset 1, -4
	.loc 1 147 2
	call	set_led_cfg_dohome_effect_cnt
.LVL14:
	.loc 1 148 2 is_stmt 1
	.loc 1 148 15 is_stmt 0
	lui	a5,%hi(.LANCHOR3)
	sb	s0,%lo(.LANCHOR3)(a5)
	.loc 1 150 2 is_stmt 1
	.loc 1 151 2
	.loc 1 153 1 is_stmt 0
	lw	s0,8(sp)
	.cfi_restore 8
	.loc 1 151 2
	lui	a5,%hi(task_sem)
	.loc 1 153 1
	lw	ra,12(sp)
	.cfi_restore 1
	.loc 1 151 2
	lw	a0,%lo(task_sem)(a5)
	li	a3,0
	.loc 1 153 1
	.loc 1 151 2
	li	a2,0
	li	a1,0
	.loc 1 153 1
	addi	sp,sp,16
	.cfi_def_cfa_offset 0
	.loc 1 151 2
	tail	xQueueGenericSend
.LVL15:
	.cfi_endproc
.LFE28:
	.size	set_light_work_mode, .-set_light_work_mode
	.section	.text.init_led_cfg_mode,"ax",@progbits
	.align	1
	.globl	init_led_cfg_mode
	.type	init_led_cfg_mode, @function
init_led_cfg_mode:
.LFB35:
	.loc 1 285 1 is_stmt 1
	.cfi_startproc
	.loc 1 288 2
	.loc 1 285 1 is_stmt 0
	addi	sp,sp,-16
	.cfi_def_cfa_offset 16
	.loc 1 288 13
	li	a2,3
	li	a1,0
	li	a0,1
	.loc 1 285 1
	sw	ra,12(sp)
	sw	s0,8(sp)
	sw	s1,4(sp)
	sw	s2,0(sp)
	.cfi_offset 1, -4
	.cfi_offset 8, -8
	.cfi_offset 9, -12
	.cfi_offset 18, -16
	.loc 1 288 13
	call	xQueueGenericCreate
.LVL16:
	.loc 1 288 11
	lui	s2,%hi(task_sem)
	sw	a0,%lo(task_sem)(s2)
	.loc 1 289 2 is_stmt 1
	.loc 1 289 17 is_stmt 0
	li	a2,3
	li	a1,0
	li	a0,1
	call	xQueueGenericCreate
.LVL17:
	.loc 1 289 15
	lui	s1,%hi(hanler_mutex)
	sw	a0,%lo(hanler_mutex)(s1)
	.loc 1 290 2 is_stmt 1
	.loc 1 290 14 is_stmt 0
	li	a2,3
	li	a1,0
	li	a0,1
	call	xQueueGenericCreate
.LVL18:
	.loc 1 290 12
	lui	s0,%hi(pwm_mutex)
	sw	a0,%lo(pwm_mutex)(s0)
	.loc 1 292 2 is_stmt 1
	lw	a0,%lo(task_sem)(s2)
	li	a3,0
	li	a2,0
	li	a1,0
	call	xQueueGenericSend
.LVL19:
	.loc 1 293 2
	lw	a0,%lo(hanler_mutex)(s1)
	li	a3,0
	li	a2,0
	li	a1,0
	call	xQueueGenericSend
.LVL20:
	.loc 1 294 2
	lw	a0,%lo(pwm_mutex)(s0)
	li	a3,0
	li	a2,0
	li	a1,0
	call	xQueueGenericSend
.LVL21:
	.loc 1 296 2
.LBB63:
.LBB64:
	.loc 1 170 2
	.loc 1 170 22 is_stmt 0
	lui	a4,%hi(hw_test_timer_cb)
	lui	a0,%hi(.LC1)
	addi	a4,a4,%lo(hw_test_timer_cb)
	li	a3,0
	li	a2,1
	li	a1,6
	addi	a0,a0,%lo(.LC1)
	call	xTimerCreate
.LVL22:
.LBE64:
.LBE63:
	.loc 1 299 1
	lw	s0,8(sp)
	.cfi_restore 8
.LBB67:
.LBB65:
	.loc 1 170 20
	lui	a5,%hi(.LANCHOR0)
.LBE65:
.LBE67:
	.loc 1 299 1
	lw	ra,12(sp)
	.cfi_restore 1
	lw	s1,4(sp)
	.cfi_restore 9
	lw	s2,0(sp)
	.cfi_restore 18
.LBB68:
.LBB66:
	.loc 1 170 20
	sw	a0,%lo(.LANCHOR0)(a5)
	.loc 1 171 2 is_stmt 1
	.loc 1 172 9
.LBE66:
.LBE68:
	.loc 1 298 2
	li	a2,8192
	lui	a1,%hi(.LC2)
	lui	a0,%hi(light_change_task)
	.loc 1 299 1 is_stmt 0
	.loc 1 298 2
	li	a5,0
	li	a4,3
	li	a3,0
	addi	a2,a2,-2048
	addi	a1,a1,%lo(.LC2)
	addi	a0,a0,%lo(light_change_task)
	.loc 1 299 1
	addi	sp,sp,16
	.cfi_def_cfa_offset 0
	.loc 1 298 2
	tail	xTaskCreate
.LVL23:
	.cfi_endproc
.LFE35:
	.size	init_led_cfg_mode, .-init_led_cfg_mode
	.section	.text.start_led_change,"ax",@progbits
	.align	1
	.globl	start_led_change
	.type	start_led_change, @function
start_led_change:
.LFB38:
	.loc 1 354 1 is_stmt 1
	.cfi_startproc
.LVL24:
	addi	sp,sp,-48
	.cfi_def_cfa_offset 48
	sw	s0,40(sp)
	sw	s1,36(sp)
	sw	s2,32(sp)
	sw	s5,20(sp)
	sw	s6,16(sp)
	sw	ra,44(sp)
	sw	s3,28(sp)
	sw	s4,24(sp)
	sw	s7,12(sp)
	.cfi_offset 8, -8
	.cfi_offset 9, -12
	.cfi_offset 18, -16
	.cfi_offset 21, -28
	.cfi_offset 22, -32
	.cfi_offset 1, -4
	.cfi_offset 19, -20
	.cfi_offset 20, -24
	.cfi_offset 23, -36
	.loc 1 356 16 is_stmt 0
	lui	s2,%hi(.LANCHOR4)
	.loc 1 354 1
	mv	s0,a0
	mv	s6,a1
	lh	s3,6(a0)
.LVL25:
	lh	s4,8(a0)
.LVL26:
	.loc 1 355 2 is_stmt 1
	.loc 1 355 35 is_stmt 0
	call	product_get_status
.LVL27:
	.loc 1 356 2 is_stmt 1
	.loc 1 356 16 is_stmt 0
	addi	a5,s2,%lo(.LANCHOR4)
	.loc 1 356 5
	lh	a4,4(a5)
	li	a5,8192
	addi	a5,a5,1807
	addi	s1,s2,%lo(.LANCHOR4)
	lui	s5,%hi(.LANCHOR5)
	bne	a4,a5,.L32
	.loc 1 357 14
	mv	a1,a0
	mv	s7,a0
	.loc 1 357 3 is_stmt 1
	.loc 1 357 14 is_stmt 0
	li	a2,12
	addi	a0,s5,%lo(.LANCHOR5)
.LVL28:
	call	memcpy
.LVL29:
	.loc 1 358 3 is_stmt 1
	.loc 1 358 14 is_stmt 0
	li	a2,12
	mv	a1,s7
	addi	a0,s2,%lo(.LANCHOR4)
	call	memcpy
.LVL30:
.L32:
	.loc 1 361 2 is_stmt 1
	.loc 1 362 2
	.loc 1 364 2
	.loc 1 365 2
	.loc 1 366 2
	.loc 1 369 2
	.loc 1 369 16 is_stmt 0
	addi	a5,s5,%lo(.LANCHOR5)
	.loc 1 369 5
	lh	a3,4(a5)
	lh	a4,4(s0)
	bne	a3,a4,.L33
	.loc 1 369 32 discriminator 1
	lh	a3,2(a5)
	lh	a4,2(s0)
	bne	a3,a4,.L33
	.loc 1 369 65 discriminator 2
	lh	a3,0(a5)
	lh	a4,0(s0)
	bne	a3,a4,.L33
	.loc 1 369 96 discriminator 3
	lh	a4,6(a5)
	bne	a4,s3,.L33
	.loc 1 369 129 discriminator 4
	lh	a5,8(a5)
	beq	a5,s4,.L31
.L33:
	.loc 1 378 2 is_stmt 1
	lui	s2,%hi(hanler_mutex)
	lw	a0,%lo(hanler_mutex)(s2)
	li	a1,4096
	addi	a1,a1,904
	call	xQueueSemaphoreTake
.LVL31:
	.loc 1 380 2
	.loc 1 380 18 is_stmt 0
	lui	a5,%hi(.LANCHOR6)
	.loc 1 381 13
	li	a2,12
	mv	a1,s0
	.loc 1 380 18
	li	s7,1
	.loc 1 381 13
	addi	a0,s5,%lo(.LANCHOR5)
	.loc 1 380 18
	sw	s7,%lo(.LANCHOR6)(a5)
	.loc 1 381 2 is_stmt 1
	.loc 1 381 13 is_stmt 0
	call	memcpy
.LVL32:
	.loc 1 382 2 is_stmt 1
	.loc 1 382 19 is_stmt 0
	lui	a5,%hi(.LANCHOR7)
	.loc 1 383 2
	li	a0,2
	.loc 1 382 19
	sw	zero,%lo(.LANCHOR7)(a5)
	.loc 1 383 2 is_stmt 1
	call	set_light_work_mode
.LVL33:
	.loc 1 385 2
	.loc 1 414 3 is_stmt 0
	mv	a0,s6
	.loc 1 385 5
	bne	s6,zero,.L51
.LVL34:
	.loc 1 386 3 is_stmt 1
	.loc 1 386 6 is_stmt 0
	lbu	a5,10(s0)
	bne	a5,s7,.L36
	.loc 1 387 4 is_stmt 1 discriminator 1
	.loc 1 387 22 is_stmt 0 discriminator 1
	or	a5,s4,s3
	.loc 1 388 5 discriminator 1
	li	a0,8
.LVL35:
	.loc 1 387 22 discriminator 1
	beq	a5,zero,.L51
.LBB76:
	.loc 1 391 5 is_stmt 1
.LVL36:
.LBB77:
.LBB78:
	.loc 1 122 2
	.loc 1 123 2
	.loc 1 124 2
	.loc 1 125 2
.LBE78:
.LBE77:
	.loc 1 392 5
	.loc 1 392 30 is_stmt 0
	lhu	a5,6(s1)
	lhu	a4,8(s1)
	or	a5,a5,a4
	bne	a5,zero,.L39
	.loc 1 391 15 discriminator 2
	lh	a4,2(s1)
.LBB81:
.LBB79:
	.loc 1 122 6 discriminator 2
	lh	a5,4(s1)
	bge	a5,a4,.L40
	mv	a5,a4
.L40:
.LBE79:
.LBE81:
	.loc 1 391 15 discriminator 2
	lh	a4,0(s1)
	bge	a4,zero,.L41
	li	a4,0
.L41:
.LBB82:
.LBB80:
	.loc 1 125 19 discriminator 2
	mv	a3,a5
	bge	a5,a4,.L42
	mv	a3,a4
.L42:
.LBE80:
.LBE82:
	.loc 1 392 56 discriminator 2
	beq	a3,zero,.L39
	.loc 1 393 6 is_stmt 1
.LVL37:
	.loc 1 394 6
	.loc 1 393 42 is_stmt 0
	mv	a3,s4
	bge	s4,s3,.L44
.LVL38:
	mv	a3,s3
.LVL39:
.L44:
	.loc 1 394 8
	slli	a3,a3,16
	srai	a3,a3,16
	li	a2,333
	.loc 1 395 7
	li	a0,16
	.loc 1 394 8
	bgt	a3,a2,.L51
	.loc 1 397 7 is_stmt 1
.LVL40:
.LBB83:
.LBB84:
	.loc 1 122 2
	.loc 1 123 2
	.loc 1 124 2
	.loc 1 125 2
.LBE84:
.LBE83:
	.loc 1 398 7
.LBB86:
.LBB85:
	.loc 1 124 6 is_stmt 0
	bge	a5,a4,.L46
	mv	a5,a4
.LVL41:
.L46:
.LBE85:
.LBE86:
	.loc 1 398 9
	li	a4,500
	.loc 1 401 8
	li	a0,10
	.loc 1 398 9
	ble	a5,a4,.L51
.L36:
	.loc 1 399 8 is_stmt 1
	li	a0,4
.L51:
.LBE76:
	.loc 1 414 3 is_stmt 0
	call	hw_timer_arm
.LVL42:
	.loc 1 418 2 is_stmt 1
	.loc 1 419 2
.LBB87:
.LBB88:
	.loc 1 202 2
	.loc 1 202 6 is_stmt 0
	lui	a5,%hi(.LANCHOR0)
	lw	s0,%lo(.LANCHOR0)(a5)
	call	xTaskGetTickCount
.LVL43:
	mv	a2,a0
	li	a3,0
	li	a1,1
	mv	a0,s0
	li	a4,100
	call	xTimerGenericCommand
.LVL44:
	.loc 1 203 3 is_stmt 1
.LBE88:
.LBE87:
	.loc 1 421 2
	.loc 1 422 1 is_stmt 0
	lw	s0,40(sp)
	.cfi_remember_state
	.cfi_restore 8
	.loc 1 421 2
	lw	a0,%lo(hanler_mutex)(s2)
	.loc 1 422 1
	lw	ra,44(sp)
	.cfi_restore 1
	lw	s1,36(sp)
	.cfi_restore 9
	lw	s2,32(sp)
	.cfi_restore 18
	lw	s3,28(sp)
	.cfi_restore 19
.LVL45:
	lw	s4,24(sp)
	.cfi_restore 20
.LVL46:
	lw	s5,20(sp)
	.cfi_restore 21
	lw	s6,16(sp)
	.cfi_restore 22
.LVL47:
	lw	s7,12(sp)
	.cfi_restore 23
	.loc 1 421 2
	li	a3,0
	.loc 1 422 1
	.loc 1 421 2
	li	a2,0
	li	a1,0
	.loc 1 422 1
	addi	sp,sp,48
	.cfi_def_cfa_offset 0
	.loc 1 421 2
	tail	xQueueGenericSend
.LVL48:
.L39:
	.cfi_restore_state
.LBB89:
	.loc 1 405 6 is_stmt 1
	li	a0,18
	j	.L51
.LVL49:
.L31:
.LBE89:
	.loc 1 422 1 is_stmt 0
	lw	ra,44(sp)
	.cfi_restore 1
	lw	s0,40(sp)
	.cfi_restore 8
	lw	s1,36(sp)
	.cfi_restore 9
	lw	s2,32(sp)
	.cfi_restore 18
	lw	s3,28(sp)
	.cfi_restore 19
.LVL50:
	lw	s4,24(sp)
	.cfi_restore 20
.LVL51:
	lw	s5,20(sp)
	.cfi_restore 21
	lw	s6,16(sp)
	.cfi_restore 22
.LVL52:
	lw	s7,12(sp)
	.cfi_restore 23
	addi	sp,sp,48
	.cfi_def_cfa_offset 0
	jr	ra
	.cfi_endproc
.LFE38:
	.size	start_led_change, .-start_led_change
	.section	.text.led_load_saved_color,"ax",@progbits
	.align	1
	.globl	led_load_saved_color
	.type	led_load_saved_color, @function
led_load_saved_color:
.LFB36:
	.loc 1 306 1 is_stmt 1
	.cfi_startproc
	.loc 1 307 2
	.loc 1 306 1 is_stmt 0
	addi	sp,sp,-32
	.cfi_def_cfa_offset 32
	sw	ra,28(sp)
	.cfi_offset 1, -4
	.loc 1 307 35
	call	product_get_status
.LVL53:
	.loc 1 314 18
	lui	a5,%hi(.LANCHOR4)
	addi	a5,a5,%lo(.LANCHOR4)
	.loc 1 310 27
	li	a4,1
	sb	a4,10(a0)
	.loc 1 307 35
	mv	a1,a0
.LVL54:
	.loc 1 309 2 is_stmt 1
	.loc 1 310 2
	.loc 1 312 2
	.loc 1 313 2
	.loc 1 314 2
	.loc 1 315 2
	.loc 1 316 2
	.loc 1 317 2
	.loc 1 314 18 is_stmt 0
	sw	zero,0(a5)
	.loc 1 312 17
	sw	zero,4(a5)
	.loc 1 318 2
	li	a2,12
	mv	a0,sp
.LVL55:
	.loc 1 316 20
	sh	zero,8(a5)
	.loc 1 317 16
	sb	a4,10(a5)
	.loc 1 318 2 is_stmt 1
	call	memcpy
.LVL56:
	mv	a0,sp
	li	a1,0
	call	start_led_change
.LVL57:
	.loc 1 319 1 is_stmt 0
	lw	ra,28(sp)
	.cfi_restore 1
	addi	sp,sp,32
	.cfi_def_cfa_offset 0
	jr	ra
	.cfi_endproc
.LFE36:
	.size	led_load_saved_color, .-led_load_saved_color
	.globl	__floatunsidf
	.globl	__floatsidf
	.globl	__divdf3
	.globl	__truncdfsf2
	.section	.text.cal_step,"ax",@progbits
	.align	1
	.globl	cal_step
	.type	cal_step, @function
cal_step:
.LFB40:
	.loc 1 438 1 is_stmt 1
	.cfi_startproc
	.loc 1 439 2
.LVL58:
	.loc 1 440 2
	.loc 1 441 2
	.loc 1 442 2
	.loc 1 443 2
	.loc 1 444 2
	.loc 1 447 2
	.loc 1 448 2
	.loc 1 449 2
	.loc 1 450 2
	.loc 1 451 2
	.loc 1 452 2
	.loc 1 453 2
	.loc 1 454 2
	.loc 1 455 2
	.loc 1 456 2
	.loc 1 458 2
	.loc 1 438 1 is_stmt 0
	addi	sp,sp,-48
	.cfi_def_cfa_offset 48
	.loc 1 458 25
	lui	a4,%hi(.LANCHOR5)
	.loc 1 458 42
	lui	a5,%hi(.LANCHOR4)
	.loc 1 438 1
	sw	s1,36(sp)
	sw	s2,32(sp)
	sw	s4,24(sp)
	sw	s5,20(sp)
	sw	s8,8(sp)
	sw	ra,44(sp)
	sw	s0,40(sp)
	sw	s3,28(sp)
	sw	s6,16(sp)
	sw	s7,12(sp)
	sw	s9,4(sp)
	sw	s10,0(sp)
	.cfi_offset 9, -12
	.cfi_offset 18, -16
	.cfi_offset 20, -24
	.cfi_offset 21, -28
	.cfi_offset 24, -40
	.cfi_offset 1, -4
	.cfi_offset 8, -8
	.cfi_offset 19, -20
	.cfi_offset 22, -32
	.cfi_offset 23, -36
	.cfi_offset 25, -44
	.cfi_offset 26, -48
	.loc 1 458 25
	addi	a4,a4,%lo(.LANCHOR5)
	.loc 1 458 42
	addi	a5,a5,%lo(.LANCHOR4)
	.loc 1 458 25
	lh	t1,4(a4)
	.loc 1 458 42
	lh	t3,4(a5)
	.loc 1 459 27
	lh	a6,2(a4)
	.loc 1 459 46
	lh	a7,2(a5)
	.loc 1 460 26
	lh	a1,0(a4)
	.loc 1 460 44
	lh	a0,0(a5)
	.loc 1 461 27
	lh	a3,6(a4)
	.loc 1 461 46
	lh	a2,6(a5)
	.loc 1 462 26
	lh	a4,8(a4)
	.loc 1 462 46
	lh	a5,8(a5)
	.loc 1 458 13
	sub	s2,t1,t3
.LVL59:
	.loc 1 459 2 is_stmt 1
	.loc 1 459 15 is_stmt 0
	sub	s1,a6,a7
.LVL60:
	.loc 1 460 2 is_stmt 1
	.loc 1 460 14 is_stmt 0
	sub	s5,a1,a0
.LVL61:
	.loc 1 461 2 is_stmt 1
	.loc 1 461 15 is_stmt 0
	sub	s8,a3,a2
.LVL62:
	.loc 1 462 2 is_stmt 1
	.loc 1 462 14 is_stmt 0
	sub	s4,a4,a5
.LVL63:
	.loc 1 463 2 is_stmt 1
.LBB90:
.LBB91:
	.loc 1 427 2
	.loc 1 427 5 is_stmt 0
	bge	s2,zero,.L55
	.loc 1 428 3 is_stmt 1
	.loc 1 428 12 is_stmt 0
	sub	s2,t3,t1
.LVL64:
.L55:
.LBE91:
.LBE90:
.LBB92:
.LBB93:
	.loc 1 427 2 is_stmt 1
	.loc 1 427 5 is_stmt 0
	bge	s1,zero,.L56
	.loc 1 428 3 is_stmt 1
	.loc 1 428 12 is_stmt 0
	sub	s1,a7,a6
.LVL65:
.L56:
.LBE93:
.LBE92:
.LBB94:
.LBB95:
	.loc 1 427 2 is_stmt 1
	.loc 1 427 5 is_stmt 0
	bge	s5,zero,.L57
	.loc 1 428 3 is_stmt 1
	.loc 1 428 12 is_stmt 0
	sub	s5,a0,a1
.LVL66:
.L57:
.LBE95:
.LBE94:
.LBB96:
.LBB97:
	.loc 1 427 2 is_stmt 1
	.loc 1 427 5 is_stmt 0
	bge	s8,zero,.L58
	.loc 1 428 3 is_stmt 1
	.loc 1 428 12 is_stmt 0
	sub	s8,a2,a3
.LVL67:
.L58:
.LBE97:
.LBE96:
.LBB98:
.LBB99:
	.loc 1 427 2 is_stmt 1
	.loc 1 427 5 is_stmt 0
	bge	s4,zero,.L59
	.loc 1 428 3 is_stmt 1
	.loc 1 428 12 is_stmt 0
	sub	s4,a5,a4
.LVL68:
.L59:
.LBE99:
.LBE98:
.LBB100:
.LBB101:
	.loc 1 122 2 is_stmt 1
	.loc 1 123 2
	.loc 1 124 2
	.loc 1 124 6 is_stmt 0
	mv	s3,s2
	bge	s2,s1,.L60
	mv	s3,s1
.L60:
	bge	s3,s5,.L61
	mv	s3,s5
.L61:
	bge	s3,s8,.L62
	mv	s3,s8
.L62:
.LVL69:
	.loc 1 125 2 is_stmt 1
	.loc 1 125 19 is_stmt 0
	mv	s0,s4
	bge	s4,s3,.L63
.LVL70:
	mv	s0,s3
.LVL71:
.L63:
.LBE101:
.LBE100:
	.loc 1 464 2 is_stmt 1
	.loc 1 465 10 is_stmt 0
	li	a0,0
.LVL72:
	.loc 1 464 5
	beq	s0,zero,.L54
	.loc 1 468 2 is_stmt 1
	.loc 1 468 22 is_stmt 0
	lui	s9,%hi(.LANCHOR6)
	addi	s9,s9,%lo(.LANCHOR6)
	.loc 1 468 5
	lw	a4,0(s9)
.LVL73:
	li	a5,1
.LVL74:
	bne	a4,a5,.L65
	.loc 1 469 3 is_stmt 1
.LVL75:
	.loc 1 427 2
	.loc 1 469 35 is_stmt 0
	mv	a0,s0
	call	__floatunsidf
.LVL76:
	mv	s6,a0
	.loc 1 469 29
	mv	a0,s2
	.loc 1 469 35
	mv	s7,a1
	.loc 1 469 29
	call	__floatsidf
.LVL77:
	.loc 1 469 35
	mv	a2,s6
	mv	a3,s7
	call	__divdf3
.LVL78:
	call	__truncdfsf2
.LVL79:
	.loc 1 469 11
	lui	s10,%hi(.LANCHOR8)
	.loc 1 469 35
	fsw	fa0,%lo(.LANCHOR8)(s10)
	.loc 1 470 3 is_stmt 1
.LVL80:
	.loc 1 427 2
	.loc 1 470 31 is_stmt 0
	mv	a0,s1
	call	__floatsidf
.LVL81:
	.loc 1 470 37
	mv	a2,s6
	mv	a3,s7
	call	__divdf3
.LVL82:
	call	__truncdfsf2
.LVL83:
	.loc 1 470 11
	lui	s10,%hi(.LANCHOR9)
	.loc 1 470 37
	fsw	fa0,%lo(.LANCHOR9)(s10)
	.loc 1 471 3 is_stmt 1
.LVL84:
	.loc 1 427 2
	.loc 1 471 30 is_stmt 0
	mv	a0,s5
	call	__floatsidf
.LVL85:
	.loc 1 471 36
	mv	a2,s6
	mv	a3,s7
	call	__divdf3
.LVL86:
	call	__truncdfsf2
.LVL87:
	.loc 1 471 11
	lui	s10,%hi(.LANCHOR10)
	.loc 1 471 36
	fsw	fa0,%lo(.LANCHOR10)(s10)
	.loc 1 472 3 is_stmt 1
.LVL88:
	.loc 1 427 2
	.loc 1 472 31 is_stmt 0
	mv	a0,s8
	call	__floatsidf
.LVL89:
	.loc 1 472 37
	mv	a2,s6
	mv	a3,s7
	call	__divdf3
.LVL90:
	call	__truncdfsf2
.LVL91:
	.loc 1 472 11
	lui	s10,%hi(.LANCHOR11)
	.loc 1 472 37
	fsw	fa0,%lo(.LANCHOR11)(s10)
	.loc 1 473 3 is_stmt 1
.LVL92:
	.loc 1 427 2
	.loc 1 473 31 is_stmt 0
	mv	a0,s4
	call	__floatsidf
.LVL93:
	.loc 1 473 37
	mv	a2,s6
	mv	a3,s7
	call	__divdf3
.LVL94:
	call	__truncdfsf2
.LVL95:
	.loc 1 473 12
	lui	s10,%hi(.LANCHOR12)
	.loc 1 473 37
	fsw	fa0,%lo(.LANCHOR12)(s10)
	.loc 1 474 3 is_stmt 1
	.loc 1 474 19 is_stmt 0
	sw	zero,0(s9)
.L65:
	.loc 1 475 3 is_stmt 1
	.loc 1 477 2
.LVL96:
	.loc 1 427 2
	.loc 1 478 16 is_stmt 0
	li	a2,10
	.loc 1 477 5
	beq	s2,s0,.L66
	.loc 1 480 3 is_stmt 1
.LVL97:
	.loc 1 427 2
	.loc 1 427 2
	.loc 1 480 38 is_stmt 0
	lui	a5,%hi(.LANCHOR8)
	flw	fa3,%lo(.LANCHOR8)(a5)
	.loc 1 480 50
	fcvt.s.wu	fa4,s0
	.loc 1 480 38
	fcvt.s.w	fa5,s2
	fnmsub.s	fa5,fa4,fa3,fa5
	.loc 1 480 18
	fcvt.w.s a2,fa5,rtz
	.loc 1 480 16
	srai	a5,a2,31
	xor	a2,a5,a2
	sub	a2,a2,a5
.LVL98:
.L66:
	.loc 1 483 2 is_stmt 1
	.loc 1 427 2
	.loc 1 484 18 is_stmt 0
	li	a3,10
	.loc 1 483 5
	beq	s1,s0,.L67
	.loc 1 486 3 is_stmt 1
.LVL99:
	.loc 1 427 2
	.loc 1 427 2
	.loc 1 486 42 is_stmt 0
	lui	a5,%hi(.LANCHOR9)
	flw	fa3,%lo(.LANCHOR9)(a5)
	.loc 1 486 54
	fcvt.s.wu	fa4,s0
	.loc 1 486 42
	fcvt.s.w	fa5,s1
	fnmsub.s	fa5,fa4,fa3,fa5
	.loc 1 486 20
	fcvt.w.s a3,fa5,rtz
	.loc 1 486 18
	srai	a5,a3,31
	xor	a3,a5,a3
	sub	a3,a3,a5
.LVL100:
.L67:
	.loc 1 489 2 is_stmt 1
	.loc 1 427 2
	.loc 1 490 17 is_stmt 0
	li	a4,10
	.loc 1 489 5
	beq	s5,s0,.L68
	.loc 1 492 3 is_stmt 1
.LVL101:
	.loc 1 427 2
	.loc 1 427 2
	.loc 1 492 40 is_stmt 0
	lui	a5,%hi(.LANCHOR10)
	flw	fa3,%lo(.LANCHOR10)(a5)
	.loc 1 492 52
	fcvt.s.wu	fa5,s0
	.loc 1 492 40
	fcvt.s.w	fa4,s5
	fnmsub.s	fa5,fa5,fa3,fa4
	.loc 1 492 19
	fcvt.w.s a4,fa5,rtz
	.loc 1 492 17
	srai	a5,a4,31
	xor	a4,a5,a4
	sub	a4,a4,a5
.LVL102:
.L68:
	.loc 1 495 2 is_stmt 1
	.loc 1 427 2
	.loc 1 496 18 is_stmt 0
	li	a5,10
	.loc 1 495 5
	beq	s8,s0,.L69
	.loc 1 498 3 is_stmt 1
.LVL103:
	.loc 1 427 2
	.loc 1 427 2
	.loc 1 498 42 is_stmt 0
	lui	a5,%hi(.LANCHOR11)
	flw	fa3,%lo(.LANCHOR11)(a5)
	.loc 1 498 54
	fcvt.s.wu	fa5,s0
	.loc 1 498 42
	fcvt.s.w	fa4,s8
	fnmsub.s	fa5,fa5,fa3,fa4
	.loc 1 498 20
	fcvt.w.s a5,fa5,rtz
	.loc 1 498 18
	srai	a1,a5,31
	xor	a5,a1,a5
	sub	a5,a5,a1
.LVL104:
.L69:
	.loc 1 501 2 is_stmt 1
	.loc 1 427 2
	.loc 1 502 17 is_stmt 0
	li	a0,10
	.loc 1 501 5
	bge	s4,s3,.L70
	.loc 1 504 3 is_stmt 1
.LVL105:
	.loc 1 427 2
	.loc 1 427 2
	.loc 1 504 40 is_stmt 0
	lui	a1,%hi(.LANCHOR12)
	.loc 1 504 52
	fcvt.s.wu	fa5,s0
	.loc 1 504 40
	flw	fa3,%lo(.LANCHOR12)(a1)
	fcvt.s.w	fa4,s4
	fnmsub.s	fa5,fa5,fa3,fa4
	.loc 1 504 19
	fcvt.w.s s0,fa5,rtz
.LVL106:
	.loc 1 504 17
	srai	a1,s0,31
	xor	a0,a1,s0
	sub	a0,a0,a1
.LVL107:
.L70:
	.loc 1 508 2 is_stmt 1
	.loc 1 508 17 is_stmt 0
	lui	a1,%hi(.LANCHOR13)
	addi	a1,a1,%lo(.LANCHOR13)
	.loc 1 512 20
	sh	a0,8(a1)
	.loc 1 508 17
	sh	a2,4(a1)
	.loc 1 509 2 is_stmt 1
	.loc 1 509 19 is_stmt 0
	sh	a3,2(a1)
	.loc 1 510 2 is_stmt 1
	.loc 1 510 18 is_stmt 0
	sh	a4,0(a1)
	.loc 1 511 2 is_stmt 1
	.loc 1 511 19 is_stmt 0
	sh	a5,6(a1)
	.loc 1 512 2 is_stmt 1
	.loc 1 518 2
	.loc 1 518 9 is_stmt 0
	li	a0,1
.LVL108:
.L54:
	.loc 1 519 1
	lw	ra,44(sp)
	.cfi_restore 1
	lw	s0,40(sp)
	.cfi_restore 8
	lw	s1,36(sp)
	.cfi_restore 9
	lw	s2,32(sp)
	.cfi_restore 18
	lw	s3,28(sp)
	.cfi_restore 19
	lw	s4,24(sp)
	.cfi_restore 20
	lw	s5,20(sp)
	.cfi_restore 21
	lw	s6,16(sp)
	.cfi_restore 22
	lw	s7,12(sp)
	.cfi_restore 23
	lw	s8,8(sp)
	.cfi_restore 24
	lw	s9,4(sp)
	.cfi_restore 25
	lw	s10,0(sp)
	.cfi_restore 26
	addi	sp,sp,48
	.cfi_def_cfa_offset 0
	jr	ra
	.cfi_endproc
.LFE40:
	.size	cal_step, .-cal_step
	.section	.text.send_light_data,"ax",@progbits
	.align	1
	.globl	send_light_data
	.type	send_light_data, @function
send_light_data:
.LFB42:
	.loc 1 642 1 is_stmt 1
	.cfi_startproc
.LVL109:
	.loc 1 643 2
	.loc 1 644 2
	.loc 1 646 2
	.loc 1 646 16 is_stmt 0
	add	a6,a0,a1
	.loc 1 646 20
	add	a6,a6,a2
	.loc 1 646 24
	add	a6,a6,a3
	.loc 1 646 28
	add	a6,a6,a4
	.loc 1 646 8
	fcvt.s.w	fa5,a6
.LVL110:
	.loc 1 647 2 is_stmt 1
	.loc 1 647 5 is_stmt 0
	fmv.s.x	fa4,zero
	.loc 1 642 1
	addi	sp,sp,-80
	.cfi_def_cfa_offset 80
	sw	ra,76(sp)
	.loc 1 647 5
	fgt.s	a6,fa5,fa4
	.loc 1 642 1
	sw	s0,72(sp)
	sw	s1,68(sp)
	sw	s2,64(sp)
	sw	s3,60(sp)
	sw	s4,56(sp)
	sw	s5,52(sp)
	.cfi_offset 1, -4
	.cfi_offset 8, -8
	.cfi_offset 9, -12
	.cfi_offset 18, -16
	.cfi_offset 19, -20
	.cfi_offset 20, -24
	.cfi_offset 21, -28
	.loc 1 647 5
	beq	a6,zero,.L79
	.loc 1 647 12 discriminator 1
	lui	a6,%hi(.LC3)
	flw	fa4,%lo(.LC3)(a6)
	flt.s	a6,fa5,fa4
	beq	a6,zero,.L79
	.loc 1 648 3 is_stmt 1
	.loc 1 648 13 is_stmt 0
	li	s3,0
	beq	a0,zero,.L82
	.loc 1 648 33 discriminator 1
	li	s3,20
	mul	a0,a0,s3
.LVL111:
	.loc 1 648 37 discriminator 1
	fcvt.s.w	fa4,a0
	fdiv.s	fa4,fa4,fa5
	.loc 1 648 13 discriminator 1
	fcvt.w.s s3,fa4,rtz
	slli	s3,s3,16
	srai	s3,s3,16
.L82:
.LVL112:
	.loc 1 649 3 is_stmt 1 discriminator 4
	.loc 1 649 15 is_stmt 0 discriminator 4
	li	s4,0
	beq	a1,zero,.L83
	.loc 1 649 35 discriminator 1
	li	a0,20
	mul	a1,a1,a0
.LVL113:
	.loc 1 649 39 discriminator 1
	fcvt.s.w	fa4,a1
	fdiv.s	fa4,fa4,fa5
	.loc 1 649 15 discriminator 1
	fcvt.w.s a0,fa4,rtz
	slli	s4,a0,16
	srai	s4,s4,16
.L83:
.LVL114:
	.loc 1 650 3 is_stmt 1 discriminator 4
	.loc 1 650 14 is_stmt 0 discriminator 4
	li	s2,0
	beq	a2,zero,.L84
	.loc 1 650 34 discriminator 1
	li	a1,20
	mul	a1,a2,a1
	.loc 1 650 38 discriminator 1
	fcvt.s.w	fa4,a1
	fdiv.s	fa4,fa4,fa5
	.loc 1 650 14 discriminator 1
	fcvt.w.s s2,fa4,rtz
	slli	s2,s2,16
	srai	s2,s2,16
.L84:
.LVL115:
	.loc 1 651 3 is_stmt 1 discriminator 4
	.loc 1 651 15 is_stmt 0 discriminator 4
	li	s1,0
	beq	a3,zero,.L85
	.loc 1 651 35 discriminator 1
	li	a2,20
.LVL116:
	mul	a2,a3,a2
	.loc 1 651 39 discriminator 1
	fcvt.s.w	fa4,a2
	fdiv.s	fa4,fa4,fa5
	.loc 1 651 15 discriminator 1
	fcvt.w.s s1,fa4,rtz
	slli	s1,s1,16
	srai	s1,s1,16
.L85:
.LVL117:
	.loc 1 652 3 is_stmt 1 discriminator 4
	.loc 1 652 16 is_stmt 0 discriminator 4
	li	s0,0
	beq	a4,zero,.L86
	.loc 1 652 36 discriminator 1
	li	a3,20
.LVL118:
	mul	a3,a4,a3
	.loc 1 652 40 discriminator 1
	fcvt.s.w	fa4,a3
	fdiv.s	fa5,fa4,fa5
.LVL119:
	.loc 1 652 16 discriminator 1
	fcvt.w.s s0,fa5,rtz
	slli	s0,s0,16
.L100:
	.loc 1 660 16
	srai	s0,s0,16
.LVL120:
.L86:
	.loc 1 676 2
	li	s5,1
	li	a2,12
	addi	a1,sp,36
	addi	a0,sp,16
	sw	a5,12(sp)
.LVL121:
	.loc 1 675 2 is_stmt 1
	.loc 1 676 2
	sh	s2,36(sp)
	sh	s4,38(sp)
	sh	s3,40(sp)
	sh	s1,42(sp)
	sh	s0,44(sp)
	sb	s5,46(sp)
	call	memcpy
.LVL122:
	lw	a5,12(sp)
	addi	a0,sp,16
	mv	a1,a5
	call	start_led_change
.LVL123:
	.loc 1 678 2
	.loc 1 678 35 is_stmt 0
	call	product_get_status
.LVL124:
	.loc 1 679 2 is_stmt 1
	.loc 1 679 24 is_stmt 0
	sh	s2,0(a0)
	sh	s4,2(a0)
	sh	s3,4(a0)
	sh	s1,6(a0)
	sh	s0,8(a0)
	sb	s5,10(a0)
	.loc 1 680 2 is_stmt 1
	.loc 1 681 1 is_stmt 0
	lw	s0,72(sp)
	.cfi_remember_state
	.cfi_restore 8
.LVL125:
	lw	ra,76(sp)
	.cfi_restore 1
	lw	s1,68(sp)
	.cfi_restore 9
.LVL126:
	lw	s2,64(sp)
	.cfi_restore 18
.LVL127:
	lw	s3,60(sp)
	.cfi_restore 19
.LVL128:
	lw	s4,56(sp)
	.cfi_restore 20
.LVL129:
	lw	s5,52(sp)
	.cfi_restore 21
	addi	sp,sp,80
	.cfi_def_cfa_offset 0
.LVL130:
	.loc 1 680 2
	tail	delay_update_config_upload
.LVL131:
.L79:
	.cfi_restore_state
	.loc 1 654 3 is_stmt 1
	.loc 1 654 13 is_stmt 0
	slli	s3,a0,16
	.loc 1 655 15
	slli	s4,a1,16
	.loc 1 656 14
	slli	s2,a2,16
	.loc 1 657 15
	slli	s1,a3,16
	.loc 1 654 13
	srai	s3,s3,16
.LVL132:
	.loc 1 655 3 is_stmt 1
	.loc 1 655 15 is_stmt 0
	srai	s4,s4,16
.LVL133:
	.loc 1 656 3 is_stmt 1
	.loc 1 656 14 is_stmt 0
	srai	s2,s2,16
.LVL134:
	.loc 1 657 3 is_stmt 1
	.loc 1 657 15 is_stmt 0
	srai	s1,s1,16
.LVL135:
	.loc 1 660 3 is_stmt 1
	.loc 1 660 16 is_stmt 0
	slli	s0,a4,16
	j	.L100
	.cfi_endproc
.LFE42:
	.size	send_light_data, .-send_light_data
	.section	.text.led_rgb_set_off,"ax",@progbits
	.align	1
	.globl	led_rgb_set_off
	.type	led_rgb_set_off, @function
led_rgb_set_off:
.LFB44:
	.loc 1 707 24 is_stmt 1
	.cfi_startproc
	.loc 1 708 2
	.loc 1 707 24 is_stmt 0
	addi	sp,sp,-48
	.cfi_def_cfa_offset 48
	.loc 1 709 2
	addi	a1,sp,20
	li	a2,12
	mv	a0,sp
	.loc 1 707 24
	sw	ra,44(sp)
	.cfi_offset 1, -4
	.loc 1 708 14
	sw	zero,20(sp)
	sw	zero,24(sp)
	sh	zero,28(sp)
	sb	zero,30(sp)
	.loc 1 709 2 is_stmt 1
	call	memcpy
.LVL136:
	mv	a0,sp
	li	a1,0
	call	start_led_change
.LVL137:
	.loc 1 710 1 is_stmt 0
	lw	ra,44(sp)
	.cfi_restore 1
	addi	sp,sp,48
	.cfi_def_cfa_offset 0
	jr	ra
	.cfi_endproc
.LFE44:
	.size	led_rgb_set_off, .-led_rgb_set_off
	.section	.text.send_light_onoff,"ax",@progbits
	.align	1
	.globl	send_light_onoff
	.type	send_light_onoff, @function
send_light_onoff:
.LFB43:
	.loc 1 687 1 is_stmt 1
	.cfi_startproc
.LVL138:
	.loc 1 688 2
	.loc 1 687 1 is_stmt 0
	addi	sp,sp,-16
	.cfi_def_cfa_offset 16
	sw	s1,4(sp)
	sw	ra,12(sp)
	sw	s0,8(sp)
	.cfi_offset 9, -12
	.cfi_offset 1, -4
	.cfi_offset 8, -8
	.loc 1 687 1
	mv	s1,a0
	.loc 1 688 35
	call	product_get_status
.LVL139:
	.loc 1 689 2 is_stmt 1
	.loc 1 689 5 is_stmt 0
	lbu	a5,10(a0)
	beq	a5,s1,.L107
	mv	s0,a0
	.loc 1 690 3 is_stmt 1
	.loc 1 690 6 is_stmt 0
	beq	s1,zero,.L105
	.loc 1 691 4 is_stmt 1
	call	led_load_saved_color
.LVL140:
	.loc 1 692 4
	.loc 1 692 29 is_stmt 0
	li	a5,1
	sb	a5,10(s0)
.L106:
	.loc 1 697 3 is_stmt 1
	call	update_config_upload
.LVL141:
	.loc 1 698 3
	.loc 1 698 10 is_stmt 0
	li	a0,1
.LVL142:
.L103:
	.loc 1 701 1
	lw	ra,12(sp)
	.cfi_remember_state
	.cfi_restore 1
	lw	s0,8(sp)
	.cfi_restore 8
	lw	s1,4(sp)
	.cfi_restore 9
	addi	sp,sp,16
	.cfi_def_cfa_offset 0
	jr	ra
.LVL143:
.L105:
	.cfi_restore_state
	.loc 1 694 4 is_stmt 1
	call	led_rgb_set_off
.LVL144:
	.loc 1 695 4
	.loc 1 695 29 is_stmt 0
	sb	zero,10(s0)
	j	.L106
.LVL145:
.L107:
	.loc 1 700 9
	li	a0,0
.LVL146:
	j	.L103
	.cfi_endproc
.LFE43:
	.size	send_light_onoff, .-send_light_onoff
	.section	.text.light_shutdown_cb,"ax",@progbits
	.align	1
	.globl	light_shutdown_cb
	.type	light_shutdown_cb, @function
light_shutdown_cb:
.LFB46:
	.loc 1 737 29 is_stmt 1
	.cfi_startproc
	.loc 1 739 2
	li	a0,0
	tail	send_light_onoff
.LVL147:
	.cfi_endproc
.LFE46:
	.size	light_shutdown_cb, .-light_shutdown_cb
	.section	.text.light_boot_cb,"ax",@progbits
	.align	1
	.globl	light_boot_cb
	.type	light_boot_cb, @function
light_boot_cb:
.LFB47:
	.loc 1 742 25
	.cfi_startproc
	.loc 1 744 2
	li	a0,1
	tail	send_light_onoff
.LVL148:
	.cfi_endproc
.LFE47:
	.size	light_boot_cb, .-light_boot_cb
	.section	.text.send_light_data_pwm,"ax",@progbits
	.align	1
	.globl	send_light_data_pwm
	.type	send_light_data_pwm, @function
send_light_data_pwm:
.LFB48:
	.loc 1 755 1
	.cfi_startproc
	addi	sp,sp,-32
	.cfi_def_cfa_offset 32
	sw	s0,24(sp)
	sw	s1,20(sp)
	sw	s5,4(sp)
	sw	ra,28(sp)
	sw	s2,16(sp)
	sw	s3,12(sp)
	sw	s4,8(sp)
	.cfi_offset 8, -8
	.cfi_offset 9, -12
	.cfi_offset 21, -28
	.cfi_offset 1, -4
	.cfi_offset 18, -16
	.cfi_offset 19, -20
	.cfi_offset 20, -24
	.loc 1 755 1 is_stmt 0
	mv	a5,a0
	lh	s2,0(a0)
.LVL149:
	lh	s3,2(a0)
.LVL150:
	lh	a0,4(a0)
.LVL151:
	lh	s1,6(a5)
.LVL152:
	lh	s0,8(a5)
.LVL153:
	.loc 1 761 2 is_stmt 1
	.loc 1 764 2
	li	s5,0
	.loc 1 764 5 is_stmt 0
	beq	a0,zero,.L112
	.loc 1 765 8 is_stmt 1
	.loc 1 765 13 is_stmt 0
	li	a4,8192
	addi	a4,a4,1808
	li	a3,0
	li	a2,1000
	li	a1,0
	call	map
.LVL154:
	mv	s5,a0
.LVL155:
.L112:
	.loc 1 767 2 is_stmt 1
	.loc 1 767 27 is_stmt 0
	li	s4,0
	.loc 1 767 5
	beq	s3,zero,.L113
	.loc 1 768 8 is_stmt 1
	.loc 1 768 13 is_stmt 0
	li	a4,8192
	addi	a4,a4,1808
	li	a3,0
	li	a2,1000
	li	a1,0
	mv	a0,s3
	call	map
.LVL156:
	mv	s4,a0
.LVL157:
.L113:
	.loc 1 770 2 is_stmt 1
	.loc 1 770 26 is_stmt 0
	li	s3,0
.LVL158:
	.loc 1 770 5
	beq	s2,zero,.L114
	.loc 1 771 8 is_stmt 1
	.loc 1 771 13 is_stmt 0
	li	a4,8192
	addi	a4,a4,1808
	li	a3,0
	li	a2,1000
	li	a1,0
	mv	a0,s2
	call	map
.LVL159:
	mv	s3,a0
.LVL160:
.L114:
	.loc 1 773 2 is_stmt 1
	.loc 1 773 27 is_stmt 0
	li	s2,0
.LVL161:
	.loc 1 773 5
	beq	s1,zero,.L115
	.loc 1 774 8 is_stmt 1
	.loc 1 774 13 is_stmt 0
	li	a4,8192
	addi	a4,a4,1808
	li	a3,0
	li	a2,1000
	li	a1,0
	mv	a0,s1
	call	map
.LVL162:
	mv	s2,a0
.LVL163:
.L115:
	.loc 1 776 2 is_stmt 1
	.loc 1 776 28 is_stmt 0
	li	s1,0
.LVL164:
	.loc 1 776 5
	beq	s0,zero,.L116
	.loc 1 777 8 is_stmt 1
	.loc 1 777 13 is_stmt 0
	li	a4,8192
	addi	a4,a4,1808
	li	a3,0
	li	a2,1000
	li	a1,0
	mv	a0,s0
	call	map
.LVL165:
	mv	s1,a0
.LVL166:
.L116:
	.loc 1 786 2 is_stmt 1
	lui	s0,%hi(pwm_mutex)
.LVL167:
	lw	a0,%lo(pwm_mutex)(s0)
	li	a1,1000
	call	xQueueSemaphoreTake
.LVL168:
	.loc 1 789 2
	mv	a1,s5
	li	a2,0
	li	a0,0
	call	hal_pwm_duty_set
.LVL169:
	.loc 1 790 2
	mv	a1,s4
	li	a2,0
	li	a0,1
	call	hal_pwm_duty_set
.LVL170:
	.loc 1 791 2
	mv	a1,s3
	li	a2,0
	li	a0,2
	call	hal_pwm_duty_set
.LVL171:
	.loc 1 792 2
	mv	a1,s2
	li	a2,0
	li	a0,3
	call	hal_pwm_duty_set
.LVL172:
	.loc 1 793 2
	mv	a1,s1
	li	a2,0
	li	a0,4
	call	hal_pwm_duty_set
.LVL173:
	.loc 1 797 2
	lw	a0,%lo(pwm_mutex)(s0)
	.loc 1 798 1 is_stmt 0
	lw	s0,24(sp)
	.cfi_restore 8
	lw	ra,28(sp)
	.cfi_restore 1
	lw	s1,20(sp)
	.cfi_restore 9
.LVL174:
	lw	s2,16(sp)
	.cfi_restore 18
.LVL175:
	lw	s3,12(sp)
	.cfi_restore 19
.LVL176:
	lw	s4,8(sp)
	.cfi_restore 20
.LVL177:
	lw	s5,4(sp)
	.cfi_restore 21
.LVL178:
	.loc 1 797 2
	li	a3,0
	.loc 1 798 1
	.loc 1 797 2
	li	a2,0
	li	a1,0
	.loc 1 798 1
	addi	sp,sp,32
	.cfi_def_cfa_offset 0
	.loc 1 797 2
	tail	xQueueGenericSend
.LVL179:
	.cfi_endproc
.LFE48:
	.size	send_light_data_pwm, .-send_light_data_pwm
	.section	.text.light_change_task,"ax",@progbits
	.align	1
	.type	light_change_task, @function
light_change_task:
.LFB34:
	.loc 1 253 1 is_stmt 1
	.cfi_startproc
.LVL180:
	addi	sp,sp,-48
	.cfi_def_cfa_offset 48
	sw	s2,32(sp)
	sw	s4,24(sp)
	sw	s5,20(sp)
	.cfi_offset 18, -16
	.cfi_offset 20, -24
	.cfi_offset 21, -28
.LBB104:
.LBB105:
	.loc 1 533 16 is_stmt 0
	lui	s4,%hi(.LANCHOR5)
	.loc 1 533 34
	lui	s5,%hi(.LANCHOR4)
	lui	s2,%hi(.LANCHOR13)
.LBE105:
.LBE104:
	.loc 1 253 1
	sw	s0,40(sp)
	sw	s1,36(sp)
	sw	ra,44(sp)
	sw	s3,28(sp)
	.cfi_offset 8, -8
	.cfi_offset 9, -12
	.cfi_offset 1, -4
	.cfi_offset 19, -20
	addi	s1,s4,%lo(.LANCHOR5)
	addi	s0,s5,%lo(.LANCHOR4)
	addi	s2,s2,%lo(.LANCHOR13)
.LVL181:
.L130:
	.loc 1 254 2 is_stmt 1
	.loc 1 256 3
	lui	s3,%hi(task_sem)
	lw	a0,%lo(task_sem)(s3)
	li	a1,8192
	addi	a1,a1,1808
	call	xQueueSemaphoreTake
.LVL182:
	.loc 1 258 3
	.loc 1 258 20 is_stmt 0
	lui	a5,%hi(.LANCHOR3)
	lbu	a5,%lo(.LANCHOR3)(a5)
	.loc 1 258 6
	beq	a5,zero,.L130
	.loc 1 259 10 is_stmt 1
	.loc 1 259 13 is_stmt 0
	li	a4,1
	bne	a5,a4,.L132
	.loc 1 260 4 is_stmt 1
	call	led_cfg_dohome_effect
.LVL183:
	.loc 1 261 4
.L175:
	.loc 1 273 4
	li	a3,0
	li	a2,0
	li	a1,0
	lw	a0,%lo(task_sem)(s3)
	j	.L174
.L132:
	.loc 1 262 10
	.loc 1 262 13 is_stmt 0
	li	a4,4
	bne	a5,a4,.L133
	.loc 1 263 4 is_stmt 1
	call	led_cfg_dohome_effect3
.LVL184:
	.loc 1 264 4
	j	.L175
.L133:
	.loc 1 265 9
	.loc 1 265 12 is_stmt 0
	li	a4,2
	bne	a5,a4,.L134
	.loc 1 267 4 is_stmt 1
	lui	s3,%hi(hanler_mutex)
	lw	a0,%lo(hanler_mutex)(s3)
	li	a1,49152
	addi	a1,a1,848
	call	xQueueSemaphoreTake
.LVL185:
	.loc 1 268 4
.LBB108:
.LBB106:
	.loc 1 526 1
	.loc 1 527 2
	.loc 1 531 2
	call	cal_step
.LVL186:
	.loc 1 533 2
	.loc 1 533 16 is_stmt 0
	addi	a5,s4,%lo(.LANCHOR5)
	.loc 1 533 34
	addi	a2,s5,%lo(.LANCHOR4)
	.loc 1 533 16
	lh	a5,4(a5)
	.loc 1 533 34
	lh	a1,4(a2)
	.loc 1 533 5
	beq	a5,a1,.L135
	.loc 1 534 3 is_stmt 1
	slli	a4,a1,16
	srli	a4,a4,16
	lhu	a3,4(s2)
	.loc 1 534 6 is_stmt 0
	ble	a5,a1,.L136
	.loc 1 535 4 is_stmt 1
	.loc 1 535 19 is_stmt 0
	add	a4,a3,a4
	slli	a4,a4,16
	srai	a4,a4,16
	.loc 1 536 4 is_stmt 1
	.loc 1 536 7 is_stmt 0
	blt	a5,a4,.L137
.L176:
	.loc 1 535 19
	sh	a4,4(a2)
.L177:
	.loc 1 541 11
	li	a5,1
.L138:
.LVL187:
	.loc 1 546 2 is_stmt 1
	.loc 1 546 16 is_stmt 0
	lh	a4,2(s1)
	.loc 1 546 36
	lh	a2,2(s0)
	.loc 1 546 5
	beq	a4,a2,.L141
	.loc 1 547 3 is_stmt 1
	slli	a5,a2,16
.LVL188:
	srli	a5,a5,16
	lhu	a3,2(s2)
	.loc 1 547 6 is_stmt 0
	ble	a4,a2,.L142
	.loc 1 548 4 is_stmt 1
	.loc 1 548 21 is_stmt 0
	add	a5,a3,a5
	slli	a5,a5,16
	srai	a5,a5,16
	.loc 1 549 4 is_stmt 1
	.loc 1 549 7 is_stmt 0
	blt	a4,a5,.L143
.L178:
	.loc 1 548 21
	sh	a5,2(s0)
.L179:
	.loc 1 554 11
	li	a5,1
.L144:
.LVL189:
	.loc 1 559 2 is_stmt 1
	.loc 1 559 16 is_stmt 0
	lh	a4,0(s1)
	.loc 1 559 35
	lh	a2,0(s0)
	.loc 1 559 5
	beq	a4,a2,.L147
	.loc 1 560 3 is_stmt 1
	slli	a5,a2,16
.LVL190:
	srli	a5,a5,16
	lhu	a3,0(s2)
	.loc 1 560 6 is_stmt 0
	ble	a4,a2,.L148
	.loc 1 561 4 is_stmt 1
	.loc 1 561 20 is_stmt 0
	add	a5,a3,a5
	slli	a5,a5,16
	srai	a5,a5,16
	.loc 1 562 4 is_stmt 1
	.loc 1 562 7 is_stmt 0
	blt	a4,a5,.L149
.L180:
	.loc 1 561 20
	sh	a5,0(s0)
.L181:
	.loc 1 567 11
	li	a5,1
.L150:
.LVL191:
	.loc 1 572 2 is_stmt 1
	.loc 1 572 16 is_stmt 0
	lh	a4,6(s1)
	.loc 1 572 36
	lh	a2,6(s0)
	.loc 1 572 5
	beq	a4,a2,.L153
	.loc 1 573 3 is_stmt 1
	slli	a5,a2,16
.LVL192:
	srli	a5,a5,16
	lhu	a3,6(s2)
	.loc 1 573 6 is_stmt 0
	ble	a4,a2,.L154
	.loc 1 574 4 is_stmt 1
	.loc 1 574 21 is_stmt 0
	add	a5,a3,a5
	slli	a5,a5,16
	srai	a5,a5,16
	.loc 1 575 4 is_stmt 1
	.loc 1 575 7 is_stmt 0
	blt	a4,a5,.L155
.L182:
	.loc 1 574 21
	sh	a5,6(s0)
.L183:
	.loc 1 580 11
	li	a5,1
.L156:
.LVL193:
	.loc 1 586 2 is_stmt 1
	.loc 1 586 16 is_stmt 0
	lh	a4,8(s1)
	.loc 1 586 37
	lh	a3,8(s0)
	.loc 1 586 5
	beq	a4,a3,.L159
	.loc 1 587 3 is_stmt 1
	slli	a5,a3,16
.LVL194:
	srli	a5,a5,16
	lhu	a2,8(s2)
	.loc 1 587 6 is_stmt 0
	ble	a4,a3,.L160
	.loc 1 588 4 is_stmt 1
	.loc 1 588 22 is_stmt 0
	add	a5,a5,a2
	slli	a5,a5,16
	srai	a5,a5,16
	.loc 1 589 4 is_stmt 1
	.loc 1 589 7 is_stmt 0
	blt	a4,a5,.L163
.L184:
	.loc 1 591 22
	sh	a5,8(s0)
.L162:
	.loc 1 601 3 is_stmt 1
	li	a2,12
	mv	a1,s0
	mv	a0,sp
	call	memcpy
.LVL195:
	mv	a0,sp
	call	send_light_data_pwm
.LVL196:
	.loc 1 602 3
.L166:
	.loc 1 620 2
	.loc 1 620 18 is_stmt 0
	lui	a5,%hi(.LANCHOR7)
	addi	a5,a5,%lo(.LANCHOR7)
	lw	a4,0(a5)
	.loc 1 621 5
	li	a3,999
	.loc 1 620 18
	addi	a4,a4,1
	.loc 1 621 2 is_stmt 1
	.loc 1 621 5 is_stmt 0
	bgt	a4,a3,.L167
	.loc 1 620 18
	sw	a4,0(a5)
.L168:
	.loc 1 634 2 is_stmt 1
.LBE106:
.LBE108:
	.loc 1 269 4
	lw	a0,%lo(hanler_mutex)(s3)
	li	a3,0
	li	a2,0
	li	a1,0
.L174:
	.loc 1 273 4 is_stmt 0
	call	xQueueGenericSend
.LVL197:
	j	.L130
.LVL198:
.L136:
.LBB109:
.LBB107:
	.loc 1 538 4 is_stmt 1
	.loc 1 538 19 is_stmt 0
	sub	a4,a4,a3
	slli	a4,a4,16
	srai	a4,a4,16
	.loc 1 539 4 is_stmt 1
	.loc 1 539 7 is_stmt 0
	ble	a5,a4,.L176
.L137:
	.loc 1 536 43 is_stmt 1
	.loc 1 536 58 is_stmt 0
	sh	a5,4(a2)
	j	.L177
.L135:
	.loc 1 543 3 is_stmt 1
	.loc 1 543 18 is_stmt 0
	lui	a4,%hi(.LANCHOR14+4)
	sh	a5,%lo(.LANCHOR14+4)(a4)
	.loc 1 526 6
	li	a5,0
	j	.L138
.LVL199:
.L142:
	.loc 1 551 4 is_stmt 1
	.loc 1 551 21 is_stmt 0
	sub	a5,a5,a3
	slli	a5,a5,16
	srai	a5,a5,16
	.loc 1 552 4 is_stmt 1
	.loc 1 552 7 is_stmt 0
	ble	a4,a5,.L178
.L143:
	.loc 1 549 47 is_stmt 1
	.loc 1 549 64 is_stmt 0
	sh	a4,2(s0)
	j	.L179
.LVL200:
.L141:
	.loc 1 556 3 is_stmt 1
	.loc 1 556 20 is_stmt 0
	lui	a3,%hi(.LANCHOR14+2)
	sh	a4,%lo(.LANCHOR14+2)(a3)
	j	.L144
.LVL201:
.L148:
	.loc 1 564 4 is_stmt 1
	.loc 1 564 20 is_stmt 0
	sub	a5,a5,a3
	slli	a5,a5,16
	srai	a5,a5,16
	.loc 1 565 4 is_stmt 1
	.loc 1 565 7 is_stmt 0
	ble	a4,a5,.L180
.L149:
	.loc 1 562 45 is_stmt 1
	.loc 1 562 61 is_stmt 0
	sh	a4,0(s0)
	j	.L181
.LVL202:
.L147:
	.loc 1 569 3 is_stmt 1
	.loc 1 569 19 is_stmt 0
	lui	a3,%hi(.LANCHOR14)
	sh	a4,%lo(.LANCHOR14)(a3)
	j	.L150
.LVL203:
.L154:
	.loc 1 577 4 is_stmt 1
	.loc 1 577 21 is_stmt 0
	sub	a5,a5,a3
	slli	a5,a5,16
	srai	a5,a5,16
	.loc 1 578 4 is_stmt 1
	.loc 1 578 7 is_stmt 0
	ble	a4,a5,.L182
.L155:
	.loc 1 575 47 is_stmt 1
	.loc 1 575 64 is_stmt 0
	sh	a4,6(s0)
	j	.L183
.LVL204:
.L153:
	.loc 1 582 3 is_stmt 1
	.loc 1 582 20 is_stmt 0
	lui	a3,%hi(.LANCHOR14+6)
	sh	a4,%lo(.LANCHOR14+6)(a3)
	j	.L156
.LVL205:
.L160:
	.loc 1 591 4 is_stmt 1
	.loc 1 591 22 is_stmt 0
	sub	a5,a5,a2
	slli	a5,a5,16
	srai	a5,a5,16
	.loc 1 592 4 is_stmt 1
	.loc 1 592 7 is_stmt 0
	ble	a4,a5,.L184
.L163:
	.loc 1 592 49 is_stmt 1
	.loc 1 592 67 is_stmt 0
	sh	a4,8(s0)
	j	.L162
.LVL206:
.L159:
	.loc 1 596 3 is_stmt 1
	.loc 1 596 21 is_stmt 0
	lui	a3,%hi(.LANCHOR14+8)
	sh	a4,%lo(.LANCHOR14+8)(a3)
	.loc 1 600 2 is_stmt 1
	.loc 1 600 5 is_stmt 0
	bne	a5,zero,.L162
	.loc 1 604 3 is_stmt 1
	.loc 1 606 3
	.loc 1 608 3
	.loc 1 609 3
	.loc 1 612 3
	.loc 1 614 3
	call	hw_timer_disable
.LVL207:
	.loc 1 616 3
	li	a0,0
	call	set_light_work_mode
.LVL208:
	j	.L166
.LVL209:
.L167:
	.loc 1 622 3
	.loc 1 623 3
	.loc 1 624 14 is_stmt 0
	lui	a0,%hi(.LANCHOR14)
	mv	a1,s1
	li	a2,12
	addi	a0,a0,%lo(.LANCHOR14)
	.loc 1 623 20
	sw	zero,0(a5)
	.loc 1 624 3 is_stmt 1
	.loc 1 624 14 is_stmt 0
	call	memcpy
.LVL210:
	.loc 1 625 3 is_stmt 1
	.loc 1 625 14 is_stmt 0
	mv	a1,s1
	li	a2,12
	mv	a0,s0
	call	memcpy
.LVL211:
	.loc 1 626 3 is_stmt 1
	li	a2,12
	mv	a1,s1
	mv	a0,sp
	call	memcpy
.LVL212:
	mv	a0,sp
	call	send_light_data_pwm
.LVL213:
	.loc 1 627 3
	.loc 1 629 3
	call	hw_timer_disable
.LVL214:
	.loc 1 631 3
	li	a0,0
	call	set_light_work_mode
.LVL215:
	j	.L168
.LVL216:
.L134:
.LBE107:
.LBE109:
	.loc 1 271 8
	.loc 1 271 11 is_stmt 0
	li	a4,3
	bne	a5,a4,.L130
	.loc 1 272 4 is_stmt 1
	call	ambilight_task
.LVL217:
	j	.L175
	.cfi_endproc
.LFE34:
	.size	light_change_task, .-light_change_task
	.section	.text.led_load_saved_color2,"ax",@progbits
	.align	1
	.globl	led_load_saved_color2
	.type	led_load_saved_color2, @function
led_load_saved_color2:
.LFB37:
	.loc 1 323 1
	.cfi_startproc
	.loc 1 324 2
	.loc 1 323 1 is_stmt 0
	addi	sp,sp,-32
	.cfi_def_cfa_offset 32
	sw	ra,28(sp)
	sw	s0,24(sp)
	sw	s1,20(sp)
	.cfi_offset 1, -4
	.cfi_offset 8, -8
	.cfi_offset 9, -12
	.loc 1 324 35
	call	product_get_status
.LVL218:
	mv	s1,a0
.LVL219:
	.loc 1 326 2 is_stmt 1
	.loc 1 326 22 is_stmt 0
	call	flash_get_reset_reason
.LVL220:
	.loc 1 329 2 is_stmt 1
	.loc 1 332 28 is_stmt 0
	li	a5,1
	sb	a5,10(s1)
	lui	s0,%hi(.LANCHOR4)
	.loc 1 329 4
	beq	a0,zero,.L186
	.loc 1 331 3 is_stmt 1
	.loc 1 332 3
	.loc 1 333 3
	.loc 1 333 14 is_stmt 0
	lui	a0,%hi(.LANCHOR5)
.LVL221:
	li	a2,12
	mv	a1,s1
	addi	a0,a0,%lo(.LANCHOR5)
	call	memcpy
.LVL222:
	.loc 1 334 3 is_stmt 1
	.loc 1 334 14 is_stmt 0
	li	a2,12
	mv	a1,s1
	addi	a0,s0,%lo(.LANCHOR4)
	call	memcpy
.LVL223:
	.loc 1 335 3 is_stmt 1
	li	a2,12
	mv	a1,s1
	mv	a0,sp
	call	memcpy
.LVL224:
	mv	a0,sp
	call	send_light_data_pwm
.LVL225:
.L185:
	.loc 1 348 1 is_stmt 0
	lw	ra,28(sp)
	.cfi_remember_state
	.cfi_restore 1
	lw	s0,24(sp)
	.cfi_restore 8
	lw	s1,20(sp)
	.cfi_restore 9
.LVL226:
	addi	sp,sp,32
	.cfi_def_cfa_offset 0
	jr	ra
.LVL227:
.L186:
	.cfi_restore_state
	.loc 1 337 3 is_stmt 1
	.loc 1 338 3
	.loc 1 340 3
	.loc 1 341 3
	.loc 1 342 3
	.loc 1 343 3
	.loc 1 344 3
	.loc 1 345 3
	.loc 1 342 19 is_stmt 0
	addi	a0,s0,%lo(.LANCHOR4)
.LVL228:
	.loc 1 345 17
	sb	a5,10(a0)
	.loc 1 346 3 is_stmt 1
	mv	a1,s1
	.loc 1 342 19 is_stmt 0
	sw	zero,0(a0)
	.loc 1 340 18
	sw	zero,4(a0)
	.loc 1 344 21
	sh	zero,8(a0)
	.loc 1 346 3
	li	a2,12
	mv	a0,sp
	call	memcpy
.LVL229:
	li	a1,0
	mv	a0,sp
	call	start_led_change
.LVL230:
	.loc 1 348 1
	j	.L185
	.cfi_endproc
.LFE37:
	.size	led_load_saved_color2, .-led_load_saved_color2
	.section	.text.send_light_data_pwm_map,"ax",@progbits
	.align	1
	.globl	send_light_data_pwm_map
	.type	send_light_data_pwm_map, @function
send_light_data_pwm_map:
.LFB45:
	.loc 1 716 1 is_stmt 1
	.cfi_startproc
.LVL231:
	addi	sp,sp,-64
	.cfi_def_cfa_offset 64
	sw	ra,60(sp)
	sw	s0,56(sp)
	sw	s1,52(sp)
	sw	s2,48(sp)
	sw	s3,44(sp)
	sw	s4,40(sp)
	.cfi_offset 1, -4
	.cfi_offset 8, -8
	.cfi_offset 9, -12
	.cfi_offset 18, -16
	.cfi_offset 19, -20
	.cfi_offset 20, -24
	lh	s4,4(a0)
	.loc 1 716 1 is_stmt 0
	mv	a1,a0
.LVL232:
	lh	s2,0(a0)
.LVL233:
	lh	s3,2(a0)
.LVL234:
	lh	s1,6(a0)
.LVL235:
	lh	s0,8(a0)
.LVL236:
	.loc 1 717 2 is_stmt 1
	.loc 1 717 14 is_stmt 0
	li	a2,12
	addi	a0,sp,20
	call	memcpy
.LVL237:
	.loc 1 719 2 is_stmt 1
	.loc 1 719 5 is_stmt 0
	bne	s4,zero,.L190
	.loc 1 719 22 is_stmt 1 discriminator 1
	.loc 1 719 32 is_stmt 0 discriminator 1
	sh	zero,24(sp)
.L191:
	.loc 1 722 2 is_stmt 1
	.loc 1 722 5 is_stmt 0
	bne	s3,zero,.L192
	.loc 1 722 24 is_stmt 1 discriminator 1
	.loc 1 722 36 is_stmt 0 discriminator 1
	sh	zero,22(sp)
.L193:
	.loc 1 725 2 is_stmt 1
	.loc 1 725 5 is_stmt 0
	bne	s2,zero,.L194
	.loc 1 725 23 is_stmt 1 discriminator 1
	.loc 1 725 34 is_stmt 0 discriminator 1
	sh	zero,20(sp)
.L195:
	.loc 1 728 2 is_stmt 1
	.loc 1 728 5 is_stmt 0
	bne	s1,zero,.L196
	.loc 1 728 24 is_stmt 1 discriminator 1
	.loc 1 728 36 is_stmt 0 discriminator 1
	sh	zero,26(sp)
.L197:
	.loc 1 731 2 is_stmt 1
	.loc 1 731 5 is_stmt 0
	bne	s0,zero,.L198
	.loc 1 731 25 is_stmt 1 discriminator 1
	.loc 1 731 38 is_stmt 0 discriminator 1
	sh	zero,28(sp)
.L199:
	.loc 1 734 2 is_stmt 1
	addi	a1,sp,20
	li	a2,12
	mv	a0,sp
	call	memcpy
.LVL238:
	mv	a0,sp
	call	send_light_data_pwm
.LVL239:
	.loc 1 735 1 is_stmt 0
	lw	ra,60(sp)
	.cfi_remember_state
	.cfi_restore 1
	lw	s0,56(sp)
	.cfi_restore 8
.LVL240:
	lw	s1,52(sp)
	.cfi_restore 9
.LVL241:
	lw	s2,48(sp)
	.cfi_restore 18
.LVL242:
	lw	s3,44(sp)
	.cfi_restore 19
.LVL243:
	lw	s4,40(sp)
	.cfi_restore 20
.LVL244:
	addi	sp,sp,64
	.cfi_def_cfa_offset 0
	jr	ra
.LVL245:
.L190:
	.cfi_restore_state
	.loc 1 720 8 is_stmt 1
	.loc 1 720 20 is_stmt 0
	li	a4,1000
	li	a3,0
	li	a2,255
	li	a1,0
	mv	a0,s4
	call	map
.LVL246:
	.loc 1 720 18
	sh	a0,24(sp)
	j	.L191
.L192:
	.loc 1 723 8 is_stmt 1
	.loc 1 723 22 is_stmt 0
	li	a4,1000
	li	a3,0
	li	a2,255
	li	a1,0
	mv	a0,s3
	call	map
.LVL247:
	.loc 1 723 20
	sh	a0,22(sp)
	j	.L193
.L194:
	.loc 1 726 8 is_stmt 1
	.loc 1 726 21 is_stmt 0
	li	a4,1000
	li	a3,0
	li	a2,255
	li	a1,0
	mv	a0,s2
	call	map
.LVL248:
	.loc 1 726 19
	sh	a0,20(sp)
	j	.L195
.L196:
	.loc 1 729 8 is_stmt 1
	.loc 1 729 22 is_stmt 0
	li	a4,1000
	li	a3,0
	li	a2,255
	li	a1,0
	mv	a0,s1
	call	map
.LVL249:
	.loc 1 729 20
	sh	a0,26(sp)
	j	.L197
.L198:
	.loc 1 732 8 is_stmt 1
	.loc 1 732 23 is_stmt 0
	li	a4,1000
	li	a3,0
	li	a2,255
	li	a1,0
	mv	a0,s0
	call	map
.LVL250:
	.loc 1 732 21
	sh	a0,28(sp)
	j	.L199
	.cfi_endproc
.LFE45:
	.size	send_light_data_pwm_map, .-send_light_data_pwm_map
	.section	.text.dohome_reg_delay_post_cb,"ax",@progbits
	.align	1
	.globl	dohome_reg_delay_post_cb
	.type	dohome_reg_delay_post_cb, @function
dohome_reg_delay_post_cb:
.LFB49:
	.loc 1 800 65 is_stmt 1
	.cfi_startproc
.LVL251:
	.loc 1 801 2
	.loc 1 801 17 is_stmt 0
	lui	a5,%hi(.LANCHOR2)
	sw	a0,%lo(.LANCHOR2)(a5)
	.loc 1 802 1
	ret
	.cfi_endproc
.LFE49:
	.size	dohome_reg_delay_post_cb, .-dohome_reg_delay_post_cb
	.section	.text.dohome_reg_post_cb,"ax",@progbits
	.align	1
	.globl	dohome_reg_post_cb
	.type	dohome_reg_post_cb, @function
dohome_reg_post_cb:
.LFB50:
	.loc 1 804 53 is_stmt 1
	.cfi_startproc
.LVL252:
	.loc 1 805 2
	.loc 1 805 11 is_stmt 0
	lui	a5,%hi(.LANCHOR1)
	sw	a0,%lo(.LANCHOR1)(a5)
	.loc 1 806 1
	ret
	.cfi_endproc
.LFE50:
	.size	dohome_reg_post_cb, .-dohome_reg_post_cb
	.section	.text.light_init,"ax",@progbits
	.align	1
	.globl	light_init
	.type	light_init, @function
light_init:
.LFB51:
	.loc 1 813 1 is_stmt 1
	.cfi_startproc
	.loc 1 814 5
	.loc 1 815 2
	.loc 1 816 2
	.loc 1 816 7 is_stmt 0
	li	a5,50462720
	.loc 1 813 1
	addi	sp,sp,-64
	.cfi_def_cfa_offset 64
	.loc 1 816 7
	addi	a5,a5,261
	.loc 1 813 1
	sw	s2,48(sp)
	.loc 1 816 7
	sw	a5,8(sp)
	.cfi_offset 18, -16
	.loc 1 823 3
	li	s2,4096
	.loc 1 816 7
	li	a5,4
	.loc 1 813 1
	sw	s1,52(sp)
	sw	s4,40(sp)
	sw	s5,36(sp)
	sw	s6,32(sp)
	sw	s7,28(sp)
	sw	s8,24(sp)
	sw	ra,60(sp)
	sw	s0,56(sp)
	sw	s3,44(sp)
	.cfi_offset 9, -12
	.cfi_offset 20, -24
	.cfi_offset 21, -28
	.cfi_offset 22, -32
	.cfi_offset 23, -36
	.cfi_offset 24, -40
	.cfi_offset 1, -4
	.cfi_offset 8, -8
	.cfi_offset 19, -20
	.loc 1 816 7
	sb	a5,12(sp)
	.loc 1 818 2 is_stmt 1
.LVL253:
	.loc 1 818 9 is_stmt 0
	li	s1,0
	.loc 1 820 12
	li	s4,5
.LBB110:
.LBB111:
	.file 2 "/b-l/bl_iot_sdk/components/bl602/freertos_riscv_ram/portable/GCC/RISC-V/portmacro.h"
	.loc 2 151 31
	lui	s8,%hi(TrapNetCounter)
.LBE111:
.LBE110:
	.loc 1 821 16
	lui	s7,%hi(.LC4)
	lui	s6,%hi(.LC5)
	lui	s5,%hi(.LC6)
	.loc 1 823 3
	addi	s2,s2,904
.LVL254:
.L206:
	.loc 1 819 9 is_stmt 1
	.loc 1 819 13 is_stmt 0
	addi	a5,sp,8
	add	a5,a5,s1
	lbu	s3,0(a5)
.LVL255:
	.loc 1 820 9 is_stmt 1
	.loc 1 821 16 is_stmt 0
	lw	a5,%lo(TrapNetCounter)(s8)
	.loc 1 820 12
	remu	s0,s3,s4
.LVL256:
	.loc 1 821 9 is_stmt 1
	.loc 1 821 14
	.loc 1 821 16
.LBB113:
.LBB112:
	.loc 2 151 5
.LBE112:
.LBE113:
	.loc 1 821 16 is_stmt 0
	beq	a5,zero,.L204
	.loc 1 821 110 discriminator 1
	call	xTaskGetTickCountFromISR
.LVL257:
.L205:
	.loc 1 821 16 discriminator 4
	mv	a6,s3
	mv	a5,s0
	li	a4,821
	addi	a3,s7,%lo(.LC4)
	addi	a2,s6,%lo(.LC5)
	mv	a1,a0
	addi	a0,s5,%lo(.LC6)
	call	bl_printk
.LVL258:
	.loc 1 821 224 is_stmt 1 discriminator 4
	.loc 1 822 9 discriminator 4
	mv	a1,s3
	mv	a0,s0
	call	hal_pwm_init
.LVL259:
	.loc 1 823 3 discriminator 4
	mv	a1,s2
	mv	a0,s0
	call	hal_pwm_freq_update
.LVL260:
	.loc 1 824 3 discriminator 4
	li	a2,0
	li	a1,0
	mv	a0,s0
	call	hal_pwm_duty_set
.LVL261:
	.loc 1 825 3 discriminator 4
	mv	a0,s0
	.loc 1 818 35 is_stmt 0 discriminator 4
	addi	s1,s1,1
.LVL262:
	.loc 1 825 3 discriminator 4
	call	hal_pwm_start
.LVL263:
	.loc 1 818 2 discriminator 4
	bne	s1,s4,.L206
	.loc 1 831 2 is_stmt 1
	call	init_led_cfg_mode
.LVL264:
	.loc 1 832 2
	call	ambilight_init
.LVL265:
	.loc 1 834 2
	lui	a0,%hi(light_shutdown_cb)
	addi	a0,a0,%lo(light_shutdown_cb)
	call	reg_shutdown_callback
.LVL266:
	.loc 1 835 2
	.loc 1 836 1 is_stmt 0
	lw	s0,56(sp)
	.cfi_remember_state
	.cfi_restore 8
.LVL267:
	lw	ra,60(sp)
	.cfi_restore 1
	lw	s1,52(sp)
	.cfi_restore 9
.LVL268:
	lw	s2,48(sp)
	.cfi_restore 18
	lw	s3,44(sp)
	.cfi_restore 19
.LVL269:
	lw	s4,40(sp)
	.cfi_restore 20
	lw	s5,36(sp)
	.cfi_restore 21
	lw	s6,32(sp)
	.cfi_restore 22
	lw	s7,28(sp)
	.cfi_restore 23
	lw	s8,24(sp)
	.cfi_restore 24
	.loc 1 835 2
	lui	a0,%hi(light_boot_cb)
	.loc 1 836 1
	.loc 1 835 2
	addi	a0,a0,%lo(light_boot_cb)
	.loc 1 836 1
	addi	sp,sp,64
	.cfi_def_cfa_offset 0
	.loc 1 835 2
	tail	reg_boot_callback
.LVL270:
.L204:
	.cfi_restore_state
	.loc 1 821 139 discriminator 2
	call	xTaskGetTickCount
.LVL271:
	j	.L205
	.cfi_endproc
.LFE51:
	.size	light_init, .-light_init
	.globl	_post_cb
	.globl	_delay_post_cb
	.comm	pwm_mutex,4,4
	.comm	hanler_mutex,4,4
	.comm	task_sem,4,4
	.globl	step_color
	.globl	curr_color
	.globl	next_color
	.globl	prev_color
	.section	.bss.next_color,"aw",@nobits
	.align	2
	.set	.LANCHOR5,. + 0
	.type	next_color, @object
	.size	next_color, 12
next_color:
	.zero	12
	.section	.bss.prev_color,"aw",@nobits
	.align	2
	.set	.LANCHOR14,. + 0
	.type	prev_color, @object
	.size	prev_color, 12
prev_color:
	.zero	12
	.section	.bss.step_color,"aw",@nobits
	.align	2
	.set	.LANCHOR13,. + 0
	.type	step_color, @object
	.size	step_color, 12
step_color:
	.zero	12
	.section	.data.curr_color,"aw"
	.align	2
	.set	.LANCHOR4,. + 0
	.type	curr_color, @object
	.size	curr_color, 12
curr_color:
	.half	0
	.half	0
	.half	9999
	.half	0
	.half	0
	.zero	2
	.section	.rodata.init_led_cfg_mode.str1.4,"aMS",@progbits,1
	.align	2
.LC1:
	.string	"light_timer_task"
	.zero	3
.LC2:
	.string	"light_change_task"
	.section	.rodata.light_init.str1.4,"aMS",@progbits,1
	.align	2
.LC4:
	.string	"doit_light_driver.c"
.LC5:
	.string	"\033[32mINFO  \033[0m"
.LC6:
	.string	"[%10u][%s: %s:%4d] pwm init ch = %d, pin = %d\r\n"
	.section	.rodata.send_light_data.cst4,"aM",@progbits,4
	.align	2
.LC3:
	.word	1101004800
	.section	.sbss.LightTimer_Handle,"aw",@nobits
	.align	2
	.set	.LANCHOR0,. + 0
	.type	LightTimer_Handle, @object
	.size	LightTimer_Handle, 4
LightTimer_Handle:
	.zero	4
	.section	.sbss._delay_post_cb,"aw",@nobits
	.align	2
	.set	.LANCHOR2,. + 0
	.type	_delay_post_cb, @object
	.size	_delay_post_cb, 4
_delay_post_cb:
	.zero	4
	.section	.sbss._post_cb,"aw",@nobits
	.align	2
	.set	.LANCHOR1,. + 0
	.type	_post_cb, @object
	.size	_post_cb, 4
_post_cb:
	.zero	4
	.section	.sbss.b_scale.3496,"aw",@nobits
	.align	2
	.set	.LANCHOR10,. + 0
	.type	b_scale.3496, @object
	.size	b_scale.3496, 4
b_scale.3496:
	.zero	4
	.section	.sbss.g_scale.3495,"aw",@nobits
	.align	2
	.set	.LANCHOR9,. + 0
	.type	g_scale.3495, @object
	.size	g_scale.3495, 4
g_scale.3495:
	.zero	4
	.section	.sbss.led_cfg_mode,"aw",@nobits
	.set	.LANCHOR3,. + 0
	.type	led_cfg_mode, @object
	.size	led_cfg_mode, 1
led_cfg_mode:
	.zero	1
	.section	.sbss.led_smooth_count,"aw",@nobits
	.align	2
	.set	.LANCHOR7,. + 0
	.type	led_smooth_count, @object
	.size	led_smooth_count, 4
led_smooth_count:
	.zero	4
	.section	.sbss.r_scale.3494,"aw",@nobits
	.align	2
	.set	.LANCHOR8,. + 0
	.type	r_scale.3494, @object
	.size	r_scale.3494, 4
r_scale.3494:
	.zero	4
	.section	.sbss.step_color_flag,"aw",@nobits
	.align	2
	.set	.LANCHOR6,. + 0
	.type	step_color_flag, @object
	.size	step_color_flag, 4
step_color_flag:
	.zero	4
	.section	.sbss.w_scale.3497,"aw",@nobits
	.align	2
	.set	.LANCHOR11,. + 0
	.type	w_scale.3497, @object
	.size	w_scale.3497, 4
w_scale.3497:
	.zero	4
	.section	.sbss.ww_scale.3498,"aw",@nobits
	.align	2
	.set	.LANCHOR12,. + 0
	.type	ww_scale.3498, @object
	.size	ww_scale.3498, 4
ww_scale.3498:
	.zero	4
	.text
.Letext0:
	.file 3 "/b-l/bl_iot_sdk/toolchain/riscv/Linux/lib/gcc/riscv64-unknown-elf/8.3.0/include/stdint-gcc.h"
	.file 4 "/b-l/DoHome_Light_rgbcw/DoHome_Light_rgbcw/components/product/driver/include/doit_light_driver.h"
	.file 5 "/b-l/bl_iot_sdk/toolchain/riscv/Linux/lib/gcc/riscv64-unknown-elf/8.3.0/include/stddef.h"
	.file 6 "/b-l/bl_iot_sdk/toolchain/riscv/Linux/riscv64-unknown-elf/include/sys/_types.h"
	.file 7 "/b-l/bl_iot_sdk/toolchain/riscv/Linux/riscv64-unknown-elf/include/sys/reent.h"
	.file 8 "/b-l/bl_iot_sdk/toolchain/riscv/Linux/riscv64-unknown-elf/include/sys/lock.h"
	.file 9 "/b-l/bl_iot_sdk/components/bl602/freertos_riscv_ram/config/timers.h"
	.file 10 "/b-l/bl_iot_sdk/components/bl602/freertos_riscv_ram/config/queue.h"
	.file 11 "/b-l/bl_iot_sdk/components/bl602/freertos_riscv_ram/config/semphr.h"
	.file 12 "/b-l/DoHome_Light_rgbcw/DoHome_Light_rgbcw/components/product/include/product.h"
	.file 13 "/b-l/bl_iot_sdk/components/bl602/freertos_riscv_ram/config/task.h"
	.file 14 "/b-l/bl_iot_sdk/components/utils/include/utils_log.h"
	.file 15 "/b-l/bl_iot_sdk/components/hal_drv/bl602_hal/hal_pwm.h"
	.file 16 "/b-l/DoHome_Light_rgbcw/DoHome_Light_rgbcw/components/product/driver/include/doit_light_Ambilight.h"
	.file 17 "/b-l/DoHome_Light_rgbcw/DoHome_Light_rgbcw/components/doit_server/include/doit_timer.h"
	.file 18 "/b-l/DoHome_Light_rgbcw/DoHome_Light_rgbcw/components/doit_server/include/doit_flash.h"
	.file 19 "/b-l/DoHome_Light_rgbcw/DoHome_Light_rgbcw/components/product/driver/include/doit_light_effect.h"
	.file 20 "/b-l/DoHome_Light_rgbcw/DoHome_Light_rgbcw/components/doit_server/include/doit_utils.h"
	.file 21 "<built-in>"