	.file	"dhcp.c"
	.option nopic
	.attribute arch, "rv32i2p0_m2p0_f2p0_c2p0"
	.attribute unaligned_access, 0
	.attribute stack_align, 16
	.text
.Ltext0:
	.cfi_sections	.debug_frame
	.section	.text.dhcp_set_state,"ax",@progbits
	.align	1
	.type	dhcp_set_state, @function
dhcp_set_state:
.LFB31:
	.file 1 "/b-l/bl_iot_sdk/components/network/lwip/src/core/ipv4/dhcp.c"
	.loc 1 1418 1
	.cfi_startproc
.LVL0:
	.loc 1 1419 3
	.loc 1 1419 6 is_stmt 0
	lbu	a5,5(a0)
	beq	a5,a1,.L1
	.loc 1 1420 5 is_stmt 1
	.loc 1 1420 17 is_stmt 0
	sb	a1,5(a0)
	.loc 1 1421 5 is_stmt 1
	.loc 1 1421 17 is_stmt 0
	sb	zero,6(a0)
	.loc 1 1422 5 is_stmt 1
	.loc 1 1422 27 is_stmt 0
	sh	zero,8(a0)
.L1:
	.loc 1 1424 1
	ret
	.cfi_endproc
.LFE31:
	.size	dhcp_set_state, .-dhcp_set_state
	.section	.text.dhcp_option_short,"ax",@progbits
	.align	1
	.type	dhcp_option_short, @function
dhcp_option_short:
.LFB34:
	.loc 1 1453 1 is_stmt 1
	.cfi_startproc
.LVL1:
	.loc 1 1454 3
	.loc 1 1454 8
	.loc 1 1454 46
	.loc 1 1455 3
	.loc 1 1455 30 is_stmt 0
	add	a5,a1,a0
	.loc 1 1455 57
	srli	a4,a2,8
	.loc 1 1455 32
	sb	a4,0(a5)
	.loc 1 1456 3 is_stmt 1
.LVL2:
	.loc 1 1455 26 is_stmt 0
	addi	a5,a0,1
	.loc 1 1456 26
	slli	a5,a5,16
	srli	a5,a5,16
	addi	a0,a0,2
.LVL3:
	.loc 1 1456 30
	add	a1,a1,a5
.LVL4:
	.loc 1 1458 1
	slli	a0,a0,16
	.loc 1 1456 32
	sb	a2,0(a1)
	.loc 1 1457 3 is_stmt 1
	.loc 1 1458 1 is_stmt 0
	srli	a0,a0,16
	ret
	.cfi_endproc
.LFE34:
	.size	dhcp_option_short, .-dhcp_option_short
	.section	.text.dhcp_option_long,"ax",@progbits
	.align	1
	.type	dhcp_option_long, @function
dhcp_option_long:
.LFB35:
	.loc 1 1462 1 is_stmt 1
	.cfi_startproc
.LVL5:
	.loc 1 1463 3
	.loc 1 1463 8
	.loc 1 1463 46
	.loc 1 1464 3
	.loc 1 1464 30 is_stmt 0
	add	a5,a1,a0
	.loc 1 1464 62
	srli	a4,a2,24
	.loc 1 1464 32
	sb	a4,0(a5)
	.loc 1 1465 3 is_stmt 1
.LVL6:
	.loc 1 1464 26 is_stmt 0
	addi	a5,a0,1
	.loc 1 1465 26
	slli	a5,a5,16
	srli	a5,a5,16
	.loc 1 1465 30
	add	a5,a1,a5
	.loc 1 1465 62
	srli	a4,a2,16
	.loc 1 1465 32
	sb	a4,0(a5)
	.loc 1 1466 3 is_stmt 1
.LVL7:
	.loc 1 1465 26 is_stmt 0
	addi	a5,a0,2
	.loc 1 1466 26
	slli	a5,a5,16
	srli	a5,a5,16
	.loc 1 1466 30
	add	a5,a1,a5
	.loc 1 1466 62
	srli	a4,a2,8
	.loc 1 1466 32
	sb	a4,0(a5)
	.loc 1 1467 3 is_stmt 1
.LVL8:
	.loc 1 1466 26 is_stmt 0
	addi	a5,a0,3
	.loc 1 1467 26
	slli	a5,a5,16
	srli	a5,a5,16
	addi	a0,a0,4
.LVL9:
	.loc 1 1467 30
	add	a1,a1,a5
.LVL10:
	.loc 1 1469 1
	slli	a0,a0,16
	.loc 1 1467 32
	sb	a2,0(a1)
	.loc 1 1468 3 is_stmt 1
	.loc 1 1469 1 is_stmt 0
	srli	a0,a0,16
	ret
	.cfi_endproc
.LFE35:
	.size	dhcp_option_long, .-dhcp_option_long
	.section	.text.dhcp_create_msg,"ax",@progbits
	.align	1
	.type	dhcp_create_msg, @function
dhcp_create_msg:
.LFB39:
	.loc 1 1875 1 is_stmt 1
	.cfi_startproc
.LVL11:
	.loc 1 1876 3
	.loc 1 1877 3
	.loc 1 1878 3
	.loc 1 1879 3
	.loc 1 1887 3
	.loc 1 1897 3
	.loc 1 1897 8
	.loc 1 1875 1 is_stmt 0
	addi	sp,sp,-32
	.cfi_def_cfa_offset 32
	sw	ra,28(sp)
	sw	s0,24(sp)
	sw	s1,20(sp)
	sw	s2,16(sp)
	sw	s3,12(sp)
	sw	s4,8(sp)
	sw	s5,4(sp)
	sw	s6,0(sp)
	.cfi_offset 1, -4
	.cfi_offset 8, -8
	.cfi_offset 9, -12
	.cfi_offset 18, -16
	.cfi_offset 19, -20
	.cfi_offset 20, -24
	.cfi_offset 21, -28
	.cfi_offset 22, -32
	.loc 1 1897 11
	bne	a0,zero,.L6
.LVL12:
.L8:
	.loc 1 1897 2
	li	s5,0
.L5:
	.loc 1 1951 1
	lw	ra,28(sp)
	.cfi_remember_state
	.cfi_restore 1
	lw	s0,24(sp)
	.cfi_restore 8
	mv	a0,s5
	lw	s1,20(sp)
	.cfi_restore 9
	lw	s2,16(sp)
	.cfi_restore 18
	lw	s3,12(sp)
	.cfi_restore 19
	lw	s4,8(sp)
	.cfi_restore 20
	lw	s5,4(sp)
	.cfi_restore 21
	lw	s6,0(sp)
	.cfi_restore 22
	addi	sp,sp,32
	.cfi_def_cfa_offset 0
	jr	ra
.LVL13:
.L6:
	.cfi_restore_state
	.loc 1 1897 3 is_stmt 1 discriminator 2
	.loc 1 1898 3 discriminator 2
	.loc 1 1898 8 discriminator 2
	.loc 1 1898 11 is_stmt 0 discriminator 2
	beq	a1,zero,.L8
	mv	s2,a2
	mv	s3,a1
	mv	s1,a0
	.loc 1 1898 3 is_stmt 1 discriminator 2
	.loc 1 1899 3 discriminator 2
	.loc 1 1899 11 is_stmt 0 discriminator 2
	li	a2,640
.LVL14:
	li	a1,308
.LVL15:
	li	a0,182
.LVL16:
	mv	s4,a3
	call	pbuf_alloc
.LVL17:
	mv	s5,a0
.LVL18:
	.loc 1 1900 3 is_stmt 1 discriminator 2
	.loc 1 1900 6 is_stmt 0 discriminator 2
	beq	a0,zero,.L8
	.loc 1 1905 3 is_stmt 1
	.loc 1 1905 8
	.loc 1 1905 58
	.loc 1 1909 3
	.loc 1 1909 6 is_stmt 0
	li	a5,3
	bne	s2,a5,.L9
	.loc 1 1909 27 discriminator 1
	lbu	a5,5(s3)
	bne	a5,s2,.L10
.L9:
	.loc 1 1911 5 is_stmt 1
	.loc 1 1911 8 is_stmt 0
	lbu	a5,6(s3)
	lui	s0,%hi(.LANCHOR0)
	addi	s0,s0,%lo(.LANCHOR0)
	bne	a5,zero,.L11
	.loc 1 1913 7 is_stmt 1
	.loc 1 1913 21 is_stmt 0
	call	bl_rand
.LVL19:
	.loc 1 1913 11
	sw	a0,0(s0)
.L11:
	.loc 1 1918 5 is_stmt 1
	.loc 1 1918 15 is_stmt 0
	lw	a5,0(s0)
	sw	a5,0(s3)
.L10:
	.loc 1 1921 55 is_stmt 1
	.loc 1 1923 3
	.loc 1 1923 11 is_stmt 0
	lw	s0,4(s5)
.LVL20:
	.loc 1 1924 3 is_stmt 1
	li	a2,308
	li	a1,0
	.loc 1 1926 15 is_stmt 0
	li	s6,1
	.loc 1 1924 3
	mv	a0,s0
	call	memset
.LVL21:
	.loc 1 1926 3 is_stmt 1
	.loc 1 1926 15 is_stmt 0
	sb	s6,0(s0)
	.loc 1 1928 3 is_stmt 1
	.loc 1 1928 18 is_stmt 0
	sb	s6,1(s0)
	.loc 1 1929 3 is_stmt 1
	.loc 1 1929 24 is_stmt 0
	lbu	a5,64(s1)
	.loc 1 1929 17
	sb	a5,2(s0)
	.loc 1 1930 3 is_stmt 1
	.loc 1 1930 18 is_stmt 0
	lw	a0,0(s3)
	call	lwip_htonl
.LVL22:
	.loc 1 1930 16
	srli	a5,a0,8
	sb	a0,4(s0)
	sb	a5,5(s0)
	srli	a5,a0,16
	srli	a0,a0,24
	sb	a5,6(s0)
	sb	a0,7(s0)
	.loc 1 1934 3 is_stmt 1
	.loc 1 1934 27 is_stmt 0
	li	a5,4
	beq	s2,a5,.L12
	.loc 1 1934 50 discriminator 2
	addi	a5,s2,-7
	andi	a5,a5,0xff
	bleu	a5,s6,.L12
	.loc 1 1934 73 discriminator 3
	li	a5,3
	bne	s2,a5,.L13
	.loc 1 1936 46
	lbu	a5,5(s3)
	addi	a5,a5,-4
	.loc 1 1935 28
	andi	a5,a5,0xff
	bgtu	a5,s6,.L13
.L12:
	.loc 1 1937 5 is_stmt 1
	.loc 1 1937 76 is_stmt 0
	lw	a5,4(s1)
	.loc 1 1937 29
	srli	a4,a5,8
	sb	a5,12(s0)
	sb	a4,13(s0)
	srli	a4,a5,16
	srli	a5,a5,24
	sb	a4,14(s0)
	sb	a5,15(s0)
.L13:
	addi	a5,s1,58
	addi	a4,s0,28
	addi	s1,s1,64
.LVL23:
.L14:
	.loc 1 1941 5 is_stmt 1 discriminator 3
	.loc 1 1941 39 is_stmt 0 discriminator 3
	lbu	a3,0(a5)
	addi	a5,a5,1
.LVL24:
	addi	a4,a4,1
	.loc 1 1941 24 discriminator 3
	sb	a3,-1(a4)
	.loc 1 1939 3 discriminator 3
	bne	a5,s1,.L14
	.loc 1 1943 3 is_stmt 1
	.loc 1 1943 19 is_stmt 0
	li	a5,99
	sb	a5,236(s0)
	li	a4,-126
	sb	a5,239(s0)
	.loc 1 1945 3 is_stmt 1
.LVL25:
.LBB74:
.LBB75:
	.loc 1 1434 3
	.loc 1 1434 8
	.loc 1 1434 59
	.loc 1 1435 3
	.loc 1 1435 30 is_stmt 0
	li	a5,53
.LBE75:
.LBE74:
	.loc 1 1943 19
	sb	a4,237(s0)
.LBB78:
.LBB76:
	.loc 1 1435 30
	sb	a5,240(s0)
	.loc 1 1436 3 is_stmt 1
.LVL26:
.LBE76:
.LBE78:
	.loc 1 1943 19 is_stmt 0
	li	a4,83
.LBB79:
.LBB77:
	.loc 1 1436 30
	li	a5,1
	sb	a5,241(s0)
	.loc 1 1437 3 is_stmt 1
.LVL27:
.LBE77:
.LBE79:
	.loc 1 1946 3
.LBB80:
.LBB81:
	.loc 1 1446 3
	.loc 1 1446 8
	.loc 1 1446 40
	.loc 1 1447 3
.LBE81:
.LBE80:
	.loc 1 1943 19 is_stmt 0
	sb	a4,238(s0)
.LBB83:
.LBB82:
	.loc 1 1447 30
	sb	s2,242(s0)
	.loc 1 1448 3 is_stmt 1
.LVL28:
.LBE82:
.LBE83:
	.loc 1 1947 3
	.loc 1 1948 5
	.loc 1 1948 22 is_stmt 0
	li	a5,3
	sh	a5,0(s4)
	j	.L5
	.cfi_endproc
.LFE39:
	.size	dhcp_create_msg, .-dhcp_create_msg
	.section	.text.dhcp_option_trailer,"ax",@progbits
	.align	1
	.type	dhcp_option_trailer, @function
dhcp_option_trailer:
.LFB40:
	.loc 1 1961 1 is_stmt 1
	.cfi_startproc
.LVL29:
	.loc 1 1962 3
	.loc 1 1962 26 is_stmt 0
	addi	a5,a0,1
	slli	a5,a5,16
	.loc 1 1962 30
	add	a4,a1,a0
	.loc 1 1962 26
	srli	a5,a5,16
.LVL30:
	.loc 1 1962 30
	li	a3,-1
	sb	a3,0(a4)
	.loc 1 1964 3 is_stmt 1
	add	a1,a1,a5
.LVL31:
	.loc 1 1964 9 is_stmt 0
	li	a4,67
.L24:
	bleu	a5,a4,.L25
	.loc 1 1970 3 is_stmt 1 discriminator 2
	addi	a1,a5,240
	slli	a1,a1,16
	srli	a1,a1,16
	mv	a0,a2
	tail	pbuf_realloc
.LVL32:
.L25:
	.loc 1 1967 5
	.loc 1 1967 28 is_stmt 0
	addi	a5,a5,1
.LVL33:
	slli	a5,a5,16
	.loc 1 1967 32
	sb	zero,0(a1)
	.loc 1 1967 28
	srli	a5,a5,16
.LVL34:
	addi	a1,a1,1
	j	.L24
	.cfi_endproc
.LFE40:
	.size	dhcp_option_trailer, .-dhcp_option_trailer
	.section	.text.dhcp_discover,"ax",@progbits
	.align	1
	.type	dhcp_discover, @function
dhcp_discover:
.LFB23:
	.loc 1 982 1 is_stmt 1
	.cfi_startproc
.LVL35:
	.loc 1 983 3
	.loc 1 982 1 is_stmt 0
	addi	sp,sp,-48
	.cfi_def_cfa_offset 48
	sw	s3,28(sp)
	sw	ra,44(sp)
	sw	s0,40(sp)
	sw	s1,36(sp)
	sw	s2,32(sp)
	.cfi_offset 19, -20
	.cfi_offset 1, -4
	.cfi_offset 8, -8
	.cfi_offset 9, -12
	.cfi_offset 18, -16
	.loc 1 983 16
	lw	s1,40(a0)
.LVL36:
	.loc 1 984 3 is_stmt 1
	.loc 1 985 3
	.loc 1 986 3
	.loc 1 987 3
	.loc 1 988 3
	.loc 1 990 3
	.loc 1 992 3
	.loc 1 982 1 is_stmt 0
	mv	s3,a0
	.loc 1 993 3
	li	a1,6
	mv	a0,s1
.LVL37:
	.loc 1 992 35
	sw	zero,28(s1)
	.loc 1 993 3 is_stmt 1
	call	dhcp_set_state
.LVL38:
	.loc 1 995 3
	.loc 1 995 11 is_stmt 0
	addi	a3,sp,14
	li	a2,1
	mv	a1,s1
	mv	a0,s3
	call	dhcp_create_msg
.LVL39:
	.loc 1 996 3 is_stmt 1
	.loc 1 996 6 is_stmt 0
	beq	a0,zero,.L27
.LBB84:
	.loc 1 1000 59
	lw	s0,4(a0)
	.loc 1 1000 23
	lhu	a5,14(sp)
	mv	s2,a0
	.loc 1 997 5 is_stmt 1
.LVL40:
	.loc 1 998 5
	.loc 1 1000 5
	.loc 1 1000 59 is_stmt 0
	addi	s0,s0,240
.LVL41:
.LBB85:
.LBB86:
	.loc 1 1434 3 is_stmt 1
	.loc 1 1434 8
	.loc 1 1434 59
	.loc 1 1435 3
	.loc 1 1435 30 is_stmt 0
	add	a4,s0,a5
	.loc 1 1436 26
	addi	a0,a5,2
.LVL42:
	.loc 1 1435 26
	addi	a5,a5,1
.LVL43:
	.loc 1 1436 26
	slli	a5,a5,16
.LVL44:
	.loc 1 1435 30
	li	a3,57
	.loc 1 1436 26
	srli	a5,a5,16
	.loc 1 1435 30
	sb	a3,0(a4)
.LVL45:
	.loc 1 1436 3 is_stmt 1
	.loc 1 1436 30 is_stmt 0
	add	a5,s0,a5
	li	a4,2
	sb	a4,0(a5)
.LBE86:
.LBE85:
	.loc 1 1001 23
	lhu	a2,56(s3)
.LBB88:
.LBB87:
	.loc 1 1436 26
	slli	a0,a0,16
.LVL46:
	srli	a0,a0,16
.LVL47:
	.loc 1 1437 3 is_stmt 1
.LBE87:
.LBE88:
	.loc 1 1001 23 is_stmt 0
	mv	a1,s0
	.loc 1 1000 21
	sh	a0,14(sp)
	.loc 1 1001 5 is_stmt 1
	.loc 1 1001 23 is_stmt 0
	call	dhcp_option_short
.LVL48:
	.loc 1 1003 5 is_stmt 1
.LBB89:
.LBB90:
	.loc 1 1434 3
	.loc 1 1434 8
	.loc 1 1434 59
	.loc 1 1435 3
	.loc 1 1435 30 is_stmt 0
	add	a5,s0,a0
	li	a4,55
	sb	a4,0(a5)
	.loc 1 1436 3 is_stmt 1
.LVL49:
	.loc 1 1435 26 is_stmt 0
	addi	a5,a0,1
	.loc 1 1436 26
	slli	a5,a5,16
	srli	a5,a5,16
	.loc 1 1436 30
	add	a5,s0,a5
	li	a4,4
	sb	a4,0(a5)
	.loc 1 1437 3 is_stmt 1
.LVL50:
	.loc 1 1436 26 is_stmt 0
	addi	a0,a0,2
.LBE90:
.LBE89:
	.loc 1 1005 25
	lui	a3,%hi(.LANCHOR1)
	.loc 1 1003 21
	sh	a0,14(sp)
	.loc 1 1004 5 is_stmt 1
.LVL51:
	.loc 1 1003 21 is_stmt 0
	li	a5,0
	.loc 1 1005 25
	addi	a3,a3,%lo(.LANCHOR1)
	.loc 1 1004 5
	li	a2,4
.LVL52:
.L28:
	.loc 1 1005 7 is_stmt 1 discriminator 3
	.loc 1 1005 25 is_stmt 0 discriminator 3
	lhu	a4,14(sp)
	add	a1,a3,a5
	lbu	a1,0(a1)
.LVL53:
.LBB91:
.LBB92:
	.loc 1 1446 3 is_stmt 1 discriminator 3
	.loc 1 1446 8 discriminator 3
	.loc 1 1446 40 discriminator 3
	.loc 1 1447 3 discriminator 3
	.loc 1 1447 26 is_stmt 0 discriminator 3
	addi	a0,a4,1
	slli	a0,a0,16
	.loc 1 1447 30 discriminator 3
	add	a4,s0,a4
.LVL54:
	.loc 1 1447 26 discriminator 3
	srli	a0,a0,16
.LVL55:
	.loc 1 1447 30 discriminator 3
	sb	a1,0(a4)
	.loc 1 1448 3 is_stmt 1 discriminator 3
.LVL56:
.LBE92:
.LBE91:
	.loc 1 1005 23 is_stmt 0 discriminator 3
	sh	a0,14(sp)
.LVL57:
	addi	a5,a5,1
.LVL58:
	.loc 1 1004 5 discriminator 3
	bne	a5,a2,.L28
	.loc 1 1007 5 is_stmt 1
	.loc 1 1008 5
	mv	a2,s2
	mv	a1,s0
	call	dhcp_option_trailer
.LVL59:
	.loc 1 1010 5
	.loc 1 1011 5
	lui	a0,%hi(.LANCHOR2)
	lw	a0,%lo(.LANCHOR2)(a0)
	lui	a5,%hi(ip_addr_any)
	lui	a2,%hi(ip_addr_broadcast)
	addi	a5,a5,%lo(ip_addr_any)
	mv	a4,s3
	li	a3,67
	addi	a2,a2,%lo(ip_addr_broadcast)
	mv	a1,s2
	call	udp_sendto_if_src
.LVL60:
	.loc 1 1012 5
	.loc 1 1013 5
	mv	a0,s2
	call	pbuf_free
.LVL61:
	.loc 1 1014 5
.L27:
.LBE84:
	.loc 1 1016 5
	.loc 1 1018 3
	.loc 1 1018 11 is_stmt 0
	lbu	a5,6(s1)
	.loc 1 1018 6
	li	a4,255
	beq	a5,a4,.L29
	.loc 1 1019 5 is_stmt 1
	.loc 1 1019 16 is_stmt 0
	addi	a5,a5,1
	sb	a5,6(s1)
.L29:
	.loc 1 1027 3 is_stmt 1
	.loc 1 1027 24 is_stmt 0
	lbu	a4,6(s1)
	.loc 1 1027 11
	li	a5,5
	bgtu	a4,a5,.L31
	.loc 1 1027 40 discriminator 1
	li	a5,1
	sll	a5,a5,a4
	.loc 1 1027 11 discriminator 1
	li	a4,1000
	mul	a5,a5,a4
	slli	a5,a5,16
	srli	a5,a5,16
.L30:
.LVL62:
	.loc 1 1028 3 is_stmt 1 discriminator 4
	.loc 1 1028 48 is_stmt 0 discriminator 4
	addi	a5,a5,499
.LVL63:
	.loc 1 1028 53 discriminator 4
	li	a4,500
	div	a5,a5,a4
	.loc 1 1031 1 discriminator 4
	li	a0,0
	.loc 1 1028 27 discriminator 4
	sh	a5,8(s1)
	.loc 1 1029 3 is_stmt 1 discriminator 4
	.loc 1 1030 3 discriminator 4
	.loc 1 1031 1 is_stmt 0 discriminator 4
	lw	ra,44(sp)
	.cfi_remember_state
	.cfi_restore 1
	lw	s0,40(sp)
	.cfi_restore 8
	lw	s1,36(sp)
	.cfi_restore 9
.LVL64:
	lw	s2,32(sp)
	.cfi_restore 18
	lw	s3,28(sp)
	.cfi_restore 19
.LVL65:
	addi	sp,sp,48
	.cfi_def_cfa_offset 0
	jr	ra
.LVL66:
.L31:
	.cfi_restore_state
	.loc 1 1027 11
	li	a5,61440
	addi	a5,a5,-1440
	j	.L30
	.cfi_endproc
.LFE23:
	.size	dhcp_discover, .-dhcp_discover
	.section	.text.dhcp_check,"ax",@progbits
	.align	1
	.type	dhcp_check, @function
dhcp_check:
.LFB7:
	.loc 1 304 1 is_stmt 1
	.cfi_startproc
.LVL67:
	.loc 1 305 3
	.loc 1 304 1 is_stmt 0
	addi	sp,sp,-16
	.cfi_def_cfa_offset 16
	sw	ra,12(sp)
	sw	s1,4(sp)
	sw	s0,8(sp)
	.cfi_offset 1, -4
	.cfi_offset 9, -12
	.cfi_offset 8, -8
	.loc 1 305 16
	lw	s0,40(a0)
.LVL68:
	.loc 1 306 3 is_stmt 1
	.loc 1 307 3
	.loc 1 309 38
	.loc 1 310 3
	.loc 1 304 1 is_stmt 0
	mv	s1,a0
	.loc 1 310 3
	li	a1,8
	mv	a0,s0
.LVL69:
	call	dhcp_set_state
.LVL70:
	.loc 1 313 3 is_stmt 1
	.loc 1 313 12 is_stmt 0
	li	a2,0
	addi	a1,s0,28
	mv	a0,s1
	call	etharp_query
.LVL71:
	.loc 1 314 3 is_stmt 1
	.loc 1 315 5
	.loc 1 317 3
	.loc 1 317 11 is_stmt 0
	lbu	a5,6(s0)
	.loc 1 317 6
	li	a4,255
	beq	a5,a4,.L38
	.loc 1 318 5 is_stmt 1
	.loc 1 318 16 is_stmt 0
	addi	a5,a5,1
	sb	a5,6(s0)
.L38:
	.loc 1 320 3 is_stmt 1
.LVL72:
	.loc 1 321 3
	.loc 1 321 25 is_stmt 0
	li	a5,1
	sh	a5,8(s0)
	.loc 1 322 3 is_stmt 1
	.loc 1 323 1 is_stmt 0
	lw	ra,12(sp)
	.cfi_restore 1
	lw	s0,8(sp)
	.cfi_restore 8
.LVL73:
	lw	s1,4(sp)
	.cfi_restore 9
.LVL74:
	addi	sp,sp,16
	.cfi_def_cfa_offset 0
	jr	ra
	.cfi_endproc
.LFE7:
	.size	dhcp_check, .-dhcp_check
	.section	.text.dhcp_bind,"ax",@progbits
	.align	1
	.type	dhcp_bind, @function
dhcp_bind:
.LFB24:
	.loc 1 1041 1 is_stmt 1
	.cfi_startproc
.LVL75:
	.loc 1 1042 3
	.loc 1 1043 3
	.loc 1 1044 3
	.loc 1 1045 3
	.loc 1 1045 8
	.loc 1 1045 11 is_stmt 0
	beq	a0,zero,.L78
	.loc 1 1045 17 is_stmt 1 discriminator 2
	.loc 1 1046 3 discriminator 2
	.loc 1 1041 1 is_stmt 0 discriminator 2
	addi	sp,sp,-32
	.cfi_def_cfa_offset 32
	sw	ra,28(sp)
	sw	s0,24(sp)
	sw	s1,20(sp)
	.cfi_offset 1, -4
	.cfi_offset 8, -8
	.cfi_offset 9, -12
	.loc 1 1046 8 discriminator 2
	lw	s0,40(a0)
.LVL76:
	.loc 1 1047 3 is_stmt 1 discriminator 2
	.loc 1 1047 8 discriminator 2
	.loc 1 1047 11 is_stmt 0 discriminator 2
	beq	s0,zero,.L40
	.loc 1 1047 17 is_stmt 1 discriminator 2
	.loc 1 1048 3 discriminator 2
	.loc 1 1051 3 discriminator 2
	.loc 1 1053 11 is_stmt 0 discriminator 2
	lw	a5,40(s0)
	.loc 1 1051 20 discriminator 2
	sh	zero,18(s0)
	.loc 1 1053 3 is_stmt 1 discriminator 2
	.loc 1 1053 6 is_stmt 0 discriminator 2
	li	a4,-1
	beq	a5,a4,.L43
	.loc 1 1055 5 is_stmt 1
	.loc 1 1056 5
	.loc 1 1056 39 is_stmt 0
	addi	a5,a5,30
.LVL77:
	.loc 1 1057 5 is_stmt 1
	.loc 1 1057 8 is_stmt 0
	li	a4,3932160
	bgeu	a5,a4,.L62
	.loc 1 1056 13
	li	a4,60
	divu	a5,a5,a4
.LVL78:
	.loc 1 1060 5 is_stmt 1
	.loc 1 1060 24 is_stmt 0
	slli	a4,a5,16
	srli	a4,a4,16
	.loc 1 1061 5 is_stmt 1
	.loc 1 1061 8 is_stmt 0
	beq	a5,zero,.L45
.LVL79:
.L74:
	.loc 1 1060 22
	sh	a4,20(s0)
.L43:
	.loc 1 1064 5 is_stmt 1
	.loc 1 1068 3
	.loc 1 1068 11 is_stmt 0
	lw	a5,44(s0)
	.loc 1 1068 6
	li	a4,-1
	beq	a5,a4,.L47
	.loc 1 1070 5 is_stmt 1
	.loc 1 1071 5
	.loc 1 1071 39 is_stmt 0
	addi	a5,a5,30
.LVL80:
	.loc 1 1072 5 is_stmt 1
	.loc 1 1072 8 is_stmt 0
	li	a4,3932160
	bgeu	a5,a4,.L63
	.loc 1 1071 13
	li	a4,60
	divu	a5,a5,a4
.LVL81:
	.loc 1 1075 5 is_stmt 1
	.loc 1 1075 24 is_stmt 0
	slli	a4,a5,16
	srli	a4,a4,16
	.loc 1 1076 5 is_stmt 1
	.loc 1 1076 8 is_stmt 0
	beq	a5,zero,.L49
.LVL82:
.L75:
	.loc 1 1075 22
	sh	a4,10(s0)
.L50:
	.loc 1 1079 5 is_stmt 1
	.loc 1 1080 5
	.loc 1 1080 25 is_stmt 0
	lhu	a5,10(s0)
	sh	a5,14(s0)
.L47:
	.loc 1 1083 3 is_stmt 1
	.loc 1 1083 11 is_stmt 0
	lw	a5,48(s0)
	.loc 1 1083 6
	li	a4,-1
	beq	a5,a4,.L51
	.loc 1 1084 5 is_stmt 1
	.loc 1 1085 5
	.loc 1 1085 40 is_stmt 0
	addi	a5,a5,30
.LVL83:
	.loc 1 1086 5 is_stmt 1
	.loc 1 1086 8 is_stmt 0
	li	a4,3932160
	bgeu	a5,a4,.L64
	.loc 1 1085 13
	li	a4,60
	divu	a5,a5,a4
.LVL84:
	.loc 1 1089 5 is_stmt 1
	.loc 1 1089 24 is_stmt 0
	slli	a4,a5,16
	srli	a4,a4,16
	.loc 1 1090 5 is_stmt 1
	.loc 1 1090 8 is_stmt 0
	beq	a5,zero,.L53
.LVL85:
.L76:
	.loc 1 1089 22
	sh	a4,12(s0)
.L54:
	.loc 1 1093 5 is_stmt 1
	.loc 1 1094 5
	.loc 1 1094 26 is_stmt 0
	lhu	a5,12(s0)
	sh	a5,16(s0)
.L51:
	.loc 1 1098 3 is_stmt 1
	.loc 1 1098 32 is_stmt 0
	lhu	a5,12(s0)
	.loc 1 1098 6
	lhu	a4,10(s0)
	bltu	a4,a5,.L55
	.loc 1 1098 46 discriminator 1
	beq	a5,zero,.L55
	.loc 1 1099 5 is_stmt 1
	.loc 1 1099 22 is_stmt 0
	sh	zero,10(s0)
.L55:
	.loc 1 1102 3 is_stmt 1
	.loc 1 1102 6 is_stmt 0
	lbu	a5,7(s0)
	beq	a5,zero,.L56
	.loc 1 1104 5 is_stmt 1
	.loc 1 1104 21 is_stmt 0
	lw	a5,32(s0)
.L81:
.LBB93:
	.loc 1 1113 25
	sw	a5,8(sp)
.LBE93:
	.loc 1 1117 3 is_stmt 1
	.loc 1 1117 44 is_stmt 0
	lw	a5,36(s0)
	.loc 1 1117 19
	sw	a5,12(sp)
	.loc 1 1119 3 is_stmt 1
	.loc 1 1119 6 is_stmt 0
	bne	a5,zero,.L60
	.loc 1 1121 5 is_stmt 1
	.loc 1 1121 10
	.loc 1 1123 5
	.loc 1 1121 63 is_stmt 0
	lw	a4,8(sp)
	lw	a5,28(s0)
	and	a5,a5,a4
	.loc 1 1123 45
	li	a4,16777216
	or	a5,a5,a4
	.loc 1 1123 23
	sw	a5,12(sp)
.L60:
	mv	s1,a0
	.loc 1 1134 113 is_stmt 1
	.loc 1 1137 3
	li	a1,10
	mv	a0,s0
.LVL86:
	call	dhcp_set_state
.LVL87:
	.loc 1 1139 3
	addi	a3,sp,12
	addi	a2,sp,8
	addi	a1,s0,28
	mv	a0,s1
	call	netif_set_addr
.LVL88:
.L40:
	.loc 1 1141 1 is_stmt 0
	lw	ra,28(sp)
	.cfi_remember_state
	.cfi_restore 1
	lw	s0,24(sp)
	.cfi_restore 8
.LVL89:
	lw	s1,20(sp)
	.cfi_restore 9
	addi	sp,sp,32
	.cfi_def_cfa_offset 0
	jr	ra
.LVL90:
.L62:
	.cfi_restore_state
	.loc 1 1058 15
	li	a4,65536
	addi	a4,a4,-1
	j	.L74
.LVL91:
.L45:
	.loc 1 1062 7 is_stmt 1
	.loc 1 1062 24 is_stmt 0
	li	a5,1
.LVL92:
	sh	a5,20(s0)
	j	.L43
.LVL93:
.L63:
	.loc 1 1073 15
	li	a4,65536
	addi	a4,a4,-1
	j	.L75
.LVL94:
.L49:
	.loc 1 1077 7 is_stmt 1
	.loc 1 1077 24 is_stmt 0
	li	a5,1
.LVL95:
	sh	a5,10(s0)
	j	.L50
.LVL96:
.L64:
	.loc 1 1087 15
	li	a4,65536
	addi	a4,a4,-1
	j	.L76
.LVL97:
.L53:
	.loc 1 1091 7 is_stmt 1
	.loc 1 1091 24 is_stmt 0
	li	a5,1
.LVL98:
	sh	a5,12(s0)
	j	.L54
.LVL99:
.L56:
.LBB94:
	.loc 1 1107 5 is_stmt 1
	.loc 1 1107 10 is_stmt 0
	lbu	a5,28(s0)
.LVL100:
	.loc 1 1108 5 is_stmt 1
	.loc 1 1108 8 is_stmt 0
	slli	a4,a5,24
	srai	a4,a4,24
	blt	a4,zero,.L58
	.loc 1 1109 7 is_stmt 1
	.loc 1 1109 25 is_stmt 0
	li	a5,255
.LVL101:
	j	.L81
.LVL102:
.L58:
	.loc 1 1110 12 is_stmt 1
	.loc 1 1110 15 is_stmt 0
	li	a4,191
	bleu	a5,a4,.L59
	.loc 1 1111 7 is_stmt 1
	.loc 1 1111 25 is_stmt 0
	li	a5,16777216
.LVL103:
.L82:
	.loc 1 1113 25
	addi	a5,a5,-1
	j	.L81
.LVL104:
.L59:
	.loc 1 1113 7 is_stmt 1
	.loc 1 1113 25 is_stmt 0
	li	a5,65536
.LVL105:
	j	.L82
.LVL106:
.L78:
	.cfi_def_cfa_offset 0
	.cfi_restore 1
	.cfi_restore 8
	.cfi_restore 9
	ret
.LBE94:
	.cfi_endproc
.LFE24:
	.size	dhcp_bind, .-dhcp_bind
	.section	.text.dhcp_inc_pcb_refcount,"ax",@progbits
	.align	1
	.type	dhcp_inc_pcb_refcount, @function
dhcp_inc_pcb_refcount:
.LFB4:
	.loc 1 227 1 is_stmt 1
	.cfi_startproc
	.loc 1 228 3
	.loc 1 227 1 is_stmt 0
	addi	sp,sp,-16
	.cfi_def_cfa_offset 16
	sw	s0,8(sp)
	.cfi_offset 8, -8
	.loc 1 228 25
	lui	s0,%hi(.LANCHOR3)
	.loc 1 228 6
	lbu	a5,%lo(.LANCHOR3)(s0)
	.loc 1 227 1
	sw	ra,12(sp)
	sw	s1,4(sp)
	sw	s2,0(sp)
	.cfi_offset 1, -4
	.cfi_offset 9, -12
	.cfi_offset 18, -16
	addi	s0,s0,%lo(.LANCHOR3)
	.loc 1 228 6
	bne	a5,zero,.L84
	.loc 1 229 5 is_stmt 1
	.loc 1 229 10
	.loc 1 229 9
	.loc 1 232 5
	.loc 1 232 14 is_stmt 0
	lui	s1,%hi(.LANCHOR2)
	.loc 1 232 16
	call	udp_new
.LVL107:
	.loc 1 232 14
	addi	s1,s1,%lo(.LANCHOR2)
	sw	a0,0(s1)
	.loc 1 234 5 is_stmt 1
	.loc 1 235 14 is_stmt 0
	li	a4,-1
	.loc 1 234 8
	beq	a0,zero,.L85
	.loc 1 238 5 is_stmt 1
	.loc 1 238 31 is_stmt 0
	lbu	a4,9(a0)
	.loc 1 241 5
	lui	s2,%hi(ip_addr_any)
	li	a2,68
	.loc 1 238 31
	ori	a4,a4,32
	.loc 1 238 29
	sb	a4,9(a0)
	.loc 1 241 5 is_stmt 1
	addi	a1,s2,%lo(ip_addr_any)
	call	udp_bind
.LVL108:
	.loc 1 242 5
	lw	a0,0(s1)
	li	a2,67
	addi	a1,s2,%lo(ip_addr_any)
	call	udp_connect
.LVL109:
	.loc 1 243 5
	lw	a0,0(s1)
	lui	a1,%hi(dhcp_recv)
	li	a2,0
	addi	a1,a1,%lo(dhcp_recv)
	call	udp_recv
.LVL110:
.L84:
	.loc 1 246 3
	.loc 1 246 20 is_stmt 0
	lbu	a5,0(s0)
	.loc 1 248 10
	li	a4,0
	.loc 1 246 20
	addi	a5,a5,1
	sb	a5,0(s0)
	.loc 1 248 3 is_stmt 1
.L85:
	.loc 1 249 1 is_stmt 0
	lw	ra,12(sp)
	.cfi_restore 1
	lw	s0,8(sp)
	.cfi_restore 8
	lw	s1,4(sp)
	.cfi_restore 9
	lw	s2,0(sp)
	.cfi_restore 18
	mv	a0,a4
	addi	sp,sp,16
	.cfi_def_cfa_offset 0
	jr	ra
	.cfi_endproc
.LFE4:
	.size	dhcp_inc_pcb_refcount, .-dhcp_inc_pcb_refcount
	.section	.text.dhcp_option_hostname.isra.0,"ax",@progbits
	.align	1
	.type	dhcp_option_hostname.isra.0, @function
dhcp_option_hostname.isra.0:
.LFB42:
	.loc 1 1473 1 is_stmt 1
	.cfi_startproc
.LVL111:
	.loc 1 1475 3
	.loc 1 1473 1 is_stmt 0
	addi	sp,sp,-32
	.cfi_def_cfa_offset 32
	sw	s0,24(sp)
	sw	ra,28(sp)
	.cfi_offset 8, -8
	.cfi_offset 1, -4
	.loc 1 1473 1
	mv	s0,a0
	.loc 1 1475 12
	lw	a0,0(a2)
.LVL112:
	.loc 1 1473 1
	sw	a1,12(sp)
	.loc 1 1475 12
	sw	a2,8(sp)
	.loc 1 1475 6
	beq	a0,zero,.L90
.LBB95:
	.loc 1 1476 5 is_stmt 1
	.loc 1 1476 22 is_stmt 0
	call	strlen
.LVL113:
	.loc 1 1477 5 is_stmt 1
	.loc 1 1477 8 is_stmt 0
	beq	a0,zero,.L90
.LBB96:
	.loc 1 1478 7 is_stmt 1
	.loc 1 1479 7
	.loc 1 1479 19 is_stmt 0
	lw	a2,8(sp)
	.loc 1 1482 14
	li	a4,65
	sub	a4,a4,s0
	.loc 1 1479 19
	lw	a2,0(a2)
.LVL114:
	.loc 1 1482 7 is_stmt 1
	.loc 1 1483 7
	.loc 1 1483 12
	.loc 1 1483 43
	.loc 1 1484 7
	.loc 1 1484 11 is_stmt 0
	lw	a1,12(sp)
	bleu	a4,a0,.L92
	mv	a4,a0
.LVL115:
.L92:
	.loc 1 1485 7 is_stmt 1
	.loc 1 1485 12
	.loc 1 1485 34
	.loc 1 1486 7
.LBB97:
.LBB98:
	.loc 1 1434 3
	.loc 1 1434 8
	.loc 1 1434 59
	.loc 1 1435 3
	.loc 1 1435 30 is_stmt 0
	add	a5,a1,s0
	li	a3,12
	sb	a3,0(a5)
	.loc 1 1436 3 is_stmt 1
	.loc 1 1435 26 is_stmt 0
	addi	a5,s0,1
	.loc 1 1436 26
	addi	a3,s0,2
	slli	a5,a5,16
	slli	a3,a3,16
	srli	a5,a5,16
	.loc 1 1436 30
	add	a5,a1,a5
	.loc 1 1436 26
	srli	a3,a3,16
.LVL116:
.LBE98:
.LBE97:
	.loc 1 1486 25
	sb	a4,0(a5)
.LBB100:
.LBB99:
	.loc 1 1437 3 is_stmt 1
.LVL117:
.LBE99:
.LBE100:
	.loc 1 1487 7
	add	a0,a2,a4
.LVL118:
	.loc 1 1486 25 is_stmt 0
	mv	a5,a3
.LVL119:
.L93:
	.loc 1 1487 13
	bne	a2,a0,.L94
	add	s0,a3,a4
.LVL120:
	slli	s0,s0,16
	srli	s0,s0,16
.LVL121:
.L90:
.LBE96:
.LBE95:
	.loc 1 1492 3 is_stmt 1
	.loc 1 1493 1 is_stmt 0
	mv	a0,s0
	lw	ra,28(sp)
	.cfi_remember_state
	.cfi_restore 1
	lw	s0,24(sp)
	.cfi_restore 8
.LVL122:
	addi	sp,sp,32
	.cfi_def_cfa_offset 0
.LVL123:
	jr	ra
.LVL124:
.L94:
	.cfi_restore_state
.LBB104:
.LBB103:
	.loc 1 1488 9 is_stmt 1
	.loc 1 1488 72 is_stmt 0
	addi	a2,a2,1
.LVL125:
	.loc 1 1488 27
	lbu	a7,-1(a2)
.LVL126:
.LBB101:
.LBB102:
	.loc 1 1446 3 is_stmt 1
	.loc 1 1446 8
	.loc 1 1446 40
	.loc 1 1447 3
	.loc 1 1447 26 is_stmt 0
	addi	a6,a5,1
.LVL127:
	.loc 1 1447 30
	add	a5,a1,a5
.LVL128:
	sb	a7,0(a5)
	.loc 1 1448 3 is_stmt 1
.LVL129:
.LBE102:
.LBE101:
	.loc 1 1488 27 is_stmt 0
	slli	a5,a6,16
	srli	a5,a5,16
	j	.L93
.LBE103:
.LBE104:
	.cfi_endproc
.LFE42:
	.size	dhcp_option_hostname.isra.0, .-dhcp_option_hostname.isra.0
	.section	.text.dhcp_reboot,"ax",@progbits
	.align	1
	.type	dhcp_reboot, @function
dhcp_reboot:
.LFB27:
	.loc 1 1261 1 is_stmt 1
	.cfi_startproc
.LVL130:
	.loc 1 1262 3
	.loc 1 1261 1 is_stmt 0
	addi	sp,sp,-48
	.cfi_def_cfa_offset 48
	sw	ra,44(sp)
	sw	s0,40(sp)
	sw	s3,28(sp)
	sw	s1,36(sp)
	sw	s2,32(sp)
	sw	s4,24(sp)
	sw	s5,20(sp)
	.cfi_offset 1, -4
	.cfi_offset 8, -8
	.cfi_offset 19, -20
	.cfi_offset 9, -12
	.cfi_offset 18, -16
	.cfi_offset 20, -24
	.cfi_offset 21, -28
	.loc 1 1262 16
	lw	s1,40(a0)
.LVL131:
	.loc 1 1263 3 is_stmt 1
	.loc 1 1264 3
	.loc 1 1265 3
	.loc 1 1266 3
	.loc 1 1267 3
	.loc 1 1269 3
	.loc 1 1270 3
	.loc 1 1261 1 is_stmt 0
	mv	s3,a0
	.loc 1 1270 3
	li	a1,3
	mv	a0,s1
.LVL132:
	call	dhcp_set_state
.LVL133:
	.loc 1 1273 3 is_stmt 1
	.loc 1 1273 11 is_stmt 0
	addi	a3,sp,14
	li	a2,3
	mv	a1,s1
	mv	a0,s3
	call	dhcp_create_msg
.LVL134:
	.loc 1 1274 3 is_stmt 1
	li	s0,-1
	.loc 1 1274 6 is_stmt 0
	beq	a0,zero,.L100
.LBB105:
	.loc 1 1276 59
	lw	s0,4(a0)
	.loc 1 1276 23
	lhu	a5,14(sp)
	mv	s2,a0
	.loc 1 1275 5 is_stmt 1
.LVL135:
	.loc 1 1276 5
	.loc 1 1276 59 is_stmt 0
	addi	s0,s0,240
.LVL136:
.LBB106:
.LBB107:
	.loc 1 1434 3 is_stmt 1
	.loc 1 1434 8
	.loc 1 1434 59
	.loc 1 1435 3
	.loc 1 1435 30 is_stmt 0
	add	a4,s0,a5
	.loc 1 1436 26
	addi	a0,a5,2
.LVL137:
	.loc 1 1435 26
	addi	a5,a5,1
.LVL138:
	.loc 1 1436 26
	slli	a5,a5,16
.LVL139:
	.loc 1 1435 30
	li	a3,57
	.loc 1 1436 26
	srli	a5,a5,16
	.loc 1 1435 30
	sb	a3,0(a4)
.LVL140:
	.loc 1 1436 3 is_stmt 1
	.loc 1 1436 30 is_stmt 0
	add	a5,s0,a5
	li	a4,2
	.loc 1 1436 26
	slli	a0,a0,16
.LVL141:
	.loc 1 1436 30
	sb	a4,0(a5)
.LBE107:
.LBE106:
	.loc 1 1277 23
	li	a2,576
	mv	a1,s0
.LBB109:
.LBB108:
	.loc 1 1436 26
	srli	a0,a0,16
.LVL142:
	.loc 1 1437 3 is_stmt 1
.LBE108:
.LBE109:
	.loc 1 1276 21 is_stmt 0
	sh	a0,14(sp)
	.loc 1 1277 5 is_stmt 1
	.loc 1 1277 23 is_stmt 0
	call	dhcp_option_short
.LVL143:
	.loc 1 1279 5 is_stmt 1
.LBB110:
.LBB111:
	.loc 1 1434 3
	.loc 1 1434 8
	.loc 1 1434 59
	.loc 1 1435 3
	.loc 1 1435 30 is_stmt 0
	add	a5,s0,a0
	.loc 1 1436 26
	addi	s4,a0,2
	.loc 1 1435 26
	addi	a0,a0,1
.LVL144:
	.loc 1 1436 26
	slli	a0,a0,16
	.loc 1 1435 30
	li	a4,50
	.loc 1 1436 26
	srli	a0,a0,16
	.loc 1 1435 30
	sb	a4,0(a5)
	.loc 1 1436 3 is_stmt 1
	.loc 1 1436 30 is_stmt 0
	add	a0,s0,a0
	li	s5,4
	sb	s5,0(a0)
.LBE111:
.LBE110:
	.loc 1 1280 23
	lw	a0,28(s1)
.LBB113:
.LBB112:
	.loc 1 1436 26
	slli	s4,s4,16
	srli	s4,s4,16
.LVL145:
	.loc 1 1437 3 is_stmt 1
.LBE112:
.LBE113:
	.loc 1 1279 21 is_stmt 0
	sh	s4,14(sp)
	.loc 1 1280 5 is_stmt 1
	.loc 1 1280 23 is_stmt 0
	call	lwip_htonl
.LVL146:
	mv	a2,a0
	mv	a1,s0
	mv	a0,s4
	call	dhcp_option_long
.LVL147:
	.loc 1 1282 5 is_stmt 1
.LBB114:
.LBB115:
	.loc 1 1434 3
	.loc 1 1434 8
	.loc 1 1434 59
	.loc 1 1435 3
	.loc 1 1435 30 is_stmt 0
	add	a5,s0,a0
	li	a4,55
	sb	a4,0(a5)
	.loc 1 1436 3 is_stmt 1
.LVL148:
	.loc 1 1435 26 is_stmt 0
	addi	a5,a0,1
	.loc 1 1436 26
	slli	a5,a5,16
	srli	a5,a5,16
	.loc 1 1436 30
	add	a5,s0,a5
	sb	s5,0(a5)
	.loc 1 1437 3 is_stmt 1
.LVL149:
	.loc 1 1436 26 is_stmt 0
	addi	a0,a0,2
.LBE115:
.LBE114:
	.loc 1 1284 25
	lui	a3,%hi(.LANCHOR1)
	.loc 1 1282 21
	sh	a0,14(sp)
	.loc 1 1283 5 is_stmt 1
.LVL150:
	.loc 1 1282 21 is_stmt 0
	li	a5,0
	.loc 1 1284 25
	addi	a3,a3,%lo(.LANCHOR1)
	.loc 1 1283 5
	li	a2,4
.LVL151:
.L101:
	.loc 1 1284 7 is_stmt 1 discriminator 3
	.loc 1 1284 25 is_stmt 0 discriminator 3
	lhu	a4,14(sp)
	add	a1,a3,a5
	lbu	a1,0(a1)
.LVL152:
.LBB116:
.LBB117:
	.loc 1 1446 3 is_stmt 1 discriminator 3
	.loc 1 1446 8 discriminator 3
	.loc 1 1446 40 discriminator 3
	.loc 1 1447 3 discriminator 3
	.loc 1 1447 26 is_stmt 0 discriminator 3
	addi	a0,a4,1
	slli	a0,a0,16
	.loc 1 1447 30 discriminator 3
	add	a4,s0,a4
.LVL153:
	.loc 1 1447 26 discriminator 3
	srli	a0,a0,16
.LVL154:
	.loc 1 1447 30 discriminator 3
	sb	a1,0(a4)
	.loc 1 1448 3 is_stmt 1 discriminator 3
.LVL155:
.LBE117:
.LBE116:
	.loc 1 1284 23 is_stmt 0 discriminator 3
	sh	a0,14(sp)
.LVL156:
	addi	a5,a5,1
.LVL157:
	.loc 1 1283 5 discriminator 3
	bne	a5,a2,.L101
	.loc 1 1288 5 is_stmt 1
	.loc 1 1288 23 is_stmt 0
	mv	a1,s0
	addi	a2,s3,52
	call	dhcp_option_hostname.isra.0
.LVL158:
	.loc 1 1292 5
	mv	a1,s0
	mv	a2,s2
	.loc 1 1288 21
	sh	a0,14(sp)
	.loc 1 1291 5 is_stmt 1
	.loc 1 1292 5
	call	dhcp_option_trailer
.LVL159:
	.loc 1 1295 5
	.loc 1 1295 14 is_stmt 0
	lui	a5,%hi(.LANCHOR2)
	lw	a0,%lo(.LANCHOR2)(a5)
	lui	a2,%hi(ip_addr_broadcast)
	mv	a4,s3
	li	a3,67
	addi	a2,a2,%lo(ip_addr_broadcast)
	mv	a1,s2
	call	udp_sendto_if
.LVL160:
	mv	s0,a0
.LVL161:
	.loc 1 1296 5 is_stmt 1
	mv	a0,s2
	call	pbuf_free
.LVL162:
	.loc 1 1297 5
.L100:
.LBE105:
	.loc 1 1302 3
	.loc 1 1302 11 is_stmt 0
	lbu	a5,6(s1)
	.loc 1 1302 6
	li	a4,255
	beq	a5,a4,.L102
	.loc 1 1303 5 is_stmt 1
	.loc 1 1303 16 is_stmt 0
	addi	a5,a5,1
	sb	a5,6(s1)
.L102:
	.loc 1 1305 3 is_stmt 1
	.loc 1 1305 23 is_stmt 0
	lbu	a5,6(s1)
	.loc 1 1305 11
	li	a4,9
	bgtu	a5,a4,.L105
	.loc 1 1305 11 discriminator 1
	li	a4,1000
	mul	a5,a5,a4
	slli	a5,a5,16
	srli	a5,a5,16
.L103:
.LVL163:
	.loc 1 1306 3 is_stmt 1 discriminator 4
	.loc 1 1306 48 is_stmt 0 discriminator 4
	addi	a5,a5,499
.LVL164:
	.loc 1 1306 53 discriminator 4
	li	a4,500
	div	a5,a5,a4
	.loc 1 1309 1 discriminator 4
	mv	a0,s0
	.loc 1 1306 27 discriminator 4
	sh	a5,8(s1)
	.loc 1 1307 3 is_stmt 1 discriminator 4
	.loc 1 1308 3 discriminator 4
	.loc 1 1309 1 is_stmt 0 discriminator 4
	lw	ra,44(sp)
	.cfi_remember_state
	.cfi_restore 1
	lw	s0,40(sp)
	.cfi_restore 8
.LVL165:
	lw	s1,36(sp)
	.cfi_restore 9
.LVL166:
	lw	s2,32(sp)
	.cfi_restore 18
	lw	s3,28(sp)
	.cfi_restore 19
.LVL167:
	lw	s4,24(sp)
	.cfi_restore 20
	lw	s5,20(sp)
	.cfi_restore 21
	addi	sp,sp,48
	.cfi_def_cfa_offset 0
	jr	ra
.LVL168:
.L105:
	.cfi_restore_state
	.loc 1 1305 11
	li	a5,8192
	addi	a5,a5,1808
	j	.L103
	.cfi_endproc
.LFE27:
	.size	dhcp_reboot, .-dhcp_reboot
	.section	.text.dhcp_select,"ax",@progbits
	.align	1
	.type	dhcp_select, @function
dhcp_select:
.LFB9:
	.loc 1 367 1 is_stmt 1
	.cfi_startproc
.LVL169:
	.loc 1 368 3
	.loc 1 369 3
	.loc 1 370 3
	.loc 1 371 3
	.loc 1 372 3
	.loc 1 373 3
	.loc 1 375 3
	.loc 1 375 8
	.loc 1 367 1 is_stmt 0
	addi	sp,sp,-48
	.cfi_def_cfa_offset 48
	sw	s0,40(sp)
	sw	ra,44(sp)
	sw	s1,36(sp)
	sw	s2,32(sp)
	sw	s3,28(sp)
	sw	s4,24(sp)
	sw	s5,20(sp)
	.cfi_offset 8, -8
	.cfi_offset 1, -4
	.cfi_offset 9, -12
	.cfi_offset 18, -16
	.cfi_offset 19, -20
	.cfi_offset 20, -24
	.cfi_offset 21, -28
	.loc 1 375 17
	li	s0,-16
	.loc 1 375 11
	beq	a0,zero,.L110
	.loc 1 375 25 is_stmt 1 discriminator 2
	.loc 1 376 3 discriminator 2
	.loc 1 376 8 is_stmt 0 discriminator 2
	lw	s1,40(a0)
.LVL170:
	.loc 1 377 3 is_stmt 1 discriminator 2
	.loc 1 377 8 discriminator 2
	.loc 1 377 17 is_stmt 0 discriminator 2
	li	s0,-6
	.loc 1 377 11 discriminator 2
	beq	s1,zero,.L110
	mv	s2,a0
	.loc 1 377 25 is_stmt 1 discriminator 2
	.loc 1 379 3 discriminator 2
	.loc 1 380 3 discriminator 2
	li	a1,1
	mv	a0,s1
.LVL171:
	call	dhcp_set_state
.LVL172:
	.loc 1 383 3 discriminator 2
	.loc 1 383 11 is_stmt 0 discriminator 2
	addi	a3,sp,14
	li	a2,3
	mv	a1,s1
	mv	a0,s2
	call	dhcp_create_msg
.LVL173:
	mv	s3,a0
.LVL174:
	.loc 1 384 3 is_stmt 1 discriminator 2
	.loc 1 414 12 is_stmt 0 discriminator 2
	li	s0,-1
	.loc 1 384 6 discriminator 2
	beq	a0,zero,.L111
.LBB118:
	.loc 1 385 5 is_stmt 1
.LVL175:
	.loc 1 386 5
	.loc 1 386 59 is_stmt 0
	lw	s0,4(a0)
	.loc 1 386 23
	lhu	a5,14(sp)
.LBB119:
.LBB120:
	.loc 1 1435 30
	li	a3,57
.LBE120:
.LBE119:
	.loc 1 386 59
	addi	s0,s0,240
.LVL176:
.LBB124:
.LBB121:
	.loc 1 1434 3 is_stmt 1
	.loc 1 1434 8
	.loc 1 1434 59
	.loc 1 1435 3
	.loc 1 1435 30 is_stmt 0
	add	a4,s0,a5
	.loc 1 1436 26
	addi	a0,a5,2
.LVL177:
	.loc 1 1435 26
	addi	a5,a5,1
.LVL178:
	.loc 1 1436 26
	slli	a5,a5,16
.LVL179:
	srli	a5,a5,16
	.loc 1 1435 30
	sb	a3,0(a4)
.LVL180:
	.loc 1 1436 3 is_stmt 1
	.loc 1 1436 30 is_stmt 0
	add	a5,s0,a5
	li	a4,2
	sb	a4,0(a5)
.LBE121:
.LBE124:
	.loc 1 387 23
	lhu	a2,56(s2)
.LBB125:
.LBB122:
	.loc 1 1436 26
	slli	a0,a0,16
.LVL181:
.LBE122:
.LBE125:
	.loc 1 387 23
	mv	a1,s0
.LBB126:
.LBB123:
	.loc 1 1436 26
	srli	a0,a0,16
.LVL182:
	.loc 1 1437 3 is_stmt 1
.LBE123:
.LBE126:
	.loc 1 386 21 is_stmt 0
	sh	a0,14(sp)
	.loc 1 387 5 is_stmt 1
	.loc 1 387 23 is_stmt 0
	call	dhcp_option_short
.LVL183:
	.loc 1 390 5 is_stmt 1
.LBB127:
.LBB128:
	.loc 1 1434 3
	.loc 1 1434 8
	.loc 1 1434 59
	.loc 1 1435 3
	.loc 1 1435 30 is_stmt 0
	li	a4,50
	add	a5,s0,a0
	sb	a4,0(a5)
	.loc 1 1436 3 is_stmt 1
	.loc 1 1435 26 is_stmt 0
	addi	a5,a0,1
	.loc 1 1436 26
	slli	a5,a5,16
	srli	a5,a5,16
	.loc 1 1436 30
	add	a5,s0,a5
	li	s5,4
	sb	s5,0(a5)
	.loc 1 1436 26
	addi	s4,a0,2
.LBE128:
.LBE127:
	.loc 1 391 23
	lw	a0,28(s1)
.LVL184:
.LBB130:
.LBB129:
	.loc 1 1436 26
	slli	s4,s4,16
	srli	s4,s4,16
.LVL185:
	.loc 1 1437 3 is_stmt 1
.LBE129:
.LBE130:
	.loc 1 390 21 is_stmt 0
	sh	s4,14(sp)
	.loc 1 391 5 is_stmt 1
	.loc 1 391 23 is_stmt 0
	call	lwip_htonl
.LVL186:
	mv	a2,a0
	mv	a1,s0
	mv	a0,s4
	call	dhcp_option_long
.LVL187:
	.loc 1 393 5 is_stmt 1
.LBB131:
.LBB132:
	.loc 1 1434 3
	.loc 1 1434 8
	.loc 1 1434 59
	.loc 1 1435 3
	.loc 1 1435 30 is_stmt 0
	li	a4,54
	add	a5,s0,a0
	sb	a4,0(a5)
	.loc 1 1436 3 is_stmt 1
	.loc 1 1435 26 is_stmt 0
	addi	a5,a0,1
	.loc 1 1436 26
	slli	a5,a5,16
	srli	a5,a5,16
	.loc 1 1436 30
	add	a5,s0,a5
	sb	s5,0(a5)
	.loc 1 1436 26
	addi	s4,a0,2
.LBE132:
.LBE131:
	.loc 1 394 23
	lw	a0,24(s1)
.LVL188:
.LBB134:
.LBB133:
	.loc 1 1436 26
	slli	s4,s4,16
	srli	s4,s4,16
.LVL189:
	.loc 1 1437 3 is_stmt 1
.LBE133:
.LBE134:
	.loc 1 393 21 is_stmt 0
	sh	s4,14(sp)
	.loc 1 394 5 is_stmt 1
	.loc 1 394 23 is_stmt 0
	call	lwip_htonl
.LVL190:
	mv	a2,a0
	mv	a1,s0
	mv	a0,s4
	call	dhcp_option_long
.LVL191:
	.loc 1 396 5 is_stmt 1
.LBB135:
.LBB136:
	.loc 1 1434 3
	.loc 1 1434 8
	.loc 1 1434 59
	.loc 1 1435 3
	.loc 1 1435 30 is_stmt 0
	add	a5,s0,a0
	li	a4,55
	sb	a4,0(a5)
	.loc 1 1436 3 is_stmt 1
.LVL192:
	.loc 1 1435 26 is_stmt 0
	addi	a5,a0,1
	.loc 1 1436 26
	slli	a5,a5,16
	srli	a5,a5,16
	.loc 1 1436 30
	add	a5,s0,a5
	sb	s5,0(a5)
	.loc 1 1437 3 is_stmt 1
.LVL193:
	.loc 1 1436 26 is_stmt 0
	addi	a0,a0,2
.LBE136:
.LBE135:
	.loc 1 398 25
	lui	a3,%hi(.LANCHOR1)
	.loc 1 396 21
	sh	a0,14(sp)
	.loc 1 397 5 is_stmt 1
.LVL194:
	.loc 1 396 21 is_stmt 0
	li	a5,0
	.loc 1 398 25
	addi	a3,a3,%lo(.LANCHOR1)
	.loc 1 397 5
	li	a2,4
.LVL195:
.L112:
	.loc 1 398 7 is_stmt 1 discriminator 3
	.loc 1 398 25 is_stmt 0 discriminator 3
	lhu	a4,14(sp)
	add	a1,a3,a5
	lbu	a1,0(a1)
.LVL196:
.LBB137:
.LBB138:
	.loc 1 1446 3 is_stmt 1 discriminator 3
	.loc 1 1446 8 discriminator 3
	.loc 1 1446 40 discriminator 3
	.loc 1 1447 3 discriminator 3
	.loc 1 1447 26 is_stmt 0 discriminator 3
	addi	a0,a4,1
	slli	a0,a0,16
	.loc 1 1447 30 discriminator 3
	add	a4,s0,a4
.LVL197:
	.loc 1 1447 26 discriminator 3
	srli	a0,a0,16
.LVL198:
	.loc 1 1447 30 discriminator 3
	sb	a1,0(a4)
	.loc 1 1448 3 is_stmt 1 discriminator 3
.LVL199:
.LBE138:
.LBE137:
	.loc 1 398 23 is_stmt 0 discriminator 3
	sh	a0,14(sp)
.LVL200:
	addi	a5,a5,1
.LVL201:
	.loc 1 397 5 discriminator 3
	bne	a5,a2,.L112
	.loc 1 402 5 is_stmt 1
	.loc 1 402 23 is_stmt 0
	mv	a1,s0
	addi	a2,s2,52
	call	dhcp_option_hostname.isra.0
.LVL202:
	.loc 1 406 5
	mv	a1,s0
	mv	a2,s3
	.loc 1 402 21
	sh	a0,14(sp)
	.loc 1 405 5 is_stmt 1
	.loc 1 406 5
	call	dhcp_option_trailer
.LVL203:
	.loc 1 409 5
	.loc 1 409 14 is_stmt 0
	lui	a0,%hi(.LANCHOR2)
	lw	a0,%lo(.LANCHOR2)(a0)
	lui	a5,%hi(ip_addr_any)
	lui	a2,%hi(ip_addr_broadcast)
	addi	a5,a5,%lo(ip_addr_any)
	mv	a4,s2
	li	a3,67
	addi	a2,a2,%lo(ip_addr_broadcast)
	mv	a1,s3
	call	udp_sendto_if_src
.LVL204:
	mv	s0,a0
.LVL205:
	.loc 1 410 5 is_stmt 1
	mv	a0,s3
	call	pbuf_free
.LVL206:
	.loc 1 411 5
.L111:
.LBE118:
	.loc 1 416 3
	.loc 1 416 11 is_stmt 0
	lbu	a5,6(s1)
	.loc 1 416 6
	li	a4,255
	beq	a5,a4,.L113
	.loc 1 417 5 is_stmt 1
	.loc 1 417 16 is_stmt 0
	addi	a5,a5,1
	sb	a5,6(s1)
.L113:
	.loc 1 419 3 is_stmt 1
	.loc 1 419 24 is_stmt 0
	lbu	a4,6(s1)
	.loc 1 419 11
	li	a5,5
	bgtu	a4,a5,.L118
	.loc 1 419 40 discriminator 1
	li	a5,1
	sll	a5,a5,a4
	.loc 1 419 11 discriminator 1
	li	a4,1000
	mul	a5,a5,a4
	slli	a5,a5,16
	srli	a5,a5,16
.L114:
.LVL207:
	.loc 1 420 3 is_stmt 1 discriminator 4
	.loc 1 420 48 is_stmt 0 discriminator 4
	addi	a5,a5,499
.LVL208:
	.loc 1 420 53 discriminator 4
	li	a4,500
	div	a5,a5,a4
	.loc 1 420 27 discriminator 4
	sh	a5,8(s1)
	.loc 1 421 3 is_stmt 1 discriminator 4
	.loc 1 422 3 discriminator 4
.LVL209:
.L110:
	.loc 1 423 1 is_stmt 0
	mv	a0,s0
	lw	ra,44(sp)
	.cfi_remember_state
	.cfi_restore 1
	lw	s0,40(sp)
	.cfi_restore 8
	lw	s1,36(sp)
	.cfi_restore 9
	lw	s2,32(sp)
	.cfi_restore 18
	lw	s3,28(sp)
	.cfi_restore 19
	lw	s4,24(sp)
	.cfi_restore 20
	lw	s5,20(sp)
	.cfi_restore 21
	addi	sp,sp,48
	.cfi_def_cfa_offset 0
	jr	ra
.LVL210:
.L118:
	.cfi_restore_state
	.loc 1 419 11
	li	a5,61440
	addi	a5,a5,-1440
	j	.L114
	.cfi_endproc
.LFE9:
	.size	dhcp_select, .-dhcp_select
	.section	.text.dhcp_dec_pcb_refcount,"ax",@progbits
	.align	1
	.type	dhcp_dec_pcb_refcount, @function
dhcp_dec_pcb_refcount:
.LFB5:
	.loc 1 254 1 is_stmt 1
	.cfi_startproc
	.loc 1 255 3
	.loc 1 255 8
	.loc 1 255 42
	.loc 1 256 3
	.loc 1 255 12 is_stmt 0
	lui	a4,%hi(.LANCHOR3)
	addi	a4,a4,%lo(.LANCHOR3)
	.loc 1 256 20
	lbu	a5,0(a4)
	addi	a5,a5,-1
	andi	a5,a5,0xff
	sb	a5,0(a4)
	.loc 1 258 3 is_stmt 1
	.loc 1 258 6 is_stmt 0
	bne	a5,zero,.L125
.LBB141:
.LBB142:
	.loc 1 259 5 is_stmt 1
.LBE142:
.LBE141:
	.loc 1 254 1 is_stmt 0
	addi	sp,sp,-16
	.cfi_def_cfa_offset 16
	sw	s0,8(sp)
	.cfi_offset 8, -8
.LBB146:
.LBB143:
	.loc 1 259 5
	lui	s0,%hi(.LANCHOR2)
	addi	s0,s0,%lo(.LANCHOR2)
	lw	a0,0(s0)
.LBE143:
.LBE146:
	.loc 1 254 1
	sw	ra,12(sp)
	.cfi_offset 1, -4
.LBB147:
.LBB144:
	.loc 1 259 5
	call	udp_remove
.LVL211:
	.loc 1 260 5 is_stmt 1
.LBE144:
.LBE147:
	.loc 1 262 1 is_stmt 0
	lw	ra,12(sp)
	.cfi_restore 1
.LBB148:
.LBB145:
	.loc 1 260 14
	sw	zero,0(s0)
.LBE145:
.LBE148:
	.loc 1 262 1
	lw	s0,8(sp)
	.cfi_restore 8
	addi	sp,sp,16
	.cfi_def_cfa_offset 0
	jr	ra
.L125:
	ret
	.cfi_endproc
.LFE5:
	.size	dhcp_dec_pcb_refcount, .-dhcp_dec_pcb_refcount
	.section	.text.dhcp_handle_ack.isra.3,"ax",@progbits
	.align	1
	.type	dhcp_handle_ack.isra.3, @function
dhcp_handle_ack.isra.3:
.LFB45:
	.loc 1 599 1 is_stmt 1
	.cfi_startproc
.LVL212:
	.loc 1 601 3
	.loc 1 604 3
	.loc 1 611 3
	.loc 1 599 1 is_stmt 0
	addi	sp,sp,-32
	.cfi_def_cfa_offset 32
	sw	s1,20(sp)
	.cfi_offset 9, -12
	.loc 1 618 29
	lui	s1,%hi(dhcp_rx_options_given)
	.loc 1 599 1
	sw	s0,24(sp)
	sw	ra,28(sp)
	.cfi_offset 8, -8
	.cfi_offset 1, -4
	.loc 1 618 29
	addi	a5,s1,%lo(dhcp_rx_options_given)
	.loc 1 618 6
	lbu	a5,3(a5)
	.loc 1 611 35
	sw	zero,32(a0)
	.loc 1 612 3 is_stmt 1
	.loc 1 612 35 is_stmt 0
	sw	zero,36(a0)
	.loc 1 618 3 is_stmt 1
	.loc 1 599 1 is_stmt 0
	mv	s0,a0
	addi	s1,s1,%lo(dhcp_rx_options_given)
	.loc 1 618 6
	beq	a5,zero,.L129
	.loc 1 620 5 is_stmt 1
	.loc 1 620 50 is_stmt 0
	lui	a5,%hi(dhcp_rx_options_val+12)
	.loc 1 620 28
	lw	a5,%lo(dhcp_rx_options_val+12)(a5)
	sw	a5,40(a0)
.L129:
	.loc 1 623 3 is_stmt 1
	.loc 1 623 6 is_stmt 0
	lbu	a5,4(s1)
	beq	a5,zero,.L130
	.loc 1 625 5 is_stmt 1
	.loc 1 625 50 is_stmt 0
	lui	a5,%hi(dhcp_rx_options_val+16)
	lw	a5,%lo(dhcp_rx_options_val+16)(a5)
.L131:
	sw	a5,44(s0)
	.loc 1 632 3 is_stmt 1
	.loc 1 632 6 is_stmt 0
	lbu	a5,5(s1)
	beq	a5,zero,.L132
	.loc 1 634 5 is_stmt 1
	.loc 1 634 51 is_stmt 0
	lui	a5,%hi(dhcp_rx_options_val+20)
	lw	a5,%lo(dhcp_rx_options_val+20)(a5)
.L133:
	sw	a5,48(s0)
	.loc 1 641 3 is_stmt 1
	.loc 1 641 51 is_stmt 0
	lbu	a4,17(a1)
	lbu	a5,16(a1)
	slli	a4,a4,8
	or	a4,a4,a5
	lbu	a5,18(a1)
	slli	a5,a5,16
	or	a4,a5,a4
	lbu	a5,19(a1)
	slli	a5,a5,24
	or	a5,a5,a4
	.loc 1 641 33
	sw	a5,28(s0)
	.loc 1 650 3 is_stmt 1
	.loc 1 650 6 is_stmt 0
	lbu	a5,6(s1)
	beq	a5,zero,.L134
	.loc 1 652 5 is_stmt 1
	.loc 1 652 40 is_stmt 0
	lui	a5,%hi(dhcp_rx_options_val+24)
	lw	a0,%lo(dhcp_rx_options_val+24)(a5)
.LVL213:
	call	lwip_htonl
.LVL214:
	.loc 1 653 29
	li	a5,1
	.loc 1 652 37
	sw	a0,32(s0)
	.loc 1 653 5 is_stmt 1
	.loc 1 653 29 is_stmt 0
	sb	a5,7(s0)
.L135:
	.loc 1 659 3 is_stmt 1
	.loc 1 659 6 is_stmt 0
	lbu	a5,7(s1)
	beq	a5,zero,.L136
	.loc 1 660 5 is_stmt 1
	.loc 1 660 40 is_stmt 0
	lui	a5,%hi(dhcp_rx_options_val+28)
	lw	a0,%lo(dhcp_rx_options_val+28)(a5)
	call	lwip_htonl
.LVL215:
	.loc 1 660 37
	sw	a0,36(s0)
.L136:
.LVL216:
	.loc 1 673 23
	lbu	a5,8(s1)
	beq	a5,zero,.L128
.LBB149:
	.loc 1 674 5 is_stmt 1
	.loc 1 675 5
	.loc 1 675 31 is_stmt 0
	lui	s0,%hi(dhcp_rx_options_val)
.LVL217:
	addi	s0,s0,%lo(dhcp_rx_options_val)
	lw	a0,32(s0)
	call	lwip_htonl
.LVL218:
	.loc 1 675 28
	sw	a0,12(sp)
	.loc 1 676 5 is_stmt 1
	addi	a1,sp,12
	li	a0,0
	call	dns_setserver
.LVL219:
.LBE149:
	.loc 1 673 23 is_stmt 0
	lbu	a5,9(s1)
	beq	a5,zero,.L128
.LBB150:
	.loc 1 674 5 is_stmt 1
	.loc 1 675 5
	.loc 1 675 31 is_stmt 0
	lw	a0,36(s0)
	call	lwip_htonl
.LVL220:
	.loc 1 675 28
	sw	a0,12(sp)
	.loc 1 676 5 is_stmt 1
	addi	a1,sp,12
	li	a0,1
	call	dns_setserver
.LVL221:
.L128:
.LBE150:
	.loc 1 679 1 is_stmt 0
	lw	ra,28(sp)
	.cfi_remember_state
	.cfi_restore 1
	lw	s0,24(sp)
	.cfi_restore 8
	lw	s1,20(sp)
	.cfi_restore 9
	addi	sp,sp,32
	.cfi_def_cfa_offset 0
	jr	ra
.LVL222:
.L130:
	.cfi_restore_state
	.loc 1 628 5 is_stmt 1
	.loc 1 628 53 is_stmt 0
	lw	a5,40(s0)
	srli	a5,a5,1
	j	.L131
.L132:
	.loc 1 637 5 is_stmt 1
	.loc 1 637 55 is_stmt 0
	lw	a4,40(s0)
	li	a5,7
	mul	a5,a5,a4
	.loc 1 637 61
	srli	a5,a5,3
	j	.L133
.L134:
	.loc 1 655 5 is_stmt 1
	.loc 1 655 29 is_stmt 0
	sb	zero,7(s0)
	j	.L135
	.cfi_endproc
.LFE45:
	.size	dhcp_handle_ack.isra.3, .-dhcp_handle_ack.isra.3
	.section	.text.dhcp_recv,"ax",@progbits
	.align	1
	.type	dhcp_recv, @function
dhcp_recv:
.LFB38:
	.loc 1 1755 1 is_stmt 1
	.cfi_startproc
.LVL223:
	.loc 1 1756 3
	.loc 1 1755 1 is_stmt 0
	addi	sp,sp,-112
	.cfi_def_cfa_offset 112
	.loc 1 1756 17
	lui	a5,%hi(ip_data+4)
	.loc 1 1755 1
	sw	s1,100(sp)
	.cfi_offset 9, -12
	.loc 1 1756 17
	lw	s1,%lo(ip_data+4)(a5)
.LVL224:
	.loc 1 1757 3 is_stmt 1
	.loc 1 1755 1 is_stmt 0
	sw	s2,96(sp)
	sw	ra,108(sp)
	sw	s0,104(sp)
	sw	s3,92(sp)
	sw	s4,88(sp)
	sw	s5,84(sp)
	sw	s6,80(sp)
	sw	s7,76(sp)
	sw	s8,72(sp)
	sw	s9,68(sp)
	sw	s10,64(sp)
	sw	s11,60(sp)
	.cfi_offset 18, -16
	.cfi_offset 1, -4
	.cfi_offset 8, -8
	.cfi_offset 19, -20
	.cfi_offset 20, -24
	.cfi_offset 21, -28
	.cfi_offset 22, -32
	.cfi_offset 23, -36
	.cfi_offset 24, -40
	.cfi_offset 25, -44
	.cfi_offset 26, -48
	.cfi_offset 27, -52
	.loc 1 1757 16
	lw	s3,40(s1)
.LVL225:
	.loc 1 1758 3 is_stmt 1
	.loc 1 1759 3
	.loc 1 1760 3
	.loc 1 1761 3
	.loc 1 1763 3
	.loc 1 1766 3
	.loc 1 1755 1 is_stmt 0
	mv	s2,a2
	.loc 1 1766 6
	beq	s3,zero,.L152
	.loc 1 1766 21 discriminator 1
	lbu	a5,4(s3)
	beq	a5,zero,.L152
	.loc 1 1770 3 is_stmt 1 discriminator 1
	.loc 1 1770 8 discriminator 1
	.loc 1 1770 20 discriminator 1
	.loc 1 1773 141 discriminator 1
	.loc 1 1774 3 discriminator 1
	.loc 1 1775 3 discriminator 1
	.loc 1 1777 3 discriminator 1
	.loc 1 1778 3 discriminator 1
	.loc 1 1779 3 discriminator 1
	.loc 1 1781 3 discriminator 1
	.loc 1 1781 6 is_stmt 0 discriminator 1
	lhu	a4,10(a2)
.LVL226:
	li	a5,43
	bleu	a4,a5,.L152
	.loc 1 1758 20
	lw	a5,4(a2)
	.loc 1 1786 3 is_stmt 1
	.loc 1 1786 6 is_stmt 0
	li	a4,2
	lbu	a3,0(a5)
.LVL227:
	bne	a3,a4,.L152
	.loc 1 1791 24
	lbu	a2,64(s1)
.LVL228:
	li	a4,0
	.loc 1 1791 37
	li	a3,6
.LVL229:
.L154:
	.loc 1 1791 3 discriminator 1
	andi	a1,a4,0xff
	bleu	a2,a1,.L155
	.loc 1 1791 37 discriminator 3
	bne	a4,a3,.L156
.L155:
	.loc 1 1800 3 is_stmt 1
	.loc 1 1800 7 is_stmt 0
	lbu	a0,5(a5)
	lbu	a4,4(a5)
.LVL230:
	slli	a0,a0,8
	or	a0,a0,a4
	lbu	a4,6(a5)
	slli	a4,a4,16
	or	a4,a4,a0
	lbu	a0,7(a5)
	slli	a0,a0,24
	or	a0,a0,a4
	call	lwip_htonl
.LVL231:
	.loc 1 1800 6
	lw	a5,0(s3)
	bne	a0,a5,.L152
	.loc 1 1806 3 is_stmt 1
.LVL232:
.LBB161:
.LBB162:
	.loc 1 1509 3
	.loc 1 1510 3
	.loc 1 1511 3
	.loc 1 1512 3
	.loc 1 1513 3
	.loc 1 1514 3
	.loc 1 1515 3
	.loc 1 1516 3
	.loc 1 1517 3
	.loc 1 1522 3
	.loc 1 1525 3
	.loc 1 1525 4 is_stmt 0
	lui	s4,%hi(dhcp_rx_options_given)
	li	a2,10
	li	a1,0
	addi	a0,s4,%lo(dhcp_rx_options_given)
	call	memset
.LVL233:
	.loc 1 1527 3 is_stmt 1
	.loc 1 1527 6 is_stmt 0
	lhu	a4,10(s2)
	li	a5,43
	bleu	a4,a5,.L152
	.loc 1 1530 3 is_stmt 1
.LVL234:
	.loc 1 1539 3
	.loc 1 1541 3
	.loc 1 1541 19 is_stmt 0
	lhu	s8,8(s2)
.LVL235:
.LBB163:
.LBB164:
.LBB165:
	.loc 1 1667 46
	lui	s5,%hi(dhcp_rx_options_val)
.LBE165:
.LBE164:
.LBE163:
	.loc 1 1516 7
	sw	zero,12(sp)
	.loc 1 1539 15
	li	s11,240
.LBB171:
.LBB168:
.LBB166:
	.loc 1 1667 46
	addi	s5,s5,%lo(dhcp_rx_options_val)
.LVL236:
.L157:
.LBE166:
.LBE168:
.LBE171:
	.loc 1 1543 3 is_stmt 1
	.loc 1 1544 3
	.loc 1 1539 15 is_stmt 0
	mv	s6,s2
.LVL237:
.L158:
	.loc 1 1544 41
	lhu	a5,10(s6)
	.loc 1 1544 21
	bleu	a5,s11,.L159
	.loc 1 1549 3 is_stmt 1
	.loc 1 1552 3
.LVL238:
	.loc 1 1553 3
	.loc 1 1554 3
	.loc 1 1554 11 is_stmt 0
	lw	a5,4(s6)
.LBB172:
	.loc 1 1647 10
	li	s7,65536
.LBE172:
	.loc 1 1554 11
	mv	s9,s11
	sw	a5,16(sp)
.LVL239:
	.loc 1 1556 3 is_stmt 1
.LBB173:
	.loc 1 1647 10 is_stmt 0
	addi	a5,s7,-3
.LVL240:
	sw	a5,20(sp)
	j	.L203
.LVL241:
.L156:
.LBE173:
.LBE162:
.LBE161:
	.loc 1 1792 5 is_stmt 1
	.loc 1 1792 22 is_stmt 0
	add	a1,s1,a4
	addi	a4,a4,1
.LVL242:
	.loc 1 1792 46
	add	a0,a5,a4
	.loc 1 1792 22
	lbu	a1,58(a1)
	.loc 1 1792 8
	lbu	a0,27(a0)
	beq	a0,a1,.L154
.LVL243:
.L152:
	.loc 1 1863 3 is_stmt 1
	mv	a0,s2
	call	pbuf_free
.LVL244:
	.loc 1 1864 1 is_stmt 0
	lw	ra,108(sp)
	.cfi_remember_state
	.cfi_restore 1
	lw	s0,104(sp)
	.cfi_restore 8
	lw	s1,100(sp)
	.cfi_restore 9
.LVL245:
	lw	s2,96(sp)
	.cfi_restore 18
.LVL246:
	lw	s3,92(sp)
	.cfi_restore 19
.LVL247:
	lw	s4,88(sp)
	.cfi_restore 20
	lw	s5,84(sp)
	.cfi_restore 21
	lw	s6,80(sp)
	.cfi_restore 22
	lw	s7,76(sp)
	.cfi_restore 23
	lw	s8,72(sp)
	.cfi_restore 24
	lw	s9,68(sp)
	.cfi_restore 25
	lw	s10,64(sp)
	.cfi_restore 26
	lw	s11,60(sp)
	.cfi_restore 27
	addi	sp,sp,112
	.cfi_def_cfa_offset 0
	jr	ra
.LVL248:
.L159:
	.cfi_restore_state
.LBB183:
.LBB180:
	.loc 1 1545 5 is_stmt 1
	.loc 1 1547 7 is_stmt 0
	lw	s6,0(s6)
.LVL249:
	.loc 1 1545 17
	sub	t1,s11,a5
	.loc 1 1546 21
	sub	t3,s8,a5
	.loc 1 1545 17
	slli	s11,t1,16
.LVL250:
	.loc 1 1546 21
	slli	s8,t3,16
.LVL251:
	.loc 1 1545 17
	srli	s11,s11,16
.LVL252:
	.loc 1 1546 5 is_stmt 1
	.loc 1 1546 21 is_stmt 0
	srli	s8,s8,16
.LVL253:
	.loc 1 1547 5 is_stmt 1
	.loc 1 1544 9 is_stmt 0
	bne	s6,zero,.L158
	j	.L152
.LVL254:
.L190:
.LBB174:
	.loc 1 1557 5 is_stmt 1
	.loc 1 1558 5
	.loc 1 1559 5
	.loc 1 1560 5
	.loc 1 1561 5
	.loc 1 1561 11 is_stmt 0
	addi	t4,s9,2
	slli	s7,t4,16
	srli	s7,s7,16
.LVL255:
	.loc 1 1562 5 is_stmt 1
	.loc 1 1562 8 is_stmt 0
	bltu	s7,s9,.L152
	.loc 1 1567 5 is_stmt 1
	.loc 1 1567 25 is_stmt 0
	lhu	a2,10(s6)
	.loc 1 1567 17
	addi	a3,s9,1
	.loc 1 1567 8
	bge	a3,a2,.L161
	.loc 1 1568 7 is_stmt 1
	.loc 1 1568 11 is_stmt 0
	lbu	a4,1(a4)
.LVL256:
.L162:
	.loc 1 1573 5 is_stmt 1
	.loc 1 1574 5
	li	a2,51
	beq	a5,a2,.L164
	bgtu	a5,a2,.L165
	li	a2,1
	beq	a5,a2,.L166
	beq	a5,zero,.L167
	li	a3,3
	beq	a5,a3,.L168
	li	a3,6
.LVL257:
.L249:
	beq	a5,a3,.L169
.L170:
.LVL258:
	.loc 1 1644 5
	.loc 1 1570 11 is_stmt 0
	li	s10,-1
	li	s0,0
	j	.L179
.LVL259:
.L161:
	.loc 1 1570 7 is_stmt 1
	.loc 1 1570 15 is_stmt 0
	lw	a4,0(s6)
	.loc 1 1570 11
	beq	a4,zero,.L163
	lw	a4,4(a4)
	lbu	a4,0(a4)
	j	.L162
.LVL260:
.L165:
	.loc 1 1574 5
	li	a3,54
	beq	a5,a3,.L171
	bgtu	a5,a3,.L172
	li	a3,52
	beq	a5,a3,.L173
	li	a3,53
.LVL261:
.L247:
	bne	a5,a3,.L170
	.loc 1 1621 9 is_stmt 1
	.loc 1 1621 14
	.loc 1 1621 17 is_stmt 0
	li	a5,1
.LVL262:
	bne	a4,a5,.L152
	li	s0,1
	.loc 1 1622 20
	li	s10,1
	j	.L179
.LVL263:
.L172:
	.loc 1 1574 5
	li	a3,58
	beq	a5,a3,.L175
	li	a3,59
.LVL264:
.L245:
	bne	a5,a3,.L170
	.loc 1 1633 9 is_stmt 1
	.loc 1 1633 14
	.loc 1 1633 17 is_stmt 0
	li	a5,4
.LVL265:
	bne	a4,a5,.L152
	li	s0,4
	.loc 1 1634 20
	li	s10,5
	j	.L179
.LVL266:
.L166:
	.loc 1 1582 9 is_stmt 1
	.loc 1 1582 14
	.loc 1 1582 17 is_stmt 0
	li	a5,4
.LVL267:
	bne	a4,a5,.L152
	li	s0,4
	.loc 1 1583 20
	li	s10,6
.LVL268:
.L179:
	.loc 1 1647 7 is_stmt 1
	.loc 1 1647 10 is_stmt 0
	lw	a5,20(sp)
	.loc 1 1647 18
	add	a6,a4,s9
	.loc 1 1647 10
	bgt	a6,a5,.L152
	.loc 1 1651 7 is_stmt 1
	.loc 1 1651 14 is_stmt 0
	add	a4,s7,a4
.LVL269:
	slli	s9,a4,16
.LVL270:
	srli	s9,s9,16
.LVL271:
	.loc 1 1652 7 is_stmt 1
	.loc 1 1652 10 is_stmt 0
	beq	s0,zero,.L180
.LBB169:
	.loc 1 1653 9 is_stmt 1
	addi	a5,s4,%lo(dhcp_rx_options_given)
	.loc 1 1653 15 is_stmt 0
	sw	zero,44(sp)
	add	a5,s10,a5
.LVL272:
.L250:
.L181:
	.loc 1 1654 9 is_stmt 1
	.loc 1 1656 9
	.loc 1 1656 14
	.loc 1 1656 76
	.loc 1 1657 9
	.loc 1 1657 12 is_stmt 0
	lbu	a4,0(a5)
	.loc 1 1658 59
	li	t5,4
	.loc 1 1657 12
	bne	a4,zero,.L180
	.loc 1 1658 11 is_stmt 1
	.loc 1 1658 59 is_stmt 0
	andi	a4,s0,0xff
	bleu	s0,t5,.L183
	li	a4,4
.L183:
.LVL273:
	.loc 1 1659 11 is_stmt 1
	.loc 1 1659 15 is_stmt 0
	mv	a2,a4
	mv	a3,s7
	addi	a1,sp,44
	mv	a0,s6
	sw	a4,24(sp)
	sw	a5,28(sp)
	call	pbuf_copy_partial
.LVL274:
	.loc 1 1659 14
	lw	a4,24(sp)
	bne	a4,a0,.L152
	.loc 1 1662 11 is_stmt 1
	.loc 1 1662 14 is_stmt 0
	li	t5,4
	bleu	s0,t5,.L185
.LBB167:
	.loc 1 1664 13 is_stmt 1
	.loc 1 1665 13
	.loc 1 1665 18
	.loc 1 1665 21 is_stmt 0
	andi	a4,s0,3
	bne	a4,zero,.L152
	.loc 1 1665 65 is_stmt 1
	.loc 1 1666 13
	.loc 1 1666 48 is_stmt 0
	lw	a5,28(sp)
	.loc 1 1667 49
	lw	a0,44(sp)
	.loc 1 1666 48
	li	a4,1
	sb	a4,0(a5)
	sw	a5,24(sp)
	.loc 1 1667 13 is_stmt 1
	.loc 1 1667 49 is_stmt 0
	call	lwip_htonl
.LVL275:
	.loc 1 1667 46
	slli	a4,s10,2
	add	a4,a4,s5
	sw	a0,0(a4)
	.loc 1 1668 13 is_stmt 1
	lw	a5,24(sp)
	.loc 1 1669 29 is_stmt 0
	addi	a4,s7,4
	slli	a4,a4,16
	.loc 1 1668 24
	addi	s0,s0,-4
.LVL276:
	.loc 1 1669 29
	srli	a4,a4,16
	.loc 1 1668 24
	andi	s0,s0,0xff
.LVL277:
	.loc 1 1669 13 is_stmt 1
	.loc 1 1670 13
	addi	a5,a5,1
	.loc 1 1670 16 is_stmt 0
	bgtu	s7,a4,.L152
	.loc 1 1674 13 is_stmt 1
.LVL278:
	.loc 1 1675 13
	.loc 1 1675 23 is_stmt 0
	addi	s10,s10,1
.LVL279:
	.loc 1 1676 13 is_stmt 1
	.loc 1 1675 23 is_stmt 0
	mv	s7,a4
	j	.L250
.LVL280:
.L168:
.LBE167:
.LBE169:
	.loc 1 1586 9 is_stmt 1
	.loc 1 1587 9
	.loc 1 1587 14
	.loc 1 1587 17 is_stmt 0
	bleu	a4,a5,.L152
	.loc 1 1588 20
	li	s10,7
	.loc 1 1586 20
	li	s0,4
	j	.L179
.LVL281:
.L169:
	.loc 1 1593 9 is_stmt 1
	.loc 1 1593 14
	.loc 1 1593 17 is_stmt 0
	andi	a5,a4,3
.LVL282:
	bne	a5,zero,.L152
	.loc 1 1593 54 is_stmt 1
	.loc 1 1595 9
	.loc 1 1595 20 is_stmt 0
	li	a5,8
	andi	s0,a4,0xff
	bleu	a4,a5,.L178
	li	s0,8
.L178:
	.loc 1 1596 9 is_stmt 1
	.loc 1 1596 14
	.loc 1 1596 17 is_stmt 0
	bgtu	s0,a4,.L152
	.loc 1 1597 20
	li	s10,8
	j	.L179
.LVL283:
.L164:
	.loc 1 1601 9 is_stmt 1
	.loc 1 1601 14
	.loc 1 1601 17 is_stmt 0
	li	a5,4
.LVL284:
	bne	a4,a5,.L152
	li	s0,4
	.loc 1 1602 20
	li	s10,3
	j	.L179
.LVL285:
.L210:
	.loc 1 1570 11
	li	a4,0
.LVL286:
.L173:
	.loc 1 1615 9 is_stmt 1
	.loc 1 1615 14
	.loc 1 1615 17 is_stmt 0
	li	a5,1
.LVL287:
	bne	a4,a5,.L152
	.loc 1 1615 50 is_stmt 1
	.loc 1 1617 9
	.loc 1 1617 14
	.loc 1 1617 17 is_stmt 0
	li	a5,240
	bne	s11,a5,.L152
	.loc 1 1573 16
	li	s0,1
	.loc 1 1618 20
	li	s10,0
	j	.L179
.LVL288:
.L209:
	.loc 1 1570 11
	li	a4,0
.LVL289:
.L171:
	.loc 1 1625 9 is_stmt 1
	.loc 1 1625 14
	.loc 1 1625 17 is_stmt 0
	li	a5,4
.LVL290:
	bne	a4,a5,.L152
	li	s0,4
	.loc 1 1626 20
	li	s10,2
	j	.L179
.LVL291:
.L212:
	.loc 1 1570 11
	li	a4,0
.LVL292:
.L175:
	.loc 1 1629 9 is_stmt 1
	.loc 1 1629 14
	.loc 1 1629 17 is_stmt 0
	li	a5,4
.LVL293:
	bne	a4,a5,.L152
	li	s0,4
	.loc 1 1630 20
	li	s10,4
	j	.L179
.LVL294:
.L167:
	.loc 1 1645 7 is_stmt 1
	.loc 1 1645 13 is_stmt 0
	slli	s9,a3,16
.LVL295:
	srli	s9,s9,16
.LVL296:
.L180:
	.loc 1 1688 5 is_stmt 1
	.loc 1 1688 20 is_stmt 0
	lhu	a5,10(s6)
	.loc 1 1688 8
	bgtu	a5,s9,.L203
	.loc 1 1689 7 is_stmt 1
	.loc 1 1689 14 is_stmt 0
	sub	a6,s9,a5
	.loc 1 1690 18
	sub	t3,s8,a5
	.loc 1 1689 14
	slli	s9,a6,16
.LVL297:
	.loc 1 1690 18
	slli	s8,t3,16
.LVL298:
	.loc 1 1689 14
	srli	s9,s9,16
.LVL299:
	.loc 1 1690 7 is_stmt 1
	.loc 1 1690 18 is_stmt 0
	srli	s8,s8,16
.LVL300:
	.loc 1 1691 7 is_stmt 1
	.loc 1 1691 10 is_stmt 0
	bgeu	s9,s8,.L152
	.loc 1 1692 9 is_stmt 1
	.loc 1 1692 11 is_stmt 0
	lw	s6,0(s6)
.LVL301:
	.loc 1 1693 9 is_stmt 1
	.loc 1 1693 14
	.loc 1 1693 17 is_stmt 0
	beq	s6,zero,.L152
	.loc 1 1693 30 is_stmt 1
	.loc 1 1694 9
	.loc 1 1694 17 is_stmt 0
	lw	a5,4(s6)
	sw	a5,16(sp)
.LVL302:
.L203:
.LBE174:
	.loc 1 1556 21
	bgeu	s9,s8,.L189
	.loc 1 1556 57
	lw	a5,16(sp)
	.loc 1 1556 46
	li	a3,255
	.loc 1 1556 57
	add	a4,a5,s9
	lbu	a5,0(a4)
	.loc 1 1556 46
	bne	a5,a3,.L190
.L189:
	.loc 1 1702 3 is_stmt 1
	.loc 1 1702 29 is_stmt 0
	addi	a4,s4,%lo(dhcp_rx_options_given)
	.loc 1 1702 6
	lbu	a5,0(a4)
	bne	a5,zero,.L191
.L196:
.LBB175:
	.loc 1 1716 7 is_stmt 1
.LBE175:
	.loc 1 1719 3
	.loc 1 1728 10
	.loc 1 1728 13 is_stmt 0
	lw	a5,12(sp)
	bne	a5,zero,.L192
.LVL303:
.LBE180:
.LBE183:
	.loc 1 1812 3 is_stmt 1
	.loc 1 1814 3
	.loc 1 1814 6 is_stmt 0
	lui	a5,%hi(dhcp_rx_options_given)
	addi	a5,a5,%lo(dhcp_rx_options_given)
	lbu	a5,1(a5)
	beq	a5,zero,.L152
	.loc 1 1819 3 is_stmt 1
	.loc 1 1821 40 is_stmt 0
	lui	a5,%hi(dhcp_rx_options_val)
	addi	a5,a5,%lo(dhcp_rx_options_val)
	.loc 1 1821 12
	lbu	a4,4(a5)
	.loc 1 1823 6
	li	a3,5
	.loc 1 1819 10
	lw	a1,4(s2)
.LVL304:
	.loc 1 1821 3 is_stmt 1
	.loc 1 1823 3
	.loc 1 1823 6 is_stmt 0
	bne	a4,a3,.L197
	.loc 1 1824 5 is_stmt 1
	.loc 1 1826 5
	.loc 1 1826 13 is_stmt 0
	lbu	a5,5(s3)
	.loc 1 1826 8
	li	a4,1
.LVL305:
	bne	a5,a4,.L198
	.loc 1 1827 7 is_stmt 1
	lw	a0,40(s1)
	call	dhcp_handle_ack.isra.3
.LVL306:
	.loc 1 1829 7
	.loc 1 1829 10 is_stmt 0
	lbu	a5,65(s1)
	.loc 1 1831 9
	mv	a0,s1
	.loc 1 1829 10
	andi	a5,a5,8
	beq	a5,zero,.L251
	.loc 1 1831 9 is_stmt 1
	call	dhcp_check
.LVL307:
	j	.L152
.LVL308:
.L185:
.LBB184:
.LBB181:
.LBB176:
.LBB170:
	.loc 1 1677 18
	.loc 1 1677 21 is_stmt 0
	bne	s0,t5,.L186
	.loc 1 1678 13 is_stmt 1
	.loc 1 1678 21 is_stmt 0
	lw	a0,44(sp)
	call	lwip_htonl
.LVL309:
	.loc 1 1678 19
	sw	a0,44(sp)
.L187:
	.loc 1 1683 11 is_stmt 1
	.loc 1 1683 46 is_stmt 0
	lui	a5,%hi(dhcp_rx_options_given)
	addi	a5,a5,%lo(dhcp_rx_options_given)
	add	a5,a5,s10
	li	a4,1
	sb	a4,0(a5)
	.loc 1 1684 11 is_stmt 1
	.loc 1 1684 44 is_stmt 0
	lw	a5,44(sp)
	slli	s10,s10,2
.LVL310:
	add	s10,s5,s10
	sw	a5,0(s10)
	j	.L180
.LVL311:
.L186:
	.loc 1 1680 13 is_stmt 1
	.loc 1 1680 18
	.loc 1 1680 21 is_stmt 0
	li	a5,1
	bne	s0,a5,.L152
	.loc 1 1680 61 is_stmt 1
	.loc 1 1681 13
	.loc 1 1681 37 is_stmt 0
	lbu	a5,44(sp)
	sw	a5,44(sp)
	j	.L187
.LVL312:
.L191:
.LBE170:
.LBE176:
.LBB177:
	.loc 1 1703 5 is_stmt 1
	.loc 1 1703 11 is_stmt 0
	lw	a5,0(s5)
.LVL313:
	.loc 1 1704 5 is_stmt 1
	.loc 1 1704 54 is_stmt 0
	sb	zero,0(a4)
	.loc 1 1705 5 is_stmt 1
	.loc 1 1705 8 is_stmt 0
	li	a4,1
	beq	a5,a4,.L243
	.loc 1 1708 12 is_stmt 1
	.loc 1 1708 15 is_stmt 0
	li	a4,2
	bne	a5,a4,.L195
.LVL314:
.L192:
.LBE177:
	.loc 1 1729 28
	sw	zero,12(sp)
.LVL315:
	.loc 1 1731 21
	li	s8,108
.LVL316:
	.loc 1 1730 17
	li	s11,44
.LVL317:
	j	.L157
.LVL318:
.L195:
.LBB178:
	.loc 1 1711 12 is_stmt 1
	.loc 1 1711 15 is_stmt 0
	li	a4,3
	bne	a5,a4,.L196
	.loc 1 1712 30
	li	a5,1
.LVL319:
	sw	a5,12(sp)
.LVL320:
.L243:
.LBE178:
	.loc 1 1723 21
	li	s8,236
.LVL321:
	.loc 1 1722 17
	li	s11,108
.LVL322:
	j	.L157
.LVL323:
.L198:
.LBE181:
.LBE184:
	.loc 1 1842 10 is_stmt 1
	.loc 1 1842 93 is_stmt 0
	addi	a5,a5,-3
	.loc 1 1842 13
	andi	a5,a5,0xff
	li	a4,2
	bgtu	a5,a4,.L152
	.loc 1 1844 7 is_stmt 1
	lw	a0,40(s1)
	call	dhcp_handle_ack.isra.3
.LVL324:
	.loc 1 1845 7
	mv	a0,s1
.L251:
	call	dhcp_bind
.LVL325:
	j	.L152
.LVL326:
.L197:
	.loc 1 1849 8
	.loc 1 1849 11 is_stmt 0
	li	a3,6
	bne	a4,a3,.L200
	.loc 1 1850 18 discriminator 1
	lbu	a4,5(s3)
.LVL327:
	.loc 1 1849 28 discriminator 1
	li	a3,2
	addi	a5,a4,-3
	andi	a5,a5,0xff
	bleu	a5,a3,.L201
	.loc 1 1850 51
	li	a5,1
	bne	a4,a5,.L152
.L201:
	.loc 1 1852 5 is_stmt 1
	.loc 1 1853 5
.LVL328:
.LBB185:
.LBB186:
	.loc 1 279 3
	.loc 1 282 81
	.loc 1 285 3
	lw	a0,40(s1)
	li	a1,12
.LVL329:
	call	dhcp_set_state
.LVL330:
	.loc 1 287 3
	lui	a1,%hi(ip_addr_any)
	addi	a3,a1,%lo(ip_addr_any)
	addi	a2,a1,%lo(ip_addr_any)
	mv	a0,s1
	addi	a1,a1,%lo(ip_addr_any)
	call	netif_set_addr
.LVL331:
	.loc 1 289 3
	mv	a0,s1
	call	dhcp_discover
.LVL332:
	j	.L152
.LVL333:
.L200:
.LBE186:
.LBE185:
	.loc 1 1856 8
	.loc 1 1856 11 is_stmt 0
	li	a2,2
	bne	a4,a2,.L152
	.loc 1 1856 28 discriminator 1
	lbu	a4,5(s3)
.LVL334:
	bne	a4,a3,.L152
	.loc 1 1857 5 is_stmt 1
	.loc 1 1859 5
.LVL335:
.LBB187:
.LBB188:
	.loc 1 334 3
	.loc 1 337 81
	.loc 1 339 3
	.loc 1 339 6 is_stmt 0
	lui	a4,%hi(dhcp_rx_options_given)
	addi	a4,a4,%lo(dhcp_rx_options_given)
	lbu	a4,2(a4)
	beq	a4,zero,.L152
	.loc 1 334 16
	lw	s0,40(s1)
	.loc 1 340 5 is_stmt 1
	sw	a1,12(sp)
	.loc 1 340 27 is_stmt 0
	sh	zero,8(s0)
.LVL336:
	.loc 1 342 5 is_stmt 1
	.loc 1 342 41 is_stmt 0
	lw	a0,8(a5)
	call	lwip_htonl
.LVL337:
	.loc 1 346 53
	lw	a1,12(sp)
	.loc 1 342 38
	sw	a0,24(s0)
	.loc 1 344 68 is_stmt 1
	.loc 1 346 5
	.loc 1 350 5 is_stmt 0
	mv	a0,s1
	.loc 1 346 53
	lbu	a4,17(a1)
	lbu	a5,16(a1)
	slli	a4,a4,8
	or	a4,a4,a5
	lbu	a5,18(a1)
	slli	a5,a5,16
	or	a4,a5,a4
	lbu	a5,19(a1)
	slli	a5,a5,24
	or	a5,a5,a4
	.loc 1 346 35
	sw	a5,28(s0)
	.loc 1 348 59 is_stmt 1
	.loc 1 350 5
	call	dhcp_select
.LVL338:
	j	.L152
.LVL339:
.L163:
.LBE188:
.LBE187:
.LBB189:
.LBB182:
.LBB179:
	.loc 1 1573 5
	.loc 1 1574 5
	li	a4,51
	beq	a5,a4,.L152
	bgtu	a5,a4,.L204
	li	a4,1
	beq	a5,a4,.L152
	beq	a5,zero,.L167
	li	a4,3
	beq	a5,a4,.L152
	li	a3,6
	.loc 1 1570 11 is_stmt 0
	li	a4,0
	j	.L249
.L204:
	.loc 1 1574 5
	li	a4,54
	beq	a5,a4,.L209
	bgtu	a5,a4,.L205
	li	a4,52
	beq	a5,a4,.L210
	li	a3,53
	.loc 1 1570 11
	li	a4,0
	j	.L247
.L205:
	.loc 1 1574 5
	li	a4,58
	beq	a5,a4,.L212
	li	a3,59
	.loc 1 1570 11
	li	a4,0
	j	.L245
.LBE179:
.LBE182:
.LBE189:
	.cfi_endproc
.LFE38:
	.size	dhcp_recv, .-dhcp_recv
	.section	.text.dhcp_set_struct,"ax",@progbits
	.align	1
	.globl	dhcp_set_struct
	.type	dhcp_set_struct, @function
dhcp_set_struct:
.LFB16:
	.loc 1 691 1 is_stmt 1
	.cfi_startproc
.LVL340:
	.loc 1 692 3
	.loc 1 693 3
	.loc 1 693 8
	.loc 1 693 7
	.loc 1 694 3
	.loc 1 694 8
	.loc 1 694 7
	.loc 1 695 3
	.loc 1 695 8
	.loc 1 695 7
	.loc 1 698 3
	.loc 1 691 1 is_stmt 0
	addi	sp,sp,-16
	.cfi_def_cfa_offset 16
	sw	s0,8(sp)
	.cfi_offset 8, -8
	mv	s0,a1
	sw	s1,4(sp)
	.loc 1 698 3
	li	a2,52
	.cfi_offset 9, -12
	.loc 1 691 1
	mv	s1,a0
	.loc 1 698 3
	li	a1,0
.LVL341:
	mv	a0,s0
.LVL342:
	.loc 1 691 1
	sw	ra,12(sp)
	.cfi_offset 1, -4
	.loc 1 698 3
	call	memset
.LVL343:
	.loc 1 700 3 is_stmt 1
	.loc 1 701 1 is_stmt 0
	lw	ra,12(sp)
	.cfi_restore 1
	.loc 1 700 61
	sw	s0,40(s1)
	.loc 1 701 1
	lw	s0,8(sp)
	.cfi_restore 8
.LVL344:
	lw	s1,4(sp)
	.cfi_restore 9
.LVL345:
	addi	sp,sp,16
	.cfi_def_cfa_offset 0
	jr	ra
	.cfi_endproc
.LFE16:
	.size	dhcp_set_struct, .-dhcp_set_struct
	.section	.text.dhcp_cleanup,"ax",@progbits
	.align	1
	.globl	dhcp_cleanup
	.type	dhcp_cleanup, @function
dhcp_cleanup:
.LFB17:
	.loc 1 713 1 is_stmt 1
	.cfi_startproc
.LVL346:
	.loc 1 714 3
	.loc 1 715 3
	.loc 1 715 8
	.loc 1 715 7
	.loc 1 717 3
	.loc 1 717 42 is_stmt 0
	lw	a5,40(a0)
	.loc 1 717 6
	beq	a5,zero,.L260
	.loc 1 713 1
	addi	sp,sp,-16
	.cfi_def_cfa_offset 16
	sw	s0,8(sp)
	.cfi_offset 8, -8
	mv	s0,a0
	.loc 1 718 5 is_stmt 1
	mv	a0,a5
.LVL347:
	.loc 1 713 1 is_stmt 0
	sw	ra,12(sp)
	.cfi_offset 1, -4
	.loc 1 718 5
	call	mem_free
.LVL348:
	.loc 1 719 5 is_stmt 1
	.loc 1 719 63 is_stmt 0
	sw	zero,40(s0)
	.loc 1 721 1
	lw	ra,12(sp)
	.cfi_restore 1
	lw	s0,8(sp)
	.cfi_restore 8
.LVL349:
	addi	sp,sp,16
	.cfi_def_cfa_offset 0
	jr	ra
.LVL350:
.L260:
	ret
	.cfi_endproc
.LFE17:
	.size	dhcp_cleanup, .-dhcp_cleanup
	.section	.text.dhcp_inform,"ax",@progbits
	.align	1
	.globl	dhcp_inform
	.type	dhcp_inform, @function
dhcp_inform:
.LFB19:
	.loc 1 815 1 is_stmt 1
	.cfi_startproc
.LVL351:
	.loc 1 816 3
	.loc 1 817 3
	.loc 1 818 3
	.loc 1 820 3
	.loc 1 821 3
	.loc 1 821 8
	.loc 1 821 11 is_stmt 0
	beq	a0,zero,.L274
	.loc 1 815 1 discriminator 2
	addi	sp,sp,-80
	.cfi_def_cfa_offset 80
	sw	s0,72(sp)
	sw	ra,76(sp)
	sw	s1,68(sp)
	sw	s2,64(sp)
	.cfi_offset 8, -8
	.cfi_offset 1, -4
	.cfi_offset 9, -12
	.cfi_offset 18, -16
	mv	s0,a0
	.loc 1 821 17 is_stmt 1 discriminator 2
	.loc 1 823 3 discriminator 2
	.loc 1 823 7 is_stmt 0 discriminator 2
	call	dhcp_inc_pcb_refcount
.LVL352:
	.loc 1 823 6 discriminator 2
	bne	a0,zero,.L263
	.loc 1 827 3 is_stmt 1
	li	a2,52
	li	a1,0
	addi	a0,sp,12
	call	memset
.LVL353:
	.loc 1 828 3
	li	a1,7
	addi	a0,sp,12
	call	dhcp_set_state
.LVL354:
	.loc 1 831 3
	.loc 1 831 11 is_stmt 0
	addi	a3,sp,10
	li	a2,8
	addi	a1,sp,12
	mv	a0,s0
	call	dhcp_create_msg
.LVL355:
	mv	s2,a0
.LVL356:
	.loc 1 832 3 is_stmt 1
	.loc 1 832 6 is_stmt 0
	beq	a0,zero,.L265
.LBB190:
	.loc 1 833 5 is_stmt 1
.LVL357:
	.loc 1 834 5
	.loc 1 834 59 is_stmt 0
	lw	s1,4(a0)
	.loc 1 834 23
	lhu	a5,10(sp)
.LBB191:
.LBB192:
	.loc 1 1435 30
	li	a3,57
.LBE192:
.LBE191:
	.loc 1 834 59
	addi	s1,s1,240
.LVL358:
.LBB195:
.LBB193:
	.loc 1 1434 3 is_stmt 1
	.loc 1 1434 8
	.loc 1 1434 59
	.loc 1 1435 3
	.loc 1 1435 30 is_stmt 0
	add	a4,s1,a5
	.loc 1 1436 26
	addi	a0,a5,2
.LVL359:
	.loc 1 1435 26
	addi	a5,a5,1
.LVL360:
	.loc 1 1436 26
	slli	a5,a5,16
.LVL361:
	srli	a5,a5,16
	.loc 1 1435 30
	sb	a3,0(a4)
.LVL362:
	.loc 1 1436 3 is_stmt 1
	.loc 1 1436 30 is_stmt 0
	add	a5,s1,a5
	li	a4,2
	sb	a4,0(a5)
.LBE193:
.LBE195:
	.loc 1 835 23
	lhu	a2,56(s0)
.LBB196:
.LBB194:
	.loc 1 1436 26
	slli	a0,a0,16
.LVL363:
	srli	a0,a0,16
.LVL364:
	.loc 1 1437 3 is_stmt 1
.LBE194:
.LBE196:
	.loc 1 835 23 is_stmt 0
	mv	a1,s1
	.loc 1 834 21
	sh	a0,10(sp)
	.loc 1 835 5 is_stmt 1
	.loc 1 835 23 is_stmt 0
	call	dhcp_option_short
.LVL365:
	.loc 1 838 5
	mv	a2,s2
	mv	a1,s1
	.loc 1 835 21
	sh	a0,10(sp)
	.loc 1 837 5 is_stmt 1
	.loc 1 838 5
	call	dhcp_option_trailer
.LVL366:
	.loc 1 840 5
	.loc 1 842 5
	lui	a5,%hi(.LANCHOR2)
	lw	a0,%lo(.LANCHOR2)(a5)
	lui	a2,%hi(ip_addr_broadcast)
	mv	a4,s0
	li	a3,67
	addi	a2,a2,%lo(ip_addr_broadcast)
	mv	a1,s2
	call	udp_sendto_if
.LVL367:
	.loc 1 844 5
	mv	a0,s2
	call	pbuf_free
.LVL368:
.L265:
.LBE190:
	.loc 1 846 5
	.loc 1 849 3
	call	dhcp_dec_pcb_refcount
.LVL369:
.L263:
	.loc 1 850 1 is_stmt 0
	lw	ra,76(sp)
	.cfi_restore 1
	lw	s0,72(sp)
	.cfi_restore 8
.LVL370:
	lw	s1,68(sp)
	.cfi_restore 9
	lw	s2,64(sp)
	.cfi_restore 18
	addi	sp,sp,80
	.cfi_def_cfa_offset 0
	jr	ra
.LVL371:
.L274:
	ret
	.cfi_endproc
.LFE19:
	.size	dhcp_inform, .-dhcp_inform
	.section	.text.dhcp_network_changed,"ax",@progbits
	.align	1
	.globl	dhcp_network_changed
	.type	dhcp_network_changed, @function
dhcp_network_changed:
.LFB20:
	.loc 1 859 1 is_stmt 1
	.cfi_startproc
.LVL372:
	.loc 1 860 3
	.loc 1 860 16 is_stmt 0
	lw	a5,40(a0)
.LVL373:
	.loc 1 862 3 is_stmt 1
	.loc 1 862 6 is_stmt 0
	beq	a5,zero,.L277
	.loc 1 865 3 is_stmt 1
	.loc 1 865 15 is_stmt 0
	lbu	a4,5(a5)
	.loc 1 865 3
	li	a3,5
	bgtu	a4,a3,.L279
	li	a3,3
	bgeu	a4,a3,.L280
	beq	a4,zero,.L277
.L281:
	.loc 1 877 7 is_stmt 1
	.loc 1 877 12
	.loc 1 877 60
	.loc 1 888 7
	.loc 1 888 19 is_stmt 0
	sb	zero,6(a5)
	.loc 1 889 7 is_stmt 1
	tail	dhcp_discover
.LVL374:
.L279:
	.loc 1 865 3 is_stmt 0
	li	a3,10
	bne	a4,a3,.L281
.L280:
	.loc 1 870 7 is_stmt 1
	.loc 1 870 19 is_stmt 0
	sb	zero,6(a5)
	.loc 1 871 7 is_stmt 1
	tail	dhcp_reboot
.LVL375:
.L277:
	.loc 1 892 1 is_stmt 0
	ret
	.cfi_endproc
.LFE20:
	.size	dhcp_network_changed, .-dhcp_network_changed
	.section	.text.dhcp_arp_reply,"ax",@progbits
	.align	1
	.globl	dhcp_arp_reply
	.type	dhcp_arp_reply, @function
dhcp_arp_reply:
.LFB21:
	.loc 1 904 1 is_stmt 1
	.cfi_startproc
.LVL376:
	.loc 1 905 3
	.loc 1 907 3
	.loc 1 907 8
	.loc 1 907 11 is_stmt 0
	beq	a0,zero,.L302
	.loc 1 907 17 is_stmt 1 discriminator 2
	.loc 1 908 3 discriminator 2
	.loc 1 904 1 is_stmt 0 discriminator 2
	addi	sp,sp,-48
	.cfi_def_cfa_offset 48
	sw	ra,44(sp)
	sw	s0,40(sp)
	sw	s1,36(sp)
	sw	s2,32(sp)
	sw	s3,28(sp)
	sw	s4,24(sp)
	.cfi_offset 1, -4
	.cfi_offset 8, -8
	.cfi_offset 9, -12
	.cfi_offset 18, -16
	.cfi_offset 19, -20
	.cfi_offset 20, -24
	.loc 1 908 8 discriminator 2
	lw	s0,40(a0)
.LVL377:
	.loc 1 909 3 is_stmt 1 discriminator 2
	.loc 1 911 3 discriminator 2
	.loc 1 911 6 is_stmt 0 discriminator 2
	beq	s0,zero,.L288
	.loc 1 911 21 discriminator 1
	lbu	a4,5(s0)
	li	a5,8
	bne	a4,a5,.L288
	.loc 1 913 41 is_stmt 1
	.loc 1 916 5
	.loc 1 916 8 is_stmt 0
	lw	a4,0(a1)
	lw	a5,28(s0)
	bne	a4,a5,.L288
	mv	s4,a0
	.loc 1 919 93 is_stmt 1
	.loc 1 920 7
.LVL378:
.LBB202:
.LBB203:
	.loc 1 937 3
	.loc 1 938 3
	.loc 1 939 3
	.loc 1 940 3
	.loc 1 941 3
	.loc 1 943 3
	.loc 1 944 3
	li	a1,12
.LVL379:
	mv	a0,s0
.LVL380:
	call	dhcp_set_state
.LVL381:
	.loc 1 946 3
	.loc 1 946 11 is_stmt 0
	addi	a3,sp,14
	li	a2,4
	mv	a1,s0
	mv	a0,s4
	call	dhcp_create_msg
.LVL382:
	mv	s2,a0
.LVL383:
	.loc 1 947 3 is_stmt 1
	.loc 1 947 6 is_stmt 0
	beq	a0,zero,.L290
.LBB204:
	.loc 1 948 5 is_stmt 1
.LVL384:
	.loc 1 949 5
	.loc 1 949 59 is_stmt 0
	lw	s1,4(a0)
	.loc 1 949 23
	lhu	a5,14(sp)
.LBB205:
.LBB206:
	.loc 1 1435 30
	li	a3,50
.LBE206:
.LBE205:
	.loc 1 949 59
	addi	s1,s1,240
.LVL385:
.LBB209:
.LBB207:
	.loc 1 1434 3 is_stmt 1
	.loc 1 1434 8
	.loc 1 1434 59
	.loc 1 1435 3
	.loc 1 1435 30 is_stmt 0
	add	a4,s1,a5
	.loc 1 1436 26
	addi	s3,a5,2
	.loc 1 1435 26
	addi	a5,a5,1
.LVL386:
	.loc 1 1436 26
	slli	a5,a5,16
.LVL387:
	srli	a5,a5,16
	.loc 1 1435 30
	sb	a3,0(a4)
.LVL388:
	.loc 1 1436 3 is_stmt 1
	.loc 1 1436 30 is_stmt 0
	add	a5,s1,a5
	li	a4,4
	sb	a4,0(a5)
.LBE207:
.LBE209:
	.loc 1 950 23
	lw	a0,28(s0)
.LVL389:
.LBB210:
.LBB208:
	.loc 1 1436 26
	slli	s3,s3,16
.LVL390:
	srli	s3,s3,16
.LVL391:
	.loc 1 1437 3 is_stmt 1
.LBE208:
.LBE210:
	.loc 1 949 21 is_stmt 0
	sh	s3,14(sp)
	.loc 1 950 5 is_stmt 1
	.loc 1 950 23 is_stmt 0
	call	lwip_htonl
.LVL392:
	mv	a2,a0
	mv	a1,s1
	mv	a0,s3
	call	dhcp_option_long
.LVL393:
	.loc 1 953 5
	mv	a2,s2
	mv	a1,s1
	.loc 1 950 21
	sh	a0,14(sp)
	.loc 1 952 5 is_stmt 1
	.loc 1 953 5
	call	dhcp_option_trailer
.LVL394:
	.loc 1 956 5
	.loc 1 956 14 is_stmt 0
	lui	a0,%hi(.LANCHOR2)
	lw	a0,%lo(.LANCHOR2)(a0)
	lui	a5,%hi(ip_addr_any)
	lui	a2,%hi(ip_addr_broadcast)
	addi	a5,a5,%lo(ip_addr_any)
	mv	a4,s4
	li	a3,67
	addi	a2,a2,%lo(ip_addr_broadcast)
	mv	a1,s2
	call	udp_sendto_if_src
.LVL395:
	.loc 1 957 5 is_stmt 1
	mv	a0,s2
	call	pbuf_free
.LVL396:
	.loc 1 958 5
.L290:
.LBE204:
	.loc 1 964 3
	.loc 1 964 11 is_stmt 0
	lbu	a5,6(s0)
	.loc 1 964 6
	li	a4,255
	beq	a5,a4,.L291
	.loc 1 965 5 is_stmt 1
	.loc 1 965 16 is_stmt 0
	addi	a5,a5,1
	sb	a5,6(s0)
.L291:
	.loc 1 967 3 is_stmt 1
.LVL397:
	.loc 1 968 3
	.loc 1 968 25 is_stmt 0
	li	a5,20
	sh	a5,8(s0)
	.loc 1 969 3 is_stmt 1
	.loc 1 970 3
.LVL398:
.L288:
.LBE203:
.LBE202:
	.loc 1 923 1 is_stmt 0
	lw	ra,44(sp)
	.cfi_restore 1
	lw	s0,40(sp)
	.cfi_restore 8
.LVL399:
	lw	s1,36(sp)
	.cfi_restore 9
	lw	s2,32(sp)
	.cfi_restore 18
	lw	s3,28(sp)
	.cfi_restore 19
	lw	s4,24(sp)
	.cfi_restore 20
	addi	sp,sp,48
	.cfi_def_cfa_offset 0
	jr	ra
.LVL400:
.L302:
	ret
	.cfi_endproc
.LFE21:
	.size	dhcp_arp_reply, .-dhcp_arp_reply
	.section	.text.dhcp_renew,"ax",@progbits
	.align	1
	.globl	dhcp_renew
	.type	dhcp_renew, @function
dhcp_renew:
.LFB25:
	.loc 1 1151 1 is_stmt 1
	.cfi_startproc
.LVL401:
	.loc 1 1152 3
	.loc 1 1151 1 is_stmt 0
	addi	sp,sp,-48
	.cfi_def_cfa_offset 48
	sw	ra,44(sp)
	sw	s0,40(sp)
	sw	s3,28(sp)
	sw	s1,36(sp)
	sw	s2,32(sp)
	.cfi_offset 1, -4
	.cfi_offset 8, -8
	.cfi_offset 19, -20
	.cfi_offset 9, -12
	.cfi_offset 18, -16
	.loc 1 1152 16
	lw	s1,40(a0)
.LVL402:
	.loc 1 1153 3 is_stmt 1
	.loc 1 1154 3
	.loc 1 1155 3
	.loc 1 1156 3
	.loc 1 1157 3
	.loc 1 1159 3
	.loc 1 1160 3
	.loc 1 1161 3
	.loc 1 1151 1 is_stmt 0
	mv	s3,a0
	.loc 1 1161 3
	li	a1,5
	mv	a0,s1
.LVL403:
	call	dhcp_set_state
.LVL404:
	.loc 1 1164 3 is_stmt 1
	.loc 1 1164 11 is_stmt 0
	addi	a3,sp,14
	li	a2,3
	mv	a1,s1
	mv	a0,s3
	call	dhcp_create_msg
.LVL405:
	.loc 1 1165 3 is_stmt 1
	li	s0,-1
	.loc 1 1165 6 is_stmt 0
	beq	a0,zero,.L306
.LBB211:
	.loc 1 1167 59
	lw	s0,4(a0)
	.loc 1 1167 23
	lhu	a5,14(sp)
	mv	s2,a0
	.loc 1 1166 5 is_stmt 1
.LVL406:
	.loc 1 1167 5
	.loc 1 1167 59 is_stmt 0
	addi	s0,s0,240
.LVL407:
.LBB212:
.LBB213:
	.loc 1 1434 3 is_stmt 1
	.loc 1 1434 8
	.loc 1 1434 59
	.loc 1 1435 3
	.loc 1 1435 30 is_stmt 0
	add	a4,s0,a5
	.loc 1 1436 26
	addi	a0,a5,2
.LVL408:
	.loc 1 1435 26
	addi	a5,a5,1
.LVL409:
	.loc 1 1436 26
	slli	a5,a5,16
.LVL410:
	.loc 1 1435 30
	li	a3,57
	.loc 1 1436 26
	srli	a5,a5,16
	.loc 1 1435 30
	sb	a3,0(a4)
.LVL411:
	.loc 1 1436 3 is_stmt 1
	.loc 1 1436 30 is_stmt 0
	add	a5,s0,a5
	li	a4,2
	sb	a4,0(a5)
.LBE213:
.LBE212:
	.loc 1 1168 23
	lhu	a2,56(s3)
.LBB215:
.LBB214:
	.loc 1 1436 26
	slli	a0,a0,16
.LVL412:
	srli	a0,a0,16
.LVL413:
	.loc 1 1437 3 is_stmt 1
.LBE214:
.LBE215:
	.loc 1 1168 23 is_stmt 0
	mv	a1,s0
	.loc 1 1167 21
	sh	a0,14(sp)
	.loc 1 1168 5 is_stmt 1
	.loc 1 1168 23 is_stmt 0
	call	dhcp_option_short
.LVL414:
	.loc 1 1170 5 is_stmt 1
.LBB216:
.LBB217:
	.loc 1 1434 3
	.loc 1 1434 8
	.loc 1 1434 59
	.loc 1 1435 3
	.loc 1 1435 30 is_stmt 0
	add	a5,s0,a0
	li	a4,55
	sb	a4,0(a5)
	.loc 1 1436 3 is_stmt 1
.LVL415:
	.loc 1 1435 26 is_stmt 0
	addi	a5,a0,1
	.loc 1 1436 26
	slli	a5,a5,16
	srli	a5,a5,16
	.loc 1 1436 30
	add	a5,s0,a5
	li	a4,4
	sb	a4,0(a5)
	.loc 1 1437 3 is_stmt 1
.LVL416:
	.loc 1 1436 26 is_stmt 0
	addi	a0,a0,2
.LBE217:
.LBE216:
	.loc 1 1172 25
	lui	a3,%hi(.LANCHOR1)
	.loc 1 1170 21
	sh	a0,14(sp)
	.loc 1 1171 5 is_stmt 1
.LVL417:
	.loc 1 1170 21 is_stmt 0
	li	a5,0
	.loc 1 1172 25
	addi	a3,a3,%lo(.LANCHOR1)
	.loc 1 1171 5
	li	a2,4
.LVL418:
.L307:
	.loc 1 1172 7 is_stmt 1 discriminator 3
	.loc 1 1172 25 is_stmt 0 discriminator 3
	lhu	a4,14(sp)
	add	a1,a3,a5
	lbu	a1,0(a1)
.LVL419:
.LBB218:
.LBB219:
	.loc 1 1446 3 is_stmt 1 discriminator 3
	.loc 1 1446 8 discriminator 3
	.loc 1 1446 40 discriminator 3
	.loc 1 1447 3 discriminator 3
	.loc 1 1447 26 is_stmt 0 discriminator 3
	addi	a0,a4,1
	slli	a0,a0,16
	.loc 1 1447 30 discriminator 3
	add	a4,s0,a4
.LVL420:
	.loc 1 1447 26 discriminator 3
	srli	a0,a0,16
.LVL421:
	.loc 1 1447 30 discriminator 3
	sb	a1,0(a4)
	.loc 1 1448 3 is_stmt 1 discriminator 3
.LVL422:
.LBE219:
.LBE218:
	.loc 1 1172 23 is_stmt 0 discriminator 3
	sh	a0,14(sp)
.LVL423:
	addi	a5,a5,1
.LVL424:
	.loc 1 1171 5 discriminator 3
	bne	a5,a2,.L307
	.loc 1 1176 5 is_stmt 1
	.loc 1 1176 23 is_stmt 0
	mv	a1,s0
	addi	a2,s3,52
	call	dhcp_option_hostname.isra.0
.LVL425:
	.loc 1 1180 5
	mv	a1,s0
	mv	a2,s2
	.loc 1 1176 21
	sh	a0,14(sp)
	.loc 1 1179 5 is_stmt 1
	.loc 1 1180 5
	call	dhcp_option_trailer
.LVL426:
	.loc 1 1182 5
	.loc 1 1182 14 is_stmt 0
	lui	a5,%hi(.LANCHOR2)
	lw	a0,%lo(.LANCHOR2)(a5)
	mv	a4,s3
	li	a3,67
	addi	a2,s1,24
	mv	a1,s2
	call	udp_sendto_if
.LVL427:
	mv	s0,a0
.LVL428:
	.loc 1 1183 5 is_stmt 1
	mv	a0,s2
	call	pbuf_free
.LVL429:
	.loc 1 1185 5
.L306:
.LBE211:
	.loc 1 1190 3
	.loc 1 1190 11 is_stmt 0
	lbu	a5,6(s1)
	.loc 1 1190 6
	li	a4,255
	beq	a5,a4,.L308
	.loc 1 1191 5 is_stmt 1
	.loc 1 1191 16 is_stmt 0
	addi	a5,a5,1
	sb	a5,6(s1)
.L308:
	.loc 1 1194 3 is_stmt 1
	.loc 1 1194 23 is_stmt 0
	lbu	a5,6(s1)
	.loc 1 1194 11
	li	a4,9
	bgtu	a5,a4,.L311
	.loc 1 1194 11 discriminator 1
	li	a4,2000
	mul	a5,a5,a4
	slli	a5,a5,16
	srli	a5,a5,16
.L309:
.LVL430:
	.loc 1 1195 3 is_stmt 1 discriminator 4
	.loc 1 1195 48 is_stmt 0 discriminator 4
	addi	a5,a5,499
.LVL431:
	.loc 1 1195 53 discriminator 4
	li	a4,500
	div	a5,a5,a4
	.loc 1 1198 1 discriminator 4
	mv	a0,s0
	.loc 1 1195 27 discriminator 4
	sh	a5,8(s1)
	.loc 1 1196 3 is_stmt 1 discriminator 4
	.loc 1 1197 3 discriminator 4
	.loc 1 1198 1 is_stmt 0 discriminator 4
	lw	ra,44(sp)
	.cfi_remember_state
	.cfi_restore 1
	lw	s0,40(sp)
	.cfi_restore 8
.LVL432:
	lw	s1,36(sp)
	.cfi_restore 9
.LVL433:
	lw	s2,32(sp)
	.cfi_restore 18
	lw	s3,28(sp)
	.cfi_restore 19
.LVL434:
	addi	sp,sp,48
	.cfi_def_cfa_offset 0
	jr	ra
.LVL435:
.L311:
	.cfi_restore_state
	.loc 1 1194 11
	li	a5,20480
	addi	a5,a5,-480
	j	.L309
	.cfi_endproc
.LFE25:
	.size	dhcp_renew, .-dhcp_renew
	.section	.text.dhcp_supplied_address,"ax",@progbits
	.align	1
	.globl	dhcp_supplied_address
	.type	dhcp_supplied_address, @function
dhcp_supplied_address:
.LFB41:
	.loc 1 1981 1 is_stmt 1
	.cfi_startproc
.LVL436:
	.loc 1 1982 3
	.loc 1 1982 6 is_stmt 0
	beq	a0,zero,.L318
	.loc 1 1982 61 discriminator 1
	lw	a5,40(a0)
	.loc 1 1987 10 discriminator 1
	li	a0,0
.LVL437:
	.loc 1 1982 22 discriminator 1
	beq	a5,zero,.L316
.LBB220:
	.loc 1 1983 5 is_stmt 1
.LVL438:
	.loc 1 1984 5
	.loc 1 1984 17 is_stmt 0
	lbu	a5,5(a5)
.LVL439:
	.loc 1 1984 86
	li	a4,10
	li	a0,1
	beq	a5,a4,.L317
	.loc 1 1984 86 discriminator 4
	addi	a0,a5,-4
	sltiu	a0,a0,2
.L317:
	.loc 1 1984 86 discriminator 8
	andi	a0,a0,0xff
	ret
.LVL440:
.L318:
.LBE220:
	.loc 1 1987 10
	li	a0,0
.LVL441:
.L316:
	.loc 1 1988 1
	ret
	.cfi_endproc
.LFE41:
	.size	dhcp_supplied_address, .-dhcp_supplied_address
	.section	.text.dhcp_release_and_stop,"ax",@progbits
	.align	1
	.globl	dhcp_release_and_stop
	.type	dhcp_release_and_stop, @function
dhcp_release_and_stop:
.LFB28:
	.loc 1 1319 1 is_stmt 1
	.cfi_startproc
.LVL442:
	.loc 1 1320 3
	.loc 1 1319 1 is_stmt 0
	addi	sp,sp,-48
	.cfi_def_cfa_offset 48
	sw	ra,44(sp)
	sw	s0,40(sp)
	sw	s1,36(sp)
	sw	s2,32(sp)
	sw	s3,28(sp)
	sw	s4,24(sp)
	.cfi_offset 1, -4
	.cfi_offset 8, -8
	.cfi_offset 9, -12
	.cfi_offset 18, -16
	.cfi_offset 19, -20
	.cfi_offset 20, -24
	.loc 1 1320 16
	lw	s0,40(a0)
.LVL443:
	.loc 1 1321 3 is_stmt 1
	.loc 1 1323 3
	.loc 1 1324 3
	.loc 1 1325 3
	.loc 1 1325 6 is_stmt 0
	beq	s0,zero,.L322
	.loc 1 1330 3 is_stmt 1
	.loc 1 1330 6 is_stmt 0
	lbu	a5,5(s0)
	beq	a5,zero,.L322
	.loc 1 1334 26
	lw	a5,24(s0)
	.loc 1 1338 35
	sw	zero,28(s0)
	.loc 1 1337 34
	sw	zero,24(s0)
	.loc 1 1339 35
	sw	zero,32(s0)
	.loc 1 1340 35
	sw	zero,36(s0)
	.loc 1 1344 77
	sw	zero,48(s0)
	.loc 1 1344 51
	sw	zero,44(s0)
	.loc 1 1344 26
	sw	zero,40(s0)
	.loc 1 1345 23
	sh	zero,14(s0)
	.loc 1 1345 46
	sw	zero,16(s0)
	.loc 1 1345 84
	sh	zero,20(s0)
	mv	s1,a0
	.loc 1 1334 3 is_stmt 1
	.loc 1 1334 26 is_stmt 0
	sw	a5,12(sp)
	.loc 1 1337 3 is_stmt 1
	.loc 1 1338 3
	.loc 1 1339 3
	.loc 1 1340 3
	.loc 1 1344 3
	.loc 1 1345 3
	.loc 1 1348 3
	.loc 1 1348 7 is_stmt 0
	call	dhcp_supplied_address
.LVL444:
	.loc 1 1348 6
	beq	a0,zero,.L324
.LBB221:
	.loc 1 1350 5 is_stmt 1
	.loc 1 1351 5
	.loc 1 1352 5
	.loc 1 1352 13 is_stmt 0
	addi	a3,sp,10
	li	a2,7
	mv	a1,s0
	mv	a0,s1
	call	dhcp_create_msg
.LVL445:
	mv	s3,a0
.LVL446:
	.loc 1 1353 5 is_stmt 1
	.loc 1 1353 8 is_stmt 0
	beq	a0,zero,.L324
.LBB222:
	.loc 1 1354 7 is_stmt 1
.LVL447:
	.loc 1 1355 7
	.loc 1 1355 61 is_stmt 0
	lw	s2,4(a0)
	.loc 1 1355 25
	lhu	a5,10(sp)
.LBB223:
.LBB224:
	.loc 1 1435 30
	li	a3,54
.LBE224:
.LBE223:
	.loc 1 1355 61
	addi	s2,s2,240
.LVL448:
.LBB227:
.LBB225:
	.loc 1 1434 3 is_stmt 1
	.loc 1 1434 8
	.loc 1 1434 59
	.loc 1 1435 3
	.loc 1 1435 30 is_stmt 0
	add	a4,s2,a5
	.loc 1 1436 26
	addi	s4,a5,2
	.loc 1 1435 26
	addi	a5,a5,1
.LVL449:
	.loc 1 1436 26
	slli	a5,a5,16
.LVL450:
	srli	a5,a5,16
	.loc 1 1435 30
	sb	a3,0(a4)
.LVL451:
	.loc 1 1436 3 is_stmt 1
	.loc 1 1436 30 is_stmt 0
	add	a5,s2,a5
	li	a4,4
	sb	a4,0(a5)
.LBE225:
.LBE227:
	.loc 1 1356 25
	lw	a0,12(sp)
.LVL452:
.LBB228:
.LBB226:
	.loc 1 1436 26
	slli	s4,s4,16
.LVL453:
	srli	s4,s4,16
.LVL454:
	.loc 1 1437 3 is_stmt 1
.LBE226:
.LBE228:
	.loc 1 1355 23 is_stmt 0
	sh	s4,10(sp)
	.loc 1 1356 7 is_stmt 1
	.loc 1 1356 25 is_stmt 0
	call	lwip_htonl
.LVL455:
	mv	a2,a0
	mv	a1,s2
	mv	a0,s4
	call	dhcp_option_long
.LVL456:
	.loc 1 1359 7
	mv	a2,s3
	mv	a1,s2
	.loc 1 1356 23
	sh	a0,10(sp)
	.loc 1 1358 7 is_stmt 1
	.loc 1 1359 7
	call	dhcp_option_trailer
.LVL457:
	.loc 1 1361 7
	lui	a5,%hi(.LANCHOR2)
	lw	a0,%lo(.LANCHOR2)(a5)
	mv	a4,s1
	li	a3,67
	addi	a2,sp,12
	mv	a1,s3
	call	udp_sendto_if
.LVL458:
	.loc 1 1362 7
	mv	a0,s3
	call	pbuf_free
.LVL459:
	.loc 1 1363 7
.LBE222:
	.loc 1 1366 7
.L324:
.LBE221:
	.loc 1 1371 3
	lui	a1,%hi(ip_addr_any)
	addi	a3,a1,%lo(ip_addr_any)
	addi	a2,a1,%lo(ip_addr_any)
	mv	a0,s1
	addi	a1,a1,%lo(ip_addr_any)
	call	netif_set_addr
.LVL460:
	.loc 1 1380 3
	li	a1,0
	mv	a0,s0
	call	dhcp_set_state
.LVL461:
	.loc 1 1382 3
	.loc 1 1382 6 is_stmt 0
	lbu	a5,4(s0)
	beq	a5,zero,.L322
	.loc 1 1383 5 is_stmt 1
	call	dhcp_dec_pcb_refcount
.LVL462:
	.loc 1 1384 5
	.loc 1 1384 25 is_stmt 0
	sb	zero,4(s0)
.LVL463:
.L322:
	.loc 1 1386 1
	lw	ra,44(sp)
	.cfi_restore 1
	lw	s0,40(sp)
	.cfi_restore 8
.LVL464:
	lw	s1,36(sp)
	.cfi_restore 9
	lw	s2,32(sp)
	.cfi_restore 18
	lw	s3,28(sp)
	.cfi_restore 19
	lw	s4,24(sp)
	.cfi_restore 20
	addi	sp,sp,48
	.cfi_def_cfa_offset 0
	jr	ra
	.cfi_endproc
.LFE28:
	.size	dhcp_release_and_stop, .-dhcp_release_and_stop
	.section	.text.dhcp_start,"ax",@progbits
	.align	1
	.globl	dhcp_start
	.type	dhcp_start, @function
dhcp_start:
.LFB18:
	.loc 1 738 1 is_stmt 1
	.cfi_startproc
.LVL465:
	.loc 1 739 3
	.loc 1 740 3
	.loc 1 742 3
	.loc 1 743 3
	.loc 1 743 8
	.loc 1 738 1 is_stmt 0
	addi	sp,sp,-16
	.cfi_def_cfa_offset 16
	sw	s1,4(sp)
	sw	ra,12(sp)
	sw	s0,8(sp)
	sw	s2,0(sp)
	.cfi_offset 9, -12
	.cfi_offset 1, -4
	.cfi_offset 8, -8
	.cfi_offset 18, -16
	.loc 1 743 17
	li	s1,-16
	.loc 1 743 11
	beq	a0,zero,.L344
	.loc 1 743 25 is_stmt 1 discriminator 2
	.loc 1 744 3 discriminator 2
	.loc 1 744 8 discriminator 2
	.loc 1 744 11 is_stmt 0 discriminator 2
	lbu	a5,65(a0)
	.loc 1 743 17 discriminator 2
	li	s1,-16
	.loc 1 744 11 discriminator 2
	andi	a5,a5,1
	beq	a5,zero,.L344
	.loc 1 744 82 is_stmt 1 discriminator 2
	.loc 1 745 3 discriminator 2
	.loc 1 749 6 is_stmt 0 discriminator 2
	lhu	a4,56(a0)
	li	a5,575
	.loc 1 745 8 discriminator 2
	lw	s2,40(a0)
.LVL466:
	.loc 1 746 3 is_stmt 1 discriminator 2
	.loc 1 749 3 discriminator 2
	.loc 1 749 6 is_stmt 0 discriminator 2
	bgtu	a4,a5,.L345
.LVL467:
.L362:
	.loc 1 798 5 is_stmt 1
	.loc 1 798 12 is_stmt 0
	li	s1,-1
	j	.L344
.LVL468:
.L345:
	mv	s0,a0
	.loc 1 755 3 is_stmt 1
	.loc 1 755 6 is_stmt 0
	bne	s2,zero,.L346
.LVL469:
	.loc 1 756 5 is_stmt 1
	.loc 1 757 5
	.loc 1 757 27 is_stmt 0
	li	a0,52
	call	mem_malloc
.LVL470:
	mv	s2,a0
.LVL471:
	.loc 1 758 5 is_stmt 1
	.loc 1 758 8 is_stmt 0
	beq	a0,zero,.L362
	.loc 1 764 5 is_stmt 1
	.loc 1 764 63 is_stmt 0
	sw	a0,40(s0)
	.loc 1 765 5 is_stmt 1
.LVL472:
.L348:
	.loc 1 777 3
	li	a2,52
	li	a1,0
	mv	a0,s2
	call	memset
.LVL473:
	.loc 1 780 3
	.loc 1 782 3
	.loc 1 782 7 is_stmt 0
	call	dhcp_inc_pcb_refcount
.LVL474:
	mv	s1,a0
	.loc 1 782 6
	bne	a0,zero,.L362
	.loc 1 785 3 is_stmt 1
	.loc 1 785 23 is_stmt 0
	li	a5,1
	sb	a5,4(s2)
	.loc 1 787 3 is_stmt 1
	.loc 1 787 6 is_stmt 0
	lbu	a5,65(s0)
	andi	a5,a5,4
	bne	a5,zero,.L349
	.loc 1 789 5 is_stmt 1
	li	a1,2
	mv	a0,s2
	call	dhcp_set_state
.LVL475:
	.loc 1 790 5
.L344:
	.loc 1 801 1 is_stmt 0
	lw	ra,12(sp)
	.cfi_remember_state
	.cfi_restore 1
	lw	s0,8(sp)
	.cfi_restore 8
	mv	a0,s1
	lw	s2,0(sp)
	.cfi_restore 18
	lw	s1,4(sp)
	.cfi_restore 9
	addi	sp,sp,16
	.cfi_def_cfa_offset 0
	jr	ra
.LVL476:
.L346:
	.cfi_restore_state
	.loc 1 768 5 is_stmt 1
	.loc 1 770 5
	.loc 1 770 8 is_stmt 0
	lbu	a5,4(s2)
	beq	a5,zero,.L348
	.loc 1 771 7 is_stmt 1
	call	dhcp_dec_pcb_refcount
.LVL477:
	j	.L348
.L349:
	.loc 1 794 3
	.loc 1 794 12 is_stmt 0
	mv	a0,s0
	call	dhcp_discover
.LVL478:
	mv	s1,a0
.LVL479:
	.loc 1 795 3 is_stmt 1
	.loc 1 795 6 is_stmt 0
	beq	a0,zero,.L344
	.loc 1 797 5 is_stmt 1
	mv	a0,s0
.LVL480:
	call	dhcp_release_and_stop
.LVL481:
	j	.L362
	.cfi_endproc
.LFE18:
	.size	dhcp_start, .-dhcp_start
	.section	.text.dhcp_coarse_tmr,"ax",@progbits
	.align	1
	.globl	dhcp_coarse_tmr
	.type	dhcp_coarse_tmr, @function
dhcp_coarse_tmr:
.LFB10:
	.loc 1 431 1
	.cfi_startproc
	.loc 1 432 3
	.loc 1 433 3
	.loc 1 435 3
	.loc 1 431 1 is_stmt 0
	addi	sp,sp,-64
	.cfi_def_cfa_offset 64
	.loc 1 435 16
	lui	a5,%hi(netif_list)
	.loc 1 431 1
	sw	s0,56(sp)
	.cfi_offset 8, -8
	.loc 1 435 16
	lw	s0,%lo(netif_list)(a5)
.LVL482:
	.loc 1 431 1
	sw	s4,40(sp)
	sw	s5,36(sp)
	.cfi_offset 20, -24
	.cfi_offset 21, -28
.LBB243:
.LBB244:
.LBB245:
.LBB246:
.LBB247:
	.loc 1 1248 11
	li	s4,8192
.LBB248:
	.loc 1 1227 25
	lui	s5,%hi(.LANCHOR1)
.LBE248:
.LBE247:
.LBE246:
.LBE245:
.LBE244:
.LBE243:
	.loc 1 431 1
	sw	s3,44(sp)
	sw	s6,32(sp)
	sw	s7,28(sp)
	sw	ra,60(sp)
	sw	s1,52(sp)
	sw	s2,48(sp)
	sw	s8,24(sp)
	.cfi_offset 19, -20
	.cfi_offset 22, -32
	.cfi_offset 23, -36
	.cfi_offset 1, -4
	.cfi_offset 9, -12
	.cfi_offset 18, -16
	.cfi_offset 24, -40
.LBB273:
	.loc 1 451 38
	li	s3,1
.LBB269:
.LBB267:
.LBB264:
.LBB261:
	.loc 1 1248 11
	addi	s4,s4,1808
.LBB259:
	.loc 1 1227 25
	addi	s5,s5,%lo(.LANCHOR1)
	.loc 1 1238 14
	lui	s6,%hi(.LANCHOR2)
	lui	s7,%hi(ip_addr_broadcast)
.L364:
.LBE259:
.LBE261:
.LBE264:
.LBE267:
.LBE269:
.LBE273:
	.loc 1 435 3 discriminator 1
	bne	s0,zero,.L375
	.loc 1 458 1
	lw	ra,60(sp)
	.cfi_remember_state
	.cfi_restore 1
	lw	s0,56(sp)
	.cfi_restore 8
.LVL483:
	lw	s1,52(sp)
	.cfi_restore 9
	lw	s2,48(sp)
	.cfi_restore 18
	lw	s3,44(sp)
	.cfi_restore 19
	lw	s4,40(sp)
	.cfi_restore 20
	lw	s5,36(sp)
	.cfi_restore 21
	lw	s6,32(sp)
	.cfi_restore 22
	lw	s7,28(sp)
	.cfi_restore 23
	lw	s8,24(sp)
	.cfi_restore 24
	addi	sp,sp,64
	.cfi_def_cfa_offset 0
	jr	ra
.LVL484:
.L375:
	.cfi_restore_state
.LBB274:
	.loc 1 437 5 is_stmt 1
	.loc 1 437 18 is_stmt 0
	lw	a5,40(s0)
.LVL485:
	.loc 1 438 5 is_stmt 1
	.loc 1 438 8 is_stmt 0
	beq	a5,zero,.L366
	.loc 1 438 23 discriminator 1
	lbu	a4,5(a5)
	beq	a4,zero,.L366
	.loc 1 440 7 is_stmt 1
	.loc 1 440 15 is_stmt 0
	lhu	a3,20(a5)
	.loc 1 440 10
	beq	a3,zero,.L368
	.loc 1 440 32 discriminator 1
	lhu	a4,18(a5)
	addi	a4,a4,1
	slli	a4,a4,16
	srli	a4,a4,16
	.loc 1 440 28 discriminator 1
	sh	a4,18(a5)
	bne	a3,a4,.L368
	.loc 1 441 9 is_stmt 1
	.loc 1 443 9
	mv	a0,s0
	call	dhcp_release_and_stop
.LVL486:
	.loc 1 444 9
	mv	a0,s0
	call	dhcp_start
.LVL487:
.L366:
.LBE274:
	.loc 1 435 12 is_stmt 0 discriminator 2
	lw	s0,0(s0)
.LVL488:
	j	.L364
.LVL489:
.L368:
.LBB275:
	.loc 1 446 14 is_stmt 1
	.loc 1 446 22 is_stmt 0
	lhu	a4,16(a5)
	.loc 1 446 17
	beq	a4,zero,.L369
	.loc 1 446 63 discriminator 1
	addi	a3,a4,-1
	sh	a3,16(a5)
	.loc 1 446 39 discriminator 1
	bne	a4,s3,.L369
	.loc 1 447 9 is_stmt 1
	.loc 1 449 9
.LVL490:
.LBB270:
.LBB268:
	.loc 1 575 3
	.loc 1 575 16 is_stmt 0
	lw	s1,40(s0)
.LVL491:
	.loc 1 577 3 is_stmt 1
	.loc 1 578 3
	.loc 1 578 6 is_stmt 0
	li	a5,10
.LVL492:
	.loc 1 578 12
	lbu	a4,5(s1)
	.loc 1 578 6
	bgtu	a4,a5,.L366
	li	a5,1074
	srl	a5,a5,a4
	andi	a5,a5,1
	beq	a5,zero,.L366
	.loc 1 582 54 is_stmt 1
	.loc 1 585 5
.LVL493:
.LBB265:
.LBB262:
	.loc 1 1208 3
	.loc 1 1209 3
	.loc 1 1210 3
	.loc 1 1211 3
	.loc 1 1212 3
	.loc 1 1213 3
	.loc 1 1215 3
	.loc 1 1216 3
	li	a1,4
	mv	a0,s1
	call	dhcp_set_state
.LVL494:
	.loc 1 1219 3
	.loc 1 1219 11 is_stmt 0
	addi	a3,sp,14
	li	a2,3
	mv	a1,s1
	mv	a0,s0
	call	dhcp_create_msg
.LVL495:
	mv	s8,a0
.LVL496:
	.loc 1 1220 3 is_stmt 1
	.loc 1 1220 6 is_stmt 0
	beq	a0,zero,.L370
.LBB260:
	.loc 1 1221 5 is_stmt 1
.LVL497:
	.loc 1 1222 5
	.loc 1 1222 59 is_stmt 0
	lw	s2,4(a0)
	.loc 1 1222 23
	lhu	a5,14(sp)
.LBB249:
.LBB250:
	.loc 1 1435 30
	li	a3,57
.LBE250:
.LBE249:
	.loc 1 1222 59
	addi	s2,s2,240
.LVL498:
.LBB253:
.LBB251:
	.loc 1 1434 3 is_stmt 1
	.loc 1 1434 8
	.loc 1 1434 59
	.loc 1 1435 3
	.loc 1 1435 30 is_stmt 0
	add	a4,s2,a5
	.loc 1 1436 26
	addi	a0,a5,2
.LVL499:
	.loc 1 1435 26
	addi	a5,a5,1
.LVL500:
	.loc 1 1436 26
	slli	a5,a5,16
.LVL501:
	srli	a5,a5,16
	.loc 1 1435 30
	sb	a3,0(a4)
.LVL502:
	.loc 1 1436 3 is_stmt 1
	.loc 1 1436 30 is_stmt 0
	add	a5,s2,a5
	li	a4,2
	sb	a4,0(a5)
.LBE251:
.LBE253:
	.loc 1 1223 23
	lhu	a2,56(s0)
.LBB254:
.LBB252:
	.loc 1 1436 26
	slli	a0,a0,16
.LVL503:
	srli	a0,a0,16
.LVL504:
	.loc 1 1437 3 is_stmt 1
.LBE252:
.LBE254:
	.loc 1 1223 23 is_stmt 0
	mv	a1,s2
	.loc 1 1222 21
	sh	a0,14(sp)
	.loc 1 1223 5 is_stmt 1
	.loc 1 1223 23 is_stmt 0
	call	dhcp_option_short
.LVL505:
	.loc 1 1225 5 is_stmt 1
.LBB255:
.LBB256:
	.loc 1 1434 3
	.loc 1 1434 8
	.loc 1 1434 59
	.loc 1 1435 3
	.loc 1 1435 30 is_stmt 0
	add	a5,s2,a0
	li	a4,55
	sb	a4,0(a5)
	.loc 1 1436 3 is_stmt 1
.LVL506:
	.loc 1 1435 26 is_stmt 0
	addi	a5,a0,1
	.loc 1 1436 26
	slli	a5,a5,16
	srli	a5,a5,16
	.loc 1 1436 30
	add	a5,s2,a5
	li	a4,4
	sb	a4,0(a5)
	.loc 1 1437 3 is_stmt 1
.LVL507:
	.loc 1 1436 26 is_stmt 0
	addi	a0,a0,2
.LBE256:
.LBE255:
	.loc 1 1225 21
	sh	a0,14(sp)
	.loc 1 1226 5 is_stmt 1
.LVL508:
	.loc 1 1225 21 is_stmt 0
	li	a5,0
	.loc 1 1226 5
	li	a3,4
.LVL509:
.L371:
	.loc 1 1227 7 is_stmt 1
	.loc 1 1227 25 is_stmt 0
	lhu	a4,14(sp)
	add	a2,s5,a5
	lbu	a2,0(a2)
.LVL510:
.LBB257:
.LBB258:
	.loc 1 1446 3 is_stmt 1
	.loc 1 1446 8
	.loc 1 1446 40
	.loc 1 1447 3
	.loc 1 1447 26 is_stmt 0
	addi	a0,a4,1
	slli	a0,a0,16
	.loc 1 1447 30
	add	a4,s2,a4
.LVL511:
	.loc 1 1447 26
	srli	a0,a0,16
.LVL512:
	.loc 1 1447 30
	sb	a2,0(a4)
	.loc 1 1448 3 is_stmt 1
.LVL513:
.LBE258:
.LBE257:
	.loc 1 1227 23 is_stmt 0
	sh	a0,14(sp)
.LVL514:
	addi	a5,a5,1
.LVL515:
	.loc 1 1226 5
	bne	a5,a3,.L371
	.loc 1 1231 5 is_stmt 1
	.loc 1 1231 23 is_stmt 0
	addi	a2,s0,52
	mv	a1,s2
	call	dhcp_option_hostname.isra.0
.LVL516:
	.loc 1 1235 5
	mv	a2,s8
	mv	a1,s2
	.loc 1 1231 21
	sh	a0,14(sp)
	.loc 1 1234 5 is_stmt 1
	.loc 1 1235 5
	call	dhcp_option_trailer
.LVL517:
	.loc 1 1238 5
	.loc 1 1238 14 is_stmt 0
	lw	a0,%lo(.LANCHOR2)(s6)
	mv	a4,s0
	li	a3,67
	addi	a2,s7,%lo(ip_addr_broadcast)
	mv	a1,s8
	call	udp_sendto_if
.LVL518:
	.loc 1 1239 5 is_stmt 1
	mv	a0,s8
	call	pbuf_free
.LVL519:
	.loc 1 1240 5
.L370:
.LBE260:
	.loc 1 1245 3
	.loc 1 1245 11 is_stmt 0
	lbu	a5,6(s1)
	.loc 1 1245 6
	li	a4,255
	beq	a5,a4,.L372
	.loc 1 1246 5 is_stmt 1
	.loc 1 1246 16 is_stmt 0
	addi	a5,a5,1
	sb	a5,6(s1)
.L372:
	.loc 1 1248 3 is_stmt 1
	.loc 1 1248 23 is_stmt 0
	lbu	a4,6(s1)
	.loc 1 1248 11
	li	a3,9
	mv	a5,s4
	bgtu	a4,a3,.L373
	li	a5,1000
	mul	a5,a4,a5
	slli	a5,a5,16
	srli	a5,a5,16
.L373:
.LVL520:
	.loc 1 1249 3 is_stmt 1
	.loc 1 1249 53 is_stmt 0
	li	a4,500
	.loc 1 1249 48
	addi	a5,a5,499
.LVL521:
	.loc 1 1249 53
	div	a5,a5,a4
.LBE262:
.LBE265:
	.loc 1 587 34
	lhu	a4,18(s1)
.LBB266:
.LBB263:
	.loc 1 1249 27
	sh	a5,8(s1)
	.loc 1 1250 3 is_stmt 1
	.loc 1 1251 3
.LVL522:
.LBE263:
.LBE266:
	.loc 1 587 5
	.loc 1 587 15 is_stmt 0
	lhu	a5,20(s1)
	.loc 1 587 28
	sub	a5,a5,a4
	.loc 1 587 8
	ble	a5,s3,.L366
	.loc 1 588 7 is_stmt 1
	.loc 1 588 76 is_stmt 0
	srai	a5,a5,1
	.loc 1 588 30
	sh	a5,16(s1)
	j	.L366
.LVL523:
.L369:
.LBE268:
.LBE270:
	.loc 1 451 14 is_stmt 1
	.loc 1 451 22 is_stmt 0
	lhu	a4,14(a5)
	.loc 1 451 17
	beq	a4,zero,.L366
	.loc 1 451 61 discriminator 1
	addi	a3,a4,-1
	sh	a3,14(a5)
	.loc 1 451 38 discriminator 1
	bne	a4,s3,.L366
	.loc 1 452 9 is_stmt 1
	.loc 1 454 9
.LVL524:
.LBB271:
.LBB272:
	.loc 1 548 3
	.loc 1 548 16 is_stmt 0
	lw	s1,40(s0)
.LVL525:
	.loc 1 550 3 is_stmt 1
	.loc 1 551 3
	.loc 1 551 12 is_stmt 0
	lbu	a5,5(s1)
.LVL526:
	.loc 1 551 6
	andi	a4,a5,251
	beq	a4,s3,.L374
	.loc 1 551 46
	li	a4,10
	bne	a5,a4,.L366
.L374:
	.loc 1 556 53 is_stmt 1
	.loc 1 559 5
	mv	a0,s0
	call	dhcp_renew
.LVL527:
	.loc 1 561 5
	.loc 1 561 15 is_stmt 0
	lhu	a5,12(s1)
	.loc 1 561 34
	lhu	a4,18(s1)
	.loc 1 561 28
	sub	a5,a5,a4
	.loc 1 561 8
	ble	a5,s3,.L366
	.loc 1 562 7 is_stmt 1
	.loc 1 562 75 is_stmt 0
	srai	a5,a5,1
	.loc 1 562 29
	sh	a5,14(s1)
	j	.L366
.LBE272:
.LBE271:
.LBE275:
	.cfi_endproc
.LFE10:
	.size	dhcp_coarse_tmr, .-dhcp_coarse_tmr
	.section	.text.dhcp_fine_tmr,"ax",@progbits
	.align	1
	.globl	dhcp_fine_tmr
	.type	dhcp_fine_tmr, @function
dhcp_fine_tmr:
.LFB11:
	.loc 1 469 1 is_stmt 1
	.cfi_startproc
	.loc 1 470 3
	.loc 1 472 3
	.loc 1 469 1 is_stmt 0
	addi	sp,sp,-32
	.cfi_def_cfa_offset 32
	.loc 1 472 16
	lui	a5,%hi(netif_list)
	.loc 1 469 1
	sw	s0,24(sp)
	.cfi_offset 8, -8
	.loc 1 472 16
	lw	s0,%lo(netif_list)(a5)
.LVL528:
	.loc 1 469 1
	sw	s1,20(sp)
	sw	s2,16(sp)
	sw	s3,12(sp)
	sw	s4,8(sp)
	sw	s5,4(sp)
	sw	s6,0(sp)
	sw	ra,28(sp)
	.cfi_offset 9, -12
	.cfi_offset 18, -16
	.cfi_offset 19, -20
	.cfi_offset 20, -24
	.cfi_offset 21, -28
	.cfi_offset 22, -32
	.cfi_offset 1, -4
.LBB279:
	.loc 1 477 10
	li	s1,1
.LBB280:
.LBB281:
	.loc 1 505 6
	li	s2,12
	.loc 1 505 47
	li	s3,6
	.loc 1 520 13
	li	s4,8
	.loc 1 531 13
	li	s5,3
	.loc 1 511 8
	li	s6,5
.L395:
.LBE281:
.LBE280:
.LBE279:
	.loc 1 472 3 discriminator 1
	bne	s0,zero,.L407
	.loc 1 488 1
	lw	ra,28(sp)
	.cfi_remember_state
	.cfi_restore 1
	lw	s0,24(sp)
	.cfi_restore 8
.LVL529:
	lw	s1,20(sp)
	.cfi_restore 9
	lw	s2,16(sp)
	.cfi_restore 18
	lw	s3,12(sp)
	.cfi_restore 19
	lw	s4,8(sp)
	.cfi_restore 20
	lw	s5,4(sp)
	.cfi_restore 21
	lw	s6,0(sp)
	.cfi_restore 22
	addi	sp,sp,32
	.cfi_def_cfa_offset 0
	jr	ra
.LVL530:
.L407:
	.cfi_restore_state
.LBB284:
	.loc 1 473 5 is_stmt 1
	.loc 1 473 18 is_stmt 0
	lw	a4,40(s0)
.LVL531:
	.loc 1 475 5 is_stmt 1
	.loc 1 475 8 is_stmt 0
	beq	a4,zero,.L397
	.loc 1 477 7 is_stmt 1
	.loc 1 477 15 is_stmt 0
	lhu	a5,8(a4)
	.loc 1 477 10
	bleu	a5,s1,.L398
	.loc 1 478 9 is_stmt 1
	.loc 1 478 30 is_stmt 0
	addi	a5,a5,-1
	sh	a5,8(a4)
.LVL532:
.L397:
.LBE284:
	.loc 1 472 12 discriminator 2
	lw	s0,0(s0)
.LVL533:
	j	.L395
.LVL534:
.L398:
.LBB285:
	.loc 1 479 14 is_stmt 1
	.loc 1 479 17 is_stmt 0
	bne	a5,s1,.L397
	.loc 1 480 9 is_stmt 1
	.loc 1 480 30 is_stmt 0
	sh	zero,8(a4)
	.loc 1 482 9 is_stmt 1
	.loc 1 484 9
.LVL535:
.LBB283:
.LBB282:
	.loc 1 501 3
	.loc 1 501 16 is_stmt 0
	lw	a4,40(s0)
.LVL536:
	.loc 1 503 3 is_stmt 1
	.loc 1 505 3
	.loc 1 505 12 is_stmt 0
	lbu	a5,5(a4)
	.loc 1 505 6
	beq	a5,s2,.L400
	.loc 1 505 47
	bne	a5,s3,.L401
.L400:
	.loc 1 506 5 is_stmt 1
	.loc 1 507 5
	mv	a0,s0
.L406:
	.loc 1 535 7
	call	dhcp_discover
.LVL537:
	j	.L397
.LVL538:
.L401:
	.loc 1 509 10
	.loc 1 509 13 is_stmt 0
	bne	a5,s1,.L402
	.loc 1 510 5 is_stmt 1
	.loc 1 511 5
	.loc 1 511 8 is_stmt 0
	lbu	a5,6(a4)
	.loc 1 512 7
	mv	a0,s0
	.loc 1 511 8
	bgtu	a5,s6,.L403
	.loc 1 512 7 is_stmt 1
	call	dhcp_select
.LVL539:
	j	.L397
.LVL540:
.L403:
	.loc 1 514 7
	.loc 1 515 7
	call	dhcp_release_and_stop
.LVL541:
	.loc 1 516 7
	mv	a0,s0
	call	dhcp_start
.LVL542:
	j	.L397
.LVL543:
.L402:
	.loc 1 520 10
	.loc 1 520 13 is_stmt 0
	bne	a5,s4,.L404
	.loc 1 521 5 is_stmt 1
	.loc 1 522 5
	.loc 1 522 8 is_stmt 0
	lbu	a5,6(a4)
	.loc 1 523 7
	mv	a0,s0
	.loc 1 522 8
	bgtu	a5,s1,.L405
	.loc 1 523 7 is_stmt 1
	call	dhcp_check
.LVL544:
	j	.L397
.LVL545:
.L405:
	.loc 1 528 7
	call	dhcp_bind
.LVL546:
	j	.L397
.LVL547:
.L404:
	.loc 1 531 10
	.loc 1 531 13 is_stmt 0
	bne	a5,s5,.L397
	.loc 1 532 5 is_stmt 1
	.loc 1 532 8 is_stmt 0
	lbu	a5,6(a4)
	.loc 1 533 7
	mv	a0,s0
	.loc 1 532 8
	bgtu	a5,s1,.L406
	.loc 1 533 7 is_stmt 1
	call	dhcp_reboot
.LVL548:
	j	.L397
.LBE282:
.LBE283:
.LBE285:
	.cfi_endproc
.LFE11:
	.size	dhcp_fine_tmr, .-dhcp_fine_tmr
	.section	.text.dhcp_release,"ax",@progbits
	.align	1
	.globl	dhcp_release
	.type	dhcp_release, @function
dhcp_release:
.LFB29:
	.loc 1 1395 1
	.cfi_startproc
.LVL549:
	.loc 1 1396 3
	.loc 1 1395 1 is_stmt 0
	addi	sp,sp,-16
	.cfi_def_cfa_offset 16
	sw	ra,12(sp)
	.cfi_offset 1, -4
	.loc 1 1396 3
	call	dhcp_release_and_stop
.LVL550:
	.loc 1 1397 3 is_stmt 1
	.loc 1 1398 1 is_stmt 0
	lw	ra,12(sp)
	.cfi_restore 1
	li	a0,0
	addi	sp,sp,16
	.cfi_def_cfa_offset 0
	jr	ra
	.cfi_endproc
.LFE29:
	.size	dhcp_release, .-dhcp_release
	.section	.text.dhcp_stop,"ax",@progbits
	.align	1
	.globl	dhcp_stop
	.type	dhcp_stop, @function
dhcp_stop:
.LFB30:
	.loc 1 1407 1 is_stmt 1
	.cfi_startproc
.LVL551:
	.loc 1 1408 3
	tail	dhcp_release_and_stop
.LVL552:
	.cfi_endproc
.LFE30:
	.size	dhcp_stop, .-dhcp_stop
	.comm	dhcp_rx_options_given,10,4
	.comm	dhcp_rx_options_val,40,4
	.section	.sbss.dhcp_pcb,"aw",@nobits
	.align	2
	.set	.LANCHOR2,. + 0
	.type	dhcp_pcb, @object
	.size	dhcp_pcb, 4
dhcp_pcb:
	.zero	4
	.section	.sbss.dhcp_pcb_refcount,"aw",@nobits
	.set	.LANCHOR3,. + 0
	.type	dhcp_pcb_refcount, @object
	.size	dhcp_pcb_refcount, 1
dhcp_pcb_refcount:
	.zero	1
	.section	.sbss.xid.4069,"aw",@nobits
	.align	2
	.set	.LANCHOR0,. + 0
	.type	xid.4069, @object
	.size	xid.4069, 4
xid.4069:
	.zero	4
	.section	.sdata2.dhcp_discover_request_options,"a"
	.align	2
	.set	.LANCHOR1,. + 0
	.type	dhcp_discover_request_options, @object
	.size	dhcp_discover_request_options, 4
dhcp_discover_request_options:
	.byte	1
	.byte	3
	.byte	28
	.byte	6
	.text
.Letext0:
	.file 2 "/b-l/bl_iot_sdk/components/network/lwip/lwip-port/arch/cc.h"
	.file 3 "/b-l/bl_iot_sdk/toolchain/riscv/Linux/lib/gcc/riscv64-unknown-elf/8.3.0/include/stddef.h"
	.file 4 "/b-l/bl_iot_sdk/toolchain/riscv/Linux/riscv64-unknown-elf/include/sys/_types.h"
	.file 5 "/b-l/bl_iot_sdk/toolchain/riscv/Linux/riscv64-unknown-elf/include/sys/reent.h"
	.file 6 "/b-l/bl_iot_sdk/toolchain/riscv/Linux/riscv64-unknown-elf/include/sys/lock.h"
	.file 7 "/b-l/bl_iot_sdk/toolchain/riscv/Linux/riscv64-unknown-elf/include/stdlib.h"
	.file 8 "/b-l/bl_iot_sdk/toolchain/riscv/Linux/riscv64-unknown-elf/include/ctype.h"
	.file 9 "/b-l/bl_iot_sdk/components/network/lwip/src/include/lwip/mem.h"
	.file 10 "/b-l/bl_iot_sdk/components/network/lwip/src/include/lwip/priv/memp_priv.h"
	.file 11 "/b-l/bl_iot_sdk/components/network/lwip/src/include/lwip/stats.h"
	.file 12 "/b-l/bl_iot_sdk/components/network/lwip/src/include/lwip/memp.h"
	.file 13 "/b-l/bl_iot_sdk/components/network/lwip/src/include/lwip/err.h"
	.file 14 "/b-l/bl_iot_sdk/components/network/lwip/src/include/lwip/pbuf.h"
	.file 15 "/b-l/bl_iot_sdk/components/network/lwip/src/include/lwip/ip4_addr.h"
	.file 16 "/b-l/bl_iot_sdk/components/network/lwip/src/include/lwip/ip_addr.h"
	.file 17 "/b-l/bl_iot_sdk/components/network/lwip/src/include/lwip/netif.h"
	.file 18 "/b-l/bl_iot_sdk/components/network/lwip/src/include/lwip/prot/ip4.h"
	.file 19 "/b-l/bl_iot_sdk/components/network/lwip/src/include/lwip/ip.h"
	.file 20 "/b-l/bl_iot_sdk/components/network/lwip/src/include/lwip/udp.h"
	.file 21 "/b-l/bl_iot_sdk/components/network/lwip/src/include/lwip/dhcp.h"
	.file 22 "/b-l/bl_iot_sdk/components/network/lwip/src/include/lwip/dns.h"
	.file 23 "/b-l/bl_iot_sdk/components/network/lwip/src/include/lwip/prot/dhcp.h"
	.file 24 "/b-l/bl_iot_sdk/components/network/lwip/src/include/lwip/prot/iana.h"
	.file 25 "/b-l/bl_iot_sdk/components/network/lwip/lwip-port/config/lwipopts.h"
	.file 26 "/b-l/bl_iot_sdk/toolchain/riscv/Linux/riscv64-unknown-elf/include/string.h"
	.file 27 "/b-l/bl_iot_sdk/components/network/lwip/src/include/lwip/def.h"
	.file 28 "/b-l/bl_iot_sdk/components/network/lwip/src/include/lwip/etharp.h"