	.file	"ip4_addr.c"
	.option nopic
	.attribute arch, "rv32i2p0_m2p0_f2p0_c2p0"
	.attribute unaligned_access, 0
	.attribute stack_align, 16
	.text
.Ltext0:
	.cfi_sections	.debug_frame
	.section	.text.ip4_addr_isbroadcast_u32,"ax",@progbits
	.align	1
	.globl	ip4_addr_isbroadcast_u32
	.type	ip4_addr_isbroadcast_u32, @function
ip4_addr_isbroadcast_u32:
.LFB3:
	.file 1 "/b-l/bl_iot_sdk_new/components/network/lwip/src/core/ipv4/ip4_addr.c"
	.loc 1 59 1
	.cfi_startproc
.LVL0:
	.loc 1 60 3
	.loc 1 61 3
	.loc 1 64 3
	.loc 1 64 40 is_stmt 0
	addi	a3,a0,-1
	.loc 1 64 6
	li	a5,-3
	.loc 1 59 1
	mv	a4,a0
	.loc 1 64 6
	bgtu	a3,a5,.L3
	.loc 1 68 10 is_stmt 1
	lbu	a5,65(a1)
	andi	a0,a5,2
.LVL1:
	.loc 1 68 13 is_stmt 0
	beq	a0,zero,.L2
	.loc 1 73 10 is_stmt 1
	.loc 1 73 67 is_stmt 0
	lw	a5,4(a1)
	.loc 1 83 12
	li	a0,0
	.loc 1 73 13
	beq	a5,a4,.L2
	.loc 1 76 10 is_stmt 1
	.loc 1 76 78 is_stmt 0
	lw	a3,8(a1)
	.loc 1 76 86
	xor	a5,a5,a4
	and	a5,a5,a3
	.loc 1 76 13
	bne	a5,zero,.L2
	.loc 1 78 26
	not	a3,a3
	.loc 1 78 24
	and	a0,a3,a4
	.loc 1 78 14
	sub	a0,a0,a3
	.loc 1 83 12
	seqz	a0,a0
	ret
.LVL2:
.L3:
	.loc 1 66 12
	li	a0,1
.LVL3:
.L2:
	.loc 1 85 1
	ret
	.cfi_endproc
.LFE3:
	.size	ip4_addr_isbroadcast_u32, .-ip4_addr_isbroadcast_u32
	.section	.text.ip4_addr_netmask_valid,"ax",@progbits
	.align	1
	.globl	ip4_addr_netmask_valid
	.type	ip4_addr_netmask_valid, @function
ip4_addr_netmask_valid:
.LFB4:
	.loc 1 94 1 is_stmt 1
	.cfi_startproc
.LVL4:
	.loc 1 95 3
	.loc 1 96 3
	.loc 1 94 1 is_stmt 0
	addi	sp,sp,-16
	.cfi_def_cfa_offset 16
	sw	ra,12(sp)
	.cfi_offset 1, -4
	.loc 1 96 24
	call	lwip_htonl
.LVL5:
	.loc 1 99 3 is_stmt 1
	.loc 1 96 24 is_stmt 0
	li	a4,32
	.loc 1 99 13
	li	a5,-2147483648
.LVL6:
.L11:
	.loc 1 100 5 is_stmt 1
	.loc 1 100 23 is_stmt 0
	and	a3,a0,a5
	.loc 1 100 8
	beq	a3,zero,.L10
	addi	a4,a4,-1
	.loc 1 99 43 discriminator 2
	srli	a5,a5,1
.LVL7:
	.loc 1 99 3 discriminator 2
	bne	a4,zero,.L11
.L19:
	.loc 1 112 10
	li	a0,1
.LVL8:
.L12:
	.loc 1 113 1
	lw	ra,12(sp)
	.cfi_remember_state
	.cfi_restore 1
	addi	sp,sp,16
	.cfi_def_cfa_offset 0
	jr	ra
.LVL9:
.L13:
	.cfi_restore_state
	.loc 1 106 5 is_stmt 1
	.loc 1 106 23 is_stmt 0
	and	a4,a5,a0
	.loc 1 106 8
	bne	a4,zero,.L14
	.loc 1 105 26
	srli	a5,a5,1
.LVL10:
.L10:
	.loc 1 105 3 discriminator 1
	bne	a5,zero,.L13
	j	.L19
.L14:
	.loc 1 108 14
	li	a0,0
.LVL11:
	j	.L12
	.cfi_endproc
.LFE4:
	.size	ip4_addr_netmask_valid, .-ip4_addr_netmask_valid
	.section	.text.ip4addr_aton,"ax",@progbits
	.align	1
	.globl	ip4addr_aton
	.type	ip4addr_aton, @function
ip4addr_aton:
.LFB6:
	.loc 1 146 1 is_stmt 1
	.cfi_startproc
.LVL12:
	.loc 1 147 3
	.loc 1 148 3
	.loc 1 149 3
	.loc 1 150 3
	.loc 1 151 3
	.loc 1 146 1 is_stmt 0
	addi	sp,sp,-48
	.cfi_def_cfa_offset 48
.LVL13:
	.loc 1 153 3 is_stmt 1
	.loc 1 146 1 is_stmt 0
	sw	s0,40(sp)
	sw	ra,44(sp)
	.cfi_offset 8, -8
	.cfi_offset 1, -4
	.loc 1 153 5
	lbu	a5,0(a0)
.LVL14:
	.loc 1 151 10
	addi	a4,sp,16
.LVL15:
	.loc 1 160 12
	lui	a6,%hi(_ctype_+1)
	mv	t3,a4
	addi	a6,a6,%lo(_ctype_+1)
	.loc 1 165 8
	li	t4,48
	.loc 1 167 20
	li	t5,88
	.loc 1 168 14
	li	t6,16
	.loc 1 179 67
	li	t0,2
	.loc 1 185 8
	li	t2,46
	.loc 1 192 10
	addi	s0,sp,28
.L30:
	.loc 1 154 3 is_stmt 1
	.loc 1 160 5
	.loc 1 160 12 is_stmt 0
	add	a3,a5,a6
	.loc 1 160 8
	lbu	a3,0(a3)
	andi	a3,a3,4
	beq	a3,zero,.L40
	.loc 1 163 5 is_stmt 1
.LVL16:
	.loc 1 164 5
	.loc 1 165 5
	.loc 1 164 10 is_stmt 0
	li	a7,10
	.loc 1 165 8
	bne	a5,t4,.L22
	.loc 1 166 7 is_stmt 1
.LVL17:
	.loc 1 166 9 is_stmt 0
	lbu	a5,1(a0)
.LVL18:
	.loc 1 167 7 is_stmt 1
	.loc 1 167 20 is_stmt 0
	andi	a3,a5,223
	beq	a3,t5,.L23
	.loc 1 166 9
	addi	a0,a0,1
.LVL19:
	.loc 1 171 14
	li	a7,8
.LVL20:
.L22:
	mv	a2,a0
	.loc 1 164 10
	li	a0,0
.LVL21:
.L24:
	.loc 1 174 5 is_stmt 1
	.loc 1 175 7
	.loc 1 175 13 is_stmt 0
	add	a3,a6,a5
	lbu	a3,0(a3)
	.loc 1 175 10
	andi	t1,a3,4
	beq	t1,zero,.L25
	.loc 1 176 9 is_stmt 1
	.loc 1 176 20 is_stmt 0
	mul	a0,a7,a0
.LVL22:
	.loc 1 176 28
	add	a0,a0,a5
	.loc 1 176 13
	addi	a0,a0,-48
.LVL23:
	.loc 1 177 9 is_stmt 1
.L63:
	.loc 1 180 9 discriminator 4
	.loc 1 180 11 is_stmt 0 discriminator 4
	lbu	a5,1(a2)
.LVL24:
	addi	a2,a2,1
.LVL25:
	j	.L24
.LVL26:
.L23:
	.loc 1 168 9 is_stmt 1
	.loc 1 169 9
	.loc 1 169 11 is_stmt 0
	lbu	a5,2(a0)
.LVL27:
	.loc 1 168 14
	li	a7,16
	.loc 1 169 11
	addi	a0,a0,2
.LVL28:
	j	.L22
.LVL29:
.L25:
	.loc 1 178 14 is_stmt 1
	.loc 1 178 17 is_stmt 0
	bne	a7,t6,.L27
	.loc 1 178 29 discriminator 1
	andi	t1,a3,68
	beq	t1,zero,.L27
	.loc 1 179 9 is_stmt 1
	.loc 1 179 67 is_stmt 0
	andi	a3,a3,3
	.loc 1 179 20
	slli	a0,a0,4
.LVL30:
	.loc 1 179 38
	addi	a5,a5,10
	.loc 1 179 67
	li	t1,97
	beq	a3,t0,.L28
	li	t1,65
.L28:
	.loc 1 179 43 discriminator 4
	sub	a5,a5,t1
	.loc 1 179 13 discriminator 4
	or	a0,a5,a0
	j	.L63
.LVL31:
.L27:
	.loc 1 185 5 is_stmt 1
	.loc 1 185 8 is_stmt 0
	bne	a5,t2,.L29
	.loc 1 192 7 is_stmt 1
	.loc 1 192 10 is_stmt 0
	beq	a4,s0,.L40
	.loc 1 195 7 is_stmt 1
	.loc 1 195 10 is_stmt 0
	addi	a4,a4,4
.LVL32:
	.loc 1 195 13
	sw	a0,-4(a4)
	.loc 1 196 7 is_stmt 1
	.loc 1 196 9 is_stmt 0
	lbu	a5,1(a2)
	addi	a0,a2,1
.LVL33:
	.loc 1 160 8
	j	.L30
.LVL34:
.L29:
	.loc 1 204 3 is_stmt 1
	.loc 1 204 6 is_stmt 0
	beq	a5,zero,.L31
	.loc 1 204 17 discriminator 1
	andi	a3,a3,8
	.loc 1 161 14 discriminator 1
	li	s0,0
	.loc 1 204 17 discriminator 1
	beq	a3,zero,.L20
.L31:
	.loc 1 211 3 is_stmt 1
	.loc 1 211 14 is_stmt 0
	sub	s0,a4,t3
	srai	s0,s0,2
	.loc 1 211 22
	addi	s0,s0,1
	.loc 1 211 3
	li	a5,2
	beq	s0,a5,.L32
	bgt	s0,a5,.L33
	beq	s0,zero,.L20
.LVL35:
.L34:
	.loc 1 252 3 is_stmt 1
	.loc 1 252 6 is_stmt 0
	sw	a1,12(sp)
	.loc 1 255 10
	li	s0,1
	.loc 1 252 6
	beq	a1,zero,.L20
	.loc 1 253 5 is_stmt 1
	.loc 1 253 22 is_stmt 0
	call	lwip_htonl
.LVL36:
	.loc 1 253 19
	lw	a1,12(sp)
	sw	a0,0(a1)
.LVL37:
.L20:
	.loc 1 256 1
	mv	a0,s0
	lw	ra,44(sp)
	.cfi_remember_state
	.cfi_restore 1
	lw	s0,40(sp)
	.cfi_restore 8
	addi	sp,sp,48
	.cfi_def_cfa_offset 0
	jr	ra
.LVL38:
.L33:
	.cfi_restore_state
	.loc 1 211 3
	li	a5,3
	beq	s0,a5,.L35
	li	a5,4
	bne	s0,a5,.L34
	.loc 1 240 7 is_stmt 1
	.loc 1 240 10 is_stmt 0
	li	a2,255
.LVL39:
	.loc 1 161 14
	li	s0,0
	.loc 1 240 10
	bgtu	a0,a2,.L20
	.loc 1 243 7 is_stmt 1
	.loc 1 243 17 is_stmt 0
	lw	a5,16(sp)
	.loc 1 243 10
	bgtu	a5,a2,.L20
	.loc 1 243 38 discriminator 1
	lw	a3,20(sp)
	.loc 1 243 29 discriminator 1
	bgtu	a3,a2,.L20
	.loc 1 243 59 discriminator 2
	lw	a4,24(sp)
.LVL40:
	.loc 1 243 50 discriminator 2
	bgtu	a4,a2,.L20
	.loc 1 246 7 is_stmt 1
	.loc 1 246 24 is_stmt 0
	slli	a5,a5,24
	.loc 1 246 43
	slli	a3,a3,16
	.loc 1 246 31
	or	a5,a5,a3
	.loc 1 246 62
	slli	a4,a4,8
	j	.L65
.LVL41:
.L32:
	.loc 1 220 7 is_stmt 1
	.loc 1 220 10 is_stmt 0
	li	a5,16777216
	.loc 1 161 14
	li	s0,0
	.loc 1 220 10
	bgeu	a0,a5,.L20
	.loc 1 223 7 is_stmt 1
	.loc 1 223 16 is_stmt 0
	lw	a5,16(sp)
	.loc 1 223 10
	li	a4,255
.LVL42:
	bgtu	a5,a4,.L20
	.loc 1 226 7 is_stmt 1
	.loc 1 226 23 is_stmt 0
	slli	a5,a5,24
.LVL43:
.L64:
	.loc 1 246 11
	or	a0,a0,a5
.LVL44:
	.loc 1 247 7 is_stmt 1
	j	.L34
.LVL45:
.L35:
	.loc 1 230 7
	.loc 1 230 10 is_stmt 0
	li	a5,65536
	.loc 1 161 14
	li	s0,0
	.loc 1 230 10
	bgeu	a0,a5,.L20
	.loc 1 233 7 is_stmt 1
	.loc 1 233 17 is_stmt 0
	lw	a5,16(sp)
	.loc 1 233 10
	li	a3,255
	bgtu	a5,a3,.L20
	.loc 1 233 38 discriminator 1
	lw	a4,20(sp)
.LVL46:
	.loc 1 233 29 discriminator 1
	bgtu	a4,a3,.L20
	.loc 1 236 7 is_stmt 1
	.loc 1 236 24 is_stmt 0
	slli	a5,a5,24
	.loc 1 236 43
	slli	a4,a4,16
.LVL47:
.L65:
	.loc 1 246 50
	or	a5,a5,a4
	j	.L64
.LVL48:
.L40:
	.loc 1 161 14
	li	s0,0
	j	.L20
	.cfi_endproc
.LFE6:
	.size	ip4addr_aton, .-ip4addr_aton
	.section	.text.ipaddr_addr,"ax",@progbits
	.align	1
	.globl	ipaddr_addr
	.type	ipaddr_addr, @function
ipaddr_addr:
.LFB5:
	.loc 1 124 1 is_stmt 1
	.cfi_startproc
.LVL49:
	.loc 1 125 3
	.loc 1 127 3
	.loc 1 124 1 is_stmt 0
	addi	sp,sp,-32
	.cfi_def_cfa_offset 32
	.loc 1 127 7
	addi	a1,sp,12
	.loc 1 124 1
	sw	ra,28(sp)
	.cfi_offset 1, -4
	.loc 1 127 7
	call	ip4addr_aton
.LVL50:
	.loc 1 127 6
	beq	a0,zero,.L68
	.loc 1 128 5 is_stmt 1
	.loc 1 128 19 is_stmt 0
	lw	a0,12(sp)
.L66:
	.loc 1 131 1
	lw	ra,28(sp)
	.cfi_remember_state
	.cfi_restore 1
	addi	sp,sp,32
	.cfi_def_cfa_offset 0
	jr	ra
.L68:
	.cfi_restore_state
	.loc 1 130 10
	li	a0,-1
	j	.L66
	.cfi_endproc
.LFE5:
	.size	ipaddr_addr, .-ipaddr_addr
	.section	.text.ip4addr_ntoa_r,"ax",@progbits
	.align	1
	.globl	ip4addr_ntoa_r
	.type	ip4addr_ntoa_r, @function
ip4addr_ntoa_r:
.LFB8:
	.loc 1 284 1 is_stmt 1
	.cfi_startproc
.LVL51:
	.loc 1 285 3
	.loc 1 286 3
	.loc 1 287 3
	.loc 1 288 3
	.loc 1 289 3
	.loc 1 290 3
	.loc 1 291 3
	.loc 1 292 3
	.loc 1 294 3
	.loc 1 294 10 is_stmt 0
	lw	a5,0(a0)
	.loc 1 284 1
	addi	sp,sp,-16
	.cfi_def_cfa_offset 16
	.loc 1 296 6
	mv	t4,a1
	.loc 1 294 10
	sw	a5,12(sp)
	.loc 1 296 3 is_stmt 1
.LVL52:
	.loc 1 297 3
	.loc 1 298 3
	.loc 1 292 7 is_stmt 0
	li	a0,0
.LVL53:
	.loc 1 297 6
	addi	a3,sp,12
.LVL54:
	.loc 1 302 11
	li	t5,10
	.loc 1 304 5
	li	t0,9
	.loc 1 305 11
	li	t2,255
	.loc 1 314 11
	li	t6,46
.LVL55:
.L75:
	lbu	a6,0(a3)
	.loc 1 299 7
	li	a5,0
.L71:
.LVL56:
	.loc 1 300 5 is_stmt 1 discriminator 1
	.loc 1 301 7 discriminator 1
	.loc 1 302 7 discriminator 1
	.loc 1 301 11 is_stmt 0 discriminator 1
	remu	t1,a6,t5
	.loc 1 303 16 discriminator 1
	addi	a7,sp,16
.LVL57:
	add	a7,a7,a5
.LVL58:
	.loc 1 303 12 discriminator 1
	addi	t3,a5,1
	andi	t3,t3,0xff
	.loc 1 302 11 discriminator 1
	divu	a4,a6,t5
	.loc 1 303 18 discriminator 1
	addi	t1,t1,48
	.loc 1 303 16 discriminator 1
	sb	t1,-8(a7)
	.loc 1 302 11 discriminator 1
	andi	a4,a4,0xff
	.loc 1 303 7 is_stmt 1 discriminator 1
.LVL59:
	.loc 1 304 5 is_stmt 0 discriminator 1
	bgtu	a6,t0,.L76
	sb	a4,0(a3)
	.loc 1 304 5
	mv	a6,a0
.LVL60:
	mv	a4,t4
.LVL61:
.L72:
	addi	a0,a0,1
.LVL62:
	.loc 1 305 11
	bne	a5,t2,.L74
	.loc 1 311 5 is_stmt 1
.LVL63:
	.loc 1 311 8 is_stmt 0
	bge	a6,a2,.L78
	.loc 1 314 5 is_stmt 1 discriminator 2
	.loc 1 314 11 is_stmt 0 discriminator 2
	sb	t6,0(a4)
	.loc 1 315 7 discriminator 2
	addi	a3,a3,1
.LVL64:
	.loc 1 298 3 discriminator 2
	addi	a5,sp,16
.LVL65:
	.loc 1 314 8 discriminator 2
	addi	t4,a4,1
.LVL66:
	.loc 1 315 5 is_stmt 1 discriminator 2
	.loc 1 298 3 is_stmt 0 discriminator 2
	bne	a3,a5,.L75
	.loc 1 317 3 is_stmt 1
.LVL67:
	.loc 1 317 9 is_stmt 0
	sb	zero,0(a4)
	.loc 1 318 3 is_stmt 1
	.loc 1 318 10 is_stmt 0
	mv	a0,a1
.LVL68:
.L70:
	.loc 1 319 1
	addi	sp,sp,16
	.cfi_remember_state
	.cfi_def_cfa_offset 0
	jr	ra
.LVL69:
.L76:
	.cfi_restore_state
	.loc 1 302 11
	mv	a6,a4
.LVL70:
	.loc 1 303 12
	mv	a5,t3
	j	.L71
.LVL71:
.L74:
	.loc 1 306 7 is_stmt 1
	addi	a7,a5,-1
	andi	a7,a7,0xff
	.loc 1 306 10 is_stmt 0
	bge	a6,a2,.L78
	.loc 1 309 7 is_stmt 1
	.loc 1 309 18 is_stmt 0
	addi	a6,sp,16
.LVL72:
	add	a5,a6,a5
.LVL73:
	.loc 1 309 13
	lbu	a5,-8(a5)
	.loc 1 309 10
	addi	a4,a4,1
.LVL74:
	.loc 1 309 13
	mv	a6,a0
.LVL75:
	sb	a5,-1(a4)
	mv	a5,a7
	j	.L72
.LVL76:
.L78:
	.loc 1 307 15
	li	a0,0
	j	.L70
	.cfi_endproc
.LFE8:
	.size	ip4addr_ntoa_r, .-ip4addr_ntoa_r
	.section	.text.ip4addr_ntoa,"ax",@progbits
	.align	1
	.globl	ip4addr_ntoa
	.type	ip4addr_ntoa, @function
ip4addr_ntoa:
.LFB7:
	.loc 1 268 1 is_stmt 1
	.cfi_startproc
.LVL77:
	.loc 1 269 3
	.loc 1 270 3
	.loc 1 270 10 is_stmt 0
	lui	a1,%hi(.LANCHOR0)
	li	a2,16
	addi	a1,a1,%lo(.LANCHOR0)
	tail	ip4addr_ntoa_r
.LVL78:
	.cfi_endproc
.LFE7:
	.size	ip4addr_ntoa, .-ip4addr_ntoa
	.globl	ip_addr_broadcast
	.globl	ip_addr_any
	.section	.bss.str.3149,"aw",@nobits
	.align	2
	.set	.LANCHOR0,. + 0
	.type	str.3149, @object
	.size	str.3149, 16
str.3149:
	.zero	16
	.section	.sdata2.ip_addr_any,"a"
	.align	2
	.type	ip_addr_any, @object
	.size	ip_addr_any, 4
ip_addr_any:
	.zero	4
	.section	.sdata2.ip_addr_broadcast,"a"
	.align	2
	.type	ip_addr_broadcast, @object
	.size	ip_addr_broadcast, 4
ip_addr_broadcast:
	.word	-1
	.text
.Letext0:
	.file 2 "/b-l/bl_iot_sdk_new/toolchain/riscv/Linux/riscv64-unknown-elf/include/machine/_default_types.h"
	.file 3 "/b-l/bl_iot_sdk_new/toolchain/riscv/Linux/lib/gcc/riscv64-unknown-elf/8.3.0/include/stddef.h"
	.file 4 "/b-l/bl_iot_sdk_new/toolchain/riscv/Linux/riscv64-unknown-elf/include/sys/_types.h"
	.file 5 "/b-l/bl_iot_sdk_new/toolchain/riscv/Linux/riscv64-unknown-elf/include/sys/reent.h"
	.file 6 "/b-l/bl_iot_sdk_new/toolchain/riscv/Linux/riscv64-unknown-elf/include/sys/lock.h"
	.file 7 "/b-l/bl_iot_sdk_new/toolchain/riscv/Linux/riscv64-unknown-elf/include/sys/_stdint.h"
	.file 8 "/b-l/bl_iot_sdk_new/toolchain/riscv/Linux/riscv64-unknown-elf/include/stdlib.h"
	.file 9 "/b-l/bl_iot_sdk_new/components/network/lwip/src/include/lwip/arch.h"
	.file 10 "/b-l/bl_iot_sdk_new/toolchain/riscv/Linux/riscv64-unknown-elf/include/ctype.h"
	.file 11 "/b-l/bl_iot_sdk_new/components/network/lwip/src/include/lwip/ip4_addr.h"
	.file 12 "/b-l/bl_iot_sdk_new/components/network/lwip/src/include/lwip/ip_addr.h"
	.file 13 "/b-l/bl_iot_sdk_new/components/network/lwip/src/include/lwip/err.h"
	.file 14 "/b-l/bl_iot_sdk_new/components/network/lwip/src/include/lwip/pbuf.h"
	.file 15 "/b-l/bl_iot_sdk_new/components/network/lwip/src/include/lwip/mem.h"
	.file 16 "/b-l/bl_iot_sdk_new/components/network/lwip/src/include/lwip/priv/memp_priv.h"
	.file 17 "/b-l/bl_iot_sdk_new/components/network/lwip/src/include/lwip/stats.h"
	.file 18 "/b-l/bl_iot_sdk_new/components/network/lwip/src/include/lwip/memp.h"
	.file 19 "/b-l/bl_iot_sdk_new/components/network/lwip/src/include/lwip/netif.h"
	.file 20 "/b-l/bl_iot_sdk_new/components/network/lwip/src/include/lwip/def.h"