	.file	"aes.c"
	.option nopic
	.attribute arch, "rv32i2p0_m2p0_f2p0_c2p0"
	.attribute unaligned_access, 0
	.attribute stack_align, 16
	.text
.Ltext0:
	.cfi_sections	.debug_frame
	.section	.text.aes_gen_tables,"ax",@progbits
	.align	1
	.type	aes_gen_tables, @function
aes_gen_tables:
.LFB2:
	.file 1 "/home/hogc/build-tools/sdk/bl/bl_iot_sdk/components/security/mbedtls/src/aes.c"
	.loc 1 390 1
	.cfi_startproc
	.loc 1 391 5
	.loc 1 392 5
	.loc 1 393 5
	.loc 1 398 5
.LVL0:
	.loc 1 390 1 is_stmt 0
	addi	sp,sp,-48
	.cfi_def_cfa_offset 48
	sw	s0,44(sp)
	sw	s1,40(sp)
	sw	s2,36(sp)
	sw	s3,32(sp)
	sw	s4,28(sp)
	sw	s5,24(sp)
	sw	s6,20(sp)
	addi	sp,sp,-2032
	.cfi_def_cfa_offset 2080
	.cfi_offset 8, -4
	.cfi_offset 9, -8
	.cfi_offset 18, -12
	.cfi_offset 19, -16
	.cfi_offset 20, -20
	.cfi_offset 21, -24
	.cfi_offset 22, -28
	mv	a2,sp
	.loc 1 398 19
	li	a5,1
	.loc 1 398 12
	li	a3,0
	.loc 1 398 5
	li	a0,256
.LVL1:
.L3:
	.loc 1 400 9 is_stmt 1
	.loc 1 401 16 is_stmt 0
	li	a1,4096
	addi	a1,a1,-2048
	add	a1,a1,sp
	slli	a4,a5,2
	add	a4,a1,a4
	sw	a3,-1024(a4)
	.loc 1 400 16
	sw	a5,0(a2)
	.loc 1 401 9 is_stmt 1
	.loc 1 402 9
	.loc 1 402 40 is_stmt 0
	andi	a1,a5,128
	.loc 1 402 25
	slli	a4,a5,1
	.loc 1 402 56
	beq	a1,zero,.L2
	li	a1,27
.L2:
	.loc 1 402 17 discriminator 4
	xor	a5,a4,a5
.LVL2:
	xor	a5,a5,a1
	.loc 1 398 34 discriminator 4
	addi	a3,a3,1
.LVL3:
	.loc 1 402 11 discriminator 4
	andi	a5,a5,255
.LVL4:
	addi	a2,a2,4
	.loc 1 398 5 discriminator 4
	bne	a3,a0,.L3
	lui	a4,%hi(.LANCHOR0)
	addi	a4,a4,%lo(.LANCHOR0)
	addi	a2,a4,40
	.loc 1 408 19
	li	a5,1
.LVL5:
.L5:
	.loc 1 410 9 is_stmt 1
	.loc 1 410 17 is_stmt 0
	sw	a5,0(a4)
	.loc 1 411 9 is_stmt 1
	.loc 1 411 19 is_stmt 0
	slli	a3,a5,1
	.loc 1 411 34
	andi	a5,a5,128
.LVL6:
	.loc 1 411 50
	beq	a5,zero,.L4
	li	a5,27
.L4:
	.loc 1 411 26 discriminator 4
	xor	a5,a3,a5
	addi	a4,a4,4
.LVL7:
	.loc 1 411 11 discriminator 4
	andi	a5,a5,255
.LVL8:
	.loc 1 408 5 discriminator 4
	bne	a2,a4,.L5
	.loc 1 417 5 is_stmt 1
	.loc 1 417 15 is_stmt 0
	lui	a1,%hi(.LANCHOR1)
	li	a5,99
.LVL9:
	.loc 1 418 15
	lui	a2,%hi(.LANCHOR2)
	.loc 1 417 15
	sb	a5,%lo(.LANCHOR1)(a1)
	.loc 1 418 5 is_stmt 1
	.loc 1 418 15 is_stmt 0
	addi	a5,a2,%lo(.LANCHOR2)
	sb	zero,99(a5)
	.loc 1 420 5 is_stmt 1
.LVL10:
	addi	t1,sp,1024
	.loc 1 420 12 is_stmt 0
	li	a7,1
	addi	a1,a1,%lo(.LANCHOR1)
	addi	a2,a2,%lo(.LANCHOR2)
	.loc 1 422 21
	li	t4,255
	.loc 1 420 5
	li	t3,256
.LVL11:
.L6:
	.loc 1 422 9 is_stmt 1 discriminator 3
	.loc 1 422 21 is_stmt 0 discriminator 3
	lw	a5,4(t1)
	.loc 1 422 11 discriminator 3
	li	a4,4096
	addi	a4,a4,-2048
	.loc 1 422 21 discriminator 3
	sub	a5,t4,a5
	.loc 1 422 11 discriminator 3
	add	a4,a4,sp
	slli	a5,a5,2
	add	a5,a4,a5
	lw	t5,-2048(a5)
.LVL12:
	.loc 1 424 9 is_stmt 1 discriminator 3
	.loc 1 424 16 discriminator 3
	addi	t1,t1,4
	.loc 1 424 26 is_stmt 0 discriminator 3
	slli	a6,t5,1
	.loc 1 424 39 discriminator 3
	srai	a5,t5,7
	.loc 1 424 33 discriminator 3
	or	a5,a6,a5
	.loc 1 424 18 discriminator 3
	andi	a6,a5,255
.LVL13:
	.loc 1 425 9 is_stmt 1 discriminator 3
	.loc 1 425 17 discriminator 3
	.loc 1 425 40 is_stmt 0 discriminator 3
	srai	a5,a6,7
	.loc 1 425 27 discriminator 3
	slli	a0,a6,1
	.loc 1 425 34 discriminator 3
	or	a0,a0,a5
	.loc 1 425 19 discriminator 3
	andi	a0,a0,255
.LVL14:
	.loc 1 426 9 is_stmt 1 discriminator 3
	.loc 1 426 17 discriminator 3
	.loc 1 426 40 is_stmt 0 discriminator 3
	srai	a5,a0,7
	.loc 1 426 27 discriminator 3
	slli	a3,a0,1
	.loc 1 426 34 discriminator 3
	or	a3,a3,a5
	.loc 1 426 19 discriminator 3
	andi	a3,a3,255
.LVL15:
	.loc 1 427 9 is_stmt 1 discriminator 3
	.loc 1 427 17 discriminator 3
	.loc 1 427 27 is_stmt 0 discriminator 3
	slli	a4,a3,1
	.loc 1 427 40 discriminator 3
	srai	a5,a3,7
	.loc 1 427 34 discriminator 3
	or	a5,a4,a5
.LVL16:
	.loc 1 428 9 is_stmt 1 discriminator 3
	.loc 1 427 19 is_stmt 0 discriminator 3
	andi	a5,a5,255
.LVL17:
	xor	a5,a5,t5
.LVL18:
	xor	a5,a5,a6
	xor	a5,a5,a0
	xor	a5,a5,a3
	.loc 1 428 11 discriminator 3
	xori	a5,a5,99
.LVL19:
	.loc 1 430 9 is_stmt 1 discriminator 3
	.loc 1 430 16 is_stmt 0 discriminator 3
	add	a4,a1,a7
.LVL20:
	.loc 1 430 18 discriminator 3
	sb	a5,0(a4)
	.loc 1 431 9 is_stmt 1 discriminator 3
	.loc 1 431 16 is_stmt 0 discriminator 3
	add	a5,a2,a5
.LVL21:
	sb	a7,0(a5)
	.loc 1 420 27 discriminator 3
	addi	a7,a7,1
.LVL22:
	.loc 1 420 5 discriminator 3
	bne	a7,t3,.L6
	.loc 1 454 57
	lw	s0,1080(sp)
	.loc 1 455 57
	lw	s1,1060(sp)
	.loc 1 456 57
	lw	s2,1076(sp)
	.loc 1 457 57
	lw	s3,1068(sp)
	.loc 1 443 16
	lui	t4,%hi(.LANCHOR3)
	.loc 1 448 16
	lui	t5,%hi(.LANCHOR4)
.LVL23:
	.loc 1 449 16
	lui	t6,%hi(.LANCHOR5)
	.loc 1 450 16
	lui	t0,%hi(.LANCHOR6)
	.loc 1 454 16
	lui	t3,%hi(.LANCHOR7)
	.loc 1 459 16
	lui	t1,%hi(.LANCHOR8)
.LVL24:
	.loc 1 460 16
	lui	a7,%hi(.LANCHOR9)
.LVL25:
	.loc 1 461 16
	lui	a6,%hi(.LANCHOR10)
	.loc 1 457 57
	li	a3,0
.LVL26:
	.loc 1 443 16
	addi	t4,t4,%lo(.LANCHOR3)
	.loc 1 448 16
	addi	t5,t5,%lo(.LANCHOR4)
	.loc 1 449 16
	addi	t6,t6,%lo(.LANCHOR5)
	.loc 1 450 16
	addi	t0,t0,%lo(.LANCHOR6)
	.loc 1 454 72
	li	a0,255
.LVL27:
	.loc 1 454 16
	addi	t3,t3,%lo(.LANCHOR7)
	.loc 1 459 16
	addi	t1,t1,%lo(.LANCHOR8)
	.loc 1 460 16
	addi	a7,a7,%lo(.LANCHOR9)
	.loc 1 461 16
	addi	a6,a6,%lo(.LANCHOR10)
	.loc 1 437 5
	li	t2,1024
.L11:
.LVL28:
	.loc 1 439 9 is_stmt 1
	.loc 1 439 16 is_stmt 0
	lbu	a4,0(a1)
.LVL29:
	.loc 1 440 9 is_stmt 1
	.loc 1 440 50 is_stmt 0
	slli	a5,a4,24
	srai	a5,a5,24
	srai	a5,a5,31
	.loc 1 440 19
	slli	s4,a4,1
	.loc 1 440 50
	andi	a5,a5,27
	.loc 1 440 26
	xor	s4,s4,a5
	.loc 1 440 11
	andi	s4,s4,255
.LVL30:
	.loc 1 441 9 is_stmt 1
	.loc 1 443 9
	.loc 1 445 33 is_stmt 0
	slli	s5,a4,16
	.loc 1 444 33
	slli	a5,a4,8
	.loc 1 444 40
	xor	a5,a5,s5
	.loc 1 441 17
	xor	a4,a4,s4
.LVL31:
	.loc 1 444 40
	xor	a5,a5,s4
	.loc 1 446 33
	slli	a4,a4,24
.LVL32:
	.loc 1 445 41
	xor	a5,a5,a4
	.loc 1 443 16
	add	a4,t4,a3
	.loc 1 448 51
	srli	s5,a5,24
	.loc 1 443 16
	sw	a5,0(a4)
	.loc 1 448 9 is_stmt 1
	.loc 1 448 51 is_stmt 0
	slli	a4,a5,8
	or	a4,a4,s5
	.loc 1 448 16
	add	s4,t5,a3
.LVL33:
	sw	a4,0(s4)
	.loc 1 449 9 is_stmt 1
	.loc 1 449 51 is_stmt 0
	srli	s5,a5,16
	slli	a4,a5,16
	.loc 1 449 16
	add	s4,t6,a3
	.loc 1 449 51
	or	a4,a4,s5
	.loc 1 449 16
	sw	a4,0(s4)
	.loc 1 450 9 is_stmt 1
	.loc 1 450 51 is_stmt 0
	srli	a4,a5,8
	slli	a5,a5,24
	or	a5,a4,a5
	.loc 1 450 16
	add	s4,t0,a3
	sw	a5,0(s4)
	.loc 1 452 9 is_stmt 1
	.loc 1 452 11 is_stmt 0
	lbu	a5,0(a2)
.LVL34:
	.loc 1 454 9 is_stmt 1
	.loc 1 454 20 is_stmt 0
	beq	a5,zero,.L15
	.loc 1 454 67 discriminator 1
	li	s6,4096
	addi	s4,s6,-2048
	add	s4,s4,sp
	slli	a4,a5,2
	add	a4,s4,a4
	lw	a4,-1024(a4)
	.loc 1 454 52 discriminator 1
	addi	s5,s6,-2048
	add	s5,s5,sp
	.loc 1 454 63 discriminator 1
	add	s4,s0,a4
	.loc 1 454 72 discriminator 1
	rem	s4,s4,a0
	.loc 1 455 63 discriminator 1
	add	a4,a4,s1
	.loc 1 455 72 discriminator 1
	rem	a4,a4,a0
	.loc 1 454 52 discriminator 1
	slli	s4,s4,2
	add	s4,s5,s4
	.loc 1 454 20 discriminator 1
	lw	s5,-2048(s4)
	.loc 1 455 52 discriminator 1
	addi	s4,s6,-2048
	add	s4,s4,sp
	slli	a4,a4,2
	add	a4,s4,a4
	.loc 1 455 85 discriminator 1
	lw	s4,-2048(a4)
	slli	s4,s4,8
.L8:
	.loc 1 454 87
	xor	s4,s4,s5
	.loc 1 456 85
	li	a4,0
	beq	a5,zero,.L9
	.loc 1 456 67 discriminator 1
	li	s6,4096
	addi	s5,s6,-2048
	add	s5,s5,sp
	slli	a4,a5,2
	add	a4,s5,a4
	.loc 1 456 63 discriminator 1
	lw	a4,-1024(a4)
	.loc 1 456 52 discriminator 1
	addi	s5,s6,-2048
	add	s5,s5,sp
	.loc 1 456 63 discriminator 1
	add	a4,s2,a4
	.loc 1 456 72 discriminator 1
	rem	a4,a4,a0
	.loc 1 456 52 discriminator 1
	slli	a4,a4,2
	add	a4,s5,a4
	.loc 1 456 85 discriminator 1
	lw	a4,-2048(a4)
	slli	a4,a4,16
.L9:
	.loc 1 455 92
	xor	s4,s4,a4
	.loc 1 457 85
	li	a4,0
	beq	a5,zero,.L10
	.loc 1 457 67 discriminator 1
	li	s5,4096
	addi	a4,s5,-2048
	add	a4,a4,sp
	slli	a5,a5,2
.LVL35:
	add	a5,a4,a5
	.loc 1 457 63 discriminator 1
	lw	a4,-1024(a5)
	.loc 1 457 52 discriminator 1
	addi	a5,s5,-2048
	add	a5,a5,sp
	.loc 1 457 63 discriminator 1
	add	a4,s3,a4
	.loc 1 457 72 discriminator 1
	rem	a4,a4,a0
	.loc 1 457 52 discriminator 1
	slli	a4,a4,2
	add	a4,a5,a4
	.loc 1 457 85 discriminator 1
	lw	a5,-2048(a4)
	slli	a4,a5,24
.L10:
	.loc 1 456 93 discriminator 2
	xor	a5,s4,a4
	.loc 1 454 16 discriminator 2
	add	a4,t3,a3
	.loc 1 459 51 discriminator 2
	srli	s5,a5,24
	.loc 1 454 16 discriminator 2
	sw	a5,0(a4)
	.loc 1 459 9 is_stmt 1 discriminator 2
	.loc 1 459 51 is_stmt 0 discriminator 2
	slli	a4,a5,8
	.loc 1 459 16 discriminator 2
	add	s4,t1,a3
	.loc 1 459 51 discriminator 2
	or	a4,a4,s5
	.loc 1 459 16 discriminator 2
	sw	a4,0(s4)
	.loc 1 460 9 is_stmt 1 discriminator 2
	.loc 1 460 51 is_stmt 0 discriminator 2
	srli	s5,a5,16
	slli	a4,a5,16
	.loc 1 460 16 discriminator 2
	add	s4,a7,a3
	.loc 1 460 51 discriminator 2
	or	a4,a4,s5
	.loc 1 460 16 discriminator 2
	sw	a4,0(s4)
	.loc 1 461 9 is_stmt 1 discriminator 2
	.loc 1 461 51 is_stmt 0 discriminator 2
	srli	a4,a5,8
	slli	a5,a5,24
	.loc 1 461 16 discriminator 2
	add	s4,a6,a3
	.loc 1 461 51 discriminator 2
	or	a5,a4,a5
	.loc 1 461 16 discriminator 2
	sw	a5,0(s4)
.LVL36:
	addi	a3,a3,4
	addi	a1,a1,1
.LVL37:
	addi	a2,a2,1
.LVL38:
	.loc 1 437 5 discriminator 2
	bne	a3,t2,.L11
	.loc 1 463 1
	addi	sp,sp,2032
	.cfi_remember_state
	.cfi_def_cfa_offset 48
	lw	s0,44(sp)
	.cfi_restore 8
	lw	s1,40(sp)
	.cfi_restore 9
	lw	s2,36(sp)
	.cfi_restore 18
	lw	s3,32(sp)
	.cfi_restore 19
	lw	s4,28(sp)
	.cfi_restore 20
	lw	s5,24(sp)
	.cfi_restore 21
	lw	s6,20(sp)
	.cfi_restore 22
	addi	sp,sp,48
	.cfi_def_cfa_offset 0
	jr	ra
.LVL39:
.L15:
	.cfi_restore_state
	.loc 1 454 20
	li	s5,0
	.loc 1 455 85
	li	s4,0
	j	.L8
	.cfi_endproc
.LFE2:
	.size	aes_gen_tables, .-aes_gen_tables
	.section	.text.mbedtls_aes_init,"ax",@progbits
	.align	1
	.globl	mbedtls_aes_init
	.type	mbedtls_aes_init, @function
mbedtls_aes_init:
.LFB3:
	.loc 1 468 1 is_stmt 1
	.cfi_startproc
.LVL40:
	.loc 1 469 5
	li	a2,280
	li	a1,0
	tail	memset
.LVL41:
	.cfi_endproc
.LFE3:
	.size	mbedtls_aes_init, .-mbedtls_aes_init
	.section	.text.mbedtls_aes_free,"ax",@progbits
	.align	1
	.globl	mbedtls_aes_free
	.type	mbedtls_aes_free, @function
mbedtls_aes_free:
.LFB4:
	.loc 1 473 1
	.cfi_startproc
.LVL42:
	.loc 1 474 5
	addi	a5,a0,280
	.loc 1 474 7 is_stmt 0
	bne	a0,zero,.L28
.LVL43:
.L26:
	.loc 1 478 1
	ret
.LVL44:
.L29:
.LBB12:
.LBB13:
	.loc 1 59 65 is_stmt 1
	.loc 1 59 70 is_stmt 0
	sb	zero,0(a0)
	.loc 1 59 67
	addi	a0,a0,1
.LVL45:
.L28:
	.loc 1 59 57
	bne	a0,a5,.L29
	j	.L26
.LBE13:
.LBE12:
	.cfi_endproc
.LFE4:
	.size	mbedtls_aes_free, .-mbedtls_aes_free
	.section	.text.mbedtls_aes_setkey_enc,"ax",@progbits
	.align	1
	.globl	mbedtls_aes_setkey_enc
	.type	mbedtls_aes_setkey_enc, @function
mbedtls_aes_setkey_enc:
.LFB5:
	.loc 1 486 1 is_stmt 1
	.cfi_startproc
.LVL46:
	.loc 1 487 5
	.loc 1 488 5
	.loc 1 491 5
	.loc 1 486 1 is_stmt 0
	addi	sp,sp,-32
	.cfi_def_cfa_offset 32
	sw	s1,20(sp)
	.cfi_offset 9, -12
	.loc 1 491 23
	lui	s1,%hi(.LANCHOR11)
	addi	s1,s1,%lo(.LANCHOR11)
	.loc 1 491 7
	lw	a5,0(s1)
	.loc 1 486 1
	sw	s0,24(sp)
	sw	ra,28(sp)
	.cfi_offset 8, -8
	.cfi_offset 1, -4
	.loc 1 486 1
	mv	s0,a0
	.loc 1 491 7
	bne	a5,zero,.L34
	sw	a2,12(sp)
	sw	a1,8(sp)
	.loc 1 493 9 is_stmt 1
	call	aes_gen_tables
.LVL47:
	.loc 1 494 9
	.loc 1 494 23 is_stmt 0
	lw	a2,12(sp)
	lw	a1,8(sp)
	li	a5,1
	sw	a5,0(s1)
.LVL48:
.L34:
	.loc 1 499 5 is_stmt 1
	li	a5,192
	beq	a2,a5,.L35
	li	a5,256
	beq	a2,a5,.L36
	li	a5,128
	.loc 1 504 25 is_stmt 0
	li	a0,-32
	.loc 1 499 5
	bne	a2,a5,.L33
	.loc 1 501 19 is_stmt 1
	.loc 1 501 27 is_stmt 0
	li	a5,10
.L53:
	.loc 1 522 31
	srli	a2,a2,5
	.loc 1 503 27
	sw	a5,0(s0)
	.loc 1 503 33 is_stmt 1
	.loc 1 515 5
	slli	a2,a2,2
	.loc 1 515 18 is_stmt 0
	addi	a5,s0,8
.LVL49:
	.loc 1 515 13
	sw	a5,4(s0)
	.loc 1 522 5 is_stmt 1
.LVL50:
	mv	a3,a5
	add	a2,a1,a2
.LVL51:
.L39:
	.loc 1 522 5 is_stmt 0 discriminator 1
	bne	a2,a1,.L40
	.loc 1 527 5 is_stmt 1
	.loc 1 527 16 is_stmt 0
	lw	a4,0(s0)
	.loc 1 527 5
	li	a3,12
	beq	a4,a3,.L41
	li	a3,14
	beq	a4,a3,.L42
	li	a3,10
	.loc 1 590 11
	li	a0,0
	.loc 1 527 5
	bne	a4,a3,.L33
	lui	a1,%hi(.LANCHOR0)
	.loc 1 534 33
	lui	a2,%hi(.LANCHOR1)
	addi	a1,a1,%lo(.LANCHOR0)
	addi	s0,s0,168
.LVL52:
	addi	a2,a2,%lo(.LANCHOR1)
.LVL53:
.L43:
	.loc 1 533 17 is_stmt 1 discriminator 3
	.loc 1 534 39 is_stmt 0 discriminator 3
	lw	a3,12(a5)
	.loc 1 536 68 discriminator 3
	lw	a6,0(a1)
	lw	a0,0(a5)
	.loc 1 534 43 discriminator 3
	srli	a4,a3,8
	.loc 1 534 50 discriminator 3
	andi	a4,a4,255
	.loc 1 534 33 discriminator 3
	add	a4,a2,a4
	.loc 1 534 19 discriminator 3
	lbu	a4,0(a4)
	.loc 1 536 68 discriminator 3
	xor	a0,a0,a6
	.loc 1 531 41 discriminator 3
	addi	a5,a5,16
.LVL54:
	.loc 1 536 68 discriminator 3
	xor	a4,a4,a0
	.loc 1 536 43 discriminator 3
	srli	a0,a3,24
	.loc 1 536 33 discriminator 3
	add	a0,a2,a0
	.loc 1 536 19 discriminator 3
	lbu	a0,0(a0)
	addi	a1,a1,4
	.loc 1 536 60 discriminator 3
	slli	a0,a0,16
	.loc 1 536 68 discriminator 3
	xor	a4,a4,a0
	.loc 1 537 45 discriminator 3
	andi	a0,a3,255
	.loc 1 537 33 discriminator 3
	add	a0,a2,a0
	.loc 1 537 19 discriminator 3
	lbu	a0,0(a0)
	.loc 1 537 54 discriminator 3
	slli	a0,a0,24
	.loc 1 536 68 discriminator 3
	xor	a4,a4,a0
	.loc 1 535 43 discriminator 3
	srli	a0,a3,16
	.loc 1 535 51 discriminator 3
	andi	a0,a0,255
	.loc 1 535 33 discriminator 3
	add	a0,a2,a0
	.loc 1 535 19 discriminator 3
	lbu	a0,0(a0)
	.loc 1 535 60 discriminator 3
	slli	a0,a0,8
	.loc 1 536 68 discriminator 3
	xor	a4,a4,a0
	.loc 1 539 31 discriminator 3
	lw	a0,-12(a5)
	.loc 1 533 23 discriminator 3
	sw	a4,0(a5)
	.loc 1 539 17 is_stmt 1 discriminator 3
	.loc 1 539 31 is_stmt 0 discriminator 3
	xor	a4,a4,a0
	.loc 1 540 31 discriminator 3
	lw	a0,-8(a5)
	.loc 1 539 23 discriminator 3
	sw	a4,4(a5)
	.loc 1 540 17 is_stmt 1 discriminator 3
	.loc 1 540 31 is_stmt 0 discriminator 3
	xor	a4,a4,a0
	.loc 1 540 23 discriminator 3
	sw	a4,8(a5)
	.loc 1 541 17 is_stmt 1 discriminator 3
	.loc 1 541 31 is_stmt 0 discriminator 3
	xor	a4,a3,a4
	.loc 1 541 23 discriminator 3
	sw	a4,12(a5)
.LVL55:
	.loc 1 531 13 discriminator 3
	bne	a5,s0,.L43
.LVL56:
.L45:
	.loc 1 590 11
	li	a0,0
.LVL57:
.L33:
	.loc 1 591 1
	lw	ra,28(sp)
	.cfi_remember_state
	.cfi_restore 1
	lw	s0,24(sp)
	.cfi_restore 8
	lw	s1,20(sp)
	.cfi_restore 9
	addi	sp,sp,32
	.cfi_def_cfa_offset 0
	jr	ra
.LVL58:
.L35:
	.cfi_restore_state
	.loc 1 502 19 is_stmt 1
	.loc 1 502 27 is_stmt 0
	li	a5,12
	j	.L53
.L36:
	.loc 1 503 19 is_stmt 1
	.loc 1 503 27 is_stmt 0
	li	a5,14
	j	.L53
.LVL59:
.L40:
	.loc 1 524 11 is_stmt 1 discriminator 3
	.loc 1 524 57 is_stmt 0 discriminator 3
	lbu	a4,1(a1)
	.loc 1 524 99 discriminator 3
	lbu	a0,2(a1)
	addi	a3,a3,4
	.loc 1 524 88 discriminator 3
	slli	a4,a4,8
	.loc 1 524 130 discriminator 3
	slli	a0,a0,16
	.loc 1 524 95 discriminator 3
	or	a4,a4,a0
	.loc 1 524 23 discriminator 3
	lbu	a0,0(a1)
	addi	a1,a1,4
	.loc 1 524 95 discriminator 3
	or	a4,a4,a0
	.loc 1 524 142 discriminator 3
	lbu	a0,-1(a1)
	.loc 1 524 173 discriminator 3
	slli	a0,a0,24
	.loc 1 524 138 discriminator 3
	or	a4,a4,a0
	.loc 1 524 19 discriminator 3
	sw	a4,-4(a3)
	.loc 1 524 183 is_stmt 1 discriminator 3
	j	.L39
.L41:
	lui	a1,%hi(.LANCHOR0)
	.loc 1 550 33 is_stmt 0
	lui	a2,%hi(.LANCHOR1)
	addi	a1,a1,%lo(.LANCHOR0)
	addi	s0,s0,200
.LVL60:
	addi	a2,a2,%lo(.LANCHOR1)
.LVL61:
.L44:
	.loc 1 549 17 is_stmt 1 discriminator 3
	.loc 1 550 39 is_stmt 0 discriminator 3
	lw	a3,20(a5)
	.loc 1 552 68 discriminator 3
	lw	a6,0(a1)
	lw	a0,0(a5)
	.loc 1 550 43 discriminator 3
	srli	a4,a3,8
	.loc 1 550 50 discriminator 3
	andi	a4,a4,255
	.loc 1 550 33 discriminator 3
	add	a4,a2,a4
	.loc 1 550 19 discriminator 3
	lbu	a4,0(a4)
	.loc 1 552 68 discriminator 3
	xor	a0,a0,a6
	.loc 1 547 40 discriminator 3
	addi	a5,a5,24
.LVL62:
	.loc 1 552 68 discriminator 3
	xor	a4,a4,a0
	.loc 1 552 43 discriminator 3
	srli	a0,a3,24
	.loc 1 552 33 discriminator 3
	add	a0,a2,a0
	.loc 1 552 19 discriminator 3
	lbu	a0,0(a0)
	addi	a1,a1,4
	.loc 1 552 60 discriminator 3
	slli	a0,a0,16
	.loc 1 552 68 discriminator 3
	xor	a4,a4,a0
	.loc 1 553 45 discriminator 3
	andi	a0,a3,255
	.loc 1 553 33 discriminator 3
	add	a0,a2,a0
	.loc 1 553 19 discriminator 3
	lbu	a0,0(a0)
	.loc 1 553 54 discriminator 3
	slli	a0,a0,24
	.loc 1 552 68 discriminator 3
	xor	a4,a4,a0
	.loc 1 551 43 discriminator 3
	srli	a0,a3,16
	.loc 1 551 51 discriminator 3
	andi	a0,a0,255
	.loc 1 551 33 discriminator 3
	add	a0,a2,a0
	.loc 1 551 19 discriminator 3
	lbu	a0,0(a0)
	.loc 1 551 60 discriminator 3
	slli	a0,a0,8
	.loc 1 552 68 discriminator 3
	xor	a4,a4,a0
	.loc 1 555 31 discriminator 3
	lw	a0,-20(a5)
	.loc 1 549 23 discriminator 3
	sw	a4,0(a5)
	.loc 1 555 17 is_stmt 1 discriminator 3
	.loc 1 555 31 is_stmt 0 discriminator 3
	xor	a4,a4,a0
	.loc 1 556 31 discriminator 3
	lw	a0,-16(a5)
	.loc 1 555 23 discriminator 3
	sw	a4,4(a5)
	.loc 1 556 17 is_stmt 1 discriminator 3
	.loc 1 556 31 is_stmt 0 discriminator 3
	xor	a4,a4,a0
	.loc 1 557 31 discriminator 3
	lw	a0,-12(a5)
	.loc 1 556 23 discriminator 3
	sw	a4,8(a5)
	.loc 1 557 17 is_stmt 1 discriminator 3
	.loc 1 557 31 is_stmt 0 discriminator 3
	xor	a4,a4,a0
	.loc 1 558 32 discriminator 3
	lw	a0,-8(a5)
	.loc 1 557 23 discriminator 3
	sw	a4,12(a5)
	.loc 1 558 17 is_stmt 1 discriminator 3
	.loc 1 558 32 is_stmt 0 discriminator 3
	xor	a4,a4,a0
	.loc 1 558 24 discriminator 3
	sw	a4,16(a5)
	.loc 1 559 17 is_stmt 1 discriminator 3
	.loc 1 559 32 is_stmt 0 discriminator 3
	xor	a4,a3,a4
	.loc 1 559 24 discriminator 3
	sw	a4,20(a5)
.LVL63:
	.loc 1 547 13 discriminator 3
	bne	a5,s0,.L44
	j	.L45
.LVL64:
.L42:
	lui	a0,%hi(.LANCHOR0)
	.loc 1 568 33
	lui	a2,%hi(.LANCHOR1)
	addi	a0,a0,%lo(.LANCHOR0)
	addi	s0,s0,232
.LVL65:
	addi	a2,a2,%lo(.LANCHOR1)
.LVL66:
.L46:
	.loc 1 567 17 is_stmt 1 discriminator 3
	.loc 1 568 39 is_stmt 0 discriminator 3
	lw	a1,28(a5)
	.loc 1 570 68 discriminator 3
	lw	a6,0(a0)
	lw	a3,0(a5)
	.loc 1 568 43 discriminator 3
	srli	a4,a1,8
	.loc 1 568 50 discriminator 3
	andi	a4,a4,255
	.loc 1 568 33 discriminator 3
	add	a4,a2,a4
	.loc 1 568 19 discriminator 3
	lbu	a4,0(a4)
	.loc 1 570 68 discriminator 3
	xor	a3,a3,a6
	.loc 1 580 69 discriminator 3
	lw	a6,16(a5)
	.loc 1 570 68 discriminator 3
	xor	a4,a4,a3
	.loc 1 570 43 discriminator 3
	srli	a3,a1,24
	.loc 1 570 33 discriminator 3
	add	a3,a2,a3
	.loc 1 570 19 discriminator 3
	lbu	a3,0(a3)
	.loc 1 565 40 discriminator 3
	addi	a5,a5,32
.LVL67:
	addi	a0,a0,4
	.loc 1 570 60 discriminator 3
	slli	a3,a3,16
	.loc 1 570 68 discriminator 3
	xor	a4,a4,a3
	.loc 1 571 45 discriminator 3
	andi	a3,a1,255
	.loc 1 571 33 discriminator 3
	add	a3,a2,a3
	.loc 1 571 19 discriminator 3
	lbu	a3,0(a3)
	.loc 1 571 54 discriminator 3
	slli	a3,a3,24
	.loc 1 570 68 discriminator 3
	xor	a4,a4,a3
	.loc 1 569 43 discriminator 3
	srli	a3,a1,16
	.loc 1 569 51 discriminator 3
	andi	a3,a3,255
	.loc 1 569 33 discriminator 3
	add	a3,a2,a3
	.loc 1 569 19 discriminator 3
	lbu	a3,0(a3)
	.loc 1 569 60 discriminator 3
	slli	a3,a3,8
	.loc 1 570 68 discriminator 3
	xor	a4,a4,a3
	.loc 1 573 31 discriminator 3
	lw	a3,-28(a5)
	.loc 1 567 23 discriminator 3
	sw	a4,0(a5)
	.loc 1 573 17 is_stmt 1 discriminator 3
	.loc 1 573 31 is_stmt 0 discriminator 3
	xor	a4,a4,a3
	.loc 1 574 32 discriminator 3
	lw	a3,-24(a5)
	.loc 1 573 23 discriminator 3
	sw	a4,4(a5)
	.loc 1 574 17 is_stmt 1 discriminator 3
	.loc 1 574 32 is_stmt 0 discriminator 3
	xor	a4,a4,a3
	.loc 1 575 32 discriminator 3
	lw	a3,-20(a5)
	.loc 1 574 24 discriminator 3
	sw	a4,8(a5)
	.loc 1 575 17 is_stmt 1 discriminator 3
	.loc 1 575 32 is_stmt 0 discriminator 3
	xor	a4,a4,a3
	.loc 1 578 46 discriminator 3
	andi	a3,a4,255
	.loc 1 575 24 discriminator 3
	sw	a4,12(a5)
	.loc 1 577 17 is_stmt 1 discriminator 3
	.loc 1 578 33 is_stmt 0 discriminator 3
	add	a3,a2,a3
	.loc 1 578 19 discriminator 3
	lbu	a3,0(a3)
	.loc 1 580 69 discriminator 3
	xor	a3,a3,a6
	.loc 1 581 44 discriminator 3
	srli	a6,a4,24
	.loc 1 581 33 discriminator 3
	add	a6,a2,a6
	.loc 1 581 19 discriminator 3
	lbu	a6,0(a6)
	.loc 1 581 61 discriminator 3
	slli	a6,a6,24
	.loc 1 580 69 discriminator 3
	xor	a3,a3,a6
	.loc 1 579 44 discriminator 3
	srli	a6,a4,8
	.loc 1 579 51 discriminator 3
	andi	a6,a6,255
	.loc 1 580 44 discriminator 3
	srli	a4,a4,16
	.loc 1 579 33 discriminator 3
	add	a6,a2,a6
	.loc 1 580 52 discriminator 3
	andi	a4,a4,255
	.loc 1 579 19 discriminator 3
	lbu	a6,0(a6)
	.loc 1 580 33 discriminator 3
	add	a4,a2,a4
	.loc 1 580 19 discriminator 3
	lbu	a4,0(a4)
	.loc 1 579 60 discriminator 3
	slli	a6,a6,8
	.loc 1 580 69 discriminator 3
	xor	a3,a3,a6
	.loc 1 580 61 discriminator 3
	slli	a4,a4,16
	.loc 1 580 69 discriminator 3
	xor	a4,a3,a4
	.loc 1 583 32 discriminator 3
	lw	a3,-12(a5)
	.loc 1 577 24 discriminator 3
	sw	a4,16(a5)
	.loc 1 583 17 is_stmt 1 discriminator 3
	.loc 1 583 32 is_stmt 0 discriminator 3
	xor	a4,a4,a3
	.loc 1 584 32 discriminator 3
	lw	a3,-8(a5)
	.loc 1 583 24 discriminator 3
	sw	a4,20(a5)
	.loc 1 584 17 is_stmt 1 discriminator 3
	.loc 1 584 32 is_stmt 0 discriminator 3
	xor	a4,a4,a3
	.loc 1 584 24 discriminator 3
	sw	a4,24(a5)
	.loc 1 585 17 is_stmt 1 discriminator 3
	.loc 1 585 32 is_stmt 0 discriminator 3
	xor	a4,a1,a4
	.loc 1 585 24 discriminator 3
	sw	a4,28(a5)
.LVL68:
	.loc 1 565 13 discriminator 3
	bne	a5,s0,.L46
	j	.L45
	.cfi_endproc
.LFE5:
	.size	mbedtls_aes_setkey_enc, .-mbedtls_aes_setkey_enc
	.section	.text.mbedtls_aes_setkey_dec,"ax",@progbits
	.align	1
	.globl	mbedtls_aes_setkey_dec
	.type	mbedtls_aes_setkey_dec, @function
mbedtls_aes_setkey_dec:
.LFB6:
	.loc 1 600 1 is_stmt 1
	.cfi_startproc
.LVL69:
	.loc 1 601 5
	.loc 1 602 5
	.loc 1 603 5
	.loc 1 604 5
	.loc 1 606 5
	.loc 1 600 1 is_stmt 0
	addi	sp,sp,-320
	.cfi_def_cfa_offset 320
	sw	s0,312(sp)
	.cfi_offset 8, -8
	mv	s0,a0
	.loc 1 606 5
	addi	a0,sp,24
.LVL70:
	.loc 1 600 1
	sw	ra,316(sp)
	sw	s1,308(sp)
	.cfi_offset 1, -4
	.cfi_offset 9, -12
	.loc 1 600 1
	sw	a1,12(sp)
	sw	a2,8(sp)
	.loc 1 606 5
	call	mbedtls_aes_init
.LVL71:
	.loc 1 616 5 is_stmt 1
	.loc 1 619 17 is_stmt 0
	lw	a2,8(sp)
	lw	a1,12(sp)
	.loc 1 616 18
	addi	a5,s0,8
.LVL72:
	.loc 1 616 13
	sw	a5,4(s0)
	.loc 1 619 5 is_stmt 1
	.loc 1 619 17 is_stmt 0
	addi	a0,sp,24
	call	mbedtls_aes_setkey_enc
.LVL73:
	mv	s1,a0
.LVL74:
	.loc 1 619 7
	bne	a0,zero,.L55
	.loc 1 622 5 is_stmt 1
	.loc 1 622 18 is_stmt 0
	lw	a1,24(sp)
	.loc 1 633 8
	lw	a5,28(sp)
	.loc 1 644 24
	lui	t1,%hi(.LANCHOR7)
	.loc 1 633 17
	slli	a4,a1,4
	.loc 1 622 13
	sw	a1,0(s0)
	.loc 1 633 5 is_stmt 1
	.loc 1 633 8 is_stmt 0
	add	a5,a5,a4
.LVL75:
	.loc 1 635 5 is_stmt 1
	.loc 1 635 13 is_stmt 0
	lw	a4,0(a5)
	.loc 1 644 29
	lui	a0,%hi(.LANCHOR1)
	.loc 1 647 24
	lui	t3,%hi(.LANCHOR10)
	.loc 1 635 11
	sw	a4,8(s0)
	.loc 1 636 5 is_stmt 1
.LVL76:
	.loc 1 636 13 is_stmt 0
	lw	a4,4(a5)
	.loc 1 645 24
	lui	t4,%hi(.LANCHOR8)
	.loc 1 646 24
	lui	t5,%hi(.LANCHOR9)
	.loc 1 636 11
	sw	a4,12(s0)
	.loc 1 637 5 is_stmt 1
.LVL77:
	.loc 1 637 13 is_stmt 0
	lw	a4,8(a5)
	.loc 1 638 8
	addi	a2,s0,24
	.loc 1 640 12
	addi	a1,a1,-1
	.loc 1 637 11
	sw	a4,16(s0)
	.loc 1 638 5 is_stmt 1
.LVL78:
	.loc 1 638 13 is_stmt 0
	lw	a4,12(a5)
	.loc 1 644 24
	addi	t1,t1,%lo(.LANCHOR7)
	.loc 1 640 30
	addi	a5,a5,-16
.LVL79:
	.loc 1 638 11
	sw	a4,20(s0)
	.loc 1 640 5 is_stmt 1
.LVL80:
	.loc 1 644 29 is_stmt 0
	addi	a0,a0,%lo(.LANCHOR1)
	.loc 1 647 24
	addi	t3,t3,%lo(.LANCHOR10)
	.loc 1 645 24
	addi	t4,t4,%lo(.LANCHOR8)
	.loc 1 646 24
	addi	t5,t5,%lo(.LANCHOR9)
	.loc 1 642 9
	li	t6,16
.LVL81:
.L56:
	.loc 1 640 5 discriminator 1
	bgt	a1,zero,.L58
	.loc 1 651 5 is_stmt 1
.LVL82:
	.loc 1 651 13 is_stmt 0
	lw	a4,0(a5)
	.loc 1 651 11
	sw	a4,0(a2)
	.loc 1 652 5 is_stmt 1
.LVL83:
	.loc 1 652 13 is_stmt 0
	lw	a4,4(a5)
	.loc 1 652 11
	sw	a4,4(a2)
	.loc 1 653 5 is_stmt 1
.LVL84:
	.loc 1 653 13 is_stmt 0
	lw	a4,8(a5)
	.loc 1 653 11
	sw	a4,8(a2)
	.loc 1 654 5 is_stmt 1
.LVL85:
	.loc 1 654 13 is_stmt 0
	lw	a5,12(a5)
.LVL86:
	.loc 1 654 11
	sw	a5,12(a2)
.LVL87:
.L55:
	.loc 1 657 5 is_stmt 1
	addi	a0,sp,24
	call	mbedtls_aes_free
.LVL88:
	.loc 1 659 5
	.loc 1 660 1 is_stmt 0
	lw	ra,316(sp)
	.cfi_remember_state
	.cfi_restore 1
	lw	s0,312(sp)
	.cfi_restore 8
.LVL89:
	mv	a0,s1
	lw	s1,308(sp)
	.cfi_restore 9
.LVL90:
	addi	sp,sp,320
	.cfi_def_cfa_offset 0
.LVL91:
	jr	ra
.LVL92:
.L58:
	.cfi_restore_state
	li	a6,0
.LVL93:
.L57:
	.loc 1 644 13 is_stmt 1 discriminator 3
	.loc 1 644 33 is_stmt 0 discriminator 3
	add	a4,a5,a6
.LVL94:
	lw	a4,0(a4)
.LVL95:
	.loc 1 644 19 discriminator 3
	add	t0,a2,a6
	addi	a6,a6,4
.LVL96:
	.loc 1 644 39 discriminator 3
	andi	a3,a4,255
	.loc 1 647 37 discriminator 3
	srli	a7,a4,24
	.loc 1 644 29 discriminator 3
	add	a3,a0,a3
	.loc 1 647 29 discriminator 3
	add	a7,a0,a7
	.loc 1 644 29 discriminator 3
	lbu	a3,0(a3)
	.loc 1 647 29 discriminator 3
	lbu	a7,0(a7)
	.loc 1 644 24 discriminator 3
	slli	a3,a3,2
	.loc 1 647 24 discriminator 3
	slli	a7,a7,2
	.loc 1 644 24 discriminator 3
	add	a3,t1,a3
	.loc 1 647 24 discriminator 3
	add	a7,t3,a7
	.loc 1 646 56 discriminator 3
	lw	a7,0(a7)
	lw	a3,0(a3)
	xor	a3,a3,a7
	.loc 1 645 37 discriminator 3
	srli	a7,a4,8
	.loc 1 645 44 discriminator 3
	andi	a7,a7,255
	.loc 1 646 37 discriminator 3
	srli	a4,a4,16
	.loc 1 645 29 discriminator 3
	add	a7,a0,a7
	.loc 1 646 45 discriminator 3
	andi	a4,a4,255
	.loc 1 645 29 discriminator 3
	lbu	a7,0(a7)
	.loc 1 646 29 discriminator 3
	add	a4,a0,a4
	lbu	a4,0(a4)
	.loc 1 645 24 discriminator 3
	slli	a7,a7,2
	add	a7,t4,a7
	.loc 1 646 24 discriminator 3
	slli	a4,a4,2
	.loc 1 646 56 discriminator 3
	lw	a7,0(a7)
	.loc 1 646 24 discriminator 3
	add	a4,t5,a4
	.loc 1 646 56 discriminator 3
	lw	a4,0(a4)
	xor	a3,a3,a7
	xor	a4,a3,a4
	.loc 1 644 19 discriminator 3
	sw	a4,0(t0)
.LVL97:
	.loc 1 642 9 discriminator 3
	bne	a6,t6,.L57
	addi	a2,a2,16
.LVL98:
	.loc 1 640 44 discriminator 2
	addi	a1,a1,-1
.LVL99:
	addi	a5,a5,-16
.LVL100:
	j	.L56
	.cfi_endproc
.LFE6:
	.size	mbedtls_aes_setkey_dec, .-mbedtls_aes_setkey_dec
	.section	.text.mbedtls_aes_encrypt,"ax",@progbits
	.align	1
	.globl	mbedtls_aes_encrypt
	.type	mbedtls_aes_encrypt, @function
mbedtls_aes_encrypt:
.LFB7:
	.loc 1 716 1 is_stmt 1
	.cfi_startproc
.LVL101:
	.loc 1 717 5
	.loc 1 718 5
	.loc 1 720 5
	.loc 1 716 1 is_stmt 0
	addi	sp,sp,-48
	.cfi_def_cfa_offset 48
	sw	s0,44(sp)
	sw	s1,40(sp)
	sw	s7,16(sp)
	sw	s2,36(sp)
	sw	s3,32(sp)
	sw	s4,28(sp)
	sw	s5,24(sp)
	sw	s6,20(sp)
	sw	s8,12(sp)
	sw	s9,8(sp)
	sw	s10,4(sp)
	sw	s11,0(sp)
	.cfi_offset 8, -4
	.cfi_offset 9, -8
	.cfi_offset 23, -32
	.cfi_offset 18, -12
	.cfi_offset 19, -16
	.cfi_offset 20, -20
	.cfi_offset 21, -24
	.cfi_offset 22, -28
	.cfi_offset 24, -36
	.cfi_offset 25, -40
	.cfi_offset 26, -44
	.cfi_offset 27, -48
	.loc 1 722 12
	lbu	a3,1(a1)
	lbu	a5,0(a1)
	.loc 1 720 8
	lw	a4,4(a0)
.LVL102:
	.loc 1 722 7 is_stmt 1
	.loc 1 722 12 is_stmt 0
	slli	a3,a3,8
	or	a3,a3,a5
	lbu	a5,2(a1)
	.loc 1 723 12
	lbu	s10,4(a1)
	.loc 1 724 12
	lbu	s9,8(a1)
	.loc 1 722 12
	slli	a5,a5,16
	or	a3,a5,a3
	lbu	a5,3(a1)
	.loc 1 725 12
	lbu	s8,12(a1)
	.loc 1 725 179
	addi	t6,a4,16
	.loc 1 722 12
	slli	a5,a5,24
	or	a5,a5,a3
.LVL103:
	.loc 1 722 164 is_stmt 1
	.loc 1 722 166
	.loc 1 722 169 is_stmt 0
	lw	a3,0(a4)
	lui	s1,%hi(.LANCHOR3)
	lui	s0,%hi(.LANCHOR6)
	xor	a5,a5,a3
.LVL104:
	.loc 1 723 7 is_stmt 1
	.loc 1 723 12 is_stmt 0
	lbu	a3,5(a1)
	lui	t2,%hi(.LANCHOR4)
	lui	t0,%hi(.LANCHOR5)
	slli	a3,a3,8
	or	a3,a3,s10
	lbu	s10,6(a1)
	addi	s1,s1,%lo(.LANCHOR3)
	addi	s0,s0,%lo(.LANCHOR6)
	slli	s10,s10,16
	or	a3,s10,a3
	lbu	s10,7(a1)
	addi	t2,t2,%lo(.LANCHOR4)
	addi	t0,t0,%lo(.LANCHOR5)
	slli	s10,s10,24
	or	s10,s10,a3
.LVL105:
	.loc 1 723 164 is_stmt 1
	.loc 1 723 166
	.loc 1 723 169 is_stmt 0
	lw	a3,4(a4)
	xor	s10,s10,a3
.LVL106:
	.loc 1 724 7 is_stmt 1
	.loc 1 724 12 is_stmt 0
	lbu	a3,9(a1)
	slli	a3,a3,8
	or	a3,a3,s9
	lbu	s9,10(a1)
	slli	s9,s9,16
	or	a3,s9,a3
	lbu	s9,11(a1)
	slli	s9,s9,24
	or	s9,s9,a3
.LVL107:
	.loc 1 724 164 is_stmt 1
	.loc 1 724 166
	.loc 1 724 169 is_stmt 0
	lw	a3,8(a4)
	xor	s9,s9,a3
.LVL108:
	.loc 1 725 7 is_stmt 1
	.loc 1 725 12 is_stmt 0
	lbu	a3,13(a1)
	slli	a3,a3,8
	or	a3,a3,s8
	lbu	s8,14(a1)
	slli	s8,s8,16
	or	a3,s8,a3
	lbu	s8,15(a1)
	.loc 1 725 173
	lw	a4,12(a4)
.LVL109:
	.loc 1 727 24
	lw	s7,0(a0)
	.loc 1 725 12
	slli	s8,s8,24
	or	s8,s8,a3
.LVL110:
	.loc 1 725 168 is_stmt 1
	.loc 1 725 170
	.loc 1 727 24 is_stmt 0
	srai	s7,s7,1
	.loc 1 725 173
	xor	s8,s8,a4
.LVL111:
	.loc 1 727 5 is_stmt 1
	.loc 1 727 12 is_stmt 0
	addi	s7,s7,-1
.LVL112:
.L62:
	andi	a3,a5,255
	srli	a4,s8,24
	slli	a3,a3,2
	slli	a4,a4,2
	add	a3,s1,a3
	add	a4,s0,a4
	lw	a1,0(a3)
	lw	a4,0(a4)
	andi	a3,s10,255
	slli	a3,a3,2
	xor	a1,a1,a4
	lw	a4,0(t6)
	add	a3,s1,a3
	lw	a3,0(a3)
	xor	a1,a1,a4
	srli	a4,s10,6
	andi	a4,a4,1020
	add	a4,t2,a4
	lw	a4,0(a4)
	andi	a0,s9,255
	slli	a0,a0,2
	xor	a1,a1,a4
	srli	a4,s9,14
	andi	a4,a4,1020
	add	a4,t0,a4
	lw	a4,0(a4)
	add	a0,s1,a0
	lw	a0,0(a0)
	xor	a1,a1,a4
	srli	a4,a5,24
	slli	a4,a4,2
	add	a4,s0,a4
	lw	a4,0(a4)
	andi	s6,a1,255
	srli	s4,a1,24
	xor	a3,a3,a4
	lw	a4,4(t6)
	lw	s11,16(t6)
	xor	a3,a3,a4
	srli	a4,s9,6
	andi	a4,a4,1020
	add	a4,t2,a4
	lw	a4,0(a4)
	srli	s9,s9,24
.LVL113:
	slli	s9,s9,2
	xor	a3,a3,a4
	srli	a4,s8,14
	andi	a4,a4,1020
	add	a4,t0,a4
	lw	a4,0(a4)
	add	s9,s0,s9
	lw	a6,0(s9)
	xor	a3,a3,a4
	srli	a4,s10,24
	slli	a4,a4,2
	add	a4,s0,a4
	lw	a4,0(a4)
	srli	s10,s10,14
.LVL114:
	andi	s10,s10,1020
	xor	a0,a0,a4
	lw	a4,8(t6)
	add	s10,t0,s10
	srli	t5,a3,8
	xor	a0,a0,a4
	srli	a4,s8,6
	andi	a4,a4,1020
	add	a4,t2,a4
	lw	a4,0(a4)
	andi	s8,s8,255
.LVL115:
	slli	s8,s8,2
	xor	a0,a0,a4
	srli	a4,a5,14
	andi	a4,a4,1020
	add	a4,t0,a4
	lw	a4,0(a4)
	add	s8,s1,s8
	srli	a5,a5,6
.LVL116:
	xor	a0,a0,a4
	lw	a4,0(s8)
	andi	a5,a5,1020
	add	a5,t2,a5
	xor	a4,a4,a6
	lw	a6,12(t6)
	lw	a5,0(a5)
	srli	t4,a0,16
	xor	a4,a4,a6
	xor	a4,a4,a5
	lw	a5,0(s10)
	srli	t3,a0,8
	srli	a6,a1,16
	xor	a4,a4,a5
	srli	t1,a4,16
	srli	a7,a4,8
	andi	s5,a3,255
	srli	s2,a3,24
	srli	a1,a1,8
	srli	a3,a3,16
	srli	a5,a4,24
	andi	s3,a0,255
	andi	t5,t5,255
	andi	t4,t4,255
	lw	s10,20(t6)
	andi	t3,t3,255
	andi	t1,t1,255
	lw	s9,24(t6)
	andi	a7,a7,255
	andi	a6,a6,255
	lw	s8,28(t6)
	andi	a4,a4,255
	andi	a1,a1,255
	andi	a3,a3,255
	srli	a0,a0,24
	.loc 1 727 5 discriminator 1
	bgt	s7,zero,.L63
	.loc 1 733 7 is_stmt 1
.LVL117:
	.loc 1 733 128
	.loc 1 733 249
	.loc 1 733 370
	.loc 1 733 492
	.loc 1 735 5
	.loc 1 737 29 is_stmt 0
	lui	t6,%hi(.LANCHOR1)
	addi	t6,t6,%lo(.LANCHOR1)
	.loc 1 736 29
	add	s6,t6,s6
	.loc 1 737 29
	add	t5,t6,t5
	.loc 1 736 15
	lbu	t0,0(s6)
	.loc 1 737 15
	lbu	t5,0(t5)
	.loc 1 738 29
	add	t4,t6,t4
	.loc 1 738 15
	lbu	t4,0(t4)
	.loc 1 739 29
	add	a5,t6,a5
	.loc 1 739 15
	lbu	a5,0(a5)
	.loc 1 737 52
	slli	t5,t5,8
	.loc 1 735 8
	xor	s11,t0,s11
	xor	s11,t5,s11
	.loc 1 738 53
	slli	t4,t4,16
	.loc 1 739 53
	slli	a5,a5,24
	.loc 1 743 29
	add	t3,t6,t3
	.loc 1 742 29
	add	s5,t6,s5
	.loc 1 735 8
	xor	s11,s11,t4
	xor	s11,s11,a5
.LVL118:
	.loc 1 741 5 is_stmt 1
	.loc 1 743 15 is_stmt 0
	lbu	a5,0(t3)
	.loc 1 742 15
	lbu	t3,0(s5)
	.loc 1 744 29
	add	t1,t6,t1
	.loc 1 743 52
	slli	a5,a5,8
	.loc 1 741 8
	xor	s10,t3,s10
	xor	s10,a5,s10
	.loc 1 744 15
	lbu	a5,0(t1)
	.loc 1 745 29
	add	s4,t6,s4
	.loc 1 749 29
	add	a7,t6,a7
	.loc 1 744 53
	slli	a5,a5,16
	.loc 1 741 8
	xor	s10,s10,a5
	.loc 1 745 15
	lbu	a5,0(s4)
	.loc 1 748 29
	add	s3,t6,s3
	.loc 1 750 29
	add	a6,t6,a6
	.loc 1 745 53
	slli	a5,a5,24
	.loc 1 741 8
	xor	s10,s10,a5
.LVL119:
	.loc 1 747 5 is_stmt 1
	.loc 1 749 15 is_stmt 0
	lbu	a5,0(a7)
	.loc 1 748 15
	lbu	a7,0(s3)
	.loc 1 751 29
	add	s2,t6,s2
	.loc 1 749 52
	slli	a5,a5,8
	.loc 1 747 8
	xor	s9,a7,s9
	xor	s9,a5,s9
	.loc 1 750 15
	lbu	a5,0(a6)
	.loc 1 754 29
	add	a4,t6,a4
	.loc 1 755 29
	add	a1,t6,a1
	.loc 1 750 53
	slli	a5,a5,16
	.loc 1 747 8
	xor	s9,s9,a5
	.loc 1 751 15
	lbu	a5,0(s2)
	.loc 1 756 29
	add	a3,t6,a3
	.loc 1 757 29
	add	a0,t6,a0
	.loc 1 751 53
	slli	a5,a5,24
	.loc 1 747 8
	xor	s9,s9,a5
.LVL120:
	.loc 1 753 5 is_stmt 1
	.loc 1 754 15 is_stmt 0
	lbu	a5,0(a4)
	.loc 1 753 8
	xor	s8,a5,s8
	.loc 1 755 15
	lbu	a5,0(a1)
	.loc 1 755 52
	slli	a5,a5,8
	.loc 1 753 8
	xor	s8,s8,a5
	.loc 1 756 15
	lbu	a5,0(a3)
	.loc 1 756 53
	slli	a5,a5,16
	.loc 1 753 8
	xor	s8,s8,a5
	.loc 1 757 15
	lbu	a5,0(a0)
	.loc 1 759 24
	sb	s11,0(a2)
	.loc 1 760 24
	sb	s10,4(a2)
	.loc 1 757 53
	slli	a5,a5,24
	.loc 1 753 8
	xor	s8,s8,a5
.LVL121:
	.loc 1 759 7 is_stmt 1
	.loc 1 759 61
	.loc 1 759 106 is_stmt 0
	srli	a5,s11,8
	.loc 1 759 81
	sb	a5,1(a2)
	.loc 1 759 123 is_stmt 1
	.loc 1 759 168 is_stmt 0
	srli	a5,s11,16
	.loc 1 759 143
	sb	a5,2(a2)
	.loc 1 759 186 is_stmt 1
	.loc 1 760 106 is_stmt 0
	srli	a5,s10,8
	.loc 1 760 81
	sb	a5,5(a2)
	.loc 1 760 168
	srli	a5,s10,16
	.loc 1 760 143
	sb	a5,6(a2)
	.loc 1 761 106
	srli	a5,s9,8
	.loc 1 761 81
	sb	a5,9(a2)
	.loc 1 761 168
	srli	a5,s9,16
	.loc 1 761 143
	sb	a5,10(a2)
	.loc 1 762 108
	srli	a5,s8,8
	.loc 1 759 231
	srli	s11,s11,24
.LVL122:
	.loc 1 760 231
	srli	s10,s10,24
.LVL123:
	.loc 1 761 24
	sb	s9,8(a2)
	.loc 1 762 25
	sb	s8,12(a2)
	.loc 1 761 231
	srli	s9,s9,24
.LVL124:
	.loc 1 762 83
	sb	a5,13(a2)
	.loc 1 762 171
	srli	a5,s8,16
	.loc 1 762 235
	srli	s8,s8,24
.LVL125:
	.loc 1 759 206
	sb	s11,3(a2)
	.loc 1 759 250 is_stmt 1
	.loc 1 760 7
	.loc 1 760 61
	.loc 1 760 123
	.loc 1 760 186
	.loc 1 760 206 is_stmt 0
	sb	s10,7(a2)
	.loc 1 760 250 is_stmt 1
	.loc 1 761 7
	.loc 1 761 61
	.loc 1 761 123
	.loc 1 761 186
	.loc 1 761 206 is_stmt 0
	sb	s9,11(a2)
	.loc 1 761 250 is_stmt 1
	.loc 1 762 7
	.loc 1 762 62
	.loc 1 762 125
	.loc 1 762 210 is_stmt 0
	sb	s8,15(a2)
	.loc 1 762 146
	sb	a5,14(a2)
	.loc 1 762 189 is_stmt 1
	.loc 1 762 254
	.loc 1 763 1 is_stmt 0
	lw	s0,44(sp)
	.cfi_remember_state
	.cfi_restore 8
	lw	s1,40(sp)
	.cfi_restore 9
	lw	s2,36(sp)
	.cfi_restore 18
	lw	s3,32(sp)
	.cfi_restore 19
	lw	s4,28(sp)
	.cfi_restore 20
	lw	s5,24(sp)
	.cfi_restore 21
	lw	s6,20(sp)
	.cfi_restore 22
	lw	s7,16(sp)
	.cfi_restore 23
.LVL126:
	lw	s8,12(sp)
	.cfi_restore 24
	lw	s9,8(sp)
	.cfi_restore 25
	lw	s10,4(sp)
	.cfi_restore 26
	lw	s11,0(sp)
	.cfi_restore 27
	addi	sp,sp,48
	.cfi_def_cfa_offset 0
	jr	ra
.LVL127:
.L63:
	.cfi_restore_state
	.loc 1 729 11 is_stmt 1 discriminator 3
	.loc 1 729 132 discriminator 3
	.loc 1 729 253 discriminator 3
	.loc 1 729 374 discriminator 3
	.loc 1 729 496 discriminator 3
	.loc 1 730 11 discriminator 3
	.loc 1 730 27 is_stmt 0 discriminator 3
	slli	s6,s6,2
	.loc 1 730 107 discriminator 3
	slli	a5,a5,2
	.loc 1 730 27 discriminator 3
	add	s6,s1,s6
	.loc 1 730 107 discriminator 3
	add	a5,s0,a5
	.loc 1 730 14 discriminator 3
	lw	s6,0(s6)
	lw	a5,0(a5)
	.loc 1 730 50 discriminator 3
	slli	t5,t5,2
	add	t5,t2,t5
	.loc 1 730 14 discriminator 3
	xor	a5,s6,a5
	.loc 1 730 78 discriminator 3
	slli	t4,t4,2
	.loc 1 730 14 discriminator 3
	xor	a5,a5,s11
	.loc 1 730 78 discriminator 3
	add	t4,t0,t4
	.loc 1 730 14 discriminator 3
	lw	s11,0(t5)
	lw	t4,0(t4)
	.loc 1 730 148 discriminator 3
	slli	s5,s5,2
	.loc 1 730 228 discriminator 3
	slli	s4,s4,2
	.loc 1 730 14 discriminator 3
	xor	a5,a5,s11
.LVL128:
	.loc 1 730 148 discriminator 3
	add	s5,s1,s5
	.loc 1 730 228 discriminator 3
	add	s4,s0,s4
	.loc 1 730 14 discriminator 3
	xor	a5,a5,t4
.LVL129:
	.loc 1 730 132 is_stmt 1 discriminator 3
	.loc 1 730 135 is_stmt 0 discriminator 3
	lw	t5,0(s4)
	lw	t4,0(s5)
	.loc 1 730 171 discriminator 3
	slli	t3,t3,2
	.loc 1 730 390 discriminator 3
	slli	a4,a4,2
	.loc 1 730 470 discriminator 3
	slli	a0,a0,2
	.loc 1 730 171 discriminator 3
	add	t3,t2,t3
	.loc 1 730 199 discriminator 3
	slli	t1,t1,2
	.loc 1 730 390 discriminator 3
	add	a4,s1,a4
	.loc 1 730 470 discriminator 3
	add	a0,s0,a0
	.loc 1 730 135 discriminator 3
	lw	t3,0(t3)
	.loc 1 730 199 discriminator 3
	add	t1,t0,t1
	.loc 1 730 377 discriminator 3
	lw	a4,0(a4)
	lw	a0,0(a0)
	.loc 1 730 135 discriminator 3
	lw	t1,0(t1)
	xor	t4,t4,t5
	xor	s10,t4,s10
	.loc 1 730 269 discriminator 3
	slli	s3,s3,2
	.loc 1 730 349 discriminator 3
	slli	s2,s2,2
	.loc 1 730 413 discriminator 3
	slli	a1,a1,2
	.loc 1 730 135 discriminator 3
	xor	s10,s10,t3
.LVL130:
	.loc 1 730 377 discriminator 3
	xor	a4,a4,a0
	.loc 1 730 269 discriminator 3
	add	s3,s1,s3
	.loc 1 730 349 discriminator 3
	add	s2,s0,s2
	.loc 1 730 413 discriminator 3
	add	a1,t2,a1
	.loc 1 730 377 discriminator 3
	xor	s8,a4,s8
	.loc 1 730 135 discriminator 3
	xor	s10,s10,t1
.LVL131:
	.loc 1 730 253 is_stmt 1 discriminator 3
	.loc 1 730 377 is_stmt 0 discriminator 3
	lw	a4,0(a1)
	.loc 1 730 256 discriminator 3
	lw	t1,0(s3)
	lw	t3,0(s2)
	.loc 1 730 292 discriminator 3
	slli	a7,a7,2
	add	a7,t2,a7
	.loc 1 730 320 discriminator 3
	slli	a6,a6,2
	.loc 1 730 441 discriminator 3
	slli	a3,a3,2
	.loc 1 730 256 discriminator 3
	lw	a7,0(a7)
	.loc 1 730 320 discriminator 3
	add	a6,t0,a6
	.loc 1 730 441 discriminator 3
	add	a3,t0,a3
	.loc 1 730 377 discriminator 3
	xor	s8,s8,a4
	.loc 1 730 256 discriminator 3
	xor	t1,t1,t3
	lw	a6,0(a6)
	.loc 1 730 377 discriminator 3
	lw	a4,0(a3)
	.loc 1 730 256 discriminator 3
	xor	s9,t1,s9
	xor	s9,s9,a7
.LVL132:
	xor	s9,s9,a6
.LVL133:
	.loc 1 730 374 is_stmt 1 discriminator 3
	addi	t6,t6,32
.LVL134:
	.loc 1 730 377 is_stmt 0 discriminator 3
	xor	s8,s8,a4
.LVL135:
	.loc 1 730 496 is_stmt 1 discriminator 3
	.loc 1 727 44 is_stmt 0 discriminator 3
	addi	s7,s7,-1
.LVL136:
	j	.L62
	.cfi_endproc
.LFE7:
	.size	mbedtls_aes_encrypt, .-mbedtls_aes_encrypt
	.section	.text.mbedtls_aes_decrypt,"ax",@progbits
	.align	1
	.globl	mbedtls_aes_decrypt
	.type	mbedtls_aes_decrypt, @function
mbedtls_aes_decrypt:
.LFB8:
	.loc 1 773 1 is_stmt 1
	.cfi_startproc
.LVL137:
	.loc 1 774 5
	.loc 1 775 5
	.loc 1 777 5
	.loc 1 773 1 is_stmt 0
	addi	sp,sp,-48
	.cfi_def_cfa_offset 48
	sw	s0,44(sp)
	sw	s7,16(sp)
	sw	s1,40(sp)
	sw	s2,36(sp)
	sw	s3,32(sp)
	sw	s4,28(sp)
	sw	s5,24(sp)
	sw	s6,20(sp)
	sw	s8,12(sp)
	sw	s9,8(sp)
	sw	s10,4(sp)
	sw	s11,0(sp)
	.cfi_offset 8, -4
	.cfi_offset 23, -32
	.cfi_offset 9, -8
	.cfi_offset 18, -12
	.cfi_offset 19, -16
	.cfi_offset 20, -20
	.cfi_offset 21, -24
	.cfi_offset 22, -28
	.cfi_offset 24, -36
	.cfi_offset 25, -40
	.cfi_offset 26, -44
	.cfi_offset 27, -48
	.loc 1 780 12
	lbu	a4,5(a1)
	lbu	s10,4(a1)
	.loc 1 777 8
	lw	a5,4(a0)
.LVL138:
	.loc 1 779 7 is_stmt 1
	.loc 1 780 12 is_stmt 0
	slli	a4,a4,8
	or	a4,a4,s10
	lbu	s10,6(a1)
	.loc 1 781 12
	lbu	s9,8(a1)
	.loc 1 779 12
	lbu	s11,1(a1)
	.loc 1 780 12
	slli	s10,s10,16
	or	a4,s10,a4
	lbu	s10,7(a1)
	.loc 1 779 12
	lbu	s5,0(a1)
	slli	s11,s11,8
	.loc 1 780 12
	slli	s10,s10,24
	or	s10,s10,a4
	.loc 1 780 169
	lw	a4,4(a5)
	.loc 1 782 12
	lbu	s8,12(a1)
	.loc 1 779 12
	or	s11,s11,s5
	.loc 1 780 169
	xor	s10,s10,a4
	.loc 1 781 12
	lbu	a4,9(a1)
	.loc 1 779 12
	lbu	s5,2(a1)
	.loc 1 782 179
	addi	t5,a5,16
	.loc 1 781 12
	slli	a4,a4,8
	or	a4,a4,s9
	lbu	s9,10(a1)
	.loc 1 779 12
	slli	s5,s5,16
	or	s11,s5,s11
	.loc 1 781 12
	slli	s9,s9,16
	or	a4,s9,a4
	lbu	s9,11(a1)
	.loc 1 779 12
	lbu	s5,3(a1)
	lui	s0,%hi(.LANCHOR7)
	.loc 1 781 12
	slli	s9,s9,24
	or	s9,s9,a4
	.loc 1 781 169
	lw	a4,8(a5)
	.loc 1 779 12
	slli	s5,s5,24
	or	s5,s5,s11
.LVL139:
	.loc 1 779 164 is_stmt 1
	.loc 1 779 166
	.loc 1 781 169 is_stmt 0
	xor	s9,s9,a4
	.loc 1 782 12
	lbu	a4,13(a1)
	.loc 1 779 169
	lw	s11,0(a5)
	lui	t2,%hi(.LANCHOR10)
	.loc 1 782 12
	slli	a4,a4,8
	or	a4,a4,s8
	lbu	s8,14(a1)
	lui	t0,%hi(.LANCHOR8)
	lui	t6,%hi(.LANCHOR9)
	slli	s8,s8,16
	or	a4,s8,a4
	lbu	s8,15(a1)
	.loc 1 782 173
	lw	a5,12(a5)
.LVL140:
	.loc 1 784 24
	lw	s7,0(a0)
	.loc 1 782 12
	slli	s8,s8,24
	or	s8,s8,a4
	.loc 1 784 24
	srai	s7,s7,1
	.loc 1 779 169
	xor	s5,s5,s11
.LVL141:
	.loc 1 780 7 is_stmt 1
	.loc 1 780 164
	.loc 1 780 166
	.loc 1 781 7
	.loc 1 781 164
	.loc 1 781 166
	.loc 1 782 7
	.loc 1 782 168
	.loc 1 782 170
	.loc 1 782 173 is_stmt 0
	xor	s8,s8,a5
.LVL142:
	.loc 1 784 5 is_stmt 1
	.loc 1 784 12 is_stmt 0
	addi	s7,s7,-1
.LVL143:
	addi	s0,s0,%lo(.LANCHOR7)
	addi	t2,t2,%lo(.LANCHOR10)
	addi	t0,t0,%lo(.LANCHOR8)
	addi	t6,t6,%lo(.LANCHOR9)
.LVL144:
.L66:
	andi	a4,s5,255
	srli	a5,s10,24
	slli	a4,a4,2
	slli	a5,a5,2
	add	a4,s0,a4
	add	a5,t2,a5
	lw	a1,0(a4)
	lw	a5,0(a5)
	srli	a4,s5,24
	slli	a4,a4,2
	xor	a1,a1,a5
	lw	a5,0(t5)
	add	a4,t2,a4
	lw	a4,0(a4)
	xor	a1,a1,a5
	srli	a5,s8,6
	andi	a5,a5,1020
	add	a5,t0,a5
	lw	a5,0(a5)
	andi	a3,s9,255
	slli	a3,a3,2
	xor	a1,a1,a5
	srli	a5,s9,14
	andi	a5,a5,1020
	add	a5,t6,a5
	lw	a5,0(a5)
	add	a3,s0,a3
	lw	a3,0(a3)
	xor	a1,a1,a5
	andi	a5,s8,255
	slli	a5,a5,2
	add	a5,s0,a5
	lw	a5,0(a5)
	srli	t1,a1,8
	andi	s6,a1,255
	xor	a5,a5,a4
	lw	a4,12(t5)
	lw	s11,16(t5)
	andi	t1,t1,255
	xor	a5,a5,a4
	srli	a4,s9,6
	andi	a4,a4,1020
	add	a4,t0,a4
	lw	a4,0(a4)
	srli	s9,s9,24
	slli	s9,s9,2
	xor	a5,a5,a4
	srli	a4,s10,14
	andi	a4,a4,1020
	add	a4,t6,a4
	lw	a4,0(a4)
	add	s9,t2,s9
	lw	a0,0(s9)
	xor	a5,a5,a4
	srli	a4,s8,24
	slli	a4,a4,2
	add	a4,t2,a4
	lw	a4,0(a4)
	srli	s8,s8,14
.LVL145:
	andi	s8,s8,1020
	xor	a3,a3,a4
	lw	a4,8(t5)
	add	s8,t6,s8
	srli	t4,a5,8
	xor	a3,a3,a4
	srli	a4,s10,6
	andi	a4,a4,1020
	add	a4,t0,a4
	lw	a4,0(a4)
	andi	s10,s10,255
	slli	s10,s10,2
	xor	a3,a3,a4
	srli	a4,s5,14
	andi	a4,a4,1020
	add	a4,t6,a4
	lw	a4,0(a4)
	add	s10,s0,s10
	srli	s5,s5,6
.LVL146:
	xor	a3,a3,a4
	lw	a4,0(s10)
	andi	s5,s5,1020
	add	s5,t0,s5
	xor	a4,a4,a0
	lw	a0,4(t5)
	srli	t3,a3,16
	srli	a7,a5,16
	xor	a4,a4,a0
	lw	a0,0(s5)
	srli	s3,a3,24
	andi	s2,a3,255
	xor	a4,a4,a0
	lw	a0,0(s8)
	srli	a3,a3,8
	srli	s1,a5,24
	xor	a4,a4,a0
	srli	a6,a4,8
	srli	a0,a1,16
	srli	s5,a4,24
	andi	s4,a4,255
	srli	a4,a4,16
	andi	t4,t4,255
	andi	t3,t3,255
	lw	s10,20(t5)
	andi	a7,a7,255
	lw	s9,24(t5)
	andi	a6,a6,255
	andi	a0,a0,255
	lw	s8,28(t5)
	andi	a5,a5,255
	andi	a3,a3,255
	andi	a4,a4,255
	srli	a1,a1,24
	.loc 1 784 5 discriminator 1
	bgt	s7,zero,.L67
	.loc 1 790 7 is_stmt 1
.LVL147:
	.loc 1 790 128
	.loc 1 790 249
	.loc 1 790 370
	.loc 1 790 492
	.loc 1 792 5
	.loc 1 794 29 is_stmt 0
	lui	t5,%hi(.LANCHOR2)
	addi	t5,t5,%lo(.LANCHOR2)
	.loc 1 793 29
	add	s6,t5,s6
	.loc 1 794 29
	add	t4,t5,t4
	.loc 1 793 15
	lbu	t6,0(s6)
	.loc 1 794 15
	lbu	t4,0(t4)
	.loc 1 795 29
	add	t3,t5,t3
	.loc 1 795 15
	lbu	t3,0(t3)
	.loc 1 794 52
	slli	t4,t4,8
	.loc 1 792 8
	xor	s11,t6,s11
	.loc 1 795 53
	slli	t3,t3,16
	.loc 1 796 29
	add	s5,t5,s5
	.loc 1 792 8
	xor	s11,t4,s11
	xor	s11,s11,t3
	.loc 1 796 15
	lbu	t3,0(s5)
	.loc 1 799 29
	add	s4,t5,s4
	.loc 1 800 29
	add	t1,t5,t1
	.loc 1 796 53
	slli	t3,t3,24
	.loc 1 811 29
	add	a5,t5,a5
	.loc 1 811 15
	lbu	a5,0(a5)
	.loc 1 800 15
	lbu	t1,0(t1)
	.loc 1 792 8
	xor	s11,s11,t3
.LVL148:
	.loc 1 798 5 is_stmt 1
	.loc 1 801 29 is_stmt 0
	add	a7,t5,a7
	.loc 1 799 15
	lbu	t3,0(s4)
	.loc 1 801 15
	lbu	a7,0(a7)
	.loc 1 812 29
	add	a3,t5,a3
	.loc 1 810 8
	xor	s8,a5,s8
	.loc 1 800 52
	slli	t1,t1,8
	.loc 1 812 15
	lbu	a5,0(a3)
	.loc 1 798 8
	xor	s10,t3,s10
	.loc 1 801 53
	slli	a7,a7,16
	.loc 1 802 29
	add	s3,t5,s3
	.loc 1 798 8
	xor	s10,t1,s10
	xor	s10,s10,a7
	.loc 1 802 15
	lbu	a7,0(s3)
	.loc 1 812 52
	slli	a5,a5,8
	.loc 1 813 29
	add	a4,t5,a4
	.loc 1 810 8
	xor	s8,s8,a5
	.loc 1 813 15
	lbu	a5,0(a4)
	.loc 1 802 53
	slli	a7,a7,24
	.loc 1 805 29
	add	s2,t5,s2
	.loc 1 806 29
	add	a6,t5,a6
	.loc 1 806 15
	lbu	a6,0(a6)
	.loc 1 798 8
	xor	s10,s10,a7
.LVL149:
	.loc 1 804 5 is_stmt 1
	.loc 1 807 29 is_stmt 0
	add	a0,t5,a0
	.loc 1 805 15
	lbu	a7,0(s2)
	.loc 1 807 15
	lbu	a0,0(a0)
	.loc 1 813 53
	slli	a5,a5,16
	.loc 1 814 29
	add	a1,t5,a1
	.loc 1 810 8
	xor	s8,s8,a5
	.loc 1 814 15
	lbu	a5,0(a1)
	.loc 1 806 52
	slli	a6,a6,8
	.loc 1 804 8
	xor	s9,a7,s9
	.loc 1 807 53
	slli	a0,a0,16
	.loc 1 808 29
	add	s1,t5,s1
	.loc 1 804 8
	xor	s9,a6,s9
	xor	s9,s9,a0
	.loc 1 814 53
	slli	a5,a5,24
	.loc 1 808 15
	lbu	a0,0(s1)
	.loc 1 810 8
	xor	s8,s8,a5
	.loc 1 816 106
	srli	a5,s11,8
	.loc 1 816 81
	sb	a5,1(a2)
	.loc 1 816 168
	srli	a5,s11,16
	.loc 1 816 143
	sb	a5,2(a2)
	.loc 1 808 53
	slli	a0,a0,24
	.loc 1 817 106
	srli	a5,s10,8
	.loc 1 804 8
	xor	s9,s9,a0
.LVL150:
	.loc 1 810 5 is_stmt 1
	.loc 1 816 7
	.loc 1 817 81 is_stmt 0
	sb	a5,5(a2)
	.loc 1 817 168
	srli	a5,s10,16
	.loc 1 817 143
	sb	a5,6(a2)
	.loc 1 818 106
	srli	a5,s9,8
	.loc 1 818 81
	sb	a5,9(a2)
	.loc 1 818 168
	srli	a5,s9,16
	.loc 1 818 143
	sb	a5,10(a2)
	.loc 1 819 108
	srli	a5,s8,8
	.loc 1 816 24
	sb	s11,0(a2)
	.loc 1 816 61 is_stmt 1
	.loc 1 816 123
	.loc 1 816 186
	.loc 1 817 24 is_stmt 0
	sb	s10,4(a2)
	.loc 1 816 231
	srli	s11,s11,24
.LVL151:
	.loc 1 817 231
	srli	s10,s10,24
.LVL152:
	.loc 1 818 24
	sb	s9,8(a2)
	.loc 1 819 25
	sb	s8,12(a2)
	.loc 1 818 231
	srli	s9,s9,24
.LVL153:
	.loc 1 819 83
	sb	a5,13(a2)
	.loc 1 819 171
	srli	a5,s8,16
	.loc 1 819 235
	srli	s8,s8,24
.LVL154:
	.loc 1 816 206
	sb	s11,3(a2)
	.loc 1 816 250 is_stmt 1
	.loc 1 817 7
	.loc 1 817 61
	.loc 1 817 123
	.loc 1 817 186
	.loc 1 817 206 is_stmt 0
	sb	s10,7(a2)
	.loc 1 817 250 is_stmt 1
	.loc 1 818 7
	.loc 1 818 61
	.loc 1 818 123
	.loc 1 818 186
	.loc 1 818 206 is_stmt 0
	sb	s9,11(a2)
	.loc 1 818 250 is_stmt 1
	.loc 1 819 7
	.loc 1 819 62
	.loc 1 819 125
	.loc 1 819 210 is_stmt 0
	sb	s8,15(a2)
	.loc 1 819 146
	sb	a5,14(a2)
	.loc 1 819 189 is_stmt 1
	.loc 1 819 254
	.loc 1 820 1 is_stmt 0
	lw	s0,44(sp)
	.cfi_remember_state
	.cfi_restore 8
	lw	s1,40(sp)
	.cfi_restore 9
	lw	s2,36(sp)
	.cfi_restore 18
	lw	s3,32(sp)
	.cfi_restore 19
	lw	s4,28(sp)
	.cfi_restore 20
	lw	s5,24(sp)
	.cfi_restore 21
	lw	s6,20(sp)
	.cfi_restore 22
	lw	s7,16(sp)
	.cfi_restore 23
.LVL155:
	lw	s8,12(sp)
	.cfi_restore 24
	lw	s9,8(sp)
	.cfi_restore 25
	lw	s10,4(sp)
	.cfi_restore 26
	lw	s11,0(sp)
	.cfi_restore 27
	addi	sp,sp,48
	.cfi_def_cfa_offset 0
	jr	ra
.LVL156:
.L67:
	.cfi_restore_state
	.loc 1 786 11 is_stmt 1 discriminator 3
	.loc 1 786 132 discriminator 3
	.loc 1 786 253 discriminator 3
	.loc 1 786 374 discriminator 3
	.loc 1 786 496 discriminator 3
	.loc 1 787 11 discriminator 3
	.loc 1 787 27 is_stmt 0 discriminator 3
	slli	s6,s6,2
	.loc 1 787 107 discriminator 3
	slli	s5,s5,2
	.loc 1 787 27 discriminator 3
	add	s6,s0,s6
	.loc 1 787 107 discriminator 3
	add	s5,t2,s5
	.loc 1 787 14 discriminator 3
	lw	s6,0(s6)
	lw	s5,0(s5)
	.loc 1 787 50 discriminator 3
	slli	t4,t4,2
	add	t4,t0,t4
	.loc 1 787 14 discriminator 3
	xor	s5,s6,s5
	xor	s5,s5,s11
	lw	s11,0(t4)
	.loc 1 787 78 discriminator 3
	slli	t3,t3,2
	.loc 1 787 148 discriminator 3
	slli	s4,s4,2
	.loc 1 787 228 discriminator 3
	slli	s3,s3,2
	.loc 1 787 78 discriminator 3
	add	t3,t6,t3
	.loc 1 787 148 discriminator 3
	add	s4,s0,s4
	.loc 1 787 228 discriminator 3
	add	s3,t2,s3
	.loc 1 787 14 discriminator 3
	xor	s5,s5,s11
	.loc 1 787 135 discriminator 3
	lw	t4,0(s3)
	.loc 1 787 14 discriminator 3
	lw	s11,0(t3)
.LVL157:
	.loc 1 787 171 discriminator 3
	slli	t1,t1,2
	.loc 1 787 135 discriminator 3
	lw	t3,0(s4)
	.loc 1 787 390 discriminator 3
	slli	a5,a5,2
	.loc 1 787 470 discriminator 3
	slli	a1,a1,2
	.loc 1 787 171 discriminator 3
	add	t1,t0,t1
	.loc 1 787 199 discriminator 3
	slli	a7,a7,2
	.loc 1 787 390 discriminator 3
	add	a5,s0,a5
	.loc 1 787 470 discriminator 3
	add	a1,t2,a1
	.loc 1 787 135 discriminator 3
	lw	t1,0(t1)
	.loc 1 787 199 discriminator 3
	add	a7,t6,a7
	.loc 1 787 377 discriminator 3
	lw	a5,0(a5)
	lw	a1,0(a1)
	.loc 1 787 135 discriminator 3
	lw	a7,0(a7)
	xor	t3,t3,t4
	xor	s10,t3,s10
	.loc 1 787 269 discriminator 3
	slli	s2,s2,2
	.loc 1 787 349 discriminator 3
	slli	s1,s1,2
	.loc 1 787 413 discriminator 3
	slli	a3,a3,2
	.loc 1 787 135 discriminator 3
	xor	s10,s10,t1
	.loc 1 787 377 discriminator 3
	xor	a5,a5,a1
	.loc 1 787 269 discriminator 3
	add	s2,s0,s2
	.loc 1 787 349 discriminator 3
	add	s1,t2,s1
	.loc 1 787 413 discriminator 3
	add	a3,t0,a3
	.loc 1 787 377 discriminator 3
	xor	s8,a5,s8
	.loc 1 787 135 discriminator 3
	xor	s10,s10,a7
	.loc 1 787 377 discriminator 3
	lw	a5,0(a3)
	.loc 1 787 256 discriminator 3
	lw	a7,0(s2)
	lw	t1,0(s1)
	.loc 1 787 292 discriminator 3
	slli	a6,a6,2
	add	a6,t0,a6
	.loc 1 787 320 discriminator 3
	slli	a0,a0,2
	.loc 1 787 441 discriminator 3
	slli	a4,a4,2
	.loc 1 787 256 discriminator 3
	lw	a6,0(a6)
	.loc 1 787 320 discriminator 3
	add	a0,t6,a0
	.loc 1 787 441 discriminator 3
	add	a4,t6,a4
	.loc 1 787 377 discriminator 3
	xor	s8,s8,a5
	.loc 1 787 256 discriminator 3
	xor	a7,a7,t1
	lw	a0,0(a0)
	.loc 1 787 377 discriminator 3
	lw	a5,0(a4)
	.loc 1 787 256 discriminator 3
	xor	s9,a7,s9
	xor	s9,s9,a6
	.loc 1 787 14 discriminator 3
	xor	s5,s5,s11
.LVL158:
	.loc 1 787 132 is_stmt 1 discriminator 3
	.loc 1 787 253 discriminator 3
	.loc 1 787 256 is_stmt 0 discriminator 3
	xor	s9,s9,a0
.LVL159:
	.loc 1 787 374 is_stmt 1 discriminator 3
	addi	t5,t5,32
.LVL160:
	.loc 1 787 377 is_stmt 0 discriminator 3
	xor	s8,s8,a5
.LVL161:
	.loc 1 787 496 is_stmt 1 discriminator 3
	.loc 1 784 44 is_stmt 0 discriminator 3
	addi	s7,s7,-1
.LVL162:
	j	.L66
	.cfi_endproc
.LFE8:
	.size	mbedtls_aes_decrypt, .-mbedtls_aes_decrypt
	.section	.text.mbedtls_aes_crypt_ecb,"ax",@progbits
	.align	1
	.globl	mbedtls_aes_crypt_ecb
	.type	mbedtls_aes_crypt_ecb, @function
mbedtls_aes_crypt_ecb:
.LFB9:
	.loc 1 831 1 is_stmt 1
	.cfi_startproc
.LVL163:
	.loc 1 849 5
	.loc 1 831 1 is_stmt 0
	addi	sp,sp,-16
	.cfi_def_cfa_offset 16
	sw	ra,12(sp)
	.cfi_offset 1, -4
	.loc 1 849 7
	li	a4,1
	.loc 1 831 1
	mv	a5,a2
	mv	a2,a3
.LVL164:
	.loc 1 849 7
	bne	a1,a4,.L70
	.loc 1 850 9 is_stmt 1
	mv	a1,a5
.LVL165:
	call	mbedtls_aes_encrypt
.LVL166:
.L71:
	.loc 1 854 5
	.loc 1 855 1 is_stmt 0
	lw	ra,12(sp)
	.cfi_remember_state
	.cfi_restore 1
	li	a0,0
	addi	sp,sp,16
	.cfi_def_cfa_offset 0
	jr	ra
.LVL167:
.L70:
	.cfi_restore_state
	.loc 1 852 9 is_stmt 1
	mv	a1,a5
.LVL168:
	call	mbedtls_aes_decrypt
.LVL169:
	j	.L71
	.cfi_endproc
.LFE9:
	.size	mbedtls_aes_crypt_ecb, .-mbedtls_aes_crypt_ecb
	.section	.text.mbedtls_aes_crypt_cbc,"ax",@progbits
	.align	1
	.globl	mbedtls_aes_crypt_cbc
	.type	mbedtls_aes_crypt_cbc, @function
mbedtls_aes_crypt_cbc:
.LFB10:
	.loc 1 868 1
	.cfi_startproc
.LVL170:
	.loc 1 869 5
	.loc 1 870 5
	.loc 1 872 5
	.loc 1 868 1 is_stmt 0
	addi	sp,sp,-64
	.cfi_def_cfa_offset 64
	sw	s0,56(sp)
	sw	ra,60(sp)
	sw	s1,52(sp)
	sw	s2,48(sp)
	sw	s3,44(sp)
	sw	s4,40(sp)
	sw	s5,36(sp)
	sw	s6,32(sp)
	sw	s7,28(sp)
	sw	s8,24(sp)
	.cfi_offset 8, -8
	.cfi_offset 1, -4
	.cfi_offset 9, -12
	.cfi_offset 18, -16
	.cfi_offset 19, -20
	.cfi_offset 20, -24
	.cfi_offset 21, -28
	.cfi_offset 22, -32
	.cfi_offset 23, -36
	.cfi_offset 24, -40
	.loc 1 872 16
	andi	s0,a2,15
	.loc 1 872 7
	bne	s0,zero,.L81
	mv	s4,a5
	mv	s5,a4
	mv	s1,a3
	mv	s2,a2
	mv	s7,a1
	mv	s6,a0
	.loc 1 887 5 is_stmt 1
	.loc 1 908 13 is_stmt 0
	li	s8,16
	.loc 1 887 7
	bne	a1,zero,.L76
.LVL171:
.L75:
	.loc 1 889 14
	add	a5,s0,s2
	sub	s7,s5,s0
	sub	s3,s4,s0
.LVL172:
	bne	a5,zero,.L78
.LVL173:
.L80:
	.loc 1 920 11
	li	a0,0
.LVL174:
.L73:
	.loc 1 921 1
	lw	ra,60(sp)
	.cfi_remember_state
	.cfi_restore 1
	lw	s0,56(sp)
	.cfi_restore 8
	lw	s1,52(sp)
	.cfi_restore 9
	lw	s2,48(sp)
	.cfi_restore 18
	lw	s3,44(sp)
	.cfi_restore 19
	lw	s4,40(sp)
	.cfi_restore 20
	lw	s5,36(sp)
	.cfi_restore 21
	lw	s6,32(sp)
	.cfi_restore 22
	lw	s7,28(sp)
	.cfi_restore 23
	lw	s8,24(sp)
	.cfi_restore 24
	addi	sp,sp,64
	.cfi_def_cfa_offset 0
	jr	ra
.LVL175:
.L78:
	.cfi_restore_state
	.loc 1 891 13 is_stmt 1
	li	a2,16
	mv	a1,s7
	mv	a0,sp
	call	memcpy
.LVL176:
	.loc 1 892 13
.LBB16:
.LBB17:
	.loc 1 849 5
	.loc 1 852 9
	mv	a2,s3
	mv	a1,s7
	mv	a0,s6
	call	mbedtls_aes_decrypt
.LVL177:
	.loc 1 854 5
.LBE17:
.LBE16:
	.loc 1 894 20 is_stmt 0
	li	a3,0
	.loc 1 894 13
	li	a2,16
.LVL178:
.L77:
	.loc 1 895 17 is_stmt 1 discriminator 3
	add	a4,s3,a3
	.loc 1 895 60 is_stmt 0 discriminator 3
	add	a5,s1,a3
	.loc 1 895 29 discriminator 3
	lbu	a5,0(a5)
	lbu	a1,0(a4)
	.loc 1 894 34 discriminator 3
	addi	a3,a3,1
.LVL179:
	.loc 1 895 29 discriminator 3
	xor	a5,a5,a1
	.loc 1 895 27 discriminator 3
	sb	a5,0(a4)
	.loc 1 894 13 discriminator 3
	bne	a3,a2,.L77
	.loc 1 897 13 is_stmt 1
	li	a2,16
	mv	a1,sp
	mv	a0,s1
	call	memcpy
.LVL180:
	.loc 1 899 13
	.loc 1 900 13
	.loc 1 901 13
	addi	s0,s0,-16
.LVL181:
	j	.L75
.LVL182:
.L82:
	.loc 1 908 20 is_stmt 0
	li	a3,0
.LVL183:
.L79:
	.loc 1 909 17 is_stmt 1 discriminator 3
	.loc 1 909 51 is_stmt 0 discriminator 3
	add	a5,a4,a3
	.loc 1 909 59 discriminator 3
	add	a1,s1,a3
	.loc 1 909 29 discriminator 3
	lbu	a5,0(a5)
	lbu	a1,0(a1)
	.loc 1 909 27 discriminator 3
	add	a2,s3,a3
	.loc 1 908 34 discriminator 3
	addi	a3,a3,1
.LVL184:
	.loc 1 909 29 discriminator 3
	xor	a5,a5,a1
	.loc 1 909 27 discriminator 3
	sb	a5,0(a2)
	.loc 1 908 13 discriminator 3
	bne	a3,s8,.L79
	.loc 1 911 13 is_stmt 1
	mv	a3,s3
.LVL185:
	mv	a2,s3
	mv	a1,s7
	mv	a0,s6
	call	mbedtls_aes_crypt_ecb
.LVL186:
	.loc 1 912 13
	li	a2,16
	mv	a1,s3
	mv	a0,s1
	call	memcpy
.LVL187:
	.loc 1 914 13
	.loc 1 915 13
	.loc 1 916 13
	addi	s0,s0,-16
.LVL188:
.L76:
	.loc 1 906 14 is_stmt 0
	add	a5,s2,s0
	sub	a4,s5,s0
	sub	s3,s4,s0
.LVL189:
	bne	a5,zero,.L82
	j	.L80
.LVL190:
.L81:
	.loc 1 873 15
	li	a0,-34
.LVL191:
	j	.L73
	.cfi_endproc
.LFE10:
	.size	mbedtls_aes_crypt_cbc, .-mbedtls_aes_crypt_cbc
	.section	.text.mbedtls_aes_crypt_cfb128,"ax",@progbits
	.align	1
	.globl	mbedtls_aes_crypt_cfb128
	.type	mbedtls_aes_crypt_cfb128, @function
mbedtls_aes_crypt_cfb128:
.LFB11:
	.loc 1 935 1 is_stmt 1
	.cfi_startproc
.LVL192:
	.loc 1 936 5
	.loc 1 937 5
	.loc 1 935 1 is_stmt 0
	addi	sp,sp,-32
	.cfi_def_cfa_offset 32
	sw	s1,20(sp)
	sw	s2,16(sp)
	sw	s3,12(sp)
	sw	s4,8(sp)
	sw	s5,4(sp)
	sw	s6,0(sp)
	sw	ra,28(sp)
	sw	s0,24(sp)
	.cfi_offset 9, -12
	.cfi_offset 18, -16
	.cfi_offset 19, -20
	.cfi_offset 20, -24
	.cfi_offset 21, -28
	.cfi_offset 22, -32
	.cfi_offset 1, -4
	.cfi_offset 8, -8
	.loc 1 935 1
	mv	s5,a0
	mv	s6,a3
	mv	s2,a4
	mv	s3,a5
	mv	s1,a6
	.loc 1 937 12
	lw	s0,0(a3)
.LVL193:
	.loc 1 939 5 is_stmt 1
	add	s4,a6,a2
	.loc 1 939 7 is_stmt 0
	beq	a1,zero,.L91
.LVL194:
.L90:
	.loc 1 955 14
	beq	s1,s4,.L94
	.loc 1 957 13 is_stmt 1
	.loc 1 957 15 is_stmt 0
	bne	s0,zero,.L95
	.loc 1 958 17 is_stmt 1
.LVL195:
.LBB18:
.LBB19:
	.loc 1 849 5
	.loc 1 850 9
	mv	a2,s2
	mv	a1,s2
	mv	a0,s5
	call	mbedtls_aes_encrypt
.LVL196:
	.loc 1 854 5
.L95:
.LBE19:
.LBE18:
	.loc 1 960 13
	.loc 1 960 52 is_stmt 0
	add	a4,s2,s0
	.loc 1 960 64
	addi	s3,s3,1
.LVL197:
	.loc 1 960 33
	lbu	a5,0(a4)
	lbu	a3,-1(s3)
	.loc 1 960 28
	addi	s1,s1,1
.LVL198:
	.loc 1 962 21
	addi	s0,s0,1
.LVL199:
	.loc 1 960 33
	xor	a5,a5,a3
	.loc 1 960 31
	sb	a5,-1(s1)
	.loc 1 960 19
	sb	a5,0(a4)
	.loc 1 962 13 is_stmt 1
	.loc 1 962 15 is_stmt 0
	andi	s0,s0,15
.LVL200:
	j	.L90
.L93:
	.loc 1 943 13 is_stmt 1
	.loc 1 943 15 is_stmt 0
	bne	s0,zero,.L92
	.loc 1 944 17 is_stmt 1
.LVL201:
.LBB20:
.LBB21:
	.loc 1 849 5
	.loc 1 850 9
	mv	a2,s2
	mv	a1,s2
	mv	a0,s5
	call	mbedtls_aes_encrypt
.LVL202:
	.loc 1 854 5
.L92:
.LBE21:
.LBE20:
	.loc 1 946 13
	.loc 1 947 48 is_stmt 0
	add	a4,s2,s0
	.loc 1 946 23
	addi	s3,s3,1
.LVL203:
	.loc 1 946 17
	lbu	a3,-1(s3)
.LVL204:
	.loc 1 947 13 is_stmt 1
	.loc 1 947 44 is_stmt 0
	lbu	a5,0(a4)
	.loc 1 947 20
	addi	s1,s1,1
.LVL205:
	.loc 1 950 21
	addi	s0,s0,1
.LVL206:
	.loc 1 947 44
	xor	a5,a3,a5
	.loc 1 947 23
	sb	a5,-1(s1)
	.loc 1 948 13 is_stmt 1
	.loc 1 948 19 is_stmt 0
	sb	a3,0(a4)
	.loc 1 950 13 is_stmt 1
	.loc 1 950 15 is_stmt 0
	andi	s0,s0,15
.LVL207:
.L91:
	.loc 1 941 14
	bne	s1,s4,.L93
.LVL208:
.L94:
	.loc 1 966 5 is_stmt 1
	.loc 1 966 13 is_stmt 0
	sw	s0,0(s6)
	.loc 1 968 5 is_stmt 1
	.loc 1 969 1 is_stmt 0
	lw	ra,28(sp)
	.cfi_restore 1
	lw	s0,24(sp)
	.cfi_restore 8
.LVL209:
	lw	s1,20(sp)
	.cfi_restore 9
.LVL210:
	lw	s2,16(sp)
	.cfi_restore 18
.LVL211:
	lw	s3,12(sp)
	.cfi_restore 19
.LVL212:
	lw	s4,8(sp)
	.cfi_restore 20
	lw	s5,4(sp)
	.cfi_restore 21
.LVL213:
	lw	s6,0(sp)
	.cfi_restore 22
.LVL214:
	li	a0,0
	addi	sp,sp,32
	.cfi_def_cfa_offset 0
	jr	ra
	.cfi_endproc
.LFE11:
	.size	mbedtls_aes_crypt_cfb128, .-mbedtls_aes_crypt_cfb128
	.section	.text.mbedtls_aes_crypt_cfb8,"ax",@progbits
	.align	1
	.globl	mbedtls_aes_crypt_cfb8
	.type	mbedtls_aes_crypt_cfb8, @function
mbedtls_aes_crypt_cfb8:
.LFB12:
	.loc 1 980 1 is_stmt 1
	.cfi_startproc
.LVL215:
	addi	sp,sp,-64
	.cfi_def_cfa_offset 64
	sw	s0,56(sp)
	sw	s1,52(sp)
	sw	s2,48(sp)
	sw	s3,44(sp)
	sw	s4,40(sp)
	sw	s5,36(sp)
	sw	s6,32(sp)
	sw	ra,60(sp)
	.cfi_offset 8, -8
	.cfi_offset 9, -12
	.cfi_offset 18, -16
	.cfi_offset 19, -20
	.cfi_offset 20, -24
	.cfi_offset 21, -28
	.cfi_offset 22, -32
	.cfi_offset 1, -4
	.loc 1 980 1 is_stmt 0
	mv	s5,a0
	mv	s3,a1
	.loc 1 981 5 is_stmt 1
	.loc 1 982 5
	.loc 1 984 5
	.loc 1 980 1 is_stmt 0
	mv	s1,a3
	mv	s2,a4
	mv	s0,a5
	add	s4,a5,a2
	.loc 1 994 11
	li	s6,1
.LVL216:
.L100:
	.loc 1 984 10
	bne	s0,s4,.L103
	.loc 1 1000 5 is_stmt 1
	.loc 1 1001 1 is_stmt 0
	lw	ra,60(sp)
	.cfi_remember_state
	.cfi_restore 1
	lw	s0,56(sp)
	.cfi_restore 8
.LVL217:
	lw	s1,52(sp)
	.cfi_restore 9
.LVL218:
	lw	s2,48(sp)
	.cfi_restore 18
.LVL219:
	lw	s3,44(sp)
	.cfi_restore 19
.LVL220:
	lw	s4,40(sp)
	.cfi_restore 20
	lw	s5,36(sp)
	.cfi_restore 21
.LVL221:
	lw	s6,32(sp)
	.cfi_restore 22
	li	a0,0
	addi	sp,sp,64
	.cfi_def_cfa_offset 0
	jr	ra
.LVL222:
.L103:
	.cfi_restore_state
	.loc 1 986 9 is_stmt 1
	li	a2,16
	mv	a1,s1
	addi	a0,sp,12
	call	memcpy
.LVL223:
	.loc 1 987 9
.LBB22:
.LBB23:
	.loc 1 849 5
	.loc 1 850 9
	mv	a2,s1
	mv	a1,s1
	mv	a0,s5
	call	mbedtls_aes_encrypt
.LVL224:
	.loc 1 854 5
.LBE23:
.LBE22:
	.loc 1 989 9
	.loc 1 989 11 is_stmt 0
	bne	s3,zero,.L101
	.loc 1 990 13 is_stmt 1
	.loc 1 990 20 is_stmt 0
	lbu	a5,0(s2)
	sb	a5,28(sp)
.L101:
	.loc 1 992 9 is_stmt 1
	.loc 1 992 56 is_stmt 0
	addi	s2,s2,1
.LVL225:
	.loc 1 992 25
	lbu	a5,0(s1)
	lbu	a4,-1(s2)
	.loc 1 992 20
	addi	s0,s0,1
.LVL226:
	.loc 1 992 25
	xor	a5,a5,a4
	.loc 1 992 23
	sb	a5,-1(s0)
.LVL227:
	.loc 1 994 9 is_stmt 1
	.loc 1 994 11 is_stmt 0
	bne	s3,s6,.L102
	.loc 1 995 13 is_stmt 1
	.loc 1 995 20 is_stmt 0
	sb	a5,28(sp)
.L102:
	.loc 1 997 9 is_stmt 1
	li	a2,16
	addi	a1,sp,13
	mv	a0,s1
	call	memcpy
.LVL228:
	j	.L100
	.cfi_endproc
.LFE12:
	.size	mbedtls_aes_crypt_cfb8, .-mbedtls_aes_crypt_cfb8
	.section	.text.mbedtls_aes_crypt_ctr,"ax",@progbits
	.align	1
	.globl	mbedtls_aes_crypt_ctr
	.type	mbedtls_aes_crypt_ctr, @function
mbedtls_aes_crypt_ctr:
.LFB13:
	.loc 1 1015 1
	.cfi_startproc
.LVL229:
	addi	sp,sp,-48
	.cfi_def_cfa_offset 48
	sw	s1,36(sp)
	sw	s2,32(sp)
	sw	s3,28(sp)
	sw	s4,24(sp)
	sw	ra,44(sp)
	sw	s0,40(sp)
	.cfi_offset 9, -12
	.cfi_offset 18, -16
	.cfi_offset 19, -20
	.cfi_offset 20, -24
	.cfi_offset 1, -4
	.cfi_offset 8, -8
	.loc 1 1017 12 is_stmt 0
	lw	s0,0(a2)
	.loc 1 1015 1
	mv	s3,a0
	.loc 1 1016 5 is_stmt 1
	.loc 1 1017 5
.LVL230:
	.loc 1 1019 5
	.loc 1 1015 1 is_stmt 0
	mv	s1,a2
	add	s2,a6,a1
	addi	s4,a3,15
.LVL231:
.L106:
	.loc 1 1019 10
	bne	a6,s2,.L109
	.loc 1 1034 5 is_stmt 1
	.loc 1 1034 13 is_stmt 0
	sw	s0,0(s1)
	.loc 1 1036 5 is_stmt 1
	.loc 1 1037 1 is_stmt 0
	lw	ra,44(sp)
	.cfi_remember_state
	.cfi_restore 1
	lw	s0,40(sp)
	.cfi_restore 8
.LVL232:
	lw	s1,36(sp)
	.cfi_restore 9
.LVL233:
	lw	s2,32(sp)
	.cfi_restore 18
	lw	s3,28(sp)
	.cfi_restore 19
.LVL234:
	lw	s4,24(sp)
	.cfi_restore 20
.LVL235:
	li	a0,0
	addi	sp,sp,48
	.cfi_def_cfa_offset 0
	jr	ra
.LVL236:
.L109:
	.cfi_restore_state
	.loc 1 1021 9 is_stmt 1
	.loc 1 1021 11 is_stmt 0
	bne	s0,zero,.L107
.LBB24:
.LBB25:
	.loc 1 850 9
	mv	a1,a3
	mv	a2,a4
	mv	a0,s3
	sw	a6,12(sp)
	sw	a5,8(sp)
.LBE25:
.LBE24:
	.loc 1 1022 13 is_stmt 1
.LVL237:
.LBB27:
.LBB26:
	.loc 1 849 5
	.loc 1 850 9
	sw	a4,4(sp)
	sw	a3,0(sp)
	call	mbedtls_aes_encrypt
.LVL238:
	.loc 1 854 5
.LBE26:
.LBE27:
	.loc 1 1024 13
	lw	a3,0(sp)
	lw	a4,4(sp)
	lw	a5,8(sp)
	lw	a6,12(sp)
	mv	a1,s4
.LVL239:
.L108:
	.loc 1 1025 17
	.loc 1 1025 21 is_stmt 0
	lbu	a2,0(a1)
	addi	a2,a2,1
	andi	a2,a2,0xff
	.loc 1 1025 19
	sb	a2,0(a1)
	bne	a2,zero,.L107
.LVL240:
	addi	a2,a1,-1
	.loc 1 1024 13 discriminator 2
	bne	a3,a1,.L110
.LVL241:
.L107:
	.loc 1 1028 9 is_stmt 1
	.loc 1 1029 54 is_stmt 0
	add	a2,a4,s0
	.loc 1 1028 19
	addi	a5,a5,1
.LVL242:
	.loc 1 1029 9 is_stmt 1
	.loc 1 1029 40 is_stmt 0
	lbu	a2,0(a2)
	lbu	a1,-1(a5)
.LVL243:
	.loc 1 1029 16
	addi	a6,a6,1
.LVL244:
	.loc 1 1031 17
	addi	s0,s0,1
.LVL245:
	.loc 1 1029 40
	xor	a2,a2,a1
	.loc 1 1029 19
	sb	a2,-1(a6)
	.loc 1 1031 9 is_stmt 1
	.loc 1 1031 11 is_stmt 0
	andi	s0,s0,15
.LVL246:
	j	.L106
.LVL247:
.L110:
	mv	a1,a2
.LVL248:
	j	.L108
	.cfi_endproc
.LFE13:
	.size	mbedtls_aes_crypt_ctr, .-mbedtls_aes_crypt_ctr
	.section	.bss.FSb,"aw",@nobits
	.align	2
	.set	.LANCHOR1,. + 0
	.type	FSb, @object
	.size	FSb, 256
FSb:
	.zero	256
	.section	.bss.FT0,"aw",@nobits
	.align	2
	.set	.LANCHOR3,. + 0
	.type	FT0, @object
	.size	FT0, 1024
FT0:
	.zero	1024
	.section	.bss.FT1,"aw",@nobits
	.align	2
	.set	.LANCHOR4,. + 0
	.type	FT1, @object
	.size	FT1, 1024
FT1:
	.zero	1024
	.section	.bss.FT2,"aw",@nobits
	.align	2
	.set	.LANCHOR5,. + 0
	.type	FT2, @object
	.size	FT2, 1024
FT2:
	.zero	1024
	.section	.bss.FT3,"aw",@nobits
	.align	2
	.set	.LANCHOR6,. + 0
	.type	FT3, @object
	.size	FT3, 1024
FT3:
	.zero	1024
	.section	.bss.RCON,"aw",@nobits
	.align	2
	.set	.LANCHOR0,. + 0
	.type	RCON, @object
	.size	RCON, 40
RCON:
	.zero	40
	.section	.bss.RSb,"aw",@nobits
	.align	2
	.set	.LANCHOR2,. + 0
	.type	RSb, @object
	.size	RSb, 256
RSb:
	.zero	256
	.section	.bss.RT0,"aw",@nobits
	.align	2
	.set	.LANCHOR7,. + 0
	.type	RT0, @object
	.size	RT0, 1024
RT0:
	.zero	1024
	.section	.bss.RT1,"aw",@nobits
	.align	2
	.set	.LANCHOR8,. + 0
	.type	RT1, @object
	.size	RT1, 1024
RT1:
	.zero	1024
	.section	.bss.RT2,"aw",@nobits
	.align	2
	.set	.LANCHOR9,. + 0
	.type	RT2, @object
	.size	RT2, 1024
RT2:
	.zero	1024
	.section	.bss.RT3,"aw",@nobits
	.align	2
	.set	.LANCHOR10,. + 0
	.type	RT3, @object
	.size	RT3, 1024
RT3:
	.zero	1024
	.section	.sbss.aes_init_done,"aw",@nobits
	.align	2
	.set	.LANCHOR11,. + 0
	.type	aes_init_done, @object
	.size	aes_init_done, 4
aes_init_done:
	.zero	4
	.text
.Letext0:
	.file 2 "/home/hogc/build-tools/sdk/bl/bl_iot_sdk/toolchain/riscv/Linux/lib/gcc/riscv64-unknown-elf/8.3.0/include/stddef.h"
	.file 3 "/home/hogc/build-tools/sdk/bl/bl_iot_sdk/toolchain/riscv/Linux/riscv64-unknown-elf/include/sys/_types.h"
	.file 4 "/home/hogc/build-tools/sdk/bl/bl_iot_sdk/toolchain/riscv/Linux/riscv64-unknown-elf/include/sys/reent.h"
	.file 5 "/home/hogc/build-tools/sdk/bl/bl_iot_sdk/toolchain/riscv/Linux/riscv64-unknown-elf/include/sys/lock.h"
	.file 6 "/home/hogc/build-tools/sdk/bl/bl_iot_sdk/toolchain/riscv/Linux/lib/gcc/riscv64-unknown-elf/8.3.0/include/stdint-gcc.h"
	.file 7 "/home/hogc/build-tools/sdk/bl/bl_iot_sdk/components/security/mbedtls/include/mbedtls/aes.h"
	.file 8 "/home/hogc/build-tools/sdk/bl/bl_iot_sdk/toolchain/riscv/Linux/riscv64-unknown-elf/include/string.h"