	.file	"cipher.c"
	.option nopic
	.attribute arch, "rv32i2p0_m2p0_f2p0_c2p0"
	.attribute unaligned_access, 0
	.attribute stack_align, 16
	.text
.Ltext0:
	.cfi_sections	.debug_frame
	.section	.text.mbedtls_cipher_get_block_size,"ax",@progbits
	.align	1
	.type	mbedtls_cipher_get_block_size, @function
mbedtls_cipher_get_block_size:
.LFB0:
	.file 1 "/home/hogc/build-tools/sdk/bl/bl_iot_sdk/components/security/mbedtls/include/mbedtls/cipher.h"
	.loc 1 341 1
	.cfi_startproc
.LVL0:
	.loc 1 342 5
	.loc 1 342 7 is_stmt 0
	beq	a0,zero,.L3
	.loc 1 342 34 discriminator 1
	lw	a5,0(a0)
	.loc 1 343 16 discriminator 1
	li	a0,0
.LVL1:
	.loc 1 342 20 discriminator 1
	beq	a5,zero,.L1
	.loc 1 345 5 is_stmt 1
	.loc 1 345 28 is_stmt 0
	lw	a0,20(a5)
	ret
.LVL2:
.L3:
	.loc 1 343 16
	li	a0,0
.LVL3:
.L1:
	.loc 1 346 1
	ret
	.cfi_endproc
.LFE0:
	.size	mbedtls_cipher_get_block_size, .-mbedtls_cipher_get_block_size
	.section	.text.add_pkcs_padding,"ax",@progbits
	.align	1
	.type	add_pkcs_padding, @function
add_pkcs_padding:
.LFB25:
	.file 2 "/home/hogc/build-tools/sdk/bl/bl_iot_sdk/components/security/mbedtls/src/cipher.c"
	.loc 2 469 1 is_stmt 1
	.cfi_startproc
.LVL4:
	.loc 2 470 5
	.loc 2 470 12 is_stmt 0
	sub	a1,a1,a2
.LVL5:
	.loc 2 471 5 is_stmt 1
	.loc 2 473 5
	.loc 2 473 12 is_stmt 0
	li	a5,0
.LVL6:
.L6:
	.loc 2 473 5 discriminator 1
	bltu	a5,a1,.L7
	.loc 2 475 1
	ret
.L7:
	.loc 2 474 9 is_stmt 1 discriminator 3
	.loc 2 474 30 is_stmt 0 discriminator 3
	add	a4,a0,a5
	add	a4,a4,a2
	.loc 2 473 35 discriminator 3
	addi	a5,a5,1
.LVL7:
	.loc 2 474 32 discriminator 3
	sb	a1,0(a4)
	.loc 2 473 35 discriminator 3
	andi	a5,a5,0xff
.LVL8:
	j	.L6
	.cfi_endproc
.LFE25:
	.size	add_pkcs_padding, .-add_pkcs_padding
	.section	.text.get_pkcs_padding,"ax",@progbits
	.align	1
	.type	get_pkcs_padding, @function
get_pkcs_padding:
.LFB26:
	.loc 2 479 1 is_stmt 1
	.cfi_startproc
.LVL9:
	.loc 2 480 5
	.loc 2 481 5
	.loc 2 483 5
	.loc 2 483 7 is_stmt 0
	beq	a0,zero,.L13
	.loc 2 483 22 discriminator 1
	beq	a2,zero,.L13
	.loc 2 486 5 is_stmt 1
	.loc 2 486 17 is_stmt 0
	add	a5,a0,a1
	lbu	a6,-1(a5)
.LVL10:
	.loc 2 487 5 is_stmt 1
	.loc 2 491 24 is_stmt 0
	seqz	a4,a6
	.loc 2 487 27
	sub	a7,a1,a6
	.loc 2 490 24
	sgtu	a5,a6,a1
	.loc 2 491 9
	or	a5,a5,a4
	.loc 2 487 15
	sw	a7,0(a2)
	.loc 2 490 5 is_stmt 1
.LVL11:
	.loc 2 491 5
	.loc 2 495 5
	.loc 2 496 5
	.loc 2 496 12 is_stmt 0
	li	a4,0
.LVL12:
.L10:
	.loc 2 496 5 discriminator 1
	bne	a4,a1,.L11
	.loc 2 499 5 is_stmt 1
	.loc 2 499 21 is_stmt 0
	bne	a5,zero,.L14
	li	a0,0
.LVL13:
	ret
.LVL14:
.L11:
	.loc 2 497 9 is_stmt 1 discriminator 3
	.loc 2 497 23 is_stmt 0 discriminator 3
	add	a3,a0,a4
	.loc 2 497 13 discriminator 3
	lbu	a3,0(a3)
	xor	a2,a6,a3
	.loc 2 497 49 discriminator 3
	sgtu	a3,a7,a4
	xori	a3,a3,1
	.loc 2 497 13 discriminator 3
	mul	a3,a3,a2
	.loc 2 496 33 discriminator 3
	addi	a4,a4,1
.LVL15:
	.loc 2 497 13 discriminator 3
	or	a5,a3,a5
.LVL16:
	andi	a5,a5,0xff
.LVL17:
	j	.L10
.LVL18:
.L13:
	.loc 2 484 15
	li	a0,-24576
.LVL19:
	addi	a0,a0,-256
	ret
.LVL20:
.L14:
	.loc 2 499 21
	li	a0,-24576
.LVL21:
	addi	a0,a0,-512
	.loc 2 500 1
	ret
	.cfi_endproc
.LFE26:
	.size	get_pkcs_padding, .-get_pkcs_padding
	.section	.text.add_zeros_padding,"ax",@progbits
	.align	1
	.type	add_zeros_padding, @function
add_zeros_padding:
.LFB27:
	.loc 2 588 1 is_stmt 1
	.cfi_startproc
.LVL22:
	.loc 2 589 5
	.loc 2 591 5
.L16:
	.loc 2 591 5 is_stmt 0 discriminator 1
	bltu	a2,a1,.L17
	.loc 2 593 1
	ret
.L17:
	.loc 2 592 9 is_stmt 1 discriminator 3
	.loc 2 592 19 is_stmt 0 discriminator 3
	add	a5,a0,a2
	sb	zero,0(a5)
	.loc 2 591 41 discriminator 3
	addi	a2,a2,1
.LVL23:
	j	.L16
	.cfi_endproc
.LFE27:
	.size	add_zeros_padding, .-add_zeros_padding
	.section	.text.get_no_padding,"ax",@progbits
	.align	1
	.type	get_no_padding, @function
get_no_padding:
.LFB29:
	.loc 2 624 1 is_stmt 1
	.cfi_startproc
.LVL24:
	.loc 2 625 5
	.loc 2 625 7 is_stmt 0
	beq	a0,zero,.L21
	.loc 2 625 22 discriminator 1
	beq	a2,zero,.L21
	.loc 2 628 5 is_stmt 1
	.loc 2 628 15 is_stmt 0
	sw	a1,0(a2)
	.loc 2 630 5 is_stmt 1
	.loc 2 630 11 is_stmt 0
	li	a0,0
.LVL25:
	ret
.LVL26:
.L21:
	.loc 2 626 15
	li	a0,-24576
.LVL27:
	addi	a0,a0,-256
	.loc 2 631 1
	ret
	.cfi_endproc
.LFE29:
	.size	get_no_padding, .-get_no_padding
	.section	.text.get_zeros_padding,"ax",@progbits
	.align	1
	.type	get_zeros_padding, @function
get_zeros_padding:
.LFB28:
	.loc 2 597 1 is_stmt 1
	.cfi_startproc
.LVL28:
	.loc 2 598 5
	.loc 2 599 5
	.loc 2 601 5
	.loc 2 601 7 is_stmt 0
	beq	a0,zero,.L27
	.loc 2 601 22 discriminator 1
	beq	a2,zero,.L27
	.loc 2 604 5 is_stmt 1
	.loc 2 604 15 is_stmt 0
	sw	zero,0(a2)
	.loc 2 605 5 is_stmt 1
.LVL29:
.LBB5:
.LBB6:
	.loc 2 599 19 is_stmt 0
	li	a5,0
.LVL30:
.L24:
	.loc 2 605 5
	bne	a1,zero,.L25
	li	a0,0
.LVL31:
	ret
.LVL32:
.L25:
	.loc 2 607 9 is_stmt 1
	.loc 2 608 9
	.loc 2 608 24 is_stmt 0
	addi	a3,a1,-1
	add	a4,a0,a3
	.loc 2 608 30
	lbu	a4,0(a4)
	snez	a4,a4
	.loc 2 608 14
	or	a4,a4,a5
.LVL33:
	.loc 2 609 9 is_stmt 1
	.loc 2 609 33 is_stmt 0
	xor	a5,a5,a4
.LVL34:
	.loc 2 609 24
	mul	a5,a5,a1
	.loc 2 609 19
	lw	a1,0(a2)
.LVL35:
	or	a5,a1,a5
	sw	a5,0(a2)
.LVL36:
	.loc 2 605 33
	mv	a1,a3
	.loc 2 608 14
	mv	a5,a4
	j	.L24
.LVL37:
.L27:
.LBE6:
.LBE5:
	.loc 2 602 15
	li	a0,-24576
.LVL38:
	addi	a0,a0,-256
	.loc 2 613 1
	ret
	.cfi_endproc
.LFE28:
	.size	get_zeros_padding, .-get_zeros_padding
	.section	.text.mbedtls_cipher_list,"ax",@progbits
	.align	1
	.globl	mbedtls_cipher_list
	.type	mbedtls_cipher_list, @function
mbedtls_cipher_list:
.LFB13:
	.loc 2 75 1 is_stmt 1
	.cfi_startproc
	.loc 2 76 5
	.loc 2 77 5
	.loc 2 79 5
	.loc 2 79 9 is_stmt 0
	lui	a5,%hi(.LANCHOR0)
	.loc 2 79 7
	lw	a3,%lo(.LANCHOR0)(a5)
	addi	a4,a5,%lo(.LANCHOR0)
	lui	a0,%hi(mbedtls_cipher_supported)
	beq	a3,zero,.L32
.L30:
	.loc 2 92 5 is_stmt 1
	.loc 2 93 1 is_stmt 0
	addi	a0,a0,%lo(mbedtls_cipher_supported)
	ret
.LVL39:
.L31:
	.loc 2 85 13 is_stmt 1
	.loc 2 85 18 is_stmt 0
	addi	a3,a3,4
.LVL40:
	.loc 2 85 28
	addi	a5,a5,8
.LVL41:
	.loc 2 85 31
	sw	a2,-4(a3)
.LVL42:
.L29:
	.loc 2 84 19
	lbu	a2,0(a5)
	.loc 2 84 14
	bne	a2,zero,.L31
	.loc 2 87 9 is_stmt 1
	.loc 2 89 24 is_stmt 0
	li	a5,1
.LVL43:
	.loc 2 87 15
	sw	zero,0(a3)
	.loc 2 89 9 is_stmt 1
	.loc 2 89 24 is_stmt 0
	sw	a5,0(a4)
	j	.L30
.LVL44:
.L32:
	.loc 2 81 13
	lui	a5,%hi(mbedtls_cipher_definitions)
	.loc 2 82 14
	addi	a3,a0,%lo(mbedtls_cipher_supported)
	.loc 2 81 13
	addi	a5,a5,%lo(mbedtls_cipher_definitions)
	j	.L29
	.cfi_endproc
.LFE13:
	.size	mbedtls_cipher_list, .-mbedtls_cipher_list
	.section	.text.mbedtls_cipher_info_from_type,"ax",@progbits
	.align	1
	.globl	mbedtls_cipher_info_from_type
	.type	mbedtls_cipher_info_from_type, @function
mbedtls_cipher_info_from_type:
.LFB14:
	.loc 2 96 1 is_stmt 1
	.cfi_startproc
.LVL45:
	.loc 2 97 5
	.loc 2 99 5
	.loc 2 99 14 is_stmt 0
	lui	a5,%hi(mbedtls_cipher_definitions)
	addi	a5,a5,%lo(mbedtls_cipher_definitions)
.LVL46:
.L34:
	.loc 2 99 47 discriminator 1
	lw	a4,4(a5)
	.loc 2 99 5 discriminator 1
	bne	a4,zero,.L36
.L33:
	.loc 2 104 1
	mv	a0,a4
.LVL47:
	ret
.LVL48:
.L36:
	.loc 2 100 9 is_stmt 1
	.loc 2 100 11 is_stmt 0
	lbu	a3,0(a5)
	beq	a3,a0,.L33
	.loc 2 99 65 discriminator 2
	addi	a5,a5,8
.LVL49:
	j	.L34
	.cfi_endproc
.LFE14:
	.size	mbedtls_cipher_info_from_type, .-mbedtls_cipher_info_from_type
	.section	.text.mbedtls_cipher_info_from_string,"ax",@progbits
	.align	1
	.globl	mbedtls_cipher_info_from_string
	.type	mbedtls_cipher_info_from_string, @function
mbedtls_cipher_info_from_string:
.LFB15:
	.loc 2 107 1 is_stmt 1
	.cfi_startproc
.LVL50:
	.loc 2 108 5
	.loc 2 110 5
	.loc 2 110 7 is_stmt 0
	bne	a0,zero,.L43
	.loc 2 111 15
	li	a0,0
.LVL51:
	.loc 2 118 1
	ret
.LVL52:
.L41:
	.cfi_def_cfa_offset 16
	.cfi_offset 1, -4
	.cfi_offset 8, -8
	.cfi_offset 9, -12
	.loc 2 114 9 is_stmt 1
	.loc 2 114 15 is_stmt 0
	lw	a0,8(a5)
	mv	a1,s1
	call	strcmp
.LVL53:
	.loc 2 114 11
	bne	a0,zero,.L40
	.loc 2 115 13 is_stmt 1
	.loc 2 115 24 is_stmt 0
	lw	a0,4(s0)
	j	.L37
.L40:
	.loc 2 113 65 discriminator 2
	addi	s0,s0,8
.LVL54:
.L38:
	.loc 2 113 47 discriminator 1
	lw	a5,4(s0)
	.loc 2 113 5 discriminator 1
	bne	a5,zero,.L41
	.loc 2 111 15
	li	a0,0
.L37:
	.loc 2 118 1
	lw	ra,12(sp)
	.cfi_restore 1
	lw	s0,8(sp)
	.cfi_restore 8
.LVL55:
	lw	s1,4(sp)
	.cfi_restore 9
.LVL56:
	addi	sp,sp,16
	.cfi_def_cfa_offset 0
	jr	ra
.LVL57:
.L43:
	.loc 2 107 1
	addi	sp,sp,-16
	.cfi_def_cfa_offset 16
	sw	s0,8(sp)
	.cfi_offset 8, -8
	.loc 2 113 14
	lui	s0,%hi(mbedtls_cipher_definitions)
	.loc 2 107 1
	sw	s1,4(sp)
	sw	ra,12(sp)
	.cfi_offset 9, -12
	.cfi_offset 1, -4
	mv	s1,a0
	.loc 2 113 14
	addi	s0,s0,%lo(mbedtls_cipher_definitions)
	j	.L38
	.cfi_endproc
.LFE15:
	.size	mbedtls_cipher_info_from_string, .-mbedtls_cipher_info_from_string
	.section	.text.mbedtls_cipher_info_from_values,"ax",@progbits
	.align	1
	.globl	mbedtls_cipher_info_from_values
	.type	mbedtls_cipher_info_from_values, @function
mbedtls_cipher_info_from_values:
.LFB16:
	.loc 2 123 1 is_stmt 1
	.cfi_startproc
.LVL58:
	.loc 2 124 5
	.loc 2 126 5
	.loc 2 126 14 is_stmt 0
	lui	a4,%hi(mbedtls_cipher_definitions)
	addi	a4,a4,%lo(mbedtls_cipher_definitions)
.LVL59:
.L48:
	.loc 2 126 47 discriminator 1
	lw	a5,4(a4)
	.loc 2 126 5 discriminator 1
	bne	a5,zero,.L51
.L47:
	.loc 2 133 1
	mv	a0,a5
.LVL60:
	ret
.LVL61:
.L51:
	.loc 2 127 9 is_stmt 1
	.loc 2 127 28 is_stmt 0
	lw	a3,24(a5)
	.loc 2 127 11
	lbu	a3,0(a3)
	bne	a3,a0,.L49
	.loc 2 127 50 discriminator 1
	lw	a3,4(a5)
	bne	a3,a1,.L49
	.loc 2 128 60
	lbu	a3,1(a5)
	beq	a3,a2,.L47
.L49:
	.loc 2 126 65 discriminator 2
	addi	a4,a4,8
.LVL62:
	j	.L48
	.cfi_endproc
.LFE16:
	.size	mbedtls_cipher_info_from_values, .-mbedtls_cipher_info_from_values
	.section	.text.mbedtls_cipher_init,"ax",@progbits
	.align	1
	.globl	mbedtls_cipher_init
	.type	mbedtls_cipher_init, @function
mbedtls_cipher_init:
.LFB17:
	.loc 2 136 1 is_stmt 1
	.cfi_startproc
.LVL63:
	.loc 2 137 5
	li	a2,64
	li	a1,0
	tail	memset
.LVL64:
	.cfi_endproc
.LFE17:
	.size	mbedtls_cipher_init, .-mbedtls_cipher_init
	.section	.text.mbedtls_cipher_free,"ax",@progbits
	.align	1
	.globl	mbedtls_cipher_free
	.type	mbedtls_cipher_free, @function
mbedtls_cipher_free:
.LFB18:
	.loc 2 141 1
	.cfi_startproc
.LVL65:
	.loc 2 142 5
	.loc 2 142 7 is_stmt 0
	beq	a0,zero,.L63
	.loc 2 141 1
	addi	sp,sp,-16
	.cfi_def_cfa_offset 16
	sw	s0,8(sp)
	sw	ra,12(sp)
	.cfi_offset 8, -8
	.cfi_offset 1, -4
	mv	s0,a0
	.loc 2 153 5 is_stmt 1
	.loc 2 153 12 is_stmt 0
	lw	a0,60(a0)
.LVL66:
	.loc 2 153 7
	beq	a0,zero,.L55
	.loc 2 154 9 is_stmt 1
	.loc 2 154 25 is_stmt 0
	lw	a5,0(s0)
	.loc 2 154 31
	lw	a5,24(a5)
	.loc 2 154 9
	lw	a5,32(a5)
	jalr	a5
.LVL67:
.L55:
	addi	a5,s0,64
.LVL68:
.L56:
.LBB9:
.LBB10:
	.loc 2 69 57
	bne	s0,a5,.L57
.LBE10:
.LBE9:
	.loc 2 157 1
	lw	ra,12(sp)
	.cfi_remember_state
	.cfi_restore 1
	lw	s0,8(sp)
	.cfi_restore 8
.LVL69:
	addi	sp,sp,16
	.cfi_def_cfa_offset 0
	jr	ra
.LVL70:
.L57:
	.cfi_restore_state
.LBB12:
.LBB11:
	.loc 2 69 65 is_stmt 1
	.loc 2 69 70 is_stmt 0
	sb	zero,0(s0)
	.loc 2 69 67
	addi	s0,s0,1
.LVL71:
	j	.L56
.LVL72:
.L63:
	.cfi_def_cfa_offset 0
	.cfi_restore 1
	.cfi_restore 8
	ret
.LBE11:
.LBE12:
	.cfi_endproc
.LFE18:
	.size	mbedtls_cipher_free, .-mbedtls_cipher_free
	.section	.text.mbedtls_cipher_setkey,"ax",@progbits
	.align	1
	.globl	mbedtls_cipher_setkey
	.type	mbedtls_cipher_setkey, @function
mbedtls_cipher_setkey:
.LFB20:
	.loc 2 187 1 is_stmt 1
	.cfi_startproc
.LVL73:
	.loc 2 188 5
	.loc 2 188 7 is_stmt 0
	beq	a0,zero,.L68
	.loc 2 188 34 discriminator 1
	lw	a5,0(a0)
	.loc 2 188 20 discriminator 1
	beq	a5,zero,.L68
	.loc 2 191 5 is_stmt 1
	.loc 2 191 35 is_stmt 0
	lw	a4,16(a5)
	andi	a4,a4,2
	.loc 2 191 7
	bne	a4,zero,.L70
	.loc 2 191 49 discriminator 1
	lw	a4,4(a5)
	bne	a4,a2,.L68
.L70:
	.loc 2 197 5 is_stmt 1
	.loc 2 197 21 is_stmt 0
	sw	a2,4(a0)
	.loc 2 198 5 is_stmt 1
	.loc 2 198 20 is_stmt 0
	sb	a3,8(a0)
	.loc 2 203 5 is_stmt 1
	.loc 2 203 7 is_stmt 0
	li	a4,1
	beq	a3,a4,.L71
	.loc 2 203 38 discriminator 1
	lbu	a4,1(a5)
	addi	a4,a4,-3
	andi	a4,a4,253
	bne	a4,zero,.L72
.L71:
	.loc 2 207 9 is_stmt 1
	.loc 2 207 38 is_stmt 0
	lw	a5,24(a5)
	.loc 2 207 16
	lw	t1,20(a5)
.L76:
	.loc 2 212 16
	lw	a0,60(a0)
.LVL74:
	jr	t1
.LVL75:
.L72:
	.loc 2 211 5 is_stmt 1
	.loc 2 211 7 is_stmt 0
	bne	a3,zero,.L68
	.loc 2 212 9 is_stmt 1
	.loc 2 212 38 is_stmt 0
	lw	a5,24(a5)
	.loc 2 212 16
	lw	t1,24(a5)
	j	.L76
.L68:
	.loc 2 216 1
	li	a0,-24576
.LVL76:
	addi	a0,a0,-256
	ret
	.cfi_endproc
.LFE20:
	.size	mbedtls_cipher_setkey, .-mbedtls_cipher_setkey
	.section	.text.mbedtls_cipher_set_iv,"ax",@progbits
	.align	1
	.globl	mbedtls_cipher_set_iv
	.type	mbedtls_cipher_set_iv, @function
mbedtls_cipher_set_iv:
.LFB21:
	.loc 2 220 1 is_stmt 1
	.cfi_startproc
.LVL77:
	.loc 2 221 5
	.loc 2 223 5
	.loc 2 223 7 is_stmt 0
	beq	a0,zero,.L80
	.loc 2 220 1 discriminator 1
	addi	sp,sp,-16
	.cfi_def_cfa_offset 16
	sw	s1,4(sp)
	sw	ra,12(sp)
	sw	s0,8(sp)
	.cfi_offset 9, -12
	.cfi_offset 1, -4
	.cfi_offset 8, -8
	.loc 2 223 34 discriminator 1
	lw	a5,0(a0)
	mv	s1,a0
	.loc 2 223 20 discriminator 1
	beq	a5,zero,.L84
	.loc 2 223 48 discriminator 2
	beq	a1,zero,.L84
	.loc 2 227 7
	li	a4,16
	mv	s0,a2
	.loc 2 227 5 is_stmt 1
	.loc 2 227 7 is_stmt 0
	bgtu	a2,a4,.L83
	.loc 2 230 5 is_stmt 1
	.loc 2 230 35 is_stmt 0
	lw	a4,16(a5)
	andi	a4,a4,1
	.loc 2 230 7
	bne	a4,zero,.L79
	.loc 2 234 9 is_stmt 1
	.loc 2 234 24 is_stmt 0
	lw	a5,12(a5)
.LVL78:
	.loc 2 237 9 is_stmt 1
	.loc 2 237 11 is_stmt 0
	bltu	a2,a5,.L84
	mv	s0,a5
.LVL79:
.L79:
	.loc 2 241 5 is_stmt 1
	mv	a2,s0
.LVL80:
	addi	a0,s1,40
.LVL81:
	call	memcpy
.LVL82:
	.loc 2 242 5
	.loc 2 244 11 is_stmt 0
	li	a0,0
	.loc 2 242 18
	sw	s0,56(s1)
	.loc 2 244 5 is_stmt 1
.LVL83:
.L77:
	.loc 2 245 1 is_stmt 0
	lw	ra,12(sp)
	.cfi_restore 1
	lw	s0,8(sp)
	.cfi_restore 8
	lw	s1,4(sp)
	.cfi_restore 9
.LVL84:
	addi	sp,sp,16
	.cfi_def_cfa_offset 0
	jr	ra
.LVL85:
.L80:
	.loc 2 224 15
	li	a0,-24576
.LVL86:
	addi	a0,a0,-256
	.loc 2 245 1
	ret
.LVL87:
.L83:
	.cfi_def_cfa_offset 16
	.cfi_offset 1, -4
	.cfi_offset 8, -8
	.cfi_offset 9, -12
	.loc 2 228 15
	li	a0,-24576
	addi	a0,a0,-128
	j	.L77
.LVL88:
.L84:
	.loc 2 224 15
	li	a0,-24576
	addi	a0,a0,-256
	j	.L77
	.cfi_endproc
.LFE21:
	.size	mbedtls_cipher_set_iv, .-mbedtls_cipher_set_iv
	.section	.text.mbedtls_cipher_reset,"ax",@progbits
	.align	1
	.globl	mbedtls_cipher_reset
	.type	mbedtls_cipher_reset, @function
mbedtls_cipher_reset:
.LFB22:
	.loc 2 248 1 is_stmt 1
	.cfi_startproc
.LVL89:
	.loc 2 249 5
	.loc 2 249 7 is_stmt 0
	beq	a0,zero,.L92
	.loc 2 249 20 discriminator 1
	lw	a5,0(a0)
	beq	a5,zero,.L92
	.loc 2 252 5 is_stmt 1
	.loc 2 252 26 is_stmt 0
	sw	zero,36(a0)
	.loc 2 258 5 is_stmt 1
	.loc 2 258 11 is_stmt 0
	li	a0,0
.LVL90:
	ret
.LVL91:
.L92:
	.loc 2 250 15
	li	a0,-24576
.LVL92:
	addi	a0,a0,-256
	.loc 2 259 1
	ret
	.cfi_endproc
.LFE22:
	.size	mbedtls_cipher_reset, .-mbedtls_cipher_reset
	.section	.text.mbedtls_cipher_update_ad,"ax",@progbits
	.align	1
	.globl	mbedtls_cipher_update_ad
	.type	mbedtls_cipher_update_ad, @function
mbedtls_cipher_update_ad:
.LFB23:
	.loc 2 264 1 is_stmt 1
	.cfi_startproc
.LVL93:
	.loc 2 265 5
	.loc 2 264 1 is_stmt 0
	mv	a4,a1
	mv	a5,a2
	.loc 2 265 7
	beq	a0,zero,.L96
	.loc 2 265 34 discriminator 1
	lw	a3,0(a0)
	.loc 2 265 20 discriminator 1
	beq	a3,zero,.L96
	.loc 2 268 5 is_stmt 1
	.loc 2 268 7 is_stmt 0
	lbu	a1,1(a3)
.LVL94:
	li	a2,6
.LVL95:
	.loc 2 274 11
	li	a3,0
	.loc 2 268 7
	bne	a1,a2,.L93
	.loc 2 270 9 is_stmt 1
	.loc 2 270 16 is_stmt 0
	lw	a3,56(a0)
	addi	a2,a0,40
	lb	a1,8(a0)
	lw	a0,60(a0)
.LVL96:
	tail	mbedtls_gcm_starts
.LVL97:
.L96:
	.loc 2 266 15
	li	a3,-24576
	addi	a3,a3,-256
.LVL98:
.L93:
	.loc 2 275 1
	mv	a0,a3
.LVL99:
	ret
	.cfi_endproc
.LFE23:
	.size	mbedtls_cipher_update_ad, .-mbedtls_cipher_update_ad
	.section	.text.mbedtls_cipher_update,"ax",@progbits
	.align	1
	.globl	mbedtls_cipher_update
	.type	mbedtls_cipher_update, @function
mbedtls_cipher_update:
.LFB24:
	.loc 2 280 1 is_stmt 1
	.cfi_startproc
.LVL100:
	.loc 2 281 5
	.loc 2 282 5
	.loc 2 284 5
	.loc 2 284 7 is_stmt 0
	bne	a0,zero,.L99
	.loc 2 286 15
	li	a0,-24576
.LVL101:
	addi	a0,a0,-256
	.loc 2 460 1
	ret
.LVL102:
.L101:
	.cfi_def_cfa_offset 48
	.cfi_offset 1, -4
	.cfi_offset 8, -8
	.cfi_offset 9, -12
	.cfi_offset 18, -16
	.cfi_offset 19, -20
	.cfi_offset 20, -24
	.cfi_offset 21, -28
	.cfi_offset 22, -32
	.cfi_offset 23, -36
	.loc 2 286 15
	li	a0,-24576
	addi	a0,a0,-256
.LVL103:
.L98:
	.loc 2 460 1
	lw	ra,44(sp)
	.cfi_restore 1
	lw	s0,40(sp)
	.cfi_restore 8
.LVL104:
	lw	s1,36(sp)
	.cfi_restore 9
	lw	s2,32(sp)
	.cfi_restore 18
	lw	s3,28(sp)
	.cfi_restore 19
	lw	s4,24(sp)
	.cfi_restore 20
	lw	s5,20(sp)
	.cfi_restore 21
	lw	s6,16(sp)
	.cfi_restore 22
	lw	s7,12(sp)
	.cfi_restore 23
	addi	sp,sp,48
	.cfi_def_cfa_offset 0
	jr	ra
.LVL105:
.L99:
	.loc 2 280 1 discriminator 1
	addi	sp,sp,-48
	.cfi_def_cfa_offset 48
	sw	s0,40(sp)
	sw	ra,44(sp)
	sw	s1,36(sp)
	sw	s2,32(sp)
	sw	s3,28(sp)
	sw	s4,24(sp)
	sw	s5,20(sp)
	sw	s6,16(sp)
	sw	s7,12(sp)
	.cfi_offset 8, -8
	.cfi_offset 1, -4
	.cfi_offset 9, -12
	.cfi_offset 18, -16
	.cfi_offset 19, -20
	.cfi_offset 20, -24
	.cfi_offset 21, -28
	.cfi_offset 22, -32
	.cfi_offset 23, -36
	.loc 2 284 20 discriminator 1
	lw	a5,0(a0)
	mv	s0,a0
	beq	a5,zero,.L101
.LVL106:
	mv	s5,a4
	.loc 2 284 48 discriminator 2
	beq	a4,zero,.L101
	.loc 2 289 11
	sw	zero,0(a4)
	mv	s6,a3
	.loc 2 289 5 is_stmt 1
	.loc 2 290 5
	mv	s4,a1
	mv	s1,a2
	.loc 2 290 18 is_stmt 0
	call	mbedtls_cipher_get_block_size
.LVL107:
	.loc 2 292 12
	lw	a4,0(s0)
	.loc 2 292 7
	li	a3,1
	.loc 2 290 18
	mv	s2,a0
.LVL108:
	.loc 2 292 5 is_stmt 1
	.loc 2 292 25 is_stmt 0
	lbu	a5,1(a4)
	.loc 2 292 7
	bne	a5,a3,.L102
	.loc 2 294 9 is_stmt 1
	.loc 2 294 11 is_stmt 0
	bne	a0,s1,.L114
	.loc 2 297 9 is_stmt 1
	.loc 2 297 15 is_stmt 0
	sw	a0,0(s5)
	.loc 2 299 9 is_stmt 1
	.loc 2 299 42 is_stmt 0
	lw	a5,0(s0)
	.loc 2 299 26
	lb	a1,8(s0)
	lw	a0,60(s0)
.LVL109:
	.loc 2 299 48
	lw	a5,24(a5)
	.loc 2 460 1
	lw	s0,40(sp)
	.cfi_remember_state
	.cfi_restore 8
.LVL110:
	lw	ra,44(sp)
	.cfi_restore 1
	lw	s1,36(sp)
	.cfi_restore 9
.LVL111:
	lw	s2,32(sp)
	.cfi_restore 18
.LVL112:
	lw	s3,28(sp)
	.cfi_restore 19
	lw	s5,20(sp)
	.cfi_restore 21
.LVL113:
	lw	s7,12(sp)
	.cfi_restore 23
	.loc 2 299 26
	lw	t1,4(a5)
	mv	a3,s6
	mv	a2,s4
	.loc 2 460 1
	lw	s6,16(sp)
	.cfi_restore 22
.LVL114:
	lw	s4,24(sp)
	.cfi_restore 20
.LVL115:
	addi	sp,sp,48
	.cfi_def_cfa_offset 0
	.loc 2 299 26
	jr	t1
.LVL116:
.L102:
	.cfi_restore_state
	.loc 2 309 5 is_stmt 1
	.loc 2 309 7 is_stmt 0
	li	a3,6
	bne	a5,a3,.L103
	.loc 2 311 9 is_stmt 1
	.loc 2 311 15 is_stmt 0
	sw	s1,0(s5)
	.loc 2 312 9 is_stmt 1
	.loc 2 312 16 is_stmt 0
	lw	a0,60(s0)
.LVL117:
	.loc 2 460 1
	lw	s0,40(sp)
	.cfi_remember_state
	.cfi_restore 8
.LVL118:
	lw	ra,44(sp)
	.cfi_restore 1
	lw	s2,32(sp)
	.cfi_restore 18
.LVL119:
	lw	s3,28(sp)
	.cfi_restore 19
	lw	s5,20(sp)
	.cfi_restore 21
.LVL120:
	lw	s7,12(sp)
	.cfi_restore 23
	.loc 2 312 16
	mv	a3,s6
	mv	a2,s4
	.loc 2 460 1
	lw	s6,16(sp)
	.cfi_restore 22
.LVL121:
	lw	s4,24(sp)
	.cfi_restore 20
.LVL122:
	.loc 2 312 16
	mv	a1,s1
	.loc 2 460 1
	lw	s1,36(sp)
	.cfi_restore 9
.LVL123:
	addi	sp,sp,48
	.cfi_def_cfa_offset 0
	.loc 2 312 16
	tail	mbedtls_gcm_update
.LVL124:
.L103:
	.cfi_restore_state
	.loc 2 317 5 is_stmt 1
	.loc 2 317 8 is_stmt 0
	beq	a0,zero,.L115
	.loc 2 322 5 is_stmt 1
	.loc 2 322 7 is_stmt 0
	bne	s4,s6,.L104
	.loc 2 322 25 discriminator 1
	lw	a3,36(s0)
	bne	a3,zero,.L101
	.loc 2 323 44
	remu	a3,s1,a0
	.loc 2 323 36
	bne	a3,zero,.L101
.L104:
	.loc 2 329 5 is_stmt 1
	.loc 2 329 7 is_stmt 0
	li	a3,2
	bne	a5,a3,.L105
.LBB13:
	.loc 2 331 9 is_stmt 1
.LVL125:
	.loc 2 336 9
	.loc 2 336 18 is_stmt 0
	lb	a5,8(s0)
	lw	s3,36(s0)
	.loc 2 336 11
	bne	a5,zero,.L106
	.loc 2 337 36 discriminator 1
	sub	a5,s2,s3
	.loc 2 336 49 discriminator 1
	bltu	a5,s1,.L108
.L107:
	.loc 2 341 13 is_stmt 1
	.loc 2 341 21 is_stmt 0
	addi	a0,s3,20
.LVL126:
	.loc 2 341 13
	mv	a2,s1
	mv	a1,s4
	add	a0,s0,a0
	call	memcpy
.LVL127:
	.loc 2 344 13 is_stmt 1
	.loc 2 344 34 is_stmt 0
	lw	a5,36(s0)
	add	s1,a5,s1
.LVL128:
	sw	s1,36(s0)
	.loc 2 345 13 is_stmt 1
.LVL129:
.L112:
	.loc 2 408 15 is_stmt 0
	li	a0,0
	j	.L98
.LVL130:
.L106:
	.loc 2 337 61
	li	a4,1
	bne	a5,a4,.L108
	.loc 2 339 35
	sub	a5,s2,s3
	.loc 2 338 50
	bgtu	a5,s1,.L107
.L108:
	.loc 2 351 9 is_stmt 1
	.loc 2 351 11 is_stmt 0
	beq	s3,zero,.L109
	.loc 2 353 13 is_stmt 1
	.loc 2 353 22 is_stmt 0
	sub	s7,s2,s3
.LVL131:
	.loc 2 355 13 is_stmt 1
	.loc 2 355 21 is_stmt 0
	addi	a0,s3,20
.LVL132:
	.loc 2 355 13
	mv	a2,s7
	mv	a1,s4
	add	a0,s0,a0
	call	memcpy
.LVL133:
	.loc 2 358 13 is_stmt 1
	.loc 2 358 46 is_stmt 0
	lw	a5,0(s0)
	.loc 2 358 30
	lb	a1,8(s0)
	lw	a0,60(s0)
	.loc 2 358 52
	lw	a5,24(a5)
	.loc 2 358 30
	addi	a4,s0,20
	addi	a3,s0,40
	lw	a6,8(a5)
	mv	a2,s2
	mv	a5,s6
	jalr	a6
.LVL134:
	.loc 2 358 15
	bne	a0,zero,.L98
	.loc 2 365 13 is_stmt 1
	.loc 2 365 19 is_stmt 0
	lw	a5,0(s5)
	add	s1,s1,s3
.LVL135:
	.loc 2 366 20
	add	s6,s6,s2
.LVL136:
	.loc 2 365 19
	add	a5,a5,s2
	sw	a5,0(s5)
	.loc 2 366 13 is_stmt 1
.LVL137:
	.loc 2 367 13
	.loc 2 367 34 is_stmt 0
	sw	zero,36(s0)
	.loc 2 369 13 is_stmt 1
	.loc 2 369 19 is_stmt 0
	add	s4,s4,s7
.LVL138:
	.loc 2 370 13 is_stmt 1
	.loc 2 370 18 is_stmt 0
	sub	s1,s1,s2
.LVL139:
.L109:
	.loc 2 376 9 is_stmt 1
	.loc 2 376 11 is_stmt 0
	beq	s1,zero,.L112
	.loc 2 378 13 is_stmt 1
	.loc 2 383 13
	.loc 2 383 22 is_stmt 0
	remu	s3,s1,s2
.LVL140:
	.loc 2 384 13 is_stmt 1
	.loc 2 384 15 is_stmt 0
	bne	s3,zero,.L111
	.loc 2 384 31 discriminator 1
	lb	a5,8(s0)
	bne	a5,zero,.L111
.LVL141:
	.loc 2 384 31
	mv	s3,s2
.LVL142:
.L111:
	.loc 2 387 13 is_stmt 1
	.loc 2 387 58 is_stmt 0
	sub	s1,s1,s3
.LVL143:
	.loc 2 387 13
	mv	a2,s3
	add	a1,s4,s1
	addi	a0,s0,20
	call	memcpy
.LVL144:
	.loc 2 390 13 is_stmt 1
	.loc 2 390 34 is_stmt 0
	lw	a5,36(s0)
	add	s3,a5,s3
.LVL145:
	sw	s3,36(s0)
	.loc 2 391 13 is_stmt 1
.LVL146:
	.loc 2 397 9
	.loc 2 397 11 is_stmt 0
	beq	s1,zero,.L112
	.loc 2 399 13 is_stmt 1
	.loc 2 399 46 is_stmt 0
	lw	a5,0(s0)
	.loc 2 399 30
	lb	a1,8(s0)
	lw	a0,60(s0)
	.loc 2 399 52
	lw	a5,24(a5)
	.loc 2 399 30
	mv	a4,s4
	addi	a3,s0,40
	lw	a6,8(a5)
	mv	a2,s1
	mv	a5,s6
	jalr	a6
.LVL147:
	.loc 2 399 15
	bne	a0,zero,.L98
	.loc 2 405 13 is_stmt 1
	.loc 2 405 19 is_stmt 0
	lw	a5,0(s5)
	add	s1,a5,s1
.LVL148:
.L133:
.LBE13:
	.loc 2 438 9 is_stmt 1
	.loc 2 438 15 is_stmt 0
	sw	s1,0(s5)
	.loc 2 440 9 is_stmt 1
	.loc 2 440 15 is_stmt 0
	j	.L98
.LVL149:
.L105:
	.loc 2 413 5 is_stmt 1
	.loc 2 413 7 is_stmt 0
	li	a3,3
	bne	a5,a3,.L113
	.loc 2 415 9 is_stmt 1
	.loc 2 415 48 is_stmt 0
	lw	a5,24(a4)
	.loc 2 415 26
	lb	a1,8(s0)
	lw	a0,60(s0)
.LVL150:
	lw	a7,12(a5)
	mv	a6,s6
	mv	a5,s4
	addi	a4,s0,40
	addi	a3,s0,36
	mv	a2,s1
	jalr	a7
.LVL151:
.L134:
	.loc 2 431 11
	bne	a0,zero,.L98
	j	.L133
.LVL152:
.L113:
	.loc 2 429 5 is_stmt 1
	.loc 2 429 7 is_stmt 0
	li	a3,5
	bne	a5,a3,.L116
	.loc 2 431 9 is_stmt 1
	.loc 2 431 48 is_stmt 0
	lw	a5,24(a4)
	.loc 2 431 26
	lw	a0,60(s0)
.LVL153:
	mv	a6,s6
	lw	a7,16(a5)
	addi	a4,s0,20
	mv	a5,s4
	addi	a3,s0,40
	addi	a2,s0,36
	mv	a1,s1
	jalr	a7
.LVL154:
	j	.L134
.LVL155:
.L114:
	.loc 2 295 19
	li	a0,-24576
.LVL156:
	addi	a0,a0,-640
	j	.L98
.LVL157:
.L115:
	.loc 2 319 16
	li	a0,-24576
.LVL158:
	addi	a0,a0,-896
	j	.L98
.LVL159:
.L116:
	.loc 2 459 11
	li	a0,-24576
.LVL160:
	addi	a0,a0,-128
	j	.L98
	.cfi_endproc
.LFE24:
	.size	mbedtls_cipher_update, .-mbedtls_cipher_update
	.section	.text.mbedtls_cipher_finish,"ax",@progbits
	.align	1
	.globl	mbedtls_cipher_finish
	.type	mbedtls_cipher_finish, @function
mbedtls_cipher_finish:
.LFB30:
	.loc 2 636 1 is_stmt 1
	.cfi_startproc
.LVL161:
	.loc 2 637 5
	.loc 2 636 1 is_stmt 0
	addi	sp,sp,-32
	.cfi_def_cfa_offset 32
	sw	ra,28(sp)
	sw	s0,24(sp)
	sw	s1,20(sp)
	sw	s2,16(sp)
	sw	s3,12(sp)
	sw	s4,8(sp)
	.cfi_offset 1, -4
	.cfi_offset 8, -8
	.cfi_offset 9, -12
	.cfi_offset 18, -16
	.cfi_offset 19, -20
	.cfi_offset 20, -24
	.loc 2 637 7
	beq	a0,zero,.L146
	.loc 2 637 20 discriminator 1
	lw	a5,0(a0)
	mv	s1,a0
	beq	a5,zero,.L146
	.loc 2 637 48 discriminator 2
	beq	a2,zero,.L146
	.loc 2 640 5 is_stmt 1
	.loc 2 640 11 is_stmt 0
	sw	zero,0(a2)
	.loc 2 642 5 is_stmt 1
	.loc 2 642 32 is_stmt 0
	lw	a3,0(a0)
	.loc 2 642 7
	li	a5,3
	.loc 2 642 45
	lbu	a4,1(a3)
	.loc 2 642 7
	beq	a4,a5,.L148
	.loc 2 642 52 discriminator 1
	addi	a5,a4,-5
	andi	a5,a5,0xff
	li	a6,2
	bleu	a5,a6,.L148
	.loc 2 650 5 is_stmt 1
	.loc 2 650 7 is_stmt 0
	li	a5,1
	bne	a4,a5,.L137
	.loc 2 652 9 is_stmt 1
	.loc 2 652 11 is_stmt 0
	lw	a5,36(a0)
	.loc 2 647 15
	li	s0,0
	.loc 2 652 11
	beq	a5,zero,.L135
.LVL162:
.L153:
	.loc 2 653 19
	li	s0,-24576
	addi	s0,s0,-640
	j	.L135
.LVL163:
.L137:
	.loc 2 659 5 is_stmt 1
	.loc 2 659 7 is_stmt 0
	bne	a4,a6,.L150
.LBB19:
.LBB20:
	.loc 2 663 11
	lb	a4,8(a0)
	mv	s3,a2
	mv	s4,a1
.LVL164:
	.loc 2 661 9 is_stmt 1
	.loc 2 663 9
	lw	s2,36(a0)
	.loc 2 663 11 is_stmt 0
	bne	a4,a5,.L138
.LVL165:
	.loc 2 666 13 is_stmt 1
	.loc 2 666 27 is_stmt 0
	lw	a5,12(a0)
	.loc 2 666 15
	bne	a5,zero,.L139
	.loc 2 668 17 is_stmt 1
.LBE20:
.LBE19:
	.loc 2 647 15 is_stmt 0
	li	s0,0
.LBB31:
.LBB25:
	.loc 2 668 19
	bne	s2,zero,.L153
.LVL166:
.L135:
.LBE25:
.LBE31:
	.loc 2 711 1
	mv	a0,s0
	lw	ra,28(sp)
	.cfi_remember_state
	.cfi_restore 1
	lw	s0,24(sp)
	.cfi_restore 8
	lw	s1,20(sp)
	.cfi_restore 9
	lw	s2,16(sp)
	.cfi_restore 18
	lw	s3,12(sp)
	.cfi_restore 19
	lw	s4,8(sp)
	.cfi_restore 20
	addi	sp,sp,32
	.cfi_def_cfa_offset 0
	jr	ra
.LVL167:
.L139:
	.cfi_restore_state
.LBB32:
.LBB26:
	.loc 2 674 13 is_stmt 1
.LBB21:
.LBB22:
	.loc 1 379 12 is_stmt 0
	lw	a1,56(s1)
.LVL168:
.LBE22:
.LBE21:
	.loc 2 674 34
	addi	a0,a0,20
.LVL169:
.LBB24:
.LBB23:
	.loc 1 376 5 is_stmt 1
	.loc 1 379 5
	.loc 1 379 7 is_stmt 0
	bne	a1,zero,.L141
	.loc 1 382 5 is_stmt 1
	.loc 1 382 12 is_stmt 0
	lw	a1,12(a3)
.L141:
.LVL170:
.LBE23:
.LBE24:
	.loc 2 674 13
	mv	a2,s2
.LVL171:
	jalr	a5
.LVL172:
.L142:
	.loc 2 690 9 is_stmt 1
	.loc 2 690 26 is_stmt 0
	mv	a0,s1
	call	mbedtls_cipher_get_block_size
.LVL173:
	.loc 2 690 42
	lw	a5,0(s1)
	.loc 2 690 26
	mv	a2,a0
	lb	a1,8(s1)
	.loc 2 690 48
	lw	a5,24(a5)
	.loc 2 690 26
	lw	a0,60(s1)
	addi	a4,s1,20
	lw	a6,8(a5)
	addi	a3,s1,40
	mv	a5,s4
	jalr	a6
.LVL174:
	mv	s0,a0
.LVL175:
	.loc 2 690 11
	bne	a0,zero,.L135
	.loc 2 698 9 is_stmt 1
	mv	a0,s1
	call	mbedtls_cipher_get_block_size
.LVL176:
	.loc 2 698 11 is_stmt 0
	lb	a5,8(s1)
	mv	a1,a0
	bne	a5,zero,.L143
	.loc 2 699 13 is_stmt 1
.LBE26:
.LBE32:
	.loc 2 711 1 is_stmt 0
	lw	s0,24(sp)
	.cfi_remember_state
	.cfi_restore 8
.LVL177:
.LBB33:
.LBB27:
	.loc 2 699 20
	lw	t1,16(s1)
.LBE27:
.LBE33:
	.loc 2 711 1
	lw	ra,28(sp)
	.cfi_restore 1
	lw	s1,20(sp)
	.cfi_restore 9
.LVL178:
	lw	s2,16(sp)
	.cfi_restore 18
.LBB34:
.LBB28:
	.loc 2 699 20
	mv	a2,s3
	mv	a0,s4
.LBE28:
.LBE34:
	.loc 2 711 1
	lw	s3,12(sp)
	.cfi_restore 19
.LVL179:
	lw	s4,8(sp)
	.cfi_restore 20
.LVL180:
	addi	sp,sp,32
	.cfi_def_cfa_offset 0
.LBB35:
.LBB29:
	.loc 2 699 20
	jr	t1
.LVL181:
.L138:
	.cfi_restore_state
	.loc 2 677 14 is_stmt 1
	.loc 2 677 18 is_stmt 0
	call	mbedtls_cipher_get_block_size
.LVL182:
	.loc 2 677 16
	beq	a0,s2,.L142
	.loc 2 683 13 is_stmt 1
	.loc 2 683 15 is_stmt 0
	lw	a5,12(s1)
	bne	a5,zero,.L153
	.loc 2 683 41
	bne	s2,zero,.L153
.LVL183:
.L148:
.LBE29:
.LBE35:
	.loc 2 647 15
	li	s0,0
	j	.L135
.LVL184:
.L143:
.LBB36:
.LBB30:
	.loc 2 703 9 is_stmt 1
	.loc 2 703 15 is_stmt 0
	sw	a0,0(s3)
	.loc 2 704 9 is_stmt 1
	j	.L135
.LVL185:
.L146:
.LBE30:
.LBE36:
	.loc 2 638 15 is_stmt 0
	li	s0,-24576
	addi	s0,s0,-256
	j	.L135
.LVL186:
.L150:
	.loc 2 710 11
	li	s0,-24576
	addi	s0,s0,-128
	j	.L135
	.cfi_endproc
.LFE30:
	.size	mbedtls_cipher_finish, .-mbedtls_cipher_finish
	.section	.text.mbedtls_cipher_set_padding_mode,"ax",@progbits
	.align	1
	.globl	mbedtls_cipher_set_padding_mode
	.type	mbedtls_cipher_set_padding_mode, @function
mbedtls_cipher_set_padding_mode:
.LFB31:
	.loc 2 715 1 is_stmt 1
	.cfi_startproc
.LVL187:
	.loc 2 716 5
	.loc 2 716 7 is_stmt 0
	beq	a0,zero,.L162
	.loc 2 717 45 discriminator 1
	lw	a5,0(a0)
	.loc 2 716 20 discriminator 1
	lbu	a4,1(a5)
	li	a5,2
	bne	a4,a5,.L162
	.loc 2 722 5 is_stmt 1
	li	a5,3
	beq	a1,a5,.L159
	li	a5,4
	beq	a1,a5,.L160
	bne	a1,zero,.L163
	.loc 2 726 9
	.loc 2 726 26 is_stmt 0
	lui	a5,%hi(add_pkcs_padding)
	addi	a5,a5,%lo(add_pkcs_padding)
	sw	a5,12(a0)
	.loc 2 727 9 is_stmt 1
	.loc 2 727 26 is_stmt 0
	lui	a5,%hi(get_pkcs_padding)
	addi	a5,a5,%lo(get_pkcs_padding)
.L164:
	.loc 2 745 26
	sw	a5,16(a0)
	.loc 2 746 9 is_stmt 1
	.loc 2 757 11 is_stmt 0
	li	a0,0
.LVL188:
	.loc 2 746 9
	ret
.LVL189:
.L159:
	.loc 2 744 9 is_stmt 1
	.loc 2 744 26 is_stmt 0
	lui	a5,%hi(add_zeros_padding)
	addi	a5,a5,%lo(add_zeros_padding)
	sw	a5,12(a0)
	.loc 2 745 9 is_stmt 1
	.loc 2 745 26 is_stmt 0
	lui	a5,%hi(get_zeros_padding)
	addi	a5,a5,%lo(get_zeros_padding)
	j	.L164
.L160:
	.loc 2 749 9 is_stmt 1
	.loc 2 750 26 is_stmt 0
	lui	a5,%hi(get_no_padding)
	.loc 2 749 26
	sw	zero,12(a0)
	.loc 2 750 9 is_stmt 1
	.loc 2 750 26 is_stmt 0
	addi	a5,a5,%lo(get_no_padding)
	j	.L164
.L162:
	.loc 2 719 15
	li	a0,-24576
.LVL190:
	addi	a0,a0,-256
	ret
.LVL191:
.L163:
	.loc 2 754 15
	li	a0,-24576
.LVL192:
	addi	a0,a0,-128
	.loc 2 758 1
	ret
	.cfi_endproc
.LFE31:
	.size	mbedtls_cipher_set_padding_mode, .-mbedtls_cipher_set_padding_mode
	.section	.text.mbedtls_cipher_setup,"ax",@progbits
	.align	1
	.globl	mbedtls_cipher_setup
	.type	mbedtls_cipher_setup, @function
mbedtls_cipher_setup:
.LFB19:
	.loc 2 160 1 is_stmt 1
	.cfi_startproc
.LVL193:
	.loc 2 161 5
	.loc 2 161 7 is_stmt 0
	beq	a1,zero,.L167
	.loc 2 160 1 discriminator 1
	addi	sp,sp,-16
	.cfi_def_cfa_offset 16
	sw	s0,8(sp)
	sw	ra,12(sp)
	sw	s1,4(sp)
	.cfi_offset 8, -8
	.cfi_offset 1, -4
	.cfi_offset 9, -12
	mv	s0,a0
	.loc 2 161 28 discriminator 1
	beq	a0,zero,.L168
	mv	s1,a1
	.loc 2 164 5 is_stmt 1
	li	a2,64
	li	a1,0
.LVL194:
	call	memset
.LVL195:
	.loc 2 166 5
	.loc 2 166 53 is_stmt 0
	lw	a5,24(s1)
	.loc 2 166 36
	lw	a5,28(a5)
	jalr	a5
.LVL196:
	.loc 2 166 34
	sw	a0,60(s0)
	.loc 2 166 7
	beq	a0,zero,.L169
	.loc 2 169 5 is_stmt 1
	.loc 2 169 22 is_stmt 0
	sw	s1,0(s0)
	.loc 2 176 5 is_stmt 1
	.loc 2 176 12 is_stmt 0
	li	a1,0
	mv	a0,s0
	call	mbedtls_cipher_set_padding_mode
.LVL197:
	.loc 2 182 5 is_stmt 1
	.loc 2 182 11 is_stmt 0
	li	a0,0
.LVL198:
.L165:
	.loc 2 183 1
	lw	ra,12(sp)
	.cfi_restore 1
	lw	s0,8(sp)
	.cfi_restore 8
.LVL199:
	lw	s1,4(sp)
	.cfi_restore 9
	addi	sp,sp,16
	.cfi_def_cfa_offset 0
	jr	ra
.LVL200:
.L167:
	.loc 2 162 15
	li	a0,-24576
.LVL201:
	addi	a0,a0,-256
	.loc 2 183 1
	ret
.LVL202:
.L168:
	.cfi_def_cfa_offset 16
	.cfi_offset 1, -4
	.cfi_offset 8, -8
	.cfi_offset 9, -12
	.loc 2 162 15
	li	a0,-24576
	addi	a0,a0,-256
	j	.L165
.LVL203:
.L169:
	.loc 2 167 15
	li	a0,-24576
	addi	a0,a0,-384
	j	.L165
	.cfi_endproc
.LFE19:
	.size	mbedtls_cipher_setup, .-mbedtls_cipher_setup
	.section	.text.mbedtls_cipher_write_tag,"ax",@progbits
	.align	1
	.globl	mbedtls_cipher_write_tag
	.type	mbedtls_cipher_write_tag, @function
mbedtls_cipher_write_tag:
.LFB32:
	.loc 2 764 1 is_stmt 1
	.cfi_startproc
.LVL204:
	.loc 2 765 5
	.loc 2 765 7 is_stmt 0
	beq	a0,zero,.L179
	.loc 2 765 34 discriminator 1
	lw	a5,0(a0)
	.loc 2 765 20 discriminator 1
	beq	a5,zero,.L179
	.loc 2 765 48 discriminator 2
	beq	a1,zero,.L179
	.loc 2 768 5 is_stmt 1
	.loc 2 768 7 is_stmt 0
	lb	a3,8(a0)
	li	a4,1
	bne	a3,a4,.L179
	.loc 2 771 5 is_stmt 1
	.loc 2 771 7 is_stmt 0
	lbu	a3,1(a5)
	li	a4,6
	.loc 2 774 11
	li	a5,0
	.loc 2 771 7
	bne	a3,a4,.L174
	.loc 2 772 9 is_stmt 1
	.loc 2 772 16 is_stmt 0
	lw	a0,60(a0)
.LVL205:
	tail	mbedtls_gcm_finish
.LVL206:
.L179:
	.loc 2 766 15
	li	a5,-24576
	addi	a5,a5,-256
.L174:
	.loc 2 775 1
	mv	a0,a5
.LVL207:
	ret
	.cfi_endproc
.LFE32:
	.size	mbedtls_cipher_write_tag, .-mbedtls_cipher_write_tag
	.section	.text.mbedtls_cipher_check_tag,"ax",@progbits
	.align	1
	.globl	mbedtls_cipher_check_tag
	.type	mbedtls_cipher_check_tag, @function
mbedtls_cipher_check_tag:
.LFB33:
	.loc 2 779 1 is_stmt 1
	.cfi_startproc
.LVL208:
	.loc 2 780 5
	.loc 2 782 5
	.loc 2 782 7 is_stmt 0
	beq	a0,zero,.L188
	.loc 2 782 34 discriminator 1
	lw	a3,0(a0)
	mv	a5,a0
	.loc 2 782 20 discriminator 1
	beq	a3,zero,.L188
	.loc 2 782 48 discriminator 2
	lb	a0,8(a0)
.LVL209:
	bne	a0,zero,.L188
	.loc 2 788 5 is_stmt 1
	.loc 2 788 7 is_stmt 0
	lbu	a6,1(a3)
	li	a3,6
	bne	a6,a3,.L193
	.loc 2 779 1
	addi	sp,sp,-32
	.cfi_def_cfa_offset 32
	sw	s0,24(sp)
	sw	ra,28(sp)
	sw	s1,20(sp)
	.cfi_offset 8, -8
	.cfi_offset 1, -4
	.cfi_offset 9, -12
.LBB37:
	.loc 2 794 11
	li	a3,16
	mv	s0,a2
	.loc 2 790 9 is_stmt 1
	.loc 2 791 9
	.loc 2 792 9
	.loc 2 794 9
	.loc 2 794 11 is_stmt 0
	bgtu	a2,a3,.L190
	.loc 2 797 26
	lw	a0,60(a5)
	mv	s1,a1
	.loc 2 797 9 is_stmt 1
	.loc 2 797 26 is_stmt 0
	mv	a1,sp
.LVL210:
	call	mbedtls_gcm_finish
.LVL211:
	.loc 2 804 26
	li	a5,0
	.loc 2 797 11
	beq	a0,zero,.L184
.LVL212:
.L181:
.LBE37:
	.loc 2 814 1
	lw	ra,28(sp)
	.cfi_remember_state
	.cfi_restore 1
	lw	s0,24(sp)
	.cfi_restore 8
.LVL213:
	lw	s1,20(sp)
	.cfi_restore 9
	addi	sp,sp,32
	.cfi_def_cfa_offset 0
	jr	ra
.LVL214:
.L185:
	.cfi_restore_state
.LBB38:
	.loc 2 805 13 is_stmt 1 discriminator 3
	.loc 2 805 24 is_stmt 0 discriminator 3
	add	a4,s1,a5
	.loc 2 805 39 discriminator 3
	add	a3,sp,a5
	.loc 2 805 28 discriminator 3
	lbu	a4,0(a4)
	lbu	a3,0(a3)
	.loc 2 804 45 discriminator 3
	addi	a5,a5,1
.LVL215:
	.loc 2 805 28 discriminator 3
	xor	a4,a4,a3
	.loc 2 805 18 discriminator 3
	or	a0,a0,a4
.LVL216:
.L184:
	.loc 2 804 9 discriminator 1
	bne	a5,s0,.L185
	.loc 2 807 9 is_stmt 1
	.loc 2 807 11 is_stmt 0
	beq	a0,zero,.L181
	.loc 2 808 19
	li	a0,-24576
.LVL217:
	addi	a0,a0,-768
	j	.L181
.LVL218:
.L190:
	.loc 2 795 19
	li	a0,-24576
	addi	a0,a0,-256
	j	.L181
.LVL219:
.L188:
	.cfi_def_cfa_offset 0
	.cfi_restore 1
	.cfi_restore 8
	.cfi_restore 9
.LBE38:
	.loc 2 785 15
	li	a0,-24576
	addi	a0,a0,-256
	ret
.LVL220:
.L193:
	.loc 2 814 1
	ret
	.cfi_endproc
.LFE33:
	.size	mbedtls_cipher_check_tag, .-mbedtls_cipher_check_tag
	.section	.text.mbedtls_cipher_crypt,"ax",@progbits
	.align	1
	.globl	mbedtls_cipher_crypt
	.type	mbedtls_cipher_crypt, @function
mbedtls_cipher_crypt:
.LFB34:
	.loc 2 824 1 is_stmt 1
	.cfi_startproc
.LVL221:
	.loc 2 825 5
	.loc 2 826 5
	.loc 2 828 5
	.loc 2 824 1 is_stmt 0
	addi	sp,sp,-48
	.cfi_def_cfa_offset 48
	sw	s0,40(sp)
	sw	s1,36(sp)
	sw	s2,32(sp)
	sw	s3,28(sp)
	sw	s4,24(sp)
	sw	ra,44(sp)
	.cfi_offset 8, -8
	.cfi_offset 9, -12
	.cfi_offset 18, -16
	.cfi_offset 19, -20
	.cfi_offset 20, -24
	.cfi_offset 1, -4
	.loc 2 824 1
	mv	s1,a0
	mv	s3,a3
	mv	s4,a4
	mv	s2,a5
	mv	s0,a6
	.loc 2 828 17
	call	mbedtls_cipher_set_iv
.LVL222:
	.loc 2 828 7
	bne	a0,zero,.L196
	.loc 2 831 5 is_stmt 1
	.loc 2 831 17 is_stmt 0
	mv	a0,s1
.LVL223:
	call	mbedtls_cipher_reset
.LVL224:
	.loc 2 831 7
	bne	a0,zero,.L196
	.loc 2 834 5 is_stmt 1
	.loc 2 834 17 is_stmt 0
	mv	a4,s0
	mv	a3,s2
	mv	a2,s4
	mv	a1,s3
	mv	a0,s1
.LVL225:
	call	mbedtls_cipher_update
.LVL226:
	.loc 2 834 7
	bne	a0,zero,.L196
	.loc 2 837 5 is_stmt 1
	.loc 2 837 17 is_stmt 0
	lw	a1,0(s0)
	addi	a2,sp,12
	mv	a0,s1
.LVL227:
	add	a1,s2,a1
	call	mbedtls_cipher_finish
.LVL228:
	.loc 2 837 7
	bne	a0,zero,.L196
	.loc 2 840 5 is_stmt 1
	.loc 2 840 11 is_stmt 0
	lw	a5,0(s0)
	lw	a4,12(sp)
	add	a5,a5,a4
	sw	a5,0(s0)
	.loc 2 842 5 is_stmt 1
.L196:
	.loc 2 843 1 is_stmt 0
	lw	ra,44(sp)
	.cfi_restore 1
	lw	s0,40(sp)
	.cfi_restore 8
.LVL229:
	lw	s1,36(sp)
	.cfi_restore 9
.LVL230:
	lw	s2,32(sp)
	.cfi_restore 18
.LVL231:
	lw	s3,28(sp)
	.cfi_restore 19
.LVL232:
	lw	s4,24(sp)
	.cfi_restore 20
.LVL233:
	addi	sp,sp,48
	.cfi_def_cfa_offset 0
	jr	ra
	.cfi_endproc
.LFE34:
	.size	mbedtls_cipher_crypt, .-mbedtls_cipher_crypt
	.section	.text.mbedtls_cipher_auth_encrypt,"ax",@progbits
	.align	1
	.globl	mbedtls_cipher_auth_encrypt
	.type	mbedtls_cipher_auth_encrypt, @function
mbedtls_cipher_auth_encrypt:
.LFB35:
	.loc 2 855 1 is_stmt 1
	.cfi_startproc
.LVL234:
	.loc 2 857 5
	.loc 2 857 45 is_stmt 0
	lw	t5,0(a0)
	.loc 2 855 1
	mv	t1,a2
	lw	t4,0(sp)
	.loc 2 857 7
	lbu	t6,1(t5)
	li	t5,6
	.loc 2 855 1
	mv	a2,a6
.LVL235:
	lw	t3,4(sp)
	lw	a6,8(sp)
.LVL236:
	.loc 2 857 7
	bne	t6,t5,.L200
	.loc 2 859 9 is_stmt 1
	.loc 2 859 15 is_stmt 0
	sw	a2,0(t4)
	.loc 2 860 9 is_stmt 1
	.loc 2 860 17 is_stmt 0
	sw	a6,4(sp)
.LVL237:
	sw	a7,0(sp)
.LVL238:
	sw	t3,8(sp)
.LVL239:
	lw	a0,60(a0)
.LVL240:
	mv	a7,a5
.LVL241:
	mv	a6,a4
.LVL242:
	mv	a5,a3
.LVL243:
	mv	a4,t1
.LVL244:
	mv	a3,a1
.LVL245:
	li	a1,1
.LVL246:
	tail	mbedtls_gcm_crypt_and_tag
.LVL247:
.L200:
	.loc 2 876 1
	li	a0,-24576
.LVL248:
	addi	a0,a0,-128
	ret
	.cfi_endproc
.LFE35:
	.size	mbedtls_cipher_auth_encrypt, .-mbedtls_cipher_auth_encrypt
	.section	.text.mbedtls_cipher_auth_decrypt,"ax",@progbits
	.align	1
	.globl	mbedtls_cipher_auth_decrypt
	.type	mbedtls_cipher_auth_decrypt, @function
mbedtls_cipher_auth_decrypt:
.LFB36:
	.loc 2 887 1 is_stmt 1
	.cfi_startproc
.LVL249:
	.loc 2 889 5
	.loc 2 889 45 is_stmt 0
	lw	t1,0(a0)
	.loc 2 889 7
	lbu	t3,1(t1)
	li	t1,6
	bne	t3,t1,.L203
	.loc 2 887 1
	addi	sp,sp,-32
	.cfi_def_cfa_offset 32
	mv	t1,a6
	mv	a6,a5
.LVL250:
	mv	a5,a4
.LVL251:
	mv	a4,a3
.LVL252:
	mv	a3,a2
.LVL253:
	mv	a2,a1
.LVL254:
.LBB39:
	.loc 2 891 9 is_stmt 1
	.loc 2 893 9
	.loc 2 893 15 is_stmt 0
	lw	a1,32(sp)
.LVL255:
.LBE39:
	.loc 2 887 1
	sw	ra,28(sp)
	.cfi_offset 1, -4
.LBB40:
	.loc 2 893 15
	sw	t1,0(a1)
	.loc 2 894 9 is_stmt 1
	.loc 2 894 15 is_stmt 0
	sw	a7,4(sp)
	sw	a6,0(sp)
	lw	a7,40(sp)
.LVL256:
	lw	a6,36(sp)
.LVL257:
	lw	a0,60(a0)
.LVL258:
	mv	a1,t1
	call	mbedtls_gcm_auth_decrypt
.LVL259:
	.loc 2 898 9 is_stmt 1
	.loc 2 898 11 is_stmt 0
	li	a5,-18
	bne	a0,a5,.L201
	.loc 2 899 17
	li	a0,-24576
.LVL260:
	addi	a0,a0,-768
.L201:
.LBE40:
	.loc 2 922 1
	lw	ra,28(sp)
	.cfi_restore 1
	addi	sp,sp,32
	.cfi_def_cfa_offset 0
.LVL261:
	jr	ra
.LVL262:
.L203:
	.loc 2 921 11
	li	a0,-24576
.LVL263:
	addi	a0,a0,-128
	.loc 2 922 1
	ret
	.cfi_endproc
.LFE36:
	.size	mbedtls_cipher_auth_decrypt, .-mbedtls_cipher_auth_decrypt
	.section	.sbss.supported_init,"aw",@nobits
	.align	2
	.set	.LANCHOR0,. + 0
	.type	supported_init, @object
	.size	supported_init, 4
supported_init:
	.zero	4
	.text
.Letext0:
	.file 3 "/home/hogc/build-tools/sdk/bl/bl_iot_sdk/toolchain/riscv/Linux/lib/gcc/riscv64-unknown-elf/8.3.0/include/stddef.h"
	.file 4 "/home/hogc/build-tools/sdk/bl/bl_iot_sdk/components/security/mbedtls/include/mbedtls/cipher_internal.h"
	.file 5 "/home/hogc/build-tools/sdk/bl/bl_iot_sdk/toolchain/riscv/Linux/riscv64-unknown-elf/include/sys/_types.h"
	.file 6 "/home/hogc/build-tools/sdk/bl/bl_iot_sdk/toolchain/riscv/Linux/riscv64-unknown-elf/include/sys/reent.h"
	.file 7 "/home/hogc/build-tools/sdk/bl/bl_iot_sdk/toolchain/riscv/Linux/riscv64-unknown-elf/include/sys/lock.h"
	.file 8 "/home/hogc/build-tools/sdk/bl/bl_iot_sdk/toolchain/riscv/Linux/riscv64-unknown-elf/include/stdlib.h"
	.file 9 "/home/hogc/build-tools/sdk/bl/bl_iot_sdk/toolchain/riscv/Linux/lib/gcc/riscv64-unknown-elf/8.3.0/include/stdint-gcc.h"
	.file 10 "/home/hogc/build-tools/sdk/bl/bl_iot_sdk/components/security/mbedtls/include/mbedtls/gcm.h"
	.file 11 "/home/hogc/build-tools/sdk/bl/bl_iot_sdk/toolchain/riscv/Linux/riscv64-unknown-elf/include/time.h"
	.file 12 "/home/hogc/build-tools/sdk/bl/bl_iot_sdk/components/bl602/freertos_riscv_ram/portable/GCC/RISC-V/portmacro.h"
	.file 13 "/home/hogc/build-tools/sdk/bl/bl_iot_sdk/toolchain/riscv/Linux/riscv64-unknown-elf/include/string.h"