	.file	"ssl_tls.c"
	.option nopic
	.attribute arch, "rv32i2p0_m2p0_f2p0_c2p0"
	.attribute unaligned_access, 0
	.attribute stack_align, 16
	.text
.Ltext0:
	.cfi_sections	.debug_frame
	.section	.text.mbedtls_zeroize,"ax",@progbits
	.align	1
	.type	mbedtls_zeroize, @function
mbedtls_zeroize:
.LFB20:
	.file 1 "/home/hogc/build-tools/sdk/bl/bl_iot_sdk/components/security/mbedtls/src/ssl_tls.c"
	.loc 1 57 50
	.cfi_startproc
.LVL0:
	.loc 1 58 5
	.loc 1 58 36
	add	a1,a0,a1
.LVL1:
.L2:
	.loc 1 58 41 is_stmt 0 discriminator 1
	bne	a0,a1,.L3
	.loc 1 59 1
	ret
.L3:
	.loc 1 58 49 is_stmt 1 discriminator 3
.LVL2:
	.loc 1 58 54 is_stmt 0 discriminator 3
	sb	zero,0(a0)
	.loc 1 58 51 discriminator 3
	addi	a0,a0,1
.LVL3:
	j	.L2
	.cfi_endproc
.LFE20:
	.size	mbedtls_zeroize, .-mbedtls_zeroize
	.section	.text.ssl_swap_epochs,"ax",@progbits
	.align	1
	.type	ssl_swap_epochs, @function
ssl_swap_epochs:
.LFB37:
	.loc 1 2564 1 is_stmt 1
	.cfi_startproc
.LVL4:
	.loc 1 2565 5
	.loc 1 2566 5
	.loc 1 2568 5
	.loc 1 2564 1 is_stmt 0
	addi	sp,sp,-32
	.cfi_def_cfa_offset 32
	sw	ra,28(sp)
	sw	s0,24(sp)
	.cfi_offset 1, -4
	.cfi_offset 8, -8
	.loc 1 2568 45
	lw	a5,48(a0)
	.loc 1 2568 7
	lw	a4,56(a0)
	lui	a2,%hi(.LC1)
	lw	a5,68(a5)
	bne	a4,a5,.L5
	.loc 1 2570 9 is_stmt 1
	lui	a4,%hi(.LC0)
	li	a3,4096
	addi	a4,a4,%lo(.LC0)
	addi	a3,a3,-1526
	addi	a2,a2,%lo(.LC1)
	li	a1,3
	call	mbedtls_debug_print_msg
.LVL5:
	.loc 1 2571 9
.L4:
	.loc 1 2606 1 is_stmt 0
	lw	ra,28(sp)
	.cfi_remember_state
	.cfi_restore 1
	lw	s0,24(sp)
	.cfi_restore 8
	addi	sp,sp,32
	.cfi_def_cfa_offset 0
	jr	ra
.LVL6:
.L5:
	.cfi_restore_state
	.loc 1 2574 5
	lui	a4,%hi(.LC2)
	li	a3,4096
	addi	a4,a4,%lo(.LC2)
	addi	a3,a3,-1522
	addi	a2,a2,%lo(.LC1)
	li	a1,3
	mv	s0,a0
	.loc 1 2574 5 is_stmt 1
	call	mbedtls_debug_print_msg
.LVL7:
	.loc 1 2577 5
	.loc 1 2578 29 is_stmt 0
	lw	a5,48(s0)
	.loc 1 2577 19
	lw	a4,56(s0)
.LVL8:
	.loc 1 2578 5 is_stmt 1
	.loc 1 2582 5 is_stmt 0
	li	a2,8
	.loc 1 2578 40
	lw	a3,68(a5)
	.loc 1 2582 5
	addi	a0,sp,8
	.loc 1 2578 24
	sw	a3,56(s0)
	.loc 1 2579 5 is_stmt 1
	.loc 1 2579 39 is_stmt 0
	sw	a4,68(a5)
	.loc 1 2582 5 is_stmt 1
	lw	a1,144(s0)
	call	memcpy
.LVL9:
	.loc 1 2583 5
	.loc 1 2583 41 is_stmt 0
	lw	a1,48(s0)
	.loc 1 2583 5
	lw	a0,144(s0)
	li	a2,8
	addi	a1,a1,72
	call	memcpy
.LVL10:
	.loc 1 2584 5 is_stmt 1
	.loc 1 2584 27 is_stmt 0
	lw	a0,48(s0)
	.loc 1 2584 5
	li	a2,8
	addi	a1,sp,8
	addi	a0,a0,72
	call	memcpy
.LVL11:
	.loc 1 2587 5 is_stmt 1
	.loc 1 2587 12 is_stmt 0
	lw	a3,56(s0)
	lw	a5,156(s0)
	.loc 1 2587 7
	beq	a3,zero,.L8
	.loc 1 2587 35 discriminator 1
	lw	a2,12(s0)
	li	a4,1
	ble	a2,a4,.L8
	.loc 1 2590 9 is_stmt 1
	.loc 1 2590 64 is_stmt 0
	lw	a4,12(a3)
	lw	a3,16(a3)
	sub	a4,a4,a3
	add	a5,a5,a4
.L8:
	sw	a5,160(s0)
	j	.L4
	.cfi_endproc
.LFE37:
	.size	ssl_swap_epochs, .-ssl_swap_epochs
	.section	.text.ssl_calc_finished_tls_sha256,"ax",@progbits
	.align	1
	.type	ssl_calc_finished_tls_sha256, @function
ssl_calc_finished_tls_sha256:
.LFB62:
	.loc 1 4938 1 is_stmt 1
	.cfi_startproc
.LVL12:
	.loc 1 4939 5
	.loc 1 4940 5
	.loc 1 4941 5
	.loc 1 4942 5
	.loc 1 4944 5
	.loc 1 4938 1 is_stmt 0
	addi	sp,sp,-208
	.cfi_def_cfa_offset 208
	sw	s0,200(sp)
	sw	s3,188(sp)
	sw	s5,180(sp)
	sw	ra,204(sp)
	sw	s1,196(sp)
	sw	s2,192(sp)
	sw	s4,184(sp)
	.cfi_offset 8, -8
	.cfi_offset 19, -20
	.cfi_offset 21, -28
	.cfi_offset 1, -4
	.cfi_offset 9, -12
	.cfi_offset 18, -16
	.cfi_offset 20, -24
	.loc 1 4944 26
	lw	s1,44(a0)
.LVL13:
	.loc 1 4945 5 is_stmt 1
	.loc 1 4938 1 is_stmt 0
	mv	s0,a0
	mv	s3,a1
	mv	s5,a2
	.loc 1 4945 7
	bne	s1,zero,.L14
	.loc 1 4946 9 is_stmt 1
	.loc 1 4946 17 is_stmt 0
	lw	s1,40(a0)
.LVL14:
.L14:
	.loc 1 4948 5 is_stmt 1
	addi	a0,sp,60
.LVL15:
	call	mbedtls_sha256_init
.LVL16:
	.loc 1 4950 5
	li	s4,4096
	lui	s2,%hi(.LC1)
	lui	a4,%hi(.LC5)
	addi	a4,a4,%lo(.LC5)
	addi	a3,s4,854
	addi	a2,s2,%lo(.LC1)
	li	a1,2
	mv	a0,s0
	call	mbedtls_debug_print_msg
.LVL17:
	.loc 1 4952 5
	.loc 1 4952 36 is_stmt 0
	lw	a1,48(s0)
	.loc 1 4952 5
	addi	a0,sp,60
	addi	a1,a1,80
	call	mbedtls_sha256_clone
.LVL18:
	.loc 1 4961 5 is_stmt 1
	lui	a4,%hi(.LC6)
	li	a6,32
	addi	a5,sp,68
	addi	a4,a4,%lo(.LC6)
	addi	a3,s4,866
	addi	a2,s2,%lo(.LC1)
	li	a1,4
	mv	a0,s0
	call	mbedtls_debug_print_buf
.LVL19:
	.loc 1 4965 5
	.loc 1 4965 12 is_stmt 0
	beq	s5,zero,.L16
	lui	a2,%hi(.LC4)
	addi	a2,a2,%lo(.LC4)
.L15:
	.loc 1 4969 5 discriminator 4
	addi	a1,sp,28
	addi	a0,sp,60
	sw	a2,12(sp)
.LVL20:
	.loc 1 4969 5 is_stmt 1 discriminator 4
	call	mbedtls_sha256_finish
.LVL21:
	.loc 1 4971 5 discriminator 4
	.loc 1 4971 19 is_stmt 0 discriminator 4
	lw	a5,48(s0)
	.loc 1 4971 5 discriminator 4
	lw	a2,12(sp)
	addi	a3,sp,28
	lw	a7,208(a5)
	li	a6,12
	mv	a5,s3
	li	a4,32
	li	a1,48
	addi	a0,s1,44
	jalr	a7
.LVL22:
	.loc 1 4974 5 is_stmt 1 discriminator 4
	li	s1,4096
.LVL23:
	lui	a4,%hi(.LC7)
	mv	a5,s3
	addi	a3,s1,878
	addi	a2,s2,%lo(.LC1)
	li	a6,12
	addi	a4,a4,%lo(.LC7)
	li	a1,3
	mv	a0,s0
	call	mbedtls_debug_print_buf
.LVL24:
	.loc 1 4976 5 discriminator 4
	addi	a0,sp,60
	call	mbedtls_sha256_free
.LVL25:
	.loc 1 4978 5 discriminator 4
	addi	a0,sp,28
	li	a1,32
	call	mbedtls_zeroize
.LVL26:
	.loc 1 4980 5 discriminator 4
	lui	a4,%hi(.LC8)
	addi	a3,s1,884
	addi	a2,s2,%lo(.LC1)
	mv	a0,s0
	addi	a4,a4,%lo(.LC8)
	li	a1,2
	call	mbedtls_debug_print_msg
.LVL27:
	.loc 1 4981 1 is_stmt 0 discriminator 4
	lw	ra,204(sp)
	.cfi_remember_state
	.cfi_restore 1
	lw	s0,200(sp)
	.cfi_restore 8
.LVL28:
	lw	s1,196(sp)
	.cfi_restore 9
	lw	s2,192(sp)
	.cfi_restore 18
	lw	s3,188(sp)
	.cfi_restore 19
.LVL29:
	lw	s4,184(sp)
	.cfi_restore 20
	lw	s5,180(sp)
	.cfi_restore 21
.LVL30:
	addi	sp,sp,208
	.cfi_def_cfa_offset 0
.LVL31:
	jr	ra
.LVL32:
.L16:
	.cfi_restore_state
	.loc 1 4965 12
	lui	a2,%hi(.LC3)
	addi	a2,a2,%lo(.LC3)
	j	.L15
	.cfi_endproc
.LFE62:
	.size	ssl_calc_finished_tls_sha256, .-ssl_calc_finished_tls_sha256
	.section	.text.ssl_calc_verify_tls_sha256,"ax",@progbits
	.align	1
	.type	ssl_calc_verify_tls_sha256, @function
ssl_calc_verify_tls_sha256:
.LFB30:
	.loc 1 1064 1 is_stmt 1
	.cfi_startproc
.LVL33:
	.loc 1 1065 5
	.loc 1 1067 5
	.loc 1 1064 1 is_stmt 0
	addi	sp,sp,-144
	.cfi_def_cfa_offset 144
	sw	s0,136(sp)
	.cfi_offset 8, -8
	mv	s0,a0
	.loc 1 1067 5
	addi	a0,sp,12
.LVL34:
	.loc 1 1064 1
	sw	ra,140(sp)
	sw	s1,132(sp)
	sw	s2,128(sp)
	.cfi_offset 1, -4
	.cfi_offset 9, -12
	.cfi_offset 18, -16
	.loc 1 1064 1
	mv	s2,a1
	.loc 1 1067 5
	call	mbedtls_sha256_init
.LVL35:
	.loc 1 1069 5 is_stmt 1
	lui	s1,%hi(.LC1)
	lui	a4,%hi(.LC9)
	addi	a2,s1,%lo(.LC1)
	addi	a4,a4,%lo(.LC9)
	li	a3,1069
	mv	a0,s0
	li	a1,2
	call	mbedtls_debug_print_msg
.LVL36:
	.loc 1 1071 5
	.loc 1 1071 36 is_stmt 0
	lw	a1,48(s0)
	.loc 1 1071 5
	addi	a0,sp,12
	addi	a1,a1,80
	call	mbedtls_sha256_clone
.LVL37:
	.loc 1 1072 5 is_stmt 1
	mv	a1,s2
	addi	a0,sp,12
	call	mbedtls_sha256_finish
.LVL38:
	.loc 1 1074 5
	lui	a4,%hi(.LC10)
	mv	a5,s2
	li	a6,32
	addi	a2,s1,%lo(.LC1)
	mv	a0,s0
	addi	a4,a4,%lo(.LC10)
	li	a3,1074
	li	a1,3
	call	mbedtls_debug_print_buf
.LVL39:
	.loc 1 1075 5
	lui	a4,%hi(.LC11)
	addi	a2,s1,%lo(.LC1)
	mv	a0,s0
	addi	a4,a4,%lo(.LC11)
	li	a3,1075
	li	a1,2
	call	mbedtls_debug_print_msg
.LVL40:
	.loc 1 1077 5
	addi	a0,sp,12
	call	mbedtls_sha256_free
.LVL41:
	.loc 1 1079 5
	.loc 1 1080 1 is_stmt 0
	lw	ra,140(sp)
	.cfi_restore 1
	lw	s0,136(sp)
	.cfi_restore 8
.LVL42:
	lw	s1,132(sp)
	.cfi_restore 9
	lw	s2,128(sp)
	.cfi_restore 18
.LVL43:
	addi	sp,sp,144
	.cfi_def_cfa_offset 0
	jr	ra
	.cfi_endproc
.LFE30:
	.size	ssl_calc_verify_tls_sha256, .-ssl_calc_verify_tls_sha256
	.section	.text.ssl_flight_free,"ax",@progbits
	.align	1
	.type	ssl_flight_free, @function
ssl_flight_free:
.LFB36:
	.loc 1 2541 1 is_stmt 1
	.cfi_startproc
.LVL44:
	addi	sp,sp,-16
	.cfi_def_cfa_offset 16
	sw	s0,8(sp)
	sw	ra,12(sp)
	sw	s1,4(sp)
	.cfi_offset 8, -8
	.cfi_offset 1, -4
	.cfi_offset 9, -12
	mv	s0,a0
	.loc 1 2542 5
.LVL45:
	.loc 1 2543 5
	.loc 1 2545 5
.L21:
	.loc 1 2545 10 is_stmt 0
	bne	s0,zero,.L22
	.loc 1 2554 1
	lw	ra,12(sp)
	.cfi_remember_state
	.cfi_restore 1
	lw	s0,8(sp)
	.cfi_restore 8
.LVL46:
	lw	s1,4(sp)
	.cfi_restore 9
	addi	sp,sp,16
	.cfi_def_cfa_offset 0
	jr	ra
.LVL47:
.L22:
	.cfi_restore_state
	.loc 1 2547 9 is_stmt 1
	.loc 1 2549 9 is_stmt 0
	lw	a0,0(s0)
	.loc 1 2547 14
	lw	s1,12(s0)
.LVL48:
	.loc 1 2549 9 is_stmt 1
	call	vPortFree
.LVL49:
	.loc 1 2550 9
	mv	a0,s0
	call	vPortFree
.LVL50:
	.loc 1 2552 9
	.loc 1 2552 13 is_stmt 0
	mv	s0,s1
	j	.L21
	.cfi_endproc
.LFE36:
	.size	ssl_flight_free, .-ssl_flight_free
	.section	.text.ssl_append_key_cert,"ax",@progbits
	.align	1
	.type	ssl_append_key_cert, @function
ssl_append_key_cert:
.LFB89:
	.loc 1 5830 1 is_stmt 1
	.cfi_startproc
.LVL51:
	.loc 1 5831 5
	.loc 1 5833 5
	.loc 1 5830 1 is_stmt 0
	addi	sp,sp,-32
	.cfi_def_cfa_offset 32
	sw	s0,24(sp)
	sw	s1,20(sp)
	.cfi_offset 8, -8
	.cfi_offset 9, -12
	mv	s0,a0
	mv	s1,a1
	.loc 1 5833 11
	li	a0,1
.LVL52:
	li	a1,12
.LVL53:
	.loc 1 5830 1
	sw	ra,28(sp)
	.cfi_offset 1, -4
	.loc 1 5830 1
	sw	a2,12(sp)
	.loc 1 5833 11
	call	mycalloc
.LVL54:
	.loc 1 5834 5 is_stmt 1
	.loc 1 5834 7 is_stmt 0
	beq	a0,zero,.L27
	.loc 1 5837 5 is_stmt 1
	.loc 1 5838 14 is_stmt 0
	lw	a2,12(sp)
	.loc 1 5837 15
	sw	s1,0(a0)
	.loc 1 5838 5 is_stmt 1
	.loc 1 5839 15 is_stmt 0
	sw	zero,8(a0)
	.loc 1 5838 14
	sw	a2,4(a0)
	.loc 1 5839 5 is_stmt 1
	.loc 1 5842 5
	.loc 1 5842 9 is_stmt 0
	lw	a5,0(s0)
	.loc 1 5842 7
	bne	a5,zero,.L26
	.loc 1 5844 9 is_stmt 1
	.loc 1 5844 15 is_stmt 0
	sw	a0,0(s0)
.L31:
	.loc 1 5854 11
	li	a0,0
.LVL55:
.L24:
	.loc 1 5855 1
	lw	ra,28(sp)
	.cfi_remember_state
	.cfi_restore 1
	lw	s0,24(sp)
	.cfi_restore 8
.LVL56:
	lw	s1,20(sp)
	.cfi_restore 9
.LVL57:
	addi	sp,sp,32
	.cfi_def_cfa_offset 0
.LVL58:
	jr	ra
.LVL59:
.L28:
	.cfi_restore_state
.LBB11:
	mv	a5,a4
.LVL60:
.L26:
	.loc 1 5849 19
	lw	a4,8(a5)
	.loc 1 5849 14
	bne	a4,zero,.L28
	.loc 1 5851 9 is_stmt 1
	.loc 1 5851 19 is_stmt 0
	sw	a0,8(a5)
	j	.L31
.LVL61:
.L27:
.LBE11:
	.loc 1 5835 15
	li	a0,-32768
.LVL62:
	addi	a0,a0,256
	j	.L24
	.cfi_endproc
.LFE89:
	.size	ssl_append_key_cert, .-ssl_append_key_cert
	.section	.text.ssl_update_checksum_start,"ax",@progbits
	.align	1
	.type	ssl_update_checksum_start, @function
ssl_update_checksum_start:
.LFB60:
	.loc 1 4684 1 is_stmt 1
	.cfi_startproc
.LVL63:
	.loc 1 4695 5
	lw	a0,48(a0)
.LVL64:
	addi	a0,a0,80
	tail	mbedtls_sha256_update
.LVL65:
	.cfi_endproc
.LFE60:
	.size	ssl_update_checksum_start, .-ssl_update_checksum_start
	.section	.text.ssl_update_checksum_sha256,"ax",@progbits
	.align	1
	.type	ssl_update_checksum_sha256, @function
ssl_update_checksum_sha256:
.LFB156:
	.cfi_startproc
	tail	ssl_update_checksum_start
	.cfi_endproc
.LFE156:
	.size	ssl_update_checksum_sha256, .-ssl_update_checksum_sha256
	.section	.text.mbedtls_ssl_hdr_len.isra.1,"ax",@progbits
	.align	1
	.type	mbedtls_ssl_hdr_len.isra.1, @function
mbedtls_ssl_hdr_len.isra.1:
.LFB139:
	.file 2 "/home/hogc/build-tools/sdk/bl/bl_iot_sdk/components/security/mbedtls/include/mbedtls/ssl_internal.h"
	.loc 2 448 22
	.cfi_startproc
	.loc 2 451 5
	.loc 2 451 30 is_stmt 0
	lhu	a5,104(a0)
	.loc 2 451 7
	andi	a5,a5,2
	beq	a5,zero,.L36
	.loc 2 452 15
	li	a0,13
	ret
.L36:
	.loc 2 456 11
	li	a0,5
	.loc 2 457 1
	ret
	.cfi_endproc
.LFE139:
	.size	mbedtls_ssl_hdr_len.isra.1, .-mbedtls_ssl_hdr_len.isra.1
	.section	.text.ssl_set_timer,"ax",@progbits
	.align	1
	.type	ssl_set_timer, @function
ssl_set_timer:
.LFB22:
	.loc 1 78 1 is_stmt 1
	.cfi_startproc
.LVL66:
	.loc 1 79 5
	.loc 1 79 7 is_stmt 0
	lw	a5,72(a0)
	beq	a5,zero,.L37
	.loc 1 78 1
	addi	sp,sp,-16
	.cfi_def_cfa_offset 16
.LBB14:
.LBB15:
	.loc 1 82 5
	lui	a4,%hi(.LC12)
	lui	a2,%hi(.LC1)
.LBE15:
.LBE14:
	.loc 1 78 1
	sw	s1,4(sp)
.LBB20:
.LBB16:
	.loc 1 82 5
	mv	a5,a1
	.cfi_offset 9, -12
	mv	s1,a1
	addi	a2,a2,%lo(.LC1)
	li	a1,3
.LVL67:
	addi	a4,a4,%lo(.LC12)
	li	a3,82
.LBE16:
.LBE20:
	.loc 1 78 1
	sw	s0,8(sp)
	sw	ra,12(sp)
	.cfi_offset 8, -8
	.cfi_offset 1, -4
	mv	s0,a0
.LVL68:
.LBB21:
.LBB17:
	.loc 1 82 5 is_stmt 1
	call	mbedtls_debug_print_msg
.LVL69:
	.loc 1 83 5
	lw	t1,72(s0)
	lw	a0,68(s0)
.LBE17:
.LBE21:
	.loc 1 84 1 is_stmt 0
	lw	s0,8(sp)
	.cfi_restore 8
.LVL70:
	lw	ra,12(sp)
	.cfi_restore 1
.LBB22:
.LBB18:
	.loc 1 83 5
	mv	a2,s1
	srli	a1,s1,2
.LBE18:
.LBE22:
	.loc 1 84 1
	lw	s1,4(sp)
	.cfi_restore 9
.LVL71:
	addi	sp,sp,16
	.cfi_def_cfa_offset 0
.LBB23:
.LBB19:
	.loc 1 83 5
	jr	t1
.LVL72:
.L37:
	ret
.LBE19:
.LBE23:
	.cfi_endproc
.LFE22:
	.size	ssl_set_timer, .-ssl_set_timer
	.section	.text.ssl_check_timer,"ax",@progbits
	.align	1
	.type	ssl_check_timer, @function
ssl_check_timer:
.LFB23:
	.loc 1 90 1 is_stmt 1
	.cfi_startproc
.LVL73:
	.loc 1 91 5
	.loc 1 91 12 is_stmt 0
	lw	a5,76(a0)
	.loc 1 91 7
	bne	a5,zero,.L43
	.loc 1 92 15
	li	a0,0
.LVL74:
	.loc 1 101 1
	ret
.LVL75:
.L45:
	.cfi_def_cfa_offset 16
	.cfi_offset 1, -4
	.cfi_offset 8, -8
	.loc 1 92 15
	li	a0,0
.L42:
	.loc 1 101 1
	lw	ra,12(sp)
	.cfi_restore 1
	lw	s0,8(sp)
	.cfi_restore 8
.LVL76:
	addi	sp,sp,16
	.cfi_def_cfa_offset 0
	jr	ra
.LVL77:
.L43:
	.loc 1 90 1
	addi	sp,sp,-16
	.cfi_def_cfa_offset 16
	sw	s0,8(sp)
	sw	ra,12(sp)
	.cfi_offset 8, -8
	.cfi_offset 1, -4
	mv	s0,a0
	.loc 1 94 5 is_stmt 1
	.loc 1 94 9 is_stmt 0
	lw	a0,68(a0)
.LVL78:
	jalr	a5
.LVL79:
	.loc 1 94 7
	li	a5,2
	bne	a0,a5,.L45
.LVL80:
.LBB26:
.LBB27:
	.loc 1 96 9 is_stmt 1
	lui	a4,%hi(.LC13)
	lui	a2,%hi(.LC1)
	mv	a0,s0
	addi	a4,a4,%lo(.LC13)
	li	a3,96
	addi	a2,a2,%lo(.LC1)
	li	a1,3
	call	mbedtls_debug_print_msg
.LVL81:
	.loc 1 97 9
	.loc 1 96 9 is_stmt 0
	li	a0,-1
	j	.L42
.LBE27:
.LBE26:
	.cfi_endproc
.LFE23:
	.size	ssl_check_timer, .-ssl_check_timer
	.section	.text.tls_prf_sha256,"ax",@progbits
	.align	1
	.type	tls_prf_sha256, @function
tls_prf_sha256:
.LFB28:
	.loc 1 435 1 is_stmt 1
	.cfi_startproc
.LVL82:
	.loc 1 436 5
	.loc 1 435 1 is_stmt 0
	addi	sp,sp,-224
	.cfi_def_cfa_offset 224
	sw	s7,188(sp)
	.cfi_offset 23, -36
	mv	s7,a0
.LVL83:
.LBB30:
.LBB31:
	.loc 1 381 5
	addi	a0,sp,4
.LVL84:
.LBE31:
.LBE30:
	.loc 1 435 1
	sw	s0,216(sp)
	sw	s2,208(sp)
	sw	s4,200(sp)
	sw	s5,196(sp)
	sw	s8,184(sp)
	sw	s10,176(sp)
	sw	ra,220(sp)
	sw	s1,212(sp)
	sw	s3,204(sp)
	sw	s6,192(sp)
	sw	s9,180(sp)
	.cfi_offset 8, -8
	.cfi_offset 18, -16
	.cfi_offset 20, -24
	.cfi_offset 21, -28
	.cfi_offset 24, -40
	.cfi_offset 26, -48
	.cfi_offset 1, -4
	.cfi_offset 9, -12
	.cfi_offset 19, -20
	.cfi_offset 22, -32
	.cfi_offset 25, -44
	.loc 1 435 1
	mv	s8,a1
.LVL85:
	mv	s0,a2
.LVL86:
	mv	s10,a3
.LVL87:
	mv	s2,a4
.LVL88:
	mv	s5,a5
.LVL89:
	mv	s4,a6
.LVL90:
.LBB34:
.LBB32:
	.loc 1 373 5 is_stmt 1
	.loc 1 374 5
	.loc 1 375 5
	.loc 1 376 5
	.loc 1 377 5
	.loc 1 378 5
	.loc 1 379 5
	.loc 1 381 5
	call	mbedtls_md_init
.LVL91:
	.loc 1 383 5
	.loc 1 383 21 is_stmt 0
	li	a0,6
	call	mbedtls_md_info_from_type
.LVL92:
	.loc 1 383 7
	beq	a0,zero,.L56
	mv	s9,a0
	.loc 1 386 5 is_stmt 1
	.loc 1 386 14 is_stmt 0
	call	mbedtls_md_get_size
.LVL93:
	mv	s1,a0
.LVL94:
	.loc 1 388 5 is_stmt 1
	.loc 1 388 34 is_stmt 0
	mv	a0,s0
	call	strlen
.LVL95:
	.loc 1 388 50
	add	a0,s2,a0
	add	a0,a0,s1
	.loc 1 388 7
	li	a5,128
	bgtu	a0,a5,.L57
	.loc 1 391 5 is_stmt 1
	.loc 1 391 10 is_stmt 0
	mv	a0,s0
	call	strlen
.LVL96:
	.loc 1 392 5
	addi	a5,sp,48
	add	s6,a5,s1
	mv	a2,a0
	mv	a1,s0
	.loc 1 391 10
	mv	s3,a0
.LVL97:
	.loc 1 392 5 is_stmt 1
	mv	a0,s6
.LVL98:
	call	memcpy
.LVL99:
	.loc 1 393 5
	addi	a5,sp,48
	.loc 1 393 26 is_stmt 0
	add	a0,s1,s3
	.loc 1 393 5
	mv	a2,s2
	mv	a1,s10
	add	a0,a5,a0
	call	memcpy
.LVL100:
	.loc 1 394 5 is_stmt 1
	.loc 1 399 5
	.loc 1 399 18 is_stmt 0
	li	a2,1
	mv	a1,s9
	addi	a0,sp,4
	call	mbedtls_md_setup
.LVL101:
	mv	s0,a0
.LVL102:
	.loc 1 399 8
	bne	a0,zero,.L49
	.loc 1 402 5
	mv	a2,s8
	mv	a1,s7
	addi	a0,sp,4
	call	mbedtls_md_hmac_starts
.LVL103:
	.loc 1 394 8
	add	s2,s2,s3
.LVL104:
	.loc 1 402 5 is_stmt 1
	.loc 1 403 5
	mv	a2,s2
	mv	a1,s6
	addi	a0,sp,4
	call	mbedtls_md_hmac_update
.LVL105:
	.loc 1 404 5
	addi	a1,sp,48
	addi	a0,sp,4
	call	mbedtls_md_hmac_finish
.LVL106:
	.loc 1 406 5
	.loc 1 406 12 is_stmt 0
	li	s3,0
	.loc 1 409 9
	add	s2,s1,s2
.LVL107:
.L51:
	.loc 1 408 9
	addi	a0,sp,4
	.loc 1 406 5
	bgtu	s4,s3,.L55
	.loc 1 422 5 is_stmt 1
	call	mbedtls_md_free
.LVL108:
	.loc 1 424 5
	li	a1,128
	addi	a0,sp,48
	call	mbedtls_zeroize
.LVL109:
	.loc 1 425 5
	li	a1,32
	addi	a0,sp,16
	call	mbedtls_zeroize
.LVL110:
	.loc 1 427 5
.L49:
.LBE32:
.LBE34:
	.loc 1 438 1 is_stmt 0
	mv	a0,s0
	lw	ra,220(sp)
	.cfi_remember_state
	.cfi_restore 1
	lw	s0,216(sp)
	.cfi_restore 8
	lw	s1,212(sp)
	.cfi_restore 9
	lw	s2,208(sp)
	.cfi_restore 18
	lw	s3,204(sp)
	.cfi_restore 19
	lw	s4,200(sp)
	.cfi_restore 20
.LVL111:
	lw	s5,196(sp)
	.cfi_restore 21
.LVL112:
	lw	s6,192(sp)
	.cfi_restore 22
	lw	s7,188(sp)
	.cfi_restore 23
.LVL113:
	lw	s8,184(sp)
	.cfi_restore 24
.LVL114:
	lw	s9,180(sp)
	.cfi_restore 25
	lw	s10,176(sp)
	.cfi_restore 26
.LVL115:
	addi	sp,sp,224
	.cfi_def_cfa_offset 0
	jr	ra
.LVL116:
.L55:
	.cfi_restore_state
.LBB35:
.LBB33:
	.loc 1 408 9 is_stmt 1
	call	mbedtls_md_hmac_reset
.LVL117:
	.loc 1 409 9
	mv	a2,s2
	addi	a1,sp,48
	addi	a0,sp,4
	call	mbedtls_md_hmac_update
.LVL118:
	.loc 1 410 9
	addi	a1,sp,16
	addi	a0,sp,4
	call	mbedtls_md_hmac_finish
.LVL119:
	.loc 1 412 9
	addi	a0,sp,4
	call	mbedtls_md_hmac_reset
.LVL120:
	.loc 1 413 9
	mv	a2,s1
	addi	a1,sp,48
	addi	a0,sp,4
	call	mbedtls_md_hmac_update
.LVL121:
	.loc 1 414 9
	addi	a1,sp,48
	addi	a0,sp,4
	call	mbedtls_md_hmac_finish
.LVL122:
	.loc 1 416 9
	.loc 1 416 17 is_stmt 0
	add	a4,s1,s3
	.loc 1 416 51
	mv	a3,s1
	bgeu	s4,a4,.L52
	remu	a3,s4,s1
.L52:
.LVL123:
	.loc 1 418 9 is_stmt 1
	.loc 1 418 16 is_stmt 0
	li	a5,0
	.loc 1 419 27
	add	s3,s5,s3
.LVL124:
.L53:
	.loc 1 418 9
	bne	a5,a3,.L54
	.loc 1 416 17
	mv	s3,a4
	j	.L51
.L54:
	.loc 1 419 13 is_stmt 1
	.loc 1 419 32 is_stmt 0
	addi	a1,sp,16
	add	a1,a1,a5
	.loc 1 419 27
	lbu	a1,0(a1)
	add	a2,s3,a5
	.loc 1 418 29
	addi	a5,a5,1
.LVL125:
	.loc 1 419 27
	sb	a1,0(a2)
	j	.L53
.LVL126:
.L56:
	.loc 1 384 15
	li	s0,-28672
.LVL127:
	addi	s0,s0,1024
	j	.L49
.LVL128:
.L57:
	.loc 1 389 15
	li	s0,-28672
.LVL129:
	addi	s0,s0,-256
.LVL130:
.LBE33:
.LBE35:
	.loc 1 436 13
	j	.L49
	.cfi_endproc
.LFE28:
	.size	tls_prf_sha256, .-tls_prf_sha256
	.section	.text.mbedtls_ssl_derive_keys,"ax",@progbits
	.align	1
	.globl	mbedtls_ssl_derive_keys
	.type	mbedtls_ssl_derive_keys, @function
mbedtls_ssl_derive_keys:
.LFB29:
	.loc 1 485 1 is_stmt 1
	.cfi_startproc
.LVL131:
	.loc 1 486 5
	.loc 1 487 5
	.loc 1 488 5
	.loc 1 489 5
	.loc 1 490 5
	.loc 1 491 5
	.loc 1 492 5
	.loc 1 493 5
	.loc 1 494 5
	.loc 1 495 5
	.loc 1 497 5
	.loc 1 485 1 is_stmt 0
	addi	sp,sp,-400
	.cfi_def_cfa_offset 400
	sw	ra,396(sp)
	sw	s2,384(sp)
	sw	s6,368(sp)
	sw	s0,392(sp)
	sw	s1,388(sp)
	sw	s3,380(sp)
	sw	s4,376(sp)
	sw	s5,372(sp)
	sw	s7,364(sp)
	sw	s8,360(sp)
	sw	s9,356(sp)
	sw	s10,352(sp)
	sw	s11,348(sp)
	.cfi_offset 1, -4
	.cfi_offset 18, -16
	.cfi_offset 22, -32
	.cfi_offset 8, -8
	.cfi_offset 9, -12
	.cfi_offset 19, -20
	.cfi_offset 20, -24
	.cfi_offset 21, -28
	.cfi_offset 23, -36
	.cfi_offset 24, -40
	.cfi_offset 25, -44
	.cfi_offset 26, -48
	.cfi_offset 27, -52
	.loc 1 498 28
	lw	s1,64(a0)
	.loc 1 501 5
	lui	a4,%hi(.LC14)
	lui	s6,%hi(.LC1)
	addi	a4,a4,%lo(.LC14)
	li	a3,501
	addi	a2,s6,%lo(.LC1)
	li	a1,2
	.loc 1 485 1
	mv	s2,a0
	.loc 1 497 26
	lw	s11,44(a0)
.LVL132:
	.loc 1 498 5 is_stmt 1
	.loc 1 499 5
	.loc 1 499 35 is_stmt 0
	lw	s5,48(a0)
.LVL133:
	.loc 1 501 5 is_stmt 1
	call	mbedtls_debug_print_msg
.LVL134:
	.loc 1 503 5
	.loc 1 503 19 is_stmt 0
	lw	a5,0(s1)
	lbu	a0,8(a5)
	call	mbedtls_cipher_info_from_type
.LVL135:
	.loc 1 504 5 is_stmt 1
	lw	a5,0(s1)
	.loc 1 504 7 is_stmt 0
	bne	a0,zero,.L61
	.loc 1 506 9 is_stmt 1
	lbu	a5,8(a5)
	lui	a4,%hi(.LC15)
	addi	a4,a4,%lo(.LC15)
	li	a3,507
.LVL136:
.L97:
	.loc 1 514 9 is_stmt 0
	addi	a2,s6,%lo(.LC1)
	li	a1,1
	mv	a0,s2
	.loc 1 516 15
	li	s0,-28672
	.loc 1 514 9
	call	mbedtls_debug_print_msg
.LVL137:
	.loc 1 516 9 is_stmt 1
	.loc 1 516 15 is_stmt 0
	addi	s0,s0,-256
.LVL138:
.L60:
	.loc 1 960 1
	mv	a0,s0
	lw	ra,396(sp)
	.cfi_remember_state
	.cfi_restore 1
	lw	s0,392(sp)
	.cfi_restore 8
	lw	s1,388(sp)
	.cfi_restore 9
	lw	s2,384(sp)
	.cfi_restore 18
.LVL139:
	lw	s3,380(sp)
	.cfi_restore 19
	lw	s4,376(sp)
	.cfi_restore 20
	lw	s5,372(sp)
	.cfi_restore 21
	lw	s6,368(sp)
	.cfi_restore 22
	lw	s7,364(sp)
	.cfi_restore 23
	lw	s8,360(sp)
	.cfi_restore 24
	lw	s9,356(sp)
	.cfi_restore 25
	lw	s10,352(sp)
	.cfi_restore 26
	lw	s11,348(sp)
	.cfi_restore 27
.LVL140:
	addi	sp,sp,400
	.cfi_def_cfa_offset 0
	jr	ra
.LVL141:
.L61:
	.cfi_restore_state
	mv	s4,a0
	.loc 1 511 5 is_stmt 1
	.loc 1 511 15 is_stmt 0
	lbu	a0,9(a5)
.LVL142:
	call	mbedtls_md_info_from_type
.LVL143:
	mv	s8,a0
.LVL144:
	.loc 1 512 5 is_stmt 1
	.loc 1 512 7 is_stmt 0
	bne	a0,zero,.L63
	.loc 1 514 9 is_stmt 1
	.loc 1 514 74 is_stmt 0
	lw	a5,0(s1)
	.loc 1 514 9
	lui	a4,%hi(.LC16)
	addi	a4,a4,%lo(.LC16)
	lbu	a5,9(a5)
	li	a3,515
	j	.L97
.L63:
	.loc 1 552 5 is_stmt 1
	.loc 1 552 7 is_stmt 0
	lw	a4,12(s2)
	li	a5,3
	bne	a4,a5,.L64
	.loc 1 554 28
	lui	a5,%hi(tls_prf_sha256)
	addi	a5,a5,%lo(tls_prf_sha256)
	sw	a5,208(s5)
	.loc 1 555 32
	lui	a5,%hi(ssl_calc_verify_tls_sha256)
	addi	a5,a5,%lo(ssl_calc_verify_tls_sha256)
	sw	a5,200(s5)
	.loc 1 556 34
	lui	a5,%hi(ssl_calc_finished_tls_sha256)
	addi	a5,a5,%lo(ssl_calc_finished_tls_sha256)
	sw	a5,204(s5)
	.loc 1 576 7
	lw	a5,328(s5)
	mv	s3,s6
	.loc 1 554 9 is_stmt 1
	.loc 1 555 9
	.loc 1 556 9
	.loc 1 576 5
	addi	s7,s5,216
	addi	s9,s11,44
	.loc 1 576 7 is_stmt 0
	beq	a5,zero,.L65
	.loc 1 636 9 is_stmt 1
	lui	a4,%hi(.LC21)
	addi	a4,a4,%lo(.LC21)
	li	a3,636
	addi	a2,s6,%lo(.LC1)
	li	a1,3
	mv	a0,s2
.LVL145:
	call	mbedtls_debug_print_msg
.LVL146:
	j	.L68
.LVL147:
.L64:
	.loc 1 562 9
	lui	a4,%hi(.LC17)
	addi	a4,a4,%lo(.LC17)
	li	a3,562
	addi	a2,s6,%lo(.LC1)
.LVL148:
.L98:
	.loc 1 759 17 is_stmt 0
	li	a1,1
	mv	a0,s2
	.loc 1 760 23
	li	s0,-28672
	.loc 1 759 17
	call	mbedtls_debug_print_msg
.LVL149:
	.loc 1 760 17 is_stmt 1
	.loc 1 760 23 is_stmt 0
	addi	s0,s0,1024
	j	.L60
.LVL150:
.L65:
	.loc 1 578 9 is_stmt 1
	lw	a6,212(s5)
	.loc 1 578 40 is_stmt 0
	addi	s10,s5,280
	.loc 1 578 9
	lui	a4,%hi(.LC18)
	mv	a5,s10
	addi	a4,a4,%lo(.LC18)
	li	a3,579
	addi	a2,s6,%lo(.LC1)
	li	a1,3
	mv	a0,s2
.LVL151:
	call	mbedtls_debug_print_buf
.LVL152:
	.loc 1 623 9 is_stmt 1
	.loc 1 623 15 is_stmt 0
	lw	a7,208(s5)
	lw	a1,212(s5)
	lui	a2,%hi(.LC19)
	li	a6,48
	mv	a5,s9
	li	a4,64
	mv	a3,s7
	addi	a2,a2,%lo(.LC19)
	mv	a0,s10
	jalr	a7
.LVL153:
	mv	s0,a0
.LVL154:
	.loc 1 627 9 is_stmt 1
	.loc 1 627 11 is_stmt 0
	beq	a0,zero,.L67
	.loc 1 629 13 is_stmt 1
	lui	a4,%hi(.LC20)
	mv	a5,a0
	addi	a4,a4,%lo(.LC20)
	li	a3,629
	addi	a2,s6,%lo(.LC1)
.LVL155:
.L99:
	.loc 1 900 9 is_stmt 0
	li	a1,1
	mv	a0,s2
	call	mbedtls_debug_print_ret
.LVL156:
	.loc 1 901 9 is_stmt 1
	.loc 1 901 15 is_stmt 0
	j	.L60
.LVL157:
.L67:
	.loc 1 633 9 is_stmt 1
	li	a1,48
	mv	a0,s10
	call	mbedtls_zeroize
.LVL158:
.L68:
	.loc 1 641 5
	li	a2,64
	mv	a1,s7
	addi	a0,sp,16
	call	memcpy
.LVL159:
	.loc 1 642 5
	li	a2,32
	addi	a1,sp,48
	mv	a0,s7
	call	memcpy
.LVL160:
	.loc 1 643 5
	li	a2,32
	addi	a1,sp,16
	addi	a0,s5,248
	call	memcpy
.LVL161:
	.loc 1 644 5
	li	a1,64
	addi	a0,sp,16
	call	mbedtls_zeroize
.LVL162:
	.loc 1 658 5
	.loc 1 658 11 is_stmt 0
	lw	a7,208(s5)
	lui	a2,%hi(.LC22)
	li	a6,256
	addi	a5,sp,80
	li	a4,64
	mv	a3,s7
	addi	a2,a2,%lo(.LC22)
	li	a1,48
	mv	a0,s9
	jalr	a7
.LVL163:
	mv	s0,a0
.LVL164:
	.loc 1 660 5 is_stmt 1
	.loc 1 660 7 is_stmt 0
	beq	a0,zero,.L69
	.loc 1 662 9 is_stmt 1
	lui	a4,%hi(.LC20)
	mv	a5,a0
	addi	a4,a4,%lo(.LC20)
	li	a3,662
.LVL165:
.L100:
	.loc 1 900 9 is_stmt 0
	addi	a2,s3,%lo(.LC1)
	j	.L99
.LVL166:
.L69:
	.loc 1 666 5 is_stmt 1
	lw	a0,0(s11)
	call	mbedtls_ssl_get_ciphersuite_name
.LVL167:
	lui	a4,%hi(.LC23)
	mv	a5,a0
	addi	a4,a4,%lo(.LC23)
	li	a3,667
	addi	a2,s3,%lo(.LC1)
	li	a1,3
	mv	a0,s2
	call	mbedtls_debug_print_msg
.LVL168:
	.loc 1 668 5
	lui	a4,%hi(.LC19)
	li	a6,48
	mv	a5,s9
	addi	a4,a4,%lo(.LC19)
	li	a3,668
	addi	a2,s3,%lo(.LC1)
	li	a1,3
	mv	a0,s2
	call	mbedtls_debug_print_buf
.LVL169:
	.loc 1 669 5
	lui	a4,%hi(.LC24)
	li	a6,64
	mv	a5,s7
	addi	a4,a4,%lo(.LC24)
	li	a3,669
	addi	a2,s3,%lo(.LC1)
	li	a1,4
	mv	a0,s2
	call	mbedtls_debug_print_buf
.LVL170:
	.loc 1 670 5
	lui	a4,%hi(.LC25)
	addi	a5,sp,80
	li	a6,256
	addi	a4,a4,%lo(.LC25)
	li	a3,670
	addi	a2,s3,%lo(.LC1)
	li	a1,4
	mv	a0,s2
	call	mbedtls_debug_print_buf
.LVL171:
	.loc 1 672 5
	li	a1,64
	mv	a0,s7
	call	mbedtls_zeroize
.LVL172:
	.loc 1 678 5
	.loc 1 678 49 is_stmt 0
	lw	a5,4(s4)
	srli	a5,a5,3
	.loc 1 678 23
	sw	a5,4(s1)
	.loc 1 680 5 is_stmt 1
	.loc 1 680 7 is_stmt 0
	lbu	a5,1(s4)
	addi	a5,a5,-6
	andi	a5,a5,253
	bne	a5,zero,.L70
	.loc 1 683 9 is_stmt 1
	.loc 1 685 26 is_stmt 0
	li	a5,12
	sw	a5,12(s1)
	.loc 1 686 32
	li	a5,4
	sw	a5,16(s1)
	.loc 1 690 60
	lw	a5,0(s1)
	.loc 1 683 27
	sw	zero,20(s1)
	.loc 1 685 9 is_stmt 1
	.loc 1 686 9
	.loc 1 689 9
	.loc 1 691 42 is_stmt 0
	lbu	a4,28(a5)
	li	a5,8
	andi	a4,a4,2
	bne	a4,zero,.L71
	li	a5,16
.L71:
	.loc 1 690 29
	addi	a5,a5,8
.L96:
	.loc 1 754 35
	sw	a5,8(s1)
	j	.L72
.L70:
	.loc 1 696 9 is_stmt 1
	.loc 1 696 21 is_stmt 0
	li	a2,1
	mv	a1,s8
	addi	a0,s1,56
	call	mbedtls_md_setup
.LVL173:
	mv	s0,a0
.LVL174:
	.loc 1 696 11
	bne	a0,zero,.L73
	.loc 1 697 21 discriminator 1
	li	a2,1
	mv	a1,s8
	addi	a0,s1,68
	call	mbedtls_md_setup
.LVL175:
	mv	s0,a0
.LVL176:
	.loc 1 696 83 discriminator 1
	beq	a0,zero,.L74
.L73:
	.loc 1 699 13 is_stmt 1
	lui	a4,%hi(.LC26)
	mv	a5,s0
	addi	a4,a4,%lo(.LC26)
	li	a3,699
	j	.L100
.L74:
	.loc 1 704 9
	.loc 1 704 29 is_stmt 0
	mv	a0,s8
	call	mbedtls_md_get_size
.LVL177:
	.loc 1 704 27
	sw	a0,20(s1)
	.loc 1 717 9 is_stmt 1
	.loc 1 717 39 is_stmt 0
	lw	a5,12(s4)
	.loc 1 720 11
	li	a4,7
	.loc 1 717 26
	sw	a5,12(s1)
	.loc 1 720 9 is_stmt 1
	.loc 1 720 11 is_stmt 0
	lbu	a3,1(s4)
	bne	a3,a4,.L75
	.loc 1 721 13 is_stmt 1
	.loc 1 721 31 is_stmt 0
	sw	a0,8(s1)
.L72:
	.loc 1 765 5 is_stmt 1
	lw	a4,20(s1)
	lw	a5,4(s1)
	lw	a7,12(s1)
	lw	a6,8(s1)
	sw	a4,0(sp)
	lui	a4,%hi(.LC27)
	addi	a4,a4,%lo(.LC27)
	li	a3,767
	addi	a2,s3,%lo(.LC1)
	li	a1,3
	mv	a0,s2
	call	mbedtls_debug_print_msg
.LVL178:
	.loc 1 773 5
	.loc 1 773 29 is_stmt 0
	lw	a5,0(s2)
	lhu	a5,104(a5)
	.loc 1 773 7
	andi	a5,a5,1
	bne	a5,zero,.L77
	.loc 1 775 9 is_stmt 1
	.loc 1 775 34 is_stmt 0
	lw	a5,20(s1)
	.loc 1 776 58
	lw	a1,4(s1)
	.loc 1 784 34
	lw	s0,16(s1)
.LVL179:
	.loc 1 775 43
	slli	s7,a5,1
.LVL180:
	.loc 1 776 9 is_stmt 1
	.loc 1 776 14 is_stmt 0
	addi	a4,sp,80
	.loc 1 776 47
	add	s5,s7,a1
.LVL181:
	.loc 1 776 14
	add	s5,a4,s5
.LVL182:
	.loc 1 778 9 is_stmt 1
	.loc 1 779 9
	.loc 1 779 17 is_stmt 0
	add	s6,a4,a5
.LVL183:
	.loc 1 784 9 is_stmt 1
	.loc 1 785 52 is_stmt 0
	bne	s0,zero,.L78
	.loc 1 785 52 discriminator 2
	lw	s0,12(s1)
.L78:
.LVL184:
	.loc 1 786 9 is_stmt 1
	mv	a2,s0
	add	a1,s5,a1
	addi	a0,s1,24
	call	memcpy
.LVL185:
	.loc 1 787 9
	.loc 1 787 61 is_stmt 0
	lw	a1,4(s1)
	.loc 1 787 9
	mv	a2,s0
	addi	a0,s1,40
	.loc 1 787 61
	add	a1,s0,a1
	.loc 1 787 9
	add	a1,s5,a1
	call	memcpy
.LVL186:
	.loc 1 833 5 is_stmt 1
	.loc 1 833 7 is_stmt 0
	lw	a5,12(s2)
	bgt	a5,zero,.L79
	.loc 1 841 9 is_stmt 1
	lui	a4,%hi(.LC17)
	addi	a4,a4,%lo(.LC17)
	li	a3,841
	j	.L101
.LVL187:
.L75:
	.loc 1 739 17
	.loc 1 740 48 is_stmt 0
	lw	a3,20(s4)
	.loc 1 740 35
	add	a4,a0,a3
	.loc 1 741 55
	remu	a0,a0,a3
	.loc 1 751 15
	li	a3,1
	.loc 1 741 35
	sub	a0,a4,a0
	.loc 1 739 35
	sw	a0,8(s1)
	.loc 1 751 13 is_stmt 1
	.loc 1 751 37 is_stmt 0
	lw	a4,12(s2)
	addi	a4,a4,-2
	.loc 1 751 15
	bgtu	a4,a3,.L76
	.loc 1 754 17 is_stmt 1
	.loc 1 754 35 is_stmt 0
	add	a5,a5,a0
	j	.L96
.L76:
	.loc 1 759 17 is_stmt 1
	lui	a4,%hi(.LC17)
	addi	a4,a4,%lo(.LC17)
	li	a3,759
.LVL188:
.L101:
	addi	a2,s3,%lo(.LC1)
	j	.L98
.LVL189:
.L77:
	.loc 1 813 9
	lui	a4,%hi(.LC17)
	addi	a4,a4,%lo(.LC17)
	li	a3,813
	j	.L101
.LVL190:
.L79:
	.loc 1 835 9
	lw	a2,20(s1)
	addi	a1,sp,80
.LVL191:
	addi	a0,s1,56
	call	mbedtls_md_hmac_starts
.LVL192:
	.loc 1 836 9
	lw	a2,20(s1)
	mv	a1,s6
	addi	a0,s1,68
	call	mbedtls_md_hmac_starts
.LVL193:
	.loc 1 874 5
	.loc 1 874 17 is_stmt 0
	addi	s6,s1,80
.LVL194:
	mv	a1,s4
	mv	a0,s6
	call	mbedtls_cipher_setup
.LVL195:
	mv	s0,a0
.LVL196:
	.loc 1 874 7
	beq	a0,zero,.L94
	.loc 1 877 9 is_stmt 1
	lui	a4,%hi(.LC28)
	mv	a5,a0
	addi	a4,a4,%lo(.LC28)
	li	a3,877
	j	.L100
.L94:
	.loc 1 881 5
	.loc 1 881 17 is_stmt 0
	addi	s1,s1,144
.LVL197:
	mv	a1,s4
	mv	a0,s1
	call	mbedtls_cipher_setup
.LVL198:
	mv	s0,a0
.LVL199:
	.loc 1 881 7
	beq	a0,zero,.L83
	.loc 1 884 9 is_stmt 1
	lui	a4,%hi(.LC28)
	mv	a5,a0
	addi	a4,a4,%lo(.LC28)
	li	a3,884
	j	.L100
.L83:
	.loc 1 888 5
	.loc 1 888 17 is_stmt 0
	lw	a2,4(s4)
	addi	a5,sp,80
.LVL200:
	li	a3,1
	add	a1,a5,s7
	mv	a0,s6
	call	mbedtls_cipher_setkey
.LVL201:
	mv	s0,a0
.LVL202:
	.loc 1 888 7
	beq	a0,zero,.L84
	.loc 1 892 9 is_stmt 1
	lui	a4,%hi(.LC29)
	mv	a5,a0
	addi	a4,a4,%lo(.LC29)
	li	a3,892
	j	.L100
.L84:
	.loc 1 896 5
	.loc 1 896 17 is_stmt 0
	lw	a2,4(s4)
	li	a3,0
	mv	a1,s5
	mv	a0,s1
	call	mbedtls_cipher_setkey
.LVL203:
	mv	s0,a0
.LVL204:
	.loc 1 896 7
	beq	a0,zero,.L85
	.loc 1 900 9 is_stmt 1
	lui	a4,%hi(.LC29)
	mv	a5,a0
	addi	a4,a4,%lo(.LC29)
	li	a3,900
	j	.L100
.L85:
	.loc 1 905 5
	.loc 1 905 7 is_stmt 0
	lbu	a4,1(s4)
	li	a5,2
	bne	a4,a5,.L86
	.loc 1 907 9 is_stmt 1
	.loc 1 907 21 is_stmt 0
	li	a1,4
	mv	a0,s6
	call	mbedtls_cipher_set_padding_mode
.LVL205:
	mv	s4,a0
.LVL206:
	.loc 1 907 11
	beq	a0,zero,.L87
	.loc 1 910 13 is_stmt 1
	lui	a4,%hi(.LC30)
	mv	a5,a0
	addi	a4,a4,%lo(.LC30)
	li	a3,910
	addi	a2,s3,%lo(.LC1)
	li	a1,1
	mv	a0,s2
.LVL207:
	call	mbedtls_debug_print_ret
.LVL208:
	.loc 1 911 13
	.loc 1 911 19 is_stmt 0
	mv	s0,s4
	j	.L60
.LVL209:
.L87:
	.loc 1 914 9 is_stmt 1
	.loc 1 914 21 is_stmt 0
	mv	a0,s1
.LVL210:
	li	a1,4
	call	mbedtls_cipher_set_padding_mode
.LVL211:
	mv	s1,a0
.LVL212:
	.loc 1 914 11
	beq	a0,zero,.L86
	.loc 1 917 13 is_stmt 1
	lui	a4,%hi(.LC30)
	mv	a5,a0
	addi	a4,a4,%lo(.LC30)
	li	a3,917
	addi	a2,s3,%lo(.LC1)
	li	a1,1
	mv	a0,s2
	call	mbedtls_debug_print_ret
.LVL213:
	.loc 1 918 13
	.loc 1 918 19 is_stmt 0
	mv	s0,s1
	j	.L60
.LVL214:
.L86:
	.loc 1 923 5 is_stmt 1
	addi	a0,sp,80
.LVL215:
	li	a1,256
	call	mbedtls_zeroize
.LVL216:
	.loc 1 957 5
	lui	a4,%hi(.LC31)
	addi	a4,a4,%lo(.LC31)
	li	a3,957
	addi	a2,s3,%lo(.LC1)
	li	a1,2
	mv	a0,s2
	call	mbedtls_debug_print_msg
.LVL217:
	.loc 1 959 5
	.loc 1 959 11 is_stmt 0
	j	.L60
	.cfi_endproc
.LFE29:
	.size	mbedtls_ssl_derive_keys, .-mbedtls_ssl_derive_keys
	.section	.text.mbedtls_ssl_flush_output,"ax",@progbits
	.align	1
	.globl	mbedtls_ssl_flush_output
	.type	mbedtls_ssl_flush_output, @function
mbedtls_ssl_flush_output:
.LFB34:
	.loc 1 2438 1 is_stmt 1
	.cfi_startproc
.LVL218:
	.loc 1 2439 5
	.loc 1 2440 5
	.loc 1 2442 5
	.loc 1 2438 1 is_stmt 0
	addi	sp,sp,-48
	.cfi_def_cfa_offset 48
	sw	s1,36(sp)
	sw	s2,32(sp)
	.loc 1 2442 5
	lui	a4,%hi(.LC32)
	.cfi_offset 9, -12
	.cfi_offset 18, -16
	li	s1,4096
	lui	s2,%hi(.LC1)
	addi	a4,a4,%lo(.LC32)
	addi	a3,s1,-1654
	addi	a2,s2,%lo(.LC1)
	li	a1,2
	.loc 1 2438 1
	sw	s0,40(sp)
	sw	ra,44(sp)
	.cfi_offset 8, -8
	.cfi_offset 1, -4
	mv	s0,a0
	sw	s3,28(sp)
	sw	s4,24(sp)
	sw	s5,20(sp)
	sw	s6,16(sp)
	.cfi_offset 19, -20
	.cfi_offset 20, -24
	.cfi_offset 21, -28
	.cfi_offset 22, -32
	.loc 1 2442 5
	call	mbedtls_debug_print_msg
.LVL219:
	.loc 1 2444 5 is_stmt 1
	.loc 1 2444 7 is_stmt 0
	lw	a5,16(s0)
	bne	a5,zero,.L103
	.loc 1 2446 9 is_stmt 1
	lui	a4,%hi(.LC33)
	addi	a3,s1,-1649
	addi	a4,a4,%lo(.LC33)
	addi	a2,s2,%lo(.LC1)
	li	a1,1
	mv	a0,s0
	.loc 1 2448 15 is_stmt 0
	li	s1,-28672
	.loc 1 2446 9
	call	mbedtls_debug_print_msg
.LVL220:
	.loc 1 2448 9 is_stmt 1
	.loc 1 2448 15 is_stmt 0
	addi	s1,s1,-256
.L102:
	.loc 1 2489 1
	lw	ra,44(sp)
	.cfi_remember_state
	.cfi_restore 1
	lw	s0,40(sp)
	.cfi_restore 8
.LVL221:
	mv	a0,s1
	lw	s2,32(sp)
	.cfi_restore 18
	lw	s1,36(sp)
	.cfi_restore 9
	lw	s3,28(sp)
	.cfi_restore 19
	lw	s4,24(sp)
	.cfi_restore 20
	lw	s5,20(sp)
	.cfi_restore 21
	lw	s6,16(sp)
	.cfi_restore 22
	addi	sp,sp,48
	.cfi_def_cfa_offset 0
	jr	ra
.LVL222:
.L103:
	.cfi_restore_state
	.loc 1 2452 5 is_stmt 1
	.loc 1 2452 7 is_stmt 0
	lw	a5,172(s0)
	beq	a5,zero,.L117
	mv	s3,s2
.LBB42:
.LBB43:
	.loc 1 2460 9
	lui	s4,%hi(.LC35)
	addi	s5,s1,-1635
	.loc 1 2467 9
	lui	s6,%hi(.LC36)
	addi	s2,s1,-1629
.L105:
	.loc 1 2458 15
	lw	a6,172(s0)
	lw	a0,0(s0)
	.loc 1 2458 10
	bne	a6,zero,.L106
	.loc 1 2475 12
	li	a4,8
.L107:
.LVL223:
.LBB44:
.LBB45:
	.loc 1 65 5 is_stmt 1
	.loc 1 65 30 is_stmt 0
	lw	a5,0(s0)
	lhu	a5,104(a5)
	.loc 1 66 15
	andi	a5,a5,2
.LBE45:
.LBE44:
	.loc 1 2475 5
	bleu	a4,a5,.L113
	.loc 1 2476 9 is_stmt 1
	.loc 1 2476 27 is_stmt 0
	lw	a3,144(s0)
	addi	a2,a4,-1
	add	a3,a3,a2
	.loc 1 2476 13
	lbu	a5,0(a3)
	addi	a5,a5,1
	andi	a5,a5,0xff
	.loc 1 2476 11
	sb	a5,0(a3)
	beq	a5,zero,.L108
.L113:
	.loc 1 2480 5 is_stmt 1
.LVL224:
.LBB46:
.LBB47:
	.loc 1 65 5
	.loc 1 65 30 is_stmt 0
	lw	a5,0(s0)
	lhu	a5,104(a5)
	.loc 1 65 7
	andi	a5,a5,2
	beq	a5,zero,.L110
	.loc 1 66 15
	li	a6,2
.L110:
.LBE47:
.LBE46:
	.loc 1 2480 7
	bne	a4,a6,.L114
	.loc 1 2482 9 is_stmt 1
	lui	a4,%hi(.LC37)
.LVL225:
	li	a3,4096
	addi	a4,a4,%lo(.LC37)
	addi	a3,a3,-1614
	addi	a2,s3,%lo(.LC1)
	li	a1,1
	mv	a0,s0
	.loc 1 2483 15 is_stmt 0
	li	s1,-28672
	.loc 1 2482 9
	call	mbedtls_debug_print_msg
.LVL226:
	.loc 1 2483 9 is_stmt 1
	.loc 1 2483 15 is_stmt 0
	addi	s1,s1,1152
	j	.L102
.LVL227:
.L117:
.LBE43:
.LBE42:
	.loc 1 2454 9 is_stmt 1
	lui	a4,%hi(.LC34)
	addi	a4,a4,%lo(.LC34)
	addi	a3,s1,-1642
	addi	a2,s2,%lo(.LC1)
.L119:
.LBB49:
.LBB48:
	.loc 1 2486 5 is_stmt 0
	li	a1,2
	mv	a0,s0
	call	mbedtls_debug_print_msg
.LVL228:
	.loc 1 2488 5 is_stmt 1
	.loc 1 2488 11 is_stmt 0
	li	s1,0
	j	.L102
.L106:
	sw	a6,12(sp)
	.loc 1 2460 9 is_stmt 1
	.loc 1 2460 47 is_stmt 0
	call	mbedtls_ssl_hdr_len.isra.1
.LVL229:
	.loc 1 2460 9
	lw	a5,168(s0)
	lw	a6,12(sp)
	addi	a4,s4,%lo(.LC35)
	add	a5,a0,a5
	mv	a3,s5
	addi	a2,s3,%lo(.LC1)
	li	a1,2
	mv	a0,s0
	call	mbedtls_debug_print_msg
.LVL230:
	.loc 1 2463 9 is_stmt 1
	.loc 1 2463 30 is_stmt 0
	lw	a0,0(s0)
	call	mbedtls_ssl_hdr_len.isra.1
.LVL231:
	.loc 1 2464 36
	lw	a2,172(s0)
.LVL232:
	.loc 1 2465 9 is_stmt 1
	.loc 1 2464 31 is_stmt 0
	lw	a1,168(s0)
	.loc 1 2465 15
	lw	a5,16(s0)
	.loc 1 2464 31
	sub	a1,a1,a2
	add	a0,a1,a0
.LVL233:
	.loc 1 2463 13
	lw	a1,148(s0)
	.loc 1 2465 15
	add	a1,a1,a0
	lw	a0,28(s0)
	jalr	a5
.LVL234:
	mv	s1,a0
.LVL235:
	.loc 1 2467 9 is_stmt 1
	mv	a5,a0
	addi	a4,s6,%lo(.LC36)
	mv	a3,s2
	addi	a2,s3,%lo(.LC1)
	li	a1,2
	mv	a0,s0
	call	mbedtls_debug_print_ret
.LVL236:
	.loc 1 2469 9
	.loc 1 2469 11 is_stmt 0
	ble	s1,zero,.L102
	.loc 1 2472 9 is_stmt 1
	.loc 1 2472 23 is_stmt 0
	lw	a5,172(s0)
	sub	s1,a5,s1
.LVL237:
	sw	s1,172(s0)
	j	.L105
.LVL238:
.L108:
	.loc 1 2475 41
	andi	a4,a2,0xff
.LVL239:
	j	.L107
.LVL240:
.L114:
	.loc 1 2486 5 is_stmt 1
	lui	a4,%hi(.LC34)
.LVL241:
	li	a3,4096
	addi	a4,a4,%lo(.LC34)
	addi	a3,a3,-1610
	addi	a2,s3,%lo(.LC1)
	j	.L119
.LBE48:
.LBE49:
	.cfi_endproc
.LFE34:
	.size	mbedtls_ssl_flush_output, .-mbedtls_ssl_flush_output
	.section	.text.mbedtls_ssl_recv_flight_completed,"ax",@progbits
	.align	1
	.globl	mbedtls_ssl_recv_flight_completed
	.type	mbedtls_ssl_recv_flight_completed, @function
mbedtls_ssl_recv_flight_completed:
.LFB39:
	.loc 1 2675 1
	.cfi_startproc
.LVL242:
	.loc 1 2677 5
	.loc 1 2675 1 is_stmt 0
	addi	sp,sp,-16
	.cfi_def_cfa_offset 16
	sw	ra,12(sp)
	sw	s0,8(sp)
	.cfi_offset 1, -4
	.cfi_offset 8, -8
	.loc 1 2677 5
	lw	a5,48(a0)
	.loc 1 2675 1
	mv	s0,a0
	.loc 1 2677 5
	lw	a0,56(a5)
.LVL243:
	call	ssl_flight_free
.LVL244:
	.loc 1 2678 5 is_stmt 1
	.loc 1 2678 8 is_stmt 0
	lw	a5,48(s0)
	.loc 1 2685 5
	li	a1,0
	mv	a0,s0
	.loc 1 2678 28
	sw	zero,56(a5)
	.loc 1 2679 5 is_stmt 1
	.loc 1 2679 8 is_stmt 0
	lw	a5,48(s0)
	.loc 1 2679 29
	sw	zero,60(a5)
	.loc 1 2682 5 is_stmt 1
	.loc 1 2682 46 is_stmt 0
	lw	a5,48(s0)
	.loc 1 2682 41
	lw	a4,32(a5)
	sw	a4,64(a5)
	.loc 1 2685 5 is_stmt 1
	call	ssl_set_timer
.LVL245:
	.loc 1 2687 5
	.loc 1 2687 7 is_stmt 0
	lw	a3,108(s0)
	li	a4,22
	lw	a5,48(s0)
	bne	a3,a4,.L121
	.loc 1 2688 20 discriminator 1
	lw	a4,100(s0)
	.loc 1 2687 31 discriminator 1
	lbu	a3,0(a4)
	li	a4,20
	bne	a3,a4,.L121
	.loc 1 2690 9 is_stmt 1
	.loc 1 2690 42 is_stmt 0
	li	a4,3
	sb	a4,52(a5)
.L120:
	.loc 1 2694 1
	lw	ra,12(sp)
	.cfi_remember_state
	.cfi_restore 1
	lw	s0,8(sp)
	.cfi_restore 8
.LVL246:
	addi	sp,sp,16
	.cfi_def_cfa_offset 0
	jr	ra
.LVL247:
.L121:
	.cfi_restore_state
	.loc 1 2693 9 is_stmt 1
	.loc 1 2693 42 is_stmt 0
	sb	zero,52(a5)
	.loc 1 2694 1
	j	.L120
	.cfi_endproc
.LFE39:
	.size	mbedtls_ssl_recv_flight_completed, .-mbedtls_ssl_recv_flight_completed
	.section	.text.mbedtls_ssl_send_flight_completed,"ax",@progbits
	.align	1
	.globl	mbedtls_ssl_send_flight_completed
	.type	mbedtls_ssl_send_flight_completed, @function
mbedtls_ssl_send_flight_completed:
.LFB40:
	.loc 1 2700 1 is_stmt 1
	.cfi_startproc
.LVL248:
	.loc 1 2701 5
.LBB52:
.LBB53:
	.loc 1 133 5
.LBE53:
.LBE52:
	.loc 1 2700 1 is_stmt 0
	addi	sp,sp,-16
	.cfi_def_cfa_offset 16
	sw	ra,12(sp)
	sw	s0,8(sp)
	.cfi_offset 1, -4
	.cfi_offset 8, -8
.LBB56:
.LBB54:
	.loc 1 133 51
	lw	a4,0(a0)
	.loc 1 133 8
	lw	a5,48(a0)
	.loc 1 134 5
	lui	a2,%hi(.LC1)
	.loc 1 133 51
	lw	a4,92(a4)
	.loc 1 134 5
	li	a3,135
	addi	a2,a2,%lo(.LC1)
	.loc 1 133 40
	sw	a4,48(a5)
	.loc 1 134 5 is_stmt 1
	lw	a5,48(a0)
	lui	a4,%hi(.LC38)
	addi	a4,a4,%lo(.LC38)
	lw	a5,48(a5)
	li	a1,3
.LBE54:
.LBE56:
	.loc 1 2700 1 is_stmt 0
	mv	s0,a0
.LBB57:
.LBB55:
	.loc 1 134 5
	call	mbedtls_debug_print_msg
.LVL249:
.LBE55:
.LBE57:
	.loc 1 2702 5 is_stmt 1
	lw	a5,48(s0)
	mv	a0,s0
	lw	a1,48(a5)
	call	ssl_set_timer
.LVL250:
	.loc 1 2704 5
	.loc 1 2704 7 is_stmt 0
	lw	a3,108(s0)
	li	a4,22
	lw	a5,48(s0)
	bne	a3,a4,.L125
	.loc 1 2705 20 discriminator 1
	lw	a4,100(s0)
	.loc 1 2704 31 discriminator 1
	lbu	a3,0(a4)
	li	a4,20
	bne	a3,a4,.L125
	.loc 1 2707 9 is_stmt 1
	.loc 1 2707 42 is_stmt 0
	li	a4,3
.L128:
	.loc 1 2710 42
	sb	a4,52(a5)
	.loc 1 2711 1
	lw	ra,12(sp)
	.cfi_remember_state
	.cfi_restore 1
	lw	s0,8(sp)
	.cfi_restore 8
.LVL251:
	addi	sp,sp,16
	.cfi_def_cfa_offset 0
	jr	ra
.LVL252:
.L125:
	.cfi_restore_state
	.loc 1 2710 9 is_stmt 1
	.loc 1 2710 42 is_stmt 0
	li	a4,2
	j	.L128
	.cfi_endproc
.LFE40:
	.size	mbedtls_ssl_send_flight_completed, .-mbedtls_ssl_send_flight_completed
	.section	.text.mbedtls_ssl_update_handshake_status,"ax",@progbits
	.align	1
	.globl	mbedtls_ssl_update_handshake_status
	.type	mbedtls_ssl_update_handshake_status, @function
mbedtls_ssl_update_handshake_status:
.LFB46:
	.loc 1 3185 1 is_stmt 1
	.cfi_startproc
.LVL253:
	.loc 1 3187 5
	.loc 1 3187 7 is_stmt 0
	lw	a4,4(a0)
	.loc 1 3185 1
	addi	sp,sp,-16
	.cfi_def_cfa_offset 16
	sw	s0,8(sp)
	sw	ra,12(sp)
	.cfi_offset 8, -8
	.cfi_offset 1, -4
	.loc 1 3187 7
	li	a5,16
	.loc 1 3185 1
	mv	s0,a0
	.loc 1 3187 7
	beq	a4,a5,.L130
	.loc 1 3188 12 discriminator 1
	lw	a5,48(a0)
	.loc 1 3187 50 discriminator 1
	beq	a5,zero,.L130
	.loc 1 3190 9 is_stmt 1
	lw	a5,196(a5)
	lw	a2,128(a0)
	lw	a1,100(a0)
	jalr	a5
.LVL254:
.L130:
	.loc 1 3195 5
	.loc 1 3195 30 is_stmt 0
	lw	a5,0(s0)
	lhu	a5,104(a5)
	.loc 1 3195 7
	andi	a5,a5,2
	beq	a5,zero,.L129
.LVL255:
.LBB60:
.LBB61:
	.loc 1 3196 12
	lw	a5,48(s0)
	.loc 1 3195 35
	beq	a5,zero,.L129
	.loc 1 3198 9 is_stmt 1
	.loc 1 3198 35 is_stmt 0
	lw	a4,32(a5)
	addi	a4,a4,1
	sw	a4,32(a5)
.LVL256:
.L129:
.LBE61:
.LBE60:
	.loc 1 3201 1
	lw	ra,12(sp)
	.cfi_restore 1
	lw	s0,8(sp)
	.cfi_restore 8
.LVL257:
	addi	sp,sp,16
	.cfi_def_cfa_offset 0
	jr	ra
	.cfi_endproc
.LFE46:
	.size	mbedtls_ssl_update_handshake_status, .-mbedtls_ssl_update_handshake_status
	.section	.text.mbedtls_ssl_optimize_checksum,"ax",@progbits
	.align	1
	.globl	mbedtls_ssl_optimize_checksum
	.type	mbedtls_ssl_optimize_checksum, @function
mbedtls_ssl_optimize_checksum:
.LFB58:
	.loc 1 4632 1 is_stmt 1
	.cfi_startproc
.LVL258:
	.loc 1 4633 5
	.loc 1 4648 5
	.loc 1 4648 7 is_stmt 0
	lbu	a3,9(a1)
	li	a4,7
	beq	a3,a4,.L143
	.loc 1 4649 9 is_stmt 1
	.loc 1 4649 12 is_stmt 0
	lw	a4,48(a0)
	.loc 1 4649 41
	lui	a5,%hi(ssl_update_checksum_sha256)
	addi	a5,a5,%lo(ssl_update_checksum_sha256)
	sw	a5,196(a4)
	.loc 1 4657 1
	ret
.L143:
	.loc 1 4654 9 is_stmt 1
	lui	a4,%hi(.LC17)
	li	a3,4096
	lui	a2,%hi(.LC1)
	addi	a4,a4,%lo(.LC17)
	addi	a3,a3,558
	addi	a2,a2,%lo(.LC1)
	li	a1,1
.LVL259:
	tail	mbedtls_debug_print_msg
.LVL260:
	.cfi_endproc
.LFE58:
	.size	mbedtls_ssl_optimize_checksum, .-mbedtls_ssl_optimize_checksum
	.section	.text.mbedtls_ssl_reset_checksum,"ax",@progbits
	.align	1
	.globl	mbedtls_ssl_reset_checksum
	.type	mbedtls_ssl_reset_checksum, @function
mbedtls_ssl_reset_checksum:
.LFB59:
	.loc 1 4660 1
	.cfi_startproc
.LVL261:
	.loc 1 4673 5
	lw	a0,48(a0)
.LVL262:
	li	a1,0
	addi	a0,a0,80
	tail	mbedtls_sha256_starts
.LVL263:
	.cfi_endproc
.LFE59:
	.size	mbedtls_ssl_reset_checksum, .-mbedtls_ssl_reset_checksum
	.section	.text.mbedtls_ssl_session_init,"ax",@progbits
	.align	1
	.globl	mbedtls_ssl_session_init
	.type	mbedtls_ssl_session_init, @function
mbedtls_ssl_session_init:
.LFB69:
	.loc 1 5382 1
	.cfi_startproc
.LVL264:
	.loc 1 5383 5
	li	a2,116
	li	a1,0
	tail	memset
.LVL265:
	.cfi_endproc
.LFE69:
	.size	mbedtls_ssl_session_init, .-mbedtls_ssl_session_init
	.section	.text.mbedtls_ssl_init,"ax",@progbits
	.align	1
	.globl	mbedtls_ssl_init
	.type	mbedtls_ssl_init, @function
mbedtls_ssl_init:
.LFB71:
	.loc 1 5488 1
	.cfi_startproc
.LVL266:
	.loc 1 5489 5
	li	a2,192
	li	a1,0
	tail	memset
.LVL267:
	.cfi_endproc
.LFE71:
	.size	mbedtls_ssl_init, .-mbedtls_ssl_init
	.section	.text.mbedtls_ssl_conf_endpoint,"ax",@progbits
	.align	1
	.globl	mbedtls_ssl_conf_endpoint
	.type	mbedtls_ssl_conf_endpoint, @function
mbedtls_ssl_conf_endpoint:
.LFB75:
	.loc 1 5671 1
	.cfi_startproc
.LVL268:
	.loc 1 5672 5
	.loc 1 5672 20 is_stmt 0
	lhu	a5,104(a0)
	andi	a1,a1,1
.LVL269:
	andi	a5,a5,-2
	or	a5,a5,a1
	sh	a5,104(a0)
	.loc 1 5673 1
	ret
	.cfi_endproc
.LFE75:
	.size	mbedtls_ssl_conf_endpoint, .-mbedtls_ssl_conf_endpoint
	.section	.text.mbedtls_ssl_conf_transport,"ax",@progbits
	.align	1
	.globl	mbedtls_ssl_conf_transport
	.type	mbedtls_ssl_conf_transport, @function
mbedtls_ssl_conf_transport:
.LFB76:
	.loc 1 5676 1 is_stmt 1
	.cfi_startproc
.LVL270:
	.loc 1 5677 5
	.loc 1 5677 21 is_stmt 0
	andi	a1,a1,1
.LVL271:
	slli	a5,a1,1
	lhu	a1,104(a0)
	andi	a1,a1,-3
	or	a1,a1,a5
	sh	a1,104(a0)
	.loc 1 5678 1
	ret
	.cfi_endproc
.LFE76:
	.size	mbedtls_ssl_conf_transport, .-mbedtls_ssl_conf_transport
	.section	.text.mbedtls_ssl_conf_handshake_timeout,"ax",@progbits
	.align	1
	.globl	mbedtls_ssl_conf_handshake_timeout
	.type	mbedtls_ssl_conf_handshake_timeout, @function
mbedtls_ssl_conf_handshake_timeout:
.LFB77:
	.loc 1 5696 1 is_stmt 1
	.cfi_startproc
.LVL272:
	.loc 1 5697 5
	.loc 1 5697 26 is_stmt 0
	sw	a1,92(a0)
	.loc 1 5698 5 is_stmt 1
	.loc 1 5698 26 is_stmt 0
	sw	a2,96(a0)
	.loc 1 5699 1
	ret
	.cfi_endproc
.LFE77:
	.size	mbedtls_ssl_conf_handshake_timeout, .-mbedtls_ssl_conf_handshake_timeout
	.section	.text.mbedtls_ssl_conf_authmode,"ax",@progbits
	.align	1
	.globl	mbedtls_ssl_conf_authmode
	.type	mbedtls_ssl_conf_authmode, @function
mbedtls_ssl_conf_authmode:
.LFB78:
	.loc 1 5703 1 is_stmt 1
	.cfi_startproc
.LVL273:
	.loc 1 5704 5
	.loc 1 5704 20 is_stmt 0
	andi	a1,a1,3
.LVL274:
	slli	a5,a1,2
	lhu	a1,104(a0)
	andi	a1,a1,-13
	or	a1,a1,a5
	sh	a1,104(a0)
	.loc 1 5705 1
	ret
	.cfi_endproc
.LFE78:
	.size	mbedtls_ssl_conf_authmode, .-mbedtls_ssl_conf_authmode
	.section	.text.mbedtls_ssl_conf_verify,"ax",@progbits
	.align	1
	.globl	mbedtls_ssl_conf_verify
	.type	mbedtls_ssl_conf_verify, @function
mbedtls_ssl_conf_verify:
.LFB79:
	.loc 1 5711 1 is_stmt 1
	.cfi_startproc
.LVL275:
	.loc 1 5712 5
	.loc 1 5712 18 is_stmt 0
	sw	a1,52(a0)
	.loc 1 5713 5 is_stmt 1
	.loc 1 5713 18 is_stmt 0
	sw	a2,56(a0)
	.loc 1 5714 1
	ret
	.cfi_endproc
.LFE79:
	.size	mbedtls_ssl_conf_verify, .-mbedtls_ssl_conf_verify
	.section	.text.mbedtls_ssl_conf_rng,"ax",@progbits
	.align	1
	.globl	mbedtls_ssl_conf_rng
	.type	mbedtls_ssl_conf_rng, @function
mbedtls_ssl_conf_rng:
.LFB80:
	.loc 1 5720 1 is_stmt 1
	.cfi_startproc
.LVL276:
	.loc 1 5721 5
	.loc 1 5721 17 is_stmt 0
	sw	a1,24(a0)
	.loc 1 5722 5 is_stmt 1
	.loc 1 5722 17 is_stmt 0
	sw	a2,28(a0)
	.loc 1 5723 1
	ret
	.cfi_endproc
.LFE80:
	.size	mbedtls_ssl_conf_rng, .-mbedtls_ssl_conf_rng
	.section	.text.mbedtls_ssl_conf_dbg,"ax",@progbits
	.align	1
	.globl	mbedtls_ssl_conf_dbg
	.type	mbedtls_ssl_conf_dbg, @function
mbedtls_ssl_conf_dbg:
.LFB81:
	.loc 1 5728 1 is_stmt 1
	.cfi_startproc
.LVL277:
	.loc 1 5729 5
	.loc 1 5729 17 is_stmt 0
	sw	a1,16(a0)
	.loc 1 5730 5 is_stmt 1
	.loc 1 5730 17 is_stmt 0
	sw	a2,20(a0)
	.loc 1 5731 1
	ret
	.cfi_endproc
.LFE81:
	.size	mbedtls_ssl_conf_dbg, .-mbedtls_ssl_conf_dbg
	.section	.text.mbedtls_ssl_set_bio,"ax",@progbits
	.align	1
	.globl	mbedtls_ssl_set_bio
	.type	mbedtls_ssl_set_bio, @function
mbedtls_ssl_set_bio:
.LFB82:
	.loc 1 5738 1 is_stmt 1
	.cfi_startproc
.LVL278:
	.loc 1 5739 5
	.loc 1 5739 16 is_stmt 0
	sw	a1,28(a0)
	.loc 1 5740 5 is_stmt 1
	.loc 1 5740 17 is_stmt 0
	sw	a2,16(a0)
	.loc 1 5741 5 is_stmt 1
	.loc 1 5741 17 is_stmt 0
	sw	a3,20(a0)
	.loc 1 5742 5 is_stmt 1
	.loc 1 5742 25 is_stmt 0
	sw	a4,24(a0)
	.loc 1 5743 1
	ret
	.cfi_endproc
.LFE82:
	.size	mbedtls_ssl_set_bio, .-mbedtls_ssl_set_bio
	.section	.text.mbedtls_ssl_conf_read_timeout,"ax",@progbits
	.align	1
	.globl	mbedtls_ssl_conf_read_timeout
	.type	mbedtls_ssl_conf_read_timeout, @function
mbedtls_ssl_conf_read_timeout:
.LFB83:
	.loc 1 5746 1 is_stmt 1
	.cfi_startproc
.LVL279:
	.loc 1 5747 5
	.loc 1 5747 24 is_stmt 0
	sw	a1,88(a0)
	.loc 1 5748 1
	ret
	.cfi_endproc
.LFE83:
	.size	mbedtls_ssl_conf_read_timeout, .-mbedtls_ssl_conf_read_timeout
	.section	.text.mbedtls_ssl_set_timer_cb,"ax",@progbits
	.align	1
	.globl	mbedtls_ssl_set_timer_cb
	.type	mbedtls_ssl_set_timer_cb, @function
mbedtls_ssl_set_timer_cb:
.LFB84:
	.loc 1 5754 1 is_stmt 1
	.cfi_startproc
.LVL280:
	.loc 1 5755 5
	.loc 1 5755 18 is_stmt 0
	sw	a1,68(a0)
	.loc 1 5756 5 is_stmt 1
	.loc 1 5756 22 is_stmt 0
	sw	a2,72(a0)
	.loc 1 5757 5 is_stmt 1
	.loc 1 5757 22 is_stmt 0
	sw	a3,76(a0)
	.loc 1 5760 5 is_stmt 1
	li	a1,0
.LVL281:
	tail	ssl_set_timer
.LVL282:
	.cfi_endproc
.LFE84:
	.size	mbedtls_ssl_set_timer_cb, .-mbedtls_ssl_set_timer_cb
	.section	.text.mbedtls_ssl_conf_ciphersuites,"ax",@progbits
	.align	1
	.globl	mbedtls_ssl_conf_ciphersuites
	.type	mbedtls_ssl_conf_ciphersuites, @function
mbedtls_ssl_conf_ciphersuites:
.LFB86:
	.loc 1 5799 1
	.cfi_startproc
.LVL283:
	.loc 1 5800 5
	.loc 1 5800 31 is_stmt 0
	sw	a1,0(a0)
	.loc 1 5801 5 is_stmt 1
	.loc 1 5801 31 is_stmt 0
	sw	a1,4(a0)
	.loc 1 5802 5 is_stmt 1
	.loc 1 5802 31 is_stmt 0
	sw	a1,8(a0)
	.loc 1 5803 5 is_stmt 1
	.loc 1 5803 31 is_stmt 0
	sw	a1,12(a0)
	.loc 1 5804 1
	ret
	.cfi_endproc
.LFE86:
	.size	mbedtls_ssl_conf_ciphersuites, .-mbedtls_ssl_conf_ciphersuites
	.section	.text.mbedtls_ssl_conf_ciphersuites_for_version,"ax",@progbits
	.align	1
	.globl	mbedtls_ssl_conf_ciphersuites_for_version
	.type	mbedtls_ssl_conf_ciphersuites_for_version, @function
mbedtls_ssl_conf_ciphersuites_for_version:
.LFB87:
	.loc 1 5809 1 is_stmt 1
	.cfi_startproc
.LVL284:
	.loc 1 5810 5
	.loc 1 5810 7 is_stmt 0
	li	a5,3
	bne	a2,a5,.L160
	.loc 1 5813 5 is_stmt 1
	.loc 1 5813 7 is_stmt 0
	bgtu	a3,a2,.L160
	.loc 1 5816 5 is_stmt 1
	.loc 1 5816 35 is_stmt 0
	slli	a3,a3,2
.LVL285:
	add	a3,a0,a3
	sw	a1,0(a3)
.L160:
	.loc 1 5817 1
	ret
	.cfi_endproc
.LFE87:
	.size	mbedtls_ssl_conf_ciphersuites_for_version, .-mbedtls_ssl_conf_ciphersuites_for_version
	.section	.text.mbedtls_ssl_conf_cert_profile,"ax",@progbits
	.align	1
	.globl	mbedtls_ssl_conf_cert_profile
	.type	mbedtls_ssl_conf_cert_profile, @function
mbedtls_ssl_conf_cert_profile:
.LFB88:
	.loc 1 5822 1 is_stmt 1
	.cfi_startproc
.LVL286:
	.loc 1 5823 5
	.loc 1 5823 24 is_stmt 0
	sw	a1,60(a0)
	.loc 1 5824 1
	ret
	.cfi_endproc
.LFE88:
	.size	mbedtls_ssl_conf_cert_profile, .-mbedtls_ssl_conf_cert_profile
	.section	.text.mbedtls_ssl_conf_own_cert,"ax",@progbits
	.align	1
	.globl	mbedtls_ssl_conf_own_cert
	.type	mbedtls_ssl_conf_own_cert, @function
mbedtls_ssl_conf_own_cert:
.LFB90:
	.loc 1 5860 1 is_stmt 1
	.cfi_startproc
.LVL287:
	.loc 1 5861 5
	.loc 1 5861 13 is_stmt 0
	addi	a0,a0,64
.LVL288:
	tail	ssl_append_key_cert
.LVL289:
	.cfi_endproc
.LFE90:
	.size	mbedtls_ssl_conf_own_cert, .-mbedtls_ssl_conf_own_cert
	.section	.text.mbedtls_ssl_conf_ca_chain,"ax",@progbits
	.align	1
	.globl	mbedtls_ssl_conf_ca_chain
	.type	mbedtls_ssl_conf_ca_chain, @function
mbedtls_ssl_conf_ca_chain:
.LFB91:
	.loc 1 5867 1 is_stmt 1
	.cfi_startproc
.LVL290:
	.loc 1 5868 5
	.loc 1 5868 20 is_stmt 0
	sw	a1,68(a0)
	.loc 1 5869 5 is_stmt 1
	.loc 1 5869 18 is_stmt 0
	sw	a2,72(a0)
	.loc 1 5870 1
	ret
	.cfi_endproc
.LFE91:
	.size	mbedtls_ssl_conf_ca_chain, .-mbedtls_ssl_conf_ca_chain
	.section	.text.mbedtls_ssl_set_hs_own_cert,"ax",@progbits
	.align	1
	.globl	mbedtls_ssl_set_hs_own_cert
	.type	mbedtls_ssl_set_hs_own_cert, @function
mbedtls_ssl_set_hs_own_cert:
.LFB92:
	.loc 1 5877 1 is_stmt 1
	.cfi_startproc
.LVL291:
	.loc 1 5878 5
	.loc 1 5878 13 is_stmt 0
	lw	a0,48(a0)
.LVL292:
	addi	a0,a0,16
	tail	ssl_append_key_cert
.LVL293:
	.cfi_endproc
.LFE92:
	.size	mbedtls_ssl_set_hs_own_cert, .-mbedtls_ssl_set_hs_own_cert
	.section	.text.mbedtls_ssl_set_hs_ca_chain,"ax",@progbits
	.align	1
	.globl	mbedtls_ssl_set_hs_ca_chain
	.type	mbedtls_ssl_set_hs_ca_chain, @function
mbedtls_ssl_set_hs_ca_chain:
.LFB93:
	.loc 1 5885 1 is_stmt 1
	.cfi_startproc
.LVL294:
	.loc 1 5886 5
	.loc 1 5886 8 is_stmt 0
	lw	a5,48(a0)
	.loc 1 5886 34
	sw	a1,20(a5)
	.loc 1 5887 5 is_stmt 1
	.loc 1 5887 8 is_stmt 0
	lw	a5,48(a0)
	.loc 1 5887 32
	sw	a2,24(a5)
	.loc 1 5888 1
	ret
	.cfi_endproc
.LFE93:
	.size	mbedtls_ssl_set_hs_ca_chain, .-mbedtls_ssl_set_hs_ca_chain
	.section	.text.mbedtls_ssl_set_hs_authmode,"ax",@progbits
	.align	1
	.globl	mbedtls_ssl_set_hs_authmode
	.type	mbedtls_ssl_set_hs_authmode, @function
mbedtls_ssl_set_hs_authmode:
.LFB94:
	.loc 1 5892 1 is_stmt 1
	.cfi_startproc
.LVL295:
	.loc 1 5893 5
	.loc 1 5893 8 is_stmt 0
	lw	a5,48(a0)
	.loc 1 5893 34
	sw	a1,12(a5)
	.loc 1 5894 1
	ret
	.cfi_endproc
.LFE94:
	.size	mbedtls_ssl_set_hs_authmode, .-mbedtls_ssl_set_hs_authmode
	.section	.text.mbedtls_ssl_conf_sig_hashes,"ax",@progbits
	.align	1
	.globl	mbedtls_ssl_conf_sig_hashes
	.type	mbedtls_ssl_conf_sig_hashes, @function
mbedtls_ssl_conf_sig_hashes:
.LFB95:
	.loc 1 6048 1 is_stmt 1
	.cfi_startproc
.LVL296:
	.loc 1 6049 5
	.loc 1 6049 22 is_stmt 0
	sw	a1,76(a0)
	.loc 1 6050 1
	ret
	.cfi_endproc
.LFE95:
	.size	mbedtls_ssl_conf_sig_hashes, .-mbedtls_ssl_conf_sig_hashes
	.section	.text.mbedtls_ssl_conf_curves,"ax",@progbits
	.align	1
	.globl	mbedtls_ssl_conf_curves
	.type	mbedtls_ssl_conf_curves, @function
mbedtls_ssl_conf_curves:
.LFB96:
	.loc 1 6059 1 is_stmt 1
	.cfi_startproc
.LVL297:
	.loc 1 6060 5
	.loc 1 6060 22 is_stmt 0
	sw	a1,80(a0)
	.loc 1 6061 1
	ret
	.cfi_endproc
.LFE96:
	.size	mbedtls_ssl_conf_curves, .-mbedtls_ssl_conf_curves
	.section	.text.mbedtls_ssl_set_hostname,"ax",@progbits
	.align	1
	.globl	mbedtls_ssl_set_hostname
	.type	mbedtls_ssl_set_hostname, @function
mbedtls_ssl_set_hostname:
.LFB97:
	.loc 1 6066 1 is_stmt 1
	.cfi_startproc
.LVL298:
	.loc 1 6067 5
	.loc 1 6069 5
	.loc 1 6069 7 is_stmt 0
	bne	a1,zero,.L171
	.loc 1 6070 15
	li	a0,-28672
.LVL299:
	addi	a0,a0,-256
	.loc 1 6090 1
	ret
.LVL300:
.L173:
	.cfi_def_cfa_offset 16
	.cfi_offset 1, -4
	.cfi_offset 8, -8
	.cfi_offset 9, -12
	.cfi_offset 18, -16
	.loc 1 6070 15
	li	a0,-28672
	addi	a0,a0,-256
.LVL301:
.L170:
	.loc 1 6090 1
	lw	ra,12(sp)
	.cfi_restore 1
	lw	s0,8(sp)
	.cfi_restore 8
.LVL302:
	lw	s1,4(sp)
	.cfi_restore 9
	lw	s2,0(sp)
	.cfi_restore 18
.LVL303:
	addi	sp,sp,16
	.cfi_def_cfa_offset 0
	jr	ra
.LVL304:
.L171:
	.loc 1 6066 1
	addi	sp,sp,-16
	.cfi_def_cfa_offset 16
	sw	s2,0(sp)
	.cfi_offset 18, -16
	mv	s2,a0
	.loc 1 6072 5 is_stmt 1
	.loc 1 6072 20 is_stmt 0
	mv	a0,a1
.LVL305:
	.loc 1 6066 1
	sw	s0,8(sp)
	sw	s1,4(sp)
	sw	ra,12(sp)
	.cfi_offset 8, -8
	.cfi_offset 9, -12
	.cfi_offset 1, -4
	mv	s0,a1
	.loc 1 6072 20
	call	strlen
.LVL306:
	.loc 1 6077 7
	li	a5,255
	.loc 1 6072 20
	mv	s1,a0
.LVL307:
	.loc 1 6074 5 is_stmt 1
	.loc 1 6077 5
	.loc 1 6077 7 is_stmt 0
	bgtu	a0,a5,.L173
	.loc 1 6080 5 is_stmt 1
	.loc 1 6080 21 is_stmt 0
	addi	a1,a0,1
	li	a0,1
	call	mycalloc
.LVL308:
	.loc 1 6080 19
	sw	a0,180(s2)
	.loc 1 6082 5 is_stmt 1
	.loc 1 6082 7 is_stmt 0
	beq	a0,zero,.L174
	.loc 1 6085 5 is_stmt 1
	mv	a2,s1
	mv	a1,s0
	call	memcpy
.LVL309:
	.loc 1 6087 5
	.loc 1 6087 33 is_stmt 0
	lw	a5,180(s2)
	.loc 1 6089 11
	li	a0,0
	.loc 1 6087 33
	add	s1,a5,s1
.LVL310:
	sb	zero,0(s1)
	.loc 1 6089 5 is_stmt 1
	.loc 1 6089 11 is_stmt 0
	j	.L170
.LVL311:
.L174:
	.loc 1 6083 15
	li	a0,-32768
	addi	a0,a0,256
	j	.L170
	.cfi_endproc
.LFE97:
	.size	mbedtls_ssl_set_hostname, .-mbedtls_ssl_set_hostname
	.section	.text.mbedtls_ssl_conf_sni,"ax",@progbits
	.align	1
	.globl	mbedtls_ssl_conf_sni
	.type	mbedtls_ssl_conf_sni, @function
mbedtls_ssl_conf_sni:
.LFB98:
	.loc 1 6098 1 is_stmt 1
	.cfi_startproc
.LVL312:
	.loc 1 6099 5
	.loc 1 6099 17 is_stmt 0
	sw	a1,44(a0)
	.loc 1 6100 5 is_stmt 1
	.loc 1 6100 17 is_stmt 0
	sw	a2,48(a0)
	.loc 1 6101 1
	ret
	.cfi_endproc
.LFE98:
	.size	mbedtls_ssl_conf_sni, .-mbedtls_ssl_conf_sni
	.section	.text.mbedtls_ssl_conf_alpn_protocols,"ax",@progbits
	.align	1
	.globl	mbedtls_ssl_conf_alpn_protocols
	.type	mbedtls_ssl_conf_alpn_protocols, @function
mbedtls_ssl_conf_alpn_protocols:
.LFB99:
	.loc 1 6106 1 is_stmt 1
	.cfi_startproc
.LVL313:
	.loc 1 6107 5
	.loc 1 6108 5
	.loc 1 6115 5
	.loc 1 6116 5
	.loc 1 6106 1 is_stmt 0
	addi	sp,sp,-48
	.cfi_def_cfa_offset 48
	sw	s0,40(sp)
	sw	s1,36(sp)
	sw	s2,32(sp)
	sw	s3,28(sp)
	sw	s4,24(sp)
	sw	ra,44(sp)
	.cfi_offset 8, -8
	.cfi_offset 9, -12
	.cfi_offset 18, -16
	.cfi_offset 19, -20
	.cfi_offset 20, -24
	.cfi_offset 1, -4
	.loc 1 6106 1
	mv	s2,a0
	.loc 1 6116 12
	mv	s0,a1
	.loc 1 6115 13
	li	s1,0
	.loc 1 6121 11
	li	s3,254
	.loc 1 6121 43
	li	s4,65536
.LVL314:
.L180:
	.loc 1 6116 22 discriminator 1
	lw	a0,0(s0)
	.loc 1 6116 5 discriminator 1
	bne	a0,zero,.L182
	.loc 1 6125 5 is_stmt 1
	.loc 1 6125 21 is_stmt 0
	sw	a1,84(s2)
	.loc 1 6127 5 is_stmt 1
.L179:
	.loc 1 6128 1 is_stmt 0
	lw	ra,44(sp)
	.cfi_remember_state
	.cfi_restore 1
	lw	s0,40(sp)
	.cfi_restore 8
.LVL315:
	lw	s1,36(sp)
	.cfi_restore 9
.LVL316:
	lw	s2,32(sp)
	.cfi_restore 18
.LVL317:
	lw	s3,28(sp)
	.cfi_restore 19
	lw	s4,24(sp)
	.cfi_restore 20
	addi	sp,sp,48
	.cfi_def_cfa_offset 0
	jr	ra
.LVL318:
.L182:
	.cfi_restore_state
	sw	a1,12(sp)
	.loc 1 6118 9 is_stmt 1
	.loc 1 6118 19 is_stmt 0
	call	strlen
.LVL319:
	.loc 1 6119 9 is_stmt 1
	.loc 1 6119 17 is_stmt 0
	add	s1,s1,a0
.LVL320:
	.loc 1 6121 9 is_stmt 1
	.loc 1 6121 26 is_stmt 0
	addi	a0,a0,-1
.LVL321:
	.loc 1 6121 11
	bgtu	a0,s3,.L184
	.loc 1 6121 43 discriminator 1
	bgeu	s1,s4,.L184
	.loc 1 6116 34 discriminator 2
	addi	s0,s0,4
.LVL322:
	lw	a1,12(sp)
.LVL323:
	j	.L180
.L184:
	.loc 1 6122 19
	li	a0,-28672
.LVL324:
	addi	a0,a0,-256
	j	.L179
	.cfi_endproc
.LFE99:
	.size	mbedtls_ssl_conf_alpn_protocols, .-mbedtls_ssl_conf_alpn_protocols
	.section	.text.mbedtls_ssl_get_alpn_protocol,"ax",@progbits
	.align	1
	.globl	mbedtls_ssl_get_alpn_protocol
	.type	mbedtls_ssl_get_alpn_protocol, @function
mbedtls_ssl_get_alpn_protocol:
.LFB100:
	.loc 1 6131 1 is_stmt 1
	.cfi_startproc
.LVL325:
	.loc 1 6132 5
	.loc 1 6133 1 is_stmt 0
	lw	a0,184(a0)
.LVL326:
	ret
	.cfi_endproc
.LFE100:
	.size	mbedtls_ssl_get_alpn_protocol, .-mbedtls_ssl_get_alpn_protocol
	.section	.text.mbedtls_ssl_conf_max_version,"ax",@progbits
	.align	1
	.globl	mbedtls_ssl_conf_max_version
	.type	mbedtls_ssl_conf_max_version, @function
mbedtls_ssl_conf_max_version:
.LFB101:
	.loc 1 6137 1 is_stmt 1
	.cfi_startproc
.LVL327:
	.loc 1 6138 5
	.loc 1 6138 25 is_stmt 0
	sb	a1,100(a0)
	.loc 1 6139 5 is_stmt 1
	.loc 1 6139 25 is_stmt 0
	sb	a2,101(a0)
	.loc 1 6140 1
	ret
	.cfi_endproc
.LFE101:
	.size	mbedtls_ssl_conf_max_version, .-mbedtls_ssl_conf_max_version
	.section	.text.mbedtls_ssl_conf_min_version,"ax",@progbits
	.align	1
	.globl	mbedtls_ssl_conf_min_version
	.type	mbedtls_ssl_conf_min_version, @function
mbedtls_ssl_conf_min_version:
.LFB102:
	.loc 1 6143 1 is_stmt 1
	.cfi_startproc
.LVL328:
	.loc 1 6144 5
	.loc 1 6144 25 is_stmt 0
	sb	a1,102(a0)
	.loc 1 6145 5 is_stmt 1
	.loc 1 6145 25 is_stmt 0
	sb	a2,103(a0)
	.loc 1 6146 1
	ret
	.cfi_endproc
.LFE102:
	.size	mbedtls_ssl_conf_min_version, .-mbedtls_ssl_conf_min_version
	.section	.text.mbedtls_ssl_conf_max_frag_len,"ax",@progbits
	.align	1
	.globl	mbedtls_ssl_conf_max_frag_len
	.type	mbedtls_ssl_conf_max_frag_len, @function
mbedtls_ssl_conf_max_frag_len:
.LFB103:
	.loc 1 6178 1 is_stmt 1
	.cfi_startproc
.LVL329:
	.loc 1 6179 5
	.loc 1 6179 7 is_stmt 0
	li	a5,4
	bgtu	a1,a5,.L192
	.loc 1 6180 27 discriminator 1
	lui	a4,%hi(.LANCHOR0)
	addi	a4,a4,%lo(.LANCHOR0)
	slli	a5,a1,2
	add	a5,a4,a5
	.loc 1 6179 23 discriminator 1
	lw	a4,0(a5)
	li	a5,16384
	bgtu	a4,a5,.L192
	.loc 1 6185 5 is_stmt 1
	.loc 1 6185 20 is_stmt 0
	lhu	a5,104(a0)
	andi	a1,a1,7
.LVL330:
	slli	a1,a1,6
	andi	a5,a5,-449
	or	a1,a5,a1
	sh	a1,104(a0)
	.loc 1 6187 5 is_stmt 1
	.loc 1 6187 11 is_stmt 0
	li	a0,0
.LVL331:
	ret
.LVL332:
.L192:
	.loc 1 6182 15
	li	a0,-28672
.LVL333:
	addi	a0,a0,-256
	.loc 1 6188 1
	ret
	.cfi_endproc
.LFE103:
	.size	mbedtls_ssl_conf_max_frag_len, .-mbedtls_ssl_conf_max_frag_len
	.section	.text.mbedtls_ssl_conf_legacy_renegotiation,"ax",@progbits
	.align	1
	.globl	mbedtls_ssl_conf_legacy_renegotiation
	.type	mbedtls_ssl_conf_legacy_renegotiation, @function
mbedtls_ssl_conf_legacy_renegotiation:
.LFB104:
	.loc 1 6206 1 is_stmt 1
	.cfi_startproc
.LVL334:
	.loc 1 6207 5
	.loc 1 6207 38 is_stmt 0
	andi	a1,a1,3
.LVL335:
	slli	a5,a1,4
	lhu	a1,104(a0)
	andi	a1,a1,-49
	or	a1,a1,a5
	sh	a1,104(a0)
	.loc 1 6208 1
	ret
	.cfi_endproc
.LFE104:
	.size	mbedtls_ssl_conf_legacy_renegotiation, .-mbedtls_ssl_conf_legacy_renegotiation
	.section	.text.mbedtls_ssl_conf_session_tickets,"ax",@progbits
	.align	1
	.globl	mbedtls_ssl_conf_session_tickets
	.type	mbedtls_ssl_conf_session_tickets, @function
mbedtls_ssl_conf_session_tickets:
.LFB105:
	.loc 1 6231 1 is_stmt 1
	.cfi_startproc
.LVL336:
	.loc 1 6232 5
	.loc 1 6232 27 is_stmt 0
	andi	a1,a1,1
.LVL337:
	slli	a5,a1,9
	lhu	a1,104(a0)
	andi	a1,a1,-513
	or	a1,a1,a5
	sh	a1,104(a0)
	.loc 1 6233 1
	ret
	.cfi_endproc
.LFE105:
	.size	mbedtls_ssl_conf_session_tickets, .-mbedtls_ssl_conf_session_tickets
	.section	.text.mbedtls_ssl_get_bytes_avail,"ax",@progbits
	.align	1
	.globl	mbedtls_ssl_get_bytes_avail
	.type	mbedtls_ssl_get_bytes_avail, @function
mbedtls_ssl_get_bytes_avail:
.LFB106:
	.loc 1 6263 1 is_stmt 1
	.cfi_startproc
.LVL338:
	.loc 1 6264 5
	.loc 1 6264 37 is_stmt 0
	lw	a5,104(a0)
	beq	a5,zero,.L197
	.loc 1 6264 37 discriminator 1
	lw	a0,112(a0)
.LVL339:
	ret
.LVL340:
.L197:
	.loc 1 6264 37
	li	a0,0
.LVL341:
	.loc 1 6265 1
	ret
	.cfi_endproc
.LFE106:
	.size	mbedtls_ssl_get_bytes_avail, .-mbedtls_ssl_get_bytes_avail
	.section	.text.mbedtls_ssl_get_verify_result,"ax",@progbits
	.align	1
	.globl	mbedtls_ssl_get_verify_result
	.type	mbedtls_ssl_get_verify_result, @function
mbedtls_ssl_get_verify_result:
.LFB107:
	.loc 1 6268 1 is_stmt 1
	.cfi_startproc
.LVL342:
	.loc 1 6269 5
	.loc 1 6269 12 is_stmt 0
	lw	a5,40(a0)
	.loc 1 6269 7
	beq	a5,zero,.L199
.LVL343:
.L202:
	.loc 1 6273 9 is_stmt 1
	.loc 1 6273 39 is_stmt 0
	lw	a0,96(a5)
	j	.L198
.LVL344:
.L199:
	.loc 1 6272 5 is_stmt 1
	.loc 1 6272 12 is_stmt 0
	lw	a5,44(a0)
	.loc 1 6275 11
	li	a0,-1
.LVL345:
	.loc 1 6272 7
	bne	a5,zero,.L202
.L198:
	.loc 1 6276 1
	ret
	.cfi_endproc
.LFE107:
	.size	mbedtls_ssl_get_verify_result, .-mbedtls_ssl_get_verify_result
	.section	.text.mbedtls_ssl_get_ciphersuite,"ax",@progbits
	.align	1
	.globl	mbedtls_ssl_get_ciphersuite
	.type	mbedtls_ssl_get_ciphersuite, @function
mbedtls_ssl_get_ciphersuite:
.LFB108:
	.loc 1 6279 1 is_stmt 1
	.cfi_startproc
.LVL346:
	.loc 1 6280 5
	.loc 1 6280 7 is_stmt 0
	beq	a0,zero,.L204
	.loc 1 6280 26 discriminator 1
	lw	a0,40(a0)
.LVL347:
	.loc 1 6280 20 discriminator 1
	beq	a0,zero,.L204
	.loc 1 6283 5 is_stmt 1
	.loc 1 6283 12 is_stmt 0
	lw	a0,0(a0)
	tail	mbedtls_ssl_get_ciphersuite_name
.LVL348:
.L204:
	.loc 1 6284 1
	li	a0,0
	ret
	.cfi_endproc
.LFE108:
	.size	mbedtls_ssl_get_ciphersuite, .-mbedtls_ssl_get_ciphersuite
	.section	.text.mbedtls_ssl_get_version,"ax",@progbits
	.align	1
	.globl	mbedtls_ssl_get_version
	.type	mbedtls_ssl_get_version, @function
mbedtls_ssl_get_version:
.LFB109:
	.loc 1 6287 1 is_stmt 1
	.cfi_startproc
.LVL349:
	.loc 1 6289 5
	.loc 1 6289 30 is_stmt 0
	lw	a4,0(a0)
	lw	a5,12(a0)
	lhu	a4,104(a4)
	.loc 1 6289 7
	andi	a4,a4,2
	beq	a4,zero,.L212
	.loc 1 6291 9 is_stmt 1
	li	a4,2
	beq	a5,a4,.L214
	li	a4,3
	beq	a5,a4,.L215
	.loc 1 6300 23 is_stmt 0
	lui	a0,%hi(.LC40)
.LVL350:
	addi	a0,a0,%lo(.LC40)
	ret
.LVL351:
.L212:
	.loc 1 6305 5 is_stmt 1
	li	a4,3
	bgtu	a5,a4,.L216
	lui	a4,%hi(.LANCHOR1)
	addi	a4,a4,%lo(.LANCHOR1)
	slli	a5,a5,2
	add	a5,a4,a5
	lw	a0,0(a5)
.LVL352:
	ret
.LVL353:
.L214:
	.loc 1 6294 23 is_stmt 0
	lui	a0,%hi(.LC41)
.LVL354:
	addi	a0,a0,%lo(.LC41)
	ret
.LVL355:
.L215:
	.loc 1 6297 23
	lui	a0,%hi(.LC39)
.LVL356:
	addi	a0,a0,%lo(.LC39)
	ret
.LVL357:
.L216:
	.loc 1 6289 7
	lui	a0,%hi(.LC42)
.LVL358:
	addi	a0,a0,%lo(.LC42)
	.loc 1 6322 1
	ret
	.cfi_endproc
.LFE109:
	.size	mbedtls_ssl_get_version, .-mbedtls_ssl_get_version
	.section	.text.mbedtls_ssl_get_record_expansion,"ax",@progbits
	.align	1
	.globl	mbedtls_ssl_get_record_expansion
	.type	mbedtls_ssl_get_record_expansion, @function
mbedtls_ssl_get_record_expansion:
.LFB110:
	.loc 1 6325 1 is_stmt 1
	.cfi_startproc
.LVL359:
	.loc 1 6326 5
	.loc 1 6327 5
	.loc 1 6327 34 is_stmt 0
	lw	a4,56(a0)
.LVL360:
	.loc 1 6334 5 is_stmt 1
	.loc 1 6334 7 is_stmt 0
	bne	a4,zero,.L218
	.loc 1 6335 9 is_stmt 1
	.loc 1 6335 23 is_stmt 0
	lw	a0,0(a0)
.LVL361:
	tail	mbedtls_ssl_hdr_len.isra.1
.LVL362:
.L218:
	.loc 1 6337 5 is_stmt 1
.LBB66:
.LBB67:
	.file 3 "/home/hogc/build-tools/sdk/bl/bl_iot_sdk/components/security/mbedtls/include/mbedtls/cipher.h"
	.loc 3 359 5
.LBE67:
.LBE66:
	.loc 1 6325 1 is_stmt 0
	addi	sp,sp,-16
	.cfi_def_cfa_offset 16
	sw	ra,12(sp)
	sw	s0,8(sp)
	.cfi_offset 1, -4
	.cfi_offset 8, -8
.LBB69:
.LBB68:
	.loc 3 359 34
	lw	a3,80(a4)
	.loc 3 359 20
	beq	a3,zero,.L219
	.loc 3 362 5 is_stmt 1
	.loc 3 362 28 is_stmt 0
	lbu	a5,1(a3)
.LVL363:
.LBE68:
.LBE69:
	.loc 1 6337 5
	li	a2,2
	beq	a5,a2,.L220
	bltu	a5,a2,.L219
	addi	a5,a5,-6
	andi	a5,a5,0xff
	bgtu	a5,a2,.L219
	.loc 1 6342 13 is_stmt 1
	.loc 1 6342 33 is_stmt 0
	lw	s0,8(a4)
.LVL364:
	.loc 1 6343 13 is_stmt 1
.L221:
	.loc 1 6355 5
	.loc 1 6355 20 is_stmt 0
	lw	a0,0(a0)
.LVL365:
	call	mbedtls_ssl_hdr_len.isra.1
.LVL366:
	.loc 1 6355 47
	add	a0,a0,s0
	.loc 1 6355 13
	j	.L217
.LVL367:
.L220:
	.loc 1 6346 13 is_stmt 1
.LBB70:
.LBB71:
	.loc 3 342 5
	.loc 3 345 5
.LBE71:
.LBE70:
	.loc 1 6346 33 is_stmt 0
	lw	s0,20(a4)
	lw	a5,20(a3)
	add	s0,s0,a5
.LVL368:
	.loc 1 6348 13 is_stmt 1
	j	.L221
.LVL369:
.L219:
	.loc 1 6351 13
	lui	a4,%hi(.LC17)
.LVL370:
	li	a3,8192
	lui	a2,%hi(.LC1)
	addi	a4,a4,%lo(.LC17)
	addi	a3,a3,-1841
	addi	a2,a2,%lo(.LC1)
	li	a1,1
	call	mbedtls_debug_print_msg
.LVL371:
	.loc 1 6352 13
	.loc 1 6352 19 is_stmt 0
	li	a0,-28672
	addi	a0,a0,1024
.L217:
	.loc 1 6356 1
	lw	ra,12(sp)
	.cfi_restore 1
	lw	s0,8(sp)
	.cfi_restore 8
	addi	sp,sp,16
	.cfi_def_cfa_offset 0
	jr	ra
	.cfi_endproc
.LFE110:
	.size	mbedtls_ssl_get_record_expansion, .-mbedtls_ssl_get_record_expansion
	.section	.text.mbedtls_ssl_get_max_frag_len,"ax",@progbits
	.align	1
	.globl	mbedtls_ssl_get_max_frag_len
	.type	mbedtls_ssl_get_max_frag_len, @function
mbedtls_ssl_get_max_frag_len:
.LFB111:
	.loc 1 6360 1 is_stmt 1
	.cfi_startproc
.LVL372:
	.loc 1 6361 5
	.loc 1 6366 5
	.loc 1 6366 43 is_stmt 0
	lw	a5,0(a0)
	.loc 1 6366 13
	lui	a4,%hi(.LANCHOR0)
	.loc 1 6371 12
	lw	a3,36(a0)
	.loc 1 6366 43
	lw	a5,104(a5)
	.loc 1 6366 13
	addi	a4,a4,%lo(.LANCHOR0)
	.loc 1 6366 43
	srli	a5,a5,4
	.loc 1 6366 13
	andi	a5,a5,28
	add	a5,a4,a5
	lw	a5,0(a5)
.LVL373:
	.loc 1 6371 5 is_stmt 1
	.loc 1 6371 7 is_stmt 0
	beq	a3,zero,.L228
	.loc 1 6372 44 discriminator 1
	lbu	a3,112(a3)
	.loc 1 6372 27 discriminator 1
	slli	a3,a3,2
	add	a4,a4,a3
	lw	a4,0(a4)
	bleu	a5,a4,.L228
	mv	a5,a4
.LVL374:
	.loc 1 6377 5 is_stmt 1 discriminator 1
.L228:
	.loc 1 6378 1 is_stmt 0
	mv	a0,a5
.LVL375:
	ret
	.cfi_endproc
.LFE111:
	.size	mbedtls_ssl_get_max_frag_len, .-mbedtls_ssl_get_max_frag_len
	.section	.text.mbedtls_ssl_get_peer_cert,"ax",@progbits
	.align	1
	.globl	mbedtls_ssl_get_peer_cert
	.type	mbedtls_ssl_get_peer_cert, @function
mbedtls_ssl_get_peer_cert:
.LFB112:
	.loc 1 6383 1 is_stmt 1
	.cfi_startproc
.LVL376:
	.loc 1 6384 5
	.loc 1 6384 7 is_stmt 0
	beq	a0,zero,.L235
	.loc 1 6384 26 discriminator 1
	lw	a0,40(a0)
.LVL377:
	.loc 1 6384 20 discriminator 1
	beq	a0,zero,.L235
	.loc 1 6387 5 is_stmt 1
	.loc 1 6387 25 is_stmt 0
	lw	a0,92(a0)
.L235:
	.loc 1 6388 1
	ret
	.cfi_endproc
.LFE112:
	.size	mbedtls_ssl_get_peer_cert, .-mbedtls_ssl_get_peer_cert
	.section	.text.mbedtls_ssl_handshake_step,"ax",@progbits
	.align	1
	.globl	mbedtls_ssl_handshake_step
	.type	mbedtls_ssl_handshake_step, @function
mbedtls_ssl_handshake_step:
.LFB114:
	.loc 1 6410 1 is_stmt 1
	.cfi_startproc
.LVL378:
	.loc 1 6411 5
	.loc 1 6413 5
	.loc 1 6413 7 is_stmt 0
	beq	a0,zero,.L245
	.loc 1 6413 26 discriminator 1
	lw	a5,0(a0)
	.loc 1 6413 20 discriminator 1
	beq	a5,zero,.L245
	.loc 1 6417 5 is_stmt 1
	.loc 1 6417 29 is_stmt 0
	lhu	a5,104(a5)
	.loc 1 6417 7
	andi	a5,a5,1
	bne	a5,zero,.L246
	.loc 1 6418 9 is_stmt 1
	.loc 1 6418 15 is_stmt 0
	tail	mbedtls_ssl_handshake_client_step
.LVL379:
.L245:
	.loc 1 6414 15
	li	a0,-28672
.LVL380:
	addi	a0,a0,-256
	ret
.LVL381:
.L246:
	.loc 1 6411 9
	li	a0,-28672
.LVL382:
	addi	a0,a0,-128
	.loc 1 6426 1
	ret
	.cfi_endproc
.LFE114:
	.size	mbedtls_ssl_handshake_step, .-mbedtls_ssl_handshake_step
	.section	.text.mbedtls_ssl_handshake,"ax",@progbits
	.align	1
	.globl	mbedtls_ssl_handshake
	.type	mbedtls_ssl_handshake, @function
mbedtls_ssl_handshake:
.LFB115:
	.loc 1 6432 1 is_stmt 1
	.cfi_startproc
.LVL383:
	.loc 1 6433 5
	.loc 1 6435 5
	.loc 1 6432 1 is_stmt 0
	addi	sp,sp,-32
	.cfi_def_cfa_offset 32
	sw	ra,28(sp)
	sw	s0,24(sp)
	sw	s1,20(sp)
	sw	s2,16(sp)
	sw	s3,12(sp)
	.cfi_offset 1, -4
	.cfi_offset 8, -8
	.cfi_offset 9, -12
	.cfi_offset 18, -16
	.cfi_offset 19, -20
	.loc 1 6435 7
	beq	a0,zero,.L253
	.loc 1 6435 20 discriminator 1
	lw	a5,0(a0)
	mv	s1,a0
	beq	a5,zero,.L253
	.loc 1 6438 5 is_stmt 1
	lui	a4,%hi(.LC43)
	li	a3,8192
	lui	s2,%hi(.LC1)
	addi	a4,a4,%lo(.LC43)
	addi	a3,a3,-1754
	addi	a2,s2,%lo(.LC1)
	li	a1,2
	call	mbedtls_debug_print_msg
.LVL384:
	.loc 1 6440 5
.LBB74:
.LBB75:
	.loc 1 6440 10 is_stmt 0
	li	s3,16
.L249:
.LVL385:
	lw	a5,4(s1)
	bne	a5,s3,.L251
	li	s0,0
	j	.L250
.L251:
	.loc 1 6442 9 is_stmt 1
	.loc 1 6442 15 is_stmt 0
	mv	a0,s1
	call	mbedtls_ssl_handshake_step
.LVL386:
	mv	s0,a0
.LVL387:
	.loc 1 6444 9 is_stmt 1
	.loc 1 6444 11 is_stmt 0
	beq	a0,zero,.L249
.LVL388:
.L250:
	.loc 1 6448 5 is_stmt 1
	lui	a4,%hi(.LC44)
	li	a3,8192
	addi	a4,a4,%lo(.LC44)
	addi	a3,a3,-1744
	addi	a2,s2,%lo(.LC1)
	li	a1,2
	mv	a0,s1
	call	mbedtls_debug_print_msg
.LVL389:
	.loc 1 6450 5
.L247:
.LBE75:
.LBE74:
	.loc 1 6451 1 is_stmt 0
	mv	a0,s0
	lw	ra,28(sp)
	.cfi_remember_state
	.cfi_restore 1
	lw	s0,24(sp)
	.cfi_restore 8
	lw	s1,20(sp)
	.cfi_restore 9
	lw	s2,16(sp)
	.cfi_restore 18
	lw	s3,12(sp)
	.cfi_restore 19
	addi	sp,sp,32
	.cfi_def_cfa_offset 0
	jr	ra
.LVL390:
.L253:
	.cfi_restore_state
	.loc 1 6436 15
	li	s0,-28672
	addi	s0,s0,-256
	j	.L247
	.cfi_endproc
.LFE115:
	.size	mbedtls_ssl_handshake, .-mbedtls_ssl_handshake
	.section	.text.mbedtls_ssl_transform_free,"ax",@progbits
	.align	1
	.globl	mbedtls_ssl_transform_free
	.type	mbedtls_ssl_transform_free, @function
mbedtls_ssl_transform_free:
.LFB120:
	.loc 1 7038 1 is_stmt 1
	.cfi_startproc
.LVL391:
	.loc 1 7039 5
	.loc 1 7039 7 is_stmt 0
	beq	a0,zero,.L255
	.loc 1 7038 1
	addi	sp,sp,-16
	.cfi_def_cfa_offset 16
	sw	s0,8(sp)
	.cfi_offset 8, -8
	mv	s0,a0
.LVL392:
.LBB78:
.LBB79:
	.loc 1 7047 5 is_stmt 1
	addi	a0,a0,80
.LVL393:
.LBE79:
.LBE78:
	.loc 1 7038 1 is_stmt 0
	sw	ra,12(sp)
	.cfi_offset 1, -4
.LBB83:
.LBB80:
	.loc 1 7047 5
	call	mbedtls_cipher_free
.LVL394:
	.loc 1 7048 5 is_stmt 1
	addi	a0,s0,144
	call	mbedtls_cipher_free
.LVL395:
	.loc 1 7050 5
	addi	a0,s0,56
	call	mbedtls_md_free
.LVL396:
	.loc 1 7051 5
	addi	a0,s0,68
	call	mbedtls_md_free
.LVL397:
	.loc 1 7053 5
	mv	a0,s0
.LBE80:
.LBE83:
	.loc 1 7054 1 is_stmt 0
	lw	s0,8(sp)
	.cfi_restore 8
.LVL398:
	lw	ra,12(sp)
	.cfi_restore 1
.LBB84:
.LBB81:
	.loc 1 7053 5
	li	a1,208
.LBE81:
.LBE84:
	.loc 1 7054 1
	addi	sp,sp,16
	.cfi_def_cfa_offset 0
.LBB85:
.LBB82:
	.loc 1 7053 5
	tail	mbedtls_zeroize
.LVL399:
.L255:
	ret
.LBE82:
.LBE85:
	.cfi_endproc
.LFE120:
	.size	mbedtls_ssl_transform_free, .-mbedtls_ssl_transform_free
	.section	.text.mbedtls_ssl_handshake_free,"ax",@progbits
	.align	1
	.globl	mbedtls_ssl_handshake_free
	.type	mbedtls_ssl_handshake_free, @function
mbedtls_ssl_handshake_free:
.LFB122:
	.loc 1 7071 1 is_stmt 1
	.cfi_startproc
.LVL400:
	.loc 1 7072 5
	.loc 1 7072 7 is_stmt 0
	beq	a0,zero,.L260
	.loc 1 7071 1
	addi	sp,sp,-16
	.cfi_def_cfa_offset 16
	sw	s0,8(sp)
	.cfi_offset 8, -8
	mv	s0,a0
	.loc 1 7085 5 is_stmt 1
	addi	a0,a0,80
.LVL401:
	.loc 1 7071 1 is_stmt 0
	sw	ra,12(sp)
	sw	s1,4(sp)
	.cfi_offset 1, -4
	.cfi_offset 9, -12
	.loc 1 7085 5
	call	mbedtls_sha256_free
.LVL402:
	.loc 1 7128 5 is_stmt 1
	.loc 1 7128 18 is_stmt 0
	lw	a0,16(s0)
.L271:
	.loc 1 7128 7
	beq	a0,zero,.L262
.LVL403:
.LBB90:
	.loc 1 7134 13 is_stmt 1
	.loc 1 7134 18 is_stmt 0
	lw	s1,8(a0)
.LVL404:
	.loc 1 7135 13 is_stmt 1
	call	vPortFree
.LVL405:
	.loc 1 7136 13
	mv	a0,s1
	j	.L271
.LVL406:
.L262:
.LBE90:
.LBB91:
.LBB92:
	.loc 1 7142 5
	lw	a0,36(s0)
	call	vPortFree
.LVL407:
	.loc 1 7143 5
	lw	a0,44(s0)
	call	vPortFree
.LVL408:
	.loc 1 7144 5
	lw	a0,56(s0)
	call	ssl_flight_free
.LVL409:
	.loc 1 7147 5
	mv	a0,s0
.LBE92:
.LBE91:
	.loc 1 7148 1 is_stmt 0
	lw	s0,8(sp)
	.cfi_restore 8
.LVL410:
	lw	ra,12(sp)
	.cfi_restore 1
	lw	s1,4(sp)
	.cfi_restore 9
.LBB95:
.LBB93:
	.loc 1 7147 5
	li	a1,348
.LBE93:
.LBE95:
	.loc 1 7148 1
	addi	sp,sp,16
	.cfi_def_cfa_offset 0
.LBB96:
.LBB94:
	.loc 1 7147 5
	tail	mbedtls_zeroize
.LVL411:
.L260:
	ret
.LBE94:
.LBE96:
	.cfi_endproc
.LFE122:
	.size	mbedtls_ssl_handshake_free, .-mbedtls_ssl_handshake_free
	.section	.text.ssl_handshake_wrapup_free_hs_transform,"ax",@progbits
	.align	1
	.type	ssl_handshake_wrapup_free_hs_transform, @function
ssl_handshake_wrapup_free_hs_transform:
.LFB63:
	.loc 1 5038 1 is_stmt 1
	.cfi_startproc
.LVL412:
	.loc 1 5039 5
	.loc 1 5038 1 is_stmt 0
	addi	sp,sp,-16
	.cfi_def_cfa_offset 16
	sw	s1,4(sp)
	.loc 1 5039 5
	lui	a4,%hi(.LC45)
	li	a3,4096
	.cfi_offset 9, -12
	lui	s1,%hi(.LC1)
	addi	a4,a4,%lo(.LC45)
	addi	a3,a3,943
	addi	a2,s1,%lo(.LC1)
	li	a1,3
	.loc 1 5038 1
	sw	ra,12(sp)
	sw	s0,8(sp)
	.cfi_offset 1, -4
	.cfi_offset 8, -8
	.loc 1 5038 1
	mv	s0,a0
	.loc 1 5039 5
	call	mbedtls_debug_print_msg
.LVL413:
	.loc 1 5044 5 is_stmt 1
	lw	a0,48(s0)
	call	mbedtls_ssl_handshake_free
.LVL414:
	.loc 1 5045 5
	lw	a0,48(s0)
	call	vPortFree
.LVL415:
	.loc 1 5046 5
	.loc 1 5051 12 is_stmt 0
	lw	a0,60(s0)
	.loc 1 5046 20
	sw	zero,48(s0)
	.loc 1 5051 5 is_stmt 1
	.loc 1 5051 7 is_stmt 0
	beq	a0,zero,.L273
	.loc 1 5053 9 is_stmt 1
	call	mbedtls_ssl_transform_free
.LVL416:
	.loc 1 5054 9
	lw	a0,60(s0)
	call	vPortFree
.LVL417:
.L273:
	.loc 1 5056 5
	.loc 1 5056 20 is_stmt 0
	lw	a5,64(s0)
	.loc 1 5059 5
	mv	a0,s0
	.loc 1 5057 30
	sw	zero,64(s0)
	.loc 1 5056 20
	sw	a5,60(s0)
	.loc 1 5057 5 is_stmt 1
	.loc 1 5059 5
	.loc 1 5060 1 is_stmt 0
	lw	s0,8(sp)
	.cfi_restore 8
.LVL418:
	lw	ra,12(sp)
	.cfi_restore 1
	.loc 1 5059 5
	addi	a2,s1,%lo(.LC1)
	.loc 1 5060 1
	lw	s1,4(sp)
	.cfi_restore 9
	.loc 1 5059 5
	lui	a4,%hi(.LC46)
	li	a3,4096
	.loc 1 5060 1
	.loc 1 5059 5
	addi	a4,a4,%lo(.LC46)
	addi	a3,a3,963
	li	a1,3
	.loc 1 5060 1
	addi	sp,sp,16
	.cfi_def_cfa_offset 0
	.loc 1 5059 5
	tail	mbedtls_debug_print_msg
.LVL419:
	.cfi_endproc
.LFE63:
	.size	ssl_handshake_wrapup_free_hs_transform, .-ssl_handshake_wrapup_free_hs_transform
	.section	.text.mbedtls_ssl_session_free,"ax",@progbits
	.align	1
	.globl	mbedtls_ssl_session_free
	.type	mbedtls_ssl_session_free, @function
mbedtls_ssl_session_free:
.LFB123:
	.loc 1 7151 1 is_stmt 1
	.cfi_startproc
.LVL420:
	.loc 1 7152 5
	.loc 1 7152 7 is_stmt 0
	beq	a0,zero,.L278
	.loc 1 7151 1
	addi	sp,sp,-16
	.cfi_def_cfa_offset 16
	sw	s0,8(sp)
	sw	ra,12(sp)
	.cfi_offset 8, -8
	.cfi_offset 1, -4
	mv	s0,a0
	.loc 1 7156 5 is_stmt 1
	.loc 1 7156 16 is_stmt 0
	lw	a0,92(a0)
.LVL421:
	.loc 1 7156 7
	beq	a0,zero,.L280
	.loc 1 7158 9 is_stmt 1
	call	mbedtls_x509_crt_free
.LVL422:
	.loc 1 7159 9
	lw	a0,92(s0)
	call	vPortFree
.LVL423:
.L280:
	.loc 1 7164 5
	lw	a0,100(s0)
	call	vPortFree
.LVL424:
	.loc 1 7167 5
	mv	a0,s0
	.loc 1 7168 1 is_stmt 0
	lw	s0,8(sp)
	.cfi_restore 8
.LVL425:
	lw	ra,12(sp)
	.cfi_restore 1
	.loc 1 7167 5
	li	a1,116
	.loc 1 7168 1
	addi	sp,sp,16
	.cfi_def_cfa_offset 0
	.loc 1 7167 5
	tail	mbedtls_zeroize
.LVL426:
.L278:
	ret
	.cfi_endproc
.LFE123:
	.size	mbedtls_ssl_session_free, .-mbedtls_ssl_session_free
	.section	.text.mbedtls_ssl_handshake_wrapup,"ax",@progbits
	.align	1
	.globl	mbedtls_ssl_handshake_wrapup
	.type	mbedtls_ssl_handshake_wrapup, @function
mbedtls_ssl_handshake_wrapup:
.LFB64:
	.loc 1 5063 1 is_stmt 1
	.cfi_startproc
.LVL427:
	.loc 1 5064 5
	.loc 1 5063 1 is_stmt 0
	addi	sp,sp,-16
	.cfi_def_cfa_offset 16
	sw	s0,8(sp)
	sw	s1,4(sp)
	sw	ra,12(sp)
	sw	s2,0(sp)
	.cfi_offset 8, -8
	.cfi_offset 9, -12
	.cfi_offset 1, -4
	.cfi_offset 18, -16
	.loc 1 5064 9
	lw	a5,48(a0)
	.loc 1 5066 5
	lui	a4,%hi(.LC47)
	li	a3,4096
	lui	s1,%hi(.LC1)
	addi	a4,a4,%lo(.LC47)
	addi	a3,a3,970
	addi	a2,s1,%lo(.LC1)
	li	a1,3
	.loc 1 5063 1
	mv	s0,a0
	.loc 1 5064 9
	lw	s2,328(a5)
.LVL428:
	.loc 1 5066 5 is_stmt 1
	call	mbedtls_debug_print_msg
.LVL429:
	.loc 1 5079 5
	.loc 1 5079 12 is_stmt 0
	lw	a0,40(s0)
	.loc 1 5079 7
	beq	a0,zero,.L288
	.loc 1 5087 9 is_stmt 1
	call	mbedtls_ssl_session_free
.LVL430:
	.loc 1 5088 9
	lw	a0,40(s0)
	call	vPortFree
.LVL431:
.L288:
	.loc 1 5090 5
	.loc 1 5090 23 is_stmt 0
	lw	a1,44(s0)
	.loc 1 5096 12
	lw	a4,0(s0)
	.loc 1 5091 28
	sw	zero,44(s0)
	.loc 1 5090 18
	sw	a1,40(s0)
	.loc 1 5091 5 is_stmt 1
	.loc 1 5096 5
	.loc 1 5096 18 is_stmt 0
	lw	a5,36(a4)
	.loc 1 5096 7
	beq	a5,zero,.L290
	.loc 1 5096 39 discriminator 1
	lw	a3,8(a1)
	beq	a3,zero,.L290
	.loc 1 5097 35
	bne	s2,zero,.L290
	.loc 1 5100 9 is_stmt 1
	.loc 1 5100 13 is_stmt 0
	lw	a0,40(a4)
	jalr	a5
.LVL432:
	.loc 1 5100 11
	beq	a0,zero,.L290
	.loc 1 5101 13 is_stmt 1
	lui	a4,%hi(.LC48)
	li	a3,4096
	addi	a4,a4,%lo(.LC48)
	addi	a3,a3,1005
	addi	a2,s1,%lo(.LC1)
	li	a1,1
	mv	a0,s0
	call	mbedtls_debug_print_msg
.LVL433:
.L290:
	.loc 1 5105 5
	.loc 1 5105 30 is_stmt 0
	lw	a5,0(s0)
	lhu	a5,104(a5)
	.loc 1 5105 7
	andi	a5,a5,2
	beq	a5,zero,.L292
	.loc 1 5106 23 discriminator 1
	lw	a5,48(s0)
	.loc 1 5105 35 discriminator 1
	lw	a5,56(a5)
	beq	a5,zero,.L292
	.loc 1 5109 9 is_stmt 1
	li	a1,0
	mv	a0,s0
	call	ssl_set_timer
.LVL434:
	.loc 1 5113 9
	lui	a4,%hi(.LC49)
	li	a3,4096
	addi	a4,a4,%lo(.LC49)
	addi	a3,a3,1017
	addi	a2,s1,%lo(.LC1)
	li	a1,3
	mv	a0,s0
	call	mbedtls_debug_print_msg
.LVL435:
.L293:
	.loc 1 5119 5
	.loc 1 5119 15 is_stmt 0
	lw	a5,4(s0)
	.loc 1 5121 5
	mv	a0,s0
	.loc 1 5122 1
	lw	ra,12(sp)
	.cfi_remember_state
	.cfi_restore 1
	.loc 1 5119 15
	addi	a5,a5,1
	sw	a5,4(s0)
	.loc 1 5121 5 is_stmt 1
	.loc 1 5122 1 is_stmt 0
	lw	s0,8(sp)
	.cfi_restore 8
.LVL436:
	lw	s2,0(sp)
	.cfi_restore 18
.LVL437:
	.loc 1 5121 5
	addi	a2,s1,%lo(.LC1)
	.loc 1 5122 1
	lw	s1,4(sp)
	.cfi_restore 9
	.loc 1 5121 5
	lui	a4,%hi(.LC50)
	li	a3,4096
	.loc 1 5122 1
	.loc 1 5121 5
	addi	a4,a4,%lo(.LC50)
	addi	a3,a3,1025
	li	a1,3
	.loc 1 5122 1
	addi	sp,sp,16
	.cfi_def_cfa_offset 0
	.loc 1 5121 5
	tail	mbedtls_debug_print_msg
.LVL438:
.L292:
	.cfi_restore_state
	.loc 1 5117 9 is_stmt 1
	mv	a0,s0
	call	ssl_handshake_wrapup_free_hs_transform
.LVL439:
	j	.L293
	.cfi_endproc
.LFE64:
	.size	mbedtls_ssl_handshake_wrapup, .-mbedtls_ssl_handshake_wrapup
	.section	.text.ssl_handshake_init,"ax",@progbits
	.align	1
	.type	ssl_handshake_init, @function
ssl_handshake_init:
.LFB70:
	.loc 1 5387 1
	.cfi_startproc
.LVL440:
	.loc 1 5389 5
	.loc 1 5387 1 is_stmt 0
	addi	sp,sp,-16
	.cfi_def_cfa_offset 16
	sw	s0,8(sp)
	sw	ra,12(sp)
	sw	s1,4(sp)
	sw	s2,0(sp)
	.cfi_offset 8, -8
	.cfi_offset 1, -4
	.cfi_offset 9, -12
	.cfi_offset 18, -16
	.loc 1 5387 1
	mv	s0,a0
	.loc 1 5389 12
	lw	a0,64(a0)
.LVL441:
	.loc 1 5389 7
	beq	a0,zero,.L311
	.loc 1 5390 9 is_stmt 1
	call	mbedtls_ssl_transform_free
.LVL442:
.L311:
	.loc 1 5391 5
	.loc 1 5391 12 is_stmt 0
	lw	a0,44(s0)
	.loc 1 5391 7
	beq	a0,zero,.L312
	.loc 1 5392 9 is_stmt 1
	call	mbedtls_ssl_session_free
.LVL443:
.L312:
	.loc 1 5393 5
	.loc 1 5393 12 is_stmt 0
	lw	a0,48(s0)
	.loc 1 5393 7
	beq	a0,zero,.L313
	.loc 1 5394 9 is_stmt 1
	call	mbedtls_ssl_handshake_free
.LVL444:
.L313:
	.loc 1 5400 5
	.loc 1 5400 7 is_stmt 0
	lw	a5,64(s0)
	bne	a5,zero,.L314
	.loc 1 5402 9 is_stmt 1
	.loc 1 5402 36 is_stmt 0
	li	a1,208
	li	a0,1
	call	mycalloc
.LVL445:
	.loc 1 5402 34
	sw	a0,64(s0)
.L314:
	.loc 1 5405 5 is_stmt 1
	.loc 1 5405 7 is_stmt 0
	lw	a5,44(s0)
	bne	a5,zero,.L315
	.loc 1 5407 9 is_stmt 1
	.loc 1 5407 34 is_stmt 0
	li	a1,116
	li	a0,1
	call	mycalloc
.LVL446:
	.loc 1 5407 32
	sw	a0,44(s0)
.L315:
	.loc 1 5410 5 is_stmt 1
	.loc 1 5410 7 is_stmt 0
	lw	a5,48(s0)
	beq	a5,zero,.L316
.L319:
	.loc 1 5416 31
	lw	a5,64(s0)
	bne	a5,zero,.L340
.L317:
	.loc 1 5420 9 is_stmt 1
	lui	a4,%hi(.LC51)
	li	a3,4096
	lui	a2,%hi(.LC1)
	addi	a4,a4,%lo(.LC51)
	addi	a3,a3,1324
	addi	a2,a2,%lo(.LC1)
	li	a1,1
	mv	a0,s0
	call	mbedtls_debug_print_msg
.LVL447:
	.loc 1 5422 9
	lw	a0,48(s0)
	call	vPortFree
.LVL448:
	.loc 1 5423 9
	lw	a0,64(s0)
	call	vPortFree
.LVL449:
	.loc 1 5424 9
	lw	a0,44(s0)
	call	vPortFree
.LVL450:
	.loc 1 5426 9
	.loc 1 5430 15 is_stmt 0
	li	a0,-32768
	.loc 1 5426 24
	sw	zero,48(s0)
	.loc 1 5427 9 is_stmt 1
	.loc 1 5427 34 is_stmt 0
	sw	zero,64(s0)
	.loc 1 5428 9 is_stmt 1
	.loc 1 5428 32 is_stmt 0
	sw	zero,44(s0)
	.loc 1 5430 9 is_stmt 1
	.loc 1 5430 15 is_stmt 0
	addi	a0,a0,256
.L310:
	.loc 1 5453 1
	lw	ra,12(sp)
	.cfi_remember_state
	.cfi_restore 1
	lw	s0,8(sp)
	.cfi_restore 8
.LVL451:
	lw	s1,4(sp)
	.cfi_restore 9
	lw	s2,0(sp)
	.cfi_restore 18
	addi	sp,sp,16
	.cfi_def_cfa_offset 0
	jr	ra
.LVL452:
.L316:
	.cfi_restore_state
	.loc 1 5412 9 is_stmt 1
	.loc 1 5412 26 is_stmt 0
	li	a1,348
	li	a0,1
	call	mycalloc
.LVL453:
	.loc 1 5412 24
	sw	a0,48(s0)
	.loc 1 5416 5 is_stmt 1
	.loc 1 5416 7 is_stmt 0
	bne	a0,zero,.L319
	j	.L317
.L340:
	.loc 1 5418 12
	lw	a0,44(s0)
	.loc 1 5417 41
	beq	a0,zero,.L317
	.loc 1 5434 5 is_stmt 1
	call	mbedtls_ssl_session_init
.LVL454:
	.loc 1 5435 5
	lw	s1,64(s0)
.LVL455:
.LBB101:
.LBB102:
	.loc 1 5372 5
	li	a2,208
	li	a1,0
	mv	a0,s1
	call	memset
.LVL456:
	.loc 1 5374 5
	addi	a0,s1,80
	call	mbedtls_cipher_init
.LVL457:
	.loc 1 5375 5
	addi	a0,s1,144
	call	mbedtls_cipher_init
.LVL458:
	.loc 1 5377 5
	addi	a0,s1,56
	call	mbedtls_md_init
.LVL459:
	.loc 1 5378 5
	addi	a0,s1,68
	call	mbedtls_md_init
.LVL460:
.LBE102:
.LBE101:
	.loc 1 5436 5
	lw	s1,48(s0)
.LVL461:
.LBB103:
.LBB104:
	.loc 1 5323 5
	li	a2,348
	li	a1,0
	mv	a0,s1
	call	memset
.LVL462:
	.loc 1 5338 5
	addi	s2,s1,80
	mv	a0,s2
	call	mbedtls_sha256_init
.LVL463:
	.loc 1 5339 5
	mv	a0,s2
	li	a1,0
	call	mbedtls_sha256_starts
.LVL464:
	.loc 1 5348 5
	.loc 1 5348 32 is_stmt 0
	lui	a5,%hi(ssl_update_checksum_start)
	addi	a5,a5,%lo(ssl_update_checksum_start)
	sw	a5,196(s1)
	.loc 1 5349 5 is_stmt 1
	.loc 1 5349 24 is_stmt 0
	li	a3,2
	.loc 1 5366 29
	li	a5,3
	.loc 1 5349 24
	sw	a3,0(s1)
	.loc 1 5366 5 is_stmt 1
	.loc 1 5366 29 is_stmt 0
	sw	a5,12(s1)
.LVL465:
.LBE104:
.LBE103:
	.loc 1 5439 5 is_stmt 1
	.loc 1 5439 30 is_stmt 0
	lw	a5,0(s0)
	.loc 1 5452 11
	li	a0,0
	.loc 1 5439 30
	lhu	a5,104(a5)
	.loc 1 5439 7
	andi	a5,a5,2
	beq	a5,zero,.L310
	.loc 1 5441 9 is_stmt 1
	.loc 1 5441 12 is_stmt 0
	lw	a5,48(s0)
	.loc 1 5441 48
	lw	a4,56(s0)
	.loc 1 5441 43
	sw	a4,68(a5)
	.loc 1 5443 9 is_stmt 1
	.loc 1 5443 33 is_stmt 0
	lw	a5,0(s0)
	lw	a4,48(s0)
	lhu	a5,104(a5)
	.loc 1 5443 11
	andi	a5,a5,1
	bne	a5,zero,.L321
	.loc 1 5444 13 is_stmt 1
	.loc 1 5444 46 is_stmt 0
	sb	zero,52(a4)
.L322:
	.loc 1 5448 9 is_stmt 1
	mv	a0,s0
	li	a1,0
	call	ssl_set_timer
.LVL466:
	.loc 1 5452 11 is_stmt 0
	li	a0,0
	j	.L310
.L321:
	.loc 1 5446 13 is_stmt 1
	.loc 1 5446 46 is_stmt 0
	sb	a3,52(a4)
	j	.L322
	.cfi_endproc
.LFE70:
	.size	ssl_handshake_init, .-ssl_handshake_init
	.section	.text.mbedtls_ssl_setup,"ax",@progbits
	.align	1
	.globl	mbedtls_ssl_setup
	.type	mbedtls_ssl_setup, @function
mbedtls_ssl_setup:
.LFB72:
	.loc 1 5497 1 is_stmt 1
	.cfi_startproc
.LVL467:
	.loc 1 5498 5
	.loc 1 5499 5
	.loc 1 5501 5
	.loc 1 5497 1 is_stmt 0
	addi	sp,sp,-16
	.cfi_def_cfa_offset 16
	sw	s0,8(sp)
	sw	s1,4(sp)
	sw	s2,0(sp)
	sw	ra,12(sp)
	.cfi_offset 8, -8
	.cfi_offset 9, -12
	.cfi_offset 18, -16
	.cfi_offset 1, -4
	.loc 1 5506 26
	li	s2,16384
	.loc 1 5501 15
	sw	a1,0(a0)
	.loc 1 5506 5 is_stmt 1
	.loc 1 5497 1 is_stmt 0
	mv	s0,a0
	mv	s1,a1
	.loc 1 5506 26
	li	a0,1
.LVL468:
	addi	a1,s2,317
.LVL469:
	call	mycalloc
.LVL470:
	.loc 1 5506 24
	sw	a0,80(s0)
	.loc 1 5506 7
	beq	a0,zero,.L345
	.loc 1 5507 26 discriminator 1
	addi	a1,s2,317
	li	a0,1
	call	mycalloc
.LVL471:
	.loc 1 5507 24 discriminator 1
	sw	a0,140(s0)
	.loc 1 5506 60 discriminator 1
	beq	a0,zero,.L345
	.loc 1 5516 5 is_stmt 1
	.loc 1 5516 25 is_stmt 0
	lhu	a2,104(s1)
	lw	a5,80(s0)
	addi	a6,a0,11
	.loc 1 5516 7
	andi	a2,a2,2
	addi	a3,a0,13
	addi	a1,a5,11
	addi	a4,a5,13
	beq	a2,zero,.L346
	.loc 1 5518 9 is_stmt 1
	.loc 1 5518 22 is_stmt 0
	sw	a0,148(s0)
	.loc 1 5519 9 is_stmt 1
	.loc 1 5524 21 is_stmt 0
	sw	a5,88(s0)
	.loc 1 5519 37
	addi	a0,a0,3
	.loc 1 5525 35
	addi	a5,a5,3
	.loc 1 5519 22
	sw	a0,144(s0)
	.loc 1 5520 9 is_stmt 1
	.loc 1 5520 22 is_stmt 0
	sw	a6,152(s0)
	.loc 1 5521 9 is_stmt 1
	.loc 1 5521 21 is_stmt 0
	sw	a3,156(s0)
	.loc 1 5522 9 is_stmt 1
	.loc 1 5522 22 is_stmt 0
	sw	a3,160(s0)
	.loc 1 5524 9 is_stmt 1
	.loc 1 5525 9
	.loc 1 5525 21 is_stmt 0
	sw	a5,84(s0)
	.loc 1 5526 9 is_stmt 1
.L353:
	.loc 1 5541 9
	.loc 1 5541 21 is_stmt 0
	sw	a1,92(s0)
	.loc 1 5542 9 is_stmt 1
	.loc 1 5542 20 is_stmt 0
	sw	a4,96(s0)
	.loc 1 5543 9 is_stmt 1
	.loc 1 5543 21 is_stmt 0
	sw	a4,100(s0)
	.loc 1 5546 5 is_stmt 1
	.loc 1 5546 17 is_stmt 0
	mv	a0,s0
	.loc 1 5550 1
	lw	s0,8(sp)
	.cfi_remember_state
	.cfi_restore 8
.LVL472:
	lw	ra,12(sp)
	.cfi_restore 1
	lw	s1,4(sp)
	.cfi_restore 9
.LVL473:
	lw	s2,0(sp)
	.cfi_restore 18
	addi	sp,sp,16
	.cfi_def_cfa_offset 0
	.loc 1 5546 17
	tail	ssl_handshake_init
.LVL474:
.L346:
	.cfi_restore_state
	.loc 1 5533 9 is_stmt 1
	.loc 1 5533 22 is_stmt 0
	sw	a0,144(s0)
	.loc 1 5534 9 is_stmt 1
	.loc 1 5539 21 is_stmt 0
	sw	a5,84(s0)
	.loc 1 5534 37
	addi	a0,a0,8
	.loc 1 5540 35
	addi	a5,a5,8
	.loc 1 5534 22
	sw	a0,148(s0)
	.loc 1 5535 9 is_stmt 1
	.loc 1 5535 22 is_stmt 0
	sw	a6,152(s0)
	.loc 1 5536 9 is_stmt 1
	.loc 1 5536 21 is_stmt 0
	sw	a3,156(s0)
	.loc 1 5537 9 is_stmt 1
	.loc 1 5537 22 is_stmt 0
	sw	a3,160(s0)
	.loc 1 5539 9 is_stmt 1
	.loc 1 5540 9
	.loc 1 5540 21 is_stmt 0
	sw	a5,88(s0)
	j	.L353
.L345:
	.loc 1 5509 9 is_stmt 1
	li	a5,16384
	lui	a4,%hi(.LC52)
	li	a3,4096
	lui	a2,%hi(.LC1)
	mv	a0,s0
	addi	a5,a5,317
	addi	a4,a4,%lo(.LC52)
	addi	a3,a3,1413
	addi	a2,a2,%lo(.LC1)
	li	a1,1
	call	mbedtls_debug_print_msg
.LVL475:
	.loc 1 5510 9
	lw	a0,80(s0)
	call	vPortFree
.LVL476:
	.loc 1 5511 9
	.loc 1 5550 1 is_stmt 0
	lw	ra,12(sp)
	.cfi_restore 1
	.loc 1 5511 21
	sw	zero,80(s0)
	.loc 1 5512 9 is_stmt 1
	.loc 1 5550 1 is_stmt 0
	lw	s0,8(sp)
	.cfi_restore 8
.LVL477:
	li	a0,-32768
	lw	s1,4(sp)
	.cfi_restore 9
.LVL478:
	lw	s2,0(sp)
	.cfi_restore 18
	addi	a0,a0,256
	addi	sp,sp,16
	.cfi_def_cfa_offset 0
	jr	ra
	.cfi_endproc
.LFE72:
	.size	mbedtls_ssl_setup, .-mbedtls_ssl_setup
	.section	.text.ssl_session_copy,"ax",@progbits
	.align	1
	.type	ssl_session_copy, @function
ssl_session_copy:
.LFB26:
	.loc 1 160 1 is_stmt 1
	.cfi_startproc
.LVL479:
	.loc 1 161 5
	.loc 1 160 1 is_stmt 0
	addi	sp,sp,-16
	.cfi_def_cfa_offset 16
	sw	ra,12(sp)
	sw	s0,8(sp)
	sw	s2,0(sp)
	.cfi_offset 1, -4
	.cfi_offset 8, -8
	.cfi_offset 18, -16
	mv	s0,a1
	mv	s2,a0
	sw	s1,4(sp)
	.cfi_offset 9, -12
	.loc 1 161 5
	call	mbedtls_ssl_session_free
.LVL480:
	.loc 1 162 5 is_stmt 1
	li	a2,116
	mv	a1,s0
	mv	a0,s2
	call	memcpy
.LVL481:
	.loc 1 165 5
	.loc 1 165 7 is_stmt 0
	lw	a5,92(s0)
	beq	a5,zero,.L355
.LBB105:
	.loc 1 167 9 is_stmt 1
	.loc 1 169 9
	.loc 1 169 26 is_stmt 0
	li	a1,308
	li	a0,1
	call	mycalloc
.LVL482:
	.loc 1 169 24
	sw	a0,92(s2)
	.loc 1 170 9 is_stmt 1
	.loc 1 170 11 is_stmt 0
	bne	a0,zero,.L356
.L358:
	.loc 1 171 19
	li	s1,-32768
	addi	s1,s1,256
.L354:
.LBE105:
	.loc 1 197 1
	lw	ra,12(sp)
	.cfi_remember_state
	.cfi_restore 1
	lw	s0,8(sp)
	.cfi_restore 8
.LVL483:
	mv	a0,s1
	lw	s2,0(sp)
	.cfi_restore 18
.LVL484:
	lw	s1,4(sp)
	.cfi_restore 9
	addi	sp,sp,16
	.cfi_def_cfa_offset 0
	jr	ra
.LVL485:
.L356:
	.cfi_restore_state
.LBB106:
	.loc 1 173 9 is_stmt 1
	call	mbedtls_x509_crt_init
.LVL486:
	.loc 1 175 9
	.loc 1 175 68 is_stmt 0
	lw	a5,92(s0)
	.loc 1 175 21
	lw	a0,92(s2)
	lw	a2,4(a5)
	lw	a1,8(a5)
	call	mbedtls_x509_crt_parse_der
.LVL487:
	mv	s1,a0
.LVL488:
	.loc 1 175 11
	beq	a0,zero,.L355
	.loc 1 178 13 is_stmt 1
	lw	a0,92(s2)
	call	vPortFree
.LVL489:
	.loc 1 179 13
	.loc 1 179 28 is_stmt 0
	sw	zero,92(s2)
	.loc 1 180 13 is_stmt 1
	.loc 1 180 19 is_stmt 0
	j	.L354
.LVL490:
.L355:
.LBE106:
	.loc 1 186 5 is_stmt 1
	.loc 1 186 7 is_stmt 0
	lw	a5,100(s0)
	.loc 1 196 11
	li	s1,0
	.loc 1 186 7
	beq	a5,zero,.L354
	.loc 1 188 9 is_stmt 1
	.loc 1 188 23 is_stmt 0
	lw	a1,104(s0)
	li	a0,1
	call	mycalloc
.LVL491:
	.loc 1 188 21
	sw	a0,100(s2)
	.loc 1 189 9 is_stmt 1
	.loc 1 189 11 is_stmt 0
	beq	a0,zero,.L358
	.loc 1 192 9 is_stmt 1
	lw	a2,104(s0)
	lw	a1,100(s0)
	call	memcpy
.LVL492:
	j	.L354
	.cfi_endproc
.LFE26:
	.size	ssl_session_copy, .-ssl_session_copy
	.section	.text.mbedtls_ssl_set_session,"ax",@progbits
	.align	1
	.globl	mbedtls_ssl_set_session
	.type	mbedtls_ssl_set_session, @function
mbedtls_ssl_set_session:
.LFB85:
	.loc 1 5777 1
	.cfi_startproc
.LVL493:
	.loc 1 5778 5
	.loc 1 5780 5
	.loc 1 5780 7 is_stmt 0
	beq	a0,zero,.L376
	.loc 1 5780 20 discriminator 1
	beq	a1,zero,.L376
	.loc 1 5782 12
	lw	a4,44(a0)
	.loc 1 5781 24
	beq	a4,zero,.L376
	.loc 1 5783 29
	lw	a5,0(a0)
	lhu	a5,104(a5)
	.loc 1 5782 39
	andi	a5,a5,1
	bne	a5,zero,.L376
	.loc 1 5777 1
	addi	sp,sp,-16
	.cfi_def_cfa_offset 16
	sw	s0,8(sp)
	.cfi_offset 8, -8
	mv	s0,a0
	.loc 1 5788 5 is_stmt 1
	.loc 1 5788 17 is_stmt 0
	mv	a0,a4
.LVL494:
	.loc 1 5777 1
	sw	ra,12(sp)
	.cfi_offset 1, -4
	.loc 1 5788 17
	call	ssl_session_copy
.LVL495:
	.loc 1 5788 7
	bne	a0,zero,.L371
	.loc 1 5791 5 is_stmt 1
	.loc 1 5791 8 is_stmt 0
	lw	a5,48(s0)
	.loc 1 5791 28
	li	a4,1
	sw	a4,328(a5)
	.loc 1 5793 5 is_stmt 1
.L371:
	.loc 1 5794 1 is_stmt 0
	lw	ra,12(sp)
	.cfi_restore 1
	lw	s0,8(sp)
	.cfi_restore 8
.LVL496:
	addi	sp,sp,16
	.cfi_def_cfa_offset 0
	jr	ra
.LVL497:
.L376:
	.loc 1 5785 15
	li	a0,-28672
.LVL498:
	addi	a0,a0,-256
	.loc 1 5794 1
	ret
	.cfi_endproc
.LFE85:
	.size	mbedtls_ssl_set_session, .-mbedtls_ssl_set_session
	.section	.text.mbedtls_ssl_get_session,"ax",@progbits
	.align	1
	.globl	mbedtls_ssl_get_session
	.type	mbedtls_ssl_get_session, @function
mbedtls_ssl_get_session:
.LFB113:
	.loc 1 6393 1 is_stmt 1
	.cfi_startproc
.LVL499:
	.loc 1 6394 5
	.loc 1 6393 1 is_stmt 0
	mv	a5,a0
	mv	a0,a1
.LVL500:
	.loc 1 6394 7
	beq	a5,zero,.L386
	.loc 1 6394 20 discriminator 1
	beq	a1,zero,.L386
	.loc 1 6396 12
	lw	a1,40(a5)
.LVL501:
	.loc 1 6395 20
	beq	a1,zero,.L386
	.loc 1 6397 29
	lw	a5,0(a5)
.LVL502:
	lhu	a5,104(a5)
	.loc 1 6396 29
	andi	a5,a5,1
	bne	a5,zero,.L386
	.loc 1 6402 5 is_stmt 1
	.loc 1 6402 13 is_stmt 0
	tail	ssl_session_copy
.LVL503:
.L386:
	.loc 1 6399 15
	li	a0,-28672
.LVL504:
	addi	a0,a0,-256
	.loc 1 6403 1
	ret
	.cfi_endproc
.LFE113:
	.size	mbedtls_ssl_get_session, .-mbedtls_ssl_get_session
	.section	.text.mbedtls_ssl_session_reset,"ax",@progbits
	.align	1
	.globl	mbedtls_ssl_session_reset
	.type	mbedtls_ssl_session_reset, @function
mbedtls_ssl_session_reset:
.LFB74:
	.loc 1 5663 1 is_stmt 1
	.cfi_startproc
.LVL505:
	.loc 1 5664 5
.LBB109:
.LBB110:
	.loc 1 5561 5
	.loc 1 5563 5
.LBE110:
.LBE109:
	.loc 1 5663 1 is_stmt 0
	addi	sp,sp,-16
	.cfi_def_cfa_offset 16
	sw	ra,12(sp)
	sw	s0,8(sp)
	sw	s1,4(sp)
	.cfi_offset 1, -4
	.cfi_offset 8, -8
	.cfi_offset 9, -12
.LBB114:
.LBB111:
	.loc 1 5563 16
	sw	zero,4(a0)
	.loc 1 5566 5 is_stmt 1
	li	a1,0
.LBE111:
.LBE114:
	.loc 1 5663 1 is_stmt 0
	mv	s0,a0
.LBB115:
.LBB112:
	.loc 1 5566 5
	call	ssl_set_timer
.LVL506:
	.loc 1 5576 5 is_stmt 1
	.loc 1 5580 31 is_stmt 0
	lw	a5,80(s0)
	.loc 1 5597 23
	lw	a0,140(s0)
	.loc 1 5609 5
	li	s1,16384
	.loc 1 5580 31
	addi	a5,a5,13
	.loc 1 5580 17
	sw	a5,100(s0)
	.loc 1 5597 33
	addi	a5,a0,13
	.loc 1 5597 18
	sw	a5,160(s0)
	.loc 1 5609 5
	addi	a2,s1,317
	li	a1,0
	.loc 1 5576 31
	sw	zero,188(s0)
	.loc 1 5578 5 is_stmt 1
	.loc 1 5578 18 is_stmt 0
	sw	zero,104(s0)
	.loc 1 5580 5 is_stmt 1
	.loc 1 5581 5
	.loc 1 5581 21 is_stmt 0
	sw	zero,108(s0)
	.loc 1 5582 5 is_stmt 1
	.loc 1 5582 20 is_stmt 0
	sw	zero,112(s0)
	.loc 1 5583 5 is_stmt 1
	.loc 1 5584 9
	.loc 1 5584 22 is_stmt 0
	sw	zero,116(s0)
	.loc 1 5586 5 is_stmt 1
	.loc 1 5586 29 is_stmt 0
	sw	zero,124(s0)
	.loc 1 5587 5 is_stmt 1
	.loc 1 5587 19 is_stmt 0
	sh	zero,120(s0)
	.loc 1 5593 5 is_stmt 1
	.loc 1 5593 19 is_stmt 0
	sw	zero,128(s0)
	.loc 1 5594 5 is_stmt 1
	.loc 1 5594 18 is_stmt 0
	sw	zero,132(s0)
	.loc 1 5595 5 is_stmt 1
	.loc 1 5595 22 is_stmt 0
	sw	zero,136(s0)
	.loc 1 5597 5 is_stmt 1
	.loc 1 5598 5
	.loc 1 5598 22 is_stmt 0
	sw	zero,164(s0)
	.loc 1 5599 5 is_stmt 1
	.loc 1 5599 21 is_stmt 0
	sw	zero,168(s0)
	.loc 1 5600 5 is_stmt 1
	.loc 1 5600 19 is_stmt 0
	sw	zero,172(s0)
	.loc 1 5606 5 is_stmt 1
	.loc 1 5606 23 is_stmt 0
	sw	zero,52(s0)
	.loc 1 5607 5 is_stmt 1
	.loc 1 5607 24 is_stmt 0
	sw	zero,56(s0)
	.loc 1 5609 5 is_stmt 1
	call	memset
.LVL507:
	.loc 1 5610 5
	.loc 1 5611 9
	lw	a0,80(s0)
	addi	a2,s1,317
	li	a1,0
	call	memset
.LVL508:
	.loc 1 5625 5
	.loc 1 5625 12 is_stmt 0
	lw	a0,60(s0)
	.loc 1 5625 7
	beq	a0,zero,.L388
	.loc 1 5627 9 is_stmt 1
	call	mbedtls_ssl_transform_free
.LVL509:
	.loc 1 5628 9
	lw	a0,60(s0)
	call	vPortFree
.LVL510:
	.loc 1 5629 9
	.loc 1 5629 24 is_stmt 0
	sw	zero,60(s0)
.L388:
	.loc 1 5632 5 is_stmt 1
	.loc 1 5632 12 is_stmt 0
	lw	a0,40(s0)
	.loc 1 5632 7
	beq	a0,zero,.L389
	.loc 1 5634 9 is_stmt 1
	call	mbedtls_ssl_session_free
.LVL511:
	.loc 1 5635 9
	lw	a0,40(s0)
	call	vPortFree
.LVL512:
	.loc 1 5636 9
	.loc 1 5636 22 is_stmt 0
	sw	zero,40(s0)
.L389:
	.loc 1 5640 5 is_stmt 1
	.loc 1 5640 22 is_stmt 0
	sw	zero,184(s0)
	.loc 1 5652 5 is_stmt 1
	.loc 1 5652 17 is_stmt 0
	mv	a0,s0
.LBE112:
.LBE115:
	.loc 1 5665 1
	lw	s0,8(sp)
	.cfi_restore 8
.LVL513:
	lw	ra,12(sp)
	.cfi_restore 1
	lw	s1,4(sp)
	.cfi_restore 9
	addi	sp,sp,16
	.cfi_def_cfa_offset 0
.LBB116:
.LBB113:
	.loc 1 5652 17
	tail	ssl_handshake_init
.LVL514:
.LBE113:
.LBE116:
	.cfi_endproc
.LFE74:
	.size	mbedtls_ssl_session_reset, .-mbedtls_ssl_session_reset
	.section	.text.mbedtls_ssl_free,"ax",@progbits
	.align	1
	.globl	mbedtls_ssl_free
	.type	mbedtls_ssl_free, @function
mbedtls_ssl_free:
.LFB124:
	.loc 1 7174 1 is_stmt 1
	.cfi_startproc
.LVL515:
	.loc 1 7175 5
	.loc 1 7175 7 is_stmt 0
	beq	a0,zero,.L397
	.loc 1 7174 1
	addi	sp,sp,-16
	.cfi_def_cfa_offset 16
	sw	s1,4(sp)
	.loc 1 7178 5
	lui	a4,%hi(.LC53)
	li	a3,8192
	.cfi_offset 9, -12
	lui	s1,%hi(.LC1)
	addi	a4,a4,%lo(.LC53)
	addi	a3,a3,-1014
	addi	a2,s1,%lo(.LC1)
	li	a1,2
	.loc 1 7174 1
	sw	s0,8(sp)
	sw	ra,12(sp)
	.cfi_offset 8, -8
	.cfi_offset 1, -4
	mv	s0,a0
	.loc 1 7178 5 is_stmt 1
	.loc 1 7174 1 is_stmt 0
	sw	s2,0(sp)
	.cfi_offset 18, -16
	.loc 1 7178 5
	call	mbedtls_debug_print_msg
.LVL516:
	.loc 1 7180 5 is_stmt 1
	.loc 1 7180 12 is_stmt 0
	lw	a0,140(s0)
	.loc 1 7180 7
	beq	a0,zero,.L399
	.loc 1 7182 9 is_stmt 1
	li	a1,16384
	addi	a1,a1,317
	call	mbedtls_zeroize
.LVL517:
	.loc 1 7183 9
	lw	a0,140(s0)
	call	vPortFree
.LVL518:
.L399:
	.loc 1 7186 5
	.loc 1 7186 12 is_stmt 0
	lw	a0,80(s0)
	.loc 1 7186 7
	beq	a0,zero,.L400
	.loc 1 7188 9 is_stmt 1
	li	a1,16384
	addi	a1,a1,317
	call	mbedtls_zeroize
.LVL519:
	.loc 1 7189 9
	lw	a0,80(s0)
	call	vPortFree
.LVL520:
.L400:
	.loc 1 7200 5
	.loc 1 7200 12 is_stmt 0
	lw	a0,60(s0)
	.loc 1 7200 7
	beq	a0,zero,.L401
	.loc 1 7202 9 is_stmt 1
	call	mbedtls_ssl_transform_free
.LVL521:
	.loc 1 7203 9
	lw	a0,60(s0)
	call	vPortFree
.LVL522:
.L401:
	.loc 1 7206 5
	.loc 1 7206 12 is_stmt 0
	lw	a0,48(s0)
	.loc 1 7206 7
	beq	a0,zero,.L402
	.loc 1 7208 9 is_stmt 1
	call	mbedtls_ssl_handshake_free
.LVL523:
	.loc 1 7209 9
	lw	a0,64(s0)
	call	mbedtls_ssl_transform_free
.LVL524:
	.loc 1 7210 9
	lw	a0,44(s0)
	call	mbedtls_ssl_session_free
.LVL525:
	.loc 1 7212 9
	lw	a0,48(s0)
	call	vPortFree
.LVL526:
	.loc 1 7213 9
	lw	a0,64(s0)
	call	vPortFree
.LVL527:
	.loc 1 7214 9
	lw	a0,44(s0)
	call	vPortFree
.LVL528:
.L402:
	.loc 1 7217 5
	.loc 1 7217 12 is_stmt 0
	lw	a0,40(s0)
	.loc 1 7217 7
	beq	a0,zero,.L403
	.loc 1 7219 9 is_stmt 1
	call	mbedtls_ssl_session_free
.LVL529:
	.loc 1 7220 9
	lw	a0,40(s0)
	call	vPortFree
.LVL530:
.L403:
	.loc 1 7224 5
	.loc 1 7224 12 is_stmt 0
	lw	s2,180(s0)
	.loc 1 7224 7
	beq	s2,zero,.L404
	.loc 1 7226 9 is_stmt 1
	mv	a0,s2
	call	strlen
.LVL531:
	mv	a1,a0
	mv	a0,s2
	call	mbedtls_zeroize
.LVL532:
	.loc 1 7227 9
	lw	a0,180(s0)
	call	vPortFree
.LVL533:
.L404:
	.loc 1 7243 5
	lui	a4,%hi(.LC54)
	li	a3,8192
	mv	a0,s0
	addi	a2,s1,%lo(.LC1)
	li	a1,2
	addi	a4,a4,%lo(.LC54)
	addi	a3,a3,-949
	call	mbedtls_debug_print_msg
.LVL534:
	.loc 1 7246 5
	mv	a0,s0
	.loc 1 7247 1 is_stmt 0
	lw	s0,8(sp)
	.cfi_restore 8
.LVL535:
	lw	ra,12(sp)
	.cfi_restore 1
	lw	s1,4(sp)
	.cfi_restore 9
	lw	s2,0(sp)
	.cfi_restore 18
	.loc 1 7246 5
	li	a1,192
	.loc 1 7247 1
	addi	sp,sp,16
	.cfi_def_cfa_offset 0
	.loc 1 7246 5
	tail	mbedtls_zeroize
.LVL536:
.L397:
	ret
	.cfi_endproc
.LFE124:
	.size	mbedtls_ssl_free, .-mbedtls_ssl_free
	.section	.text.mbedtls_ssl_config_init,"ax",@progbits
	.align	1
	.globl	mbedtls_ssl_config_init
	.type	mbedtls_ssl_config_init, @function
mbedtls_ssl_config_init:
.LFB125:
	.loc 1 7253 1 is_stmt 1
	.cfi_startproc
.LVL537:
	.loc 1 7254 5
	li	a2,108
	li	a1,0
	tail	memset
.LVL538:
	.cfi_endproc
.LFE125:
	.size	mbedtls_ssl_config_init, .-mbedtls_ssl_config_init
	.section	.text.mbedtls_ssl_config_defaults,"ax",@progbits
	.align	1
	.globl	mbedtls_ssl_config_defaults
	.type	mbedtls_ssl_config_defaults, @function
mbedtls_ssl_config_defaults:
.LFB126:
	.loc 1 7305 1
	.cfi_startproc
.LVL539:
	.loc 1 7312 5
.LBB117:
.LBB118:
	.loc 1 5672 5
	.loc 1 5672 20 is_stmt 0
	lhu	a5,104(a0)
	andi	a4,a1,1
	andi	a5,a5,-2
	or	a5,a5,a4
.LVL540:
.LBE118:
.LBE117:
	.loc 1 7313 5 is_stmt 1
.LBB119:
.LBB120:
	.loc 1 5677 5
	.loc 1 5677 21 is_stmt 0
	andi	a4,a2,1
	slli	a4,a4,1
	andi	a5,a5,-3
	or	a5,a5,a4
	sh	a5,104(a0)
.LVL541:
.LBE120:
.LBE119:
	.loc 1 7319 5 is_stmt 1
	.loc 1 7319 7 is_stmt 0
	bne	a1,zero,.L428
	.loc 1 7321 9 is_stmt 1
	.loc 1 7323 9
	.loc 1 7321 24 is_stmt 0
	andi	a5,a5,-525
	ori	a5,a5,520
	sh	a5,104(a0)
.L428:
	.loc 1 7354 5 is_stmt 1
	.loc 1 7354 26 is_stmt 0
	li	a5,1000
	sw	a5,92(a0)
	.loc 1 7355 5 is_stmt 1
	.loc 1 7355 26 is_stmt 0
	li	a5,61440
	addi	a5,a5,-1440
	sw	a5,96(a0)
	.loc 1 7379 5 is_stmt 1
	li	a4,2
	li	a5,50528256
	addi	a5,a5,771
	bne	a3,a4,.L429
	.loc 1 7386 13
	.loc 1 7387 13
	.loc 1 7388 13
	.loc 1 7389 13
	.loc 1 7388 33 is_stmt 0
	sw	a5,100(a0)
	.loc 1 7391 13 is_stmt 1
	.loc 1 7394 39 is_stmt 0
	lui	a5,%hi(.LANCHOR2)
	addi	a5,a5,%lo(.LANCHOR2)
	sw	a5,12(a0)
	.loc 1 7393 39
	sw	a5,8(a0)
	.loc 1 7392 39
	sw	a5,4(a0)
	.loc 1 7391 39
	sw	a5,0(a0)
	.loc 1 7398 13 is_stmt 1
	.loc 1 7398 32 is_stmt 0
	lui	a5,%hi(mbedtls_x509_crt_profile_suiteb)
	addi	a5,a5,%lo(mbedtls_x509_crt_profile_suiteb)
	sw	a5,60(a0)
	.loc 1 7402 13 is_stmt 1
	.loc 1 7402 30 is_stmt 0
	lui	a5,%hi(.LANCHOR3)
	addi	a5,a5,%lo(.LANCHOR3)
	sw	a5,76(a0)
	.loc 1 7406 13 is_stmt 1
	.loc 1 7406 30 is_stmt 0
	lui	a5,%hi(.LANCHOR4)
	addi	a5,a5,%lo(.LANCHOR4)
	sw	a5,80(a0)
	.loc 1 7408 13 is_stmt 1
	.loc 1 7448 5
	.loc 1 7449 1 is_stmt 0
	li	a0,0
.LVL542:
	ret
.LVL543:
.L429:
	.loc 1 7415 13 is_stmt 1
	.loc 1 7416 13
	.loc 1 7417 13
	.loc 1 7418 13
	.loc 1 7305 1 is_stmt 0
	addi	sp,sp,-16
	.cfi_def_cfa_offset 16
	sw	ra,12(sp)
	sw	s0,8(sp)
	.cfi_offset 1, -4
	.cfi_offset 8, -8
	.loc 1 7417 33
	sw	a5,100(a0)
	.loc 1 7421 13 is_stmt 1
	.loc 1 7421 15 is_stmt 0
	li	a5,1
	bne	a2,a5,.L431
	.loc 1 7422 17 is_stmt 1
	.loc 1 7422 37 is_stmt 0
	sb	a4,103(a0)
.L431:
	mv	s0,a0
	.loc 1 7425 13 is_stmt 1
	.loc 1 7429 36 is_stmt 0
	call	mbedtls_ssl_list_ciphersuites
.LVL544:
	.loc 1 7432 32
	lui	a5,%hi(mbedtls_x509_crt_profile_default)
	addi	a5,a5,%lo(mbedtls_x509_crt_profile_default)
	sw	a5,60(s0)
	.loc 1 7436 30
	lui	a5,%hi(.LANCHOR5)
	addi	a5,a5,%lo(.LANCHOR5)
	.loc 1 7428 39
	sw	a0,12(s0)
	.loc 1 7427 39
	sw	a0,8(s0)
	.loc 1 7426 39
	sw	a0,4(s0)
	.loc 1 7425 39
	sw	a0,0(s0)
	.loc 1 7432 13 is_stmt 1
	.loc 1 7436 13
	.loc 1 7436 30 is_stmt 0
	sw	a5,76(s0)
	.loc 1 7440 13 is_stmt 1
	.loc 1 7440 32 is_stmt 0
	call	mbedtls_ecp_grp_id_list
.LVL545:
	.loc 1 7440 30
	sw	a0,80(s0)
	.loc 1 7448 5 is_stmt 1
	.loc 1 7449 1 is_stmt 0
	lw	ra,12(sp)
	.cfi_restore 1
	lw	s0,8(sp)
	.cfi_restore 8
.LVL546:
	li	a0,0
	addi	sp,sp,16
	.cfi_def_cfa_offset 0
	jr	ra
	.cfi_endproc
.LFE126:
	.size	mbedtls_ssl_config_defaults, .-mbedtls_ssl_config_defaults
	.section	.text.mbedtls_ssl_config_free,"ax",@progbits
	.align	1
	.globl	mbedtls_ssl_config_free
	.type	mbedtls_ssl_config_free, @function
mbedtls_ssl_config_free:
.LFB127:
	.loc 1 7455 1 is_stmt 1
	.cfi_startproc
.LVL547:
	.loc 1 7474 5
	.loc 1 7455 1 is_stmt 0
	addi	sp,sp,-16
	.cfi_def_cfa_offset 16
	sw	s0,8(sp)
	sw	ra,12(sp)
	sw	s1,4(sp)
	.cfi_offset 8, -8
	.cfi_offset 1, -4
	.cfi_offset 9, -12
	.loc 1 7455 1
	mv	s0,a0
	.loc 1 7474 5
	lw	a0,64(a0)
.LVL548:
.LBB123:
.LBB124:
	.loc 1 7059 5 is_stmt 1
	.loc 1 7061 5
.L436:
	.loc 1 7061 10 is_stmt 0
	bne	a0,zero,.L437
.LVL549:
.LBE124:
.LBE123:
	.loc 1 7477 5 is_stmt 1
	mv	a0,s0
	.loc 1 7478 1 is_stmt 0
	lw	s0,8(sp)
	.cfi_remember_state
	.cfi_restore 8
.LVL550:
	lw	ra,12(sp)
	.cfi_restore 1
	lw	s1,4(sp)
	.cfi_restore 9
	.loc 1 7477 5
	li	a1,108
	.loc 1 7478 1
	addi	sp,sp,16
	.cfi_def_cfa_offset 0
	.loc 1 7477 5
	tail	mbedtls_zeroize
.LVL551:
.L437:
	.cfi_restore_state
.LBB126:
.LBB125:
	.loc 1 7063 9 is_stmt 1
	.loc 1 7063 14 is_stmt 0
	lw	s1,8(a0)
.LVL552:
	.loc 1 7064 9 is_stmt 1
	call	vPortFree
.LVL553:
	.loc 1 7065 9
	.loc 1 7065 13 is_stmt 0
	mv	a0,s1
	j	.L436
.LBE125:
.LBE126:
	.cfi_endproc
.LFE127:
	.size	mbedtls_ssl_config_free, .-mbedtls_ssl_config_free
	.section	.text.mbedtls_ssl_sig_from_pk,"ax",@progbits
	.align	1
	.globl	mbedtls_ssl_sig_from_pk
	.type	mbedtls_ssl_sig_from_pk, @function
mbedtls_ssl_sig_from_pk:
.LFB128:
	.loc 1 7486 1 is_stmt 1
	.cfi_startproc
.LVL554:
	.loc 1 7488 5
	.loc 1 7486 1 is_stmt 0
	addi	sp,sp,-16
	.cfi_def_cfa_offset 16
	.loc 1 7488 9
	li	a1,1
	.loc 1 7486 1
	sw	ra,12(sp)
	.cfi_offset 1, -4
	.loc 1 7488 9
	call	mbedtls_pk_can_do
.LVL555:
	.loc 1 7496 1
	lw	ra,12(sp)
	.cfi_restore 1
	snez	a0,a0
	addi	sp,sp,16
	.cfi_def_cfa_offset 0
	jr	ra
	.cfi_endproc
.LFE128:
	.size	mbedtls_ssl_sig_from_pk, .-mbedtls_ssl_sig_from_pk
	.section	.text.mbedtls_ssl_pk_alg_from_sig,"ax",@progbits
	.align	1
	.globl	mbedtls_ssl_pk_alg_from_sig
	.type	mbedtls_ssl_pk_alg_from_sig, @function
mbedtls_ssl_pk_alg_from_sig:
.LFB129:
	.loc 1 7499 1 is_stmt 1
	.cfi_startproc
.LVL556:
	.loc 1 7500 5
	addi	a0,a0,-1
.LVL557:
	.loc 1 7513 1 is_stmt 0
	seqz	a0,a0
	ret
	.cfi_endproc
.LFE129:
	.size	mbedtls_ssl_pk_alg_from_sig, .-mbedtls_ssl_pk_alg_from_sig
	.section	.text.mbedtls_ssl_md_alg_from_hash,"ax",@progbits
	.align	1
	.globl	mbedtls_ssl_md_alg_from_hash
	.type	mbedtls_ssl_md_alg_from_hash, @function
mbedtls_ssl_md_alg_from_hash:
.LFB130:
	.loc 1 7520 1 is_stmt 1
	.cfi_startproc
.LVL558:
	.loc 1 7521 5
	addi	a0,a0,-1
.LVL559:
	andi	a5,a0,0xff
	li	a4,3
	bgtu	a5,a4,.L444
	lui	a0,%hi(.LANCHOR6)
	addi	a0,a0,%lo(.LANCHOR6)
	add	a0,a0,a5
	lbu	a0,0(a0)
	ret
.L444:
	.loc 1 7520 1 is_stmt 0
	li	a0,0
	.loc 1 7546 1
	ret
	.cfi_endproc
.LFE130:
	.size	mbedtls_ssl_md_alg_from_hash, .-mbedtls_ssl_md_alg_from_hash
	.section	.text.mbedtls_ssl_hash_from_md_alg,"ax",@progbits
	.align	1
	.globl	mbedtls_ssl_hash_from_md_alg
	.type	mbedtls_ssl_hash_from_md_alg, @function
mbedtls_ssl_hash_from_md_alg:
.LFB131:
	.loc 1 7552 1 is_stmt 1
	.cfi_startproc
.LVL560:
	.loc 1 7553 5
	addi	a0,a0,-3
.LVL561:
	li	a5,3
	bgtu	a0,a5,.L447
	lui	a5,%hi(.LANCHOR7)
	addi	a5,a5,%lo(.LANCHOR7)
	add	a5,a5,a0
	lbu	a0,0(a5)
.LVL562:
	ret
.L447:
	li	a0,0
	.loc 1 7578 1 is_stmt 0
	ret
	.cfi_endproc
.LFE131:
	.size	mbedtls_ssl_hash_from_md_alg, .-mbedtls_ssl_hash_from_md_alg
	.section	.text.mbedtls_ssl_check_curve,"ax",@progbits
	.align	1
	.globl	mbedtls_ssl_check_curve
	.type	mbedtls_ssl_check_curve, @function
mbedtls_ssl_check_curve:
.LFB132:
	.loc 1 7586 1 is_stmt 1
	.cfi_startproc
.LVL563:
	.loc 1 7587 5
	.loc 1 7589 5
	.loc 1 7589 18 is_stmt 0
	lw	a5,0(a0)
	lw	a5,80(a5)
	.loc 1 7589 7
	bne	a5,zero,.L450
.L452:
	.loc 1 7590 15
	li	a0,-1
.LVL564:
	ret
.LVL565:
.L451:
	.loc 1 7593 9 is_stmt 1
	.loc 1 7593 11 is_stmt 0
	beq	a4,a1,.L453
	.loc 1 7592 71 discriminator 2
	addi	a5,a5,1
.LVL566:
.L450:
	.loc 1 7592 39 discriminator 1
	lbu	a4,0(a5)
	.loc 1 7592 5 discriminator 1
	bne	a4,zero,.L451
	j	.L452
.L453:
	.loc 1 7594 19
	li	a0,0
.LVL567:
	.loc 1 7597 1
	ret
	.cfi_endproc
.LFE132:
	.size	mbedtls_ssl_check_curve, .-mbedtls_ssl_check_curve
	.section	.text.mbedtls_ssl_check_sig_hash,"ax",@progbits
	.align	1
	.globl	mbedtls_ssl_check_sig_hash
	.type	mbedtls_ssl_check_sig_hash, @function
mbedtls_ssl_check_sig_hash:
.LFB133:
	.loc 1 7607 1 is_stmt 1
	.cfi_startproc
.LVL568:
	.loc 1 7608 5
	.loc 1 7610 5
	.loc 1 7610 18 is_stmt 0
	lw	a5,0(a0)
	lw	a5,76(a5)
	.loc 1 7610 7
	bne	a5,zero,.L456
.L458:
	.loc 1 7611 15
	li	a0,-1
.LVL569:
	ret
.LVL570:
.L457:
	.loc 1 7614 9 is_stmt 1
	.loc 1 7614 11 is_stmt 0
	beq	a1,a4,.L459
	.loc 1 7613 67 discriminator 2
	addi	a5,a5,4
.LVL571:
.L456:
	.loc 1 7613 39 discriminator 1
	lw	a4,0(a5)
	.loc 1 7613 5 discriminator 1
	bne	a4,zero,.L457
	j	.L458
.L459:
	.loc 1 7615 19
	li	a0,0
.LVL572:
	.loc 1 7618 1
	ret
	.cfi_endproc
.LFE133:
	.size	mbedtls_ssl_check_sig_hash, .-mbedtls_ssl_check_sig_hash
	.section	.text.mbedtls_ssl_check_cert_usage,"ax",@progbits
	.align	1
	.globl	mbedtls_ssl_check_cert_usage
	.type	mbedtls_ssl_check_cert_usage, @function
mbedtls_ssl_check_cert_usage:
.LFB134:
	.loc 1 7626 1 is_stmt 1
	.cfi_startproc
.LVL573:
	.loc 1 7627 5
	.loc 1 7629 5
	.loc 1 7632 5
	.loc 1 7633 5
	.loc 1 7644 5
	.loc 1 7626 1 is_stmt 0
	addi	sp,sp,-32
	.cfi_def_cfa_offset 32
	sw	s1,20(sp)
	sw	s2,16(sp)
	sw	ra,28(sp)
	sw	s0,24(sp)
	.cfi_offset 9, -12
	.cfi_offset 18, -16
	.cfi_offset 1, -4
	.cfi_offset 8, -8
	.loc 1 7644 7
	li	a4,1
	.loc 1 7626 1
	mv	a5,a1
	mv	s2,a0
	mv	s1,a3
	.loc 1 7677 15
	li	a1,128
.LVL574:
	.loc 1 7644 7
	bne	a2,a4,.L461
	.loc 1 7647 9 is_stmt 1
	.loc 1 7647 28 is_stmt 0
	lbu	a5,10(a5)
.LVL575:
	li	a4,10
	.loc 1 7629 9
	li	a1,0
	bgtu	a5,a4,.L461
	sll	a5,a2,a5
	andi	a4,a5,130
	.loc 1 7651 23
	li	a1,32
	bne	a4,zero,.L461
	andi	a4,a5,1536
	.loc 1 7662 23
	li	a1,8
	bne	a4,zero,.L461
	andi	a5,a5,28
	.loc 1 7629 9
	snez	a1,a5
	slli	a1,a1,7
.L461:
	.loc 1 7680 9
	mv	a0,s2
.LVL576:
	sw	a2,12(sp)
.LVL577:
	.loc 1 7680 5 is_stmt 1
	.loc 1 7680 9 is_stmt 0
	call	mbedtls_x509_crt_check_key_usage
.LVL578:
	mv	s0,a0
	.loc 1 7680 7
	lw	a2,12(sp)
	beq	a0,zero,.L462
	.loc 1 7682 9 is_stmt 1
	.loc 1 7682 16 is_stmt 0
	lw	a5,0(s1)
	li	a4,4096
	addi	a4,a4,-2048
	or	a5,a5,a4
	sw	a5,0(s1)
	.loc 1 7683 9 is_stmt 1
.LVL579:
	.loc 1 7683 13 is_stmt 0
	li	s0,-1
.LVL580:
.L462:
	.loc 1 7690 5 is_stmt 1
	.loc 1 7690 7 is_stmt 0
	li	a5,1
	beq	a2,a5,.L470
	.loc 1 7697 17
	lui	a1,%hi(.LC56)
	addi	a1,a1,%lo(.LC56)
.L463:
.LVL581:
	.loc 1 7701 5 is_stmt 1
	.loc 1 7701 9 is_stmt 0
	li	a2,8
	mv	a0,s2
	call	mbedtls_x509_crt_check_extended_key_usage
.LVL582:
	.loc 1 7701 7
	beq	a0,zero,.L460
	.loc 1 7703 9 is_stmt 1
	.loc 1 7703 16 is_stmt 0
	lw	a5,0(s1)
	li	a4,4096
	.loc 1 7704 13
	li	s0,-1
.LVL583:
	.loc 1 7703 16
	or	a5,a5,a4
	sw	a5,0(s1)
	.loc 1 7704 9 is_stmt 1
.LVL584:
	.loc 1 7708 5
.L460:
	.loc 1 7709 1 is_stmt 0
	mv	a0,s0
	lw	ra,28(sp)
	.cfi_remember_state
	.cfi_restore 1
	lw	s0,24(sp)
	.cfi_restore 8
	lw	s1,20(sp)
	.cfi_restore 9
.LVL585:
	lw	s2,16(sp)
	.cfi_restore 18
.LVL586:
	addi	sp,sp,32
	.cfi_def_cfa_offset 0
.LVL587:
	jr	ra
.LVL588:
.L470:
	.cfi_restore_state
	.loc 1 7692 17
	lui	a1,%hi(.LC55)
	addi	a1,a1,%lo(.LC55)
	j	.L463
	.cfi_endproc
.LFE134:
	.size	mbedtls_ssl_check_cert_usage, .-mbedtls_ssl_check_cert_usage
	.section	.text.mbedtls_ssl_write_version,"ax",@progbits
	.align	1
	.globl	mbedtls_ssl_write_version
	.type	mbedtls_ssl_write_version, @function
mbedtls_ssl_write_version:
.LFB135:
	.loc 1 7723 1 is_stmt 1
	.cfi_startproc
.LVL589:
	.loc 1 7725 5
	.loc 1 7725 7 is_stmt 0
	li	a5,1
	andi	a0,a0,0xff
.LVL590:
	bne	a2,a5,.L479
.LVL591:
.LBB129:
.LBB130:
	.loc 1 7727 9 is_stmt 1
	.loc 1 7727 11 is_stmt 0
	li	a5,2
	bne	a1,a5,.L480
	.loc 1 7728 13
	li	a1,1
.LVL592:
.L480:
	.loc 1 7730 9 is_stmt 1
	.loc 1 7730 49 is_stmt 0
	addi	a0,a0,-2
	.loc 1 7730 18
	not	a0,a0
	.loc 1 7730 16
	sb	a0,0(a3)
	.loc 1 7731 9 is_stmt 1
	.loc 1 7731 18 is_stmt 0
	neg	a1,a1
.LVL593:
.L482:
.LBE130:
.LBE129:
	.loc 1 7739 9 is_stmt 1
	.loc 1 7739 18 is_stmt 0
	sb	a1,1(a3)
	.loc 1 7741 1
	ret
.LVL594:
.L479:
	.loc 1 7738 9 is_stmt 1
	.loc 1 7738 16 is_stmt 0
	sb	a0,0(a3)
	j	.L482
	.cfi_endproc
.LFE135:
	.size	mbedtls_ssl_write_version, .-mbedtls_ssl_write_version
	.section	.text.mbedtls_ssl_write_record,"ax",@progbits
	.align	1
	.globl	mbedtls_ssl_write_record
	.type	mbedtls_ssl_write_record, @function
mbedtls_ssl_write_record:
.LFB41:
	.loc 1 2723 1 is_stmt 1
	.cfi_startproc
.LVL595:
	.loc 1 2724 5
	.loc 1 2725 5
	.loc 1 2723 1 is_stmt 0
	addi	sp,sp,-96
	.cfi_def_cfa_offset 96
	sw	s2,80(sp)
	.loc 1 2727 5
	lui	a4,%hi(.LC57)
	li	a3,4096
	.cfi_offset 18, -16
	lui	s2,%hi(.LC1)
	.loc 1 2723 1
	sw	s0,88(sp)
	sw	ra,92(sp)
	sw	s1,84(sp)
	sw	s3,76(sp)
	sw	s4,72(sp)
	sw	s5,68(sp)
	sw	s6,64(sp)
	.cfi_offset 8, -8
	.cfi_offset 1, -4
	.cfi_offset 9, -12
	.cfi_offset 19, -20
	.cfi_offset 20, -24
	.cfi_offset 21, -28
	.cfi_offset 22, -32
	.loc 1 2727 5
	addi	a4,a4,%lo(.LC57)
	addi	a3,a3,-1369
	addi	a2,s2,%lo(.LC1)
	li	a1,2
	.loc 1 2723 1
	mv	s0,a0
	.loc 1 2725 12
	lw	s3,168(a0)
.LVL596:
	.loc 1 2727 5 is_stmt 1
	call	mbedtls_debug_print_msg
.LVL597:
	.loc 1 2730 5
	.loc 1 2730 30 is_stmt 0
	lw	a5,0(s0)
	lhu	a5,104(a5)
	.loc 1 2730 7
	andi	a5,a5,2
	beq	a5,zero,.L484
	.loc 1 2731 12 discriminator 1
	lw	a5,48(s0)
	.loc 1 2730 35 discriminator 1
	beq	a5,zero,.L484
	.loc 1 2731 31
	lbu	a4,52(a5)
	li	a5,1
	beq	a4,a5,.L485
.L484:
	.loc 1 2738 5 is_stmt 1
	.loc 1 2738 7 is_stmt 0
	lw	a4,164(s0)
	li	a5,22
	bne	a4,a5,.L485
	.loc 1 2740 9 is_stmt 1
	.loc 1 2740 27 is_stmt 0
	lw	a5,160(s0)
	.loc 1 2740 22
	lbu	s1,0(a5)
.LVL598:
	.loc 1 2742 9 is_stmt 1
	.loc 1 2742 11 is_stmt 0
	beq	s1,zero,.L486
	.loc 1 2742 31 discriminator 1
	lw	a4,48(s0)
	bne	a4,zero,.L486
	.loc 1 2745 13 is_stmt 1
	lui	a4,%hi(.LC17)
	li	a3,4096
	addi	a4,a4,%lo(.LC17)
	addi	a3,a3,-1351
	addi	a2,s2,%lo(.LC1)
	li	a1,1
	mv	a0,s0
	.loc 1 2746 19 is_stmt 0
	li	s1,-28672
.LVL599:
	.loc 1 2745 13
	call	mbedtls_debug_print_msg
.LVL600:
	.loc 1 2746 13 is_stmt 1
	.loc 1 2746 19 is_stmt 0
	addi	s1,s1,1024
.LVL601:
.L483:
	.loc 1 2879 1
	lw	ra,92(sp)
	.cfi_remember_state
	.cfi_restore 1
	lw	s0,88(sp)
	.cfi_restore 8
.LVL602:
	mv	a0,s1
	lw	s2,80(sp)
	.cfi_restore 18
	lw	s1,84(sp)
	.cfi_restore 9
	lw	s3,76(sp)
	.cfi_restore 19
	lw	s4,72(sp)
	.cfi_restore 20
	lw	s5,68(sp)
	.cfi_restore 21
	lw	s6,64(sp)
	.cfi_restore 22
	addi	sp,sp,96
	.cfi_def_cfa_offset 0
	jr	ra
.LVL603:
.L486:
	.cfi_restore_state
	.loc 1 2749 9 is_stmt 1
	.loc 1 2749 50 is_stmt 0
	addi	a2,s3,-4
	.loc 1 2749 56
	srli	a4,a2,16
	.loc 1 2749 27
	sb	a4,1(a5)
	.loc 1 2750 9 is_stmt 1
	.loc 1 2750 12 is_stmt 0
	lw	a5,160(s0)
	.loc 1 2750 56
	srli	a4,a2,8
	.loc 1 2750 27
	sb	a4,2(a5)
	.loc 1 2751 9 is_stmt 1
	.loc 1 2751 12 is_stmt 0
	lw	a5,160(s0)
	.loc 1 2751 25
	sb	a2,3(a5)
	.loc 1 2761 9 is_stmt 1
	.loc 1 2761 34 is_stmt 0
	lw	a5,0(s0)
	lhu	a5,104(a5)
	.loc 1 2761 11
	andi	a5,a5,2
	beq	a5,zero,.L488
	.loc 1 2764 13 is_stmt 1
	.loc 1 2764 25 is_stmt 0
	lw	a0,160(s0)
	.loc 1 2766 17
	addi	s3,s3,8
.LVL604:
	.loc 1 2764 13
	addi	a1,a0,4
	addi	a0,a0,12
	call	memmove
.LVL605:
	.loc 1 2765 13 is_stmt 1
	.loc 1 2765 29 is_stmt 0
	lw	a5,168(s0)
	lw	a4,160(s0)
	addi	a5,a5,8
	sw	a5,168(s0)
	.loc 1 2766 13 is_stmt 1
.LVL606:
	.loc 1 2769 13
	.loc 1 2769 15 is_stmt 0
	beq	s1,zero,.L489
	.loc 1 2771 17 is_stmt 1
	.loc 1 2771 51 is_stmt 0
	lw	a5,48(s0)
	.loc 1 2771 65
	lw	a5,28(a5)
	srli	a5,a5,8
	.loc 1 2771 33
	sb	a5,4(a4)
	.loc 1 2772 17 is_stmt 1
	.loc 1 2772 51 is_stmt 0
	lw	a4,48(s0)
	.loc 1 2772 20
	lw	a5,160(s0)
	.loc 1 2772 33
	lw	a4,28(a4)
	sb	a4,5(a5)
	.loc 1 2773 17 is_stmt 1
	.loc 1 2773 24 is_stmt 0
	lw	a4,48(s0)
	.loc 1 2773 17
	lw	a5,28(a4)
	addi	a5,a5,1
	sw	a5,28(a4)
.L490:
	.loc 1 2782 13 is_stmt 1
	.loc 1 2782 34 is_stmt 0
	lw	a0,160(s0)
	.loc 1 2782 13
	li	a2,3
	li	a1,0
	addi	a0,a0,6
	call	memset
.LVL607:
	.loc 1 2783 13 is_stmt 1
	.loc 1 2783 24 is_stmt 0
	lw	a0,160(s0)
	.loc 1 2783 13
	li	a2,3
	addi	a1,a0,1
	addi	a0,a0,9
	call	memcpy
.LVL608:
.L488:
	.loc 1 2787 9 is_stmt 1
	.loc 1 2787 11 is_stmt 0
	beq	s1,zero,.L485
	.loc 1 2788 13 is_stmt 1
	.loc 1 2788 27 is_stmt 0
	lw	a5,48(s0)
	.loc 1 2788 13
	lw	a1,160(s0)
	mv	a2,s3
	lw	a5,196(a5)
	mv	a0,s0
	jalr	a5
.LVL609:
.L485:
	.loc 1 2793 5 is_stmt 1
	.loc 1 2793 30 is_stmt 0
	lw	a5,0(s0)
	lhu	a5,104(a5)
	.loc 1 2793 7
	andi	a5,a5,2
	beq	a5,zero,.L491
	.loc 1 2794 12 discriminator 1
	lw	a5,48(s0)
	.loc 1 2793 35 discriminator 1
	beq	a5,zero,.L491
	.loc 1 2794 31
	lbu	a4,52(a5)
	li	a5,1
	beq	a4,a5,.L491
	.loc 1 2795 47
	lw	a5,164(s0)
	li	a4,20
	andi	a5,a5,-3
	bne	a5,a4,.L491
	.loc 1 2799 9 is_stmt 1
.LVL610:
.LBB140:
.LBB141:
	.loc 1 2500 5
	.loc 1 2503 5
	.loc 1 2503 17 is_stmt 0
	li	a1,16
	li	a0,1
	call	mycalloc
.LVL611:
	mv	s1,a0
.LVL612:
	.loc 1 2503 7
	bne	a0,zero,.L492
	.loc 1 2505 9 is_stmt 1
	lui	a4,%hi(.LC58)
	li	a3,4096
	li	a5,16
	addi	a4,a4,%lo(.LC58)
	addi	a3,a3,-1590
	addi	a2,s2,%lo(.LC1)
	li	a1,1
	mv	a0,s0
	call	mbedtls_debug_print_msg
.LVL613:
	.loc 1 2507 9
.L493:
.LBE141:
.LBE140:
	.loc 1 2801 13
	li	s1,-32768
	lui	a4,%hi(.LC59)
	li	a3,4096
	addi	a5,s1,256
	addi	a4,a4,%lo(.LC59)
	addi	a3,a3,-1295
	addi	a2,s2,%lo(.LC1)
	li	a1,1
	mv	a0,s0
	call	mbedtls_debug_print_ret
.LVL614:
	.loc 1 2802 13
	.loc 1 2802 19 is_stmt 0
	addi	s1,s1,256
	j	.L483
.LVL615:
.L489:
	.loc 1 2777 17 is_stmt 1
	.loc 1 2777 33 is_stmt 0
	sb	zero,4(a4)
	.loc 1 2778 17 is_stmt 1
	.loc 1 2778 20 is_stmt 0
	lw	a5,160(s0)
	.loc 1 2778 33
	sb	zero,5(a5)
	j	.L490
.LVL616:
.L492:
.LBB145:
.LBB143:
	.loc 1 2510 5 is_stmt 1
	.loc 1 2510 20 is_stmt 0
	lw	a1,168(s0)
	li	a0,1
	call	mycalloc
.LVL617:
	.loc 1 2510 18
	sw	a0,0(s1)
	lw	a5,168(s0)
	.loc 1 2510 7
	bne	a0,zero,.L494
	.loc 1 2512 9 is_stmt 1
	lui	a4,%hi(.LC58)
	li	a3,4096
	mv	a0,s0
	addi	a4,a4,%lo(.LC58)
	addi	a3,a3,-1584
	addi	a2,s2,%lo(.LC1)
	li	a1,1
	call	mbedtls_debug_print_msg
.LVL618:
	.loc 1 2513 9
	mv	a0,s1
	call	vPortFree
.LVL619:
	.loc 1 2514 9
	j	.L493
.LVL620:
.L494:
	.loc 1 2518 5
	lw	a1,160(s0)
	mv	a2,a5
	call	memcpy
.LVL621:
	.loc 1 2519 5
	.loc 1 2519 19 is_stmt 0
	lw	a5,168(s0)
	.loc 1 2519 14
	sw	a5,4(s1)
	.loc 1 2520 5 is_stmt 1
	.loc 1 2520 15 is_stmt 0
	lw	a5,164(s0)
	.loc 1 2521 15
	sw	zero,12(s1)
	.loc 1 2520 15
	sb	a5,8(s1)
	.loc 1 2521 5 is_stmt 1
	.loc 1 2524 5
	.loc 1 2524 12 is_stmt 0
	lw	a4,48(s0)
	.loc 1 2524 23
	lw	a5,56(a4)
	.loc 1 2524 7
	bne	a5,zero,.L495
	.loc 1 2525 9 is_stmt 1
	.loc 1 2525 32 is_stmt 0
	sw	s1,56(a4)
.LVL622:
.L491:
.LBE143:
.LBE145:
	.loc 1 2837 5 is_stmt 1
	.loc 1 2839 9
	.loc 1 2839 12 is_stmt 0
	lw	a5,148(s0)
	.loc 1 2839 27
	lw	a4,164(s0)
	sb	a4,0(a5)
	.loc 1 2840 9 is_stmt 1
	.loc 1 2841 37 is_stmt 0
	lw	a5,0(s0)
	.loc 1 2840 9
	lw	a3,148(s0)
	lw	a1,12(s0)
	.loc 1 2841 37
	lw	a2,104(a5)
	.loc 1 2840 9
	lw	a0,8(s0)
	addi	a3,a3,1
	.loc 1 2841 37
	srli	a2,a2,1
	.loc 1 2840 9
	andi	a2,a2,1
	call	mbedtls_ssl_write_version
.LVL623:
	.loc 1 2843 9 is_stmt 1
	.loc 1 2843 12 is_stmt 0
	lw	a5,152(s0)
	.loc 1 2843 48
	srli	a4,s3,8
	.loc 1 2843 27
	sb	a4,0(a5)
	.loc 1 2844 9 is_stmt 1
	.loc 1 2844 12 is_stmt 0
	lw	a5,152(s0)
	.loc 1 2844 27
	sb	s3,1(a5)
	.loc 1 2846 9 is_stmt 1
	.loc 1 2846 11 is_stmt 0
	lw	a5,56(s0)
	beq	a5,zero,.L496
	.loc 1 2848 13 is_stmt 1
.LVL624:
.LBB146:
.LBB147:
	.loc 1 1281 5
	.loc 1 1282 5
	.loc 1 1284 5
	lui	a4,%hi(.LC60)
	addi	a4,a4,%lo(.LC60)
	li	a3,1284
	addi	a2,s2,%lo(.LC1)
	li	a1,2
	mv	a0,s0
	call	mbedtls_debug_print_msg
.LVL625:
	.loc 1 1286 5
	.loc 1 1286 7 is_stmt 0
	lw	a5,36(s0)
	beq	a5,zero,.L497
	.loc 1 1286 39
	lw	a5,56(s0)
	.loc 1 1286 33
	bne	a5,zero,.L498
.L497:
	.loc 1 1288 9 is_stmt 1
	lui	a4,%hi(.LC17)
	addi	a4,a4,%lo(.LC17)
	li	a3,1288
.LVL626:
.L554:
	.loc 1 1582 9 is_stmt 0
	addi	a2,s2,%lo(.LC1)
	li	a1,1
	mv	a0,s0
	.loc 1 1583 15
	li	s1,-28672
	.loc 1 1582 9
	call	mbedtls_debug_print_msg
.LVL627:
	.loc 1 1583 9 is_stmt 1
	.loc 1 1583 15 is_stmt 0
	addi	s1,s1,1024
	j	.L499
.LVL628:
.L520:
.LBE147:
.LBE146:
.LBB157:
.LBB144:
.LBB142:
	.loc 1 2529 14
	mv	a5,a4
.LVL629:
.L495:
	.loc 1 2529 19
	lw	a4,12(a5)
	.loc 1 2529 14
	bne	a4,zero,.L520
	.loc 1 2531 9 is_stmt 1
	.loc 1 2531 19 is_stmt 0
	sw	s1,12(a5)
.LVL630:
	j	.L491
.LVL631:
.L498:
.LBE142:
.LBE144:
.LBE157:
.LBB158:
.LBB155:
	.loc 1 1292 5 is_stmt 1
.LBB148:
.LBB149:
	.loc 3 359 5
	.loc 3 359 34 is_stmt 0
	lw	a5,80(a5)
.LVL632:
	.loc 3 360 16
	li	s1,0
	.loc 3 359 20
	beq	a5,zero,.L500
	.loc 3 362 5 is_stmt 1
	.loc 3 362 28 is_stmt 0
	lbu	s1,1(a5)
.L500:
.LVL633:
.LBE149:
.LBE148:
	.loc 1 1294 5 is_stmt 1
	lw	a5,160(s0)
	lw	a6,168(s0)
	lui	a4,%hi(.LC61)
	addi	a4,a4,%lo(.LC61)
	li	a3,1295
	addi	a2,s2,%lo(.LC1)
	li	a1,4
	mv	a0,s0
	call	mbedtls_debug_print_buf
.LVL634:
	.loc 1 1301 5
	.loc 1 1301 7 is_stmt 0
	li	a5,7
	beq	s1,a5,.L501
	.loc 1 1301 37
	li	a5,2
	.loc 1 1282 9
	li	s5,0
	.loc 1 1301 37
	bne	s1,a5,.L502
.L501:
	.loc 1 1320 9 is_stmt 1
	.loc 1 1320 11 is_stmt 0
	lw	a5,12(s0)
	ble	a5,zero,.L503
	.loc 1 1322 13 is_stmt 1
	lw	a0,56(s0)
	lw	a1,144(s0)
	li	a2,8
	addi	a0,a0,56
	call	mbedtls_md_hmac_update
.LVL635:
	.loc 1 1323 13
	lw	a0,56(s0)
	lw	a1,148(s0)
	li	a2,3
	addi	a0,a0,56
	call	mbedtls_md_hmac_update
.LVL636:
	.loc 1 1324 13
	lw	a0,56(s0)
	lw	a1,152(s0)
	li	a2,2
	addi	a0,a0,56
	call	mbedtls_md_hmac_update
.LVL637:
	.loc 1 1325 13
	lw	a0,56(s0)
	lw	a2,168(s0)
	lw	a1,160(s0)
	addi	a0,a0,56
	.loc 1 1343 18 is_stmt 0
	li	s5,1
	.loc 1 1325 13
	call	mbedtls_md_hmac_update
.LVL638:
	.loc 1 1327 13 is_stmt 1
	lw	a5,168(s0)
	lw	a1,160(s0)
	lw	a0,56(s0)
	add	a1,a1,a5
	addi	a0,a0,56
	call	mbedtls_md_hmac_finish
.LVL639:
	.loc 1 1329 13
	lw	a0,56(s0)
	addi	a0,a0,56
	call	mbedtls_md_hmac_reset
.LVL640:
	.loc 1 1338 9
	lw	a3,56(s0)
	.loc 1 1338 40 is_stmt 0
	lw	a4,160(s0)
	lw	a5,168(s0)
	.loc 1 1338 9
	lw	a6,20(a3)
	addi	a2,s2,%lo(.LC1)
	add	a5,a4,a5
	lui	a4,%hi(.LC62)
	addi	a4,a4,%lo(.LC62)
	li	a3,1340
	li	a1,4
	mv	a0,s0
	call	mbedtls_debug_print_buf
.LVL641:
	.loc 1 1342 9 is_stmt 1
	.loc 1 1342 46 is_stmt 0
	lw	a4,56(s0)
	.loc 1 1342 25
	lw	a5,168(s0)
	lw	a4,20(a4)
	add	a5,a5,a4
	sw	a5,168(s0)
	.loc 1 1343 9 is_stmt 1
.LVL642:
.L502:
	.loc 1 1379 5
	.loc 1 1379 7 is_stmt 0
	addi	a5,s1,-6
	andi	a5,a5,253
	bne	a5,zero,.L504
.LBB150:
	.loc 1 1382 9 is_stmt 1
	.loc 1 1383 9
	.loc 1 1384 9
	.loc 1 1385 9
	.loc 1 1386 9
	.loc 1 1386 50 is_stmt 0
	lw	a5,56(s0)
	.loc 1 1386 23
	li	s3,8
.LVL643:
	.loc 1 1386 68
	lw	a5,0(a5)
	.loc 1 1386 23
	lbu	a5,28(a5)
	andi	a5,a5,2
	bne	a5,zero,.L505
	li	s3,16
.L505:
.LVL644:
	.loc 1 1389 9 is_stmt 1
	lw	a1,144(s0)
	li	a2,8
	addi	a0,sp,48
	call	memcpy
.LVL645:
	.loc 1 1390 9
	.loc 1 1390 21 is_stmt 0
	lw	a5,164(s0)
	.loc 1 1391 9
	lw	a1,12(s0)
	lw	a0,8(s0)
	.loc 1 1390 21
	sb	a5,56(sp)
	.loc 1 1391 9 is_stmt 1
	.loc 1 1392 37 is_stmt 0
	lw	a5,0(s0)
	.loc 1 1391 9
	addi	a3,sp,57
	.loc 1 1392 37
	lw	a2,104(a5)
	srli	a2,a2,1
	.loc 1 1391 9
	andi	a2,a2,1
	call	mbedtls_ssl_write_version
.LVL646:
	.loc 1 1393 9 is_stmt 1
	.loc 1 1393 29 is_stmt 0
	lw	a5,168(s0)
	.loc 1 1396 9
	mv	a0,s0
	li	a6,13
	.loc 1 1393 42
	srli	a4,a5,8
	.loc 1 1393 22
	sb	a4,59(sp)
	.loc 1 1394 9 is_stmt 1
	.loc 1 1396 9 is_stmt 0
	lui	a4,%hi(.LC63)
	.loc 1 1394 22
	sb	a5,60(sp)
	.loc 1 1396 9 is_stmt 1
	addi	a4,a4,%lo(.LC63)
	addi	a5,sp,48
	li	a3,1397
	addi	a2,s2,%lo(.LC1)
	li	a1,4
	call	mbedtls_debug_print_buf
.LVL647:
	.loc 1 1402 9
	.loc 1 1402 16 is_stmt 0
	lw	a5,56(s0)
	.loc 1 1402 39
	lw	a4,12(a5)
	.loc 1 1402 59
	lw	a0,16(a5)
	.loc 1 1402 11
	addi	a4,a4,-8
	beq	a4,a0,.L506
	.loc 1 1405 13 is_stmt 1
	lui	a4,%hi(.LC17)
	addi	a4,a4,%lo(.LC17)
	li	a3,1405
	j	.L554
.LVL648:
.L503:
.LBE150:
	.loc 1 1334 13
	lui	a4,%hi(.LC17)
	addi	a4,a4,%lo(.LC17)
	li	a3,1334
	j	.L554
.LVL649:
.L506:
.LBB151:
	.loc 1 1409 9
	lw	a1,144(s0)
	.loc 1 1409 17 is_stmt 0
	addi	a5,a5,24
	.loc 1 1409 9
	add	a0,a5,a0
	li	a2,8
	call	memcpy
.LVL650:
	.loc 1 1411 9 is_stmt 1
	lw	a1,144(s0)
	lw	a0,156(s0)
	li	a2,8
	call	memcpy
.LVL651:
	.loc 1 1413 9
	.loc 1 1413 38 is_stmt 0
	lw	a5,56(s0)
	.loc 1 1413 9
	lui	a4,%hi(.LC64)
	addi	a4,a4,%lo(.LC64)
	lw	a6,12(a5)
	lw	a5,16(a5)
	li	a3,1414
	addi	a2,s2,%lo(.LC1)
	sub	a6,a6,a5
	lw	a5,156(s0)
	li	a1,4
	mv	a0,s0
	call	mbedtls_debug_print_buf
.LVL652:
	.loc 1 1419 9 is_stmt 1
	.loc 1 1421 31 is_stmt 0
	lw	a4,56(s0)
	.loc 1 1420 20
	lw	s4,168(s0)
	.loc 1 1419 17
	lw	a7,160(s0)
	.loc 1 1421 25
	lw	a5,12(a4)
	lw	a4,16(a4)
	.loc 1 1424 9
	li	a6,0
	.loc 1 1421 25
	add	a5,s4,a5
	sub	a5,a5,a4
	.loc 1 1424 9
	lui	a4,%hi(.LC65)
	.loc 1 1421 25
	sw	a5,168(s0)
	.loc 1 1424 9
	addi	a4,a4,%lo(.LC65)
	li	a3,1426
	addi	a2,s2,%lo(.LC1)
	li	a1,3
	mv	a0,s0
	.loc 1 1419 17
	sw	a7,28(sp)
.LVL653:
	.loc 1 1420 9 is_stmt 1
	.loc 1 1421 9
	.loc 1 1424 9
	call	mbedtls_debug_print_msg
.LVL654:
	.loc 1 1431 9
	.loc 1 1431 54 is_stmt 0
	lw	a0,56(s0)
	.loc 1 1431 21
	lw	a7,28(sp)
	addi	a5,sp,44
	lw	a2,12(a0)
	add	s6,a7,s4
	sw	a5,0(sp)
	addi	a1,a0,24
	sw	s3,8(sp)
	sw	s6,4(sp)
	mv	a6,s4
	mv	a5,a7
	li	a4,13
	addi	a3,sp,48
	addi	a0,a0,80
	call	mbedtls_cipher_auth_encrypt
.LVL655:
	mv	s1,a0
.LVL656:
	.loc 1 1431 11
	beq	a0,zero,.L507
	.loc 1 1439 13 is_stmt 1
	lui	a4,%hi(.LC66)
	mv	a5,a0
	addi	a4,a4,%lo(.LC66)
	li	a3,1439
.LVL657:
.L555:
.LBE151:
.LBB152:
	.loc 1 1515 13 is_stmt 0
	addi	a2,s2,%lo(.LC1)
	li	a1,1
	mv	a0,s0
	call	mbedtls_debug_print_ret
.LVL658:
	.loc 1 1516 13 is_stmt 1
.L499:
.LBE152:
.LBE155:
.LBE158:
	.loc 1 2850 17
	lui	a4,%hi(.LC71)
	li	a3,4096
	mv	a5,s1
	addi	a4,a4,%lo(.LC71)
	addi	a3,a3,-1246
.L556:
	.loc 1 2872 9 is_stmt 0
	addi	a2,s2,%lo(.LC1)
	li	a1,1
	mv	a0,s0
	call	mbedtls_debug_print_ret
.LVL659:
	.loc 1 2873 9 is_stmt 1
	.loc 1 2873 15 is_stmt 0
	j	.L483
.LVL660:
.L507:
.LBB159:
.LBB156:
.LBB153:
	.loc 1 1443 9 is_stmt 1
	.loc 1 1443 11 is_stmt 0
	lw	a5,44(sp)
	beq	s4,a5,.L508
	.loc 1 1445 13 is_stmt 1
	lui	a4,%hi(.LC17)
	addi	a4,a4,%lo(.LC17)
	li	a3,1445
	j	.L554
.L508:
	.loc 1 1449 9
	.loc 1 1449 25 is_stmt 0
	lw	a5,168(s0)
	.loc 1 1452 9
	lui	a4,%hi(.LC67)
	mv	a6,s3
	.loc 1 1449 25
	add	a5,a5,s3
	sw	a5,168(s0)
	.loc 1 1450 9 is_stmt 1
	.loc 1 1452 9 is_stmt 0
	addi	a4,a4,%lo(.LC67)
	mv	a5,s6
	li	a3,1452
	addi	a2,s2,%lo(.LC1)
	li	a1,4
	mv	a0,s0
	.loc 1 1450 18
	addi	s5,s5,1
.LVL661:
	.loc 1 1452 9 is_stmt 1
	call	mbedtls_debug_print_buf
.LVL662:
.L509:
.LBE153:
	.loc 1 1580 5
	.loc 1 1580 7 is_stmt 0
	li	a5,1
	beq	s5,a5,.L518
	.loc 1 1582 9 is_stmt 1
	lui	a4,%hi(.LC17)
	addi	a4,a4,%lo(.LC17)
	li	a3,1582
	j	.L554
.LVL663:
.L504:
	.loc 1 1458 5
	.loc 1 1458 7 is_stmt 0
	li	a5,2
	bne	s1,a5,.L510
.LBB154:
	.loc 1 1460 9 is_stmt 1
	.loc 1 1461 9
	.loc 1 1462 9
	.loc 1 1464 36 is_stmt 0
	lw	a5,56(s0)
	.loc 1 1462 36
	sw	zero,48(sp)
	.loc 1 1464 9 is_stmt 1
	.loc 1 1464 64 is_stmt 0
	lw	s3,168(s0)
.LVL664:
	.loc 1 1464 36
	lw	a5,12(a5)
	.loc 1 1464 64
	addi	s3,s3,1
	.loc 1 1464 70
	remu	s3,s3,a5
	.loc 1 1464 16
	sub	s3,a5,s3
.LVL665:
	.loc 1 1466 9 is_stmt 1
	.loc 1 1466 11 is_stmt 0
	bne	a5,s3,.L511
	.loc 1 1467 20
	li	s3,0
.LVL666:
.L511:
	.loc 1 1469 9 is_stmt 1
	.loc 1 1469 16 is_stmt 0
	li	a4,0
.LVL667:
.L512:
	.loc 1 1470 13 is_stmt 1
	.loc 1 1470 47 is_stmt 0
	lw	a5,160(s0)
	lw	a3,168(s0)
	add	a5,a5,a4
	add	a5,a5,a3
	.loc 1 1470 49
	sb	s3,0(a5)
.LVL668:
	.loc 1 1469 35
	addi	a4,a4,1
.LVL669:
	.loc 1 1469 9
	bgeu	s3,a4,.L512
	.loc 1 1472 9 is_stmt 1
	.loc 1 1472 25 is_stmt 0
	lw	s4,168(s0)
	.loc 1 1482 11
	lw	a4,12(s0)
.LVL670:
	li	a5,1
	.loc 1 1472 25
	addi	s4,s4,1
	add	s4,s4,s3
	sw	s4,168(s0)
	.loc 1 1474 9 is_stmt 1
.LVL671:
	.loc 1 1475 9
	.loc 1 1482 9
	.loc 1 1482 11 is_stmt 0
	bgt	a4,a5,.L513
	.loc 1 1475 17
	lw	s1,160(s0)
.LVL672:
.L514:
	.loc 1 1504 9 is_stmt 1
	lw	a5,56(s0)
	lui	a4,%hi(.LC68)
	addi	a7,s3,1
	lw	a6,12(a5)
	lw	a5,168(s0)
	addi	a4,a4,%lo(.LC68)
	li	a3,1507
	addi	a2,s2,%lo(.LC1)
	li	a1,3
	mv	a0,s0
	call	mbedtls_debug_print_msg
.LVL673:
	.loc 1 1509 9
	.loc 1 1509 47 is_stmt 0
	lw	a0,56(s0)
	.loc 1 1509 21
	mv	a5,s1
	mv	a3,s1
	lw	a2,12(a0)
	addi	a1,a0,24
	addi	a6,sp,48
	mv	a4,s4
	addi	a0,a0,80
	call	mbedtls_cipher_crypt
.LVL674:
	mv	s1,a0
.LVL675:
	.loc 1 1509 11
	beq	a0,zero,.L516
	.loc 1 1515 13 is_stmt 1
	lui	a4,%hi(.LC69)
	mv	a5,a0
	addi	a4,a4,%lo(.LC69)
	li	a3,1515
	j	.L555
.LVL676:
.L513:
	lw	a1,56(s0)
	.loc 1 1487 13
	.loc 1 1487 22 is_stmt 0
	lw	a5,0(s0)
	.loc 1 1487 19
	lw	a2,12(a1)
	lw	a4,24(a5)
	lw	a0,28(a5)
	addi	a1,a1,24
	jalr	a4
.LVL677:
	mv	s1,a0
.LVL678:
	.loc 1 1489 13 is_stmt 1
	.loc 1 1489 15 is_stmt 0
	bne	a0,zero,.L499
	.loc 1 1492 13 is_stmt 1
	.loc 1 1492 37 is_stmt 0
	lw	a1,56(s0)
	.loc 1 1492 13
	lw	a0,156(s0)
	lw	a2,12(a1)
	addi	a1,a1,24
	call	memcpy
.LVL679:
	.loc 1 1498 13 is_stmt 1
	.loc 1 1500 50 is_stmt 0
	lw	a5,56(s0)
	.loc 1 1499 24
	lw	s4,168(s0)
.LVL680:
	.loc 1 1498 21
	lw	s1,160(s0)
.LVL681:
	.loc 1 1499 13 is_stmt 1
	.loc 1 1500 13
	.loc 1 1500 29 is_stmt 0
	lw	a5,12(a5)
	add	a5,a5,s4
	sw	a5,168(s0)
	j	.L514
.LVL682:
.L516:
	.loc 1 1519 9 is_stmt 1
	.loc 1 1519 11 is_stmt 0
	lw	a5,48(sp)
	beq	s4,a5,.L509
	.loc 1 1521 13 is_stmt 1
	lui	a4,%hi(.LC17)
	addi	a4,a4,%lo(.LC17)
	li	a3,1521
	j	.L554
.LVL683:
.L510:
.LBE154:
	.loc 1 1575 9
	lui	a4,%hi(.LC17)
	addi	a4,a4,%lo(.LC17)
	li	a3,1575
	j	.L554
.LVL684:
.L518:
	.loc 1 1586 5
	lui	a4,%hi(.LC70)
	addi	a4,a4,%lo(.LC70)
	li	a3,1586
	addi	a2,s2,%lo(.LC1)
	li	a1,2
	mv	a0,s0
	call	mbedtls_debug_print_msg
.LVL685:
	.loc 1 1588 5
.LBE156:
.LBE159:
	.loc 1 2854 13
	.loc 1 2854 17 is_stmt 0
	lw	a5,168(s0)
.LVL686:
	.loc 1 2855 13 is_stmt 1
	.loc 1 2855 16 is_stmt 0
	lw	a4,152(s0)
	.loc 1 2855 52
	srli	a3,a5,8
	.loc 1 2855 31
	sb	a3,0(a4)
	.loc 1 2856 13 is_stmt 1
	.loc 1 2856 16 is_stmt 0
	lw	a4,152(s0)
	.loc 1 2856 31
	sb	a5,1(a4)
.LVL687:
.L496:
	.loc 1 2859 9 is_stmt 1
	.loc 1 2859 25 is_stmt 0
	lw	a0,0(s0)
	.loc 1 2861 9
	li	s3,4096
	.loc 1 2859 25
	call	mbedtls_ssl_hdr_len.isra.1
.LVL688:
	.loc 1 2859 52
	lw	a5,168(s0)
	.loc 1 2861 9
	lw	a3,152(s0)
	li	a1,3
	.loc 1 2859 52
	add	a0,a5,a0
	.loc 1 2859 23
	sw	a0,172(s0)
	.loc 1 2861 9 is_stmt 1
	lbu	a4,1(a3)
	lbu	a2,0(a3)
	.loc 1 2861 80 is_stmt 0
	lw	a5,148(s0)
	.loc 1 2861 9
	slli	a4,a4,8
	or	a4,a4,a2
	slli	a3,a4,8
	srli	a4,a4,8
	or	a4,a3,a4
	slli	a4,a4,16
	lbu	a7,2(a5)
	lbu	a6,1(a5)
	srli	a4,a4,16
	lbu	a5,0(a5)
	sw	a4,0(sp)
	lui	a4,%hi(.LC72)
	addi	a4,a4,%lo(.LC72)
	addi	a3,s3,-1232
	addi	a2,s2,%lo(.LC1)
	mv	a0,s0
	call	mbedtls_debug_print_msg
.LVL689:
	.loc 1 2866 9 is_stmt 1
	.loc 1 2866 58 is_stmt 0
	lw	a0,0(s0)
	call	mbedtls_ssl_hdr_len.isra.1
.LVL690:
	.loc 1 2866 9
	lw	a6,168(s0)
	lw	a5,148(s0)
	lui	a4,%hi(.LC73)
	add	a6,a0,a6
	addi	a4,a4,%lo(.LC73)
	addi	a3,s3,-1229
	addi	a2,s2,%lo(.LC1)
	li	a1,4
	mv	a0,s0
	call	mbedtls_debug_print_buf
.LVL691:
	.loc 1 2870 5 is_stmt 1
	.loc 1 2870 17 is_stmt 0
	mv	a0,s0
	call	mbedtls_ssl_flush_output
.LVL692:
	mv	s1,a0
.LVL693:
	.loc 1 2870 7
	beq	a0,zero,.L519
	.loc 1 2872 9 is_stmt 1
	lui	a4,%hi(.LC74)
	mv	a5,a0
	addi	a4,a4,%lo(.LC74)
	addi	a3,s3,-1224
	j	.L556
.L519:
	.loc 1 2876 5
	lui	a4,%hi(.LC75)
	addi	a4,a4,%lo(.LC75)
	addi	a3,s3,-1220
	addi	a2,s2,%lo(.LC1)
	li	a1,2
	mv	a0,s0
	call	mbedtls_debug_print_msg
.LVL694:
	.loc 1 2878 5
	.loc 1 2878 11 is_stmt 0
	j	.L483
	.cfi_endproc
.LFE41:
	.size	mbedtls_ssl_write_record, .-mbedtls_ssl_write_record
	.section	.text.mbedtls_ssl_resend,"ax",@progbits
	.align	1
	.globl	mbedtls_ssl_resend
	.type	mbedtls_ssl_resend, @function
mbedtls_ssl_resend:
.LFB38:
	.loc 1 2616 1 is_stmt 1
	.cfi_startproc
.LVL695:
	.loc 1 2617 5
	.loc 1 2616 1 is_stmt 0
	addi	sp,sp,-48
	.cfi_def_cfa_offset 48
	sw	s2,32(sp)
	sw	s3,28(sp)
	.loc 1 2617 5
	lui	a4,%hi(.LC76)
	.cfi_offset 18, -16
	.cfi_offset 19, -20
	li	s3,4096
	lui	s2,%hi(.LC1)
	addi	a4,a4,%lo(.LC76)
	addi	a3,s3,-1479
	addi	a2,s2,%lo(.LC1)
	li	a1,2
	.loc 1 2616 1
	sw	s0,40(sp)
	sw	s1,36(sp)
	.cfi_offset 8, -8
	.cfi_offset 9, -12
	mv	s0,a0
	sw	ra,44(sp)
	sw	s4,24(sp)
	sw	s5,20(sp)
	sw	s6,16(sp)
	sw	s7,12(sp)
	.cfi_offset 1, -4
	.cfi_offset 20, -24
	.cfi_offset 21, -28
	.cfi_offset 22, -32
	.cfi_offset 23, -36
	.loc 1 2617 5
	call	mbedtls_debug_print_msg
.LVL696:
	.loc 1 2619 5 is_stmt 1
	.loc 1 2619 23 is_stmt 0
	lw	a5,48(s0)
	.loc 1 2619 7
	li	s1,1
	lbu	a5,52(a5)
	beq	a5,s1,.L558
	.loc 1 2621 9 is_stmt 1
	lui	a4,%hi(.LC77)
	addi	a4,a4,%lo(.LC77)
	addi	a3,s3,-1475
	addi	a2,s2,%lo(.LC1)
	li	a1,2
	mv	a0,s0
	call	mbedtls_debug_print_msg
.LVL697:
	.loc 1 2623 9
	.loc 1 2623 38 is_stmt 0
	lw	a5,48(s0)
	.loc 1 2624 9
	mv	a0,s0
	.loc 1 2623 33
	lw	a4,56(a5)
	sw	a4,60(a5)
	.loc 1 2624 9 is_stmt 1
	call	ssl_swap_epochs
.LVL698:
	.loc 1 2626 9
	.loc 1 2626 12 is_stmt 0
	lw	a5,48(s0)
	.loc 1 2626 42
	sb	s1,52(a5)
.L558:
.LBB160:
	.loc 1 2649 9
	li	s3,4096
	.loc 1 2637 11
	li	s4,22
	.loc 1 2637 29
	li	s5,20
	.loc 1 2649 9
	lui	s6,%hi(.LC78)
	addi	s7,s3,-1447
.L560:
.LBE160:
	.loc 1 2629 15
	lw	a5,48(s0)
	.loc 1 2629 26
	lw	s1,60(a5)
	.loc 1 2629 10
	bne	s1,zero,.L562
	.loc 1 2658 5 is_stmt 1
	.loc 1 2658 7 is_stmt 0
	lw	a3,4(s0)
	li	a4,16
	bne	a3,a4,.L563
	.loc 1 2659 9 is_stmt 1
	.loc 1 2659 42 is_stmt 0
	li	a4,3
	sb	a4,52(a5)
.L564:
	.loc 1 2666 5 is_stmt 1
	lui	a4,%hi(.LC80)
	li	a3,4096
	addi	a4,a4,%lo(.LC80)
	addi	a3,a3,-1430
	addi	a2,s2,%lo(.LC1)
	li	a1,2
	mv	a0,s0
	call	mbedtls_debug_print_msg
.LVL699:
	.loc 1 2668 5
	.loc 1 2668 11 is_stmt 0
	li	s1,0
	j	.L557
.L562:
.LBB161:
	.loc 1 2631 9 is_stmt 1
	.loc 1 2632 9
.LVL700:
	.loc 1 2637 9
	.loc 1 2637 11 is_stmt 0
	lbu	a5,8(s1)
	bne	a5,s4,.L559
	.loc 1 2638 19 discriminator 1
	lw	a5,0(s1)
	.loc 1 2637 29 discriminator 1
	lbu	a5,0(a5)
	bne	a5,s5,.L559
	.loc 1 2640 13 is_stmt 1
	mv	a0,s0
	call	ssl_swap_epochs
.LVL701:
.L559:
	.loc 1 2643 9
	lw	a2,4(s1)
	lw	a1,0(s1)
	lw	a0,160(s0)
	call	memcpy
.LVL702:
	.loc 1 2644 9
	.loc 1 2644 30 is_stmt 0
	lw	a5,4(s1)
	.loc 1 2649 9
	li	a6,12
	mv	a3,s7
	.loc 1 2644 25
	sw	a5,168(s0)
	.loc 1 2645 9 is_stmt 1
	.loc 1 2645 31 is_stmt 0
	lbu	a5,8(s1)
	.loc 1 2649 9
	addi	a2,s2,%lo(.LC1)
	li	a1,3
	.loc 1 2645 31
	sw	a5,164(s0)
	.loc 1 2647 9 is_stmt 1
	.loc 1 2647 38 is_stmt 0
	lw	a4,12(s1)
	.loc 1 2647 12
	lw	a5,48(s0)
	.loc 1 2649 9
	mv	a0,s0
	.loc 1 2647 33
	sw	a4,60(a5)
	.loc 1 2649 9 is_stmt 1
	lw	a5,160(s0)
	addi	a4,s6,%lo(.LC78)
	call	mbedtls_debug_print_buf
.LVL703:
	.loc 1 2651 9
	.loc 1 2651 21 is_stmt 0
	mv	a0,s0
	call	mbedtls_ssl_write_record
.LVL704:
	mv	s1,a0
.LVL705:
	.loc 1 2651 11
	beq	a0,zero,.L560
	.loc 1 2653 13 is_stmt 1
	lui	a4,%hi(.LC79)
	mv	a5,a0
	addi	a4,a4,%lo(.LC79)
	addi	a3,s3,-1443
	addi	a2,s2,%lo(.LC1)
	li	a1,1
	mv	a0,s0
	call	mbedtls_debug_print_ret
.LVL706:
	.loc 1 2654 13
.L557:
.LBE161:
	.loc 1 2669 1 is_stmt 0
	lw	ra,44(sp)
	.cfi_remember_state
	.cfi_restore 1
	lw	s0,40(sp)
	.cfi_restore 8
.LVL707:
	mv	a0,s1
	lw	s2,32(sp)
	.cfi_restore 18
	lw	s1,36(sp)
	.cfi_restore 9
	lw	s3,28(sp)
	.cfi_restore 19
	lw	s4,24(sp)
	.cfi_restore 20
	lw	s5,20(sp)
	.cfi_restore 21
	lw	s6,16(sp)
	.cfi_restore 22
	lw	s7,12(sp)
	.cfi_restore 23
	addi	sp,sp,48
	.cfi_def_cfa_offset 0
	jr	ra
.LVL708:
.L563:
	.cfi_restore_state
	.loc 1 2662 9 is_stmt 1
	.loc 1 2662 42 is_stmt 0
	li	a4,2
	sb	a4,52(a5)
	.loc 1 2663 9 is_stmt 1
	lw	a5,48(s0)
	mv	a0,s0
	lw	a1,48(a5)
	call	ssl_set_timer
.LVL709:
	j	.L564
	.cfi_endproc
.LFE38:
	.size	mbedtls_ssl_resend, .-mbedtls_ssl_resend
	.section	.text.mbedtls_ssl_fetch_input,"ax",@progbits
	.align	1
	.globl	mbedtls_ssl_fetch_input
	.type	mbedtls_ssl_fetch_input, @function
mbedtls_ssl_fetch_input:
.LFB33:
	.loc 1 2230 1
	.cfi_startproc
.LVL710:
	.loc 1 2231 5
	.loc 1 2232 5
	.loc 1 2234 5
	.loc 1 2230 1 is_stmt 0
	addi	sp,sp,-48
	.cfi_def_cfa_offset 48
	sw	s1,36(sp)
	sw	s4,24(sp)
	.cfi_offset 9, -12
	.cfi_offset 20, -24
	.loc 1 2234 5
	lui	s1,%hi(.LC1)
	lui	a4,%hi(.LC81)
	li	s4,4096
	.loc 1 2230 1
	sw	s3,28(sp)
	.loc 1 2234 5
	addi	a4,a4,%lo(.LC81)
	.cfi_offset 19, -20
	.loc 1 2230 1
	mv	s3,a1
	.loc 1 2234 5
	addi	a3,s4,-1862
	addi	a2,s1,%lo(.LC1)
	li	a1,2
.LVL711:
	.loc 1 2230 1
	sw	s0,40(sp)
	sw	s2,32(sp)
	.cfi_offset 8, -8
	.cfi_offset 18, -16
	mv	s0,a0
	sw	ra,44(sp)
	sw	s5,20(sp)
	sw	s6,16(sp)
	sw	s7,12(sp)
	sw	s8,8(sp)
	sw	s9,4(sp)
	.cfi_offset 1, -4
	.cfi_offset 21, -28
	.cfi_offset 22, -32
	.cfi_offset 23, -36
	.cfi_offset 24, -40
	.cfi_offset 25, -44
	.loc 1 2234 5
	call	mbedtls_debug_print_msg
.LVL712:
	.loc 1 2236 5 is_stmt 1
	.loc 1 2236 7 is_stmt 0
	lw	a5,20(s0)
	mv	s2,s1
	bne	a5,zero,.L569
	.loc 1 2236 28 discriminator 1
	lw	a5,24(s0)
	bne	a5,zero,.L569
	.loc 1 2238 9 is_stmt 1
	lui	a4,%hi(.LC33)
	addi	a4,a4,%lo(.LC33)
	addi	a3,s4,-1857
	addi	a2,s1,%lo(.LC1)
.L616:
	.loc 1 2245 9 is_stmt 0
	li	a1,1
	mv	a0,s0
	.loc 1 2246 15
	li	s1,-28672
	.loc 1 2245 9
	call	mbedtls_debug_print_msg
.LVL713:
	.loc 1 2246 9 is_stmt 1
	.loc 1 2246 15 is_stmt 0
	addi	s1,s1,-256
.LVL714:
.L568:
	.loc 1 2432 1
	lw	ra,44(sp)
	.cfi_remember_state
	.cfi_restore 1
	lw	s0,40(sp)
	.cfi_restore 8
.LVL715:
	mv	a0,s1
	lw	s2,32(sp)
	.cfi_restore 18
	lw	s1,36(sp)
	.cfi_restore 9
	lw	s3,28(sp)
	.cfi_restore 19
	lw	s4,24(sp)
	.cfi_restore 20
	lw	s5,20(sp)
	.cfi_restore 21
	lw	s6,16(sp)
	.cfi_restore 22
	lw	s7,12(sp)
	.cfi_restore 23
	lw	s8,8(sp)
	.cfi_restore 24
	lw	s9,4(sp)
	.cfi_restore 25
	addi	sp,sp,48
	.cfi_def_cfa_offset 0
	jr	ra
.LVL716:
.L569:
	.cfi_restore_state
	.loc 1 2243 5 is_stmt 1
	.loc 1 2243 79 is_stmt 0
	lw	a5,88(s0)
	lw	a4,80(s0)
	sub	a4,a5,a4
	.loc 1 2243 55
	li	a5,16384
	addi	a5,a5,317
	sub	a5,a5,a4
	.loc 1 2243 7
	bgeu	a5,s3,.L571
	.loc 1 2245 9 is_stmt 1
	lui	a4,%hi(.LC82)
	li	a3,4096
	addi	a4,a4,%lo(.LC82)
	addi	a3,a3,-1851
.L617:
	addi	a2,s2,%lo(.LC1)
	j	.L616
.L571:
	.loc 1 2250 5
	.loc 1 2250 30 is_stmt 0
	lw	a5,0(s0)
	lhu	a5,104(a5)
	.loc 1 2250 7
	andi	a5,a5,2
	beq	a5,zero,.L572
.LBB165:
	.loc 1 2252 9 is_stmt 1
	.loc 1 2255 9
	.loc 1 2255 11 is_stmt 0
	lw	a5,72(s0)
	beq	a5,zero,.L573
	.loc 1 2255 37 discriminator 1
	lw	a5,76(s0)
	bne	a5,zero,.L574
.L573:
	.loc 1 2257 13 is_stmt 1
	lui	a4,%hi(.LC83)
	li	a3,4096
	addi	a4,a4,%lo(.LC83)
	addi	a3,a3,-1838
	j	.L617
.L574:
	.loc 1 2272 9
	.loc 1 2272 16 is_stmt 0
	lw	a5,124(s0)
	.loc 1 2272 11
	beq	a5,zero,.L575
	lw	a4,116(s0)
	.loc 1 2274 13 is_stmt 1
	.loc 1 2274 15 is_stmt 0
	bleu	a5,a4,.L576
	.loc 1 2276 17 is_stmt 1
	lui	a4,%hi(.LC17)
	li	a3,4096
	addi	a4,a4,%lo(.LC17)
	addi	a3,a3,-1820
.L618:
	.loc 1 2313 13 is_stmt 0
	addi	a2,s2,%lo(.LC1)
	li	a1,1
	mv	a0,s0
	.loc 1 2314 19
	li	s1,-28672
	.loc 1 2313 13
	call	mbedtls_debug_print_msg
.LVL717:
	.loc 1 2314 13 is_stmt 1
	.loc 1 2314 19 is_stmt 0
	addi	s1,s1,1024
	j	.L568
.L576:
	.loc 1 2280 13 is_stmt 1
	.loc 1 2280 26 is_stmt 0
	sub	a4,a4,a5
	sw	a4,116(s0)
	.loc 1 2282 13 is_stmt 1
	.loc 1 2282 15 is_stmt 0
	beq	a4,zero,.L577
	.loc 1 2284 17 is_stmt 1
	lui	a4,%hi(.LC84)
	li	a3,4096
	addi	a2,s2,%lo(.LC1)
	li	a1,2
	mv	a0,s0
	addi	a4,a4,%lo(.LC84)
	addi	a3,a3,-1811
	call	mbedtls_debug_print_msg
.LVL718:
	.loc 1 2286 17
	.loc 1 2286 29 is_stmt 0
	lw	a0,88(s0)
	.loc 1 2287 38
	lw	a1,124(s0)
	.loc 1 2286 17
	lw	a2,116(s0)
	add	a1,a0,a1
	call	memmove
.LVL719:
.L577:
	.loc 1 2291 13 is_stmt 1
	.loc 1 2291 37 is_stmt 0
	sw	zero,124(s0)
.L575:
	.loc 1 2294 9 is_stmt 1
	lw	a5,116(s0)
	lui	a4,%hi(.LC85)
	li	s1,4096
	mv	a6,s3
	addi	a4,a4,%lo(.LC85)
	addi	a3,s1,-1801
	addi	a2,s2,%lo(.LC1)
	li	a1,2
	mv	a0,s0
	call	mbedtls_debug_print_msg
.LVL720:
	.loc 1 2300 9
	.loc 1 2300 27 is_stmt 0
	lw	a5,116(s0)
	.loc 1 2300 11
	bltu	a5,s3,.L578
	.loc 1 2302 13 is_stmt 1
	lui	a4,%hi(.LC86)
	addi	a4,a4,%lo(.LC86)
	addi	a3,s1,-1794
.LVL721:
.L619:
.LBE165:
	.loc 1 2429 5 is_stmt 0
	addi	a2,s2,%lo(.LC1)
	li	a1,2
	mv	a0,s0
	call	mbedtls_debug_print_msg
.LVL722:
	.loc 1 2431 5 is_stmt 1
	.loc 1 2431 11 is_stmt 0
	li	s1,0
	j	.L568
.LVL723:
.L578:
.LBB170:
	.loc 1 2311 9 is_stmt 1
	.loc 1 2311 11 is_stmt 0
	beq	a5,zero,.L579
	.loc 1 2313 13 is_stmt 1
	lui	a4,%hi(.LC17)
	addi	a4,a4,%lo(.LC17)
	addi	a3,s1,-1783
	j	.L618
.L579:
	.loc 1 2322 9
	.loc 1 2322 13 is_stmt 0
	mv	a0,s0
	call	ssl_check_timer
.LVL724:
	.loc 1 2322 11
	beq	a0,zero,.L580
.LVL725:
.L587:
	.loc 1 2349 13 is_stmt 1
	lui	a4,%hi(.LC87)
	li	s1,4096
	addi	a4,a4,%lo(.LC87)
	addi	a3,s1,-1747
	addi	a2,s2,%lo(.LC1)
	li	a1,2
	mv	a0,s0
	call	mbedtls_debug_print_msg
.LVL726:
	.loc 1 2350 13
	li	a1,0
	mv	a0,s0
	call	ssl_set_timer
.LVL727:
	.loc 1 2352 13
	.loc 1 2352 15 is_stmt 0
	lw	a4,4(s0)
	li	a5,16
	bne	a4,a5,.L581
.L620:
	.loc 1 2357 21 is_stmt 1
	.loc 1 2357 27 is_stmt 0
	li	s1,-24576
	addi	s1,s1,-2048
	j	.L568
.LVL728:
.L580:
	.loc 1 2326 13 is_stmt 1
	.loc 1 2326 71 is_stmt 0
	lw	s1,88(s0)
	lw	a5,80(s0)
	.loc 1 2328 15
	lw	a4,4(s0)
	.loc 1 2326 71
	sub	a5,s1,a5
	.loc 1 2326 55
	li	s1,16384
	addi	s1,s1,317
	sub	s1,s1,a5
.LVL729:
	.loc 1 2328 13 is_stmt 1
	.loc 1 2328 15 is_stmt 0
	li	a5,16
	beq	a4,a5,.L582
	.loc 1 2329 17 is_stmt 1
	.loc 1 2329 25 is_stmt 0
	lw	a5,48(s0)
	lw	s3,48(a5)
.LVL730:
.L583:
	.loc 1 2333 13 is_stmt 1
	lui	a4,%hi(.LC88)
	li	a3,4096
	mv	a5,s3
	li	a1,3
	mv	a0,s0
	addi	a4,a4,%lo(.LC88)
	addi	a3,a3,-1763
	addi	a2,s2,%lo(.LC1)
	call	mbedtls_debug_print_msg
.LVL731:
	.loc 1 2335 13
	.loc 1 2335 20 is_stmt 0
	lw	a5,24(s0)
	lw	a1,88(s0)
	lw	a0,28(s0)
	.loc 1 2335 15
	beq	a5,zero,.L584
	.loc 1 2336 17 is_stmt 1
	.loc 1 2336 23 is_stmt 0
	mv	a3,s3
	mv	a2,s1
	jalr	a5
.LVL732:
.L614:
	.loc 1 2341 13
	lui	a4,%hi(.LC89)
	li	a3,4096
	.loc 1 2339 23
	mv	s1,a0
.LVL733:
	.loc 1 2341 13 is_stmt 1
	mv	a5,a0
	addi	a4,a4,%lo(.LC89)
	addi	a3,a3,-1755
	addi	a2,s2,%lo(.LC1)
	li	a1,2
	mv	a0,s0
	call	mbedtls_debug_print_ret
.LVL734:
	.loc 1 2343 13
	.loc 1 2343 15 is_stmt 0
	bne	s1,zero,.L586
.LVL735:
.L596:
	.loc 1 2344 23
	li	s1,-28672
.LVL736:
	addi	s1,s1,-640
	j	.L568
.LVL737:
.L582:
	.loc 1 2331 17 is_stmt 1
	.loc 1 2331 25 is_stmt 0
	lw	a5,0(s0)
	lw	s3,88(a5)
.LVL738:
	j	.L583
.L584:
	.loc 1 2339 17 is_stmt 1
	.loc 1 2339 23 is_stmt 0
	lw	a5,20(s0)
	mv	a2,s1
	jalr	a5
.LVL739:
	j	.L614
.LVL740:
.L586:
	.loc 1 2347 9 is_stmt 1
	.loc 1 2347 11 is_stmt 0
	li	a5,-24576
	addi	a5,a5,-2048
	beq	s1,a5,.L587
	.loc 1 2383 9 is_stmt 1
	.loc 1 2383 11 is_stmt 0
	blt	s1,zero,.L568
	.loc 1 2386 9 is_stmt 1
	.loc 1 2386 22 is_stmt 0
	sw	s1,116(s0)
.LVL741:
.L592:
.LBE170:
	.loc 1 2429 5 is_stmt 1
	lui	a4,%hi(.LC86)
	li	a3,4096
	addi	a4,a4,%lo(.LC86)
	addi	a3,a3,-1667
	j	.L619
.L581:
.LBB171:
	.loc 1 2354 17
.LVL742:
.LBB166:
.LBB167:
	.loc 1 110 5
	.loc 1 112 5
	.loc 1 112 12 is_stmt 0
	lw	a2,48(s0)
	.loc 1 112 56
	lw	a5,0(s0)
	.loc 1 112 23
	lw	a3,48(a2)
	.loc 1 112 56
	lw	a5,96(a5)
	.loc 1 112 7
	bltu	a3,a5,.L589
.LVL743:
.LBE167:
.LBE166:
	.loc 1 2356 21 is_stmt 1
	lui	a4,%hi(.LC90)
	addi	a4,a4,%lo(.LC90)
	addi	a3,s1,-1740
	addi	a2,s2,%lo(.LC1)
	li	a1,1
	mv	a0,s0
	call	mbedtls_debug_print_msg
.LVL744:
	j	.L620
.LVL745:
.L589:
.LBB169:
.LBB168:
	.loc 1 115 5
	.loc 1 115 17 is_stmt 0
	slli	a4,a3,1
.LVL746:
	.loc 1 118 5 is_stmt 1
	.loc 1 118 7 is_stmt 0
	bgtu	a3,a4,.L590
	bleu	a5,a4,.L590
	mv	a5,a4
.L590:
.LVL747:
	.loc 1 124 5 is_stmt 1
	.loc 1 124 40 is_stmt 0
	sw	a5,48(a2)
	.loc 1 125 5 is_stmt 1
	lw	a5,48(s0)
.LVL748:
	lui	a4,%hi(.LC38)
	addi	a4,a4,%lo(.LC38)
	lw	a5,48(a5)
	li	a3,126
	addi	a2,s2,%lo(.LC1)
.LVL749:
	li	a1,3
	mv	a0,s0
	call	mbedtls_debug_print_msg
.LVL750:
	.loc 1 128 5
.LBE168:
.LBE169:
	.loc 1 2360 17
	.loc 1 2360 29 is_stmt 0
	mv	a0,s0
	call	mbedtls_ssl_resend
.LVL751:
	mv	s1,a0
.LVL752:
	.loc 1 2360 19
	beq	a0,zero,.L598
	.loc 1 2362 21 is_stmt 1
	lui	a4,%hi(.LC91)
	li	a3,4096
	mv	a5,a0
	addi	a4,a4,%lo(.LC91)
	addi	a3,a3,-1734
	addi	a2,s2,%lo(.LC1)
	li	a1,1
	mv	a0,s0
	call	mbedtls_debug_print_ret
.LVL753:
	.loc 1 2363 21
	.loc 1 2363 27 is_stmt 0
	j	.L568
.LVL754:
.L572:
.LBE171:
	.loc 1 2391 9 is_stmt 1
	lw	a5,116(s0)
	li	s5,4096
	lui	s6,%hi(.LC85)
	addi	a3,s5,-1704
	mv	a6,s3
	addi	a4,s6,%lo(.LC85)
	addi	a2,s2,%lo(.LC1)
	li	a1,2
	mv	a0,s0
	.loc 1 2399 21 is_stmt 0
	li	s7,-24576
	.loc 1 2415 13
	addi	s8,s5,-1680
	.loc 1 2391 9
	call	mbedtls_debug_print_msg
.LVL755:
	.loc 1 2394 9 is_stmt 1
	.loc 1 2399 21 is_stmt 0
	addi	s7,s7,-2048
	.loc 1 2417 13
	lui	s9,%hi(.LC89)
	addi	s5,s5,-1679
.L593:
	.loc 1 2394 19
	lw	s4,116(s0)
	.loc 1 2394 14
	bgeu	s4,s3,.L592
	.loc 1 2396 13 is_stmt 1
.LVL756:
	.loc 1 2398 13
	.loc 1 2398 17 is_stmt 0
	mv	a0,s0
	call	ssl_check_timer
.LVL757:
	.loc 1 2399 21
	mv	s1,s7
	.loc 1 2398 15
	bne	a0,zero,.L594
	lw	a1,88(s0)
	lw	a4,116(s0)
	.loc 1 2402 24
	lw	a5,24(s0)
	.loc 1 2396 17
	sub	a2,s3,s4
.LVL758:
	.loc 1 2402 17 is_stmt 1
	lw	a0,28(s0)
	add	a1,a1,a4
	.loc 1 2402 19 is_stmt 0
	beq	a5,zero,.L595
	.loc 1 2404 21 is_stmt 1
	.loc 1 2404 27 is_stmt 0
	lw	a4,0(s0)
	lw	a3,88(a4)
	jalr	a5
.LVL759:
.L615:
	.loc 1 2410 27
	mv	s1,a0
.LVL760:
.L594:
	.loc 1 2415 13 is_stmt 1
	lw	a5,116(s0)
	addi	a4,s6,%lo(.LC85)
	mv	a3,s8
	addi	a2,s2,%lo(.LC1)
	li	a1,2
	mv	a0,s0
	mv	a6,s3
	call	mbedtls_debug_print_msg
.LVL761:
	.loc 1 2417 13
	mv	a5,s1
	addi	a4,s9,%lo(.LC89)
	mv	a3,s5
	addi	a2,s2,%lo(.LC1)
	li	a1,2
	mv	a0,s0
	call	mbedtls_debug_print_ret
.LVL762:
	.loc 1 2419 13
	.loc 1 2419 15 is_stmt 0
	beq	s1,zero,.L596
	.loc 1 2422 13 is_stmt 1
	.loc 1 2422 15 is_stmt 0
	blt	s1,zero,.L568
	.loc 1 2425 13 is_stmt 1
	.loc 1 2425 26 is_stmt 0
	lw	a5,116(s0)
	add	s1,a5,s1
.LVL763:
	sw	s1,116(s0)
	j	.L593
.LVL764:
.L595:
	.loc 1 2410 21 is_stmt 1
	.loc 1 2410 27 is_stmt 0
	lw	a5,20(s0)
	jalr	a5
.LVL765:
	j	.L615
.LVL766:
.L598:
.LBB172:
	.loc 1 2366 23
	li	s1,-28672
.LVL767:
	addi	s1,s1,1792
	j	.L568
.LBE172:
	.cfi_endproc
.LFE33:
	.size	mbedtls_ssl_fetch_input, .-mbedtls_ssl_fetch_input
	.section	.text.mbedtls_ssl_prepare_handshake_record,"ax",@progbits
	.align	1
	.globl	mbedtls_ssl_prepare_handshake_record
	.type	mbedtls_ssl_prepare_handshake_record, @function
mbedtls_ssl_prepare_handshake_record:
.LFB45:
	.loc 1 3100 1 is_stmt 1
	.cfi_startproc
.LVL768:
	.loc 1 3101 5
	.loc 1 3100 1 is_stmt 0
	addi	sp,sp,-64
	.cfi_def_cfa_offset 64
	sw	s0,56(sp)
	sw	ra,60(sp)
	sw	s1,52(sp)
	sw	s2,48(sp)
	sw	s3,44(sp)
	sw	s4,40(sp)
	sw	s5,36(sp)
	sw	s6,32(sp)
	sw	s7,28(sp)
	.cfi_offset 8, -8
	.cfi_offset 1, -4
	.cfi_offset 9, -12
	.cfi_offset 18, -16
	.cfi_offset 19, -20
	.cfi_offset 20, -24
	.cfi_offset 21, -28
	.cfi_offset 22, -32
	.cfi_offset 23, -36
.LBB186:
.LBB187:
	.loc 2 462 30
	lw	a4,0(a0)
.LBE187:
.LBE186:
	.loc 1 3100 1
	mv	s0,a0
	.loc 1 3101 12
	lw	a5,112(a0)
.LVL769:
.LBB189:
.LBB188:
	.loc 2 462 5 is_stmt 1
	.loc 2 462 30 is_stmt 0
	lhu	a4,104(a4)
	.loc 2 463 15
	li	a3,12
	.loc 2 462 7
	andi	a4,a4,2
	bne	a4,zero,.L622
	li	a3,4
.L622:
	lui	s2,%hi(.LC1)
.LBE188:
.LBE189:
	.loc 1 3101 7
	bgeu	a5,a3,.L623
	.loc 1 3103 9 is_stmt 1
	lui	a4,%hi(.LC92)
	li	a3,4096
	addi	a4,a4,%lo(.LC92)
	addi	a3,a3,-992
	addi	a2,s2,%lo(.LC1)
	li	a1,1
	mv	a0,s0
.LVL770:
	.loc 1 3105 15 is_stmt 0
	li	s1,-28672
	.loc 1 3103 9
	call	mbedtls_debug_print_msg
.LVL771:
	.loc 1 3105 9 is_stmt 1
	.loc 1 3105 15 is_stmt 0
	addi	s1,s1,-512
.L621:
	.loc 1 3182 1
	lw	ra,60(sp)
	.cfi_remember_state
	.cfi_restore 1
	lw	s0,56(sp)
	.cfi_restore 8
.LVL772:
	mv	a0,s1
	lw	s2,48(sp)
	.cfi_restore 18
	lw	s1,52(sp)
	.cfi_restore 9
	lw	s3,44(sp)
	.cfi_restore 19
	lw	s4,40(sp)
	.cfi_restore 20
	lw	s5,36(sp)
	.cfi_restore 21
	lw	s6,32(sp)
	.cfi_restore 22
	lw	s7,28(sp)
	.cfi_restore 23
	addi	sp,sp,64
	.cfi_def_cfa_offset 0
	jr	ra
.LVL773:
.L623:
	.cfi_restore_state
	.loc 1 3108 5 is_stmt 1
	.loc 1 3109 26 is_stmt 0
	lw	a4,100(s0)
	.loc 1 3113 5
	li	s3,4096
	li	a1,3
	.loc 1 3109 34
	lbu	a7,1(a4)
	.loc 1 3110 34
	lbu	a2,2(a4)
	.loc 1 3113 5
	mv	a0,s0
	.loc 1 3109 38
	slli	a7,a7,16
	.loc 1 3110 38
	slli	a2,a2,8
	.loc 1 3109 46
	or	a7,a7,a2
	.loc 1 3111 34
	lbu	a2,3(a4)
	.loc 1 3110 45
	or	a7,a7,a2
	.loc 1 3108 51
	add	a7,a7,a3
	.loc 1 3108 19
	sw	a7,128(s0)
	.loc 1 3113 5 is_stmt 1
	lbu	a6,0(a4)
	lui	a4,%hi(.LC93)
	addi	a4,a4,%lo(.LC93)
	addi	a3,s3,-981
	addi	a2,s2,%lo(.LC1)
	call	mbedtls_debug_print_msg
.LVL774:
	.loc 1 3118 5
	.loc 1 3118 30 is_stmt 0
	lw	a5,0(s0)
	lhu	a5,104(a5)
	.loc 1 3118 7
	andi	a5,a5,2
	beq	a5,zero,.L625
.LBB190:
	.loc 1 3120 9 is_stmt 1
	.loc 1 3121 9
	.loc 1 3124 16 is_stmt 0
	lw	a3,48(s0)
	.loc 1 3121 42
	lw	a0,100(s0)
.LVL775:
	.loc 1 3124 9 is_stmt 1
	.loc 1 3124 11 is_stmt 0
	beq	a3,zero,.L626
	.loc 1 3121 22 discriminator 1
	lbu	a5,5(a0)
	lbu	a4,4(a0)
	slli	a5,a5,8
	or	a5,a5,a4
	slli	a4,a5,8
	srli	a5,a5,8
	or	a5,a4,a5
	.loc 1 3125 43 discriminator 1
	lw	a4,32(a3)
	.loc 1 3121 22 discriminator 1
	slli	a5,a5,16
	srli	a5,a5,16
	.loc 1 3124 35 discriminator 1
	beq	a4,a5,.L626
	.loc 1 3130 13 is_stmt 1
	.loc 1 3130 47 is_stmt 0
	lw	a6,64(a3)
	.loc 1 3130 69
	addi	a3,a6,-1
	.loc 1 3130 15
	bne	a3,a5,.L627
	.loc 1 3130 73 discriminator 1
	lbu	a1,0(a0)
	li	a2,3
	beq	a1,a2,.L627
	.loc 1 3133 17 is_stmt 1
	lui	a4,%hi(.LC94)
	mv	a5,a3
	addi	a4,a4,%lo(.LC94)
	addi	a3,s3,-960
	addi	a2,s2,%lo(.LC1)
	li	a1,2
	mv	a0,s0
.LVL776:
	call	mbedtls_debug_print_msg
.LVL777:
	.loc 1 3138 17
	.loc 1 3138 29 is_stmt 0
	mv	a0,s0
	call	mbedtls_ssl_resend
.LVL778:
	mv	s1,a0
.LVL779:
	.loc 1 3138 19
	beq	a0,zero,.L660
	.loc 1 3140 21 is_stmt 1
	lui	a4,%hi(.LC91)
	mv	a5,a0
	addi	a4,a4,%lo(.LC91)
	addi	a3,s3,-956
.LVL780:
.L683:
	.loc 1 3167 17 is_stmt 0
	addi	a2,s2,%lo(.LC1)
	li	a1,1
	mv	a0,s0
	call	mbedtls_debug_print_ret
.LVL781:
	.loc 1 3168 17 is_stmt 1
	.loc 1 3168 23 is_stmt 0
	j	.L621
.LVL782:
.L627:
	.loc 1 3146 17 is_stmt 1
	mv	a6,a4
	li	a3,4096
	lui	a4,%hi(.LC95)
	addi	a4,a4,%lo(.LC95)
	addi	a3,a3,-947
	addi	a2,s2,%lo(.LC1)
	li	a1,2
	mv	a0,s0
.LVL783:
	call	mbedtls_debug_print_msg
.LVL784:
.L660:
	.loc 1 3152 19 is_stmt 0
	li	s1,-28672
	addi	s1,s1,1792
	j	.L621
.LVL785:
.L626:
	.loc 1 3158 9 is_stmt 1
	.loc 1 3158 11 is_stmt 0
	lw	a4,112(s0)
	lw	a5,128(s0)
	bgeu	a4,a5,.L628
.LVL786:
.L631:
	.loc 1 3163 13 is_stmt 1
	lui	a4,%hi(.LC96)
	li	s1,4096
	addi	a4,a4,%lo(.LC96)
	addi	a3,s1,-933
	addi	a2,s2,%lo(.LC1)
	li	a1,2
	mv	a0,s0
	call	mbedtls_debug_print_msg
.LVL787:
	.loc 1 3165 13
.LBB191:
.LBB192:
	.loc 1 2953 5
	.loc 1 2954 5
	.loc 1 2955 5
	.loc 1 2957 12 is_stmt 0
	lw	a5,48(s0)
	.loc 1 2955 25
	lw	s4,128(s0)
	.loc 1 2955 12
	addi	s5,s4,-12
.LVL788:
	.loc 1 2957 5 is_stmt 1
	.loc 1 2957 7 is_stmt 0
	bne	a5,zero,.L676
	.loc 1 2959 9 is_stmt 1
	lui	a4,%hi(.LC98)
	addi	a4,a4,%lo(.LC98)
	addi	a3,s1,-1137
.L681:
.LBB193:
	.loc 1 2975 13 is_stmt 0
	addi	a2,s2,%lo(.LC1)
	li	a1,1
	mv	a0,s0
	.loc 1 2976 19
	li	s1,-28672
	.loc 1 2975 13
	call	mbedtls_debug_print_msg
.LVL789:
	.loc 1 2976 13 is_stmt 1
	.loc 1 2976 19 is_stmt 0
	addi	s1,s1,-128
.LVL790:
.L634:
.LBE193:
.LBE192:
.LBE191:
	.loc 1 3167 17 is_stmt 1
	lui	a4,%hi(.LC109)
	li	a3,4096
	mv	a5,s1
	addi	a4,a4,%lo(.LC109)
	addi	a3,a3,-929
	j	.L683
.LVL791:
.L628:
	.loc 1 3159 13 is_stmt 0 discriminator 1
	lui	a1,%hi(.LC97)
	li	a2,3
	addi	a1,a1,%lo(.LC97)
	addi	a0,a0,6
.LVL792:
	call	memcmp
.LVL793:
	.loc 1 3158 44 discriminator 1
	bne	a0,zero,.L631
	.loc 1 3160 24
	lw	a0,100(s0)
	.loc 1 3160 13
	li	a2,3
	addi	a1,a0,1
	addi	a0,a0,9
	call	memcmp
.LVL794:
	.loc 1 3159 57
	bne	a0,zero,.L631
	.loc 1 3161 18
	lw	a5,48(s0)
	.loc 1 3160 64
	bne	a5,zero,.L632
.L684:
.LBB210:
.LBB207:
	.loc 1 3095 5 is_stmt 1
.LVL795:
.LBE207:
.LBE210:
.LBE190:
	.loc 1 3181 11 is_stmt 0
	li	s1,0
	j	.L621
.LVL796:
.L632:
.LBB213:
	.loc 1 3161 37
	lw	a5,44(a5)
	bne	a5,zero,.L631
	j	.L684
.LVL797:
.L676:
.LBB211:
.LBB208:
	.loc 1 2966 5 is_stmt 1
	.loc 1 2966 23 is_stmt 0
	lw	a0,44(a5)
	.loc 1 2966 7
	bne	a0,zero,.L635
.LBB194:
	.loc 1 2968 9 is_stmt 1
	.loc 1 2970 9
	lui	a4,%hi(.LC99)
	mv	a5,s5
	addi	a4,a4,%lo(.LC99)
	addi	a3,s1,-1125
	addi	a2,s2,%lo(.LC1)
	li	a1,2
	mv	a0,s0
	call	mbedtls_debug_print_msg
.LVL798:
	.loc 1 2973 9
	.loc 1 2973 11 is_stmt 0
	lw	a4,128(s0)
	li	a5,16384
	bleu	a4,a5,.L636
	.loc 1 2975 13 is_stmt 1
	lui	a4,%hi(.LC100)
	addi	a4,a4,%lo(.LC100)
	addi	a3,s1,-1121
	j	.L681
.L636:
	.loc 1 2980 9
	.loc 1 2980 60 is_stmt 0
	andi	a5,s5,7
	.loc 1 2980 44
	srli	a4,s5,3
	.loc 1 2980 19
	add	a4,a4,s4
	.loc 1 2980 64
	snez	a5,a5
	.loc 1 2980 19
	add	a5,a5,a4
.LVL799:
	.loc 1 2982 9 is_stmt 1
	.loc 1 2982 12 is_stmt 0
	lw	s3,48(s0)
	.loc 1 2982 34
	mv	a1,a5
	li	a0,1
	sw	a5,12(sp)
	call	mycalloc
.LVL800:
	.loc 1 2982 32
	sw	a0,44(s3)
	.loc 1 2983 9 is_stmt 1
	.loc 1 2983 27 is_stmt 0
	lw	a4,48(s0)
	.loc 1 2983 11
	lw	a5,12(sp)
	.loc 1 2983 27
	lw	a0,44(a4)
	.loc 1 2983 11
	bne	a0,zero,.L637
	.loc 1 2985 13 is_stmt 1
	lui	a4,%hi(.LC101)
	addi	a3,s1,-1111
	addi	a4,a4,%lo(.LC101)
	addi	a2,s2,%lo(.LC1)
	li	a1,1
	mv	a0,s0
	.loc 1 2986 19 is_stmt 0
	li	s1,-32768
	.loc 1 2985 13
	call	mbedtls_debug_print_msg
.LVL801:
	.loc 1 2986 13 is_stmt 1
	.loc 1 2986 19 is_stmt 0
	addi	s1,s1,256
	j	.L634
.LVL802:
.L637:
	.loc 1 2991 9 is_stmt 1
	lw	a1,100(s0)
	li	a2,6
	call	memcpy
.LVL803:
	.loc 1 2992 9
	.loc 1 2992 31 is_stmt 0
	lw	a5,48(s0)
	.loc 1 2992 9
	li	a2,3
	li	a1,0
	.loc 1 2992 40
	lw	a0,44(a5)
	.loc 1 2992 9
	addi	a0,a0,6
	call	memset
.LVL804:
	.loc 1 2993 9 is_stmt 1
	.loc 1 2993 31 is_stmt 0
	lw	a5,48(s0)
	.loc 1 2993 9
	li	a2,3
	.loc 1 2993 31
	lw	a0,44(a5)
	.loc 1 2993 9
	addi	a1,a0,1
	addi	a0,a0,9
	call	memcpy
.LVL805:
.L638:
.LBE194:
	.loc 1 3006 5 is_stmt 1
	.loc 1 3006 25 is_stmt 0
	lw	a5,48(s0)
	lw	s7,44(a5)
.LVL806:
	.loc 1 3007 5 is_stmt 1
	.loc 1 3012 21 is_stmt 0
	lw	a5,100(s0)
	.loc 1 3007 13
	add	s4,s7,s4
.LVL807:
	.loc 1 3012 5 is_stmt 1
	.loc 1 3012 29 is_stmt 0
	lbu	s3,6(a5)
	.loc 1 3013 29
	lbu	a0,7(a5)
	.loc 1 3015 29
	lbu	s1,9(a5)
	.loc 1 3016 29
	lbu	a4,10(a5)
	.loc 1 3013 33
	slli	a0,a0,8
	.loc 1 3012 33
	slli	s3,s3,16
	.loc 1 3012 41
	or	s3,s3,a0
	.loc 1 3014 29
	lbu	a0,8(a5)
	.loc 1 3017 29
	lbu	a5,11(a5)
	.loc 1 3015 33
	slli	s1,s1,16
	.loc 1 3016 34
	slli	a4,a4,8
	.loc 1 3015 41
	or	s1,s1,a4
	.loc 1 3013 40
	or	s3,s3,a0
.LVL808:
	.loc 1 3015 5 is_stmt 1
	.loc 1 3016 41 is_stmt 0
	or	s1,s1,a5
.LVL809:
	.loc 1 3019 5 is_stmt 1
	.loc 1 3019 18 is_stmt 0
	add	a5,s3,s1
	.loc 1 3019 7
	bgeu	s5,a5,.L639
	.loc 1 3021 9 is_stmt 1
	lui	a4,%hi(.LC103)
	li	a3,4096
	mv	a7,s5
	mv	a6,s1
	mv	a5,s3
	addi	a4,a4,%lo(.LC103)
	addi	a3,a3,-1074
	addi	a2,s2,%lo(.LC1)
	li	a1,1
	mv	a0,s0
	call	mbedtls_debug_print_msg
.LVL810:
	.loc 1 3023 9
	j	.L682
.LVL811:
.L635:
	.loc 1 2999 9
	.loc 1 2999 13 is_stmt 0
	lw	a1,100(s0)
	li	a2,4
	call	memcmp
.LVL812:
	.loc 1 2999 11
	beq	a0,zero,.L638
	.loc 1 3001 13 is_stmt 1
	lui	a4,%hi(.LC102)
	addi	a4,a4,%lo(.LC102)
	addi	a3,s1,-1095
	addi	a2,s2,%lo(.LC1)
	li	a1,1
	mv	a0,s0
	call	mbedtls_debug_print_msg
.LVL813:
	.loc 1 3002 13
.L682:
	.loc 1 3030 9
	.loc 1 3030 15 is_stmt 0
	li	s1,-28672
	addi	s1,s1,-512
	j	.L634
.LVL814:
.L639:
	.loc 1 3026 5 is_stmt 1
	.loc 1 3026 28 is_stmt 0
	lw	a6,112(s0)
	.loc 1 3026 18
	addi	s6,s1,12
	.loc 1 3026 7
	bleu	s6,a6,.L640
	.loc 1 3028 9 is_stmt 1
	lui	a4,%hi(.LC104)
	li	a3,4096
	mv	a5,s1
	addi	a4,a4,%lo(.LC104)
	addi	a3,a3,-1067
	addi	a2,s2,%lo(.LC1)
	li	a1,1
	mv	a0,s0
	call	mbedtls_debug_print_msg
.LVL815:
	j	.L682
.L640:
	.loc 1 3033 5
	lui	a4,%hi(.LC105)
	li	a3,4096
	mv	a5,s3
	addi	a4,a4,%lo(.LC105)
	addi	a3,a3,-1062
	mv	a6,s1
	addi	a2,s2,%lo(.LC1)
	li	a1,2
	mv	a0,s0
	call	mbedtls_debug_print_msg
.LVL816:
	.loc 1 3036 5
	.loc 1 3036 41 is_stmt 0
	lw	a1,100(s0)
	.loc 1 3036 17
	addi	a0,s3,12
	.loc 1 3036 5
	mv	a2,s1
	addi	a1,a1,12
	add	a0,s7,a0
	call	memcpy
.LVL817:
	.loc 1 3037 5 is_stmt 1
.LBB195:
.LBB196:
	.loc 1 2887 5
	.loc 1 2889 5
	.loc 1 2889 31 is_stmt 0
	andi	a3,s3,7
	.loc 1 2889 16
	li	a4,8
	sub	a5,a4,a3
.LVL818:
	.loc 1 2890 5 is_stmt 1
	.loc 1 2890 7 is_stmt 0
	beq	a5,a4,.L641
	srli	a4,s3,3
.LBB197:
	.loc 1 2892 9 is_stmt 1
.LVL819:
	.loc 1 2895 9
	.loc 1 2895 11 is_stmt 0
	bgtu	s1,a5,.L642
	sub	s1,a5,s1
.LVL820:
	.loc 1 2898 38
	add	a4,s4,a4
.LVL821:
	.loc 1 2898 43
	li	a2,1
.LVL822:
.L643:
	.loc 1 2897 13
	bne	s1,a5,.L644
.LVL823:
.L645:
.LBE197:
.LBE196:
.LBE195:
.LBB201:
.LBB202:
	.loc 1 2932 25
	srli	a4,s5,3
	li	a5,0
	.loc 1 2933 11
	li	a3,255
.L649:
.LVL824:
	.loc 1 2932 5
	bne	a5,a4,.L651
	.loc 1 2936 12
	li	a4,0
	.loc 1 2936 25
	andi	a7,s5,7
	.loc 1 2937 19
	add	s4,s4,a5
.LVL825:
	.loc 1 2937 52
	li	a3,7
.LVL826:
.L652:
	.loc 1 2936 5
	bltu	a4,a7,.L653
.LVL827:
.LBE202:
.LBE201:
	.loc 1 3049 5 is_stmt 1
	lui	a4,%hi(.LC112)
	li	s1,4096
	addi	a4,a4,%lo(.LC112)
	addi	a3,s1,-1047
	addi	a2,s2,%lo(.LC1)
	li	a1,2
	mv	a0,s0
	call	mbedtls_debug_print_msg
.LVL828:
	.loc 1 3051 5
	.loc 1 3051 7 is_stmt 0
	lw	a5,112(s0)
	bgeu	s6,a5,.L678
	.loc 1 3058 9 is_stmt 1
	lui	a4,%hi(.LC106)
	addi	a4,a4,%lo(.LC106)
	addi	a3,s1,-1038
	j	.L681
.LVL829:
.L644:
.LBB204:
.LBB200:
.LBB198:
	.loc 1 2898 17
	.loc 1 2898 38 is_stmt 0
	lbu	a1,0(a4)
	.loc 1 2898 43
	sll	a3,a2,s1
	addi	s1,s1,1
.LVL830:
	.loc 1 2898 38
	or	a3,a3,a1
	sb	a3,0(a4)
.LVL831:
	j	.L643
.LVL832:
.L642:
	.loc 1 2904 9 is_stmt 1
	.loc 1 2905 13 is_stmt 0
	addi	s1,s1,-8
.LVL833:
	.loc 1 2908 34
	add	a4,s4,a4
.LVL834:
	.loc 1 2905 13
	add	s1,s1,a3
	lbu	a3,0(a4)
	.loc 1 2904 16
	add	s3,s3,a5
.LVL835:
	.loc 1 2905 9 is_stmt 1
	.loc 1 2907 9
	.loc 1 2908 39 is_stmt 0
	li	a1,1
.L646:
	.loc 1 2908 13 is_stmt 1
	.loc 1 2908 55 is_stmt 0
	addi	a5,a5,-1
.LVL836:
	.loc 1 2908 39
	sll	a2,a1,a5
	.loc 1 2908 34
	or	a3,a2,a3
	andi	a3,a3,0xff
.LVL837:
	.loc 1 2907 9
	bne	a5,zero,.L646
	sb	a3,0(a4)
.L641:
.LBE198:
	.loc 1 2911 5 is_stmt 1
	.loc 1 2911 14 is_stmt 0
	andi	a2,s1,7
.LVL838:
	.loc 1 2912 5 is_stmt 1
	.loc 1 2912 7 is_stmt 0
	beq	a2,zero,.L647
.LBB199:
	.loc 1 2914 9 is_stmt 1
	.loc 1 2914 41 is_stmt 0
	add	a5,s1,s3
.LVL839:
	.loc 1 2914 16
	srli	a5,a5,3
.LVL840:
	.loc 1 2916 9 is_stmt 1
	.loc 1 2919 33 is_stmt 0
	add	a5,s4,a5
.LVL841:
	lbu	a3,0(a5)
	li	a4,8
	.loc 1 2916 13
	sub	s1,s1,a2
.LVL842:
	.loc 1 2918 9 is_stmt 1
	sub	a4,a4,a2
	.loc 1 2919 38 is_stmt 0
	li	a0,1
	.loc 1 2918 9
	li	a2,8
.LVL843:
.L648:
	.loc 1 2919 13 is_stmt 1
	.loc 1 2919 38 is_stmt 0
	sll	a1,a0,a4
	.loc 1 2919 33
	or	a3,a1,a3
	addi	a4,a4,1
.LVL844:
	andi	a3,a3,0xff
.LVL845:
	.loc 1 2918 9
	bne	a4,a2,.L648
	sb	a3,0(a5)
.L647:
.LBE199:
	.loc 1 2922 5 is_stmt 1
	.loc 1 2922 27 is_stmt 0
	srli	a0,s3,3
	.loc 1 2922 5
	srli	a2,s1,3
	li	a1,255
	add	a0,s4,a0
	call	memset
.LVL846:
	j	.L645
.LVL847:
.L651:
.LBE200:
.LBE204:
.LBB205:
.LBB203:
	.loc 1 2933 9 is_stmt 1
	.loc 1 2933 17 is_stmt 0
	add	a2,s4,a5
	.loc 1 2933 11
	lbu	a2,0(a2)
	bne	a2,a3,.L650
	.loc 1 2932 31
	addi	a5,a5,1
.LVL848:
	j	.L649
.LVL849:
.L653:
	.loc 1 2937 9 is_stmt 1
	.loc 1 2937 19 is_stmt 0
	lbu	a5,0(s4)
	.loc 1 2937 52
	sub	a2,a3,a4
	sra	a5,a5,a2
	andi	a5,a5,1
	.loc 1 2937 11
	beq	a5,zero,.L650
	.loc 1 2936 31
	addi	a4,a4,1
.LVL850:
	j	.L652
.LVL851:
.L678:
.LBE203:
.LBE205:
	.loc 1 3062 5 is_stmt 1
	.loc 1 3062 12 is_stmt 0
	lw	a2,116(s0)
	.loc 1 3062 27
	lw	a4,124(s0)
	.loc 1 3062 7
	bleu	a2,a4,.L655
.LBB206:
	.loc 1 3069 9 is_stmt 1
	.loc 1 3070 24 is_stmt 0
	lw	a3,128(s0)
	lw	a0,100(s0)
	.loc 1 3069 40
	lw	a5,88(s0)
	.loc 1 3071 16
	sub	a2,a2,a4
	.loc 1 3070 24
	add	a0,a0,a3
	.loc 1 3078 50
	lw	a3,80(s0)
	.loc 1 3069 24
	add	a1,a5,a4
.LVL852:
	.loc 1 3070 9 is_stmt 1
	.loc 1 3071 9
	.loc 1 3074 9
	.loc 1 3074 46 is_stmt 0
	sub	a4,a0,a5
	.loc 1 3078 50
	sub	a3,a5,a3
	.loc 1 3077 64
	li	a5,16384
	.loc 1 3074 33
	sw	a4,124(s0)
	.loc 1 3075 9 is_stmt 1
	.loc 1 3077 64 is_stmt 0
	addi	a5,a5,317
	.loc 1 3075 48
	add	a4,a2,a4
	.loc 1 3075 22
	sw	a4,116(s0)
	.loc 1 3077 9 is_stmt 1
	.loc 1 3077 64 is_stmt 0
	sub	a5,a5,a3
	.loc 1 3077 11
	bleu	a4,a5,.L656
	.loc 1 3080 13 is_stmt 1
	lui	a4,%hi(.LC107)
	addi	a3,s1,-1016
	addi	a4,a4,%lo(.LC107)
	addi	a2,s2,%lo(.LC1)
.LVL853:
	li	a1,1
.LVL854:
	mv	a0,s0
.LVL855:
	.loc 1 3081 19 is_stmt 0
	li	s1,-28672
	.loc 1 3080 13
	call	mbedtls_debug_print_msg
.LVL856:
	.loc 1 3081 13 is_stmt 1
	.loc 1 3081 19 is_stmt 0
	addi	s1,s1,1536
	j	.L634
.LVL857:
.L656:
	.loc 1 3084 9 is_stmt 1
	call	memmove
.LVL858:
.L655:
.LBE206:
	.loc 1 3087 5
	.loc 1 3087 40 is_stmt 0
	lw	a5,48(s0)
	.loc 1 3087 5
	lw	a2,128(s0)
	lw	a0,100(s0)
	lw	a1,44(a5)
	call	memcpy
.LVL859:
	.loc 1 3089 5 is_stmt 1
	.loc 1 3089 30 is_stmt 0
	lw	a5,48(s0)
	.loc 1 3089 5
	lw	a0,44(a5)
	call	vPortFree
.LVL860:
	.loc 1 3090 5 is_stmt 1
	.loc 1 3090 8 is_stmt 0
	lw	a5,48(s0)
	.loc 1 3092 5
	lui	a4,%hi(.LC108)
	li	a3,4096
	.loc 1 3090 28
	sw	zero,44(a5)
	.loc 1 3092 5 is_stmt 1
	lw	a6,128(s0)
	lw	a5,100(s0)
	addi	a4,a4,%lo(.LC108)
	addi	a3,a3,-1003
	addi	a2,s2,%lo(.LC1)
	li	a1,3
	mv	a0,s0
	call	mbedtls_debug_print_buf
.LVL861:
	j	.L684
.LVL862:
.L625:
.LBE208:
.LBE211:
.LBE213:
	.loc 1 3175 5
	.loc 1 3175 7 is_stmt 0
	lw	a4,112(s0)
	lw	a5,128(s0)
	bgeu	a4,a5,.L684
	.loc 1 3177 9 is_stmt 1
	lui	a4,%hi(.LC110)
	addi	a4,a4,%lo(.LC110)
	addi	a3,s3,-919
	addi	a2,s2,%lo(.LC1)
	li	a1,1
	mv	a0,s0
	.loc 1 3178 15 is_stmt 0
	li	s1,-28672
	.loc 1 3177 9
	call	mbedtls_debug_print_msg
.LVL863:
	.loc 1 3178 9 is_stmt 1
	.loc 1 3178 15 is_stmt 0
	addi	s1,s1,-128
	j	.L621
.LVL864:
.L650:
.LBB214:
.LBB212:
.LBB209:
	.loc 1 3045 9 is_stmt 1
	lui	a4,%hi(.LC111)
	li	a3,4096
	addi	a4,a4,%lo(.LC111)
	addi	a3,a3,-1051
	addi	a2,s2,%lo(.LC1)
	li	a1,2
	mv	a0,s0
	.loc 1 3046 15 is_stmt 0
	li	s1,-28672
	.loc 1 3045 9
	call	mbedtls_debug_print_msg
.LVL865:
	.loc 1 3046 9 is_stmt 1
	.loc 1 3046 15 is_stmt 0
	addi	s1,s1,1792
	j	.L634
.LBE209:
.LBE212:
.LBE214:
	.cfi_endproc
.LFE45:
	.size	mbedtls_ssl_prepare_handshake_record, .-mbedtls_ssl_prepare_handshake_record
	.section	.text.mbedtls_ssl_handle_message_type,"ax",@progbits
	.align	1
	.globl	mbedtls_ssl_handle_message_type
	.type	mbedtls_ssl_handle_message_type, @function
mbedtls_ssl_handle_message_type:
.LFB51:
	.loc 1 3970 1 is_stmt 1
	.cfi_startproc
.LVL866:
	.loc 1 3971 5
	.loc 1 3976 5
	.loc 1 3970 1 is_stmt 0
	addi	sp,sp,-16
	.cfi_def_cfa_offset 16
	sw	s0,8(sp)
	sw	ra,12(sp)
	sw	s1,4(sp)
	sw	s2,0(sp)
	.cfi_offset 8, -8
	.cfi_offset 1, -4
	.cfi_offset 9, -12
	.cfi_offset 18, -16
	.loc 1 3976 7
	lw	a4,108(a0)
	li	a5,22
	.loc 1 3970 1
	mv	s0,a0
	.loc 1 3976 7
	beq	a4,a5,.L686
.LVL867:
.L689:
	.loc 1 3984 5 is_stmt 1
	.loc 1 3984 7 is_stmt 0
	lw	a4,108(s0)
	li	a5,21
	beq	a4,a5,.L687
.L695:
.LBB217:
.LBB218:
	.loc 1 4012 13 is_stmt 1
	.loc 1 4012 19 is_stmt 0
	li	a0,0
	j	.L685
.L686:
.LBE218:
.LBE217:
	.loc 1 3978 9 is_stmt 1
	.loc 1 3978 21 is_stmt 0
	call	mbedtls_ssl_prepare_handshake_record
.LVL868:
	.loc 1 3978 11
	beq	a0,zero,.L689
.LVL869:
.L685:
	.loc 1 4033 1
	lw	ra,12(sp)
	.cfi_remember_state
	.cfi_restore 1
	lw	s0,8(sp)
	.cfi_restore 8
.LVL870:
	lw	s1,4(sp)
	.cfi_restore 9
	lw	s2,0(sp)
	.cfi_restore 18
	addi	sp,sp,16
	.cfi_def_cfa_offset 0
	jr	ra
.LVL871:
.L687:
	.cfi_restore_state
.LBB220:
.LBB219:
	.loc 1 3986 9 is_stmt 1
	.loc 1 3986 53 is_stmt 0
	lw	a5,100(s0)
	.loc 1 3986 9
	lui	a4,%hi(.LC113)
	li	s2,4096
	lbu	a6,1(a5)
	lbu	a5,0(a5)
	lui	s1,%hi(.LC1)
	addi	a4,a4,%lo(.LC113)
	addi	a3,s2,-109
	addi	a2,s1,%lo(.LC1)
	li	a1,2
	mv	a0,s0
	call	mbedtls_debug_print_msg
.LVL872:
	.loc 1 3992 9 is_stmt 1
	.loc 1 3992 16 is_stmt 0
	lw	a5,100(s0)
	.loc 1 3992 11
	li	a3,2
	.loc 1 3992 24
	lbu	a4,0(a5)
	.loc 1 3992 11
	bne	a4,a3,.L690
	.loc 1 3994 13 is_stmt 1
	lbu	a5,1(a5)
	lui	a4,%hi(.LC114)
	mv	a0,s0
	addi	a4,a4,%lo(.LC114)
	addi	a3,s2,-101
	addi	a2,s1,%lo(.LC1)
	li	a1,1
	call	mbedtls_debug_print_msg
.LVL873:
	.loc 1 3996 13
	.loc 1 3996 19 is_stmt 0
	li	a0,-28672
	addi	a0,a0,-1920
	j	.L685
.L690:
	.loc 1 3999 9 is_stmt 1
	.loc 1 3999 11 is_stmt 0
	li	a3,1
	bne	a4,a3,.L693
	.loc 1 4000 24
	lbu	a5,1(a5)
	.loc 1 3999 33
	bne	a5,zero,.L691
	.loc 1 4002 13 is_stmt 1
	lui	a4,%hi(.LC115)
	mv	a0,s0
	addi	a4,a4,%lo(.LC115)
	addi	a3,s2,-94
	addi	a2,s1,%lo(.LC1)
	li	a1,2
	call	mbedtls_debug_print_msg
.LVL874:
	.loc 1 4003 13
	.loc 1 4003 19 is_stmt 0
	li	a0,-32768
	addi	a0,a0,1920
	j	.L685
.L691:
	.loc 1 4007 9 is_stmt 1
	.loc 1 4007 33 is_stmt 0
	li	a4,100
	bne	a5,a4,.L693
	.loc 1 4010 13 is_stmt 1
	lui	a4,%hi(.LC116)
	addi	a4,a4,%lo(.LC116)
	addi	a3,s2,-86
	addi	a2,s1,%lo(.LC1)
	li	a1,2
	mv	a0,s0
	call	mbedtls_debug_print_msg
.LVL875:
	j	.L695
.L693:
	.loc 1 4029 16 is_stmt 0
	li	a0,-24576
	addi	a0,a0,-1664
	j	.L685
.LBE219:
.LBE220:
	.cfi_endproc
.LFE51:
	.size	mbedtls_ssl_handle_message_type, .-mbedtls_ssl_handle_message_type
	.section	.text.mbedtls_ssl_send_alert_message,"ax",@progbits
	.align	1
	.globl	mbedtls_ssl_send_alert_message
	.type	mbedtls_ssl_send_alert_message, @function
mbedtls_ssl_send_alert_message:
.LFB53:
	.loc 1 4052 1 is_stmt 1
	.cfi_startproc
.LVL876:
	.loc 1 4053 5
	.loc 1 4055 5
	.loc 1 4052 1 is_stmt 0
	addi	sp,sp,-32
	.cfi_def_cfa_offset 32
	sw	ra,28(sp)
	sw	s0,24(sp)
	sw	s1,20(sp)
	sw	s2,16(sp)
	sw	s3,12(sp)
	sw	s4,8(sp)
	.cfi_offset 1, -4
	.cfi_offset 8, -8
	.cfi_offset 9, -12
	.cfi_offset 18, -16
	.cfi_offset 19, -20
	.cfi_offset 20, -24
	.loc 1 4055 7
	beq	a0,zero,.L700
	.loc 1 4055 20 discriminator 1
	lw	a5,0(a0)
	mv	s0,a0
	beq	a5,zero,.L700
	.loc 1 4058 5
	lui	a4,%hi(.LC117)
	li	s3,4096
	lui	s2,%hi(.LC1)
	mv	s1,a2
	mv	s4,a1
	.loc 1 4058 5 is_stmt 1
	addi	a4,a4,%lo(.LC117)
	addi	a3,s3,-38
	addi	a2,s2,%lo(.LC1)
.LVL877:
	li	a1,2
.LVL878:
	call	mbedtls_debug_print_msg
.LVL879:
	.loc 1 4060 5
	.loc 1 4060 22 is_stmt 0
	li	a5,21
	sw	a5,164(s0)
	.loc 1 4061 5 is_stmt 1
	.loc 1 4061 21 is_stmt 0
	li	a5,2
	sw	a5,168(s0)
	.loc 1 4062 5 is_stmt 1
	.loc 1 4062 8 is_stmt 0
	lw	a5,160(s0)
	.loc 1 4065 17
	mv	a0,s0
	.loc 1 4062 21
	sb	s4,0(a5)
	.loc 1 4063 5 is_stmt 1
	.loc 1 4063 8 is_stmt 0
	lw	a5,160(s0)
	.loc 1 4063 21
	sb	s1,1(a5)
	.loc 1 4065 5 is_stmt 1
	.loc 1 4065 17 is_stmt 0
	call	mbedtls_ssl_write_record
.LVL880:
	mv	s1,a0
.LVL881:
	.loc 1 4065 7
	beq	a0,zero,.L698
	.loc 1 4067 9 is_stmt 1
	lui	a4,%hi(.LC79)
	mv	a5,a0
	addi	a4,a4,%lo(.LC79)
	addi	a3,s3,-29
	addi	a2,s2,%lo(.LC1)
	li	a1,1
	mv	a0,s0
	call	mbedtls_debug_print_ret
.LVL882:
	.loc 1 4068 9
.L696:
	.loc 1 4074 1 is_stmt 0
	lw	ra,28(sp)
	.cfi_remember_state
	.cfi_restore 1
	lw	s0,24(sp)
	.cfi_restore 8
	mv	a0,s1
	lw	s2,16(sp)
	.cfi_restore 18
	lw	s1,20(sp)
	.cfi_restore 9
	lw	s3,12(sp)
	.cfi_restore 19
	lw	s4,8(sp)
	.cfi_restore 20
	addi	sp,sp,32
	.cfi_def_cfa_offset 0
	jr	ra
.LVL883:
.L698:
	.cfi_restore_state
.LBB223:
.LBB224:
	.loc 1 4071 5 is_stmt 1
	lui	a4,%hi(.LC118)
	addi	a4,a4,%lo(.LC118)
	addi	a3,s3,-25
	addi	a2,s2,%lo(.LC1)
	li	a1,2
	mv	a0,s0
	call	mbedtls_debug_print_msg
.LVL884:
	.loc 1 4073 5
	j	.L696
.LVL885:
.L700:
.LBE224:
.LBE223:
	.loc 1 4056 15 is_stmt 0
	li	s1,-28672
	addi	s1,s1,-256
	j	.L696
	.cfi_endproc
.LFE53:
	.size	mbedtls_ssl_send_alert_message, .-mbedtls_ssl_send_alert_message
	.section	.text.mbedtls_ssl_send_fatal_handshake_failure,"ax",@progbits
	.align	1
	.globl	mbedtls_ssl_send_fatal_handshake_failure
	.type	mbedtls_ssl_send_fatal_handshake_failure, @function
mbedtls_ssl_send_fatal_handshake_failure:
.LFB52:
	.loc 1 4036 1 is_stmt 1
	.cfi_startproc
.LVL886:
	.loc 1 4037 5
	.loc 1 4039 5
	.loc 1 4039 17 is_stmt 0
	li	a2,40
	li	a1,2
	tail	mbedtls_ssl_send_alert_message
.LVL887:
	.cfi_endproc
.LFE52:
	.size	mbedtls_ssl_send_fatal_handshake_failure, .-mbedtls_ssl_send_fatal_handshake_failure
	.section	.text.mbedtls_ssl_close_notify,"ax",@progbits
	.align	1
	.globl	mbedtls_ssl_close_notify
	.type	mbedtls_ssl_close_notify, @function
mbedtls_ssl_close_notify:
.LFB119:
	.loc 1 7010 1 is_stmt 1
	.cfi_startproc
.LVL888:
	.loc 1 7011 5
	.loc 1 7013 5
	.loc 1 7010 1 is_stmt 0
	addi	sp,sp,-32
	.cfi_def_cfa_offset 32
	sw	ra,28(sp)
	sw	s0,24(sp)
	sw	s1,20(sp)
	sw	s2,16(sp)
	sw	s3,12(sp)
	sw	s4,8(sp)
	.cfi_offset 1, -4
	.cfi_offset 8, -8
	.cfi_offset 9, -12
	.cfi_offset 18, -16
	.cfi_offset 19, -20
	.cfi_offset 20, -24
	.loc 1 7013 7
	beq	a0,zero,.L708
	.loc 1 7013 20 discriminator 1
	lw	a5,0(a0)
	mv	s1,a0
	beq	a5,zero,.L708
	.loc 1 7016 5 is_stmt 1
	lui	s2,%hi(.LC1)
	lui	a4,%hi(.LC119)
	li	s3,8192
	addi	a4,a4,%lo(.LC119)
	addi	a3,s3,-1176
	addi	a2,s2,%lo(.LC1)
	li	a1,2
	call	mbedtls_debug_print_msg
.LVL889:
	.loc 1 7018 5
	.loc 1 7018 7 is_stmt 0
	lw	a5,172(s1)
	mv	s4,s2
	beq	a5,zero,.L705
	.loc 1 7019 9 is_stmt 1
	.loc 1 7035 1 is_stmt 0
	lw	s0,24(sp)
	.cfi_remember_state
	.cfi_restore 8
	lw	ra,28(sp)
	.cfi_restore 1
	lw	s2,16(sp)
	.cfi_restore 18
	lw	s3,12(sp)
	.cfi_restore 19
	lw	s4,8(sp)
	.cfi_restore 20
	.loc 1 7019 17
	mv	a0,s1
	.loc 1 7035 1
	lw	s1,20(sp)
	.cfi_restore 9
.LVL890:
	addi	sp,sp,32
	.cfi_def_cfa_offset 0
	.loc 1 7019 17
	tail	mbedtls_ssl_flush_output
.LVL891:
.L705:
	.cfi_restore_state
	.loc 1 7021 5 is_stmt 1
	.loc 1 7021 7 is_stmt 0
	lw	a4,4(s1)
	li	a5,16
	bne	a4,a5,.L706
	.loc 1 7023 9 is_stmt 1
	.loc 1 7023 21 is_stmt 0
	li	a2,0
	li	a1,1
	mv	a0,s1
	call	mbedtls_ssl_send_alert_message
.LVL892:
	mv	s0,a0
.LVL893:
	.loc 1 7023 11
	beq	a0,zero,.L706
	.loc 1 7027 13 is_stmt 1
	lui	a4,%hi(.LC120)
	mv	a5,a0
	addi	a4,a4,%lo(.LC120)
	addi	a3,s3,-1165
	addi	a2,s2,%lo(.LC1)
	li	a1,1
	mv	a0,s1
	call	mbedtls_debug_print_ret
.LVL894:
	.loc 1 7028 13
.L703:
	.loc 1 7035 1 is_stmt 0
	mv	a0,s0
	lw	ra,28(sp)
	.cfi_remember_state
	.cfi_restore 1
	lw	s0,24(sp)
	.cfi_restore 8
	lw	s1,20(sp)
	.cfi_restore 9
	lw	s2,16(sp)
	.cfi_restore 18
	lw	s3,12(sp)
	.cfi_restore 19
	lw	s4,8(sp)
	.cfi_restore 20
	addi	sp,sp,32
	.cfi_def_cfa_offset 0
	jr	ra
.LVL895:
.L706:
	.cfi_restore_state
	.loc 1 7032 5 is_stmt 1
	lui	a4,%hi(.LC121)
	li	a3,8192
	addi	a4,a4,%lo(.LC121)
	addi	a3,a3,-1160
	addi	a2,s4,%lo(.LC1)
	li	a1,2
	mv	a0,s1
	call	mbedtls_debug_print_msg
.LVL896:
	.loc 1 7034 5
	.loc 1 7034 11 is_stmt 0
	li	s0,0
	j	.L703
.LVL897:
.L708:
	.loc 1 7014 15
	li	s0,-28672
	addi	s0,s0,-256
	j	.L703
	.cfi_endproc
.LFE119:
	.size	mbedtls_ssl_close_notify, .-mbedtls_ssl_close_notify
	.section	.text.mbedtls_ssl_write_certificate,"ax",@progbits
	.align	1
	.globl	mbedtls_ssl_write_certificate
	.type	mbedtls_ssl_write_certificate, @function
mbedtls_ssl_write_certificate:
.LFB54:
	.loc 1 4127 1 is_stmt 1
	.cfi_startproc
.LVL898:
	.loc 1 4128 5
	.loc 1 4129 5
	.loc 1 4130 5
	.loc 1 4131 5
	.loc 1 4127 1 is_stmt 0
	addi	sp,sp,-48
	.cfi_def_cfa_offset 48
	sw	s0,40(sp)
	sw	s1,36(sp)
	sw	s3,28(sp)
	sw	ra,44(sp)
	sw	s2,32(sp)
	.cfi_offset 8, -8
	.cfi_offset 9, -12
	.cfi_offset 19, -20
	.cfi_offset 1, -4
	.cfi_offset 18, -16
	.loc 1 4131 38
	lw	a5,64(a0)
	.loc 1 4133 5
	lui	s1,%hi(.LC1)
	lui	a4,%hi(.LC122)
	.loc 1 4131 38
	lw	s2,0(a5)
.LVL899:
	.loc 1 4133 5 is_stmt 1
	li	s3,4096
	addi	a4,a4,%lo(.LC122)
	addi	a3,s3,37
	addi	a2,s1,%lo(.LC1)
	li	a1,2
	.loc 1 4127 1 is_stmt 0
	mv	s0,a0
	.loc 1 4133 5
	call	mbedtls_debug_print_msg
.LVL900:
	.loc 1 4135 5 is_stmt 1
	.loc 1 4135 7 is_stmt 0
	lbu	a5,10(s2)
	li	a4,6
	mv	s2,s1
.LVL901:
	addi	a5,a5,-5
	andi	a5,a5,0xff
	bgtu	a5,a4,.L714
	li	a4,75
	srl	a5,a4,a5
	andi	a5,a5,1
	beq	a5,zero,.L714
	.loc 1 4140 9 is_stmt 1
	lui	a4,%hi(.LC123)
	addi	a2,s1,%lo(.LC1)
	addi	a4,a4,%lo(.LC123)
	addi	a3,s3,44
	li	a1,2
	mv	a0,s0
	call	mbedtls_debug_print_msg
.LVL902:
	.loc 1 4141 9
	.loc 1 4141 19 is_stmt 0
	lw	a5,4(s0)
	.loc 1 4142 15
	li	s1,0
	.loc 1 4141 19
	addi	a5,a5,1
	sw	a5,4(s0)
	.loc 1 4142 9 is_stmt 1
.LVL903:
.L713:
	.loc 1 4240 1 is_stmt 0
	lw	ra,44(sp)
	.cfi_remember_state
	.cfi_restore 1
	lw	s0,40(sp)
	.cfi_restore 8
.LVL904:
	mv	a0,s1
	lw	s2,32(sp)
	.cfi_restore 18
	lw	s1,36(sp)
	.cfi_restore 9
	lw	s3,28(sp)
	.cfi_restore 19
	addi	sp,sp,48
	.cfi_def_cfa_offset 0
	jr	ra
.LVL905:
.L714:
	.cfi_restore_state
	.loc 1 4146 5 is_stmt 1
	.loc 1 4146 12 is_stmt 0
	lw	a4,0(s0)
	.loc 1 4146 29
	lhu	a5,104(a4)
	.loc 1 4146 7
	andi	a5,a5,1
	bne	a5,zero,.L716
	.loc 1 4148 9 is_stmt 1
	.loc 1 4148 16 is_stmt 0
	lw	s1,176(s0)
	.loc 1 4148 11
	bne	s1,zero,.L716
	.loc 1 4150 13 is_stmt 1
	lui	a4,%hi(.LC123)
	li	a3,4096
	addi	a4,a4,%lo(.LC123)
	addi	a3,a3,54
	addi	a2,s2,%lo(.LC1)
	li	a1,2
	mv	a0,s0
	call	mbedtls_debug_print_msg
.LVL906:
	.loc 1 4151 13
	.loc 1 4151 23 is_stmt 0
	lw	a5,4(s0)
	addi	a5,a5,1
	sw	a5,4(s0)
	.loc 1 4152 13 is_stmt 1
	.loc 1 4152 19 is_stmt 0
	j	.L713
.L716:
	.loc 1 4185 5 is_stmt 1
.LVL907:
.LBB229:
.LBB230:
	.loc 2 418 5
	.loc 2 420 5
	.loc 2 420 12 is_stmt 0
	lw	a5,48(s0)
	.loc 2 420 7
	beq	a5,zero,.L717
	.loc 2 420 48
	lw	a5,8(a5)
	.loc 2 420 31
	bne	a5,zero,.L718
.L717:
	.loc 2 423 9 is_stmt 1
	.loc 2 423 18 is_stmt 0
	lw	a5,64(a4)
.LVL908:
	.loc 2 425 5 is_stmt 1
	.loc 2 425 36 is_stmt 0
	beq	a5,zero,.L719
.LVL909:
.L718:
	lw	a5,0(a5)
.LVL910:
.L719:
.LBE230:
.LBE229:
	.loc 1 4185 5
	lui	a4,%hi(.LC124)
	li	a3,4096
	addi	a4,a4,%lo(.LC124)
	addi	a3,a3,89
	addi	a2,s2,%lo(.LC1)
	li	a1,3
	mv	a0,s0
	call	mbedtls_debug_print_crt
.LVL911:
	.loc 1 4196 5 is_stmt 1
	.loc 1 4197 5
.LBB231:
.LBB232:
	.loc 2 418 5
	.loc 2 420 5
	.loc 2 420 12 is_stmt 0
	lw	a5,48(s0)
	.loc 2 420 7
	beq	a5,zero,.L720
	.loc 2 420 48
	lw	a5,8(a5)
	.loc 2 420 31
	bne	a5,zero,.L721
.L720:
	.loc 2 423 9 is_stmt 1
	.loc 2 423 18 is_stmt 0
	lw	a5,0(s0)
	lw	a5,64(a5)
.LVL912:
	.loc 2 425 5 is_stmt 1
	.loc 2 425 36 is_stmt 0
	beq	a5,zero,.L727
.LVL913:
.L721:
	lw	s1,0(a5)
.LBE232:
.LBE231:
	.loc 1 4202 33
	li	s3,16384
.LBB235:
.LBB233:
	.loc 2 425 36
	li	a4,7
.LBE233:
.LBE235:
	.loc 1 4202 33
	addi	s3,s3,-3
.LVL914:
.L723:
	.loc 1 4199 10
	bne	s1,zero,.L725
.LVL915:
.L722:
	.loc 1 4217 5 is_stmt 1
	.loc 1 4217 8 is_stmt 0
	lw	a3,160(s0)
	.loc 1 4217 44
	addi	a5,a4,-7
	.loc 1 4217 50
	srli	a2,a5,16
	.loc 1 4217 23
	sb	a2,4(a3)
	.loc 1 4218 5 is_stmt 1
	.loc 1 4218 8 is_stmt 0
	lw	a3,160(s0)
	.loc 1 4218 50
	srli	a2,a5,8
	.loc 1 4231 17
	mv	a0,s0
	.loc 1 4218 23
	sb	a2,5(a3)
	.loc 1 4219 5 is_stmt 1
	.loc 1 4219 8 is_stmt 0
	lw	a3,160(s0)
	.loc 1 4219 21
	sb	a5,6(a3)
	.loc 1 4221 5 is_stmt 1
	.loc 1 4222 22 is_stmt 0
	li	a5,22
	sw	a5,164(s0)
	.loc 1 4223 8
	lw	a5,160(s0)
	.loc 1 4221 21
	sw	a4,168(s0)
	.loc 1 4222 5 is_stmt 1
	.loc 1 4223 5
	.loc 1 4223 21 is_stmt 0
	li	a4,11
	sb	a4,0(a5)
	.loc 1 4229 5 is_stmt 1
	.loc 1 4229 15 is_stmt 0
	lw	a5,4(s0)
	addi	a5,a5,1
	sw	a5,4(s0)
	.loc 1 4231 5 is_stmt 1
	.loc 1 4231 17 is_stmt 0
	call	mbedtls_ssl_write_record
.LVL916:
	mv	s1,a0
.LVL917:
	.loc 1 4231 7
	beq	a0,zero,.L726
	.loc 1 4233 9 is_stmt 1
	lui	a4,%hi(.LC79)
	li	a3,4096
	mv	a5,a0
	addi	a4,a4,%lo(.LC79)
	addi	a3,a3,137
	addi	a2,s2,%lo(.LC1)
	li	a1,1
	mv	a0,s0
	call	mbedtls_debug_print_ret
.LVL918:
	.loc 1 4234 9
	.loc 1 4234 15 is_stmt 0
	j	.L713
.LVL919:
.L725:
	.loc 1 4201 9 is_stmt 1
	.loc 1 4201 11 is_stmt 0
	lw	a2,4(s1)
.LVL920:
	.loc 1 4202 9 is_stmt 1
	addi	a0,a4,3
	.loc 1 4202 33 is_stmt 0
	sub	a3,s3,a4
	add	a5,a2,a0
	.loc 1 4202 11
	bgeu	a3,a2,.L724
	.loc 1 4204 13 is_stmt 1
	lui	a4,%hi(.LC125)
	li	a3,4096
	li	a6,16384
	addi	a4,a4,%lo(.LC125)
	addi	a3,a3,109
	addi	a2,s2,%lo(.LC1)
.LVL921:
	li	a1,1
	mv	a0,s0
	.loc 1 4206 19 is_stmt 0
	li	s1,-28672
.LVL922:
	.loc 1 4204 13
	call	mbedtls_debug_print_msg
.LVL923:
	.loc 1 4206 13 is_stmt 1
	.loc 1 4206 19 is_stmt 0
	addi	s1,s1,-1280
	j	.L713
.LVL924:
.L724:
	.loc 1 4209 26
	lw	a3,160(s0)
	.loc 1 4209 47
	srli	a1,a2,16
	sw	a5,12(sp)
	.loc 1 4209 9 is_stmt 1
	.loc 1 4209 26 is_stmt 0
	add	a3,a3,a4
	.loc 1 4209 28
	sb	a1,0(a3)
	.loc 1 4210 9 is_stmt 1
	.loc 1 4210 29 is_stmt 0
	lw	a3,160(s0)
	.loc 1 4210 50
	srli	a1,a2,8
	.loc 1 4210 29
	add	a3,a3,a4
	.loc 1 4210 31
	sb	a1,1(a3)
	.loc 1 4211 9 is_stmt 1
	.loc 1 4211 29 is_stmt 0
	lw	a3,160(s0)
	add	a4,a3,a4
	.loc 1 4211 31
	sb	a2,2(a4)
	.loc 1 4213 9 is_stmt 1
	.loc 1 4213 17
	.loc 1 4213 38 is_stmt 0
	lw	a4,160(s0)
	.loc 1 4213 17
	lw	a1,8(s1)
	add	a0,a4,a0
	call	memcpy
.LVL925:
	.loc 1 4214 9 is_stmt 1
	.loc 1 4214 17
	.loc 1 4214 21 is_stmt 0
	lw	a5,12(sp)
	lw	s1,304(s1)
.LVL926:
	mv	a4,a5
	j	.L723
.LVL927:
.L727:
.LBB236:
.LBB234:
	.loc 2 425 36
	li	a4,7
	j	.L722
.LVL928:
.L726:
.LBE234:
.LBE236:
	.loc 1 4237 5 is_stmt 1
	lui	a4,%hi(.LC126)
	li	a3,4096
	addi	a4,a4,%lo(.LC126)
	addi	a3,a3,141
	addi	a2,s2,%lo(.LC1)
	li	a1,2
	mv	a0,s0
	call	mbedtls_debug_print_msg
.LVL929:
	.loc 1 4239 5
	.loc 1 4239 11 is_stmt 0
	j	.L713
	.cfi_endproc
.LFE54:
	.size	mbedtls_ssl_write_certificate, .-mbedtls_ssl_write_certificate
	.section	.text.mbedtls_ssl_write_change_cipher_spec,"ax",@progbits
	.align	1
	.globl	mbedtls_ssl_write_change_cipher_spec
	.type	mbedtls_ssl_write_change_cipher_spec, @function
mbedtls_ssl_write_change_cipher_spec:
.LFB56:
	.loc 1 4529 1 is_stmt 1
	.cfi_startproc
.LVL930:
	.loc 1 4530 5
	.loc 1 4532 5
	.loc 1 4529 1 is_stmt 0
	addi	sp,sp,-32
	.cfi_def_cfa_offset 32
	sw	s2,16(sp)
	sw	s3,12(sp)
	.loc 1 4532 5
	lui	a4,%hi(.LC127)
	.cfi_offset 18, -16
	.cfi_offset 19, -20
	li	s3,4096
	lui	s2,%hi(.LC1)
	addi	a4,a4,%lo(.LC127)
	addi	a3,s3,436
	addi	a2,s2,%lo(.LC1)
	li	a1,2
	.loc 1 4529 1
	sw	ra,28(sp)
	sw	s0,24(sp)
	sw	s1,20(sp)
	.cfi_offset 1, -4
	.cfi_offset 8, -8
	.cfi_offset 9, -12
	.loc 1 4529 1
	mv	s0,a0
	.loc 1 4532 5
	call	mbedtls_debug_print_msg
.LVL931:
	.loc 1 4534 5 is_stmt 1
	.loc 1 4534 22 is_stmt 0
	li	a5,20
	.loc 1 4536 8
	lw	a4,160(s0)
	.loc 1 4534 22
	sw	a5,164(s0)
	.loc 1 4535 5 is_stmt 1
	.loc 1 4535 21 is_stmt 0
	li	a5,1
	sw	a5,168(s0)
	.loc 1 4536 5 is_stmt 1
	.loc 1 4536 21 is_stmt 0
	sb	a5,0(a4)
	.loc 1 4538 5 is_stmt 1
	.loc 1 4538 15 is_stmt 0
	lw	a5,4(s0)
	.loc 1 4540 17
	mv	a0,s0
	.loc 1 4538 15
	addi	a5,a5,1
	sw	a5,4(s0)
	.loc 1 4540 5 is_stmt 1
	.loc 1 4540 17 is_stmt 0
	call	mbedtls_ssl_write_record
.LVL932:
	mv	s1,a0
.LVL933:
	.loc 1 4540 7
	beq	a0,zero,.L739
	.loc 1 4542 9 is_stmt 1
	lui	a4,%hi(.LC79)
	mv	a5,a0
	addi	a4,a4,%lo(.LC79)
	addi	a3,s3,446
	addi	a2,s2,%lo(.LC1)
	li	a1,1
	mv	a0,s0
	call	mbedtls_debug_print_ret
.LVL934:
	.loc 1 4543 9
.L738:
	.loc 1 4549 1 is_stmt 0
	lw	ra,28(sp)
	.cfi_remember_state
	.cfi_restore 1
	lw	s0,24(sp)
	.cfi_restore 8
.LVL935:
	mv	a0,s1
	lw	s2,16(sp)
	.cfi_restore 18
	lw	s1,20(sp)
	.cfi_restore 9
.LVL936:
	lw	s3,12(sp)
	.cfi_restore 19
	addi	sp,sp,32
	.cfi_def_cfa_offset 0
	jr	ra
.LVL937:
.L739:
	.cfi_restore_state
	.loc 1 4546 5 is_stmt 1
	lui	a4,%hi(.LC128)
	addi	a4,a4,%lo(.LC128)
	addi	a3,s3,450
	addi	a2,s2,%lo(.LC1)
	li	a1,2
	mv	a0,s0
	call	mbedtls_debug_print_msg
.LVL938:
	.loc 1 4548 5
	.loc 1 4548 11 is_stmt 0
	j	.L738
	.cfi_endproc
.LFE56:
	.size	mbedtls_ssl_write_change_cipher_spec, .-mbedtls_ssl_write_change_cipher_spec
	.section	.text.mbedtls_ssl_write_finished,"ax",@progbits
	.align	1
	.globl	mbedtls_ssl_write_finished
	.type	mbedtls_ssl_write_finished, @function
mbedtls_ssl_write_finished:
.LFB65:
	.loc 1 5125 1 is_stmt 1
	.cfi_startproc
.LVL939:
	.loc 1 5126 5
	.loc 1 5128 5
	.loc 1 5125 1 is_stmt 0
	addi	sp,sp,-16
	.cfi_def_cfa_offset 16
	sw	s1,4(sp)
	.loc 1 5128 5
	lui	a4,%hi(.LC129)
	li	a3,4096
	.cfi_offset 9, -12
	lui	s1,%hi(.LC1)
	addi	a4,a4,%lo(.LC129)
	li	a1,2
	addi	a3,a3,1032
	addi	a2,s1,%lo(.LC1)
	.loc 1 5125 1
	sw	s0,8(sp)
	sw	ra,12(sp)
	.cfi_offset 8, -8
	.cfi_offset 1, -4
	mv	s0,a0
	sw	s2,0(sp)
	.cfi_offset 18, -16
	.loc 1 5128 5
	call	mbedtls_debug_print_msg
.LVL940:
	.loc 1 5133 5 is_stmt 1
	.loc 1 5133 7 is_stmt 0
	lw	a4,12(s0)
	li	a5,1
	lw	a1,156(s0)
	ble	a4,a5,.L744
	.loc 1 5135 9 is_stmt 1
	.loc 1 5135 41 is_stmt 0
	lw	a4,64(s0)
	.loc 1 5135 70
	lw	a5,12(a4)
	lw	a4,16(a4)
	sub	a5,a5,a4
	add	a1,a1,a5
.L744:
	.loc 1 5141 68
	lw	a5,0(s0)
	sw	a1,160(s0)
	.loc 1 5141 5 is_stmt 1
	mv	a0,s0
	.loc 1 5141 68 is_stmt 0
	lw	a2,104(a5)
	.loc 1 5141 19
	lw	a5,48(s0)
	.loc 1 5141 5
	addi	a1,a1,4
	andi	a2,a2,1
	lw	a5,204(a5)
	jalr	a5
.LVL941:
	.loc 1 5149 5 is_stmt 1
	.loc 1 5149 45 is_stmt 0
	lw	a4,12(s0)
	li	a5,36
	beq	a4,zero,.L745
	li	a5,12
.L745:
.LVL942:
	.loc 1 5156 5 is_stmt 1 discriminator 4
	.loc 1 5156 25 is_stmt 0 discriminator 4
	addi	a5,a5,4
.LVL943:
	.loc 1 5156 21 discriminator 4
	sw	a5,168(s0)
	.loc 1 5157 5 is_stmt 1 discriminator 4
	.loc 1 5157 22 is_stmt 0 discriminator 4
	li	a5,22
.LVL944:
	sw	a5,164(s0)
	.loc 1 5158 5 is_stmt 1 discriminator 4
	.loc 1 5158 8 is_stmt 0 discriminator 4
	lw	a5,160(s0)
	.loc 1 5158 21 discriminator 4
	li	a4,20
	sb	a4,0(a5)
.LVL945:
	.loc 1 5164 5 is_stmt 1 discriminator 4
	.loc 1 5164 23 is_stmt 0 discriminator 4
	lw	a5,48(s0)
	.loc 1 5164 7 discriminator 4
	lw	a5,328(a5)
	beq	a5,zero,.L746
	.loc 1 5167 9 is_stmt 1
	.loc 1 5167 33 is_stmt 0
	lw	a5,0(s0)
	lhu	a5,104(a5)
	.loc 1 5167 11
	andi	a5,a5,1
	bne	a5,zero,.L747
	.loc 1 5168 13 is_stmt 1
	.loc 1 5168 24 is_stmt 0
	li	a5,15
.L761:
	.loc 1 5176 19
	sw	a5,4(s0)
.L747:
	.loc 1 5182 5 is_stmt 1
	lui	a4,%hi(.LC130)
	li	s2,4096
	addi	a4,a4,%lo(.LC130)
	addi	a3,s2,1086
	addi	a2,s1,%lo(.LC1)
	li	a1,3
	mv	a0,s0
	call	mbedtls_debug_print_msg
.LVL946:
	.loc 1 5185 5
	.loc 1 5185 30 is_stmt 0
	lw	a5,0(s0)
	lhu	a5,104(a5)
	.loc 1 5185 7
	andi	a5,a5,2
	beq	a5,zero,.L748
.LBB237:
	.loc 1 5187 9 is_stmt 1
	.loc 1 5190 9
	.loc 1 5190 12 is_stmt 0
	lw	a5,48(s0)
	.loc 1 5190 48
	lw	a4,56(s0)
	.loc 1 5191 9
	li	a2,8
	.loc 1 5190 43
	sw	a4,68(a5)
	.loc 1 5191 9 is_stmt 1
	.loc 1 5191 31 is_stmt 0
	lw	a0,48(s0)
	.loc 1 5191 9
	lw	a1,144(s0)
	addi	a0,a0,72
	call	memcpy
.LVL947:
	.loc 1 5194 9 is_stmt 1
	.loc 1 5194 30 is_stmt 0
	lw	a0,144(s0)
	.loc 1 5194 9
	li	a2,6
	li	a1,0
	addi	a0,a0,2
	call	memset
.LVL948:
	.loc 1 5197 9 is_stmt 1
	.loc 1 5198 13
	.loc 1 5198 22 is_stmt 0
	lw	a4,144(s0)
	.loc 1 5198 17
	lbu	a5,1(a4)
	addi	a5,a5,1
	andi	a5,a5,0xff
	.loc 1 5198 15
	sb	a5,1(a4)
	bne	a5,zero,.L750
.LVL949:
	.loc 1 5198 13 is_stmt 1
	.loc 1 5198 22 is_stmt 0
	lw	a4,144(s0)
	.loc 1 5198 17
	lbu	a5,0(a4)
	addi	a5,a5,1
	andi	a5,a5,0xff
	.loc 1 5198 15
	sb	a5,0(a4)
	bne	a5,zero,.L750
.LVL950:
	.loc 1 5202 9 is_stmt 1
	.loc 1 5204 13
	lui	a4,%hi(.LC131)
	addi	a3,s2,1108
	addi	a4,a4,%lo(.LC131)
	addi	a2,s1,%lo(.LC1)
	li	a1,1
	mv	a0,s0
	.loc 1 5205 19 is_stmt 0
	li	s2,-28672
	.loc 1 5204 13
	call	mbedtls_debug_print_msg
.LVL951:
	.loc 1 5205 13 is_stmt 1
	.loc 1 5205 19 is_stmt 0
	addi	s2,s2,1152
.LVL952:
.L742:
.LBE237:
	.loc 1 5240 1
	lw	ra,12(sp)
	.cfi_remember_state
	.cfi_restore 1
	lw	s0,8(sp)
	.cfi_restore 8
.LVL953:
	mv	a0,s2
	lw	s1,4(sp)
	.cfi_restore 9
	lw	s2,0(sp)
	.cfi_restore 18
	addi	sp,sp,16
	.cfi_def_cfa_offset 0
	jr	ra
.LVL954:
.L746:
	.cfi_restore_state
	.loc 1 5176 9 is_stmt 1
	.loc 1 5176 19 is_stmt 0
	lw	a5,4(s0)
	addi	a5,a5,1
	j	.L761
.L748:
	.loc 1 5210 5 is_stmt 1
	lw	a0,144(s0)
	li	a2,8
	li	a1,0
	call	memset
.LVL955:
.L750:
	.loc 1 5212 5
	.loc 1 5212 24 is_stmt 0
	lw	a5,64(s0)
	sw	a5,56(s0)
	.loc 1 5213 5 is_stmt 1
	.loc 1 5213 22 is_stmt 0
	lw	a5,44(s0)
	sw	a5,36(s0)
	.loc 1 5227 5 is_stmt 1
	.loc 1 5227 30 is_stmt 0
	lw	a5,0(s0)
	lhu	a5,104(a5)
	.loc 1 5227 7
	andi	a5,a5,2
	beq	a5,zero,.L753
	.loc 1 5228 9 is_stmt 1
	mv	a0,s0
	call	mbedtls_ssl_send_flight_completed
.LVL956:
.L753:
	.loc 1 5231 5
	.loc 1 5231 17 is_stmt 0
	mv	a0,s0
	call	mbedtls_ssl_write_record
.LVL957:
	mv	s2,a0
.LVL958:
	.loc 1 5231 7
	beq	a0,zero,.L754
	.loc 1 5233 9 is_stmt 1
	lui	a4,%hi(.LC79)
	li	a3,4096
	mv	a5,a0
	addi	a4,a4,%lo(.LC79)
	addi	a3,a3,1137
	addi	a2,s1,%lo(.LC1)
	li	a1,1
	mv	a0,s0
.LVL959:
	call	mbedtls_debug_print_ret
.LVL960:
	.loc 1 5234 9
	.loc 1 5234 15 is_stmt 0
	j	.L742
.LVL961:
.L754:
	.loc 1 5237 5 is_stmt 1
	lui	a4,%hi(.LC132)
	li	a3,4096
	addi	a4,a4,%lo(.LC132)
	addi	a3,a3,1141
	addi	a2,s1,%lo(.LC1)
	li	a1,2
	mv	a0,s0
.LVL962:
	call	mbedtls_debug_print_msg
.LVL963:
	.loc 1 5239 5
	.loc 1 5239 11 is_stmt 0
	j	.L742
	.cfi_endproc
.LFE65:
	.size	mbedtls_ssl_write_finished, .-mbedtls_ssl_write_finished
	.section	.text.mbedtls_ssl_write,"ax",@progbits
	.align	1
	.globl	mbedtls_ssl_write
	.type	mbedtls_ssl_write, @function
mbedtls_ssl_write:
.LFB118:
	.loc 1 6970 1 is_stmt 1
	.cfi_startproc
.LVL964:
	.loc 1 6971 5
	.loc 1 6973 5
	.loc 1 6970 1 is_stmt 0
	addi	sp,sp,-32
	.cfi_def_cfa_offset 32
	sw	s4,8(sp)
	sw	s5,4(sp)
	.loc 1 6973 5
	lui	a4,%hi(.LC133)
	.cfi_offset 20, -24
	.cfi_offset 21, -28
	li	s5,8192
	lui	s4,%hi(.LC1)
	.loc 1 6970 1
	sw	s1,20(sp)
	sw	s2,16(sp)
	sw	s6,0(sp)
	.cfi_offset 9, -12
	.cfi_offset 18, -16
	.cfi_offset 22, -32
	mv	s1,a0
	mv	s6,a1
	mv	s2,a2
	.loc 1 6973 5
	addi	a4,a4,%lo(.LC133)
	addi	a3,s5,-1219
	addi	a2,s4,%lo(.LC1)
.LVL965:
	li	a1,2
.LVL966:
	.loc 1 6970 1
	sw	ra,28(sp)
	sw	s0,24(sp)
	sw	s3,12(sp)
	.cfi_offset 1, -4
	.cfi_offset 8, -8
	.cfi_offset 19, -20
	.loc 1 6973 5
	call	mbedtls_debug_print_msg
.LVL967:
	.loc 1 6975 5 is_stmt 1
	.loc 1 6975 7 is_stmt 0
	beq	s1,zero,.L771
	.loc 1 6975 20 discriminator 1
	lw	a5,0(s1)
	beq	a5,zero,.L771
	.loc 1 6986 7
	lw	a4,4(s1)
	li	a5,16
	mv	s3,s4
	.loc 1 6986 5 is_stmt 1
	.loc 1 6986 7 is_stmt 0
	beq	a4,a5,.L764
	.loc 1 6988 9 is_stmt 1
	.loc 1 6988 21 is_stmt 0
	mv	a0,s1
	call	mbedtls_ssl_handshake
.LVL968:
	mv	s0,a0
.LVL969:
	.loc 1 6988 11
	beq	a0,zero,.L764
	.loc 1 6990 13 is_stmt 1
	lui	a4,%hi(.LC134)
	mv	a5,a0
	addi	a4,a4,%lo(.LC134)
	addi	a3,s5,-1202
	addi	a2,s4,%lo(.LC1)
	li	a1,1
	mv	a0,s1
	call	mbedtls_debug_print_ret
.LVL970:
	.loc 1 6991 13
.L762:
	.loc 1 7004 1 is_stmt 0
	mv	a0,s0
	lw	ra,28(sp)
	.cfi_remember_state
	.cfi_restore 1
	lw	s0,24(sp)
	.cfi_restore 8
	lw	s1,20(sp)
	.cfi_restore 9
.LVL971:
	lw	s2,16(sp)
	.cfi_restore 18
	lw	s3,12(sp)
	.cfi_restore 19
	lw	s4,8(sp)
	.cfi_restore 20
	lw	s5,4(sp)
	.cfi_restore 21
	lw	s6,0(sp)
	.cfi_restore 22
.LVL972:
	addi	sp,sp,32
	.cfi_def_cfa_offset 0
	jr	ra
.LVL973:
.L764:
	.cfi_restore_state
	.loc 1 6998 5 is_stmt 1
.LBB240:
.LBB241:
	.loc 1 6876 5
	.loc 1 6878 5
	.loc 1 6878 22 is_stmt 0
	mv	a0,s1
	call	mbedtls_ssl_get_max_frag_len
.LVL974:
	.loc 1 6880 5 is_stmt 1
	.loc 1 6880 7 is_stmt 0
	bleu	s2,a0,.L765
	.loc 1 6883 9 is_stmt 1
	.loc 1 6883 34 is_stmt 0
	lw	a5,0(s1)
	lhu	a5,104(a5)
	.loc 1 6883 11
	andi	a5,a5,2
	beq	a5,zero,.L772
	.loc 1 6885 13 is_stmt 1
	lui	a4,%hi(.LC135)
	li	a3,8192
	mv	a6,a0
	mv	a5,s2
	addi	a4,a4,%lo(.LC135)
	addi	a3,a3,-1305
.LVL975:
.L783:
	.loc 1 6908 13 is_stmt 0
	addi	a2,s3,%lo(.LC1)
	li	a1,1
	mv	a0,s1
.LVL976:
	.loc 1 6911 19
	li	s0,-28672
	.loc 1 6908 13
	call	mbedtls_debug_print_msg
.LVL977:
	.loc 1 6911 13 is_stmt 1
	.loc 1 6911 19 is_stmt 0
	addi	s0,s0,-256
.L766:
.LVL978:
.LBE241:
.LBE240:
	.loc 1 7001 5 is_stmt 1
	lui	a4,%hi(.LC137)
	li	a3,8192
	addi	a4,a4,%lo(.LC137)
	addi	a3,a3,-1191
	addi	a2,s3,%lo(.LC1)
	li	a1,2
	mv	a0,s1
	call	mbedtls_debug_print_msg
.LVL979:
	.loc 1 7003 5
	.loc 1 7003 11 is_stmt 0
	j	.L762
.LVL980:
.L772:
.LBB243:
.LBB242:
	.loc 1 6883 11
	mv	s2,a0
.LVL981:
.L765:
	.loc 1 6896 5 is_stmt 1
	.loc 1 6896 7 is_stmt 0
	lw	a5,172(s1)
	beq	a5,zero,.L767
	.loc 1 6898 9 is_stmt 1
	.loc 1 6898 21 is_stmt 0
	mv	a0,s1
.LVL982:
	call	mbedtls_ssl_flush_output
.LVL983:
	mv	s0,a0
.LVL984:
	.loc 1 6898 11
	beq	a0,zero,.L768
	.loc 1 6900 13 is_stmt 1
	lui	a4,%hi(.LC74)
	li	a3,8192
	mv	a5,a0
	addi	a4,a4,%lo(.LC74)
	addi	a3,a3,-1292
.L784:
	.loc 1 6920 13 is_stmt 0
	addi	a2,s3,%lo(.LC1)
	li	a1,1
	mv	a0,s1
	call	mbedtls_debug_print_ret
.LVL985:
	.loc 1 6921 13 is_stmt 1
	j	.L766
.LVL986:
.L767:
	.loc 1 6907 9
	.loc 1 6907 12 is_stmt 0
	li	a6,16384
	addi	a6,a6,304
	bleu	s2,a6,.L769
	.loc 1 6908 13 is_stmt 1
	lui	a4,%hi(.LC136)
	li	a3,8192
	mv	a5,s2
	addi	a4,a4,%lo(.LC136)
	addi	a3,a3,-1282
	j	.L783
.L769:
	.loc 1 6914 9
	.loc 1 6916 9 is_stmt 0
	lw	a0,160(s1)
.LVL987:
	.loc 1 6915 26
	li	a5,23
	sw	a5,164(s1)
	.loc 1 6916 9
	mv	a2,s2
	mv	a1,s6
	.loc 1 6914 25
	sw	s2,168(s1)
	.loc 1 6915 9 is_stmt 1
	.loc 1 6916 9
	call	memcpy
.LVL988:
	.loc 1 6918 9
	.loc 1 6918 21 is_stmt 0
	mv	a0,s1
	call	mbedtls_ssl_write_record
.LVL989:
	mv	s0,a0
.LVL990:
	.loc 1 6918 11
	beq	a0,zero,.L768
	.loc 1 6920 13 is_stmt 1
	lui	a4,%hi(.LC79)
	li	a3,8192
	mv	a5,a0
	addi	a4,a4,%lo(.LC79)
	addi	a3,a3,-1272
	j	.L784
.L768:
	.loc 1 6925 5
	.loc 1 6925 13 is_stmt 0
	mv	s0,s2
.LVL991:
	j	.L766
.LVL992:
.L771:
.LBE242:
.LBE243:
	.loc 1 6976 15
	li	s0,-28672
	addi	s0,s0,-256
	j	.L762
	.cfi_endproc
.LFE118:
	.size	mbedtls_ssl_write, .-mbedtls_ssl_write
	.section	.text.mbedtls_ssl_read_version,"ax",@progbits
	.align	1
	.globl	mbedtls_ssl_read_version
	.type	mbedtls_ssl_read_version, @function
mbedtls_ssl_read_version:
.LFB136:
	.loc 1 7745 1 is_stmt 1
	.cfi_startproc
.LVL993:
	.loc 1 7747 5
	.loc 1 7747 7 is_stmt 0
	li	a5,1
	lbu	a4,0(a3)
	bne	a2,a5,.L786
.LVL994:
.LBB246:
.LBB247:
	.loc 1 7749 9 is_stmt 1
	.loc 1 7749 31 is_stmt 0
	li	a5,257
	sub	a5,a5,a4
	.loc 1 7749 16
	sw	a5,0(a0)
	.loc 1 7750 9 is_stmt 1
	.loc 1 7750 27 is_stmt 0
	lbu	a4,1(a3)
	.loc 1 7750 31
	li	a5,256
	sub	a5,a5,a4
	.loc 1 7752 9 is_stmt 1
	.loc 1 7752 11 is_stmt 0
	beq	a5,a2,.L787
.LVL995:
.L789:
.LBE247:
.LBE246:
	.loc 1 7761 21
	sw	a5,0(a1)
	.loc 1 7763 1
	ret
.LVL996:
.L787:
.LBB249:
.LBB248:
	.loc 1 7753 13 is_stmt 1
	li	a5,2
	j	.L789
.LVL997:
.L786:
.LBE248:
.LBE249:
	.loc 1 7760 9
	.loc 1 7760 16 is_stmt 0
	sw	a4,0(a0)
	.loc 1 7761 9 is_stmt 1
	.loc 1 7761 21 is_stmt 0
	lbu	a5,1(a3)
	j	.L789
	.cfi_endproc
.LFE136:
	.size	mbedtls_ssl_read_version, .-mbedtls_ssl_read_version
	.section	.text.mbedtls_ssl_read_record_layer,"ax",@progbits
	.align	1
	.globl	mbedtls_ssl_read_record_layer
	.type	mbedtls_ssl_read_record_layer, @function
mbedtls_ssl_read_record_layer:
.LFB50:
	.loc 1 3785 1 is_stmt 1
	.cfi_startproc
.LVL998:
	.loc 1 3786 5
	.loc 1 3788 5
	.loc 1 3785 1 is_stmt 0
	addi	sp,sp,-160
	.cfi_def_cfa_offset 160
	sw	s0,152(sp)
	sw	s1,148(sp)
	sw	ra,156(sp)
	sw	s2,144(sp)
	sw	s3,140(sp)
	sw	s4,136(sp)
	sw	s5,132(sp)
	sw	s6,128(sp)
	sw	s7,124(sp)
	sw	s8,120(sp)
	sw	s9,116(sp)
	sw	s10,112(sp)
	sw	s11,108(sp)
	.cfi_offset 8, -8
	.cfi_offset 9, -12
	.cfi_offset 1, -4
	.cfi_offset 18, -16
	.cfi_offset 19, -20
	.cfi_offset 20, -24
	.cfi_offset 21, -28
	.cfi_offset 22, -32
	.cfi_offset 23, -36
	.cfi_offset 24, -40
	.cfi_offset 25, -44
	.cfi_offset 26, -48
	.cfi_offset 27, -52
	.loc 1 3788 12
	lw	a1,128(a0)
	.loc 1 3785 1
	mv	s0,a0
	lui	s1,%hi(.LC1)
	.loc 1 3788 7
	beq	a1,zero,.L791
	.loc 1 3788 50 discriminator 1
	lw	a2,112(a0)
	.loc 1 3788 28 discriminator 1
	bgeu	a1,a2,.L791
	.loc 1 3793 9 is_stmt 1
	.loc 1 3793 24 is_stmt 0
	sub	a2,a2,a1
	sw	a2,112(a0)
	.loc 1 3795 9 is_stmt 1
	.loc 1 3795 21 is_stmt 0
	lw	a0,100(a0)
.LVL999:
	.loc 1 3801 15
	li	s6,0
	.loc 1 3795 9
	add	a1,a0,a1
	call	memmove
.LVL1000:
	.loc 1 3798 9 is_stmt 1
	lw	a6,112(s0)
	lw	a5,100(s0)
	lui	a4,%hi(.LC138)
	li	a3,4096
	addi	a4,a4,%lo(.LC138)
	addi	a3,a3,-297
	addi	a2,s1,%lo(.LC1)
	li	a1,4
	mv	a0,s0
	call	mbedtls_debug_print_buf
.LVL1001:
	.loc 1 3801 9
.L790:
	.loc 1 3967 1 is_stmt 0
	lw	ra,156(sp)
	.cfi_remember_state
	.cfi_restore 1
	lw	s0,152(sp)
	.cfi_restore 8
.LVL1002:
	mv	a0,s6
	lw	s1,148(sp)
	.cfi_restore 9
	lw	s2,144(sp)
	.cfi_restore 18
	lw	s3,140(sp)
	.cfi_restore 19
	lw	s4,136(sp)
	.cfi_restore 20
	lw	s5,132(sp)
	.cfi_restore 21
	lw	s6,128(sp)
	.cfi_restore 22
	lw	s7,124(sp)
	.cfi_restore 23
	lw	s8,120(sp)
	.cfi_restore 24
	lw	s9,116(sp)
	.cfi_restore 25
	lw	s10,112(sp)
	.cfi_restore 26
	lw	s11,108(sp)
	.cfi_restore 27
	addi	sp,sp,160
	.cfi_def_cfa_offset 0
	jr	ra
.LVL1003:
.L791:
	.cfi_restore_state
	.loc 1 3804 5 is_stmt 1
.LBB272:
.LBB273:
	.loc 1 3822 39 is_stmt 0
	li	s3,-24576
.LBB274:
.LBB275:
	.loc 1 3549 26
	li	s4,16384
.LBE275:
.LBE274:
.LBE273:
.LBE272:
	.loc 1 3804 19
	sw	zero,128(s0)
.LVL1004:
.LBB322:
.LBB321:
	.loc 1 3822 39
	addi	s8,s3,-1920
	.loc 1 3840 17
	lui	s9,%hi(.LC150)
	.loc 1 3831 17
	lui	s10,%hi(.LC149)
.LBB280:
.LBB277:
	.loc 1 3549 26
	addi	s11,s4,317
.L793:
.LBE277:
.LBE280:
	.loc 1 3813 5 is_stmt 1
	.loc 1 3813 17 is_stmt 0
	lw	a0,0(s0)
	call	mbedtls_ssl_hdr_len.isra.1
.LVL1005:
	mv	a1,a0
	mv	a0,s0
	call	mbedtls_ssl_fetch_input
.LVL1006:
	mv	s6,a0
.LVL1007:
	.loc 1 3813 7
	beq	a0,zero,.L794
	.loc 1 3815 9 is_stmt 1
	lui	a4,%hi(.LC139)
	li	a3,4096
	mv	a5,a0
	addi	a4,a4,%lo(.LC139)
	addi	a3,a3,-281
.L912:
	.loc 1 3953 17 is_stmt 0
	addi	a2,s1,%lo(.LC1)
	li	a1,1
	mv	a0,s0
.LVL1008:
	call	mbedtls_debug_print_ret
.LVL1009:
	.loc 1 3954 17 is_stmt 1
	j	.L790
.LVL1010:
.L794:
	.loc 1 3819 5
.LBB281:
.LBB278:
	.loc 1 3502 5
	.loc 1 3503 5
	.loc 1 3505 5
	lw	a0,0(s0)
.LVL1011:
	li	s2,4096
	.loc 1 3509 5 is_stmt 0
	addi	s5,sp,44
	.loc 1 3505 5
	call	mbedtls_ssl_hdr_len.isra.1
.LVL1012:
	lw	a5,88(s0)
	lui	a4,%hi(.LC140)
	mv	a6,a0
	addi	a4,a4,%lo(.LC140)
	addi	a3,s2,-591
	addi	a2,s1,%lo(.LC1)
	li	a1,4
	mv	a0,s0
	call	mbedtls_debug_print_buf
.LVL1013:
	.loc 1 3507 5 is_stmt 1
	.loc 1 3507 26 is_stmt 0
	lw	a3,88(s0)
	.loc 1 3508 46
	lw	a4,92(s0)
	.loc 1 3509 5
	addi	a1,sp,48
	.loc 1 3507 34
	lbu	a5,0(a3)
	.loc 1 3509 5
	mv	a0,s5
	addi	a3,a3,1
	.loc 1 3507 34
	sw	a5,108(s0)
	.loc 1 3508 5 is_stmt 1
	.loc 1 3508 46 is_stmt 0
	lbu	a5,1(a4)
	lbu	a2,0(a4)
	slli	a5,a5,8
	or	a5,a5,a2
	slli	a4,a5,8
	srli	a5,a5,8
	or	a5,a4,a5
	slli	a5,a5,16
	srli	a5,a5,16
	sw	a5,112(s0)
	.loc 1 3509 5 is_stmt 1
	.loc 1 3509 64 is_stmt 0
	lw	a5,0(s0)
	lw	a2,104(a5)
	srli	a2,a2,1
	.loc 1 3509 5
	andi	a2,a2,1
	call	mbedtls_ssl_read_version
.LVL1014:
	.loc 1 3511 5 is_stmt 1
	lw	a5,112(s0)
	lw	a7,48(sp)
	lw	a6,44(sp)
	sw	a5,0(sp)
	lw	a5,108(s0)
	lui	a4,%hi(.LC141)
	addi	a4,a4,%lo(.LC141)
	addi	a3,s2,-582
	addi	a2,s1,%lo(.LC1)
	li	a1,3
	mv	a0,s0
	call	mbedtls_debug_print_msg
.LVL1015:
	.loc 1 3517 5
	.loc 1 3517 12 is_stmt 0
	lw	a4,108(s0)
	.loc 1 3517 7
	li	a5,3
	.loc 1 3519 31
	addi	a3,a4,-20
	.loc 1 3517 7
	bleu	a3,a5,.L795
	.loc 1 3522 9 is_stmt 1
	lui	a4,%hi(.LC142)
	addi	a4,a4,%lo(.LC142)
	addi	a3,s2,-574
	addi	a2,s1,%lo(.LC1)
	li	a1,1
	mv	a0,s0
	call	mbedtls_debug_print_msg
.LVL1016:
	.loc 1 3524 9
	.loc 1 3524 21 is_stmt 0
	li	a2,10
	li	a1,2
	mv	a0,s0
	call	mbedtls_ssl_send_alert_message
.LVL1017:
	mv	s6,a0
.LVL1018:
	.loc 1 3524 11
	bne	a0,zero,.L797
.LVL1019:
.L907:
	.loc 1 3591 13 is_stmt 1
	.loc 1 3591 19 is_stmt 0
	li	t1,-28672
	addi	s6,t1,-512
.LVL1020:
.L797:
.LBE278:
.LBE281:
	.loc 1 3822 9 is_stmt 1
	.loc 1 3822 16 is_stmt 0
	lw	a0,0(s0)
	.loc 1 3822 34
	lhu	a5,104(a0)
	.loc 1 3822 11
	andi	a5,a5,2
	beq	a5,zero,.L790
	.loc 1 3822 39
	beq	s6,s8,.L790
	.loc 1 3825 13 is_stmt 1
	.loc 1 3825 15 is_stmt 0
	addi	a5,s3,-1792
	bne	s6,a5,.L809
	.loc 1 3828 17 is_stmt 1
	.loc 1 3829 43 is_stmt 0
	call	mbedtls_ssl_hdr_len.isra.1
.LVL1021:
	.loc 1 3829 41
	lw	a5,112(s0)
	.loc 1 3831 17
	li	a3,4096
	addi	a4,s10,%lo(.LC149)
	.loc 1 3829 41
	add	a0,a5,a0
	.loc 1 3828 41
	sw	a0,124(s0)
	.loc 1 3831 17 is_stmt 1
	addi	a3,a3,-264
.L906:
	.loc 1 3904 17 is_stmt 0
	addi	a2,s1,%lo(.LC1)
	li	a1,1
	mv	a0,s0
	call	mbedtls_debug_print_msg
.LVL1022:
	.loc 1 3905 17 is_stmt 1
	j	.L793
.LVL1023:
.L795:
.LBB282:
.LBB279:
	.loc 1 3535 5
	.loc 1 3535 7 is_stmt 0
	lw	a3,8(s0)
	lw	a5,44(sp)
	beq	a3,a5,.L798
	.loc 1 3537 9 is_stmt 1
	lui	a4,%hi(.LC143)
	addi	a4,a4,%lo(.LC143)
	addi	a3,s2,-559
.LVL1024:
.L909:
	.loc 1 3590 13 is_stmt 0
	addi	a2,s1,%lo(.LC1)
	li	a1,1
	mv	a0,s0
	call	mbedtls_debug_print_msg
.LVL1025:
	j	.L907
.LVL1026:
.L798:
	.loc 1 3541 5 is_stmt 1
	.loc 1 3541 24 is_stmt 0
	lw	a0,0(s0)
	.loc 1 3541 7
	lw	a5,48(sp)
	.loc 1 3541 30
	lbu	a3,101(a0)
	.loc 1 3541 7
	bge	a3,a5,.L799
	.loc 1 3543 9 is_stmt 1
	lui	a4,%hi(.LC144)
	addi	a4,a4,%lo(.LC144)
	addi	a3,s2,-553
	j	.L909
.L799:
	.loc 1 3548 5
	.loc 1 3549 50 is_stmt 0
	lw	a5,100(s0)
	lw	a3,80(s0)
	.loc 1 3548 12
	lw	s6,112(s0)
.LVL1027:
	.loc 1 3549 50
	sub	a5,a5,a3
	.loc 1 3549 26
	sub	a5,s11,a5
	.loc 1 3548 7
	bleu	s6,a5,.L800
	.loc 1 3551 9 is_stmt 1
	lui	a4,%hi(.LC145)
	addi	a4,a4,%lo(.LC145)
	addi	a3,s2,-545
	j	.L909
.L800:
	.loc 1 3556 5
	.loc 1 3556 12 is_stmt 0
	lw	a5,52(s0)
	.loc 1 3556 7
	bne	a5,zero,.L801
	.loc 1 3558 9 is_stmt 1
	.loc 1 3558 32 is_stmt 0
	addi	a5,s6,-1
	.loc 1 3558 11
	bltu	a5,s4,.L802
	.loc 1 3561 13 is_stmt 1
	lui	a4,%hi(.LC145)
	addi	a4,a4,%lo(.LC145)
	addi	a3,s2,-535
	j	.L909
.L801:
	.loc 1 3567 9
	.loc 1 3567 47 is_stmt 0
	lw	a5,8(a5)
	.loc 1 3567 11
	bgeu	s6,a5,.L803
	.loc 1 3569 13 is_stmt 1
	lui	a4,%hi(.LC145)
	addi	a4,a4,%lo(.LC145)
	addi	a3,s2,-527
	j	.L909
.L803:
	.loc 1 3586 9
	.loc 1 3586 11 is_stmt 0
	lw	a3,12(s0)
	ble	a3,zero,.L802
	.loc 1 3588 42
	addi	a3,s4,256
	add	a5,a5,a3
	.loc 1 3586 33
	bleu	s6,a5,.L802
	.loc 1 3590 13 is_stmt 1
	lui	a4,%hi(.LC145)
	addi	a4,a4,%lo(.LC145)
	addi	a3,s2,-506
	j	.L909
.L802:
	.loc 1 3603 5
	.loc 1 3603 30 is_stmt 0
	lhu	a5,104(a0)
	.loc 1 3603 7
	andi	a5,a5,2
	beq	a5,zero,.L804
.LBB276:
	.loc 1 3605 9 is_stmt 1
	.loc 1 3605 22 is_stmt 0
	lw	a3,84(s0)
	lbu	a5,1(a3)
	lbu	a6,0(a3)
	slli	a5,a5,8
	or	a5,a5,a6
	slli	a6,a5,8
	srli	a5,a5,8
	or	a5,a6,a5
	slli	a6,a5,16
	.loc 1 3608 11
	li	a5,20
	.loc 1 3605 22
	srli	a6,a6,16
.LVL1028:
	.loc 1 3608 9 is_stmt 1
	.loc 1 3608 11 is_stmt 0
	bne	a4,a5,.L805
	.loc 1 3608 35
	lw	a5,4(s0)
	addi	a5,a5,-10
	andi	a5,a5,-3
	beq	a5,zero,.L806
	.loc 1 3612 13 is_stmt 1
	lui	a4,%hi(.LC146)
	li	a3,4096
	addi	a4,a4,%lo(.LC146)
	addi	a3,a3,-484
.L913:
	.loc 1 3626 13 is_stmt 0
	addi	a2,s1,%lo(.LC1)
	li	a1,1
	mv	a0,s0
	call	mbedtls_debug_print_msg
.LVL1029:
	.loc 1 3627 13 is_stmt 1
.L908:
	.loc 1 3657 17
	.loc 1 3657 23 is_stmt 0
	addi	s6,s3,-1792
	j	.L797
.LVL1030:
.L805:
	.loc 1 3618 9 is_stmt 1
	.loc 1 3618 11 is_stmt 0
	li	a5,23
	bne	a4,a5,.L806
	.loc 1 3618 35
	lw	a4,4(s0)
	li	a5,16
	beq	a4,a5,.L806
	.loc 1 3626 13 is_stmt 1
	lui	a4,%hi(.LC147)
	li	a3,4096
	addi	a4,a4,%lo(.LC147)
	addi	a3,a3,-470
	j	.L913
.L806:
	.loc 1 3631 9
	.loc 1 3631 29 is_stmt 0
	lhu	a5,120(s0)
	.loc 1 3631 11
	beq	a6,a5,.L804
	.loc 1 3633 13 is_stmt 1
	lui	a4,%hi(.LC148)
	li	a3,4096
	addi	a4,a4,%lo(.LC148)
	addi	a3,a3,-461
	addi	a2,s1,%lo(.LC1)
	li	a1,1
	mv	a0,s0
	call	mbedtls_debug_print_msg
.LVL1031:
	j	.L908
.L804:
.LVL1032:
.LBE276:
.LBE279:
.LBE282:
	.loc 1 3854 5
	.loc 1 3855 34 is_stmt 0
	call	mbedtls_ssl_hdr_len.isra.1
.LVL1033:
	.loc 1 3854 17
	add	a1,a0,s6
	mv	a0,s0
	call	mbedtls_ssl_fetch_input
.LVL1034:
	mv	s6,a0
.LVL1035:
	.loc 1 3854 7
	beq	a0,zero,.L901
	.loc 1 3857 9 is_stmt 1
	lui	a4,%hi(.LC139)
	li	a3,4096
	mv	a5,a0
	addi	a4,a4,%lo(.LC139)
	addi	a3,a3,-239
	j	.L912
.LVL1036:
.L809:
	.loc 1 3837 17
	.loc 1 3840 17 is_stmt 0
	li	a3,4096
	.loc 1 3837 41
	sw	zero,124(s0)
	.loc 1 3838 17 is_stmt 1
	.loc 1 3838 30 is_stmt 0
	sw	zero,116(s0)
	.loc 1 3840 17 is_stmt 1
	addi	a4,s9,%lo(.LC150)
	addi	a3,a3,-255
	j	.L906
.LVL1037:
.L901:
	.loc 1 3863 5
	.loc 1 3863 12 is_stmt 0
	lw	s7,0(s0)
	lw	s2,112(s0)
	.loc 1 3863 30
	lhu	a4,104(s7)
	.loc 1 3863 7
	andi	a4,a4,2
	beq	a4,zero,.L811
	.loc 1 3864 9 is_stmt 1
	.loc 1 3864 52 is_stmt 0
	mv	a0,s7
.LVL1038:
	call	mbedtls_ssl_hdr_len.isra.1
.LVL1039:
	.loc 1 3864 50
	add	a0,a0,s2
	.loc 1 3864 33
	sw	a0,124(s0)
.L812:
	.loc 1 3869 5 is_stmt 1
.LVL1040:
.LBB283:
.LBB284:
	.loc 1 3680 5
	.loc 1 3682 5
	.loc 1 3682 49 is_stmt 0
	mv	a0,s7
	call	mbedtls_ssl_hdr_len.isra.1
.LVL1041:
	.loc 1 3682 5
	lw	a5,88(s0)
	lui	a4,%hi(.LC151)
	li	a3,4096
	add	a6,a0,s2
	addi	a4,a4,%lo(.LC151)
	addi	a3,a3,-413
	addi	a2,s1,%lo(.LC1)
	li	a1,4
	mv	a0,s0
	call	mbedtls_debug_print_buf
.LVL1042:
	.loc 1 3701 5 is_stmt 1
	.loc 1 3701 15 is_stmt 0
	lw	a5,52(s0)
	beq	a5,zero,.L813
	.loc 1 3703 9 is_stmt 1
.LVL1043:
.LBB285:
.LBB286:
	.loc 1 1595 5
	.loc 1 1596 5
	.loc 1 1597 5
	.loc 1 1599 5
	.loc 1 1602 5
	lui	a4,%hi(.LC152)
	addi	a4,a4,%lo(.LC152)
	li	a3,1602
	addi	a2,s1,%lo(.LC1)
	li	a1,2
	mv	a0,s0
	call	mbedtls_debug_print_msg
.LVL1044:
	.loc 1 1604 5
	.loc 1 1604 7 is_stmt 0
	lw	a5,32(s0)
	beq	a5,zero,.L814
	.loc 1 1604 38
	lw	a5,52(s0)
	.loc 1 1604 32
	bne	a5,zero,.L815
.L814:
	.loc 1 1606 9 is_stmt 1
	lui	a4,%hi(.LC17)
	addi	a4,a4,%lo(.LC17)
	li	a3,1606
.LVL1045:
.L910:
.LBB287:
	.loc 1 2006 13 is_stmt 0
	addi	a2,s1,%lo(.LC1)
	li	a1,1
	mv	a0,s0
	call	mbedtls_debug_print_msg
.LVL1046:
	.loc 1 2007 13 is_stmt 1
	.loc 1 2007 19 is_stmt 0
	li	t1,-28672
	addi	s6,t1,1024
.LVL1047:
	j	.L816
.LVL1048:
.L811:
.LBE287:
.LBE286:
.LBE285:
.LBE284:
.LBE283:
	.loc 1 3867 9 is_stmt 1
	.loc 1 3867 22 is_stmt 0
	sw	zero,116(s0)
	j	.L812
.LVL1049:
.L815:
.LBB319:
.LBB317:
.LBB314:
.LBB311:
	.loc 1 1610 5 is_stmt 1
.LBB293:
.LBB294:
	.loc 3 359 5
	.loc 3 359 34 is_stmt 0
	lw	a3,144(a5)
	.loc 3 360 16
	li	a4,0
	.loc 3 359 20
	beq	a3,zero,.L817
	.loc 3 362 5 is_stmt 1
	.loc 3 362 28 is_stmt 0
	lbu	a4,1(a3)
.L817:
.LVL1050:
.LBE294:
.LBE293:
	.loc 1 1612 5 is_stmt 1
	.loc 1 1612 12 is_stmt 0
	lw	s2,112(s0)
	.loc 1 1612 43
	lw	a6,8(a5)
	.loc 1 1612 7
	bgeu	s2,a6,.L818
	.loc 1 1614 9 is_stmt 1
	lui	a4,%hi(.LC153)
.LVL1051:
	mv	a5,s2
	addi	a4,a4,%lo(.LC153)
	li	a3,1615
.L914:
.LBB295:
	.loc 1 1802 13 is_stmt 0
	addi	a2,s1,%lo(.LC1)
	li	a1,1
	mv	a0,s0
	call	mbedtls_debug_print_msg
.LVL1052:
	.loc 1 1804 13 is_stmt 1
	j	.L911
.LVL1053:
.L818:
.LBE295:
	.loc 1 1646 5
	.loc 1 1646 7 is_stmt 0
	addi	a3,a4,-6
	andi	a3,a3,253
	bne	a3,zero,.L819
.LBB297:
	.loc 1 1649 9 is_stmt 1
	.loc 1 1650 9
	.loc 1 1651 9
	.loc 1 1652 9
	.loc 1 1653 9
	.loc 1 1654 9
	.loc 1 1654 67 is_stmt 0
	lw	a4,0(a5)
.LVL1054:
	.loc 1 1654 23
	li	a7,8
	lbu	a4,28(a4)
	andi	a4,a4,2
	bne	a4,zero,.L820
	li	a7,16
.L820:
.LVL1055:
	.loc 1 1656 9 is_stmt 1
	.loc 1 1656 51 is_stmt 0
	lw	a4,12(a5)
	.loc 1 1657 51
	lw	a5,16(a5)
	.loc 1 1656 16
	sub	a6,a4,a5
.LVL1056:
	.loc 1 1659 9 is_stmt 1
	.loc 1 1659 46 is_stmt 0
	add	a3,a6,a7
	.loc 1 1659 11
	bgeu	s2,a3,.L821
	.loc 1 1661 13 is_stmt 1
	lui	a4,%hi(.LC154)
	mv	a5,s2
	addi	a4,a4,%lo(.LC154)
	li	a3,1663
.LVL1057:
.L915:
.LBE297:
.LBB298:
	.loc 1 1743 13 is_stmt 0
	addi	a2,s1,%lo(.LC1)
	li	a1,1
	mv	a0,s0
	call	mbedtls_debug_print_msg
.LVL1058:
	.loc 1 1747 13 is_stmt 1
	j	.L911
.LVL1059:
.L821:
.LBE298:
.LBB299:
	.loc 1 1666 9
	.loc 1 1666 37 is_stmt 0
	add	s2,s2,a5
	sub	s2,s2,a4
	.loc 1 1672 9
	lw	a1,84(s0)
	.loc 1 1666 20
	sub	s2,s2,a7
	.loc 1 1672 9
	li	a2,8
	.loc 1 1670 24
	sw	s2,112(s0)
	.loc 1 1672 9
	addi	a0,sp,48
	.loc 1 1666 20
	sw	a7,24(sp)
.LVL1060:
	.loc 1 1668 9 is_stmt 1
	.loc 1 1668 17 is_stmt 0
	lw	s7,100(s0)
.LVL1061:
	.loc 1 1669 9 is_stmt 1
	.loc 1 1670 9
	.loc 1 1672 9
	call	memcpy
.LVL1062:
	.loc 1 1673 9
	.loc 1 1673 21 is_stmt 0
	lw	a5,108(s0)
	.loc 1 1674 9
	lw	a1,12(s0)
	lw	a0,8(s0)
	.loc 1 1673 21
	sb	a5,56(sp)
	.loc 1 1674 9 is_stmt 1
	.loc 1 1675 37 is_stmt 0
	lw	a5,0(s0)
	.loc 1 1674 9
	addi	a3,sp,57
	.loc 1 1675 37
	lw	a2,104(a5)
	srli	a2,a2,1
	.loc 1 1674 9
	andi	a2,a2,1
	call	mbedtls_ssl_write_version
.LVL1063:
	.loc 1 1676 9 is_stmt 1
	.loc 1 1676 29 is_stmt 0
	lw	a5,112(s0)
	.loc 1 1679 9
	li	a6,13
	li	a3,1680
	.loc 1 1676 41
	srli	a4,a5,8
	.loc 1 1676 22
	sb	a4,59(sp)
	.loc 1 1677 9 is_stmt 1
	.loc 1 1679 9 is_stmt 0
	lui	a4,%hi(.LC63)
	addi	a4,a4,%lo(.LC63)
	.loc 1 1677 22
	sb	a5,60(sp)
	.loc 1 1679 9 is_stmt 1
	addi	a2,s1,%lo(.LC1)
	addi	a5,sp,48
	li	a1,4
	mv	a0,s0
	call	mbedtls_debug_print_buf
.LVL1064:
	.loc 1 1682 9
	.loc 1 1682 20 is_stmt 0
	lw	a5,52(s0)
	.loc 1 1682 9
	lw	a1,96(s0)
	.loc 1 1682 62
	lw	a0,16(a5)
	.loc 1 1682 9
	lw	a2,12(a5)
	.loc 1 1682 17
	addi	a5,a5,40
	.loc 1 1682 9
	sub	a2,a2,a0
	add	a0,a5,a0
	call	memcpy
.LVL1065:
	.loc 1 1686 9 is_stmt 1
	.loc 1 1686 25 is_stmt 0
	lw	a5,52(s0)
	.loc 1 1686 9
	lui	a4,%hi(.LC64)
	addi	a4,a4,%lo(.LC64)
	lw	a6,12(a5)
	li	a3,1687
	addi	a5,a5,40
	addi	a2,s1,%lo(.LC1)
	li	a1,4
	mv	a0,s0
	call	mbedtls_debug_print_buf
.LVL1066:
	.loc 1 1688 9 is_stmt 1
	lw	a7,24(sp)
	.loc 1 1688 77 is_stmt 0
	add	t3,s7,s2
	.loc 1 1688 9
	lui	a4,%hi(.LC155)
	mv	a6,a7
	mv	a5,t3
	addi	a4,a4,%lo(.LC155)
	li	a3,1688
	addi	a2,s1,%lo(.LC1)
	li	a1,4
	mv	a0,s0
	sw	a7,28(sp)
	sw	t3,24(sp)
	call	mbedtls_debug_print_buf
.LVL1067:
	.loc 1 1693 9 is_stmt 1
	.loc 1 1693 54 is_stmt 0
	lw	a0,52(s0)
	.loc 1 1693 21
	lw	a7,28(sp)
	lw	t3,24(sp)
	lw	a2,12(a0)
	addi	a1,a0,40
	sw	a7,8(sp)
	sw	s5,0(sp)
	sw	t3,4(sp)
	mv	a7,s7
	mv	a6,s2
	mv	a5,s7
	li	a4,13
	addi	a3,sp,48
	addi	a0,a0,144
	call	mbedtls_cipher_auth_decrypt
.LVL1068:
	mv	s5,a0
.LVL1069:
	.loc 1 1693 11
	beq	a0,zero,.L822
	.loc 1 1701 13 is_stmt 1
	lui	a4,%hi(.LC156)
	mv	a5,a0
	addi	a4,a4,%lo(.LC156)
	li	a3,1701
	addi	a2,s1,%lo(.LC1)
	li	a1,1
	mv	a0,s0
.LVL1070:
	call	mbedtls_debug_print_ret
.LVL1071:
	.loc 1 1703 13
	.loc 1 1703 15 is_stmt 0
	addi	a5,s3,-768
	.loc 1 1664 19
	mv	s6,s5
.LVL1072:
	.loc 1 1703 15
	bne	s5,a5,.L816
.LVL1073:
.L911:
.LBE299:
	.loc 1 2051 13 is_stmt 1
	.loc 1 2051 19 is_stmt 0
	li	t1,-28672
	addi	s6,t1,-384
	j	.L816
.LVL1074:
.L822:
.LBB300:
	.loc 1 1708 9 is_stmt 1
	.loc 1 1710 9
	.loc 1 1710 11 is_stmt 0
	lw	a5,44(sp)
	beq	s2,a5,.L825
	.loc 1 1712 13 is_stmt 1
	lui	a4,%hi(.LC17)
	addi	a4,a4,%lo(.LC17)
	li	a3,1712
	j	.L910
.L825:
.LBE300:
	.loc 1 1599 24 is_stmt 0
	li	s2,1
.LVL1075:
	.loc 1 1599 12
	li	s5,0
.LBB301:
	.loc 1 1708 18
	li	s7,1
.LVL1076:
.L826:
.LBE301:
	.loc 1 1937 5 is_stmt 1
	lw	a6,112(s0)
	lw	a5,100(s0)
	lui	a4,%hi(.LC159)
	addi	a4,a4,%lo(.LC159)
	li	a3,1938
	addi	a2,s1,%lo(.LC1)
	li	a1,4
	mv	a0,s0
	call	mbedtls_debug_print_buf
.LVL1077:
	.loc 1 1945 5
	.loc 1 1945 7 is_stmt 0
	bne	s7,zero,.L840
.LVL1078:
.LBB302:
	.loc 1 1947 9 is_stmt 1
	.loc 1 1949 9
	.loc 1 1949 44 is_stmt 0
	lw	a4,52(s0)
	.loc 1 1949 24
	lw	a5,112(s0)
	.loc 1 1954 9
	addi	a0,sp,48
	.loc 1 1949 24
	lw	a4,20(a4)
	sub	a5,a5,a4
	.loc 1 1951 12
	lw	a4,92(s0)
	.loc 1 1949 24
	sw	a5,112(s0)
	.loc 1 1951 9 is_stmt 1
	.loc 1 1951 58 is_stmt 0
	srli	a5,a5,8
	.loc 1 1951 26
	sb	a5,0(a4)
	.loc 1 1952 9 is_stmt 1
	.loc 1 1952 12 is_stmt 0
	lw	a5,92(s0)
	.loc 1 1952 26
	lw	a4,112(s0)
	sb	a4,1(a5)
	.loc 1 1954 9 is_stmt 1
	lw	a4,52(s0)
	.loc 1 1954 34 is_stmt 0
	lw	a5,112(s0)
	lw	a1,100(s0)
	.loc 1 1954 9
	lw	a2,20(a4)
	add	a1,a1,a5
	call	memcpy
.LVL1079:
	.loc 1 1968 9 is_stmt 1
	.loc 1 1968 11 is_stmt 0
	lw	a5,12(s0)
	ble	a5,zero,.L841
.LBB288:
	.loc 1 1983 13 is_stmt 1
.LVL1080:
	.loc 1 1984 13
	lw	a5,112(s0)
	.loc 1 1989 13 is_stmt 0
	lw	a0,52(s0)
	lw	a1,84(s0)
	addi	a5,a5,21
	.loc 1 1984 56
	add	s5,a5,s5
.LVL1081:
	.loc 1 1984 62
	srli	s5,s5,6
	.loc 1 1985 53
	srli	a5,a5,6
	.loc 1 1984 23
	sub	s5,s5,a5
.LVL1082:
	.loc 1 1987 13 is_stmt 1
	.loc 1 1987 34 is_stmt 0
	li	a5,255
	mul	a5,s2,a5
	.loc 1 1989 13
	li	a2,8
	addi	a0,a0,68
	.loc 1 1987 23
	and	s5,a5,s5
.LVL1083:
	.loc 1 1989 13 is_stmt 1
	call	mbedtls_md_hmac_update
.LVL1084:
	.loc 1 1990 13
	lw	a0,52(s0)
	lw	a1,88(s0)
	li	a2,3
	addi	a0,a0,68
	call	mbedtls_md_hmac_update
.LVL1085:
	.loc 1 1991 13
	lw	a0,52(s0)
	lw	a1,92(s0)
	li	a2,2
	addi	a0,a0,68
	call	mbedtls_md_hmac_update
.LVL1086:
	.loc 1 1992 13
	lw	a0,52(s0)
	lw	a2,112(s0)
	lw	a1,100(s0)
	addi	a0,a0,68
	.loc 1 1997 39 is_stmt 0
	addi	s5,s5,1
.LVL1087:
	.loc 1 1992 13
	call	mbedtls_md_hmac_update
.LVL1088:
	.loc 1 1994 13 is_stmt 1
	lw	a5,112(s0)
	lw	a1,100(s0)
	lw	a0,52(s0)
	add	a1,a1,a5
	addi	a0,a0,68
	call	mbedtls_md_hmac_finish
.LVL1089:
	.loc 1 1997 13
	.loc 1 1997 20 is_stmt 0
	li	a5,0
.LVL1090:
.L842:
	.loc 1 1998 17
	lw	a0,52(s0)
	lw	a1,100(s0)
	sw	a5,24(sp)
.LVL1091:
	.loc 1 1998 17 is_stmt 1
	addi	a0,a0,68
	call	mbedtls_md_process
.LVL1092:
	.loc 1 1997 45 is_stmt 0
	lw	a5,24(sp)
	addi	a5,a5,1
.LVL1093:
	.loc 1 1997 13
	bltu	a5,s5,.L842
	.loc 1 2000 13 is_stmt 1
	lw	a0,52(s0)
	addi	a0,a0,68
	call	mbedtls_md_hmac_reset
.LVL1094:
.LBE288:
	.loc 1 2010 9
	lw	a5,52(s0)
	lui	a4,%hi(.LC160)
	addi	a4,a4,%lo(.LC160)
	lw	a6,20(a5)
	li	a3,2010
	addi	a5,sp,48
	addi	a2,s1,%lo(.LC1)
	li	a1,4
	mv	a0,s0
	call	mbedtls_debug_print_buf
.LVL1095:
	.loc 1 2011 9
	lw	a3,52(s0)
	.loc 1 2011 39 is_stmt 0
	lw	a4,100(s0)
	lw	a5,112(s0)
	.loc 1 2011 9
	lw	a6,20(a3)
	addi	a2,s1,%lo(.LC1)
	add	a5,a4,a5
	lui	a4,%hi(.LC62)
	addi	a4,a4,%lo(.LC62)
	li	a1,4
	mv	a0,s0
	li	a3,2012
	call	mbedtls_debug_print_buf
.LVL1096:
	.loc 1 2014 9 is_stmt 1
	.loc 1 2014 13 is_stmt 0
	lw	a5,52(s0)
	.loc 1 2014 47
	lw	a1,100(s0)
	.loc 1 2014 61
	lw	a0,112(s0)
	.loc 1 2014 13
	lw	a2,20(a5)
.LVL1097:
.LBB289:
.LBB290:
	.loc 2 485 5 is_stmt 1
	.loc 2 486 5
	.loc 2 487 5
	.loc 2 488 5
	.loc 2 490 5
	.loc 2 488 19 is_stmt 0
	li	a4,0
	.loc 2 490 12
	li	a5,0
.LVL1098:
.L843:
	.loc 2 490 5
	bne	a2,a5,.L844
	.loc 2 493 5 is_stmt 1
.LVL1099:
.LBE290:
.LBE289:
	.loc 1 2014 11 is_stmt 0
	bne	a4,zero,.L911
	.loc 1 2022 9 is_stmt 1
.LVL1100:
	.loc 1 2027 9
	.loc 1 2027 11 is_stmt 0
	beq	s2,zero,.L911
.LVL1101:
.L840:
.LBE302:
	.loc 1 2039 5 is_stmt 1
	.loc 1 2039 7 is_stmt 0
	lw	a5,112(s0)
	bne	a5,zero,.L847
	.loc 1 2041 9 is_stmt 1
	.loc 1 2041 21 is_stmt 0
	lw	a5,132(s0)
	.loc 1 2047 11
	li	a4,3
	.loc 1 2041 21
	addi	a5,a5,1
	sw	a5,132(s0)
	.loc 1 2047 9 is_stmt 1
	.loc 1 2047 11 is_stmt 0
	ble	a5,a4,.L848
	.loc 1 2049 13 is_stmt 1
	lui	a4,%hi(.LC161)
	li	a3,4096
	addi	a4,a4,%lo(.LC161)
	addi	a3,a3,-2046
	addi	a2,s1,%lo(.LC1)
	li	a1,1
	mv	a0,s0
	call	mbedtls_debug_print_msg
.LVL1102:
	j	.L911
.LVL1103:
.L819:
	.loc 1 1720 5
	.loc 1 1720 7 is_stmt 0
	li	a3,2
	bne	a4,a3,.L827
.LBB303:
	.loc 1 1725 9 is_stmt 1
	.loc 1 1726 9
	.loc 1 1727 9
	.loc 1 1728 9
	.loc 1 1729 9
.LVL1104:
	.loc 1 1730 9
	.loc 1 1730 16 is_stmt 0
	sw	zero,48(sp)
	.loc 1 1736 9 is_stmt 1
	lw	a6,12(a5)
	.loc 1 1736 16 is_stmt 0
	lw	a3,12(s0)
	.loc 1 1736 11
	li	a2,1
	.loc 1 1737 20
	mv	a4,a6
.LVL1105:
	.loc 1 1736 11
	bgt	a3,a2,.L828
	.loc 1 1729 16
	li	a4,0
.L828:
.LVL1106:
	.loc 1 1740 9 is_stmt 1
	lw	a7,20(a5)
	.loc 1 1740 37 is_stmt 0
	add	a5,a4,a6
	.loc 1 1740 11
	bltu	s2,a5,.L829
	.loc 1 1741 65
	addi	a5,a7,1
	add	a5,a5,a4
	.loc 1 1740 64
	bgeu	s2,a5,.L830
.L829:
	.loc 1 1743 13 is_stmt 1
	lui	a4,%hi(.LC157)
.LVL1107:
	mv	a5,s2
	addi	a4,a4,%lo(.LC157)
	li	a3,1746
	j	.L915
.LVL1108:
.L830:
	.loc 1 1750 9
	.loc 1 1751 9
	.loc 1 1752 9
	.loc 1 1800 9
	.loc 1 1800 28 is_stmt 0
	remu	s5,s2,a6
	.loc 1 1800 11
	beq	s5,zero,.L831
	.loc 1 1802 13 is_stmt 1
	lui	a4,%hi(.LC158)
.LVL1109:
	mv	a5,s2
	addi	a4,a4,%lo(.LC158)
	li	a3,1803
	j	.L914
.LVL1110:
.L831:
	.loc 1 1811 11 is_stmt 0
	li	a4,1
.LVL1111:
	.loc 1 1751 17
	lw	a5,100(s0)
	.loc 1 1811 9 is_stmt 1
	.loc 1 1811 11 is_stmt 0
	ble	a3,a4,.L832
	.loc 1 1813 13 is_stmt 1
	.loc 1 1813 24 is_stmt 0
	sub	s2,s2,a6
.LVL1112:
	.loc 1 1814 13 is_stmt 1
	.loc 1 1814 28 is_stmt 0
	sw	s2,112(s0)
	.loc 1 1816 13 is_stmt 1
.LVL1113:
	.loc 1 1816 20 is_stmt 0
	li	a4,0
.LVL1114:
.L833:
	.loc 1 1816 32
	lw	a3,52(s0)
	.loc 1 1816 13
	lw	a2,12(a3)
	bltu	a4,a2,.L834
.LVL1115:
.L832:
	.loc 1 1821 9 is_stmt 1
	.loc 1 1821 47 is_stmt 0
	lw	a0,52(s0)
	.loc 1 1821 21
	addi	a6,sp,48
	mv	a4,s2
	lw	a2,12(a0)
	addi	a1,a0,40
	mv	a3,a5
	addi	a0,a0,144
	call	mbedtls_cipher_crypt
.LVL1116:
	mv	s7,a0
.LVL1117:
	.loc 1 1821 11
	beq	a0,zero,.L835
	.loc 1 1827 13 is_stmt 1
	lui	a4,%hi(.LC69)
	mv	a5,a0
	addi	a4,a4,%lo(.LC69)
	li	a3,1827
	addi	a2,s1,%lo(.LC1)
	li	a1,1
	mv	a0,s0
.LVL1118:
	call	mbedtls_debug_print_ret
.LVL1119:
	.loc 1 1828 13
	.loc 1 1747 19 is_stmt 0
	mv	s6,s7
.LVL1120:
.L816:
.LBE303:
.LBE311:
.LBE314:
	.loc 1 3705 13 is_stmt 1
	lui	a4,%hi(.LC165)
	li	a3,4096
	mv	a5,s6
	addi	a4,a4,%lo(.LC165)
	addi	a3,a3,-391
	addi	a2,s1,%lo(.LC1)
	li	a1,1
	mv	a0,s0
	call	mbedtls_debug_print_ret
.LVL1121:
	.loc 1 3706 13
.L857:
.LBE317:
.LBE319:
	.loc 1 3872 9
	.loc 1 3872 34 is_stmt 0
	lw	a5,0(s0)
	lhu	a5,104(a5)
	.loc 1 3872 11
	andi	a5,a5,2
	beq	a5,zero,.L790
	.loc 1 3875 13 is_stmt 1
	.loc 1 3875 15 is_stmt 0
	li	a5,-28672
	andi	a4,s6,-129
	addi	a5,a5,-512
	bne	a4,a5,.L790
	.loc 1 3881 17 is_stmt 1
	.loc 1 3881 19 is_stmt 0
	lw	a5,4(s0)
	addi	a5,a5,-11
	andi	a5,a5,-3
	beq	a5,zero,.L790
	.loc 1 3904 17 is_stmt 1
	lui	a4,%hi(.LC166)
	li	a3,4096
	addi	a4,a4,%lo(.LC166)
	addi	a3,a3,-192
	j	.L906
.LVL1122:
.L834:
.LBB320:
.LBB318:
.LBB315:
.LBB312:
.LBB304:
	.loc 1 1817 17
	.loc 1 1817 58 is_stmt 0
	lw	a2,96(s0)
	.loc 1 1817 46
	add	a3,a3,a4
	.loc 1 1817 58
	add	a2,a2,a4
	lbu	a2,0(a2)
	.loc 1 1816 56
	addi	a4,a4,1
.LVL1123:
	.loc 1 1817 46
	sb	a2,40(a3)
	j	.L833
.LVL1124:
.L835:
	.loc 1 1831 9 is_stmt 1
	.loc 1 1831 11 is_stmt 0
	lw	a5,48(sp)
	beq	s2,a5,.L836
	.loc 1 1833 13 is_stmt 1
	lui	a4,%hi(.LC17)
	addi	a4,a4,%lo(.LC17)
	li	a3,1833
	j	.L910
.L836:
	.loc 1 1849 9
	.loc 1 1849 37 is_stmt 0
	lw	a2,112(s0)
	.loc 1 1849 25
	lw	a1,100(s0)
	.loc 1 1851 47
	lw	a4,52(s0)
	.loc 1 1849 33
	addi	a0,a2,-1
.LVL1125:
	add	a5,a1,a0
	lbu	a5,0(a5)
	.loc 1 1851 47
	lw	a3,20(a4)
.LBE304:
	.loc 1 1599 24
	li	a6,1
.LBB305:
	.loc 1 1849 20
	addi	a5,a5,1
.LVL1126:
	.loc 1 1851 9 is_stmt 1
	.loc 1 1851 56 is_stmt 0
	add	a4,a5,a3
	.loc 1 1851 11
	bgeu	a2,a4,.L837
	.loc 1 1859 21
	li	a6,0
	.loc 1 1858 20
	li	a5,0
.LVL1127:
.L837:
	.loc 1 1879 9 is_stmt 1
	.loc 1 1879 11 is_stmt 0
	lw	a4,12(s0)
	ble	a4,zero,.L838
.LBB296:
	.loc 1 1885 13 is_stmt 1
.LVL1128:
	.loc 1 1886 13
	.loc 1 1898 51 is_stmt 0
	addi	s2,a5,1
.LVL1129:
	.loc 1 1886 20
	sub	a0,a0,a5
.LVL1130:
	.loc 1 1898 13 is_stmt 1
	.loc 1 1899 13
	.loc 1 1898 41 is_stmt 0
	sltu	s2,a2,s2
	.loc 1 1899 52
	add	a4,a3,s4
	.loc 1 1899 38
	sltu	a4,a0,a4
	.loc 1 1898 41
	xori	s2,s2,1
	.loc 1 1899 21
	and	s2,s2,a4
	and	a4,s2,a6
.LVL1131:
	.loc 1 1902 13 is_stmt 1
	.loc 1 1902 25 is_stmt 0
	mul	a6,a0,a4
.LVL1132:
	.loc 1 1904 13 is_stmt 1
	.loc 1 1885 35 is_stmt 0
	li	t3,1
	.loc 1 1904 20
	li	a0,1
	.loc 1 1908 71
	addi	t5,a5,-1
	.loc 1 1904 13
	li	t4,257
.LVL1133:
.L839:
	.loc 1 1906 17 is_stmt 1
	.loc 1 1906 35 is_stmt 0
	sltu	a3,a5,a0
	xori	a3,a3,1
	.loc 1 1906 28
	and	t3,t3,a3
.LVL1134:
	.loc 1 1907 17 is_stmt 1
	.loc 1 1908 43 is_stmt 0
	add	a3,a6,a0
	add	a3,a1,a3
	lbu	a3,0(a3)
	.loc 1 1904 36
	addi	a0,a0,1
.LVL1135:
	.loc 1 1908 61
	sub	a3,a3,t5
	seqz	a3,a3
	.loc 1 1907 41
	mul	a3,a3,t3
	.loc 1 1907 27
	add	s5,s5,a3
.LVL1136:
	.loc 1 1904 13
	bne	a0,t4,.L839
	.loc 1 1911 13 is_stmt 1
	.loc 1 1911 36 is_stmt 0
	sub	s2,a5,s5
	seqz	s2,s2
	.loc 1 1911 21
	and	s2,s2,a4
.LVL1137:
	.loc 1 1917 13 is_stmt 1
	.loc 1 1917 31 is_stmt 0
	li	s5,511
.LVL1138:
	mul	s5,s2,s5
	.loc 1 1917 20
	and	s5,s5,a5
.LVL1139:
.LBE296:
	.loc 1 1927 9 is_stmt 1
	.loc 1 1927 24 is_stmt 0
	sub	a2,a2,s5
	sw	a2,112(s0)
	j	.L826
.LVL1140:
.L838:
	.loc 1 1923 13 is_stmt 1
	lui	a4,%hi(.LC17)
	addi	a4,a4,%lo(.LC17)
	li	a3,1923
	j	.L910
.LVL1141:
.L827:
.LBE305:
	.loc 1 1933 9
	lui	a4,%hi(.LC17)
.LVL1142:
	addi	a4,a4,%lo(.LC17)
	li	a3,1933
	j	.L910
.LVL1143:
.L844:
.LBB306:
.LBB292:
.LBB291:
	.loc 2 491 9
	.loc 2 491 25 is_stmt 0
	add	a3,a0,a5
	.loc 2 491 18
	addi	a6,sp,48
.LVL1144:
	add	a6,a6,a5
.LVL1145:
	.loc 2 491 25
	add	a3,a1,a3
	.loc 2 491 14
	lbu	a3,0(a3)
	lbu	a6,0(a6)
	.loc 2 490 25
	addi	a5,a5,1
.LVL1146:
	.loc 2 491 14
	xor	a3,a3,a6
	or	a4,a4,a3
.LVL1147:
	j	.L843
.LVL1148:
.L841:
.LBE291:
.LBE292:
	.loc 1 2006 13 is_stmt 1
	lui	a4,%hi(.LC17)
	addi	a4,a4,%lo(.LC17)
	li	a3,2006
	j	.L910
.LVL1149:
.L847:
.LBE306:
	.loc 1 2055 9
	.loc 1 2055 22 is_stmt 0
	sw	zero,132(s0)
.L848:
	.loc 1 2058 5 is_stmt 1
	.loc 1 2058 30 is_stmt 0
	lw	a5,0(s0)
	.loc 1 2065 16
	li	a4,8
	.loc 1 2058 30
	lhu	a5,104(a5)
	.loc 1 2058 7
	andi	a5,a5,2
	beq	a5,zero,.L850
.L849:
	.loc 1 2077 5 is_stmt 1
	li	s2,4096
.LVL1150:
	lui	a4,%hi(.LC163)
	addi	a4,a4,%lo(.LC163)
	addi	a3,s2,-2019
	addi	a2,s1,%lo(.LC1)
	li	a1,2
	mv	a0,s0
	call	mbedtls_debug_print_msg
.LVL1151:
	.loc 1 2079 5
.LBE312:
.LBE315:
	.loc 1 3709 9
	lw	a5,100(s0)
	lw	a6,112(s0)
	lui	a4,%hi(.LC164)
	addi	a4,a4,%lo(.LC164)
	addi	a3,s2,-386
	addi	a2,s1,%lo(.LC1)
	li	a1,4
	mv	a0,s0
	call	mbedtls_debug_print_buf
.LVL1152:
	.loc 1 3712 9
	.loc 1 3712 11 is_stmt 0
	lw	a5,112(s0)
	bleu	a5,s4,.L813
	.loc 1 3714 13 is_stmt 1
	lui	a4,%hi(.LC145)
	addi	a4,a4,%lo(.LC145)
	addi	a3,s2,-382
	addi	a2,s1,%lo(.LC1)
	li	a1,1
	mv	a0,s0
	call	mbedtls_debug_print_msg
.LVL1153:
	.loc 1 3715 13
	.loc 1 3715 19 is_stmt 0
	li	t1,-28672
	addi	s6,t1,-512
	j	.L857
.LVL1154:
.L863:
.LBB316:
.LBB313:
	.loc 1 2065 45
	mv	a4,a2
.LVL1155:
.L850:
.LBB307:
.LBB308:
	.loc 1 65 5 is_stmt 1
	.loc 1 65 30 is_stmt 0
	lw	a5,0(s0)
	lhu	a5,104(a5)
	.loc 1 66 15
	andi	a5,a5,2
.LBE308:
.LBE307:
	.loc 1 2065 9
	bleu	a4,a5,.L855
	.loc 1 2066 13 is_stmt 1
	.loc 1 2066 30 is_stmt 0
	lw	a3,84(s0)
	addi	a2,a4,-1
	add	a3,a3,a2
	.loc 1 2066 17
	lbu	a5,0(a3)
	addi	a5,a5,1
	andi	a5,a5,0xff
	.loc 1 2066 15
	sb	a5,0(a3)
	beq	a5,zero,.L863
.L855:
	.loc 1 2070 9 is_stmt 1
.LVL1156:
.LBB309:
.LBB310:
	.loc 1 65 5
	.loc 1 65 30 is_stmt 0
	lw	a5,0(s0)
	lhu	a5,104(a5)
	.loc 1 70 11
	andi	a5,a5,2
.LBE310:
.LBE309:
	.loc 1 2070 11
	bne	a4,a5,.L849
	.loc 1 2072 13 is_stmt 1
	lui	a4,%hi(.LC162)
.LVL1157:
	li	a3,4096
	addi	a4,a4,%lo(.LC162)
	addi	a3,a3,-2024
	addi	a2,s1,%lo(.LC1)
	li	a1,1
	mv	a0,s0
	call	mbedtls_debug_print_msg
.LVL1158:
	.loc 1 2073 13
	.loc 1 2073 19 is_stmt 0
	li	t1,-28672
	addi	s6,t1,1152
.LVL1159:
	j	.L816
.LVL1160:
.L813:
.LBE313:
.LBE316:
.LBE318:
.LBE320:
	.loc 1 3942 5 is_stmt 1
	.loc 1 3942 30 is_stmt 0
	lw	a5,0(s0)
	lhu	a5,104(a5)
	.loc 1 3942 7
	andi	a5,a5,2
	beq	a5,zero,.L790
	.loc 1 3942 35
	lw	a5,48(s0)
	beq	a5,zero,.L790
	.loc 1 3943 31
	lw	a4,4(s0)
	li	a5,16
	bne	a4,a5,.L790
	.loc 1 3946 9 is_stmt 1
	.loc 1 3946 11 is_stmt 0
	lw	a4,108(s0)
	li	a5,22
	bne	a4,a5,.L858
	.loc 1 3947 28
	lw	a5,100(s0)
	.loc 1 3946 35
	lbu	a4,0(a5)
	li	a5,20
	bne	a4,a5,.L858
	.loc 1 3949 13 is_stmt 1
	lui	a4,%hi(.LC167)
	li	s2,4096
	addi	a4,a4,%lo(.LC167)
	addi	a3,s2,-147
	addi	a2,s1,%lo(.LC1)
	li	a1,2
	mv	a0,s0
	call	mbedtls_debug_print_msg
.LVL1161:
	.loc 1 3951 13
	.loc 1 3951 25 is_stmt 0
	mv	a0,s0
	call	mbedtls_ssl_resend
.LVL1162:
	mv	s6,a0
.LVL1163:
	.loc 1 3951 15
	beq	a0,zero,.L865
	.loc 1 3953 17 is_stmt 1
	lui	a4,%hi(.LC91)
	mv	a5,a0
	addi	a4,a4,%lo(.LC91)
	addi	a3,s2,-143
	j	.L912
.LVL1164:
.L858:
	.loc 1 3961 13
	mv	a0,s0
	call	ssl_handshake_wrapup_free_hs_transform
.LVL1165:
	j	.L790
.LVL1166:
.L865:
	.loc 1 3957 19 is_stmt 0
	li	t1,-28672
	addi	s6,t1,1792
	j	.L790
.LBE321:
.LBE322:
	.cfi_endproc
.LFE50:
	.size	mbedtls_ssl_read_record_layer, .-mbedtls_ssl_read_record_layer
	.section	.text.mbedtls_ssl_read_record,"ax",@progbits
	.align	1
	.globl	mbedtls_ssl_read_record
	.type	mbedtls_ssl_read_record, @function
mbedtls_ssl_read_record:
.LFB49:
	.loc 1 3751 1 is_stmt 1
	.cfi_startproc
.LVL1167:
	.loc 1 3752 5
	.loc 1 3754 5
	.loc 1 3751 1 is_stmt 0
	addi	sp,sp,-32
	.cfi_def_cfa_offset 32
	sw	s2,16(sp)
	.loc 1 3754 5
	lui	a4,%hi(.LC168)
	li	a3,4096
	.cfi_offset 18, -16
	lui	s2,%hi(.LC1)
	.loc 1 3751 1
	sw	s3,12(sp)
	.loc 1 3754 5
	addi	a4,a4,%lo(.LC168)
	addi	a3,a3,-342
	addi	a2,s2,%lo(.LC1)
	li	a1,2
	.cfi_offset 19, -20
	.loc 1 3766 5
	li	s3,-24576
	.loc 1 3751 1
	sw	s1,20(sp)
	sw	ra,28(sp)
	sw	s0,24(sp)
	.cfi_offset 9, -12
	.cfi_offset 1, -4
	.cfi_offset 8, -8
	.loc 1 3751 1
	mv	s1,a0
	.loc 1 3766 5
	addi	s3,s3,-1664
	.loc 1 3754 5
	call	mbedtls_debug_print_msg
.LVL1168:
.L919:
	.loc 1 3756 5 is_stmt 1
	.loc 1 3758 9
	.loc 1 3758 21 is_stmt 0
	mv	a0,s1
	call	mbedtls_ssl_read_record_layer
.LVL1169:
	mv	s0,a0
.LVL1170:
	.loc 1 3758 11
	beq	a0,zero,.L917
	.loc 1 3760 13 is_stmt 1
	lui	a4,%hi(.LC169)
	li	a3,4096
	mv	a5,a0
	addi	a4,a4,%lo(.LC169)
	addi	a3,a3,-336
.L924:
	.loc 1 3770 9 is_stmt 0
	addi	a2,s2,%lo(.LC1)
	li	a1,1
	mv	a0,s1
	call	mbedtls_debug_print_ret
.LVL1171:
	.loc 1 3771 9 is_stmt 1
.L916:
	.loc 1 3782 1 is_stmt 0
	mv	a0,s0
	lw	ra,28(sp)
	.cfi_remember_state
	.cfi_restore 1
	lw	s0,24(sp)
	.cfi_restore 8
.LVL1172:
	lw	s1,20(sp)
	.cfi_restore 9
.LVL1173:
	lw	s2,16(sp)
	.cfi_restore 18
	lw	s3,12(sp)
	.cfi_restore 19
	addi	sp,sp,32
	.cfi_def_cfa_offset 0
	jr	ra
.LVL1174:
.L917:
	.cfi_restore_state
	.loc 1 3764 9 is_stmt 1
	.loc 1 3764 15 is_stmt 0
	mv	a0,s1
	call	mbedtls_ssl_handle_message_type
.LVL1175:
	mv	s0,a0
.LVL1176:
	.loc 1 3766 5
	beq	a0,s3,.L919
	.loc 1 3768 5 is_stmt 1
	.loc 1 3768 7 is_stmt 0
	beq	a0,zero,.L920
	.loc 1 3770 9 is_stmt 1
	lui	a4,%hi(.LC170)
	li	a3,4096
	mv	a5,a0
	addi	a4,a4,%lo(.LC170)
	addi	a3,a3,-326
	j	.L924
.L920:
.LVL1177:
.LBB325:
.LBB326:
	.loc 1 3774 5
	.loc 1 3774 7 is_stmt 0
	lw	a4,108(s1)
	li	a5,22
	bne	a4,a5,.L921
	.loc 1 3776 9 is_stmt 1
	mv	a0,s1
	call	mbedtls_ssl_update_handshake_status
.LVL1178:
.L921:
	.loc 1 3779 5
	lui	a4,%hi(.LC171)
	li	a3,4096
	addi	a4,a4,%lo(.LC171)
	addi	a3,a3,-317
	addi	a2,s2,%lo(.LC1)
	li	a1,2
	mv	a0,s1
	call	mbedtls_debug_print_msg
.LVL1179:
	.loc 1 3781 5
	j	.L916
.LBE326:
.LBE325:
	.cfi_endproc
.LFE49:
	.size	mbedtls_ssl_read_record, .-mbedtls_ssl_read_record
	.section	.text.mbedtls_ssl_parse_certificate,"ax",@progbits
	.align	1
	.globl	mbedtls_ssl_parse_certificate
	.type	mbedtls_ssl_parse_certificate, @function
mbedtls_ssl_parse_certificate:
.LFB55:
	.loc 1 4243 1
	.cfi_startproc
.LVL1180:
	.loc 1 4244 5
	.loc 1 4245 5
	.loc 1 4246 5
	.loc 1 4243 1 is_stmt 0
	addi	sp,sp,-48
	.cfi_def_cfa_offset 48
	sw	s0,40(sp)
	sw	s1,36(sp)
	sw	s2,32(sp)
	sw	s3,28(sp)
	sw	ra,44(sp)
	sw	s4,24(sp)
	sw	s5,20(sp)
	sw	s6,16(sp)
	sw	s7,12(sp)
	.cfi_offset 8, -8
	.cfi_offset 9, -12
	.cfi_offset 18, -16
	.cfi_offset 19, -20
	.cfi_offset 1, -4
	.cfi_offset 20, -24
	.cfi_offset 21, -28
	.cfi_offset 22, -32
	.cfi_offset 23, -36
	.loc 1 4246 38
	lw	a5,64(a0)
	.loc 1 4249 5
	lui	s0,%hi(.LC1)
	lui	a4,%hi(.LC172)
	.loc 1 4246 38
	lw	s5,0(a5)
.LVL1181:
	.loc 1 4247 5 is_stmt 1
	.loc 1 4247 29 is_stmt 0
	lw	a5,0(a0)
	.loc 1 4249 5
	li	s3,4096
	addi	a4,a4,%lo(.LC172)
	addi	a3,s3,153
	addi	a2,s0,%lo(.LC1)
	li	a1,2
	.loc 1 4247 29
	lw	s4,104(a5)
	.loc 1 4243 1
	mv	s1,a0
	.loc 1 4249 5
	call	mbedtls_debug_print_msg
.LVL1182:
	.loc 1 4251 7
	lbu	a5,10(s5)
	.loc 1 4247 29
	srli	s4,s4,2
	.loc 1 4251 7
	li	a4,6
	addi	a5,a5,-5
	andi	a5,a5,0xff
	.loc 1 4247 29
	andi	s4,s4,3
.LVL1183:
	.loc 1 4249 5 is_stmt 1
	.loc 1 4251 5
	mv	s2,s0
	.loc 1 4251 7 is_stmt 0
	bgtu	a5,a4,.L926
	li	a4,75
	srl	a5,a4,a5
	andi	a5,a5,1
	beq	a5,zero,.L926
	.loc 1 4256 9 is_stmt 1
	lui	a4,%hi(.LC173)
	addi	a2,s0,%lo(.LC1)
	addi	a4,a4,%lo(.LC173)
	addi	a3,s3,160
	li	a1,2
	mv	a0,s1
	call	mbedtls_debug_print_msg
.LVL1184:
	.loc 1 4257 9
	.loc 1 4257 19 is_stmt 0
	lw	a5,4(s1)
	.loc 1 4258 15
	li	s0,0
	.loc 1 4257 19
	addi	a5,a5,1
	sw	a5,4(s1)
	.loc 1 4258 9 is_stmt 1
.LVL1185:
.L925:
	.loc 1 4519 1 is_stmt 0
	mv	a0,s0
	lw	ra,44(sp)
	.cfi_remember_state
	.cfi_restore 1
	lw	s0,40(sp)
	.cfi_restore 8
	lw	s1,36(sp)
	.cfi_restore 9
.LVL1186:
	lw	s2,32(sp)
	.cfi_restore 18
	lw	s3,28(sp)
	.cfi_restore 19
	lw	s4,24(sp)
	.cfi_restore 20
.LVL1187:
	lw	s5,20(sp)
	.cfi_restore 21
.LVL1188:
	lw	s6,16(sp)
	.cfi_restore 22
	lw	s7,12(sp)
	.cfi_restore 23
	addi	sp,sp,48
	.cfi_def_cfa_offset 0
	jr	ra
.LVL1189:
.L926:
	.cfi_restore_state
	.loc 1 4285 5 is_stmt 1
	.loc 1 4285 17 is_stmt 0
	mv	a0,s1
	call	mbedtls_ssl_read_record
.LVL1190:
	mv	s0,a0
.LVL1191:
	.loc 1 4285 7
	beq	a0,zero,.L928
	.loc 1 4287 9 is_stmt 1
	lui	a4,%hi(.LC174)
	li	a3,4096
	mv	a5,a0
	addi	a4,a4,%lo(.LC174)
	addi	a3,a3,191
.L973:
	.loc 1 4408 13 is_stmt 0
	addi	a2,s2,%lo(.LC1)
	li	a1,1
	mv	a0,s1
	call	mbedtls_debug_print_ret
.LVL1192:
	.loc 1 4409 13 is_stmt 1
	.loc 1 4409 19 is_stmt 0
	j	.L925
.L928:
	.loc 1 4291 5 is_stmt 1
	.loc 1 4291 15 is_stmt 0
	lw	a5,4(s1)
	.loc 1 4340 7
	lw	a4,108(s1)
	.loc 1 4291 15
	addi	a5,a5,1
	sw	a5,4(s1)
	.loc 1 4340 5 is_stmt 1
	.loc 1 4340 7 is_stmt 0
	li	a5,22
	beq	a4,a5,.L929
	.loc 1 4342 9 is_stmt 1
	lui	a4,%hi(.LC175)
	li	a3,4096
	addi	a4,a4,%lo(.LC175)
	addi	a3,a3,246
	addi	a2,s2,%lo(.LC1)
	li	a1,1
	mv	a0,s1
	.loc 1 4343 15 is_stmt 0
	li	s0,-28672
.LVL1193:
	.loc 1 4342 9
	call	mbedtls_debug_print_msg
.LVL1194:
	.loc 1 4343 9 is_stmt 1
	.loc 1 4343 15 is_stmt 0
	addi	s0,s0,-1792
	j	.L925
.LVL1195:
.L929:
	.loc 1 4346 5 is_stmt 1
	.loc 1 4346 12 is_stmt 0
	lw	a4,100(s1)
	.loc 1 4346 7
	li	a5,11
	lbu	a3,0(a4)
	bne	a3,a5,.L930
.LBB331:
.LBB332:
	.loc 2 462 30 discriminator 1
	lw	a5,0(s1)
.LBE332:
.LBE331:
	.loc 1 4347 12 discriminator 1
	lw	a3,128(s1)
.LVL1196:
.LBB334:
.LBB333:
	.loc 2 462 5 is_stmt 1 discriminator 1
	.loc 2 467 11 is_stmt 0 discriminator 1
	li	s3,4
	.loc 2 462 30 discriminator 1
	lhu	a5,104(a5)
	.loc 2 462 7 discriminator 1
	andi	a5,a5,2
	beq	a5,zero,.L931
	.loc 2 463 15
	li	s3,12
.L931:
.LBE333:
.LBE334:
	.loc 1 4347 59
	addi	a5,s3,6
	.loc 1 4346 30
	bgeu	a3,a5,.L932
.LVL1197:
.L930:
	.loc 1 4349 9 is_stmt 1
	lui	a4,%hi(.LC175)
	li	a3,4096
	addi	a4,a4,%lo(.LC175)
	addi	a3,a3,253
.L974:
	.loc 1 4363 9 is_stmt 0
	addi	a2,s2,%lo(.LC1)
	li	a1,1
	mv	a0,s1
	.loc 1 4364 15
	li	s0,-32768
.LVL1198:
	.loc 1 4363 9
	call	mbedtls_debug_print_msg
.LVL1199:
	.loc 1 4364 9 is_stmt 1
	.loc 1 4364 15 is_stmt 0
	addi	s0,s0,1536
	j	.L925
.LVL1200:
.L932:
	.loc 1 4353 5 is_stmt 1
	.loc 1 4358 5
	.loc 1 4358 22 is_stmt 0
	add	a4,a4,s3
	lbu	a5,1(a4)
	.loc 1 4358 48
	lbu	a2,2(a4)
	.loc 1 4360 7
	lbu	a4,0(a4)
	.loc 1 4358 28
	slli	a5,a5,8
	.loc 1 4358 35
	or	a5,a5,a2
.LVL1201:
	.loc 1 4360 5 is_stmt 1
	.loc 1 4360 7 is_stmt 0
	bne	a4,zero,.L933
	addi	s3,s3,3
.LVL1202:
	.loc 1 4361 32 discriminator 1
	add	a5,a5,s3
.LVL1203:
	.loc 1 4360 29 discriminator 1
	beq	a3,a5,.L934
.LVL1204:
.L933:
	.loc 1 4363 9 is_stmt 1
	lui	a4,%hi(.LC175)
	li	a3,4096
	addi	a4,a4,%lo(.LC175)
	addi	a3,a3,267
	j	.L974
.LVL1205:
.L934:
	.loc 1 4368 5
	.loc 1 4368 31 is_stmt 0
	lw	a5,44(s1)
	lw	a0,92(a5)
	.loc 1 4368 7
	beq	a0,zero,.L935
	.loc 1 4370 9 is_stmt 1
	call	mbedtls_x509_crt_free
.LVL1206:
	.loc 1 4371 9
	.loc 1 4371 42 is_stmt 0
	lw	a5,44(s1)
	.loc 1 4371 9
	lw	a0,92(a5)
	call	vPortFree
.LVL1207:
.L935:
	.loc 1 4374 5 is_stmt 1
	.loc 1 4374 14 is_stmt 0
	lw	s0,44(s1)
.LVL1208:
	.loc 1 4374 47
	li	a1,308
	li	a0,1
	call	mycalloc
.LVL1209:
	.loc 1 4374 45
	sw	a0,92(s0)
	.loc 1 4374 7
	bne	a0,zero,.L936
	.loc 1 4377 9 is_stmt 1
	lui	a4,%hi(.LC52)
	li	a3,4096
	li	a5,308
	addi	a4,a4,%lo(.LC52)
	addi	a3,a3,282
	addi	a2,s2,%lo(.LC1)
	li	a1,1
	mv	a0,s1
	.loc 1 4379 15 is_stmt 0
	li	s0,-32768
	.loc 1 4377 9
	call	mbedtls_debug_print_msg
.LVL1210:
	.loc 1 4379 9 is_stmt 1
	.loc 1 4379 15 is_stmt 0
	addi	s0,s0,256
	j	.L925
.L936:
	.loc 1 4382 5 is_stmt 1
	lw	a5,44(s1)
	.loc 1 4406 22 is_stmt 0
	li	s6,-8192
	.loc 1 4285 17
	li	s0,0
	.loc 1 4382 5
	lw	a0,92(a5)
	.loc 1 4398 11
	li	s7,127
	.loc 1 4406 22
	addi	s6,s6,-1582
	.loc 1 4382 5
	call	mbedtls_x509_crt_init
.LVL1211:
	.loc 1 4384 5 is_stmt 1
	.loc 1 4386 5
.L937:
	.loc 1 4386 19 is_stmt 0
	lw	a4,128(s1)
	.loc 1 4386 10
	bgtu	a4,s3,.L942
	.loc 1 4415 5 is_stmt 1
	.loc 1 4415 95 is_stmt 0
	lw	a5,44(s1)
	.loc 1 4415 5
	lui	a4,%hi(.LC177)
	li	s3,4096
.LVL1212:
	lw	a5,92(a5)
	addi	a4,a4,%lo(.LC177)
	addi	a3,s3,319
	addi	a2,s2,%lo(.LC1)
	li	a1,3
	mv	a0,s1
	call	mbedtls_debug_print_crt
.LVL1213:
	.loc 1 4443 5 is_stmt 1
	.loc 1 4443 7 is_stmt 0
	beq	s4,zero,.L943
.LBB335:
	.loc 1 4445 9 is_stmt 1
	.loc 1 4446 9
	.loc 1 4449 9
	.loc 1 4449 16 is_stmt 0
	lw	a5,48(s1)
	lw	a3,0(s1)
	.loc 1 4449 27
	lw	a1,20(a5)
	.loc 1 4449 11
	beq	a1,zero,.L944
	.loc 1 4451 13 is_stmt 1
.LVL1214:
	.loc 1 4452 13
	.loc 1 4452 20 is_stmt 0
	lw	a2,24(a5)
.LVL1215:
	.loc 1 4461 9 is_stmt 1
.L945:
	.loc 1 4470 9
	.loc 1 4471 36 is_stmt 0
	lw	a0,44(s1)
	.loc 1 4470 15
	lw	a7,56(a3)
	lw	a6,52(a3)
	addi	a5,a0,96
	lw	a4,180(s1)
	lw	a3,60(a3)
	lw	a0,92(a0)
	call	mbedtls_x509_crt_verify_with_profile
.LVL1216:
	mv	s0,a0
.LVL1217:
	.loc 1 4478 9 is_stmt 1
	.loc 1 4478 11 is_stmt 0
	beq	a0,zero,.L946
	.loc 1 4480 13 is_stmt 1
	lui	a4,%hi(.LC179)
	li	a3,4096
	mv	a5,a0
	addi	a4,a4,%lo(.LC179)
	addi	a3,a3,384
	addi	a2,s2,%lo(.LC1)
	li	a1,1
	mv	a0,s1
	call	mbedtls_debug_print_ret
.LVL1218:
.L946:
.LBB336:
	.loc 1 4489 13
	.loc 1 4489 67 is_stmt 0
	lw	a5,44(s1)
	.loc 1 4492 17
	li	a1,2
	.loc 1 4489 67
	lw	s3,92(a5)
.LVL1219:
	.loc 1 4492 13 is_stmt 1
	.loc 1 4492 17 is_stmt 0
	addi	a0,s3,188
.LVL1220:
	call	mbedtls_pk_can_do
.LVL1221:
	.loc 1 4492 15
	beq	a0,zero,.L947
.LBE336:
.LBE335:
	.file 4 "/home/hogc/build-tools/sdk/bl/bl_iot_sdk/components/security/mbedtls/include/mbedtls/pk.h"
	.loc 4 158 5 is_stmt 1 discriminator 1
.LBB338:
.LBB337:
	.loc 1 4493 17 is_stmt 0 discriminator 1
	lw	a5,192(s3)
	mv	a0,s1
	lbu	a1,0(a5)
	call	mbedtls_ssl_check_curve
.LVL1222:
	.loc 1 4492 59 discriminator 1
	beq	a0,zero,.L947
	.loc 1 4495 17 is_stmt 1
	lui	a4,%hi(.LC180)
	li	a3,4096
	addi	a4,a4,%lo(.LC180)
	addi	a3,a3,399
	addi	a2,s2,%lo(.LC1)
	li	a1,1
	mv	a0,s1
	call	mbedtls_debug_print_msg
.LVL1223:
	.loc 1 4496 17
	.loc 1 4496 19 is_stmt 0
	bne	s0,zero,.L947
	.loc 1 4497 25
	li	s0,-32768
.LVL1224:
	addi	s0,s0,1536
.L947:
.LVL1225:
.LBE337:
	.loc 1 4502 9 is_stmt 1
	.loc 1 4504 35 is_stmt 0
	lw	a4,0(s1)
	.loc 1 4502 46
	lw	a5,44(s1)
	.loc 1 4502 13
	mv	a1,s5
	lhu	a2,104(a4)
	lw	a0,92(a5)
	addi	a3,a5,96
	not	a2,a2
	andi	a2,a2,1
	call	mbedtls_ssl_check_cert_usage
.LVL1226:
	.loc 1 4502 11
	beq	a0,zero,.L948
	.loc 1 4507 13 is_stmt 1
	lui	a4,%hi(.LC181)
	li	a3,4096
	addi	a4,a4,%lo(.LC181)
	addi	a3,a3,411
	addi	a2,s2,%lo(.LC1)
	li	a1,1
	mv	a0,s1
	call	mbedtls_debug_print_msg
.LVL1227:
	.loc 1 4508 13
	.loc 1 4508 15 is_stmt 0
	bne	s0,zero,.L948
	.loc 1 4509 21
	li	s0,-32768
.LVL1228:
	addi	s0,s0,1536
.L948:
.LVL1229:
	.loc 1 4512 9 is_stmt 1
	.loc 1 4512 11 is_stmt 0
	li	a5,1
	bne	s4,a5,.L943
	.loc 1 4513 17
	li	s0,0
.LVL1230:
.L943:
.LBE338:
	.loc 1 4516 5 is_stmt 1
	lui	a4,%hi(.LC182)
	li	a3,4096
	addi	a4,a4,%lo(.LC182)
	addi	a3,a3,420
	addi	a2,s2,%lo(.LC1)
	li	a1,2
	mv	a0,s1
	call	mbedtls_debug_print_msg
.LVL1231:
	.loc 1 4518 5
	.loc 1 4518 11 is_stmt 0
	j	.L925
.LVL1232:
.L942:
	.loc 1 4388 9 is_stmt 1
	.loc 1 4388 16 is_stmt 0
	lw	a1,100(s1)
	.loc 1 4388 24
	add	a5,a1,s3
	.loc 1 4388 11
	lbu	a3,0(a5)
	beq	a3,zero,.L938
	.loc 1 4390 13 is_stmt 1
	lui	a4,%hi(.LC175)
	li	a3,4096
	addi	a4,a4,%lo(.LC175)
	addi	a3,a3,294
	j	.L974
.L938:
	.loc 1 4394 9
	.loc 1 4394 15 is_stmt 0
	lbu	a2,1(a5)
	.loc 1 4395 15
	lbu	a5,2(a5)
	.loc 1 4394 49
	slli	a2,a2,8
	.loc 1 4394 11
	or	a2,a2,a5
.LVL1233:
	.loc 1 4396 9 is_stmt 1
	.loc 1 4396 11 is_stmt 0
	addi	a5,s3,3
.LVL1234:
	.loc 1 4398 9 is_stmt 1
	.loc 1 4398 11 is_stmt 0
	bleu	a2,s7,.L939
	.loc 1 4398 26 discriminator 1
	add	s3,a2,a5
	.loc 1 4398 21 discriminator 1
	bleu	s3,a4,.L940
.L939:
	.loc 1 4400 13 is_stmt 1
	lui	a4,%hi(.LC175)
	li	a3,4096
	addi	a4,a4,%lo(.LC175)
	addi	a3,a3,304
	j	.L974
.L940:
	.loc 1 4404 9
	.loc 1 4404 15 is_stmt 0
	lw	a4,44(s1)
	add	a1,a1,a5
	lw	a0,92(a4)
	call	mbedtls_x509_crt_parse_der
.LVL1235:
	mv	s0,a0
.LVL1236:
	.loc 1 4406 9 is_stmt 1
	.loc 1 4406 11 is_stmt 0
	beq	a0,zero,.L937
	.loc 1 4406 22 discriminator 1
	beq	a0,s6,.L937
	.loc 1 4408 13 is_stmt 1
	lui	a4,%hi(.LC176)
	li	a3,4096
	mv	a5,a0
	addi	a4,a4,%lo(.LC176)
	addi	a3,a3,312
	j	.L973
.L944:
.LBB339:
	.loc 1 4457 13
	.loc 1 4457 22 is_stmt 0
	lw	a1,68(a3)
.LVL1237:
	.loc 1 4458 13 is_stmt 1
	.loc 1 4458 20 is_stmt 0
	lw	a2,72(a3)
.LVL1238:
	.loc 1 4461 9 is_stmt 1
	.loc 1 4461 11 is_stmt 0
	bne	a1,zero,.L945
	.loc 1 4463 13 is_stmt 1
	lui	a4,%hi(.LC178)
	addi	a4,a4,%lo(.LC178)
	addi	a3,s3,367
	addi	a2,s2,%lo(.LC1)
.LVL1239:
	li	a1,1
.LVL1240:
	mv	a0,s1
	.loc 1 4464 19 is_stmt 0
	li	s0,-28672
.LVL1241:
	.loc 1 4463 13
	call	mbedtls_debug_print_msg
.LVL1242:
	.loc 1 4464 13 is_stmt 1
	.loc 1 4464 19 is_stmt 0
	addi	s0,s0,-1664
	j	.L925
.LBE339:
	.cfi_endproc
.LFE55:
	.size	mbedtls_ssl_parse_certificate, .-mbedtls_ssl_parse_certificate
	.section	.text.mbedtls_ssl_parse_change_cipher_spec,"ax",@progbits
	.align	1
	.globl	mbedtls_ssl_parse_change_cipher_spec
	.type	mbedtls_ssl_parse_change_cipher_spec, @function
mbedtls_ssl_parse_change_cipher_spec:
.LFB57:
	.loc 1 4552 1 is_stmt 1
	.cfi_startproc
.LVL1243:
	.loc 1 4553 5
	.loc 1 4555 5
	.loc 1 4552 1 is_stmt 0
	addi	sp,sp,-32
	.cfi_def_cfa_offset 32
	sw	s2,16(sp)
	sw	s3,12(sp)
	.loc 1 4555 5
	lui	a4,%hi(.LC183)
	.cfi_offset 18, -16
	.cfi_offset 19, -20
	li	s3,4096
	lui	s2,%hi(.LC1)
	addi	a4,a4,%lo(.LC183)
	addi	a3,s3,459
	addi	a2,s2,%lo(.LC1)
	li	a1,2
	.loc 1 4552 1
	sw	ra,28(sp)
	sw	s0,24(sp)
	sw	s1,20(sp)
	.cfi_offset 1, -4
	.cfi_offset 8, -8
	.cfi_offset 9, -12
	mv	s0,a0
	sw	s4,8(sp)
	.cfi_offset 20, -24
	.loc 1 4555 5
	call	mbedtls_debug_print_msg
.LVL1244:
	.loc 1 4557 5 is_stmt 1
	.loc 1 4557 17 is_stmt 0
	mv	a0,s0
	call	mbedtls_ssl_read_record
.LVL1245:
	mv	s1,a0
.LVL1246:
	.loc 1 4557 7
	beq	a0,zero,.L976
	.loc 1 4559 9 is_stmt 1
	lui	a4,%hi(.LC174)
	mv	a5,a0
	addi	a4,a4,%lo(.LC174)
	addi	a3,s3,463
	addi	a2,s2,%lo(.LC1)
	li	a1,1
	mv	a0,s0
	call	mbedtls_debug_print_ret
.LVL1247:
	.loc 1 4560 9
.L975:
	.loc 1 4628 1 is_stmt 0
	lw	ra,28(sp)
	.cfi_remember_state
	.cfi_restore 1
	lw	s0,24(sp)
	.cfi_restore 8
.LVL1248:
	mv	a0,s1
	lw	s2,16(sp)
	.cfi_restore 18
	lw	s1,20(sp)
	.cfi_restore 9
	lw	s3,12(sp)
	.cfi_restore 19
	lw	s4,8(sp)
	.cfi_restore 20
	addi	sp,sp,32
	.cfi_def_cfa_offset 0
	jr	ra
.LVL1249:
.L976:
	.cfi_restore_state
	.loc 1 4563 5 is_stmt 1
	.loc 1 4563 7 is_stmt 0
	lw	a4,108(s0)
	li	a5,20
	beq	a4,a5,.L978
	.loc 1 4565 9 is_stmt 1
	lui	a4,%hi(.LC184)
	addi	a4,a4,%lo(.LC184)
	addi	a3,s3,469
	addi	a2,s2,%lo(.LC1)
	li	a1,1
	mv	a0,s0
	.loc 1 4566 15 is_stmt 0
	li	s1,-28672
.LVL1250:
	.loc 1 4565 9
	call	mbedtls_debug_print_msg
.LVL1251:
	.loc 1 4566 9 is_stmt 1
	.loc 1 4566 15 is_stmt 0
	addi	s1,s1,-1792
	j	.L975
.LVL1252:
.L978:
	.loc 1 4569 7
	lw	a5,112(s0)
	li	a4,1
	mv	s4,s2
	.loc 1 4569 5 is_stmt 1
	.loc 1 4569 7 is_stmt 0
	bne	a5,a4,.L979
	.loc 1 4569 43 discriminator 1
	lw	a4,100(s0)
	.loc 1 4569 29 discriminator 1
	lbu	a4,0(a4)
	beq	a4,a5,.L980
.L979:
	.loc 1 4571 9 is_stmt 1
	lui	a4,%hi(.LC184)
	li	a3,4096
	addi	a4,a4,%lo(.LC184)
	addi	a3,a3,475
	addi	a2,s4,%lo(.LC1)
	li	a1,1
	mv	a0,s0
	.loc 1 4572 15 is_stmt 0
	li	s1,-32768
.LVL1253:
	.loc 1 4571 9
	call	mbedtls_debug_print_msg
.LVL1254:
	.loc 1 4572 9 is_stmt 1
	.loc 1 4572 15 is_stmt 0
	addi	s1,s1,512
	j	.L975
.LVL1255:
.L980:
	.loc 1 4579 5 is_stmt 1
	lui	a4,%hi(.LC185)
	addi	a4,a4,%lo(.LC185)
	addi	a3,s3,483
	addi	a2,s2,%lo(.LC1)
	li	a1,3
	mv	a0,s0
	call	mbedtls_debug_print_msg
.LVL1256:
	.loc 1 4580 5
	.loc 1 4580 23 is_stmt 0
	lw	a5,64(s0)
	sw	a5,52(s0)
	.loc 1 4581 5 is_stmt 1
	.loc 1 4581 21 is_stmt 0
	lw	a5,44(s0)
	sw	a5,32(s0)
	.loc 1 4584 5 is_stmt 1
	.loc 1 4584 30 is_stmt 0
	lw	a5,0(s0)
	lhu	a5,104(a5)
	.loc 1 4584 7
	andi	a5,a5,2
	beq	a5,zero,.L981
	.loc 1 4591 9 is_stmt 1
	.loc 1 4591 13 is_stmt 0
	lhu	a5,120(s0)
	addi	a5,a5,1
	slli	a5,a5,16
	srli	a5,a5,16
	.loc 1 4591 11
	sh	a5,120(s0)
	bne	a5,zero,.L982
	.loc 1 4593 13 is_stmt 1
	lui	a4,%hi(.LC131)
	addi	a4,a4,%lo(.LC131)
	addi	a3,s3,497
	addi	a2,s2,%lo(.LC1)
	li	a1,1
	mv	a0,s0
	.loc 1 4594 19 is_stmt 0
	li	s1,-28672
.LVL1257:
	.loc 1 4593 13
	call	mbedtls_debug_print_msg
.LVL1258:
	.loc 1 4594 13 is_stmt 1
	.loc 1 4594 19 is_stmt 0
	addi	s1,s1,1152
	j	.L975
.LVL1259:
.L981:
	.loc 1 4599 5 is_stmt 1
	lw	a0,84(s0)
	li	a2,8
	li	a1,0
	call	memset
.LVL1260:
.L982:
	.loc 1 4604 5
	.loc 1 4604 7 is_stmt 0
	lw	a3,12(s0)
	li	a4,1
	lw	a5,96(s0)
	ble	a3,a4,.L983
	.loc 1 4606 9 is_stmt 1
	.loc 1 4606 39 is_stmt 0
	lw	a3,64(s0)
	.loc 1 4606 68
	lw	a4,12(a3)
	lw	a3,16(a3)
	sub	a4,a4,a3
	add	a5,a5,a4
.L983:
	sw	a5,100(s0)
	.loc 1 4623 5 is_stmt 1
	.loc 1 4623 15 is_stmt 0
	lw	a5,4(s0)
	.loc 1 4625 5
	lui	a4,%hi(.LC186)
	li	a3,4096
	.loc 1 4623 15
	addi	a5,a5,1
	sw	a5,4(s0)
	.loc 1 4625 5 is_stmt 1
	addi	a4,a4,%lo(.LC186)
	addi	a3,a3,529
	addi	a2,s4,%lo(.LC1)
	li	a1,2
	mv	a0,s0
	call	mbedtls_debug_print_msg
.LVL1261:
	.loc 1 4627 5
	.loc 1 4627 11 is_stmt 0
	j	.L975
	.cfi_endproc
.LFE57:
	.size	mbedtls_ssl_parse_change_cipher_spec, .-mbedtls_ssl_parse_change_cipher_spec
	.section	.text.mbedtls_ssl_parse_finished,"ax",@progbits
	.align	1
	.globl	mbedtls_ssl_parse_finished
	.type	mbedtls_ssl_parse_finished, @function
mbedtls_ssl_parse_finished:
.LFB66:
	.loc 1 5249 1 is_stmt 1
	.cfi_startproc
.LVL1262:
	.loc 1 5250 5
	.loc 1 5251 5
	.loc 1 5252 5
	.loc 1 5254 5
	.loc 1 5249 1 is_stmt 0
	addi	sp,sp,-48
	.cfi_def_cfa_offset 48
	sw	s2,32(sp)
	sw	s4,24(sp)
	.loc 1 5254 5
	lui	a4,%hi(.LC187)
	.cfi_offset 18, -16
	.cfi_offset 20, -24
	li	s4,4096
	lui	s2,%hi(.LC1)
	addi	a4,a4,%lo(.LC187)
	addi	a3,s4,1158
	addi	a2,s2,%lo(.LC1)
	li	a1,2
	.loc 1 5249 1
	sw	ra,44(sp)
	sw	s0,40(sp)
	sw	s1,36(sp)
	.cfi_offset 1, -4
	.cfi_offset 8, -8
	.cfi_offset 9, -12
	mv	s0,a0
	sw	s3,28(sp)
	.cfi_offset 19, -20
	.loc 1 5254 5
	call	mbedtls_debug_print_msg
.LVL1263:
	.loc 1 5256 5 is_stmt 1
	.loc 1 5256 55 is_stmt 0
	lw	a5,0(s0)
	.loc 1 5256 5
	addi	a1,sp,4
	mv	a0,s0
	.loc 1 5256 55
	lw	a2,104(a5)
	.loc 1 5256 19
	lw	a5,48(s0)
	.loc 1 5256 55
	andi	a2,a2,1
	.loc 1 5256 5
	lw	a5,204(a5)
	xori	a2,a2,1
	jalr	a5
.LVL1264:
	.loc 1 5258 5 is_stmt 1
	.loc 1 5258 17 is_stmt 0
	mv	a0,s0
	call	mbedtls_ssl_read_record
.LVL1265:
	mv	s1,a0
.LVL1266:
	.loc 1 5258 7
	beq	a0,zero,.L986
	.loc 1 5260 9 is_stmt 1
	lui	a4,%hi(.LC174)
	mv	a5,a0
	addi	a4,a4,%lo(.LC174)
	addi	a3,s4,1164
	addi	a2,s2,%lo(.LC1)
	li	a1,1
	mv	a0,s0
	call	mbedtls_debug_print_ret
.LVL1267:
	.loc 1 5261 9
.L985:
	.loc 1 5319 1 is_stmt 0
	lw	ra,44(sp)
	.cfi_remember_state
	.cfi_restore 1
	lw	s0,40(sp)
	.cfi_restore 8
.LVL1268:
	mv	a0,s1
	lw	s2,32(sp)
	.cfi_restore 18
	lw	s1,36(sp)
	.cfi_restore 9
	lw	s3,28(sp)
	.cfi_restore 19
	lw	s4,24(sp)
	.cfi_restore 20
	addi	sp,sp,48
	.cfi_def_cfa_offset 0
	jr	ra
.LVL1269:
.L986:
	.cfi_restore_state
	.loc 1 5264 5 is_stmt 1
	.loc 1 5264 7 is_stmt 0
	lw	a4,108(s0)
	li	a5,22
	beq	a4,a5,.L988
	.loc 1 5266 9 is_stmt 1
	lui	a4,%hi(.LC188)
	addi	a4,a4,%lo(.LC188)
	addi	a3,s4,1170
	addi	a2,s2,%lo(.LC1)
	li	a1,1
	mv	a0,s0
	.loc 1 5267 15 is_stmt 0
	li	s1,-28672
.LVL1270:
	.loc 1 5266 9
	call	mbedtls_debug_print_msg
.LVL1271:
	.loc 1 5267 9 is_stmt 1
	.loc 1 5267 15 is_stmt 0
	addi	s1,s1,-1792
	j	.L985
.LVL1272:
.L988:
	.loc 1 5278 12
	lw	a6,100(s0)
	.loc 1 5278 7
	li	a5,20
	mv	s3,s2
	.loc 1 5276 9 is_stmt 1
.LVL1273:
	.loc 1 5278 5
	.loc 1 5278 7 is_stmt 0
	lbu	a4,0(a6)
	bne	a4,a5,.L989
	.loc 1 5279 26 discriminator 1
	lw	a0,0(s0)
.LVL1274:
.LBB344:
.LBB345:
	.loc 2 462 5 is_stmt 1 discriminator 1
.LBE345:
.LBE344:
	.loc 1 5279 12 is_stmt 0 discriminator 1
	lw	t1,128(s0)
.LBB347:
.LBB346:
	.loc 2 467 11 discriminator 1
	li	a1,4
	.loc 2 462 30 discriminator 1
	lhu	a4,104(a0)
	.loc 2 462 7 discriminator 1
	andi	a5,a4,2
	beq	a5,zero,.L990
	.loc 2 463 15
	li	a1,12
.L990:
.LBE346:
.LBE347:
	.loc 1 5279 56
	addi	a2,a1,12
.LBB348:
.LBB349:
	.loc 2 488 19
	li	a3,0
	.loc 2 490 12
	li	a5,0
	.loc 2 490 5
	li	a7,12
.LBE349:
.LBE348:
	.loc 1 5278 30
	beq	t1,a2,.L991
.LVL1275:
.L989:
	.loc 1 5281 9 is_stmt 1
	lui	a4,%hi(.LC188)
	li	a3,4096
	addi	a4,a4,%lo(.LC188)
	addi	a3,a3,1185
.L1006:
	.loc 1 5288 9 is_stmt 0
	addi	a2,s3,%lo(.LC1)
	li	a1,1
	mv	a0,s0
	.loc 1 5289 15
	li	s1,-32768
.LVL1276:
	.loc 1 5288 9
	call	mbedtls_debug_print_msg
.LVL1277:
	.loc 1 5289 9 is_stmt 1
	.loc 1 5289 15 is_stmt 0
	addi	s1,s1,384
	j	.L985
.LVL1278:
.L991:
.LBB351:
.LBB350:
	.loc 2 491 9 is_stmt 1
	.loc 2 491 18 is_stmt 0
	add	a2,a1,a5
	.loc 2 491 25
	addi	t1,sp,4
	add	t1,t1,a5
	.loc 2 491 18
	add	a2,a6,a2
	.loc 2 491 14
	lbu	a2,0(a2)
	lbu	t1,0(t1)
	.loc 2 490 25
	addi	a5,a5,1
.LVL1279:
	.loc 2 491 14
	xor	a2,a2,t1
	or	a3,a3,a2
.LVL1280:
	.loc 2 490 5
	bne	a5,a7,.L991
	.loc 2 493 5 is_stmt 1
.LVL1281:
.LBE350:
.LBE351:
	.loc 1 5285 7 is_stmt 0
	beq	a3,zero,.L992
	.loc 1 5288 9 is_stmt 1
	lui	a4,%hi(.LC188)
	li	a3,4096
	addi	a4,a4,%lo(.LC188)
	addi	a3,a3,1192
	j	.L1006
.L992:
	.loc 1 5297 5
	.loc 1 5297 23 is_stmt 0
	lw	a5,48(s0)
	.loc 1 5297 7
	lw	a5,328(a5)
	beq	a5,zero,.L993
	.loc 1 5300 9 is_stmt 1
	.loc 1 5300 11 is_stmt 0
	andi	a4,a4,1
	.loc 1 5301 24
	li	a5,10
	.loc 1 5300 11
	beq	a4,zero,.L1005
.L994:
	.loc 1 5312 5 is_stmt 1
	.loc 1 5312 30 is_stmt 0
	lhu	a5,104(a0)
	.loc 1 5312 7
	andi	a5,a5,2
	beq	a5,zero,.L995
	.loc 1 5313 9 is_stmt 1
	mv	a0,s0
	call	mbedtls_ssl_recv_flight_completed
.LVL1282:
.L995:
	.loc 1 5316 5
	lui	a4,%hi(.LC189)
	li	a3,4096
	addi	a4,a4,%lo(.LC189)
	addi	a3,a3,1220
	addi	a2,s3,%lo(.LC1)
	li	a1,2
	mv	a0,s0
	call	mbedtls_debug_print_msg
.LVL1283:
	.loc 1 5318 5
	.loc 1 5318 11 is_stmt 0
	j	.L985
.L993:
	.loc 1 5309 9 is_stmt 1
	.loc 1 5309 19 is_stmt 0
	lw	a5,4(s0)
	addi	a5,a5,1
.L1005:
	sw	a5,4(s0)
	j	.L994
	.cfi_endproc
.LFE66:
	.size	mbedtls_ssl_parse_finished, .-mbedtls_ssl_parse_finished
	.section	.text.mbedtls_ssl_read,"ax",@progbits
	.align	1
	.globl	mbedtls_ssl_read
	.type	mbedtls_ssl_read, @function
mbedtls_ssl_read:
.LFB116:
	.loc 1 6617 1 is_stmt 1
	.cfi_startproc
.LVL1284:
	.loc 1 6618 5
	.loc 1 6619 5
	.loc 1 6621 5
	.loc 1 6617 1 is_stmt 0
	addi	sp,sp,-32
	.cfi_def_cfa_offset 32
	sw	ra,28(sp)
	sw	s0,24(sp)
	sw	s1,20(sp)
	sw	s2,16(sp)
	sw	s3,12(sp)
	sw	s4,8(sp)
	.cfi_offset 1, -4
	.cfi_offset 8, -8
	.cfi_offset 9, -12
	.cfi_offset 18, -16
	.cfi_offset 19, -20
	.cfi_offset 20, -24
	.loc 1 6621 7
	beq	a0,zero,.L1029
	.loc 1 6621 20 discriminator 1
	lw	a5,0(a0)
	mv	s1,a0
	beq	a5,zero,.L1029
	.loc 1 6624 5
	lui	a4,%hi(.LC190)
	li	a3,8192
	lui	s2,%hi(.LC1)
	mv	s3,a2
	mv	s4,a1
	.loc 1 6624 5 is_stmt 1
	addi	a4,a4,%lo(.LC190)
	addi	a3,a3,-1568
	addi	a2,s2,%lo(.LC1)
.LVL1285:
	li	a1,2
.LVL1286:
	call	mbedtls_debug_print_msg
.LVL1287:
	.loc 1 6627 5
	.loc 1 6627 30 is_stmt 0
	lw	a5,0(s1)
	lhu	a5,104(a5)
	.loc 1 6627 7
	andi	a5,a5,2
	bne	a5,zero,.L1009
.L1012:
	.loc 1 6649 5 is_stmt 1
	.loc 1 6649 7 is_stmt 0
	lw	a4,4(s1)
	li	a5,16
	beq	a4,a5,.L1011
	.loc 1 6651 9 is_stmt 1
	.loc 1 6651 15 is_stmt 0
	mv	a0,s1
	call	mbedtls_ssl_handshake
.LVL1288:
	.loc 1 6652 11
	li	a5,-28672
	addi	a5,a5,1280
	.loc 1 6651 15
	mv	s0,a0
.LVL1289:
	.loc 1 6652 9 is_stmt 1
	.loc 1 6652 11 is_stmt 0
	beq	a0,a5,.L1030
	.loc 1 6656 14 is_stmt 1
	.loc 1 6656 16 is_stmt 0
	beq	a0,zero,.L1011
	.loc 1 6658 13 is_stmt 1
	lui	a4,%hi(.LC134)
	li	a3,8192
	mv	a5,a0
	addi	a4,a4,%lo(.LC134)
	addi	a3,a3,-1534
.LVL1290:
.L1046:
	.loc 1 6679 17 is_stmt 0
	addi	a2,s2,%lo(.LC1)
	li	a1,1
	mv	a0,s1
	call	mbedtls_debug_print_ret
.LVL1291:
	.loc 1 6680 17 is_stmt 1
	.loc 1 6680 23 is_stmt 0
	j	.L1007
.LVL1292:
.L1009:
	.loc 1 6629 9 is_stmt 1
	.loc 1 6629 21 is_stmt 0
	mv	a0,s1
	call	mbedtls_ssl_flush_output
.LVL1293:
	mv	s0,a0
.LVL1294:
	.loc 1 6629 11
	bne	a0,zero,.L1007
	.loc 1 6632 9 is_stmt 1
	.loc 1 6632 16 is_stmt 0
	lw	a5,48(s1)
	.loc 1 6632 11
	beq	a5,zero,.L1012
	.loc 1 6632 35 discriminator 1
	lbu	a4,52(a5)
	li	a5,1
	bne	a4,a5,.L1012
	.loc 1 6635 13 is_stmt 1
	.loc 1 6635 25 is_stmt 0
	mv	a0,s1
	call	mbedtls_ssl_resend
.LVL1295:
	mv	s0,a0
.LVL1296:
	.loc 1 6635 15
	beq	a0,zero,.L1012
.LVL1297:
.L1007:
	.loc 1 6867 1
	mv	a0,s0
	lw	ra,28(sp)
	.cfi_remember_state
	.cfi_restore 1
	lw	s0,24(sp)
	.cfi_restore 8
	lw	s1,20(sp)
	.cfi_restore 9
	lw	s2,16(sp)
	.cfi_restore 18
	lw	s3,12(sp)
	.cfi_restore 19
	lw	s4,8(sp)
	.cfi_restore 20
	addi	sp,sp,32
	.cfi_def_cfa_offset 0
	jr	ra
.LVL1298:
.L1011:
	.cfi_restore_state
	.loc 1 6618 14
	li	s0,0
.L1013:
.LVL1299:
	.loc 1 6663 5 is_stmt 1
	.loc 1 6663 7 is_stmt 0
	lw	a5,104(s1)
	bne	a5,zero,.L1015
	.loc 1 6666 9 is_stmt 1
	.loc 1 6666 16 is_stmt 0
	lw	a5,76(s1)
	.loc 1 6666 11
	beq	a5,zero,.L1017
	.loc 1 6667 13 discriminator 1
	lw	a0,68(s1)
	jalr	a5
.LVL1300:
	.loc 1 6666 37 discriminator 1
	li	a5,-1
	bne	a0,a5,.L1017
	.loc 1 6669 13 is_stmt 1
	lw	a5,0(s1)
	mv	a0,s1
	lw	a1,88(a5)
	call	ssl_set_timer
.LVL1301:
.L1017:
	.loc 1 6672 9
	.loc 1 6672 11 is_stmt 0
	bne	s0,zero,.L1019
	.loc 1 6674 13 is_stmt 1
	.loc 1 6674 25 is_stmt 0
	mv	a0,s1
	call	mbedtls_ssl_read_record
.LVL1302:
	mv	s0,a0
.LVL1303:
	.loc 1 6674 15
	beq	a0,zero,.L1019
	.loc 1 6676 17 is_stmt 1
	.loc 1 6676 19 is_stmt 0
	li	a5,-28672
	addi	a5,a5,-640
	bne	a0,a5,.L1020
.L1022:
	.loc 1 6677 27
	li	s0,0
.LVL1304:
	j	.L1007
.LVL1305:
.L1030:
	.loc 1 6654 25
	li	s0,1
.LVL1306:
	j	.L1013
.LVL1307:
.L1020:
	.loc 1 6679 17 is_stmt 1
	lui	a4,%hi(.LC174)
	li	a3,8192
	mv	a5,a0
	addi	a4,a4,%lo(.LC174)
	addi	a3,a3,-1513
	j	.L1046
.LVL1308:
.L1019:
	.loc 1 6684 9
	.loc 1 6684 11 is_stmt 0
	lw	a5,112(s1)
	bne	a5,zero,.L1021
	.loc 1 6684 33 discriminator 1
	lw	a4,108(s1)
	li	a5,23
	bne	a4,a5,.L1021
	.loc 1 6690 13 is_stmt 1
	.loc 1 6690 25 is_stmt 0
	mv	a0,s1
	call	mbedtls_ssl_read_record
.LVL1309:
	mv	s0,a0
.LVL1310:
	.loc 1 6690 15
	beq	a0,zero,.L1021
	.loc 1 6692 17 is_stmt 1
	.loc 1 6692 19 is_stmt 0
	li	a5,-28672
	addi	a5,a5,-640
	beq	a0,a5,.L1022
	.loc 1 6695 17 is_stmt 1
	lui	a4,%hi(.LC174)
	li	a3,8192
	mv	a5,a0
	addi	a4,a4,%lo(.LC174)
	addi	a3,a3,-1497
	j	.L1046
.LVL1311:
.L1021:
	.loc 1 6814 9
	.loc 1 6814 16 is_stmt 0
	lw	a5,108(s1)
	.loc 1 6814 11
	li	a4,21
	bne	a5,a4,.L1023
	.loc 1 6816 13 is_stmt 1
	lui	a4,%hi(.LC191)
	li	a3,8192
	addi	a4,a4,%lo(.LC191)
	addi	a3,a3,-1376
	addi	a2,s2,%lo(.LC1)
	li	a1,2
	mv	a0,s1
	.loc 1 6817 19 is_stmt 0
	li	s0,-28672
	.loc 1 6816 13
	call	mbedtls_debug_print_msg
.LVL1312:
	.loc 1 6817 13 is_stmt 1
	.loc 1 6817 19 is_stmt 0
	addi	s0,s0,1792
	j	.L1007
.L1023:
	.loc 1 6820 9 is_stmt 1
	.loc 1 6820 11 is_stmt 0
	li	a4,23
	beq	a5,a4,.L1024
	.loc 1 6822 13 is_stmt 1
	lui	a4,%hi(.LC192)
	li	a3,8192
	addi	a4,a4,%lo(.LC192)
	addi	a3,a3,-1370
	addi	a2,s2,%lo(.LC1)
	li	a1,1
	mv	a0,s1
	.loc 1 6823 19 is_stmt 0
	li	s0,-28672
	.loc 1 6822 13
	call	mbedtls_debug_print_msg
.LVL1313:
	.loc 1 6823 13 is_stmt 1
	.loc 1 6823 19 is_stmt 0
	addi	s0,s0,-1792
	j	.L1007
.L1024:
	.loc 1 6826 9 is_stmt 1
	.loc 1 6826 22 is_stmt 0
	lw	a5,100(s1)
	.loc 1 6830 11
	lw	a4,4(s1)
	.loc 1 6826 22
	sw	a5,104(s1)
	.loc 1 6830 9 is_stmt 1
	.loc 1 6830 11 is_stmt 0
	li	a5,16
	bne	a4,a5,.L1015
	.loc 1 6831 13 is_stmt 1
	li	a1,0
	mv	a0,s1
	call	ssl_set_timer
.LVL1314:
.L1015:
	.loc 1 6851 5
	.loc 1 6851 7 is_stmt 0
	lw	s0,112(s1)
	bleu	s0,s3,.L1026
	mv	s0,s3
.L1026:
.LVL1315:
	.loc 1 6854 5 is_stmt 1
	lw	a1,104(s1)
	mv	a2,s0
	mv	a0,s4
	call	memcpy
.LVL1316:
	.loc 1 6855 5
	.loc 1 6855 20 is_stmt 0
	lw	a4,112(s1)
	.loc 1 6859 22
	li	a5,0
	.loc 1 6855 20
	sub	a4,a4,s0
	sw	a4,112(s1)
	.loc 1 6857 5 is_stmt 1
	.loc 1 6857 7 is_stmt 0
	beq	a4,zero,.L1027
	.loc 1 6862 9 is_stmt 1
	.loc 1 6862 22 is_stmt 0
	lw	a5,104(s1)
	add	a5,a5,s0
.L1027:
	.loc 1 6864 5
	lui	a4,%hi(.LC193)
	li	a3,8192
	sw	a5,104(s1)
	.loc 1 6864 5 is_stmt 1
	addi	a4,a4,%lo(.LC193)
	addi	a3,a3,-1328
	addi	a2,s2,%lo(.LC1)
	li	a1,2
	mv	a0,s1
	call	mbedtls_debug_print_msg
.LVL1317:
	.loc 1 6866 5
	.loc 1 6866 13 is_stmt 0
	j	.L1007
.LVL1318:
.L1029:
	.loc 1 6622 15
	li	s0,-28672
	addi	s0,s0,-256
	j	.L1007
	.cfi_endproc
.LFE116:
	.size	mbedtls_ssl_read, .-mbedtls_ssl_read
	.section	.text.mbedtls_ssl_set_calc_verify_md,"ax",@progbits
	.align	1
	.globl	mbedtls_ssl_set_calc_verify_md
	.type	mbedtls_ssl_set_calc_verify_md, @function
mbedtls_ssl_set_calc_verify_md:
.LFB137:
	.loc 1 7766 1 is_stmt 1
	.cfi_startproc
.LVL1319:
	.loc 1 7768 5
	.loc 1 7768 7 is_stmt 0
	lw	a4,12(a0)
	li	a5,3
	bne	a4,a5,.L1050
	.loc 1 7771 5 is_stmt 1
	li	a5,4
	bne	a1,a5,.L1050
	.loc 1 7791 13
	.loc 1 7791 16 is_stmt 0
	lw	a4,48(a0)
	.loc 1 7791 41
	lui	a5,%hi(ssl_calc_verify_tls_sha256)
	addi	a5,a5,%lo(ssl_calc_verify_tls_sha256)
	sw	a5,200(a4)
	.loc 1 7792 13 is_stmt 1
	.loc 1 7798 5
	.loc 1 7798 12 is_stmt 0
	li	a0,0
.LVL1320:
	ret
.LVL1321:
.L1050:
	.loc 1 7769 16
	li	a0,-24576
.LVL1322:
	addi	a0,a0,-1536
	.loc 1 7805 1
	ret
	.cfi_endproc
.LFE137:
	.size	mbedtls_ssl_set_calc_verify_md, .-mbedtls_ssl_set_calc_verify_md
	.section	.rodata
	.align	2
.LC97:
	.string	""
	.string	""
	.string	""
	.string	""
	.section	.data.ssl_preset_default_hashes,"aw"
	.align	2
	.set	.LANCHOR5,. + 0
	.type	ssl_preset_default_hashes, @object
	.size	ssl_preset_default_hashes, 16
ssl_preset_default_hashes:
	.word	6
	.word	4
	.word	3
	.word	0
	.section	.data.ssl_preset_suiteb_ciphersuites,"aw"
	.align	2
	.set	.LANCHOR2,. + 0
	.type	ssl_preset_suiteb_ciphersuites, @object
	.size	ssl_preset_suiteb_ciphersuites, 12
ssl_preset_suiteb_ciphersuites:
	.word	49195
	.word	49196
	.word	0
	.section	.data.ssl_preset_suiteb_hashes,"aw"
	.align	2
	.set	.LANCHOR3,. + 0
	.type	ssl_preset_suiteb_hashes, @object
	.size	ssl_preset_suiteb_hashes, 12
ssl_preset_suiteb_hashes:
	.word	6
	.word	7
	.word	0
	.section	.rodata.CSWTCH.33,"a"
	.align	2
	.set	.LANCHOR1,. + 0
	.type	CSWTCH.33, @object
	.size	CSWTCH.33, 16
CSWTCH.33:
	.word	.LC194
	.word	.LC195
	.word	.LC196
	.word	.LC197
	.section	.rodata.mbedtls_ssl_check_cert_usage.str1.4,"aMS",@progbits,1
	.align	2
.LC55:
	.string	"+\006\001\005\005\007\003\001"
	.zero	3
.LC56:
	.string	"+\006\001\005\005\007\003\002"
	.section	.rodata.mbedtls_ssl_close_notify.str1.4,"aMS",@progbits,1
	.align	2
.LC119:
	.string	"=> write close notify"
	.zero	2
.LC120:
	.string	"mbedtls_ssl_send_alert_message"
	.zero	1
.LC121:
	.string	"<= write close notify"
	.section	.rodata.mbedtls_ssl_derive_keys.str1.4,"aMS",@progbits,1
	.align	2
.LC14:
	.string	"=> derive keys"
	.zero	1
.LC15:
	.string	"cipher info for %d not found"
	.zero	3
.LC16:
	.string	"mbedtls_md info for %d not found"
	.zero	3
.LC17:
	.string	"should never happen"
.LC18:
	.string	"premaster secret"
	.zero	3
.LC19:
	.string	"master secret"
	.zero	2
.LC20:
	.string	"prf"
.LC21:
	.string	"no premaster (session resumed)"
	.zero	1
.LC22:
	.string	"key expansion"
	.zero	2
.LC23:
	.string	"ciphersuite = %s"
	.zero	3
.LC24:
	.string	"random bytes"
	.zero	3
.LC25:
	.string	"key block"
	.zero	2
.LC26:
	.string	"mbedtls_md_setup"
	.zero	3
.LC27:
	.string	"keylen: %d, minlen: %d, ivlen: %d, maclen: %d"
	.zero	2
.LC28:
	.string	"mbedtls_cipher_setup"
	.zero	3
.LC29:
	.string	"mbedtls_cipher_setkey"
	.zero	2
.LC30:
	.string	"mbedtls_cipher_set_padding_mode"
.LC31:
	.string	"<= derive keys"
	.section	.rodata.mbedtls_ssl_fetch_input.str1.4,"aMS",@progbits,1
	.align	2
.LC81:
	.string	"=> fetch input"
	.zero	1
.LC82:
	.string	"requesting more data than fits"
	.zero	1
.LC83:
	.string	"You must use mbedtls_ssl_set_timer_cb() for DTLS"
	.zero	3
.LC84:
	.string	"next record in same datagram, offset: %d"
	.zero	3
.LC85:
	.string	"in_left: %d, nb_want: %d"
	.zero	3
.LC86:
	.string	"<= fetch input"
	.zero	1
.LC87:
	.string	"timeout"
.LC88:
	.string	"f_recv_timeout: %u ms"
	.zero	2
.LC89:
	.string	"ssl->f_recv(_timeout)"
	.zero	2
.LC90:
	.string	"handshake timeout"
	.zero	2
.LC91:
	.string	"mbedtls_ssl_resend"
	.section	.rodata.mbedtls_ssl_flush_output.str1.4,"aMS",@progbits,1
	.align	2
.LC32:
	.string	"=> flush output"
.LC33:
	.string	"Bad usage of mbedtls_ssl_set_bio() or mbedtls_ssl_set_bio()"
.LC34:
	.string	"<= flush output"
.LC35:
	.string	"message length: %d, out_left: %d"
	.zero	3
.LC36:
	.string	"ssl->f_send"
.LC37:
	.string	"outgoing message counter would wrap"
	.section	.rodata.mbedtls_ssl_free.str1.4,"aMS",@progbits,1
	.align	2
.LC53:
	.string	"=> free"
.LC54:
	.string	"<= free"
	.section	.rodata.mbedtls_ssl_get_version.str1.4,"aMS",@progbits,1
	.align	2
.LC39:
	.string	"DTLSv1.2"
	.zero	3
.LC40:
	.string	"unknown (DTLS)"
	.zero	1
.LC41:
	.string	"DTLSv1.0"
	.zero	3
.LC42:
	.string	"unknown"
	.section	.rodata.mbedtls_ssl_handle_message_type.str1.4,"aMS",@progbits,1
	.align	2
.LC113:
	.string	"got an alert message, type: [%d:%d]"
.LC114:
	.string	"is a fatal alert message (msg %d)"
	.zero	2
.LC115:
	.string	"is a close notify message"
	.zero	2
.LC116:
	.string	"is a SSLv3 no_cert"
	.section	.rodata.mbedtls_ssl_handshake.str1.4,"aMS",@progbits,1
	.align	2
.LC43:
	.string	"=> handshake"
	.zero	3
.LC44:
	.string	"<= handshake"
	.section	.rodata.mbedtls_ssl_handshake_wrapup.str1.4,"aMS",@progbits,1
	.align	2
.LC47:
	.string	"=> handshake wrapup"
.LC48:
	.string	"cache did not store session"
.LC49:
	.string	"skip freeing handshake and transform"
	.zero	3
.LC50:
	.string	"<= handshake wrapup"
	.section	.rodata.mbedtls_ssl_parse_certificate.str1.4,"aMS",@progbits,1
	.align	2
.LC172:
	.string	"=> parse certificate"
	.zero	3
.LC173:
	.string	"<= skip parse certificate"
	.zero	2
.LC174:
	.string	"mbedtls_ssl_read_record"
.LC175:
	.string	"bad certificate message"
.LC176:
	.string	" mbedtls_x509_crt_parse_der"
.LC177:
	.string	"peer certificate"
	.zero	3
.LC178:
	.string	"got no CA chain"
.LC179:
	.string	"x509_verify_cert"
	.zero	3
.LC180:
	.string	"bad certificate (EC key curve)"
	.zero	1
.LC181:
	.string	"bad certificate (usage extensions)"
	.zero	1
.LC182:
	.string	"<= parse certificate"
	.section	.rodata.mbedtls_ssl_parse_change_cipher_spec.str1.4,"aMS",@progbits,1
	.align	2
.LC183:
	.string	"=> parse change cipher spec"
.LC184:
	.string	"bad change cipher spec message"
	.zero	1
.LC185:
	.string	"switching to new transform spec for inbound data"
	.zero	3
.LC186:
	.string	"<= parse change cipher spec"
	.section	.rodata.mbedtls_ssl_parse_finished.str1.4,"aMS",@progbits,1
	.align	2
.LC187:
	.string	"=> parse finished"
	.zero	2
.LC188:
	.string	"bad finished message"
	.zero	3
.LC189:
	.string	"<= parse finished"
	.section	.rodata.mbedtls_ssl_prepare_handshake_record.str1.4,"aMS",@progbits,1
	.align	2
.LC92:
	.string	"handshake message too short: %d"
.LC93:
	.string	"handshake message: msglen = %d, type = %d, hslen = %d"
	.zero	2
.LC94:
	.string	"received message from last flight, message_seq = %d, start_of_flight = %d"
	.zero	2
.LC95:
	.string	"dropping out-of-sequence message: message_seq = %d, expected = %d"
	.zero	2
.LC96:
	.string	"found fragmented DTLS handshake message"
.LC98:
	.string	"not supported outside handshake (for now)"
	.zero	2
.LC99:
	.string	"initialize reassembly, total length = %d"
	.zero	3
.LC100:
	.string	"handshake message too large"
.LC101:
	.string	"alloc failed (%d bytes)"
.LC102:
	.string	"fragment header mismatch"
	.zero	3
.LC103:
	.string	"invalid fragment offset/len: %d + %d > %d"
	.zero	2
.LC104:
	.string	"invalid fragment length: %d + 12 > %d"
	.zero	2
.LC105:
	.string	"adding fragment, offset = %d, length = %d"
	.zero	2
.LC106:
	.string	"last fragment not alone in its record"
	.zero	2
.LC107:
	.string	"reassembled message too large for buffer"
	.zero	3
.LC108:
	.string	"reassembled handshake message"
	.zero	2
.LC109:
	.string	"ssl_reassemble_dtls_handshake"
	.zero	2
.LC110:
	.string	"TLS handshake fragmentation not supported"
	.zero	2
.LC111:
	.string	"message is not complete yet"
.LC112:
	.string	"handshake message completed"
	.section	.rodata.mbedtls_ssl_read.str1.4,"aMS",@progbits,1
	.align	2
.LC190:
	.string	"=> read"
.LC191:
	.string	"ignoring non-fatal non-closure alert"
	.zero	3
.LC192:
	.string	"bad application data message"
	.zero	3
.LC193:
	.string	"<= read"
	.section	.rodata.mbedtls_ssl_read_record.str1.4,"aMS",@progbits,1
	.align	2
.LC168:
	.string	"=> read record"
	.zero	1
.LC169:
	.string	"mbedtls_ssl_read_record_layer"
	.zero	2
.LC170:
	.string	"mbedtls_ssl_handle_message_type"
.LC171:
	.string	"<= read record"
	.section	.rodata.mbedtls_ssl_read_record_layer.str1.4,"aMS",@progbits,1
	.align	2
.LC138:
	.string	"remaining content in record"
.LC139:
	.string	"mbedtls_ssl_fetch_input"
.LC140:
	.string	"input record header"
.LC141:
	.string	"input record: msgtype = %d, version = [%d:%d], msglen = %d"
	.zero	1
.LC142:
	.string	"unknown record type"
.LC143:
	.string	"major version mismatch"
	.zero	1
.LC144:
	.string	"minor version mismatch"
	.zero	1
.LC145:
	.string	"bad message length"
	.zero	1
.LC146:
	.string	"dropping unexpected ChangeCipherSpec"
	.zero	3
.LC147:
	.string	"dropping unexpected ApplicationData"
.LC148:
	.string	"record from another epoch: expected %d, received %d"
.LC149:
	.string	"discarding unexpected record (header)"
	.zero	2
.LC150:
	.string	"discarding invalid record (header)"
	.zero	1
.LC151:
	.string	"input record from network"
	.zero	2
.LC152:
	.string	"=> decrypt buf"
	.zero	1
.LC153:
	.string	"in_msglen (%d) < minlen (%d)"
	.zero	3
.LC154:
	.string	"msglen (%d) < explicit_iv_len (%d) + taglen (%d)"
	.zero	3
.LC155:
	.string	"TAG used"
	.zero	3
.LC156:
	.string	"mbedtls_cipher_auth_decrypt"
.LC157:
	.string	"msglen (%d) < max( ivlen(%d), maclen (%d) + 1 ) ( + expl IV )"
	.zero	2
.LC158:
	.string	"msglen (%d) %% ivlen (%d) != 0"
	.zero	1
.LC159:
	.string	"raw buffer after decryption"
.LC160:
	.string	"message  mac"
	.zero	3
.LC161:
	.string	"received four consecutive empty messages, possible DoS attack"
	.zero	2
.LC162:
	.string	"incoming message counter would wrap"
.LC163:
	.string	"<= decrypt buf"
	.zero	1
.LC164:
	.string	"input payload after decrypt"
.LC165:
	.string	"ssl_decrypt_buf"
.LC166:
	.string	"discarding invalid record (mac)"
.LC167:
	.string	"received retransmit of last flight"
	.section	.rodata.mbedtls_ssl_resend.str1.4,"aMS",@progbits,1
	.align	2
.LC76:
	.string	"=> mbedtls_ssl_resend"
	.zero	2
.LC77:
	.string	"initialise resending"
	.zero	3
.LC78:
	.string	"resent handshake message header"
.LC79:
	.string	"mbedtls_ssl_write_record"
	.zero	3
.LC80:
	.string	"<= mbedtls_ssl_resend"
	.section	.rodata.mbedtls_ssl_send_alert_message.str1.4,"aMS",@progbits,1
	.align	2
.LC117:
	.string	"=> send alert message"
	.zero	2
.LC118:
	.string	"<= send alert message"
	.section	.rodata.mbedtls_ssl_send_flight_completed.str1.4,"aMS",@progbits,1
	.align	2
.LC38:
	.string	"update timeout value to %d millisecs"
	.section	.rodata.mbedtls_ssl_setup.str1.4,"aMS",@progbits,1
	.align	2
.LC52:
	.string	"alloc(%d bytes) failed"
	.section	.rodata.mbedtls_ssl_write.str1.4,"aMS",@progbits,1
	.align	2
.LC133:
	.string	"=> write"
	.zero	3
.LC134:
	.string	"mbedtls_ssl_handshake"
	.zero	2
.LC135:
	.string	"fragment larger than the (negotiated) maximum fragment length: %d > %d"
	.zero	1
.LC136:
	.string	"input larger than the out msg maximum length: 0x%x > 0x%x"
	.zero	2
.LC137:
	.string	"<= write"
	.section	.rodata.mbedtls_ssl_write_certificate.str1.4,"aMS",@progbits,1
	.align	2
.LC122:
	.string	"=> write certificate"
	.zero	3
.LC123:
	.string	"<= skip write certificate"
	.zero	2
.LC124:
	.string	"own certificate"
.LC125:
	.string	"certificate too large, %d > %d"
	.zero	1
.LC126:
	.string	"<= write certificate"
	.section	.rodata.mbedtls_ssl_write_change_cipher_spec.str1.4,"aMS",@progbits,1
	.align	2
.LC127:
	.string	"=> write change cipher spec"
.LC128:
	.string	"<= write change cipher spec"
	.section	.rodata.mbedtls_ssl_write_finished.str1.4,"aMS",@progbits,1
	.align	2
.LC129:
	.string	"=> write finished"
	.zero	2
.LC130:
	.string	"switching to new transform spec for outbound data"
	.zero	2
.LC131:
	.string	"DTLS epoch would wrap"
	.zero	2
.LC132:
	.string	"<= write finished"
	.section	.rodata.mbedtls_ssl_write_record.str1.4,"aMS",@progbits,1
	.align	2
.LC57:
	.string	"=> write record"
.LC58:
	.string	"alloc %d bytes failed"
	.zero	2
.LC59:
	.string	"ssl_flight_append"
	.zero	2
.LC60:
	.string	"=> encrypt buf"
	.zero	1
.LC61:
	.string	"before encrypt: output payload"
	.zero	1
.LC62:
	.string	"computed mac"
	.zero	3
.LC63:
	.string	"additional data used for AEAD"
	.zero	2
.LC64:
	.string	"IV used"
.LC65:
	.string	"before encrypt: msglen = %d, including %d bytes of padding"
	.zero	1
.LC66:
	.string	"mbedtls_cipher_auth_encrypt"
.LC67:
	.string	"after encrypt: tag"
	.zero	1
.LC68:
	.string	"before encrypt: msglen = %d, including %d bytes of IV and %d bytes of padding"
	.zero	2
.LC69:
	.string	"mbedtls_cipher_crypt"
	.zero	3
.LC70:
	.string	"<= encrypt buf"
	.zero	1
.LC71:
	.string	"ssl_encrypt_buf"
.LC72:
	.string	"output record: msgtype = %d, version = [%d:%d], msglen = %d"
.LC73:
	.string	"output record sent to network"
	.zero	2
.LC74:
	.string	"mbedtls_ssl_flush_output"
	.zero	3
.LC75:
	.string	"<= write record"
	.section	.rodata.mfl_code_to_length,"a"
	.align	2
	.set	.LANCHOR0,. + 0
	.type	mfl_code_to_length, @object
	.size	mfl_code_to_length, 20
mfl_code_to_length:
	.word	16384
	.word	512
	.word	1024
