	.file	"bl_irqs.c"
	.option nopic
	.attribute arch, "rv32i2p0_m2p0_f2p0_c2p0"
	.attribute unaligned_access, 0
	.attribute stack_align, 16
	.text
.Ltext0:
	.cfi_sections	.debug_frame
	.section	.text.bl_irqs_init,"ax",@progbits
	.align	1
	.globl	bl_irqs_init
	.type	bl_irqs_init, @function
bl_irqs_init:
.LFB32:
	.file 1 "/b-l/bl_iot_sdk_new/components/bl602/bl602_wifidrv/bl60x_wifi_driver/bl_irqs.c"
	.loc 1 57 1
	.cfi_startproc
.LVL0:
	.loc 1 58 5
	.loc 1 60 5
	.loc 1 61 1 is_stmt 0
	li	a0,0
.LVL1:
	ret
	.cfi_endproc
.LFE32:
	.size	bl_irqs_init, .-bl_irqs_init
	.section	.text.bl_irqs_enable,"ax",@progbits
	.align	1
	.globl	bl_irqs_enable
	.type	bl_irqs_enable, @function
bl_irqs_enable:
.LFB33:
	.loc 1 64 1 is_stmt 1
	.cfi_startproc
	.loc 1 65 5
	.loc 1 66 1 is_stmt 0
	li	a0,0
	ret
	.cfi_endproc
.LFE33:
	.size	bl_irqs_enable, .-bl_irqs_enable
	.section	.text.bl_irqs_disable,"ax",@progbits
	.align	1
	.globl	bl_irqs_disable
	.type	bl_irqs_disable, @function
bl_irqs_disable:
.LFB37:
	.cfi_startproc
	li	a0,0
	ret
	.cfi_endproc
.LFE37:
	.size	bl_irqs_disable, .-bl_irqs_disable
	.section	.text.bl_irq_bottomhalf,"ax",@progbits
	.align	1
	.globl	bl_irq_bottomhalf
	.type	bl_irq_bottomhalf, @function
bl_irq_bottomhalf:
.LFB35:
	.loc 1 74 1 is_stmt 1
	.cfi_startproc
.LVL2:
	.loc 1 75 5
	.loc 1 76 5
	.loc 1 74 1 is_stmt 0
	addi	sp,sp,-16
	.cfi_def_cfa_offset 16
	sw	ra,12(sp)
	sw	s0,8(sp)
	sw	s1,4(sp)
	.cfi_offset 1, -4
	.cfi_offset 8, -8
	.cfi_offset 9, -12
	.loc 1 74 1
	mv	s0,a0
	.loc 1 76 25
	call	xTaskGetTickCount
.LVL3:
	.loc 1 78 5 is_stmt 1
	.loc 1 78 9
	.loc 1 79 5
	.loc 1 79 14 is_stmt 0
	lw	a0,52(s0)
	.loc 1 75 17
	li	s1,0
	.loc 1 79 14
	call	ipc_host_get_rawstatus
.LVL4:
.L5:
	.loc 1 82 11
	bne	a0,zero,.L6
	.loc 1 89 5 is_stmt 1
	.loc 1 89 9
	.loc 1 90 5
	.loc 1 90 11 is_stmt 0
	call	xTaskGetTickCount
.LVL5:
	.loc 1 91 5 is_stmt 1
	.loc 1 91 18 is_stmt 0
	andi	a5,s1,8
	.loc 1 91 8
	beq	a5,zero,.L7
	.loc 1 92 9 is_stmt 1
	.loc 1 92 30 is_stmt 0
	sw	a0,60(s0)
.L7:
	.loc 1 94 5 is_stmt 1
	.loc 1 94 18 is_stmt 0
	andi	a5,s1,1920
	.loc 1 94 8
	beq	a5,zero,.L8
	.loc 1 95 9 is_stmt 1
	.loc 1 95 30 is_stmt 0
	sw	a0,64(s0)
.L8:
	.loc 1 97 5 is_stmt 1
	.loc 1 97 9
	.loc 1 99 5
	lw	a0,52(s0)
.LVL6:
	li	a1,2047
	call	ipc_host_enable_irq
.LVL7:
	.loc 1 101 5
	.loc 1 101 14 is_stmt 0
	lw	a0,52(s0)
	call	ipc_host_get_rawstatus
.LVL8:
	.loc 1 102 5 is_stmt 1
	.loc 1 102 8 is_stmt 0
	bne	a0,zero,.L5
	.loc 1 105 1
	lw	ra,12(sp)
	.cfi_remember_state
	.cfi_restore 1
	lw	s0,8(sp)
	.cfi_restore 8
.LVL9:
	lw	s1,4(sp)
	.cfi_restore 9
.LVL10:
	addi	sp,sp,16
	.cfi_def_cfa_offset 0
	jr	ra
.LVL11:
.L6:
	.cfi_restore_state
	.loc 1 83 9 is_stmt 1
	.loc 1 86 9 is_stmt 0
	mv	a1,a0
	.loc 1 83 18
	or	s1,s1,a0
.LVL12:
	.loc 1 86 9 is_stmt 1
	lw	a0,52(s0)
.LVL13:
	call	ipc_host_irq
.LVL14:
	.loc 1 87 9
	.loc 1 87 18 is_stmt 0
	lw	a0,52(s0)
	call	ipc_host_get_rawstatus
.LVL15:
	j	.L5
	.cfi_endproc
.LFE35:
	.size	bl_irq_bottomhalf, .-bl_irq_bottomhalf
	.comm	cfg_start_req_u_tlv_t,12,4
	.text
.Letext0:
	.file 2 "/b-l/bl_iot_sdk_new/toolchain/riscv/Linux/lib/gcc/riscv64-unknown-elf/8.3.0/include/stdint-gcc.h"
	.file 3 "/b-l/bl_iot_sdk_new/toolchain/riscv/Linux/lib/gcc/riscv64-unknown-elf/8.3.0/include/stddef.h"
	.file 4 "/b-l/bl_iot_sdk_new/toolchain/riscv/Linux/riscv64-unknown-elf/include/sys/_types.h"
	.file 5 "/b-l/bl_iot_sdk_new/toolchain/riscv/Linux/riscv64-unknown-elf/include/sys/reent.h"
	.file 6 "/b-l/bl_iot_sdk_new/toolchain/riscv/Linux/riscv64-unknown-elf/include/sys/lock.h"
	.file 7 "/b-l/bl_iot_sdk_new/components/bl602/bl602_wifidrv/bl60x_wifi_driver/lmac_types.h"
	.file 8 "/b-l/bl_iot_sdk_new/components/bl602/bl602_wifidrv/bl60x_wifi_driver/lmac_mac.h"
	.file 9 "/b-l/bl_iot_sdk_new/components/bl602/bl602_wifidrv/bl60x_wifi_driver/ipc_shared.h"
	.file 10 "/b-l/bl_iot_sdk_new/components/bl602/bl602_wifidrv/bl60x_wifi_driver/ipc_host.h"
	.file 11 "/b-l/bl_iot_sdk_new/components/bl602/bl602_wifidrv/bl60x_wifi_driver/list.h"
	.file 12 "/b-l/bl_iot_sdk_new/components/bl602/bl602_wifidrv/bl60x_wifi_driver/lmac_msg.h"
	.file 13 "/b-l/bl_iot_sdk_new/components/bl602/freertos_riscv_ram/portable/GCC/RISC-V/portmacro.h"
	.file 14 "/b-l/bl_iot_sdk_new/components/bl602/freertos_riscv_ram/config/FreeRTOS.h"
	.file 15 "/b-l/bl_iot_sdk_new/components/bl602/freertos_riscv_ram/config/queue.h"
	.file 16 "/b-l/bl_iot_sdk_new/components/bl602/freertos_riscv_ram/config/semphr.h"
	.file 17 "/b-l/bl_iot_sdk_new/components/bl602/bl602_wifidrv/bl60x_wifi_driver/os_hal.h"
	.file 18 "/b-l/bl_iot_sdk_new/components/bl602/bl602_wifidrv/bl60x_wifi_driver/bl_cmds.h"
	.file 19 "/b-l/bl_iot_sdk_new/components/bl602/bl602_wifidrv/bl60x_wifi_driver/bl_defs.h"
	.file 20 "/b-l/bl_iot_sdk_new/components/bl602/bl602_wifidrv/bl60x_wifi_driver/ieee80211.h"
	.file 21 "/b-l/bl_iot_sdk_new/components/bl602/bl602_wifidrv/bl60x_wifi_driver/cfg80211.h"
	.file 22 "/b-l/bl_iot_sdk_new/components/bl602/bl602_wifidrv/bl60x_wifi_driver/bl_mod_params.h"
	.file 23 "/b-l/bl_iot_sdk_new/components/bl602/freertos_riscv_ram/config/task.h"