	.file	"bl_main.c"
	.option nopic
	.attribute arch, "rv32i2p0_m2p0_f2p0_c2p0"
	.attribute unaligned_access, 0
	.attribute stack_align, 16
	.text
.Ltext0:
	.cfi_sections	.debug_frame
	.section	.text.bl_open,"ax",@progbits
	.align	1
	.globl	bl_open
	.type	bl_open, @function
bl_open:
.LFB52:
	.file 1 "/b-l/bl_iot_sdk_new/components/bl602/bl602_wifidrv/bl60x_wifi_driver/bl_main.c"
	.loc 1 99 1
	.cfi_startproc
.LVL0:
	.loc 1 185 5
	.loc 1 187 1 is_stmt 0
	li	a0,0
.LVL1:
	ret
	.cfi_endproc
.LFE52:
	.size	bl_open, .-bl_open
	.section	.text.bl_main_disconnect,"ax",@progbits
	.align	1
	.globl	bl_main_disconnect
	.type	bl_main_disconnect, @function
bl_main_disconnect:
.LFB54:
	.loc 1 219 1 is_stmt 1
	.cfi_startproc
	.loc 1 220 5
	lui	a0,%hi(wifi_hw)
	.loc 1 219 1 is_stmt 0
	addi	sp,sp,-16
	.cfi_def_cfa_offset 16
	.loc 1 220 5
	li	a1,52
	addi	a0,a0,%lo(wifi_hw)
	.loc 1 219 1
	sw	ra,12(sp)
	.cfi_offset 1, -4
	.loc 1 220 5
	call	bl_send_sm_disconnect_req
.LVL2:
	.loc 1 221 5 is_stmt 1
	.loc 1 222 1 is_stmt 0
	lw	ra,12(sp)
	.cfi_restore 1
	li	a0,0
	addi	sp,sp,16
	.cfi_def_cfa_offset 0
	jr	ra
	.cfi_endproc
.LFE54:
	.size	bl_main_disconnect, .-bl_main_disconnect
	.section	.text.bl_main_powersaving,"ax",@progbits
	.align	1
	.globl	bl_main_powersaving
	.type	bl_main_powersaving, @function
bl_main_powersaving:
.LFB55:
	.loc 1 225 1 is_stmt 1
	.cfi_startproc
.LVL3:
	.loc 1 226 5
	.loc 1 226 12 is_stmt 0
	mv	a1,a0
	lui	a0,%hi(wifi_hw)
.LVL4:
	addi	a0,a0,%lo(wifi_hw)
	tail	bl_send_mm_powersaving_req
.LVL5:
	.cfi_endproc
.LFE55:
	.size	bl_main_powersaving, .-bl_main_powersaving
	.section	.text.bl_main_denoise,"ax",@progbits
	.align	1
	.globl	bl_main_denoise
	.type	bl_main_denoise, @function
bl_main_denoise:
.LFB56:
	.loc 1 230 1 is_stmt 1
	.cfi_startproc
.LVL6:
	.loc 1 231 5
	.loc 1 231 12 is_stmt 0
	mv	a1,a0
	lui	a0,%hi(wifi_hw)
.LVL7:
	addi	a0,a0,%lo(wifi_hw)
	tail	bl_send_mm_denoise_req
.LVL8:
	.cfi_endproc
.LFE56:
	.size	bl_main_denoise, .-bl_main_denoise
	.section	.text.bl_main_monitor,"ax",@progbits
	.align	1
	.globl	bl_main_monitor
	.type	bl_main_monitor, @function
bl_main_monitor:
.LFB57:
	.loc 1 235 1 is_stmt 1
	.cfi_startproc
	.loc 1 236 5
	.loc 1 238 5
	.loc 1 235 1 is_stmt 0
	addi	sp,sp,-64
	.cfi_def_cfa_offset 64
	.loc 1 238 5
	li	a2,40
	li	a1,0
	addi	a0,sp,8
	.loc 1 235 1
	sw	ra,60(sp)
	.cfi_offset 1, -4
	.loc 1 238 5
	call	memset
.LVL9:
	.loc 1 239 5 is_stmt 1
	lui	a0,%hi(wifi_hw)
	addi	a1,sp,8
	addi	a0,a0,%lo(wifi_hw)
	call	bl_send_monitor_enable
.LVL10:
	.loc 1 240 5
	.loc 1 241 1 is_stmt 0
	lw	ra,60(sp)
	.cfi_restore 1
	li	a0,0
	addi	sp,sp,64
	.cfi_def_cfa_offset 0
	jr	ra
	.cfi_endproc
.LFE57:
	.size	bl_main_monitor, .-bl_main_monitor
	.section	.text.bl_main_phy_up,"ax",@progbits
	.align	1
	.globl	bl_main_phy_up
	.type	bl_main_phy_up, @function
bl_main_phy_up:
.LFB58:
	.loc 1 244 1 is_stmt 1
	.cfi_startproc
	.loc 1 245 5
.LVL11:
	.loc 1 247 5
	.loc 1 244 1 is_stmt 0
	addi	sp,sp,-16
	.cfi_def_cfa_offset 16
	sw	s0,8(sp)
	.cfi_offset 8, -8
	.loc 1 247 13
	lui	s0,%hi(wifi_hw)
	addi	a0,s0,%lo(wifi_hw)
	.loc 1 244 1
	sw	ra,12(sp)
	.cfi_offset 1, -4
	.loc 1 247 13
	call	bl_send_start
.LVL12:
	.loc 1 248 5 is_stmt 1
	.loc 1 248 8 is_stmt 0
	bne	a0,zero,.L10
	.loc 1 251 5 is_stmt 1
	.loc 1 251 23 is_stmt 0
	li	a5,4096
	addi	s0,s0,%lo(wifi_hw)
	add	s0,s0,a5
	lw	a5,-544(s0)
	ori	a5,a5,4
	sw	a5,-544(s0)
	.loc 1 253 5 is_stmt 1
.LVL13:
.L8:
	.loc 1 254 1 is_stmt 0
	lw	ra,12(sp)
	.cfi_remember_state
	.cfi_restore 1
	lw	s0,8(sp)
	.cfi_restore 8
	addi	sp,sp,16
	.cfi_def_cfa_offset 0
	jr	ra
.LVL14:
.L10:
	.cfi_restore_state
	.loc 1 249 16
	li	a0,-1
.LVL15:
	j	.L8
	.cfi_endproc
.LFE58:
	.size	bl_main_phy_up, .-bl_main_phy_up
	.section	.text.bl_main_channel_set,"ax",@progbits
	.align	1
	.globl	bl_main_channel_set
	.type	bl_main_channel_set, @function
bl_main_channel_set:
.LFB59:
	.loc 1 257 1 is_stmt 1
	.cfi_startproc
.LVL16:
	.loc 1 258 5
	mv	a1,a0
	lui	a0,%hi(wifi_hw)
.LVL17:
	.loc 1 257 1 is_stmt 0
	addi	sp,sp,-16
	.cfi_def_cfa_offset 16
	.loc 1 258 5
	addi	a0,a0,%lo(wifi_hw)
	.loc 1 257 1
	sw	ra,12(sp)
	.cfi_offset 1, -4
	.loc 1 258 5
	call	bl_send_channel_set_req
.LVL18:
	.loc 1 260 5 is_stmt 1
	.loc 1 261 1 is_stmt 0
	lw	ra,12(sp)
	.cfi_restore 1
	li	a0,0
	addi	sp,sp,16
	.cfi_def_cfa_offset 0
	jr	ra
	.cfi_endproc
.LFE59:
	.size	bl_main_channel_set, .-bl_main_channel_set
	.section	.text.bl_main_monitor_channel_set,"ax",@progbits
	.align	1
	.globl	bl_main_monitor_channel_set
	.type	bl_main_monitor_channel_set, @function
bl_main_monitor_channel_set:
.LFB60:
	.loc 1 264 1 is_stmt 1
	.cfi_startproc
.LVL19:
	.loc 1 265 5
	.loc 1 267 5
	.loc 1 264 1 is_stmt 0
	addi	sp,sp,-64
	.cfi_def_cfa_offset 64
	.loc 1 267 5
	mv	a2,a0
	lui	a0,%hi(wifi_hw)
.LVL20:
	mv	a3,a1
	addi	a0,a0,%lo(wifi_hw)
	addi	a1,sp,8
.LVL21:
	.loc 1 264 1
	sw	ra,60(sp)
	.cfi_offset 1, -4
	.loc 1 267 5
	call	bl_send_monitor_channel_set
.LVL22:
	.loc 1 269 5 is_stmt 1
	.loc 1 270 1 is_stmt 0
	lw	ra,60(sp)
	.cfi_restore 1
	li	a0,0
	addi	sp,sp,64
	.cfi_def_cfa_offset 0
	jr	ra
	.cfi_endproc
.LFE60:
	.size	bl_main_monitor_channel_set, .-bl_main_monitor_channel_set
	.section	.text.bl_main_if_remove,"ax",@progbits
	.align	1
	.globl	bl_main_if_remove
	.type	bl_main_if_remove, @function
bl_main_if_remove:
.LFB61:
	.loc 1 273 1 is_stmt 1
	.cfi_startproc
.LVL23:
	.loc 1 274 5
	.loc 1 273 1 is_stmt 0
	addi	sp,sp,-16
	.cfi_def_cfa_offset 16
	sw	s0,8(sp)
	.loc 1 274 5
	mv	a1,a0
	.cfi_offset 8, -8
	.loc 1 273 1
	mv	s0,a0
	.loc 1 274 5
	lui	a0,%hi(.LC0)
.LVL24:
	addi	a0,a0,%lo(.LC0)
	.loc 1 273 1
	sw	ra,12(sp)
	.cfi_offset 1, -4
	.loc 1 274 5
	call	printf
.LVL25:
	.loc 1 275 5 is_stmt 1
	lui	a0,%hi(wifi_hw)
	mv	a1,s0
	addi	a0,a0,%lo(wifi_hw)
	call	bl_send_remove_if
.LVL26:
	.loc 1 276 5
	lui	a0,%hi(.LC1)
	addi	a0,a0,%lo(.LC1)
	call	printf
.LVL27:
	.loc 1 277 5
	.loc 1 278 1 is_stmt 0
	lw	ra,12(sp)
	.cfi_restore 1
	lw	s0,8(sp)
	.cfi_restore 8
	li	a0,0
	addi	sp,sp,16
	.cfi_def_cfa_offset 0
	jr	ra
	.cfi_endproc
.LFE61:
	.size	bl_main_if_remove, .-bl_main_if_remove
	.section	.text.bl_main_raw_send,"ax",@progbits
	.align	1
	.globl	bl_main_raw_send
	.type	bl_main_raw_send, @function
bl_main_raw_send:
.LFB62:
	.loc 1 281 1 is_stmt 1
	.cfi_startproc
.LVL28:
	.loc 1 282 5
	.loc 1 282 12 is_stmt 0
	mv	a2,a1
	mv	a1,a0
.LVL29:
	lui	a0,%hi(wifi_hw)
.LVL30:
	addi	a0,a0,%lo(wifi_hw)
	tail	bl_send_scanu_raw_send
.LVL31:
	.cfi_endproc
.LFE62:
	.size	bl_main_raw_send, .-bl_main_raw_send
	.section	.text.bl_main_rate_config,"ax",@progbits
	.align	1
	.globl	bl_main_rate_config
	.type	bl_main_rate_config, @function
bl_main_rate_config:
.LFB63:
	.loc 1 286 1 is_stmt 1
	.cfi_startproc
.LVL32:
	.loc 1 287 5
	.loc 1 287 12 is_stmt 0
	mv	a2,a1
	mv	a1,a0
.LVL33:
	lui	a0,%hi(wifi_hw)
.LVL34:
	addi	a0,a0,%lo(wifi_hw)
	tail	bl_send_me_rate_config_req
.LVL35:
	.cfi_endproc
.LFE63:
	.size	bl_main_rate_config, .-bl_main_rate_config
	.section	.text.bl_main_set_country_code,"ax",@progbits
	.align	1
	.globl	bl_main_set_country_code
	.type	bl_main_set_country_code, @function
bl_main_set_country_code:
.LFB64:
	.loc 1 291 1 is_stmt 1
	.cfi_startproc
.LVL36:
	.loc 1 292 5
	.loc 1 293 5
	.loc 1 291 1 is_stmt 0
	addi	sp,sp,-16
	.cfi_def_cfa_offset 16
	sw	ra,12(sp)
	.cfi_offset 1, -4
	.loc 1 293 5
	call	bl_msg_update_channel_cfg
.LVL37:
	.loc 1 294 5 is_stmt 1
	lui	a0,%hi(wifi_hw)
	addi	a0,a0,%lo(wifi_hw)
	call	bl_send_me_chan_config_req
.LVL38:
	.loc 1 296 5
	.loc 1 297 1 is_stmt 0
	lw	ra,12(sp)
	.cfi_restore 1
	li	a0,0
	addi	sp,sp,16
	.cfi_def_cfa_offset 0
	jr	ra
	.cfi_endproc
.LFE64:
	.size	bl_main_set_country_code, .-bl_main_set_country_code
	.section	.text.bl_main_get_channel_nums,"ax",@progbits
	.align	1
	.globl	bl_main_get_channel_nums
	.type	bl_main_get_channel_nums, @function
bl_main_get_channel_nums:
.LFB65:
	.loc 1 300 1 is_stmt 1
	.cfi_startproc
	.loc 1 301 5
	.loc 1 301 12 is_stmt 0
	tail	bl_msg_get_channel_nums
.LVL39:
	.cfi_endproc
.LFE65:
	.size	bl_main_get_channel_nums, .-bl_main_get_channel_nums
	.section	.text.bl_main_if_add,"ax",@progbits
	.align	1
	.globl	bl_main_if_add
	.type	bl_main_if_add, @function
bl_main_if_add:
.LFB66:
	.loc 1 305 1 is_stmt 1
	.cfi_startproc
.LVL40:
	.loc 1 306 5
	.loc 1 307 5
	.loc 1 309 5
	.loc 1 305 1 is_stmt 0
	addi	sp,sp,-48
	.cfi_def_cfa_offset 48
	sw	s2,32(sp)
	sw	s3,28(sp)
	sw	s4,24(sp)
	sw	ra,44(sp)
	sw	s0,40(sp)
	sw	s1,36(sp)
	.cfi_offset 18, -16
	.cfi_offset 19, -20
	.cfi_offset 20, -24
	.cfi_offset 1, -4
	.cfi_offset 8, -8
	.cfi_offset 9, -12
	.loc 1 305 1
	mv	s3,a0
	mv	s2,a1
	mv	s4,a2
	.loc 1 309 5
	bne	a0,zero,.L30
	lui	a1,%hi(.LC3)
.LVL41:
	addi	a1,a1,%lo(.LC3)
.L24:
	.loc 1 309 5 discriminator 4
	lui	a0,%hi(.LC4)
.LVL42:
	addi	a0,a0,%lo(.LC4)
	call	printf
.LVL43:
	.loc 1 310 5 is_stmt 1 discriminator 4
	.loc 1 310 13 is_stmt 0 discriminator 4
	seqz	a2,s3
	lui	s0,%hi(wifi_hw)
	addi	a4,sp,12
	li	a3,0
	addi	a2,a2,2
	addi	a1,s2,58
	addi	a0,s0,%lo(wifi_hw)
	call	bl_send_add_if
.LVL44:
	mv	s1,a0
.LVL45:
	.loc 1 317 5 is_stmt 1 discriminator 4
	lui	a0,%hi(.LC5)
	addi	a0,a0,%lo(.LC5)
	call	printf
.LVL46:
	.loc 1 318 5 discriminator 4
	.loc 1 318 8 is_stmt 0 discriminator 4
	bne	s1,zero,.L23
	.loc 1 322 5 is_stmt 1
	.loc 1 322 19 is_stmt 0
	lbu	a2,12(sp)
	.loc 1 322 8
	beq	a2,zero,.L27
	.loc 1 323 9 is_stmt 1
	lui	a1,%hi(.LC6)
	lui	a0,%hi(.LC7)
	addi	a1,a1,%lo(.LC6)
	addi	a0,a0,%lo(.LC7)
	call	printf
.LVL47:
	.loc 1 324 9
	.loc 1 324 16 is_stmt 0
	li	s1,-5
.LVL48:
.L23:
	.loc 1 339 1
	lw	ra,44(sp)
	.cfi_remember_state
	.cfi_restore 1
	lw	s0,40(sp)
	.cfi_restore 8
	mv	a0,s1
	lw	s2,32(sp)
	.cfi_restore 18
.LVL49:
	lw	s1,36(sp)
	.cfi_restore 9
	lw	s3,28(sp)
	.cfi_restore 19
.LVL50:
	lw	s4,24(sp)
	.cfi_restore 20
.LVL51:
	addi	sp,sp,48
	.cfi_def_cfa_offset 0
	jr	ra
.LVL52:
.L30:
	.cfi_restore_state
	.loc 1 309 5
	lui	a1,%hi(.LC2)
.LVL53:
	addi	a1,a1,%lo(.LC2)
	j	.L24
.LVL54:
.L27:
	.loc 1 327 5 is_stmt 1
	lui	a5,%hi(wifi_hw+4096)
	lbu	a1,13(sp)
	addi	s0,s0,%lo(wifi_hw)
	addi	a5,a5,%lo(wifi_hw+4096)
	.loc 1 327 8 is_stmt 0
	beq	s3,zero,.L28
	.loc 1 328 9 is_stmt 1
	.loc 1 328 31 is_stmt 0
	sw	a1,-484(a5)
.L29:
	.loc 1 332 5 is_stmt 1
	.loc 1 334 5 is_stmt 0
	lui	a0,%hi(.LC8)
	.loc 1 332 16
	sb	a1,0(s4)
	.loc 1 334 5 is_stmt 1
	addi	a0,a0,%lo(.LC8)
	call	printf
.LVL55:
	.loc 1 335 5
	.loc 1 335 33 is_stmt 0
	lbu	a5,13(sp)
	.loc 1 335 48
	li	a4,196
	mul	a5,a5,a4
	add	s0,s0,a5
	.loc 1 336 47
	li	a5,1
	.loc 1 335 48
	sw	s2,872(s0)
	.loc 1 336 5 is_stmt 1
	.loc 1 336 47 is_stmt 0
	sb	a5,975(s0)
	.loc 1 338 5 is_stmt 1
	.loc 1 338 12 is_stmt 0
	j	.L23
.L28:
	.loc 1 330 9 is_stmt 1
	.loc 1 330 30 is_stmt 0
	sw	a1,-480(a5)
	j	.L29
	.cfi_endproc
.LFE66:
	.size	bl_main_if_add, .-bl_main_if_add
	.section	.text.bl_main_apm_start,"ax",@progbits
	.align	1
	.globl	bl_main_apm_start
	.type	bl_main_apm_start, @function
bl_main_apm_start:
.LFB67:
	.loc 1 342 1 is_stmt 1
	.cfi_startproc
.LVL56:
	.loc 1 343 5
	.loc 1 344 5
	.loc 1 346 5
	.loc 1 342 1 is_stmt 0
	addi	sp,sp,-64
	.cfi_def_cfa_offset 64
	sw	s1,52(sp)
	sw	s2,48(sp)
	sw	s3,44(sp)
	.cfi_offset 9, -12
	.cfi_offset 18, -16
	.cfi_offset 19, -20
	mv	s1,a0
	mv	s2,a1
	mv	s3,a2
	.loc 1 346 5
	li	a1,0
.LVL57:
	li	a2,4
.LVL58:
	addi	a0,sp,28
.LVL59:
	.loc 1 342 1
	sw	ra,60(sp)
	sw	s0,56(sp)
	.cfi_offset 1, -4
	.cfi_offset 8, -8
	.loc 1 342 1
	sw	a4,12(sp)
	mv	s0,a3
	.loc 1 346 5
	call	memset
.LVL60:
	.loc 1 347 5 is_stmt 1
	lui	a0,%hi(.LC9)
	mv	a1,s0
	addi	a0,a0,%lo(.LC9)
	call	printf
.LVL61:
	.loc 1 348 5
	.loc 1 348 13 is_stmt 0
	lw	a4,12(sp)
	mv	a5,s0
	lui	s0,%hi(wifi_hw)
	mv	a6,a4
	mv	a3,s2
	mv	a4,s3
	mv	a2,s1
	addi	a1,sp,28
	addi	a0,s0,%lo(wifi_hw)
	call	bl_send_apm_start_req
.LVL62:
	mv	s1,a0
.LVL63:
	.loc 1 349 5 is_stmt 1
	lui	a0,%hi(.LC10)
	addi	a0,a0,%lo(.LC10)
	call	printf
.LVL64:
	.loc 1 350 5
	lbu	a1,28(sp)
	lui	a0,%hi(.LC11)
	addi	a0,a0,%lo(.LC11)
	call	printf
.LVL65:
	.loc 1 351 5
	lbu	a1,29(sp)
	lui	a0,%hi(.LC12)
	addi	a0,a0,%lo(.LC12)
	call	printf
.LVL66:
	.loc 1 352 5
	lbu	a1,30(sp)
	lui	a0,%hi(.LC13)
	addi	a0,a0,%lo(.LC13)
	call	printf
.LVL67:
	.loc 1 353 5
	lbu	a1,31(sp)
	lui	a0,%hi(.LC14)
	addi	a0,a0,%lo(.LC14)
	call	printf
.LVL68:
	.loc 1 354 5
	.loc 1 354 25 is_stmt 0
	li	a5,4096
	addi	s0,s0,%lo(wifi_hw)
	add	s0,s0,a5
	.loc 1 354 39
	lbu	a5,31(sp)
	.loc 1 357 1
	mv	a0,s1
	.loc 1 354 39
	sw	a5,-472(s0)
	.loc 1 356 5 is_stmt 1
	.loc 1 357 1 is_stmt 0
	lw	ra,60(sp)
	.cfi_restore 1
	lw	s0,56(sp)
	.cfi_restore 8
	lw	s1,52(sp)
	.cfi_restore 9
.LVL69:
	lw	s2,48(sp)
	.cfi_restore 18
.LVL70:
	lw	s3,44(sp)
	.cfi_restore 19
.LVL71:
	addi	sp,sp,64
	.cfi_def_cfa_offset 0
	jr	ra
	.cfi_endproc
.LFE67:
	.size	bl_main_apm_start, .-bl_main_apm_start
	.section	.text.bl_main_apm_stop,"ax",@progbits
	.align	1
	.globl	bl_main_apm_stop
	.type	bl_main_apm_stop, @function
bl_main_apm_stop:
.LFB68:
	.loc 1 360 1 is_stmt 1
	.cfi_startproc
.LVL72:
	.loc 1 361 5
	.loc 1 363 5
	.loc 1 360 1 is_stmt 0
	addi	sp,sp,-16
	.cfi_def_cfa_offset 16
	sw	s0,8(sp)
	.loc 1 363 5
	mv	a1,a0
	.cfi_offset 8, -8
	.loc 1 360 1
	mv	s0,a0
	.loc 1 363 5
	lui	a0,%hi(.LC15)
.LVL73:
	addi	a0,a0,%lo(.LC15)
	.loc 1 360 1
	sw	ra,12(sp)
	.cfi_offset 1, -4
	.loc 1 363 5
	call	printf
.LVL74:
	.loc 1 364 5 is_stmt 1
	.loc 1 364 13 is_stmt 0
	lui	a0,%hi(wifi_hw)
	mv	a1,s0
	addi	a0,a0,%lo(wifi_hw)
	call	bl_send_apm_stop_req
.LVL75:
	mv	s0,a0
.LVL76:
	.loc 1 365 5 is_stmt 1
	lui	a0,%hi(.LC16)
	addi	a0,a0,%lo(.LC16)
	call	printf
.LVL77:
	.loc 1 367 5
	.loc 1 368 1 is_stmt 0
	mv	a0,s0
	lw	ra,12(sp)
	.cfi_restore 1
	lw	s0,8(sp)
	.cfi_restore 8
.LVL78:
	addi	sp,sp,16
	.cfi_def_cfa_offset 0
	jr	ra
	.cfi_endproc
.LFE68:
	.size	bl_main_apm_stop, .-bl_main_apm_stop
	.section	.text.bl_main_apm_sta_cnt_get,"ax",@progbits
	.align	1
	.globl	bl_main_apm_sta_cnt_get
	.type	bl_main_apm_sta_cnt_get, @function
bl_main_apm_sta_cnt_get:
.LFB69:
	.loc 1 371 1 is_stmt 1
	.cfi_startproc
.LVL79:
	.loc 1 372 5
	.loc 1 373 5
	.loc 1 374 5
	.loc 1 375 5
	.loc 1 377 5
	.loc 1 385 5
	.loc 1 385 16 is_stmt 0
	li	a5,12
	sb	a5,0(a0)
	.loc 1 386 5 is_stmt 1
	.loc 1 387 5
	.loc 1 388 1 is_stmt 0
	li	a0,0
.LVL80:
	ret
	.cfi_endproc
.LFE69:
	.size	bl_main_apm_sta_cnt_get, .-bl_main_apm_sta_cnt_get
	.section	.text.bl_main_apm_sta_info_get,"ax",@progbits
	.align	1
	.globl	bl_main_apm_sta_info_get
	.type	bl_main_apm_sta_info_get, @function
bl_main_apm_sta_info_get:
.LFB70:
	.loc 1 391 1 is_stmt 1
	.cfi_startproc
.LVL81:
	.loc 1 392 5
	.loc 1 393 5
	.loc 1 395 5
	.loc 1 396 5
	.loc 1 396 17 is_stmt 0
	li	a5,28
	mul	a1,a1,a5
.LVL82:
	lui	a4,%hi(wifi_hw)
	addi	a4,a4,%lo(wifi_hw)
	li	a3,4096
	add	a5,a4,a1
	add	a5,a3,a5
	.loc 1 396 8
	lbu	a2,-872(a5)
	beq	a2,zero,.L44
	.loc 1 400 5 is_stmt 1
	.loc 1 391 1 is_stmt 0
	addi	sp,sp,-16
	.cfi_def_cfa_offset 16
	sw	ra,12(sp)
	.cfi_offset 1, -4
	.loc 1 400 32
	lbu	a2,-871(a5)
	.loc 1 406 48
	addi	a3,a3,-880
	add	a1,a1,a3
	.loc 1 400 27
	sb	a2,0(a0)
	.loc 1 401 5 is_stmt 1
	.loc 1 401 32 is_stmt 0
	lbu	a2,-872(a5)
	.loc 1 406 5
	add	a1,a4,a1
	addi	a0,a0,2
.LVL83:
	.loc 1 401 27
	sb	a2,-1(a0)
	.loc 1 402 5 is_stmt 1
	.loc 1 402 29 is_stmt 0
	lb	a2,-868(a5)
	sw	a2,14(a0)
	.loc 1 403 5 is_stmt 1
	.loc 1 403 30 is_stmt 0
	lw	a2,-864(a5)
	.loc 1 403 25
	sw	a2,10(a0)
	.loc 1 404 5 is_stmt 1
	.loc 1 404 30 is_stmt 0
	lw	a2,-860(a5)
	.loc 1 404 25
	sw	a2,6(a0)
	.loc 1 405 5 is_stmt 1
	.loc 1 405 34 is_stmt 0
	lbu	a5,-856(a5)
	.loc 1 406 5
	li	a2,6
	.loc 1 405 29
	sb	a5,18(a0)
	.loc 1 406 5 is_stmt 1
	call	memcpy
.LVL84:
	.loc 1 408 5
	.loc 1 409 1 is_stmt 0
	lw	ra,12(sp)
	.cfi_restore 1
	li	a0,0
	addi	sp,sp,16
	.cfi_def_cfa_offset 0
	jr	ra
.LVL85:
.L44:
	li	a0,0
.LVL86:
	ret
	.cfi_endproc
.LFE70:
	.size	bl_main_apm_sta_info_get, .-bl_main_apm_sta_info_get
	.section	.text.bl_main_apm_sta_delete,"ax",@progbits
	.align	1
	.globl	bl_main_apm_sta_delete
	.type	bl_main_apm_sta_delete, @function
bl_main_apm_sta_delete:
.LFB71:
	.loc 1 412 1 is_stmt 1
	.cfi_startproc
.LVL87:
	.loc 1 413 5
	.loc 1 414 5
	.loc 1 415 5
	.loc 1 416 5
	.loc 1 418 5
	.loc 1 412 1 is_stmt 0
	addi	sp,sp,-64
	.cfi_def_cfa_offset 64
	sw	s2,48(sp)
	.cfi_offset 18, -16
	.loc 1 418 9
	li	s2,28
	.loc 1 412 1
	sw	s3,44(sp)
	.cfi_offset 19, -20
	.loc 1 418 9
	mul	s3,a0,s2
	.loc 1 412 1
	sw	s1,52(sp)
	.cfi_offset 9, -12
	.loc 1 418 9
	li	s1,4096
	.loc 1 412 1
	sw	s0,56(sp)
	sw	s5,36(sp)
	.cfi_offset 8, -8
	.cfi_offset 21, -28
	.loc 1 418 9
	addi	s0,s1,-880
	lui	s5,%hi(wifi_hw)
	addi	s2,s5,%lo(wifi_hw)
	.loc 1 412 1
	sw	s4,40(sp)
	.loc 1 422 5
	li	a2,3
	.loc 1 418 9
	add	s0,s3,s0
	.cfi_offset 20, -24
	.loc 1 412 1
	mv	s4,a0
	.loc 1 422 5
	li	a1,0
	.loc 1 418 9
	add	s0,s0,s2
.LVL88:
	.loc 1 419 5 is_stmt 1
	.loc 1 422 5
	addi	a0,sp,28
.LVL89:
	.loc 1 423 13 is_stmt 0
	add	s2,s2,s3
	.loc 1 412 1
	sw	ra,60(sp)
	.cfi_offset 1, -4
	.loc 1 423 13
	add	s1,s1,s2
	.loc 1 422 5
	call	memset
.LVL90:
	.loc 1 423 5 is_stmt 1
	.loc 1 423 13 is_stmt 0
	lbu	a3,-870(s1)
.LVL91:
	.loc 1 424 5 is_stmt 1
	lui	a0,%hi(.LC17)
	mv	a1,s4
	mv	a2,a3
	addi	a0,a0,%lo(.LC17)
	sw	a3,12(sp)
	call	printf
.LVL92:
	.loc 1 426 5
	lw	a3,12(sp)
	mv	a2,s4
	addi	a1,sp,28
	addi	a0,s5,%lo(wifi_hw)
	call	bl_send_apm_sta_del_req
.LVL93:
	.loc 1 427 5
	.loc 1 427 8 is_stmt 0
	lbu	a5,28(sp)
	.loc 1 429 16
	li	a0,-1
	.loc 1 427 8
	bne	a5,zero,.L47
	.loc 1 432 5 is_stmt 1
	li	a2,28
	li	a1,0
	mv	a0,s0
	call	memset
.LVL94:
	.loc 1 433 5
	.loc 1 433 12 is_stmt 0
	li	a0,0
.L47:
	.loc 1 434 1
	lw	ra,60(sp)
	.cfi_restore 1
	lw	s0,56(sp)
	.cfi_restore 8
.LVL95:
	lw	s1,52(sp)
	.cfi_restore 9
	lw	s2,48(sp)
	.cfi_restore 18
	lw	s3,44(sp)
	.cfi_restore 19
.LVL96:
	lw	s4,40(sp)
	.cfi_restore 20
.LVL97:
	lw	s5,36(sp)
	.cfi_restore 21
	addi	sp,sp,64
	.cfi_def_cfa_offset 0
.LVL98:
	jr	ra
	.cfi_endproc
.LFE71:
	.size	bl_main_apm_sta_delete, .-bl_main_apm_sta_delete
	.section	.text.bl_main_apm_remove_all_sta,"ax",@progbits
	.align	1
	.globl	bl_main_apm_remove_all_sta
	.type	bl_main_apm_remove_all_sta, @function
bl_main_apm_remove_all_sta:
.LFB72:
	.loc 1 437 1 is_stmt 1
	.cfi_startproc
	.loc 1 438 5
.LVL99:
	.loc 1 439 5
	.loc 1 440 5
	.loc 1 441 5
	.loc 1 443 5
	.loc 1 437 1 is_stmt 0
	addi	sp,sp,-32
	.cfi_def_cfa_offset 32
	sw	s1,20(sp)
	.cfi_offset 9, -12
	lui	s1,%hi(wifi_hw+3224)
	sw	s0,24(sp)
	sw	s2,16(sp)
	sw	s3,12(sp)
	sw	ra,28(sp)
	.cfi_offset 8, -8
	.cfi_offset 18, -16
	.cfi_offset 19, -20
	.cfi_offset 1, -4
	addi	s1,s1,%lo(wifi_hw+3224)
	.loc 1 443 12
	li	s0,0
	.loc 1 445 12
	li	s3,1
	.loc 1 443 5
	li	s2,12
.LVL100:
.L53:
	.loc 1 444 9 is_stmt 1
	.loc 1 445 9
	.loc 1 445 12 is_stmt 0
	lbu	a5,0(s1)
	bne	a5,s3,.L52
	.loc 1 446 13 is_stmt 1
	.loc 1 447 13
	mv	a0,s0
	call	bl_main_apm_sta_delete
.LVL101:
.L52:
	.loc 1 443 37 is_stmt 0 discriminator 2
	addi	s0,s0,1
.LVL102:
	andi	s0,s0,0xff
.LVL103:
	addi	s1,s1,28
	.loc 1 443 5 discriminator 2
	bne	s0,s2,.L53
	.loc 1 450 5 is_stmt 1
	.loc 1 451 1 is_stmt 0
	lw	ra,28(sp)
	.cfi_restore 1
	lw	s0,24(sp)
	.cfi_restore 8
.LVL104:
	lw	s1,20(sp)
	.cfi_restore 9
	lw	s2,16(sp)
	.cfi_restore 18
	lw	s3,12(sp)
	.cfi_restore 19
	li	a0,0
	addi	sp,sp,32
	.cfi_def_cfa_offset 0
	jr	ra
	.cfi_endproc
.LFE72:
	.size	bl_main_apm_remove_all_sta, .-bl_main_apm_remove_all_sta
	.section	.text.bl_main_conf_max_sta,"ax",@progbits
	.align	1
	.globl	bl_main_conf_max_sta
	.type	bl_main_conf_max_sta, @function
bl_main_conf_max_sta:
.LFB73:
	.loc 1 454 1 is_stmt 1
	.cfi_startproc
.LVL105:
	.loc 1 455 5
	.loc 1 455 12 is_stmt 0
	mv	a1,a0
	lui	a0,%hi(wifi_hw)
.LVL106:
	addi	a0,a0,%lo(wifi_hw)
	tail	bl_send_apm_conf_max_sta_req
.LVL107:
	.cfi_endproc
.LFE73:
	.size	bl_main_conf_max_sta, .-bl_main_conf_max_sta
	.section	.text.bl_main_cfg_task_req,"ax",@progbits
	.align	1
	.globl	bl_main_cfg_task_req
	.type	bl_main_cfg_task_req, @function
bl_main_cfg_task_req:
.LFB74:
	.loc 1 459 1 is_stmt 1
	.cfi_startproc
.LVL108:
	.loc 1 460 5
	.loc 1 460 12 is_stmt 0
	mv	a6,a5
	mv	a5,a4
.LVL109:
	mv	a4,a3
.LVL110:
	mv	a3,a2
.LVL111:
	mv	a2,a1
.LVL112:
	mv	a1,a0
.LVL113:
	lui	a0,%hi(wifi_hw)
.LVL114:
	addi	a0,a0,%lo(wifi_hw)
	tail	bl_send_cfg_task_req
.LVL115:
	.cfi_endproc
.LFE74:
	.size	bl_main_cfg_task_req, .-bl_main_cfg_task_req
	.section	.text.bl_main_scan,"ax",@progbits
	.align	1
	.globl	bl_main_scan
	.type	bl_main_scan, @function
bl_main_scan:
.LFB75:
	.loc 1 464 1 is_stmt 1
	.cfi_startproc
	.loc 1 465 5
	lui	a0,%hi(wifi_hw)
	.loc 1 464 1 is_stmt 0
	addi	sp,sp,-16
	.cfi_def_cfa_offset 16
	.loc 1 465 5
	addi	a0,a0,%lo(wifi_hw)
	.loc 1 464 1
	sw	ra,12(sp)
	.cfi_offset 1, -4
	.loc 1 465 5
	call	bl_send_scanu_req
.LVL116:
	.loc 1 466 5 is_stmt 1
	.loc 1 467 1 is_stmt 0
	lw	ra,12(sp)
	.cfi_restore 1
	li	a0,0
	addi	sp,sp,16
	.cfi_def_cfa_offset 0
	jr	ra
	.cfi_endproc
.LFE75:
	.size	bl_main_scan, .-bl_main_scan
	.section	.text.bl_cfg80211_scan,"ax",@progbits
	.align	1
	.globl	bl_cfg80211_scan
	.type	bl_cfg80211_scan, @function
bl_cfg80211_scan:
.LFB77:
	.loc 1 526 1 is_stmt 1
	.cfi_startproc
.LVL117:
	.loc 1 527 5
	.loc 1 529 5
	.loc 1 529 9
	.loc 1 531 5
	.loc 1 531 13 is_stmt 0
	tail	bl_send_scanu_req
.LVL118:
	.cfi_endproc
.LFE77:
	.size	bl_cfg80211_scan, .-bl_cfg80211_scan
	.section	.text.bl_cfg80211_connect,"ax",@progbits
	.align	1
	.globl	bl_cfg80211_connect
	.type	bl_cfg80211_connect, @function
bl_cfg80211_connect:
.LFB78:
	.loc 1 540 1 is_stmt 1
	.cfi_startproc
.LVL119:
	.loc 1 541 5
	.loc 1 542 5
	.loc 1 544 5
	.loc 1 544 9
	.loc 1 547 5
	.loc 1 540 1 is_stmt 0
	addi	sp,sp,-32
	.cfi_def_cfa_offset 32
	.loc 1 547 13
	addi	a2,sp,12
	.loc 1 540 1
	sw	ra,28(sp)
	.cfi_offset 1, -4
	.loc 1 547 13
	call	bl_send_sm_connect_req
.LVL120:
	.loc 1 548 5 is_stmt 1
	.loc 1 548 8 is_stmt 0
	bne	a0,zero,.L61
	.loc 1 553 5 is_stmt 1
	.loc 1 553 27 is_stmt 0
	lbu	a4,12(sp)
	li	a5,9
	li	a0,-5
.LVL121:
	bgtu	a4,a5,.L61
	lui	a5,%hi(.LANCHOR0)
	addi	a5,a5,%lo(.LANCHOR0)
	add	a5,a5,a4
	lb	a0,0(a5)
.L61:
	.loc 1 571 1
	lw	ra,28(sp)
	.cfi_restore 1
	addi	sp,sp,32
	.cfi_def_cfa_offset 0
	jr	ra
	.cfi_endproc
.LFE78:
	.size	bl_cfg80211_connect, .-bl_cfg80211_connect
	.section	.text.bl_main_connect,"ax",@progbits
	.align	1
	.globl	bl_main_connect
	.type	bl_main_connect, @function
bl_main_connect:
.LFB53:
	.loc 1 190 1 is_stmt 1
	.cfi_startproc
.LVL122:
	.loc 1 191 5
	.loc 1 193 5
	.loc 1 190 1 is_stmt 0
	addi	sp,sp,-304
	.cfi_def_cfa_offset 304
	sw	s1,292(sp)
	sw	s2,288(sp)
	sw	s3,284(sp)
	.cfi_offset 9, -12
	.cfi_offset 18, -16
	.cfi_offset 19, -20
	mv	s2,a0
	mv	s3,a1
	mv	s1,a2
	.loc 1 193 5
	li	a1,0
.LVL123:
	li	a2,240
.LVL124:
	addi	a0,sp,32
.LVL125:
	.loc 1 190 1
	sw	s0,296(sp)
	sw	a3,28(sp)
	sw	a4,24(sp)
	sw	a5,20(sp)
	sw	a6,16(sp)
	sw	a7,12(sp)
	sw	ra,300(sp)
	.cfi_offset 8, -8
	.cfi_offset 1, -4
	.loc 1 190 1
	lhu	s0,304(sp)
	.loc 1 193 5
	call	memset
.LVL126:
	.loc 1 194 5 is_stmt 1
	.loc 1 199 17 is_stmt 0
	lw	a3,28(sp)
	.loc 1 200 13
	lw	a4,24(sp)
	.loc 1 201 17
	lw	a5,20(sp)
	.loc 1 203 8
	lw	a6,16(sp)
	.loc 1 197 19
	li	a2,8
	.loc 1 194 35
	sw	zero,128(sp)
	.loc 1 195 5 is_stmt 1
	.loc 1 195 18 is_stmt 0
	sw	s3,100(sp)
	.loc 1 196 5 is_stmt 1
	.loc 1 196 14 is_stmt 0
	sw	s2,96(sp)
	.loc 1 197 5 is_stmt 1
	.loc 1 197 19 is_stmt 0
	sb	a2,104(sp)
	.loc 1 198 5 is_stmt 1
	.loc 1 198 13 is_stmt 0
	sw	s1,180(sp)
	.loc 1 199 5 is_stmt 1
	.loc 1 199 17 is_stmt 0
	sb	a3,188(sp)
	.loc 1 200 5 is_stmt 1
	.loc 1 200 13 is_stmt 0
	sw	a4,184(sp)
	.loc 1 201 5 is_stmt 1
	.loc 1 201 17 is_stmt 0
	sb	a5,189(sp)
	.loc 1 203 5 is_stmt 1
	.loc 1 203 8 is_stmt 0
	lw	a7,12(sp)
	beq	a6,zero,.L66
	.loc 1 204 9 is_stmt 1
	.loc 1 204 19 is_stmt 0
	sw	a6,88(sp)
.L66:
	.loc 1 207 5 is_stmt 1
	.loc 1 207 8 is_stmt 0
	beq	s0,zero,.L67
	.loc 1 208 9 is_stmt 1
	.loc 1 208 33 is_stmt 0
	sh	s0,34(sp)
	.loc 1 209 9 is_stmt 1
	.loc 1 209 26 is_stmt 0
	sb	a7,32(sp)
	.loc 1 210 9 is_stmt 1
	.loc 1 210 27 is_stmt 0
	sw	zero,40(sp)
.L67:
	.loc 1 213 5 is_stmt 1
	lui	a0,%hi(wifi_hw)
	addi	a1,sp,32
	addi	a0,a0,%lo(wifi_hw)
	call	bl_cfg80211_connect
.LVL127:
	.loc 1 215 5
	.loc 1 216 1 is_stmt 0
	lw	ra,300(sp)
	.cfi_restore 1
	lw	s0,296(sp)
	.cfi_restore 8
	lw	s1,292(sp)
	.cfi_restore 9
.LVL128:
	lw	s2,288(sp)
	.cfi_restore 18
.LVL129:
	lw	s3,284(sp)
	.cfi_restore 19
.LVL130:
	li	a0,0
	addi	sp,sp,304
	.cfi_def_cfa_offset 0
.LVL131:
	jr	ra
	.cfi_endproc
.LFE53:
	.size	bl_main_connect, .-bl_main_connect
	.section	.text.bl_cfg80211_disconnect,"ax",@progbits
	.align	1
	.globl	bl_cfg80211_disconnect
	.type	bl_cfg80211_disconnect, @function
bl_cfg80211_disconnect:
.LFB79:
	.loc 1 574 1 is_stmt 1
	.cfi_startproc
.LVL132:
	.loc 1 575 5
	.loc 1 575 9
	.loc 1 577 5
	.loc 1 577 12 is_stmt 0
	tail	bl_send_sm_disconnect_req
.LVL133:
	.cfi_endproc
.LFE79:
	.size	bl_cfg80211_disconnect, .-bl_cfg80211_disconnect
	.section	.text.bl_main_event_handle,"ax",@progbits
	.align	1
	.globl	bl_main_event_handle
	.type	bl_main_event_handle, @function
bl_main_event_handle:
.LFB80:
	.loc 1 581 1 is_stmt 1
	.cfi_startproc
	.loc 1 582 5
	lui	a0,%hi(wifi_hw)
	.loc 1 581 1 is_stmt 0
	addi	sp,sp,-16
	.cfi_def_cfa_offset 16
	.loc 1 582 5
	addi	a0,a0,%lo(wifi_hw)
	.loc 1 581 1
	sw	ra,12(sp)
	.cfi_offset 1, -4
	.loc 1 582 5
	call	bl_irq_bottomhalf
.LVL134:
	.loc 1 583 5 is_stmt 1
	.loc 1 584 1 is_stmt 0
	lw	ra,12(sp)
	.cfi_restore 1
	addi	sp,sp,16
	.cfi_def_cfa_offset 0
	.loc 1 583 5
	tail	bl_tx_try_flush
.LVL135:
	.cfi_endproc
.LFE80:
	.size	bl_main_event_handle, .-bl_main_event_handle
	.section	.text.bl_main_lowlevel_init,"ax",@progbits
	.align	1
	.globl	bl_main_lowlevel_init
	.type	bl_main_lowlevel_init, @function
bl_main_lowlevel_init:
.LFB81:
	.loc 1 587 1 is_stmt 1
	.cfi_startproc
	.loc 1 589 5
	lui	a0,%hi(wifi_hw)
	addi	a0,a0,%lo(wifi_hw)
	tail	bl_irqs_init
.LVL136:
	.cfi_endproc
.LFE81:
	.size	bl_main_lowlevel_init, .-bl_main_lowlevel_init
	.section	.text.bl_main_tx_still_free,"ax",@progbits
	.align	1
	.globl	bl_main_tx_still_free
	.type	bl_main_tx_still_free, @function
bl_main_tx_still_free:
.LFB82:
	.loc 1 594 1
	.cfi_startproc
	.loc 1 595 5
	.loc 1 595 12 is_stmt 0
	lui	a5,%hi(wifi_hw+52)
	lw	a0,%lo(wifi_hw+52)(a5)
	li	a2,0
	li	a1,0
	tail	ipc_host_txdesc_left
.LVL137:
	.cfi_endproc
.LFE82:
	.size	bl_main_tx_still_free, .-bl_main_tx_still_free
	.section	.text.bl_main_rtthread_start,"ax",@progbits
	.align	1
	.globl	bl_main_rtthread_start
	.type	bl_main_rtthread_start, @function
bl_main_rtthread_start:
.LFB83:
	.loc 1 599 1 is_stmt 1
	.cfi_startproc
.LVL138:
	.loc 1 600 5
	.loc 1 603 5
	.loc 1 599 1 is_stmt 0
	addi	sp,sp,-32
	.cfi_def_cfa_offset 32
	sw	s0,24(sp)
	sw	s1,20(sp)
	sw	s2,16(sp)
	sw	ra,28(sp)
	.cfi_offset 8, -8
	.cfi_offset 9, -12
	.cfi_offset 18, -16
	.cfi_offset 1, -4
	.loc 1 599 1
	sw	a0,12(sp)
	.loc 1 603 5
	call	bl_main_lowlevel_init
.LVL139:
	.loc 1 606 5 is_stmt 1
	.loc 1 606 12 is_stmt 0
	lw	a0,12(sp)
	lui	s1,%hi(wifi_hw)
	addi	s2,s1,%lo(wifi_hw)
.LBB8:
.LBB9:
	.loc 1 475 31
	lui	a5,%hi(wifi_hw+856)
.LBE9:
.LBE8:
	.loc 1 606 12
	sw	s2,0(a0)
	.loc 1 607 5 is_stmt 1
.LVL140:
.LBB14:
.LBB12:
	.loc 1 471 5
	.loc 1 473 5
	.loc 1 473 9
	.loc 1 475 5
	.loc 1 475 10
	.loc 1 475 31 is_stmt 0
	addi	a5,a5,%lo(wifi_hw+856)
	sw	a5,856(s2)
	.loc 1 475 49 is_stmt 1
	.loc 1 475 70 is_stmt 0
	sw	a5,860(s2)
	.loc 1 477 5 is_stmt 1
	.loc 1 477 23 is_stmt 0
	li	s0,4096
	lui	a5,%hi(bl_mod_params)
	add	s0,s2,s0
	addi	a5,a5,%lo(bl_mod_params)
	.loc 1 479 11
	addi	a0,s1,%lo(wifi_hw)
	.loc 1 477 23
	sw	a5,-516(s0)
	.loc 1 479 5 is_stmt 1
	.loc 1 479 11 is_stmt 0
	call	bl_platform_on
.LVL141:
	.loc 1 480 5 is_stmt 1
	.loc 1 480 8 is_stmt 0
	beq	a0,zero,.L81
	.loc 1 481 9 is_stmt 1
	lui	a0,%hi(.LC18)
.LVL142:
	addi	a0,a0,%lo(.LC18)
.L86:
	.loc 1 491 9 is_stmt 0
	call	printf
.LVL143:
	.loc 1 492 9 is_stmt 1
.L82:
	.loc 1 515 5
	.loc 1 515 9
	.loc 1 516 5
.LBE12:
.LBE14:
	.loc 1 609 5
	.loc 1 185 5
	.loc 1 610 5
	.loc 1 611 1 is_stmt 0
	lw	ra,28(sp)
	.cfi_remember_state
	.cfi_restore 1
	lw	s0,24(sp)
	.cfi_restore 8
	lw	s1,20(sp)
	.cfi_restore 9
	lw	s2,16(sp)
	.cfi_restore 18
	li	a0,0
	addi	sp,sp,32
	.cfi_def_cfa_offset 0
.LVL144:
	jr	ra
.LVL145:
.L81:
	.cfi_restore_state
.LBB15:
.LBB13:
	.loc 1 485 5 is_stmt 1
	lw	a0,52(s2)
.LVL146:
	li	a1,2047
	call	ipc_host_enable_irq
.LVL147:
	.loc 1 486 5
	call	bl_wifi_enable_irq
.LVL148:
	.loc 1 489 5
	.loc 1 489 11 is_stmt 0
	addi	a0,s1,%lo(wifi_hw)
	call	bl_send_reset
.LVL149:
	.loc 1 490 5 is_stmt 1
	.loc 1 490 8 is_stmt 0
	beq	a0,zero,.L83
	.loc 1 491 9 is_stmt 1
	lui	a0,%hi(.LC19)
.LVL150:
	addi	a0,a0,%lo(.LC19)
	j	.L86
.LVL151:
.L83:
	.loc 1 494 5
	li	a0,5
.LVL152:
	call	vTaskDelay
.LVL153:
	.loc 1 495 5
	.loc 1 495 11 is_stmt 0
	lui	a1,%hi(wifi_hw+3556)
	addi	a1,a1,%lo(wifi_hw+3556)
	addi	a0,s1,%lo(wifi_hw)
	call	bl_send_version_req
.LVL154:
	.loc 1 496 5 is_stmt 1
	.loc 1 496 8 is_stmt 0
	bne	a0,zero,.L82
	.loc 1 499 5 is_stmt 1
.LVL155:
.LBB10:
.LBB11:
	.loc 1 60 5
	.loc 1 60 9 is_stmt 0
	lw	a1,-540(s0)
.LVL156:
	.loc 1 62 5 is_stmt 1
	.loc 1 63 5
	.loc 1 63 9
	.loc 1 65 5
	lui	a0,%hi(.LC20)
.LVL157:
	addi	a0,a0,%lo(.LC20)
	.loc 1 65 141 is_stmt 0
	srli	a3,a1,8
	.loc 1 65 104
	srli	a2,a1,16
	.loc 1 65 5
	andi	a4,a1,0xff
	andi	a3,a3,0xff
	andi	a2,a2,0xff
	srli	a1,a1,24
.LVL158:
	call	printf
.LVL159:
	.loc 1 71 5 is_stmt 1
	lw	a1,-536(s0)
	lui	a0,%hi(.LC21)
	addi	a0,a0,%lo(.LC21)
	call	printf
.LVL160:
	.loc 1 72 5
	lw	a1,-532(s0)
	lui	a0,%hi(.LC22)
	addi	a0,a0,%lo(.LC22)
	call	printf
.LVL161:
	.loc 1 73 5
	lw	a1,-528(s0)
	lui	a0,%hi(.LC23)
	addi	a0,a0,%lo(.LC23)
	call	printf
.LVL162:
	.loc 1 74 5
	lw	a1,-524(s0)
	lui	a0,%hi(.LC24)
	addi	a0,a0,%lo(.LC24)
	call	printf
.LVL163:
	.loc 1 75 5
	lw	a1,-520(s0)
	lui	a0,%hi(.LC25)
	addi	a0,a0,%lo(.LC25)
	call	printf
.LVL164:
	.loc 1 77 5
	.loc 1 77 9
.LBE11:
.LBE10:
	.loc 1 500 5
	.loc 1 500 11 is_stmt 0
	addi	a0,s1,%lo(wifi_hw)
	call	bl_handle_dynparams
.LVL165:
	.loc 1 501 5 is_stmt 1
	.loc 1 501 8 is_stmt 0
	beq	a0,zero,.L84
	.loc 1 502 9 is_stmt 1
	lui	a0,%hi(.LC26)
.LVL166:
	addi	a0,a0,%lo(.LC26)
	j	.L86
.LVL167:
.L84:
	.loc 1 507 5
	addi	a0,s1,%lo(wifi_hw)
.LVL168:
	call	bl_send_me_config_req
.LVL169:
	.loc 1 510 5
	addi	a0,s1,%lo(wifi_hw)
	call	bl_send_me_chan_config_req
.LVL170:
	.loc 1 513 5
	.loc 1 513 19 is_stmt 0
	li	a5,1
	sb	a5,-404(s0)
	j	.L82
.LBE13:
.LBE15:
	.cfi_endproc
.LFE83:
	.size	bl_main_rtthread_start, .-bl_main_rtthread_start
	.comm	wifi_hw,3696,4
	.comm	cfg_start_req_u_tlv_t,12,4
	.section	.rodata.CSWTCH.6,"a"
	.align	2
	.set	.LANCHOR0,. + 0
	.type	CSWTCH.6, @object
	.size	CSWTCH.6, 10
CSWTCH.6:
	.byte	0
	.byte	-5
	.byte	-5
	.byte	-5
	.byte	-5
	.byte	-5
	.byte	-5
	.byte	-5
	.byte	-115
	.byte	-114
	.section	.rodata.bl_main_apm_sta_delete.str1.4,"aMS",@progbits,1
	.align	2
.LC17:
	.string	"[WF] APM_STA_DEL_REQ: sta_idx = %u, vif_idx = %u\r\n"
	.section	.rodata.bl_main_apm_start.str1.4,"aMS",@progbits,1
	.align	2
.LC9:
	.string	"[WF] APM_START_REQ Sending with vif_index %u\r\n"
	.zero	1
.LC10:
	.string	"[WF] APM_START_REQ Done\r\n"
	.zero	2
.LC11:
	.string	"[WF] status is %02X\r\n"
	.zero	2
.LC12:
	.string	"[WF] vif_idx is %02X\r\n"
	.zero	1
.LC13:
	.string	"[WF] ch_idx is %02X\r\n"
	.zero	2
.LC14:
	.string	"[WF] bcmc_idx is %02X\r\n"
	.section	.rodata.bl_main_apm_stop.str1.4,"aMS",@progbits,1
	.align	2
.LC15:
	.string	"[WF] APM_STOP_REQ Sending with vif_index %u\r\n"
	.zero	2
.LC16:
	.string	"[WF] APM_STOP_REQ Done\r\n"
	.section	.rodata.bl_main_if_add.str1.4,"aMS",@progbits,1
	.align	2
.LC2:
	.string	"STA"
.LC3:
	.string	"AP"
	.zero	1
.LC4:
	.string	"[WF] MM_ADD_IF_REQ Sending: %s\r\n"
	.zero	3
.LC5:
	.string	"[WF] MM_ADD_IF_REQ Done\r\n"
	.zero	2
.LC6:
	.string	"add_if"
	.zero	1
.LC7:
	.string	"%s: Status Error(%d)\n"
	.zero	2
.LC8:
	.string	"[WF] vif_index from LAMC is %d\r\n"
	.section	.rodata.bl_main_if_remove.str1.4,"aMS",@progbits,1
	.align	2
.LC0:
	.string	"[WF] MM_REMOVE_IF_REQ Sending with vif_index %u...\r\n"
	.zero	3
.LC1:
	.string	"[WF] MM_REMOVE_IF_REQ Done\r\n"
	.section	.rodata.bl_main_rtthread_start.str1.4,"aMS",@progbits,1
	.align	2
.LC18:
	.string	"bl_platform_on Error\r\n"
	.zero	1
.LC19:
	.string	"bl_send_reset Error\r\n"
	.zero	2
.LC20:
	.string	"[version] lmac %u.%u.%u.%u\r\n"
	.zero	3
.LC21:
	.string	"[version] version_machw_1 %08X\r\n"
	.zero	3
.LC22:
	.string	"[version] version_machw_2 %08X\r\n"
	.zero	3
.LC23:
	.string	"[version] version_phy_1 %08X\r\n"
	.zero	1
.LC24:
	.string	"[version] version_phy_2 %08X\r\n"
	.zero	1
.LC25:
	.string	"[version] features %08X\r\n"
	.zero	2
.LC26:
	.string	"bl_handle_dynparams Error\r\n"
	.text
.Letext0:
	.file 2 "/b-l/bl_iot_sdk_new/toolchain/riscv/Linux/riscv64-unknown-elf/include/machine/_default_types.h"
	.file 3 "/b-l/bl_iot_sdk_new/toolchain/riscv/Linux/lib/gcc/riscv64-unknown-elf/8.3.0/include/stddef.h"
	.file 4 "/b-l/bl_iot_sdk_new/toolchain/riscv/Linux/riscv64-unknown-elf/include/sys/_types.h"
	.file 5 "/b-l/bl_iot_sdk_new/toolchain/riscv/Linux/riscv64-unknown-elf/include/sys/reent.h"
	.file 6 "/b-l/bl_iot_sdk_new/toolchain/riscv/Linux/riscv64-unknown-elf/include/sys/lock.h"
	.file 7 "/b-l/bl_iot_sdk_new/toolchain/riscv/Linux/riscv64-unknown-elf/include/sys/_stdint.h"
	.file 8 "/b-l/bl_iot_sdk_new/toolchain/riscv/Linux/riscv64-unknown-elf/include/stdlib.h"
	.file 9 "/b-l/bl_iot_sdk_new/components/network/lwip/src/include/lwip/arch.h"
	.file 10 "/b-l/bl_iot_sdk_new/toolchain/riscv/Linux/riscv64-unknown-elf/include/ctype.h"
	.file 11 "/b-l/bl_iot_sdk_new/components/network/lwip/src/include/lwip/mem.h"
	.file 12 "/b-l/bl_iot_sdk_new/components/network/lwip/src/include/lwip/err.h"
	.file 13 "/b-l/bl_iot_sdk_new/components/network/lwip/src/include/lwip/pbuf.h"
	.file 14 "/b-l/bl_iot_sdk_new/components/network/lwip/src/include/lwip/ip4_addr.h"
	.file 15 "/b-l/bl_iot_sdk_new/components/network/lwip/src/include/lwip/ip_addr.h"
	.file 16 "/b-l/bl_iot_sdk_new/components/network/lwip/src/include/lwip/priv/memp_priv.h"
	.file 17 "/b-l/bl_iot_sdk_new/components/network/lwip/src/include/lwip/stats.h"
	.file 18 "/b-l/bl_iot_sdk_new/components/network/lwip/src/include/lwip/memp.h"
	.file 19 "/b-l/bl_iot_sdk_new/components/network/lwip/src/include/lwip/netif.h"
	.file 20 "/b-l/bl_iot_sdk_new/components/network/lwip/src/include/lwip/prot/ethernet.h"
	.file 21 "/b-l/bl_iot_sdk_new/components/network/lwip/src/include/netif/ethernet.h"
	.file 22 "/b-l/bl_iot_sdk_new/components/bl602/bl602_wifidrv/bl60x_wifi_driver/bl_main.h"
	.file 23 "/b-l/bl_iot_sdk_new/components/bl602/bl602_wifidrv/bl60x_wifi_driver/lmac_types.h"
	.file 24 "/b-l/bl_iot_sdk_new/components/bl602/bl602_wifidrv/bl60x_wifi_driver/lmac_mac.h"
	.file 25 "/b-l/bl_iot_sdk_new/components/bl602/bl602_wifidrv/bl60x_wifi_driver/ipc_shared.h"
	.file 26 "/b-l/bl_iot_sdk_new/components/bl602/bl602_wifidrv/bl60x_wifi_driver/ipc_host.h"
	.file 27 "/b-l/bl_iot_sdk_new/components/bl602/bl602_wifidrv/bl60x_wifi_driver/list.h"
	.file 28 "/b-l/bl_iot_sdk_new/components/bl602/bl602_wifidrv/bl60x_wifi_driver/lmac_msg.h"
	.file 29 "/b-l/bl_iot_sdk_new/components/bl602/freertos_riscv_ram/portable/GCC/RISC-V/portmacro.h"
	.file 30 "/b-l/bl_iot_sdk_new/components/bl602/freertos_riscv_ram/config/FreeRTOS.h"
	.file 31 "/b-l/bl_iot_sdk_new/components/bl602/freertos_riscv_ram/config/queue.h"
	.file 32 "/b-l/bl_iot_sdk_new/components/bl602/freertos_riscv_ram/config/semphr.h"
	.file 33 "/b-l/bl_iot_sdk_new/components/bl602/bl602_wifidrv/bl60x_wifi_driver/os_hal.h"
	.file 34 "/b-l/bl_iot_sdk_new/components/bl602/bl602_wifidrv/bl60x_wifi_driver/bl_cmds.h"
	.file 35 "/b-l/bl_iot_sdk_new/components/bl602/bl602_wifidrv/bl60x_wifi_driver/bl_defs.h"
	.file 36 "/b-l/bl_iot_sdk_new/components/bl602/bl602_wifidrv/bl60x_wifi_driver/ieee80211.h"
	.file 37 "/b-l/bl_iot_sdk_new/components/bl602/bl602_wifidrv/bl60x_wifi_driver/nl80211.h"
	.file 38 "/b-l/bl_iot_sdk_new/components/bl602/bl602_wifidrv/bl60x_wifi_driver/cfg80211.h"
	.file 39 "/b-l/bl_iot_sdk_new/components/bl602/bl602_wifidrv/bl60x_wifi_driver/bl_mod_params.h"
	.file 40 "/b-l/bl_iot_sdk_new/components/bl602/bl602_wifidrv/bl60x_wifi_driver/bl_utils.h"
	.file 41 "/b-l/bl_iot_sdk_new/toolchain/riscv/Linux/riscv64-unknown-elf/include/stdio.h"
	.file 42 "/b-l/bl_iot_sdk_new/components/bl602/bl602_wifidrv/bl60x_wifi_driver/bl_platform.h"
	.file 43 "/b-l/bl_iot_sdk_new/components/hal_drv/bl602_hal/bl_wifi.h"
	.file 44 "/b-l/bl_iot_sdk_new/components/bl602/bl602_wifidrv/bl60x_wifi_driver/bl_msg_tx.h"
	.file 45 "/b-l/bl_iot_sdk_new/components/bl602/freertos_riscv_ram/config/task.h"
	.file 46 "/b-l/bl_iot_sdk_new/components/bl602/bl602_wifidrv/bl60x_wifi_driver/bl_irqs.h"
	.file 47 "/b-l/bl_iot_sdk_new/components/bl602/bl602_wifidrv/bl60x_wifi_driver/bl_tx.h"
	.file 48 "/b-l/bl_iot_sdk_new/toolchain/riscv/Linux/riscv64-unknown-elf/include/string.h"