	.file	"bl_msg_tx.c"
	.option nopic
	.attribute arch, "rv32i2p0_m2p0_f2p0_c2p0"
	.attribute unaligned_access, 0
	.attribute stack_align, 16
	.text
.Ltext0:
	.cfi_sections	.debug_frame
	.section	.text.bl_send_msg,"ax",@progbits
	.align	1
	.type	bl_send_msg, @function
bl_send_msg:
.LFB40:
	.file 1 "/b-l/bl_iot_sdk_new/components/bl602/bl602_wifidrv/bl60x_wifi_driver/bl_msg_tx.c"
	.loc 1 317 1
	.cfi_startproc
.LVL0:
	.loc 1 318 5
	.loc 1 319 5
	.loc 1 320 4
	.loc 1 321 5
	.loc 1 323 5
	.loc 1 323 9
	.loc 1 325 5
	.loc 1 317 1 is_stmt 0
	addi	sp,sp,-48
	.cfi_def_cfa_offset 48
	sw	s4,24(sp)
	.cfi_offset 20, -24
	mv	s4,a4
.LBB18:
.LBB19:
	.loc 1 312 23
	li	a4,4096
.LVL1:
.LBE19:
.LBE18:
	.loc 1 317 1
	sw	s1,36(sp)
	sw	s2,32(sp)
	sw	s3,28(sp)
	sw	s6,16(sp)
	sw	s7,12(sp)
	sw	ra,44(sp)
	sw	s0,40(sp)
	sw	s5,20(sp)
	.cfi_offset 9, -12
	.cfi_offset 18, -16
	.cfi_offset 19, -20
	.cfi_offset 22, -32
	.cfi_offset 23, -36
	.cfi_offset 1, -4
	.cfi_offset 8, -8
	.cfi_offset 21, -28
.LBB23:
.LBB20:
	.loc 1 312 23
	add	a5,a0,a4
	lw	a5,-544(a5)
.LBE20:
.LBE23:
	.loc 1 317 1
	mv	s6,a0
	mv	s7,a1
.LBB24:
.LBB21:
	.loc 1 312 37
	srli	a5,a5,2
	.loc 1 312 16
	andi	a5,a5,1
.LBE21:
.LBE24:
	.loc 1 317 1
	mv	s3,a2
	mv	s1,a3
	.loc 1 325 9
	addi	s2,a1,-8
.LVL2:
	.loc 1 327 5 is_stmt 1
.LBB25:
.LBB22:
	.loc 1 312 5
.LBE22:
.LBE25:
	.loc 1 327 8 is_stmt 0
	bne	a5,zero,.L2
	.loc 1 327 56 discriminator 1
	andi	a5,a3,-3
	slli	a5,a5,16
	srli	a5,a5,16
	li	a3,1
.LVL3:
	beq	a5,a3,.L2
	.loc 1 328 31
	li	a3,5
	beq	s1,a3,.L2
	.loc 1 329 31
	li	a3,35
	beq	s1,a3,.L2
	.loc 1 329 59 discriminator 1
	addi	a4,a4,1025
	beq	a5,a4,.L2
	.loc 1 330 32
	li	a5,50
	beq	s1,a5,.L2
	.loc 1 332 9 is_stmt 1
	lui	a1,%hi(.LANCHOR0)
.LVL4:
	lui	a0,%hi(.LC1)
.LVL5:
	mv	a2,s1
.LVL6:
	addi	a1,a1,%lo(.LANCHOR0)
	addi	a0,a0,%lo(.LC1)
	call	printf
.LVL7:
	.loc 1 333 9
.L20:
	.loc 1 338 9
	mv	a0,s2
	call	vPortFree
.LVL8:
	.loc 1 339 9
	.loc 1 339 13
	.loc 1 340 9
	.loc 1 340 16 is_stmt 0
	li	s1,-16
.L1:
	.loc 1 371 1
	lw	ra,44(sp)
	.cfi_remember_state
	.cfi_restore 1
	lw	s0,40(sp)
	.cfi_restore 8
	mv	a0,s1
	lw	s2,32(sp)
	.cfi_restore 18
.LVL9:
	lw	s1,36(sp)
	.cfi_restore 9
	lw	s3,28(sp)
	.cfi_restore 19
.LVL10:
	lw	s4,24(sp)
	.cfi_restore 20
.LVL11:
	lw	s5,20(sp)
	.cfi_restore 21
	lw	s6,16(sp)
	.cfi_restore 22
.LVL12:
	lw	s7,12(sp)
	.cfi_restore 23
.LVL13:
	addi	sp,sp,48
	.cfi_def_cfa_offset 0
	jr	ra
.LVL14:
.L2:
	.cfi_restore_state
	.loc 1 336 12 is_stmt 1
	.loc 1 336 15 is_stmt 0
	lw	a5,52(s6)
	bne	a5,zero,.L4
	.loc 1 337 9 is_stmt 1
	lui	a1,%hi(.LANCHOR0)
.LVL15:
	lui	a0,%hi(.LC2)
.LVL16:
	addi	a1,a1,%lo(.LANCHOR0)
	addi	a0,a0,%lo(.LC2)
	call	printf
.LVL17:
	j	.L20
.LVL18:
.L4:
	.loc 1 343 5
	.loc 1 343 39 is_stmt 0
	lhu	a2,-8(s7)
.LVL19:
.LBB26:
.LBB27:
	.loc 1 298 5 is_stmt 1
	.loc 1 300 42 is_stmt 0
	li	a5,65
	li	s5,1
	beq	a2,a5,.L5
	.loc 1 298 69
	li	a5,80
	beq	a2,a5,.L5
	.loc 1 299 41
	li	a5,-4096
	addi	a5,a5,-1036
	add	a5,a2,a5
	andi	a5,a5,-5
	slli	a5,a5,16
	srli	a5,a5,16
	beq	a5,zero,.L5
	.loc 1 299 71
	li	a5,-8192
	andi	a2,a2,-5
.LVL20:
	addi	a5,a5,-1032
	add	a2,a2,a5
	seqz	s5,a2
.L5:
.LVL21:
.LBE27:
.LBE26:
	.loc 1 345 5 is_stmt 1
	.loc 1 345 11 is_stmt 0
	li	a0,64
.LVL22:
	call	pvPortMalloc
.LVL23:
	mv	s0,a0
.LVL24:
	.loc 1 346 5 is_stmt 1
	.loc 1 346 8 is_stmt 0
	bne	a0,zero,.L6
	.loc 1 347 9 is_stmt 1
	mv	a0,s2
	call	vPortFree
.LVL25:
	.loc 1 348 9
	lui	a1,%hi(.LANCHOR0)
	lui	a0,%hi(.LC3)
	li	a2,64
	addi	a1,a1,%lo(.LANCHOR0)
	addi	a0,a0,%lo(.LC3)
	call	printf
.LVL26:
	.loc 1 349 9
	.loc 1 349 16 is_stmt 0
	li	s1,-12
	j	.L1
.L6:
	.loc 1 351 5 is_stmt 1
	li	a2,64
	li	a1,0
	call	memset
.LVL27:
	.loc 1 352 5
	.loc 1 352 17 is_stmt 0
	li	a5,4
	sw	a5,60(s0)
	.loc 1 353 5 is_stmt 1
	.loc 1 353 18 is_stmt 0
	lhu	a5,-8(s7)
	.loc 1 354 16
	sh	s1,10(s0)
	.loc 1 355 18
	sw	s2,12(s0)
	.loc 1 353 13
	sh	a5,8(s0)
	.loc 1 354 5 is_stmt 1
	.loc 1 355 5
	.loc 1 356 5
	.loc 1 356 18 is_stmt 0
	sw	s4,16(s0)
	.loc 1 357 5 is_stmt 1
	.loc 1 357 8 is_stmt 0
	beq	s5,zero,.L7
	.loc 1 358 9 is_stmt 1
	.loc 1 358 20 is_stmt 0
	li	a5,1
	sh	a5,24(s0)
.L7:
	.loc 1 359 5 is_stmt 1
	.loc 1 359 8 is_stmt 0
	beq	s3,zero,.L8
	.loc 1 360 9 is_stmt 1
	.loc 1 360 20 is_stmt 0
	lhu	a5,24(s0)
	ori	a5,a5,2
	sh	a5,24(s0)
.L8:
	.loc 1 361 5 is_stmt 1
	.loc 1 361 11 is_stmt 0
	lw	a5,32(s6)
	mv	a1,s0
	addi	a0,s6,4
	jalr	a5
.LVL28:
	mv	s1,a0
.LVL29:
	.loc 1 363 5 is_stmt 1
	.loc 1 363 8 is_stmt 0
	bne	s5,zero,.L9
	.loc 1 364 9 is_stmt 1
	mv	a0,s0
	call	vPortFree
.LVL30:
	j	.L1
.L9:
	.loc 1 366 9
.LVL31:
	.loc 1 366 13 is_stmt 0
	lw	s1,60(s0)
	j	.L1
	.cfi_endproc
.LFE40:
	.size	bl_send_msg, .-bl_send_msg
	.section	.text.bl_msg_zalloc.constprop.3,"ax",@progbits
	.align	1
	.type	bl_msg_zalloc.constprop.3, @function
bl_msg_zalloc.constprop.3:
.LFB70:
	.loc 1 275 21 is_stmt 1
	.cfi_startproc
.LVL32:
	addi	sp,sp,-48
	.cfi_def_cfa_offset 48
	sw	s1,36(sp)
	.cfi_offset 9, -12
	mv	s1,a2
	.loc 1 282 30 is_stmt 0
	addi	a2,a2,8
.LVL33:
	.loc 1 275 21
	sw	s3,28(sp)
	.cfi_offset 19, -20
	mv	s3,a0
	.loc 1 282 30
	mv	a0,a2
.LVL34:
	.loc 1 275 21
	sw	s0,40(sp)
	sw	s2,32(sp)
	.loc 1 282 30
	sw	a2,12(sp)
	.loc 1 275 21
	sw	ra,44(sp)
	.cfi_offset 8, -8
	.cfi_offset 18, -16
	.cfi_offset 1, -4
	.loc 1 275 21
	mv	s2,a1
.LVL35:
	.loc 1 280 5 is_stmt 1
	.loc 1 282 5
	.loc 1 282 30 is_stmt 0
	call	pvPortMalloc
.LVL36:
	mv	s0,a0
.LVL37:
	.loc 1 283 5 is_stmt 1
	.loc 1 283 8 is_stmt 0
	lw	a2,12(sp)
	bne	a0,zero,.L22
.LVL38:
.LBB30:
.LBB31:
	.loc 1 284 9 is_stmt 1
	lui	a1,%hi(.LANCHOR1)
	lui	a0,%hi(.LC4)
	addi	a1,a1,%lo(.LANCHOR1)
	addi	a0,a0,%lo(.LC4)
	call	printf
.LVL39:
	.loc 1 285 9
.L21:
.LBE31:
.LBE30:
	.loc 1 295 1 is_stmt 0
	mv	a0,s0
	lw	ra,44(sp)
	.cfi_remember_state
	.cfi_restore 1
	lw	s0,40(sp)
	.cfi_restore 8
	lw	s1,36(sp)
	.cfi_restore 9
	lw	s2,32(sp)
	.cfi_restore 18
	lw	s3,28(sp)
	.cfi_restore 19
	addi	sp,sp,48
	.cfi_def_cfa_offset 0
	jr	ra
.LVL40:
.L22:
	.cfi_restore_state
	.loc 1 287 5 is_stmt 1
	li	a1,0
	call	memset
.LVL41:
	.loc 1 289 5
	.loc 1 291 17 is_stmt 0
	li	a5,100
	.loc 1 289 13
	sh	s3,0(s0)
	.loc 1 290 5 is_stmt 1
	.loc 1 290 18 is_stmt 0
	sh	s2,2(s0)
	.loc 1 291 5 is_stmt 1
	.loc 1 291 17 is_stmt 0
	sh	a5,4(s0)
	.loc 1 292 5 is_stmt 1
	.loc 1 292 20 is_stmt 0
	sh	s1,6(s0)
	.loc 1 294 5 is_stmt 1
	.loc 1 294 12 is_stmt 0
	addi	s0,s0,8
.LVL42:
	j	.L21
	.cfi_endproc
.LFE70:
	.size	bl_msg_zalloc.constprop.3, .-bl_msg_zalloc.constprop.3
	.section	.text.bl_msg_update_channel_cfg,"ax",@progbits
	.align	1
	.globl	bl_msg_update_channel_cfg
	.type	bl_msg_update_channel_cfg, @function
bl_msg_update_channel_cfg:
.LFB34:
	.loc 1 215 1 is_stmt 1
	.cfi_startproc
.LVL43:
	.loc 1 216 5
	.loc 1 215 1 is_stmt 0
	addi	sp,sp,-32
	.cfi_def_cfa_offset 32
	lui	a5,%hi(.LANCHOR2)
	sw	s0,24(sp)
	sw	s1,20(sp)
	sw	s2,16(sp)
	sw	s3,12(sp)
	sw	s4,8(sp)
	sw	ra,28(sp)
	.cfi_offset 8, -8
	.cfi_offset 9, -12
	.cfi_offset 18, -16
	.cfi_offset 19, -20
	.cfi_offset 20, -24
	.cfi_offset 1, -4
	.loc 1 215 1
	mv	s2,a0
.LVL44:
	addi	s3,a5,%lo(.LANCHOR2)
.LBB34:
.LBB35:
	.loc 1 199 12
	li	s1,0
	addi	s0,a5,%lo(.LANCHOR2)
	.loc 1 199 5
	li	s4,4
.LVL45:
.L27:
	.loc 1 200 9 is_stmt 1
	.loc 1 200 18 is_stmt 0
	lw	a0,0(s3)
	mv	a1,s2
	call	strcmp
.LVL46:
	.loc 1 200 12
	bne	a0,zero,.L26
	.loc 1 201 13 is_stmt 1
	.loc 1 202 17
	.loc 1 202 47 is_stmt 0
	li	a5,12
	mul	a5,s1,a5
	.loc 1 202 30
	lui	a4,%hi(.LANCHOR3)
.LBE35:
.LBE34:
	.loc 1 222 9
	lui	a0,%hi(.LC5)
	mv	a1,s2
	addi	a0,a0,%lo(.LC5)
.LBB38:
.LBB36:
	.loc 1 202 47
	add	a5,s0,a5
	lw	a2,4(a5)
	.loc 1 202 30
	sw	a2,%lo(.LANCHOR3)(a4)
	.loc 1 204 13 is_stmt 1
	.loc 1 205 17
	.loc 1 205 27 is_stmt 0
	lw	a4,8(a5)
	lui	a5,%hi(.LANCHOR4)
	sw	a4,%lo(.LANCHOR4)(a5)
.LVL47:
.LBE36:
.LBE38:
	.loc 1 222 9 is_stmt 1
.L30:
	.loc 1 225 1 is_stmt 0
	lw	s0,24(sp)
	.cfi_remember_state
	.cfi_restore 8
	lw	ra,28(sp)
	.cfi_restore 1
	lw	s1,20(sp)
	.cfi_restore 9
	lw	s2,16(sp)
	.cfi_restore 18
	lw	s3,12(sp)
	.cfi_restore 19
	lw	s4,8(sp)
	.cfi_restore 20
	addi	sp,sp,32
	.cfi_def_cfa_offset 0
	.loc 1 220 9
	tail	printf
.LVL48:
.L26:
	.cfi_restore_state
.LBB39:
.LBB37:
	.loc 1 199 68
	addi	s1,s1,1
.LVL49:
	addi	s3,s3,12
	.loc 1 199 5
	bne	s1,s4,.L27
.LVL50:
.LBE37:
.LBE39:
	.loc 1 218 9 is_stmt 1
	.loc 1 218 29 is_stmt 0
	lui	a5,%hi(.LANCHOR3)
	li	a4,14
	sw	a4,%lo(.LANCHOR3)(a5)
	.loc 1 219 9 is_stmt 1
	.loc 1 219 26 is_stmt 0
	lui	a5,%hi(.LANCHOR5)
	lui	a4,%hi(.LANCHOR4)
	addi	a5,a5,%lo(.LANCHOR5)
	.loc 1 220 9
	lui	a0,%hi(.LC6)
	.loc 1 219 26
	sw	a5,%lo(.LANCHOR4)(a4)
	.loc 1 220 9 is_stmt 1
	li	a2,14
	mv	a1,s2
	addi	a0,a0,%lo(.LC6)
	j	.L30
	.cfi_endproc
.LFE34:
	.size	bl_msg_update_channel_cfg, .-bl_msg_update_channel_cfg
	.section	.text.bl_msg_get_channel_nums,"ax",@progbits
	.align	1
	.globl	bl_msg_get_channel_nums
	.type	bl_msg_get_channel_nums, @function
bl_msg_get_channel_nums:
.LFB35:
	.loc 1 228 1
	.cfi_startproc
	.loc 1 229 5
	.loc 1 230 1 is_stmt 0
	lui	a5,%hi(.LANCHOR3)
	lw	a0,%lo(.LANCHOR3)(a5)
	ret
	.cfi_endproc
.LFE35:
	.size	bl_msg_get_channel_nums, .-bl_msg_get_channel_nums
	.section	.text.bl_send_reset,"ax",@progbits
	.align	1
	.globl	bl_send_reset
	.type	bl_send_reset, @function
bl_send_reset:
.LFB41:
	.loc 1 374 1 is_stmt 1
	.cfi_startproc
.LVL51:
	.loc 1 375 5
	.loc 1 377 5
	.loc 1 377 9
	.loc 1 380 5
	.loc 1 374 1 is_stmt 0
	addi	sp,sp,-16
	.cfi_def_cfa_offset 16
	sw	s0,8(sp)
	.loc 1 380 18
	li	a2,0
	.cfi_offset 8, -8
	.loc 1 374 1
	mv	s0,a0
	.loc 1 380 18
	li	a1,0
	li	a0,0
.LVL52:
	.loc 1 374 1
	sw	ra,12(sp)
	.cfi_offset 1, -4
	.loc 1 380 18
	call	bl_msg_zalloc.constprop.3
.LVL53:
	.loc 1 381 5 is_stmt 1
	.loc 1 381 8 is_stmt 0
	beq	a0,zero,.L33
	mv	a1,a0
	.loc 1 384 5 is_stmt 1
	.loc 1 384 12 is_stmt 0
	mv	a0,s0
.LVL54:
	.loc 1 385 1
	lw	s0,8(sp)
	.cfi_remember_state
	.cfi_restore 8
.LVL55:
	lw	ra,12(sp)
	.cfi_restore 1
	.loc 1 384 12
	li	a4,0
	.loc 1 385 1
	.loc 1 384 12
	li	a3,1
	li	a2,1
	.loc 1 385 1
	addi	sp,sp,16
	.cfi_def_cfa_offset 0
	.loc 1 384 12
	tail	bl_send_msg
.LVL56:
.L33:
	.cfi_restore_state
	.loc 1 385 1
	lw	ra,12(sp)
	.cfi_restore 1
	lw	s0,8(sp)
	.cfi_restore 8
.LVL57:
	li	a0,-12
.LVL58:
	addi	sp,sp,16
	.cfi_def_cfa_offset 0
	jr	ra
	.cfi_endproc
.LFE41:
	.size	bl_send_reset, .-bl_send_reset
	.section	.text.bl_send_monitor_enable,"ax",@progbits
	.align	1
	.globl	bl_send_monitor_enable
	.type	bl_send_monitor_enable, @function
bl_send_monitor_enable:
.LFB42:
	.loc 1 388 1 is_stmt 1
	.cfi_startproc
.LVL59:
	.loc 1 389 5
	.loc 1 391 5
	.loc 1 391 9
	.loc 1 393 5
	.loc 1 388 1 is_stmt 0
	addi	sp,sp,-32
	.cfi_def_cfa_offset 32
	sw	s0,24(sp)
	sw	a1,12(sp)
	.cfi_offset 8, -8
	mv	s0,a0
	.loc 1 393 11
	li	a2,4
	li	a1,0
.LVL60:
	li	a0,92
.LVL61:
	.loc 1 388 1
	sw	ra,28(sp)
	.cfi_offset 1, -4
	.loc 1 393 11
	call	bl_msg_zalloc.constprop.3
.LVL62:
	.loc 1 394 5 is_stmt 1
	.loc 1 394 8 is_stmt 0
	beq	a0,zero,.L36
	.loc 1 397 17
	li	a5,1
	sw	a5,0(a0)
	mv	a1,a0
	.loc 1 397 5 is_stmt 1
	.loc 1 399 5
	.loc 1 399 12 is_stmt 0
	mv	a0,s0
.LVL63:
	.loc 1 400 1
	lw	s0,24(sp)
	.cfi_remember_state
	.cfi_restore 8
.LVL64:
	.loc 1 399 12
	lw	a4,12(sp)
	.loc 1 400 1
	lw	ra,28(sp)
	.cfi_restore 1
	.loc 1 399 12
	li	a3,93
	.loc 1 400 1
	.loc 1 399 12
	li	a2,1
	.loc 1 400 1
	addi	sp,sp,32
	.cfi_def_cfa_offset 0
.LVL65:
	.loc 1 399 12
	tail	bl_send_msg
.LVL66:
.L36:
	.cfi_restore_state
	.loc 1 400 1
	lw	ra,28(sp)
	.cfi_restore 1
	lw	s0,24(sp)
	.cfi_restore 8
.LVL67:
	li	a0,-12
.LVL68:
	addi	sp,sp,32
	.cfi_def_cfa_offset 0
.LVL69:
	jr	ra
	.cfi_endproc
.LFE42:
	.size	bl_send_monitor_enable, .-bl_send_monitor_enable
	.section	.text.bl_send_monitor_channel_set,"ax",@progbits
	.align	1
	.globl	bl_send_monitor_channel_set
	.type	bl_send_monitor_channel_set, @function
bl_send_monitor_channel_set:
.LFB43:
	.loc 1 404 1 is_stmt 1
	.cfi_startproc
.LVL70:
	.loc 1 405 5
	.loc 1 407 5
	.loc 1 407 9
	.loc 1 409 5
	.loc 1 404 1 is_stmt 0
	addi	sp,sp,-32
	.cfi_def_cfa_offset 32
	sw	s0,24(sp)
	sw	s1,20(sp)
	sw	a1,12(sp)
	.cfi_offset 8, -8
	.cfi_offset 9, -12
	mv	s1,a0
	mv	s0,a2
	.loc 1 409 11
	li	a1,0
.LVL71:
	li	a2,12
.LVL72:
	li	a0,94
.LVL73:
	.loc 1 404 1
	sw	ra,28(sp)
	.cfi_offset 1, -4
	.loc 1 404 1
	sw	a3,8(sp)
	.loc 1 409 11
	call	bl_msg_zalloc.constprop.3
.LVL74:
	.loc 1 410 5 is_stmt 1
	.loc 1 410 8 is_stmt 0
	beq	a0,zero,.L39
.LBB42:
.LBB43:
	.loc 1 242 31
	addi	a5,s0,-1
	.loc 1 242 16
	li	a2,13
	mv	a1,a0
.LBE43:
.LBE42:
	.loc 1 414 5 is_stmt 1
.LVL75:
.LBB46:
.LBB44:
	.loc 1 234 5
	.loc 1 236 5
	.loc 1 239 9
	.loc 1 242 13
	.loc 1 242 16 is_stmt 0
	lw	a3,8(sp)
	lw	a4,12(sp)
	bgtu	a5,a2,.L44
	.loc 1 246 13 is_stmt 1
	.loc 1 246 16 is_stmt 0
	li	a5,14
	beq	s0,a5,.L45
	.loc 1 249 17 is_stmt 1
	.loc 1 249 29 is_stmt 0
	li	a5,5
	mul	s0,s0,a5
.LVL76:
	.loc 1 249 22
	li	a5,4096
	addi	a5,a5,-1689
	add	s0,s0,a5
	slli	s0,s0,16
	srli	s0,s0,16
.LVL77:
.L40:
	.loc 1 263 5 is_stmt 1
.LBE44:
.LBE46:
	.loc 1 414 17 is_stmt 0
	sw	s0,0(a1)
	.loc 1 415 5 is_stmt 1
	.loc 1 415 8 is_stmt 0
	beq	a3,zero,.L41
	.loc 1 416 9 is_stmt 1
	.loc 1 416 24 is_stmt 0
	li	a5,1
	sw	a5,4(a1)
	.loc 1 417 9 is_stmt 1
	.loc 1 417 12 is_stmt 0
	bne	a3,a5,.L42
.L47:
	.loc 1 424 9 is_stmt 1
	.loc 1 424 26 is_stmt 0
	sw	zero,8(a1)
	j	.L43
.LVL78:
.L44:
.LBB47:
.LBB45:
	.loc 1 234 14
	li	s0,65536
.LVL79:
	addi	s0,s0,-1
	j	.L40
.LVL80:
.L45:
	.loc 1 247 22
	li	s0,4096
.LVL81:
	addi	s0,s0,-1612
	j	.L40
.LVL82:
.L42:
.LBE45:
.LBE47:
	.loc 1 420 13 is_stmt 1
	.loc 1 420 30 is_stmt 0
	sw	a5,8(a1)
.L43:
	.loc 1 427 5 is_stmt 1
	.loc 1 428 1 is_stmt 0
	lw	s0,24(sp)
	.cfi_remember_state
	.cfi_restore 8
	lw	ra,28(sp)
	.cfi_restore 1
	.loc 1 427 12
	mv	a0,s1
.LVL83:
	.loc 1 428 1
	lw	s1,20(sp)
	.cfi_restore 9
.LVL84:
	.loc 1 427 12
	li	a3,95
	.loc 1 428 1
	.loc 1 427 12
	li	a2,1
	.loc 1 428 1
	addi	sp,sp,32
	.cfi_def_cfa_offset 0
.LVL85:
	.loc 1 427 12
	tail	bl_send_msg
.LVL86:
.L41:
	.cfi_restore_state
	.loc 1 423 9 is_stmt 1
	.loc 1 423 24 is_stmt 0
	sw	zero,4(a1)
	j	.L47
.LVL87:
.L39:
	.loc 1 428 1
	lw	ra,28(sp)
	.cfi_restore 1
	lw	s0,24(sp)
	.cfi_restore 8
.LVL88:
	lw	s1,20(sp)
	.cfi_restore 9
.LVL89:
	li	a0,-12
.LVL90:
	addi	sp,sp,32
	.cfi_def_cfa_offset 0
.LVL91:
	jr	ra
	.cfi_endproc
.LFE43:
	.size	bl_send_monitor_channel_set, .-bl_send_monitor_channel_set
	.section	.text.bl_send_version_req,"ax",@progbits
	.align	1
	.globl	bl_send_version_req
	.type	bl_send_version_req, @function
bl_send_version_req:
.LFB44:
	.loc 1 431 1 is_stmt 1
	.cfi_startproc
.LVL92:
	.loc 1 432 5
	.loc 1 433 5
	.loc 1 435 5
	.loc 1 435 9
	.loc 1 438 5
	.loc 1 431 1 is_stmt 0
	addi	sp,sp,-32
	.cfi_def_cfa_offset 32
	sw	s0,24(sp)
	sw	a1,12(sp)
	.cfi_offset 8, -8
	mv	s0,a0
	.loc 1 438 18
	li	a2,0
	li	a1,0
.LVL93:
	li	a0,4
.LVL94:
	.loc 1 431 1
	sw	ra,28(sp)
	.cfi_offset 1, -4
	.loc 1 438 18
	call	bl_msg_zalloc.constprop.3
.LVL95:
	.loc 1 439 5 is_stmt 1
	.loc 1 439 8 is_stmt 0
	beq	a0,zero,.L49
	mv	a1,a0
	.loc 1 443 5 is_stmt 1
	.loc 1 443 11 is_stmt 0
	mv	a0,s0
.LVL96:
	.loc 1 446 1
	lw	s0,24(sp)
	.cfi_remember_state
	.cfi_restore 8
.LVL97:
	.loc 1 443 11
	lw	a4,12(sp)
	.loc 1 446 1
	lw	ra,28(sp)
	.cfi_restore 1
	.loc 1 443 11
	li	a3,5
	.loc 1 446 1
	.loc 1 443 11
	li	a2,1
	.loc 1 446 1
	addi	sp,sp,32
	.cfi_def_cfa_offset 0
.LVL98:
	.loc 1 443 11
	tail	bl_send_msg
.LVL99:
.L49:
	.cfi_restore_state
	.loc 1 446 1
	lw	ra,28(sp)
	.cfi_restore 1
	lw	s0,24(sp)
	.cfi_restore 8
.LVL100:
	li	a0,-12
.LVL101:
	addi	sp,sp,32
	.cfi_def_cfa_offset 0
.LVL102:
	jr	ra
	.cfi_endproc
.LFE44:
	.size	bl_send_version_req, .-bl_send_version_req
	.section	.text.bl_send_me_config_req,"ax",@progbits
	.align	1
	.globl	bl_send_me_config_req
	.type	bl_send_me_config_req, @function
bl_send_me_config_req:
.LFB45:
	.loc 1 449 1 is_stmt 1
	.cfi_startproc
.LVL103:
	.loc 1 450 5
	.loc 1 451 5
	.loc 1 449 1 is_stmt 0
	addi	sp,sp,-16
	.cfi_def_cfa_offset 16
	sw	s1,4(sp)
	.cfi_offset 9, -12
	.loc 1 457 11
	li	s1,4096
	.loc 1 449 1
	sw	s2,0(sp)
	.loc 1 457 11
	li	a2,52
	.cfi_offset 18, -16
	.loc 1 449 1
	mv	s2,a0
.LVL104:
	.loc 1 452 5 is_stmt 1
	.loc 1 454 5
	.loc 1 454 9
	.loc 1 457 5
	.loc 1 457 11 is_stmt 0
	li	a1,5
	addi	a0,s1,1024
.LVL105:
	.loc 1 449 1
	sw	ra,12(sp)
	sw	s0,8(sp)
	.cfi_offset 1, -4
	.cfi_offset 8, -8
	.loc 1 457 11
	call	bl_msg_zalloc.constprop.3
.LVL106:
	.loc 1 459 5 is_stmt 1
	.loc 1 459 8 is_stmt 0
	beq	a0,zero,.L52
	mv	s0,a0
	.loc 1 465 5 is_stmt 1
	lui	a0,%hi(.LC7)
.LVL107:
	li	a2,0
	li	a1,1
	addi	a0,a0,%lo(.LC7)
	call	printf
.LVL108:
	.loc 1 467 5
	.loc 1 468 5
	.loc 1 467 18 is_stmt 0
	li	a5,1
	.loc 1 469 46
	add	a4,s2,s1
	.loc 1 467 18
	sh	a5,46(s0)
	.loc 1 469 5 is_stmt 1
	.loc 1 469 46 is_stmt 0
	lhu	a5,-508(a4)
	.loc 1 469 30
	sh	a5,0(s0)
	.loc 1 470 5 is_stmt 1
	.loc 1 471 52 is_stmt 0
	lbu	a5,-504(a4)
	.loc 1 470 59
	lbu	a4,-505(a4)
	.loc 1 471 67
	slli	a5,a5,2
	.loc 1 470 59
	or	a5,a5,a4
	.loc 1 470 30
	sb	a5,2(s0)
	.loc 1 473 5 is_stmt 1
.LVL109:
	addi	a5,s1,-502
	addi	s1,s1,-486
	add	a5,s2,a5
	addi	a4,s0,3
	add	s1,s2,s1
.LVL110:
.L53:
	.loc 1 473 5 is_stmt 0 discriminator 1
	bne	a5,s1,.L54
	.loc 1 476 5 is_stmt 1
	.loc 1 489 35 is_stmt 0
	li	a3,4096
	.loc 1 476 34
	sh	zero,20(s0)
	.loc 1 477 5 is_stmt 1
	.loc 1 477 37 is_stmt 0
	sw	zero,24(s0)
	.loc 1 478 5 is_stmt 1
	.loc 1 478 27 is_stmt 0
	sb	zero,28(s0)
	.loc 1 489 5 is_stmt 1
	.loc 1 489 35 is_stmt 0
	add	a5,s2,a3
.LVL111:
	lw	a4,-516(a5)
	.loc 1 493 11
	mv	a1,s0
	mv	a0,s2
	.loc 1 489 35
	lbu	a4,56(a4)
	.loc 1 493 11
	addi	a3,a3,1025
	li	a2,1
	.loc 1 489 16
	sb	a4,48(s0)
	.loc 1 490 5 is_stmt 1
	.loc 1 490 36 is_stmt 0
	lw	a5,-516(a5)
	.loc 1 493 11
	li	a4,0
	.loc 1 490 17
	lw	a5,60(a5)
	sh	a5,44(s0)
	.loc 1 493 5 is_stmt 1
	.loc 1 496 1 is_stmt 0
	lw	s0,8(sp)
	.cfi_remember_state
	.cfi_restore 8
.LVL112:
	lw	ra,12(sp)
	.cfi_restore 1
	lw	s1,4(sp)
	.cfi_restore 9
	lw	s2,0(sp)
	.cfi_restore 18
.LVL113:
	addi	sp,sp,16
	.cfi_def_cfa_offset 0
	.loc 1 493 11
	tail	bl_send_msg
.LVL114:
.L54:
	.cfi_restore_state
	.loc 1 474 9 is_stmt 1 discriminator 3
	.loc 1 474 41 is_stmt 0 discriminator 3
	lbu	a3,0(a5)
	addi	a4,a4,1
	addi	a5,a5,1
.LVL115:
	.loc 1 474 33 discriminator 3
	sb	a3,-1(a4)
.LVL116:
	j	.L53
.LVL117:
.L52:
	.loc 1 496 1
	lw	ra,12(sp)
	.cfi_restore 1
	lw	s0,8(sp)
	.cfi_restore 8
	lw	s1,4(sp)
	.cfi_restore 9
	lw	s2,0(sp)
	.cfi_restore 18
.LVL118:
	li	a0,-12
.LVL119:
	addi	sp,sp,16
	.cfi_def_cfa_offset 0
	jr	ra
	.cfi_endproc
.LFE45:
	.size	bl_send_me_config_req, .-bl_send_me_config_req
	.section	.text.bl_send_me_chan_config_req,"ax",@progbits
	.align	1
	.globl	bl_send_me_chan_config_req
	.type	bl_send_me_chan_config_req, @function
bl_send_me_chan_config_req:
.LFB47:
	.loc 1 505 1 is_stmt 1
	.cfi_startproc
.LVL120:
	.loc 1 506 5
	.loc 1 507 5
	.loc 1 509 5
	.loc 1 509 9
	.loc 1 512 5
	.loc 1 505 1 is_stmt 0
	addi	sp,sp,-16
	.cfi_def_cfa_offset 16
	sw	s0,8(sp)
	.cfi_offset 8, -8
	mv	s0,a0
	.loc 1 512 11
	li	a0,4096
.LVL121:
	li	a2,254
	li	a1,5
	addi	a0,a0,1026
	.loc 1 505 1
	sw	ra,12(sp)
	.cfi_offset 1, -4
	.loc 1 512 11
	call	bl_msg_zalloc.constprop.3
.LVL122:
	.loc 1 514 5 is_stmt 1
	.loc 1 514 8 is_stmt 0
	beq	a0,zero,.L57
	mv	a1,a0
	.loc 1 517 5 is_stmt 1
	.loc 1 517 22 is_stmt 0
	sb	zero,252(a0)
	.loc 1 518 5 is_stmt 1
.LVL123:
	.loc 1 518 12 is_stmt 0
	li	a2,0
	.loc 1 518 19
	lui	t1,%hi(.LANCHOR3)
	li	t3,6
	li	t4,52
	.loc 1 520 29
	lui	a7,%hi(.LANCHOR4)
	.loc 1 521 50
	li	t5,2
	.loc 1 527 12
	li	t6,14
.LVL124:
.L58:
	.loc 1 518 5 discriminator 1
	lw	a5,%lo(.LANCHOR3)(t1)
	ble	a5,a2,.L62
	.loc 1 519 9 is_stmt 1
	.loc 1 519 25 is_stmt 0
	lbu	a4,252(a1)
	mul	a0,a2,t4
	addi	a6,a7,%lo(.LANCHOR4)
	mul	a5,a4,t3
	add	a5,a1,a5
	.loc 1 519 46
	sb	zero,3(a5)
	.loc 1 520 9 is_stmt 1
	.loc 1 520 32 is_stmt 0
	lw	a3,%lo(.LANCHOR4)(a7)
	add	a3,a3,a0
	.loc 1 520 39
	lw	a3,8(a3)
	andi	a3,a3,1
	.loc 1 520 12
	beq	a3,zero,.L59
	.loc 1 521 13 is_stmt 1
	.loc 1 521 50 is_stmt 0
	sb	t5,3(a5)
.L59:
	.loc 1 522 9 is_stmt 1
.LVL125:
.LBB48:
.LBB49:
	.loc 1 499 5
.LBE49:
.LBE48:
	.loc 1 522 49 is_stmt 0
	lw	a3,0(a6)
	.loc 1 522 46
	lbu	t0,3(a5)
	.loc 1 522 49
	add	a3,a3,a0
.LBB52:
.LBB50:
	.loc 1 499 15
	lw	a3,8(a3)
.LBE50:
.LBE52:
	.loc 1 523 45
	sb	zero,2(a5)
.LBB53:
.LBB51:
	.loc 1 499 15
	andi	a3,a3,10
	.loc 1 499 8
	snez	a3,a3
.LBE51:
.LBE53:
	.loc 1 522 46
	or	a3,a3,t0
	sb	a3,3(a5)
	.loc 1 523 9 is_stmt 1
	.loc 1 524 9
	.loc 1 524 66 is_stmt 0
	lw	a3,0(a6)
	add	a3,a3,a0
	lhu	a3,2(a3)
	.loc 1 524 45
	sh	a3,0(a5)
	.loc 1 525 9 is_stmt 1
	.loc 1 525 70 is_stmt 0
	lw	a3,0(a6)
	add	a0,a3,a0
	.loc 1 525 49
	lw	a3,16(a0)
	sb	a3,4(a5)
	.loc 1 526 9 is_stmt 1
	.loc 1 526 25 is_stmt 0
	addi	a5,a4,1
	andi	a5,a5,0xff
	sb	a5,252(a1)
	.loc 1 527 9 is_stmt 1
	.loc 1 527 12 is_stmt 0
	bne	a5,t6,.L60
.L62:
	.loc 1 531 5 is_stmt 1
	.loc 1 531 21 is_stmt 0
	sb	zero,253(a1)
	.loc 1 533 5 is_stmt 1
	.loc 1 533 12 is_stmt 0
	mv	a0,s0
	.loc 1 534 1
	lw	s0,8(sp)
	.cfi_remember_state
	.cfi_restore 8
.LVL126:
	lw	ra,12(sp)
	.cfi_restore 1
	.loc 1 533 12
	li	a3,4096
	.loc 1 534 1
	.loc 1 533 12
	li	a4,0
	addi	a3,a3,1027
	li	a2,1
.LVL127:
	.loc 1 534 1
	addi	sp,sp,16
	.cfi_def_cfa_offset 0
	.loc 1 533 12
	tail	bl_send_msg
.LVL128:
.L60:
	.cfi_restore_state
	.loc 1 518 43 discriminator 2
	addi	a2,a2,1
.LVL129:
	j	.L58
.LVL130:
.L57:
	.loc 1 534 1
	lw	ra,12(sp)
	.cfi_restore 1
	lw	s0,8(sp)
	.cfi_restore 8
.LVL131:
	li	a0,-12
.LVL132:
	addi	sp,sp,16
	.cfi_def_cfa_offset 0
	jr	ra
	.cfi_endproc
.LFE47:
	.size	bl_send_me_chan_config_req, .-bl_send_me_chan_config_req
	.section	.text.bl_send_me_rate_config_req,"ax",@progbits
	.align	1
	.globl	bl_send_me_rate_config_req
	.type	bl_send_me_rate_config_req, @function
bl_send_me_rate_config_req:
.LFB48:
	.loc 1 537 1 is_stmt 1
	.cfi_startproc
.LVL133:
	.loc 1 538 5
	.loc 1 540 5
	.loc 1 540 9
	.loc 1 543 5
	.loc 1 537 1 is_stmt 0
	addi	sp,sp,-16
	.cfi_def_cfa_offset 16
	sw	s0,8(sp)
	.cfi_offset 8, -8
	mv	s0,a0
	.loc 1 543 11
	li	a0,4096
.LVL134:
	.loc 1 537 1
	sw	s1,4(sp)
	sw	s2,0(sp)
	.cfi_offset 9, -12
	.cfi_offset 18, -16
	mv	s1,a2
	mv	s2,a1
	.loc 1 543 11
	li	a2,4
.LVL135:
	li	a1,5
.LVL136:
	addi	a0,a0,1040
	.loc 1 537 1
	sw	ra,12(sp)
	.cfi_offset 1, -4
	.loc 1 543 11
	call	bl_msg_zalloc.constprop.3
.LVL137:
	.loc 1 544 5 is_stmt 1
	.loc 1 544 8 is_stmt 0
	beq	a0,zero,.L68
	.loc 1 547 18
	sb	s2,0(a0)
	.loc 1 548 25
	sh	s1,2(a0)
	mv	a1,a0
	.loc 1 547 5 is_stmt 1
	.loc 1 548 5
	.loc 1 550 5
	.loc 1 550 12 is_stmt 0
	mv	a0,s0
.LVL138:
	.loc 1 551 1
	lw	s0,8(sp)
	.cfi_remember_state
	.cfi_restore 8
.LVL139:
	lw	ra,12(sp)
	.cfi_restore 1
	lw	s1,4(sp)
	.cfi_restore 9
	lw	s2,0(sp)
	.cfi_restore 18
	.loc 1 550 12
	li	a4,0
	.loc 1 551 1
	.loc 1 550 12
	li	a3,0
	li	a2,0
	.loc 1 551 1
	addi	sp,sp,16
	.cfi_def_cfa_offset 0
	.loc 1 550 12
	tail	bl_send_msg
.LVL140:
.L68:
	.cfi_restore_state
	.loc 1 551 1
	lw	ra,12(sp)
	.cfi_restore 1
	lw	s0,8(sp)
	.cfi_restore 8
.LVL141:
	lw	s1,4(sp)
	.cfi_restore 9
	lw	s2,0(sp)
	.cfi_restore 18
	li	a0,-12
.LVL142:
	addi	sp,sp,16
	.cfi_def_cfa_offset 0
	jr	ra
	.cfi_endproc
.LFE48:
	.size	bl_send_me_rate_config_req, .-bl_send_me_rate_config_req
	.section	.text.bl_send_start,"ax",@progbits
	.align	1
	.globl	bl_send_start
	.type	bl_send_start, @function
bl_send_start:
.LFB49:
	.loc 1 554 1 is_stmt 1
	.cfi_startproc
.LVL143:
	.loc 1 555 5
	.loc 1 557 5
	.loc 1 557 9
	.loc 1 560 5
	.loc 1 554 1 is_stmt 0
	addi	sp,sp,-16
	.cfi_def_cfa_offset 16
	sw	s1,4(sp)
	.loc 1 560 23
	li	a2,72
	.cfi_offset 9, -12
	.loc 1 554 1
	mv	s1,a0
	.loc 1 560 23
	li	a1,0
	li	a0,2
.LVL144:
	.loc 1 554 1
	sw	ra,12(sp)
	sw	s0,8(sp)
	sw	s2,0(sp)
	.cfi_offset 1, -4
	.cfi_offset 8, -8
	.cfi_offset 18, -16
	.loc 1 560 23
	call	bl_msg_zalloc.constprop.3
.LVL145:
	.loc 1 562 5 is_stmt 1
	.loc 1 562 8 is_stmt 0
	beq	a0,zero,.L71
	.loc 1 567 37
	li	a1,4096
	add	s2,s1,a1
	li	a5,1
	.loc 1 569 39
	addi	a1,a1,-468
	.loc 1 567 37
	sw	a5,-468(s2)
	.loc 1 569 5
	add	a1,s1,a1
	li	a2,64
	mv	s0,a0
	.loc 1 567 5 is_stmt 1
	.loc 1 569 5
	call	memcpy
.LVL146:
	.loc 1 570 5
	.loc 1 570 62 is_stmt 0
	lw	a5,-516(s2)
	.loc 1 574 12
	mv	a1,s0
	mv	a0,s1
	.loc 1 570 36
	lw	a5,16(a5)
	.loc 1 574 12
	li	a4,0
	li	a3,3
	.loc 1 570 36
	sw	a5,64(s0)
	.loc 1 571 5 is_stmt 1
	.loc 1 571 64 is_stmt 0
	lw	a5,-516(s2)
	.loc 1 574 12
	li	a2,1
	.loc 1 571 40
	lw	a5,52(a5)
	sh	a5,68(s0)
	.loc 1 574 5 is_stmt 1
	.loc 1 575 1 is_stmt 0
	lw	s0,8(sp)
	.cfi_remember_state
	.cfi_restore 8
.LVL147:
	lw	ra,12(sp)
	.cfi_restore 1
	lw	s1,4(sp)
	.cfi_restore 9
.LVL148:
	lw	s2,0(sp)
	.cfi_restore 18
	addi	sp,sp,16
	.cfi_def_cfa_offset 0
	.loc 1 574 12
	tail	bl_send_msg
.LVL149:
.L71:
	.cfi_restore_state
	.loc 1 575 1
	lw	ra,12(sp)
	.cfi_restore 1
	lw	s0,8(sp)
	.cfi_restore 8
	lw	s1,4(sp)
	.cfi_restore 9
.LVL150:
	lw	s2,0(sp)
	.cfi_restore 18
	li	a0,-12
.LVL151:
	addi	sp,sp,16
	.cfi_def_cfa_offset 0
	jr	ra
	.cfi_endproc
.LFE49:
	.size	bl_send_start, .-bl_send_start
	.section	.text.bl_send_add_if,"ax",@progbits
	.align	1
	.globl	bl_send_add_if
	.type	bl_send_add_if, @function
bl_send_add_if:
.LFB50:
	.loc 1 579 1 is_stmt 1
	.cfi_startproc
.LVL152:
	.loc 1 580 5
	.loc 1 582 5
	.loc 1 582 9
	.loc 1 585 5
	.loc 1 579 1 is_stmt 0
	addi	sp,sp,-48
	.cfi_def_cfa_offset 48
	sw	s1,36(sp)
	sw	s2,32(sp)
	sw	s3,28(sp)
	.cfi_offset 9, -12
	.cfi_offset 18, -16
	.cfi_offset 19, -20
	mv	s2,a0
	mv	s3,a1
	mv	s1,a2
	.loc 1 585 24
	li	a1,0
.LVL153:
	li	a2,8
.LVL154:
	li	a0,6
.LVL155:
	.loc 1 579 1
	sw	ra,44(sp)
	sw	s0,40(sp)
	.cfi_offset 1, -4
	.cfi_offset 8, -8
	.loc 1 579 1
	sw	a4,12(sp)
	.loc 1 585 24
	call	bl_msg_zalloc.constprop.3
.LVL156:
	.loc 1 587 5 is_stmt 1
	.loc 1 587 8 is_stmt 0
	beq	a0,zero,.L84
	.loc 1 591 5
	li	a2,6
	mv	s0,a0
	.loc 1 591 5 is_stmt 1
	mv	a1,s3
	addi	a0,a0,1
.LVL157:
	call	memcpy
.LVL158:
	.loc 1 592 5
	addi	a2,s1,-1
	andi	a2,a2,0xff
	li	a5,8
	lw	a4,12(sp)
	bgtu	a2,a5,.L75
	lui	a5,%hi(.L77)
	addi	a5,a5,%lo(.L77)
	slli	a2,a2,2
	add	a2,a2,a5
	lw	a5,0(a2)
	jr	a5
	.section	.rodata.bl_send_add_if,"a",@progbits
	.align	2
	.align	2
.L77:
	.word	.L82
	.word	.L75
	.word	.L80
	.word	.L85
	.word	.L75
	.word	.L75
	.word	.L79
	.word	.L78
	.word	.L76
	.section	.text.bl_send_add_if
.L78:
	.loc 1 594 9
	.loc 1 594 31 is_stmt 0
	li	a5,1
	sb	a5,7(s0)
	.loc 1 595 9 is_stmt 1
	.loc 1 598 9
.L75:
	.loc 1 618 9
	.loc 1 618 32 is_stmt 0
	sb	zero,0(s0)
	.loc 1 619 9 is_stmt 1
	j	.L83
.L82:
	.loc 1 602 9
	.loc 1 602 32 is_stmt 0
	li	a5,1
.L87:
	.loc 1 613 32
	sb	a5,0(s0)
	.loc 1 614 9 is_stmt 1
.L83:
	.loc 1 623 5
	.loc 1 623 12 is_stmt 0
	mv	a1,s0
	.loc 1 624 1
	lw	s0,40(sp)
	.cfi_remember_state
	.cfi_restore 8
.LVL159:
	lw	ra,44(sp)
	.cfi_restore 1
	lw	s1,36(sp)
	.cfi_restore 9
	lw	s3,28(sp)
	.cfi_restore 19
.LVL160:
	.loc 1 623 12
	mv	a0,s2
	.loc 1 624 1
	lw	s2,32(sp)
	.cfi_restore 18
.LVL161:
	.loc 1 623 12
	li	a3,7
	.loc 1 624 1
	.loc 1 623 12
	li	a2,1
	.loc 1 624 1
	addi	sp,sp,48
	.cfi_def_cfa_offset 0
.LVL162:
	.loc 1 623 12
	tail	bl_send_msg
.LVL163:
.L76:
	.cfi_restore_state
	.loc 1 606 9 is_stmt 1
	.loc 1 606 31 is_stmt 0
	li	a5,1
	sb	a5,7(s0)
.L80:
	.loc 1 607 9 is_stmt 1
	.loc 1 610 9
	.loc 1 610 32 is_stmt 0
	li	a5,2
	j	.L87
.L79:
	.loc 1 613 9 is_stmt 1
	.loc 1 613 32 is_stmt 0
	li	a5,3
	j	.L87
.LVL164:
.L84:
	.loc 1 588 16
	li	a0,-12
.LVL165:
.L73:
	.loc 1 624 1
	lw	ra,44(sp)
	.cfi_remember_state
	.cfi_restore 1
	lw	s0,40(sp)
	.cfi_restore 8
	lw	s1,36(sp)
	.cfi_restore 9
	lw	s2,32(sp)
	.cfi_restore 18
.LVL166:
	lw	s3,28(sp)
	.cfi_restore 19
.LVL167:
	addi	sp,sp,48
	.cfi_def_cfa_offset 0
.LVL168:
	jr	ra
.LVL169:
.L85:
	.cfi_restore_state
	.loc 1 616 16
	li	a0,-1
	j	.L73
	.cfi_endproc
.LFE50:
	.size	bl_send_add_if, .-bl_send_add_if
	.section	.text.bl_send_remove_if,"ax",@progbits
	.align	1
	.globl	bl_send_remove_if
	.type	bl_send_remove_if, @function
bl_send_remove_if:
.LFB51:
	.loc 1 627 1 is_stmt 1
	.cfi_startproc
.LVL170:
	.loc 1 628 5
	.loc 1 630 5
	.loc 1 630 9
	.loc 1 632 5
	.loc 1 627 1 is_stmt 0
	addi	sp,sp,-16
	.cfi_def_cfa_offset 16
	sw	s0,8(sp)
	sw	s1,4(sp)
	.cfi_offset 8, -8
	.cfi_offset 9, -12
	mv	s0,a0
	mv	s1,a1
	.loc 1 632 27
	li	a2,1
	li	a1,0
.LVL171:
	li	a0,8
.LVL172:
	.loc 1 627 1
	sw	ra,12(sp)
	.cfi_offset 1, -4
	.loc 1 632 27
	call	bl_msg_zalloc.constprop.3
.LVL173:
	.loc 1 633 5 is_stmt 1
	.loc 1 633 8 is_stmt 0
	beq	a0,zero,.L89
	.loc 1 636 35
	sb	s1,0(a0)
	mv	a1,a0
	.loc 1 636 5 is_stmt 1
	.loc 1 638 5
	.loc 1 638 12 is_stmt 0
	mv	a0,s0
.LVL174:
	.loc 1 639 1
	lw	s0,8(sp)
	.cfi_remember_state
	.cfi_restore 8
.LVL175:
	lw	ra,12(sp)
	.cfi_restore 1
	lw	s1,4(sp)
	.cfi_restore 9
	.loc 1 638 12
	li	a4,0
	.loc 1 639 1
	.loc 1 638 12
	li	a3,9
	li	a2,1
	.loc 1 639 1
	addi	sp,sp,16
	.cfi_def_cfa_offset 0
	.loc 1 638 12
	tail	bl_send_msg
.LVL176:
.L89:
	.cfi_restore_state
	.loc 1 639 1
	lw	ra,12(sp)
	.cfi_restore 1
	lw	s0,8(sp)
	.cfi_restore 8
.LVL177:
	lw	s1,4(sp)
	.cfi_restore 9
	li	a0,-12
.LVL178:
	addi	sp,sp,16
	.cfi_def_cfa_offset 0
	jr	ra
	.cfi_endproc
.LFE51:
	.size	bl_send_remove_if, .-bl_send_remove_if
	.section	.text.bl_send_scanu_req,"ax",@progbits
	.align	1
	.globl	bl_send_scanu_req
	.type	bl_send_scanu_req, @function
bl_send_scanu_req:
.LFB52:
	.loc 1 642 1 is_stmt 1
	.cfi_startproc
.LVL179:
	.loc 1 643 5
	.loc 1 644 5
	.loc 1 645 5
	.loc 1 647 5
	.loc 1 647 9
	.loc 1 650 5
	.loc 1 642 1 is_stmt 0
	addi	sp,sp,-16
	.cfi_def_cfa_offset 16
	sw	s0,8(sp)
	.loc 1 650 11
	li	a2,340
	.cfi_offset 8, -8
	.loc 1 642 1
	mv	s0,a0
	.loc 1 650 11
	li	a1,4
	li	a0,4096
.LVL180:
	.loc 1 642 1
	sw	ra,12(sp)
	.cfi_offset 1, -4
	.loc 1 650 11
	call	bl_msg_zalloc.constprop.3
.LVL181:
	.loc 1 652 5 is_stmt 1
	.loc 1 652 8 is_stmt 0
	beq	a0,zero,.L92
	.loc 1 657 25
	li	a5,4096
	add	a5,s0,a5
	.loc 1 657 18
	lw	a5,-484(a5)
	mv	a1,a0
	.loc 1 657 5 is_stmt 1
	.loc 1 676 21 is_stmt 0
	sh	zero,332(a0)
	.loc 1 657 18
	sb	a5,334(a0)
	.loc 1 658 5 is_stmt 1
	.loc 1 658 19 is_stmt 0
	lui	a5,%hi(.LANCHOR3)
	lw	a4,%lo(.LANCHOR3)(a5)
	.loc 1 660 16
	lui	a5,%hi(.LANCHOR6)
	addi	a5,a5,%lo(.LANCHOR6)
	lw	a3,0(a5)
	lhu	a5,4(a5)
	.loc 1 658 19
	sb	a4,335(a0)
	.loc 1 659 5 is_stmt 1
	.loc 1 660 5
	.loc 1 660 16 is_stmt 0
	sw	a3,320(a0)
	sh	a5,324(a0)
	.loc 1 661 5 is_stmt 1
	.loc 1 659 19 is_stmt 0
	li	a5,256
	sh	a5,336(a0)
	.loc 1 663 5 is_stmt 1
	.loc 1 664 9
.LVL182:
	.loc 1 676 5
	.loc 1 677 5
	.loc 1 677 18 is_stmt 0
	sw	zero,328(a0)
	.loc 1 679 5 is_stmt 1
.LVL183:
	mv	a5,a0
	.loc 1 679 12 is_stmt 0
	li	a2,0
	.loc 1 679 5
	andi	a3,a4,255
.LBB54:
	.loc 1 680 48
	lui	a0,%hi(.LANCHOR4)
.LVL184:
	.loc 1 680 41
	li	a6,52
	.loc 1 684 28
	li	a7,1
.LVL185:
.L93:
.LBE54:
	.loc 1 679 5 discriminator 1
	blt	a2,a3,.L94
	.loc 1 689 5 is_stmt 1
	.loc 1 689 12 is_stmt 0
	mv	a0,s0
	.loc 1 690 1
	lw	s0,8(sp)
	.cfi_remember_state
	.cfi_restore 8
.LVL186:
	lw	ra,12(sp)
	.cfi_restore 1
	.loc 1 689 12
	li	a4,0
	.loc 1 690 1
	.loc 1 689 12
	li	a3,0
	li	a2,0
.LVL187:
	.loc 1 690 1
	addi	sp,sp,16
	.cfi_def_cfa_offset 0
	.loc 1 689 12
	tail	bl_send_msg
.LVL188:
.L94:
	.cfi_restore_state
.LBB55:
	.loc 1 680 9 is_stmt 1 discriminator 3
	.loc 1 680 41 is_stmt 0 discriminator 3
	mul	t1,a2,a6
	lw	a4,%lo(.LANCHOR4)(a0)
.LBE55:
	.loc 1 679 37 discriminator 3
	addi	a2,a2,1
.LVL189:
	addi	a5,a5,6
.LBB56:
	.loc 1 680 41 discriminator 3
	add	a4,a4,t1
.LVL190:
	.loc 1 682 9 is_stmt 1 discriminator 3
	.loc 1 682 33 is_stmt 0 discriminator 3
	lbu	t1,0(a4)
	.loc 1 682 27 discriminator 3
	sb	t1,-4(a5)
	.loc 1 683 9 is_stmt 1 discriminator 3
	.loc 1 683 33 is_stmt 0 discriminator 3
	lhu	t1,2(a4)
	.loc 1 684 28 discriminator 3
	sb	a7,-3(a5)
	.loc 1 683 27 discriminator 3
	sh	t1,-6(a5)
	.loc 1 684 9 is_stmt 1 discriminator 3
.LVL191:
.LBE56:
	.loc 1 499 5 discriminator 3
.LBB57:
	.loc 1 685 9 discriminator 3
	.loc 1 685 31 is_stmt 0 discriminator 3
	lw	a4,20(a4)
.LVL192:
	sb	a4,-2(a5)
	j	.L93
.LVL193:
.L92:
.LBE57:
	.loc 1 690 1
	lw	ra,12(sp)
	.cfi_restore 1
	lw	s0,8(sp)
	.cfi_restore 8
.LVL194:
	li	a0,-12
.LVL195:
	addi	sp,sp,16
	.cfi_def_cfa_offset 0
	jr	ra
	.cfi_endproc
.LFE52:
	.size	bl_send_scanu_req, .-bl_send_scanu_req
	.section	.text.bl_send_scanu_raw_send,"ax",@progbits
	.align	1
	.globl	bl_send_scanu_raw_send
	.type	bl_send_scanu_raw_send, @function
bl_send_scanu_raw_send:
.LFB53:
	.loc 1 693 1 is_stmt 1
	.cfi_startproc
.LVL196:
	.loc 1 694 5
	.loc 1 695 5
	.loc 1 697 5
	.loc 1 697 9
	.loc 1 700 5
	.loc 1 693 1 is_stmt 0
	addi	sp,sp,-48
	.cfi_def_cfa_offset 48
	sw	s0,40(sp)
	.cfi_offset 8, -8
	.loc 1 700 11
	li	s0,4096
	.loc 1 693 1
	sw	s1,36(sp)
	sw	s2,32(sp)
	sw	s3,28(sp)
	.cfi_offset 9, -12
	.cfi_offset 18, -16
	.cfi_offset 19, -20
	mv	s1,a0
	mv	s3,a1
	mv	s2,a2
	.loc 1 700 11
	li	a1,4
.LVL197:
	li	a2,8
.LVL198:
	addi	a0,s0,5
.LVL199:
	.loc 1 693 1
	sw	ra,44(sp)
	.cfi_offset 1, -4
	.loc 1 700 11
	call	bl_msg_zalloc.constprop.3
.LVL200:
	.loc 1 701 5 is_stmt 1
	.loc 1 701 8 is_stmt 0
	beq	a0,zero,.L98
	mv	a1,a0
	.loc 1 706 5 is_stmt 1
	.loc 1 706 14 is_stmt 0
	sw	s3,0(a0)
	.loc 1 707 5 is_stmt 1
	.loc 1 707 14 is_stmt 0
	sw	s2,4(a0)
	.loc 1 710 5 is_stmt 1
	.loc 1 710 12 is_stmt 0
	addi	a4,sp,12
	addi	a3,s0,6
	li	a2,1
	mv	a0,s1
.LVL201:
	call	bl_send_msg
.LVL202:
.L96:
	.loc 1 711 1
	lw	ra,44(sp)
	.cfi_remember_state
	.cfi_restore 1
	lw	s0,40(sp)
	.cfi_restore 8
	lw	s1,36(sp)
	.cfi_restore 9
.LVL203:
	lw	s2,32(sp)
	.cfi_restore 18
.LVL204:
	lw	s3,28(sp)
	.cfi_restore 19
.LVL205:
	addi	sp,sp,48
	.cfi_def_cfa_offset 0
	jr	ra
.LVL206:
.L98:
	.cfi_restore_state
	.loc 1 702 16
	li	a0,-12
.LVL207:
	j	.L96
	.cfi_endproc
.LFE53:
	.size	bl_send_scanu_raw_send, .-bl_send_scanu_raw_send
	.section	.text.bl_send_sm_connect_req,"ax",@progbits
	.align	1
	.globl	bl_send_sm_connect_req
	.type	bl_send_sm_connect_req, @function
bl_send_sm_connect_req:
.LFB55:
	.loc 1 723 1 is_stmt 1
	.cfi_startproc
.LVL208:
	.loc 1 724 5
	.loc 1 725 5
	.loc 1 726 5
	.loc 1 728 5
	.loc 1 728 9
	.loc 1 731 5
	.loc 1 723 1 is_stmt 0
	addi	sp,sp,-32
	.cfi_def_cfa_offset 32
	sw	s3,12(sp)
	.cfi_offset 19, -20
	mv	s3,a0
	.loc 1 731 11
	li	a0,8192
.LVL209:
	.loc 1 723 1
	sw	s0,24(sp)
	sw	s4,8(sp)
	.cfi_offset 8, -8
	.cfi_offset 20, -24
	mv	s0,a1
	mv	s4,a2
	.loc 1 731 11
	li	a1,6
.LVL210:
	li	a2,452
.LVL211:
	addi	a0,a0,-2048
	.loc 1 723 1
	sw	ra,28(sp)
	sw	s1,20(sp)
	sw	s2,16(sp)
	.cfi_offset 1, -4
	.cfi_offset 9, -12
	.cfi_offset 18, -16
	.loc 1 731 11
	call	bl_msg_zalloc.constprop.3
.LVL212:
	.loc 1 733 5 is_stmt 1
	.loc 1 733 8 is_stmt 0
	beq	a0,zero,.L123
	.loc 1 737 8
	lw	a5,96(s0)
	mv	s1,a0
	.loc 1 737 5 is_stmt 1
	.loc 1 726 11 is_stmt 0
	li	s2,0
	.loc 1 737 8
	beq	a5,zero,.L102
	.loc 1 738 39 discriminator 1
	lw	a4,100(s0)
	.loc 1 738 58 discriminator 1
	li	a5,-1028096
	addi	a5,a5,1023
	add	a5,a4,a5
	.loc 1 737 40 discriminator 1
	li	a3,1
	.loc 1 741 15 discriminator 1
	li	s2,4
	.loc 1 737 40 discriminator 1
	bleu	a5,a3,.L102
	.loc 1 739 58
	li	a5,1028096
	addi	a5,a5,-1019
	.loc 1 726 11
	li	s2,0
	.loc 1 739 58
	bne	a4,a5,.L102
	.loc 1 741 15
	li	s2,4
.L102:
.LVL213:
	.loc 1 743 5 is_stmt 1
	.loc 1 743 8 is_stmt 0
	lbu	a5,132(s0)
	beq	a5,zero,.L103
	.loc 1 744 9 is_stmt 1
	.loc 1 744 15 is_stmt 0
	ori	s2,s2,1
.LVL214:
.L103:
	.loc 1 746 5 is_stmt 1
	.loc 1 746 8 is_stmt 0
	lbu	a5,136(s0)
	beq	a5,zero,.L104
	.loc 1 747 9 is_stmt 1
	.loc 1 747 15 is_stmt 0
	ori	s2,s2,2
.LVL215:
.L104:
	.loc 1 749 5 is_stmt 1
.LBB63:
.LBB64:
	.loc 1 715 5
	.loc 1 715 8 is_stmt 0
	lw	a4,92(s0)
	li	a5,1028096
	addi	a5,a5,-1023
	andi	a4,a4,-5
	beq	a4,a5,.L105
.LBE64:
.LBE63:
	.loc 1 750 9 is_stmt 1
	.loc 1 750 15 is_stmt 0
	ori	s2,s2,8
.LVL216:
.L105:
	.loc 1 752 5 is_stmt 1
	.loc 1 752 8 is_stmt 0
	lbu	a4,85(s0)
	li	a5,1
	bne	a4,a5,.L106
	.loc 1 753 9 is_stmt 1
	.loc 1 753 15 is_stmt 0
	ori	s2,s2,16
.LVL217:
.L106:
	.loc 1 755 5 is_stmt 1
	.loc 1 755 20 is_stmt 0
	lhu	a5,134(s0)
	.loc 1 755 8
	bne	a5,zero,.L107
	.loc 1 758 34
	li	a5,36864
	addi	a5,a5,-1906
.L107:
	sh	a5,52(s1)
	.loc 1 760 5 is_stmt 1
	.loc 1 760 12 is_stmt 0
	lw	a5,56(s0)
	.loc 1 760 8
	beq	a5,zero,.L108
	.loc 1 760 26 discriminator 1
	lbu	a3,0(a5)
	.loc 1 760 20 discriminator 1
	li	a4,255
	bne	a3,a4,.L109
	.loc 1 760 93 discriminator 3
	lbu	a2,1(a5)
	li	a4,0
	bne	a2,a3,.L110
	.loc 1 760 164 discriminator 5
	lbu	a3,2(a5)
	bne	a3,a2,.L110
	.loc 1 760 235 discriminator 7
	lbu	a2,3(a5)
	bne	a2,a3,.L110
	.loc 1 760 306 discriminator 9
	lbu	a3,4(a5)
	bne	a3,a2,.L110
	.loc 1 760 23 discriminator 11
	lbu	a5,5(a5)
	bne	a5,a3,.L110
.L108:
	.loc 1 765 9 is_stmt 1
	.loc 1 765 20 is_stmt 0
	lui	a1,%hi(.LANCHOR6)
	li	a2,6
	addi	a1,a1,%lo(.LANCHOR6)
	addi	a0,s1,34
.LVL218:
	call	memcpy
.LVL219:
	j	.L112
.L109:
	.loc 1 760 449 discriminator 12
	bne	a3,zero,.L137
	.loc 1 760 522 discriminator 13
	lbu	a4,1(a5)
	bne	a4,zero,.L137
	.loc 1 760 593 discriminator 14
	lbu	a4,2(a5)
	bne	a4,zero,.L137
	.loc 1 760 664 discriminator 15
	lbu	a4,3(a5)
	bne	a4,zero,.L137
	.loc 1 760 735 discriminator 16
	lbu	a4,4(a5)
	bne	a4,zero,.L137
	.loc 1 760 452 discriminator 17
	lbu	a5,5(a5)
	beq	a5,zero,.L108
.L110:
	.loc 1 761 9 discriminator 3
	li	a3,6
.L111:
.LVL220:
	.loc 1 762 13 is_stmt 1 discriminator 3
	.loc 1 762 45 is_stmt 0 discriminator 3
	lw	a5,56(s0)
	add	a5,a5,a4
	lbu	a2,0(a5)
	.loc 1 762 33 discriminator 3
	add	a5,s1,a4
	.loc 1 761 23 discriminator 3
	addi	a4,a4,1
.LVL221:
	.loc 1 762 33 discriminator 3
	sb	a2,34(a5)
	.loc 1 761 9 discriminator 3
	bne	a4,a3,.L111
.LVL222:
.L112:
	.loc 1 766 5 is_stmt 1
	.loc 1 766 25 is_stmt 0
	li	a5,4096
	add	a5,s3,a5
	.loc 1 766 18
	lw	a5,-484(a5)
	sb	a5,61(s1)
	.loc 1 767 5 is_stmt 1
	.loc 1 767 8 is_stmt 0
	lhu	a5,2(s0)
	beq	a5,zero,.L113
	.loc 1 768 9 is_stmt 1
	.loc 1 768 38 is_stmt 0
	lbu	a5,0(s0)
	.loc 1 768 24
	sb	a5,42(s1)
	.loc 1 769 9 is_stmt 1
	.loc 1 769 38 is_stmt 0
	lhu	a5,2(s0)
	.loc 1 769 24
	sh	a5,40(s1)
	.loc 1 770 9 is_stmt 1
.LVL223:
.LBB65:
.LBB66:
	.loc 1 499 5
	.loc 1 499 15 is_stmt 0
	lw	a5,8(s0)
	andi	a5,a5,10
	.loc 1 499 8
	snez	a5,a5
	sb	a5,43(s1)
.L114:
.LBE66:
.LBE65:
	li	a5,0
	j	.L115
.L137:
	li	a4,0
	j	.L110
.L113:
	.loc 1 772 9 is_stmt 1
	.loc 1 772 24 is_stmt 0
	li	a5,-1
	sh	a5,40(s1)
	j	.L114
.LVL224:
.L116:
	.loc 1 775 9 is_stmt 1 discriminator 3
	.loc 1 775 39 is_stmt 0 discriminator 3
	lw	a4,64(s0)
	add	a4,a4,a5
	lbu	a3,0(a4)
	.loc 1 775 28 discriminator 3
	add	a4,s1,a5
	.loc 1 774 37 discriminator 3
	addi	a5,a5,1
.LVL225:
	.loc 1 775 28 discriminator 3
	sb	a3,1(a4)
.LVL226:
.L115:
	.loc 1 774 24 discriminator 1
	lw	a4,68(s0)
	.loc 1 774 5 discriminator 1
	bgtu	a4,a5,.L116
	.loc 1 776 5 is_stmt 1
	.loc 1 776 22 is_stmt 0
	sb	a4,0(s1)
	.loc 1 777 5 is_stmt 1
	.loc 1 777 16 is_stmt 0
	sw	s2,48(s1)
	.loc 1 778 5 is_stmt 1
.LBB67:
	.loc 1 778 12
	.loc 1 778 38 is_stmt 0
	lw	a2,80(s0)
.LVL227:
	.loc 1 778 71 is_stmt 1
	.loc 1 778 74 is_stmt 0
	li	a5,256
.LVL228:
	bleu	a2,a5,.L117
	.loc 1 778 90 is_stmt 1 discriminator 1
	lui	a1,%hi(.LANCHOR7)
	lui	a0,%hi(.LC8)
	li	a2,778
.LVL229:
	addi	a1,a1,%lo(.LANCHOR7)
	addi	a0,a0,%lo(.LC8)
	call	printf
.LVL230:
	.loc 1 778 126 discriminator 1
.LBE67:
	.loc 1 779 16 is_stmt 0 discriminator 1
	li	a0,-22
.LVL231:
.L100:
	.loc 1 804 1
	lw	ra,28(sp)
	.cfi_remember_state
	.cfi_restore 1
	lw	s0,24(sp)
	.cfi_restore 8
.LVL232:
	lw	s1,20(sp)
	.cfi_restore 9
	lw	s2,16(sp)
	.cfi_restore 18
	lw	s3,12(sp)
	.cfi_restore 19
.LVL233:
	lw	s4,8(sp)
	.cfi_restore 20
.LVL234:
	addi	sp,sp,32
	.cfi_def_cfa_offset 0
	jr	ra
.LVL235:
.L123:
	.cfi_restore_state
	.loc 1 734 16
	li	a0,-12
.LVL236:
	j	.L100
.LVL237:
.L117:
.LBB68:
	.loc 1 778 126 is_stmt 1
.LBE68:
	.loc 1 780 5
	.loc 1 780 8 is_stmt 0
	beq	a2,zero,.L122
	.loc 1 781 9 is_stmt 1
	lw	a1,76(s0)
	addi	a0,s1,64
	call	memcpy
.LVL238:
.L122:
	.loc 1 782 5
	.loc 1 782 17 is_stmt 0
	lw	a5,80(s0)
	sh	a5,54(s1)
	.loc 1 783 5 is_stmt 1
	.loc 1 783 41 is_stmt 0
	lui	a5,%hi(bl_mod_params)
	addi	a4,a5,%lo(bl_mod_params)
	.loc 1 783 26
	lw	a3,44(a4)
	.loc 1 784 5
	lbu	a4,48(a4)
	addi	a5,a5,%lo(bl_mod_params)
	.loc 1 783 26
	sh	a3,56(s1)
	.loc 1 784 5 is_stmt 1
	xori	a4,a4,1
	.loc 1 784 25 is_stmt 0
	sb	a4,58(s1)
	.loc 1 787 5 is_stmt 1
	.loc 1 787 12 is_stmt 0
	lbu	a4,72(s0)
	.loc 1 787 8
	li	a3,8
	bne	a4,a3,.L118
	.loc 1 788 24
	li	a4,0
.L118:
	sb	a4,59(s1)
	.loc 1 793 5 is_stmt 1
	.loc 1 793 23 is_stmt 0
	lw	a5,68(a5)
	sb	a5,60(s1)
	.loc 1 794 5 is_stmt 1
	.loc 1 794 32 is_stmt 0
	li	a5,1
	sb	a5,320(s1)
	.loc 1 795 5 is_stmt 1
	.loc 1 795 12 is_stmt 0
	lbu	a2,156(s0)
	.loc 1 795 8
	beq	a2,zero,.L119
	.loc 1 796 9 is_stmt 1
	lw	a1,148(s0)
	addi	a0,s1,321
	call	memcpy
.LVL239:
.L119:
	.loc 1 798 5
	.loc 1 798 12 is_stmt 0
	lbu	a2,157(s0)
	.loc 1 798 8
	beq	a2,zero,.L120
	.loc 1 799 9 is_stmt 1
	lw	a1,152(s0)
	addi	a0,s1,385
	call	memcpy
.LVL240:
.L120:
	.loc 1 803 5
	.loc 1 804 1 is_stmt 0
	lw	s0,24(sp)
	.cfi_restore 8
.LVL241:
	lw	ra,28(sp)
	.cfi_restore 1
	lw	s2,16(sp)
	.cfi_restore 18
.LVL242:
	.loc 1 803 12
	mv	a4,s4
	mv	a1,s1
	.loc 1 804 1
	lw	s4,8(sp)
	.cfi_restore 20
.LVL243:
	lw	s1,20(sp)
	.cfi_restore 9
.LVL244:
	.loc 1 803 12
	mv	a0,s3
	.loc 1 804 1
	lw	s3,12(sp)
	.cfi_restore 19
.LVL245:
	.loc 1 803 12
	li	a3,8192
	.loc 1 804 1
	.loc 1 803 12
	addi	a3,a3,-2047
	li	a2,1
	.loc 1 804 1
	addi	sp,sp,32
	.cfi_def_cfa_offset 0
	.loc 1 803 12
	tail	bl_send_msg
.LVL246:
	.cfi_endproc
.LFE55:
	.size	bl_send_sm_connect_req, .-bl_send_sm_connect_req
	.section	.text.bl_send_sm_disconnect_req,"ax",@progbits
	.align	1
	.globl	bl_send_sm_disconnect_req
	.type	bl_send_sm_disconnect_req, @function
bl_send_sm_disconnect_req:
.LFB56:
	.loc 1 807 1 is_stmt 1
	.cfi_startproc
.LVL247:
	.loc 1 808 5
	.loc 1 810 5
	.loc 1 810 9
	.loc 1 813 5
	.loc 1 807 1 is_stmt 0
	addi	sp,sp,-16
	.cfi_def_cfa_offset 16
	sw	s1,4(sp)
	.cfi_offset 9, -12
	.loc 1 813 11
	li	s1,8192
	.loc 1 807 1
	sw	s0,8(sp)
	sw	s2,0(sp)
	.cfi_offset 8, -8
	.cfi_offset 18, -16
	mv	s0,a0
	mv	s2,a1
	.loc 1 813 11
	li	a2,4
	li	a1,6
.LVL248:
	addi	a0,s1,-2045
.LVL249:
	.loc 1 807 1
	sw	ra,12(sp)
	.cfi_offset 1, -4
	.loc 1 813 11
	call	bl_msg_zalloc.constprop.3
.LVL250:
	.loc 1 814 5 is_stmt 1
	.loc 1 814 8 is_stmt 0
	beq	a0,zero,.L160
	.loc 1 820 25
	li	a5,4096
	.loc 1 819 22
	sh	s2,0(a0)
	.loc 1 820 25
	add	a5,s0,a5
	.loc 1 820 18
	lw	a5,-484(a5)
	mv	a1,a0
	.loc 1 819 5 is_stmt 1
	.loc 1 820 5
	.loc 1 824 12 is_stmt 0
	addi	a3,s1,-2044
	.loc 1 820 18
	sb	a5,2(a0)
	.loc 1 824 5 is_stmt 1
	.loc 1 824 12 is_stmt 0
	mv	a0,s0
.LVL251:
	.loc 1 825 1
	lw	s0,8(sp)
	.cfi_remember_state
	.cfi_restore 8
.LVL252:
	lw	ra,12(sp)
	.cfi_restore 1
	lw	s1,4(sp)
	.cfi_restore 9
	lw	s2,0(sp)
	.cfi_restore 18
	.loc 1 824 12
	li	a4,0
	.loc 1 825 1
	.loc 1 824 12
	li	a2,1
	.loc 1 825 1
	addi	sp,sp,16
	.cfi_def_cfa_offset 0
	.loc 1 824 12
	tail	bl_send_msg
.LVL253:
.L160:
	.cfi_restore_state
	.loc 1 825 1
	lw	ra,12(sp)
	.cfi_restore 1
	lw	s0,8(sp)
	.cfi_restore 8
.LVL254:
	lw	s1,4(sp)
	.cfi_restore 9
	lw	s2,0(sp)
	.cfi_restore 18
	li	a0,-12
.LVL255:
	addi	sp,sp,16
	.cfi_def_cfa_offset 0
	jr	ra
	.cfi_endproc
.LFE56:
	.size	bl_send_sm_disconnect_req, .-bl_send_sm_disconnect_req
	.section	.text.bl_send_mm_powersaving_req,"ax",@progbits
	.align	1
	.globl	bl_send_mm_powersaving_req
	.type	bl_send_mm_powersaving_req, @function
bl_send_mm_powersaving_req:
.LFB57:
	.loc 1 828 1 is_stmt 1
	.cfi_startproc
.LVL256:
	.loc 1 829 5
	.loc 1 831 5
	.loc 1 831 9
	.loc 1 834 5
	.loc 1 828 1 is_stmt 0
	addi	sp,sp,-16
	.cfi_def_cfa_offset 16
	sw	s0,8(sp)
	sw	s1,4(sp)
	.cfi_offset 8, -8
	.cfi_offset 9, -12
	mv	s0,a0
	mv	s1,a1
	.loc 1 834 11
	li	a2,1
	li	a1,0
.LVL257:
	li	a0,49
.LVL258:
	.loc 1 828 1
	sw	ra,12(sp)
	.cfi_offset 1, -4
	.loc 1 834 11
	call	bl_msg_zalloc.constprop.3
.LVL259:
	.loc 1 835 5 is_stmt 1
	.loc 1 835 8 is_stmt 0
	beq	a0,zero,.L163
	.loc 1 840 20
	sb	s1,0(a0)
	mv	a1,a0
	.loc 1 840 5 is_stmt 1
	.loc 1 843 5
	.loc 1 843 12 is_stmt 0
	mv	a0,s0
.LVL260:
	.loc 1 844 1
	lw	s0,8(sp)
	.cfi_remember_state
	.cfi_restore 8
.LVL261:
	lw	ra,12(sp)
	.cfi_restore 1
	lw	s1,4(sp)
	.cfi_restore 9
.LVL262:
	.loc 1 843 12
	li	a4,0
	.loc 1 844 1
	.loc 1 843 12
	li	a3,50
	li	a2,1
	.loc 1 844 1
	addi	sp,sp,16
	.cfi_def_cfa_offset 0
	.loc 1 843 12
	tail	bl_send_msg
.LVL263:
.L163:
	.cfi_restore_state
	.loc 1 844 1
	lw	ra,12(sp)
	.cfi_restore 1
	lw	s0,8(sp)
	.cfi_restore 8
.LVL264:
	lw	s1,4(sp)
	.cfi_restore 9
.LVL265:
	li	a0,-12
.LVL266:
	addi	sp,sp,16
	.cfi_def_cfa_offset 0
	jr	ra
	.cfi_endproc
.LFE57:
	.size	bl_send_mm_powersaving_req, .-bl_send_mm_powersaving_req
	.section	.text.bl_send_mm_denoise_req,"ax",@progbits
	.align	1
	.globl	bl_send_mm_denoise_req
	.type	bl_send_mm_denoise_req, @function
bl_send_mm_denoise_req:
.LFB58:
	.loc 1 847 1 is_stmt 1
	.cfi_startproc
.LVL267:
	.loc 1 848 5
	.loc 1 850 5
	.loc 1 850 9
	.loc 1 853 5
	.loc 1 847 1 is_stmt 0
	addi	sp,sp,-16
	.cfi_def_cfa_offset 16
	sw	s0,8(sp)
	sw	s1,4(sp)
	.cfi_offset 8, -8
	.cfi_offset 9, -12
	mv	s0,a0
	mv	s1,a1
	.loc 1 853 11
	li	a2,1
	li	a1,0
.LVL268:
	li	a0,48
.LVL269:
	.loc 1 847 1
	sw	ra,12(sp)
	.cfi_offset 1, -4
	.loc 1 853 11
	call	bl_msg_zalloc.constprop.3
.LVL270:
	.loc 1 854 5 is_stmt 1
	.loc 1 854 8 is_stmt 0
	beq	a0,zero,.L166
	.loc 1 859 23
	sb	s1,0(a0)
	mv	a1,a0
	.loc 1 859 5 is_stmt 1
	.loc 1 862 5
	.loc 1 862 12 is_stmt 0
	mv	a0,s0
.LVL271:
	.loc 1 863 1
	lw	s0,8(sp)
	.cfi_remember_state
	.cfi_restore 8
.LVL272:
	lw	ra,12(sp)
	.cfi_restore 1
	lw	s1,4(sp)
	.cfi_restore 9
.LVL273:
	.loc 1 862 12
	li	a4,0
	.loc 1 863 1
	.loc 1 862 12
	li	a3,50
	li	a2,1
	.loc 1 863 1
	addi	sp,sp,16
	.cfi_def_cfa_offset 0
	.loc 1 862 12
	tail	bl_send_msg
.LVL274:
.L166:
	.cfi_restore_state
	.loc 1 863 1
	lw	ra,12(sp)
	.cfi_restore 1
	lw	s0,8(sp)
	.cfi_restore 8
.LVL275:
	lw	s1,4(sp)
	.cfi_restore 9
.LVL276:
	li	a0,-12
.LVL277:
	addi	sp,sp,16
	.cfi_def_cfa_offset 0
	jr	ra
	.cfi_endproc
.LFE58:
	.size	bl_send_mm_denoise_req, .-bl_send_mm_denoise_req
	.section	.text.bl_send_apm_start_req,"ax",@progbits
	.align	1
	.globl	bl_send_apm_start_req
	.type	bl_send_apm_start_req, @function
bl_send_apm_start_req:
.LFB59:
	.loc 1 866 1 is_stmt 1
	.cfi_startproc
.LVL278:
	.loc 1 867 5
	.loc 1 868 5
	.loc 1 866 1 is_stmt 0
	addi	sp,sp,-64
	.cfi_def_cfa_offset 64
	sw	s4,40(sp)
	.cfi_offset 20, -24
	mv	s4,a1
	.loc 1 868 13
	lui	a1,%hi(.LANCHOR8)
.LVL279:
	.loc 1 866 1
	sw	s1,52(sp)
	sw	s3,44(sp)
	.loc 1 868 13
	addi	a1,a1,%lo(.LANCHOR8)
	.cfi_offset 9, -12
	.cfi_offset 19, -20
	.loc 1 866 1
	mv	s3,a0
	mv	s1,a2
	.loc 1 868 13
	addi	a0,sp,20
.LVL280:
	li	a2,12
.LVL281:
	.loc 1 866 1
	sw	s2,48(sp)
	sw	ra,60(sp)
	sw	s0,56(sp)
	.cfi_offset 18, -16
	.cfi_offset 1, -4
	.cfi_offset 8, -8
	.loc 1 866 1
	mv	s2,a3
	sw	a4,12(sp)
	sw	a5,8(sp)
	sw	a6,4(sp)
	.loc 1 868 13
	call	memcpy
.LVL282:
	.loc 1 871 5 is_stmt 1
	.loc 1 871 9
	.loc 1 874 5
	.loc 1 874 11 is_stmt 0
	li	a0,8192
	li	a2,168
	li	a1,7
	addi	a0,a0,-1024
	call	bl_msg_zalloc.constprop.3
.LVL283:
	.loc 1 875 5 is_stmt 1
	.loc 1 875 8 is_stmt 0
	beq	a0,zero,.L171
.LBB71:
.LBB72:
	.loc 1 242 31
	lw	a4,12(sp)
.LBE72:
.LBE71:
	.loc 1 879 20
	sb	zero,16(a0)
.LBB76:
.LBB73:
	.loc 1 242 16
	li	a2,13
	.loc 1 242 31
	addi	a3,a4,-1
	mv	s0,a0
.LBE73:
.LBE76:
	.loc 1 879 5 is_stmt 1
	.loc 1 880 5
.LVL284:
.LBB77:
.LBB74:
	.loc 1 234 5
	.loc 1 236 5
	.loc 1 239 9
	.loc 1 242 13
	.loc 1 242 16 is_stmt 0
	lw	a6,4(sp)
	lw	a5,8(sp)
	bgtu	a3,a2,.L172
	.loc 1 246 13 is_stmt 1
	.loc 1 246 16 is_stmt 0
	li	a3,14
	beq	a4,a3,.L173
	.loc 1 249 17 is_stmt 1
	.loc 1 249 29 is_stmt 0
	li	a3,5
	mul	a4,a4,a3
.LVL285:
	.loc 1 249 22
	li	a3,4096
	addi	a3,a3,-1689
	add	a4,a4,a3
	slli	a4,a4,16
	srli	a4,a4,16
.LVL286:
.L170:
	.loc 1 263 5 is_stmt 1
.LBE74:
.LBE77:
	.loc 1 880 20 is_stmt 0
	sh	a4,14(s0)
	.loc 1 881 5 is_stmt 1
	.loc 1 885 34 is_stmt 0
	sw	a4,20(s0)
	.loc 1 892 18
	li	a4,100
	sh	a4,40(s0)
	.loc 1 893 16
	li	a4,8
	sw	a4,44(s0)
	.loc 1 895 30
	li	a4,-28672
	addi	a4,a4,-376
	sh	a4,48(s0)
	.loc 1 896 18
	li	a4,6
	sb	a4,50(s0)
	.loc 1 888 22
	sb	a6,29(s0)
	.loc 1 897 18
	sb	a5,51(s0)
	.loc 1 881 21
	sb	zero,17(s0)
	.loc 1 882 5 is_stmt 1
	.loc 1 882 24 is_stmt 0
	sb	zero,18(s0)
	.loc 1 885 5 is_stmt 1
	.loc 1 886 5
	.loc 1 886 23 is_stmt 0
	sw	zero,24(s0)
	.loc 1 887 5 is_stmt 1
	.loc 1 887 19 is_stmt 0
	sb	zero,28(s0)
	.loc 1 888 5 is_stmt 1
	.loc 1 889 5
	.loc 1 890 5
	.loc 1 891 5
	.loc 1 892 5
	.loc 1 893 5
	.loc 1 895 5
	.loc 1 896 5
	.loc 1 897 5
	.loc 1 916 5
	.loc 1 889 19 is_stmt 0
	sw	zero,32(s0)
	.loc 1 890 18
	sw	zero,36(s0)
	.loc 1 916 9
	mv	a0,s2
.LVL287:
	call	strlen
.LVL288:
	.loc 1 921 26
	li	a5,1
	.loc 1 916 8
	snez	a0,a0
	.loc 1 921 26
	sb	a5,52(s0)
	.loc 1 916 8
	sb	a0,102(s0)
	.loc 1 921 5 is_stmt 1
	.loc 1 922 5
	mv	a0,s1
	call	strlen
.LVL289:
	mv	a2,a0
	mv	a1,s1
	addi	a0,s0,69
	call	memcpy
.LVL290:
	.loc 1 923 5
	mv	a0,s2
	call	strlen
.LVL291:
	mv	a2,a0
	mv	a1,s2
	addi	a0,s0,103
	call	memcpy
.LVL292:
	.loc 1 924 5
	.loc 1 924 24 is_stmt 0
	mv	a0,s1
	call	strlen
.LVL293:
	.loc 1 925 26
	li	a5,12
	.loc 1 924 22
	sb	a0,68(s0)
	.loc 1 925 5 is_stmt 1
	.loc 1 925 26 is_stmt 0
	sb	a5,53(s0)
	.loc 1 926 5 is_stmt 1
	li	a2,12
	addi	a1,sp,20
	addi	a0,s0,54
	call	memcpy
.LVL294:
	.loc 1 927 5
	.loc 1 928 5
	.loc 1 927 24 is_stmt 0
	li	a5,257
	.loc 1 932 12
	li	a3,8192
	.loc 1 927 24
	sh	a5,66(s0)
	.loc 1 932 5 is_stmt 1
	.loc 1 932 12 is_stmt 0
	mv	a4,s4
	addi	a3,a3,-1023
	li	a2,1
	mv	a1,s0
	mv	a0,s3
	call	bl_send_msg
.LVL295:
.L168:
	.loc 1 933 1
	lw	ra,60(sp)
	.cfi_remember_state
	.cfi_restore 1
	lw	s0,56(sp)
	.cfi_restore 8
	lw	s1,52(sp)
	.cfi_restore 9
.LVL296:
	lw	s2,48(sp)
	.cfi_restore 18
.LVL297:
	lw	s3,44(sp)
	.cfi_restore 19
.LVL298:
	lw	s4,40(sp)
	.cfi_restore 20
.LVL299:
	addi	sp,sp,64
	.cfi_def_cfa_offset 0
.LVL300:
	jr	ra
.LVL301:
.L172:
	.cfi_restore_state
.LBB78:
.LBB75:
	.loc 1 234 14
	li	a4,65536
.LVL302:
	addi	a4,a4,-1
	j	.L170
.LVL303:
.L173:
	.loc 1 247 22
	li	a4,4096
.LVL304:
	addi	a4,a4,-1612
	j	.L170
.LVL305:
.L171:
.LBE75:
.LBE78:
	.loc 1 876 16
	li	a0,-12
.LVL306:
	j	.L168
	.cfi_endproc
.LFE59:
	.size	bl_send_apm_start_req, .-bl_send_apm_start_req
	.section	.text.bl_send_apm_stop_req,"ax",@progbits
	.align	1
	.globl	bl_send_apm_stop_req
	.type	bl_send_apm_stop_req, @function
bl_send_apm_stop_req:
.LFB60:
	.loc 1 936 1 is_stmt 1
	.cfi_startproc
.LVL307:
	.loc 1 937 5
	.loc 1 939 5
	.loc 1 939 9
	.loc 1 942 5
	.loc 1 936 1 is_stmt 0
	addi	sp,sp,-16
	.cfi_def_cfa_offset 16
	sw	s0,8(sp)
	.cfi_offset 8, -8
	.loc 1 942 11
	li	s0,8192
	.loc 1 936 1
	sw	s1,4(sp)
	sw	s2,0(sp)
	.cfi_offset 9, -12
	.cfi_offset 18, -16
	mv	s1,a0
	mv	s2,a1
	.loc 1 942 11
	li	a2,1
	li	a1,7
.LVL308:
	addi	a0,s0,-1022
.LVL309:
	.loc 1 936 1
	sw	ra,12(sp)
	.cfi_offset 1, -4
	.loc 1 942 11
	call	bl_msg_zalloc.constprop.3
.LVL310:
	.loc 1 943 5 is_stmt 1
	.loc 1 943 8 is_stmt 0
	beq	a0,zero,.L176
	.loc 1 948 18
	sb	s2,0(a0)
	.loc 1 951 12
	addi	a3,s0,-1021
	.loc 1 952 1
	lw	s0,8(sp)
	.cfi_remember_state
	.cfi_restore 8
	lw	ra,12(sp)
	.cfi_restore 1
	lw	s2,0(sp)
	.cfi_restore 18
	mv	a1,a0
	.loc 1 948 5 is_stmt 1
	.loc 1 951 5
	.loc 1 951 12 is_stmt 0
	mv	a0,s1
.LVL311:
	.loc 1 952 1
	lw	s1,4(sp)
	.cfi_restore 9
.LVL312:
	.loc 1 951 12
	li	a4,0
	.loc 1 952 1
	.loc 1 951 12
	li	a2,1
	.loc 1 952 1
	addi	sp,sp,16
	.cfi_def_cfa_offset 0
	.loc 1 951 12
	tail	bl_send_msg
.LVL313:
.L176:
	.cfi_restore_state
	.loc 1 952 1
	lw	ra,12(sp)
	.cfi_restore 1
	lw	s0,8(sp)
	.cfi_restore 8
	lw	s1,4(sp)
	.cfi_restore 9
.LVL314:
	lw	s2,0(sp)
	.cfi_restore 18
	li	a0,-12
.LVL315:
	addi	sp,sp,16
	.cfi_def_cfa_offset 0
	jr	ra
	.cfi_endproc
.LFE60:
	.size	bl_send_apm_stop_req, .-bl_send_apm_stop_req
	.section	.text.bl_send_apm_sta_del_req,"ax",@progbits
	.align	1
	.globl	bl_send_apm_sta_del_req
	.type	bl_send_apm_sta_del_req, @function
bl_send_apm_sta_del_req:
.LFB61:
	.loc 1 955 1 is_stmt 1
	.cfi_startproc
.LVL316:
	.loc 1 956 5
	.loc 1 958 5
	.loc 1 958 9
	.loc 1 961 5
	.loc 1 955 1 is_stmt 0
	addi	sp,sp,-32
	.cfi_def_cfa_offset 32
	sw	s0,24(sp)
	.cfi_offset 8, -8
	.loc 1 961 11
	li	s0,8192
	.loc 1 955 1
	sw	s1,20(sp)
	sw	s2,16(sp)
	.cfi_offset 9, -12
	.cfi_offset 18, -16
	mv	s1,a0
	sw	a1,12(sp)
	mv	s2,a2
	.loc 1 961 11
	li	a1,7
.LVL317:
	li	a2,2
.LVL318:
	addi	a0,s0,-1013
.LVL319:
	.loc 1 955 1
	sw	ra,28(sp)
	.cfi_offset 1, -4
	.loc 1 955 1
	sw	a3,8(sp)
	.loc 1 961 11
	call	bl_msg_zalloc.constprop.3
.LVL320:
	.loc 1 962 5 is_stmt 1
	.loc 1 962 8 is_stmt 0
	beq	a0,zero,.L179
	.loc 1 967 18
	lw	a3,8(sp)
	.loc 1 968 18
	sb	s2,1(a0)
	.loc 1 971 12
	lw	a4,12(sp)
	.loc 1 967 18
	sb	a3,0(a0)
	.loc 1 971 12
	addi	a3,s0,-1012
	.loc 1 972 1
	lw	s0,24(sp)
	.cfi_remember_state
	.cfi_restore 8
	lw	ra,28(sp)
	.cfi_restore 1
	lw	s2,16(sp)
	.cfi_restore 18
	mv	a1,a0
	.loc 1 967 5 is_stmt 1
	.loc 1 968 5
	.loc 1 971 5
	.loc 1 971 12 is_stmt 0
	mv	a0,s1
.LVL321:
	.loc 1 972 1
	lw	s1,20(sp)
	.cfi_restore 9
.LVL322:
	.loc 1 971 12
	li	a2,1
	.loc 1 972 1
	addi	sp,sp,32
	.cfi_def_cfa_offset 0
.LVL323:
	.loc 1 971 12
	tail	bl_send_msg
.LVL324:
.L179:
	.cfi_restore_state
	.loc 1 972 1
	lw	ra,28(sp)
	.cfi_restore 1
	lw	s0,24(sp)
	.cfi_restore 8
	lw	s1,20(sp)
	.cfi_restore 9
.LVL325:
	lw	s2,16(sp)
	.cfi_restore 18
	li	a0,-12
.LVL326:
	addi	sp,sp,32
	.cfi_def_cfa_offset 0
.LVL327:
	jr	ra
	.cfi_endproc
.LFE61:
	.size	bl_send_apm_sta_del_req, .-bl_send_apm_sta_del_req
	.section	.text.bl_send_apm_conf_max_sta_req,"ax",@progbits
	.align	1
	.globl	bl_send_apm_conf_max_sta_req
	.type	bl_send_apm_conf_max_sta_req, @function
bl_send_apm_conf_max_sta_req:
.LFB62:
	.loc 1 975 1 is_stmt 1
	.cfi_startproc
.LVL328:
	.loc 1 976 5
	.loc 1 979 5
	.loc 1 975 1 is_stmt 0
	addi	sp,sp,-16
	.cfi_def_cfa_offset 16
	sw	s0,8(sp)
	.cfi_offset 8, -8
	.loc 1 979 11
	li	s0,8192
	.loc 1 975 1
	sw	s1,4(sp)
	sw	s2,0(sp)
	.cfi_offset 9, -12
	.cfi_offset 18, -16
	mv	s1,a0
	mv	s2,a1
	.loc 1 979 11
	li	a2,1
	li	a1,7
.LVL329:
	addi	a0,s0,-1011
.LVL330:
	.loc 1 975 1
	sw	ra,12(sp)
	.cfi_offset 1, -4
	.loc 1 979 11
	call	bl_msg_zalloc.constprop.3
.LVL331:
	.loc 1 980 5 is_stmt 1
	.loc 1 980 8 is_stmt 0
	beq	a0,zero,.L182
	.loc 1 985 28
	sb	s2,0(a0)
	.loc 1 988 12
	addi	a3,s0,-1010
	.loc 1 989 1
	lw	s0,8(sp)
	.cfi_remember_state
	.cfi_restore 8
	lw	ra,12(sp)
	.cfi_restore 1
	lw	s2,0(sp)
	.cfi_restore 18
	mv	a1,a0
	.loc 1 985 5 is_stmt 1
	.loc 1 988 5
	.loc 1 988 12 is_stmt 0
	mv	a0,s1
.LVL332:
	.loc 1 989 1
	lw	s1,4(sp)
	.cfi_restore 9
.LVL333:
	.loc 1 988 12
	li	a4,0
	.loc 1 989 1
	.loc 1 988 12
	li	a2,1
	.loc 1 989 1
	addi	sp,sp,16
	.cfi_def_cfa_offset 0
	.loc 1 988 12
	tail	bl_send_msg
.LVL334:
.L182:
	.cfi_restore_state
	.loc 1 989 1
	lw	ra,12(sp)
	.cfi_restore 1
	lw	s0,8(sp)
	.cfi_restore 8
	lw	s1,4(sp)
	.cfi_restore 9
.LVL335:
	lw	s2,0(sp)
	.cfi_restore 18
	li	a0,-12
.LVL336:
	addi	sp,sp,16
	.cfi_def_cfa_offset 0
	jr	ra
	.cfi_endproc
.LFE62:
	.size	bl_send_apm_conf_max_sta_req, .-bl_send_apm_conf_max_sta_req
	.section	.text.bl_send_cfg_task_req,"ax",@progbits
	.align	1
	.globl	bl_send_cfg_task_req
	.type	bl_send_cfg_task_req, @function
bl_send_cfg_task_req:
.LFB63:
	.loc 1 992 1 is_stmt 1
	.cfi_startproc
.LVL337:
	.loc 1 993 5
	.loc 1 998 5
	.loc 1 992 1 is_stmt 0
	addi	sp,sp,-48
	.cfi_def_cfa_offset 48
	sw	s1,36(sp)
	sw	s3,28(sp)
	sw	s4,24(sp)
	.cfi_offset 9, -12
	.cfi_offset 19, -20
	.cfi_offset 20, -24
	mv	s1,a1
	mv	s4,a0
	mv	s3,a2
	.loc 1 998 11
	li	a1,12
.LVL338:
	li	a2,36
.LVL339:
	li	a0,12288
.LVL340:
	.loc 1 992 1
	sw	s2,32(sp)
	sw	ra,44(sp)
	sw	s0,40(sp)
	.cfi_offset 18, -16
	.cfi_offset 1, -4
	.cfi_offset 8, -8
	.loc 1 992 1
	mv	s2,a3
	sw	a4,12(sp)
	sw	a5,8(sp)
	.loc 1 998 11
	call	bl_msg_zalloc.constprop.3
.LVL341:
	.loc 1 999 5 is_stmt 1
	.loc 1 999 8 is_stmt 0
	beq	a0,zero,.L185
	.loc 1 1004 14
	sw	s1,0(a0)
	.loc 1 1005 5
	li	a3,2
	mv	s0,a0
	.loc 1 1004 5 is_stmt 1
	.loc 1 1005 5
	bgtu	s1,a3,.L186
	lw	a5,8(sp)
	lw	a4,12(sp)
	beq	s1,zero,.L194
.LVL342:
.L187:
	.loc 1 1044 5
	.loc 1 1044 12 is_stmt 0
	mv	a1,s0
	.loc 1 1045 1
	lw	s0,40(sp)
	.cfi_remember_state
	.cfi_restore 8
.LVL343:
	lw	ra,44(sp)
	.cfi_restore 1
	lw	s1,36(sp)
	.cfi_restore 9
.LVL344:
	lw	s2,32(sp)
	.cfi_restore 18
.LVL345:
	lw	s3,28(sp)
	.cfi_restore 19
.LVL346:
	.loc 1 1044 12
	mv	a0,s4
	.loc 1 1045 1
	lw	s4,24(sp)
	.cfi_restore 20
.LVL347:
	.loc 1 1044 12
	li	a3,12288
	.loc 1 1045 1
	.loc 1 1044 12
	li	a4,0
	addi	a3,a3,1
	li	a2,1
	.loc 1 1045 1
	addi	sp,sp,48
	.cfi_def_cfa_offset 0
.LVL348:
	.loc 1 1044 12
	tail	bl_send_msg
.LVL349:
.L186:
	.cfi_restore_state
	.loc 1 1005 5
	li	a5,3
	beq	s1,a5,.L189
	.loc 1 1039 13 is_stmt 1
	.loc 1 1039 18
	.loc 1 1039 30
	.loc 1 1039 35
	.loc 1 1039 37
.LBB79:
.LBB80:
	.file 2 "/b-l/bl_iot_sdk_new/components/bl602/freertos_riscv_ram/portable/GCC/RISC-V/portmacro.h"
	.loc 2 151 5
	.loc 2 151 31 is_stmt 0
	lui	a5,%hi(TrapNetCounter)
.LBE80:
.LBE79:
	.loc 1 1039 37
	lw	a5,%lo(TrapNetCounter)(a5)
	beq	a5,zero,.L191
	.loc 1 1039 118 discriminator 2
	call	xTaskGetTickCountFromISR
.LVL350:
.L192:
	.loc 1 1039 37 discriminator 5
	lui	a3,%hi(.LC9)
	lui	a2,%hi(.LC10)
	mv	a1,a0
	lui	a0,%hi(.LC11)
	addi	a5,a3,%lo(.LC9)
	li	a6,1039
	li	a4,1039
	addi	a3,a3,%lo(.LC9)
	addi	a2,a2,%lo(.LC10)
	addi	a0,a0,%lo(.LC11)
	call	bl_printk
.LVL351:
.L193:
	.loc 1 1039 237 is_stmt 1 discriminator 1
	.loc 1 1039 254 discriminator 1
	.loc 1 1039 266 discriminator 1
	j	.L193
.L194:
	.loc 1 1008 13
	.loc 1 1011 36 is_stmt 0
	slli	a2,a4,16
	.loc 1 1008 32
	sw	s3,4(a0)
	.loc 1 1009 13 is_stmt 1
	.loc 1 1009 35 is_stmt 0
	sw	s2,8(a0)
	.loc 1 1010 13 is_stmt 1
	.loc 1 1010 32 is_stmt 0
	sw	a4,12(a0)
	.loc 1 1011 13 is_stmt 1
	.loc 1 1011 36 is_stmt 0
	mv	a3,a5
	srli	a2,a2,16
	li	a1,8
	addi	a0,a0,20
	call	utils_tlv_bl_pack_auto
.LVL352:
	.loc 1 1011 34
	sw	a0,16(s0)
	.loc 1 1018 9 is_stmt 1
	j	.L187
.L189:
	.loc 1 1031 13
	.loc 1 1031 32 is_stmt 0
	sw	s3,4(a0)
	.loc 1 1032 13 is_stmt 1
	.loc 1 1032 35 is_stmt 0
	sw	s2,8(a0)
	.loc 1 1033 13 is_stmt 1
	.loc 1 1033 34 is_stmt 0
	sw	zero,16(a0)
	.loc 1 1035 9 is_stmt 1
	j	.L187
.L191:
	.loc 1 1039 147 is_stmt 0 discriminator 3
	call	xTaskGetTickCount
.LVL353:
	j	.L192
.LVL354:
.L185:
	.loc 1 1045 1
	lw	ra,44(sp)
	.cfi_restore 1
	lw	s0,40(sp)
	.cfi_restore 8
	lw	s1,36(sp)
	.cfi_restore 9
.LVL355:
	lw	s2,32(sp)
	.cfi_restore 18
.LVL356:
	lw	s3,28(sp)
	.cfi_restore 19
.LVL357:
	lw	s4,24(sp)
	.cfi_restore 20
.LVL358:
	li	a0,-12
.LVL359:
	addi	sp,sp,48
	.cfi_def_cfa_offset 0
.LVL360:
	jr	ra
	.cfi_endproc
.LFE63:
	.size	bl_send_cfg_task_req, .-bl_send_cfg_task_req
	.section	.text.bl_send_channel_set_req,"ax",@progbits
	.align	1
	.globl	bl_send_channel_set_req
	.type	bl_send_channel_set_req, @function
bl_send_channel_set_req:
.LFB64:
	.loc 1 1048 1 is_stmt 1
	.cfi_startproc
.LVL361:
	.loc 1 1049 5
	.loc 1 1050 5
	.loc 1 1053 5
	.loc 1 1053 9
	.loc 1 1055 5
	.loc 1 1048 1 is_stmt 0
	addi	sp,sp,-32
	.cfi_def_cfa_offset 32
	sw	s0,24(sp)
	sw	s2,16(sp)
	.cfi_offset 8, -8
	.cfi_offset 18, -16
	mv	s0,a1
	mv	s2,a0
	.loc 1 1055 13
	li	a2,10
	li	a1,0
.LVL362:
	li	a0,16
.LVL363:
	.loc 1 1048 1
	sw	ra,28(sp)
	sw	s1,20(sp)
	.cfi_offset 1, -4
	.cfi_offset 9, -12
	.loc 1 1055 13
	call	bl_msg_zalloc.constprop.3
.LVL364:
	.loc 1 1056 5 is_stmt 1
	.loc 1 1056 8 is_stmt 0
	beq	a0,zero,.L200
	mv	s1,a0
	.loc 1 1059 5 is_stmt 1
	li	a2,2
	li	a1,0
	addi	a0,sp,12
.LVL365:
	call	memset
.LVL366:
	.loc 1 1061 5
	.loc 1 1062 5
.LBB83:
.LBB84:
	.loc 1 242 31 is_stmt 0
	addi	a5,s0,-1
.LBE84:
.LBE83:
	.loc 1 1061 17
	sh	zero,0(s1)
	.loc 1 1063 5 is_stmt 1
.LVL367:
.LBB87:
.LBB85:
	.loc 1 234 5
	.loc 1 236 5
	.loc 1 239 9
	.loc 1 242 13
	.loc 1 242 16 is_stmt 0
	li	a4,13
	bgtu	a5,a4,.L201
	.loc 1 246 13 is_stmt 1
	.loc 1 246 16 is_stmt 0
	li	a5,14
	beq	s0,a5,.L202
	.loc 1 249 17 is_stmt 1
	.loc 1 249 29 is_stmt 0
	li	a1,5
	mul	a1,s0,a1
	.loc 1 249 22
	li	s0,4096
.LVL368:
	addi	s0,s0,-1689
	add	a1,a1,s0
	slli	a1,a1,16
	srli	a1,a1,16
.LVL369:
.L199:
	.loc 1 263 5 is_stmt 1
.LBE85:
.LBE87:
	.loc 1 1066 18 is_stmt 0
	li	a5,4096
	addi	a5,a5,-256
	.loc 1 1063 24
	sh	a1,2(s1)
	.loc 1 1064 5 is_stmt 1
	.loc 1 1064 25 is_stmt 0
	sh	a1,4(s1)
	.loc 1 1065 5 is_stmt 1
	.loc 1 1065 25 is_stmt 0
	sh	a1,6(s1)
	.loc 1 1066 5 is_stmt 1
	.loc 1 1067 5
	.loc 1 1066 18 is_stmt 0
	sh	a5,8(s1)
	.loc 1 1069 5 is_stmt 1
	.loc 1 1069 12 is_stmt 0
	addi	a4,sp,12
	li	a3,17
	li	a2,1
	mv	a1,s1
	mv	a0,s2
	call	bl_send_msg
.LVL370:
.L197:
	.loc 1 1070 1
	lw	ra,28(sp)
	.cfi_remember_state
	.cfi_restore 1
	lw	s0,24(sp)
	.cfi_restore 8
	lw	s1,20(sp)
	.cfi_restore 9
	lw	s2,16(sp)
	.cfi_restore 18
.LVL371:
	addi	sp,sp,32
	.cfi_def_cfa_offset 0
	jr	ra
.LVL372:
.L201:
	.cfi_restore_state
.LBB88:
.LBB86:
	.loc 1 234 14
	li	a1,65536
	addi	a1,a1,-1
	j	.L199
.L202:
	.loc 1 247 22
	li	a1,4096
	addi	a1,a1,-1612
	j	.L199
.LVL373:
.L200:
.LBE86:
.LBE88:
	.loc 1 1057 16
	li	a0,-12
.LVL374:
	j	.L197
	.cfi_endproc
.LFE64:
	.size	bl_send_channel_set_req, .-bl_send_channel_set_req
	.comm	cfg_start_req_u_tlv_t,12,4
	.section	.rodata
	.align	2
	.set	.LANCHOR8,. + 0
.LC0:
	.byte	-126
	.byte	-124
	.byte	-117
	.byte	-106
	.byte	18
	.byte	36
	.byte	72
	.byte	108
	.byte	12
	.byte	24
	.byte	48
	.byte	96
	.section	.rodata.__func__.5384,"a"
	.align	2
	.set	.LANCHOR1,. + 0
	.type	__func__.5384, @object
	.size	__func__.5384, 14
__func__.5384:
	.string	"bl_msg_zalloc"
	.section	.rodata.__func__.5403,"a"
	.align	2
	.set	.LANCHOR0,. + 0
	.type	__func__.5403, @object
	.size	__func__.5403, 12
__func__.5403:
	.string	"bl_send_msg"
	.section	.rodata.__func__.5514,"a"
	.align	2
	.set	.LANCHOR7,. + 0
	.type	__func__.5514, @object
	.size	__func__.5514, 23
__func__.5514:
	.string	"bl_send_sm_connect_req"
	.section	.rodata.bl_channels_24_CN,"a"
	.align	2
	.type	bl_channels_24_CN, @object
	.size	bl_channels_24_CN, 676
bl_channels_24_CN:
	.byte	0
	.zero	1
	.half	2412
	.half	1
	.zero	10
	.word	16
	.zero	32
	.byte	0
	.zero	1
	.half	2417
	.half	2
	.zero	10
	.word	16
	.zero	32
	.byte	0
	.zero	1
	.half	2422
	.half	3
	.zero	10
	.word	16
	.zero	32
	.byte	0
	.zero	1
	.half	2427
	.half	4
	.zero	10
	.word	16
	.zero	32
	.byte	0
	.zero	1
	.half	2432
	.half	5
	.zero	10
	.word	16
	.zero	32
	.byte	0
	.zero	1
	.half	2437
	.half	6
	.zero	10
	.word	16
	.zero	32
	.byte	0
	.zero	1
	.half	2442
	.half	7
	.zero	10
	.word	16
	.zero	32
	.byte	0
	.zero	1
	.half	2447
	.half	8
	.zero	10
	.word	16
	.zero	32
	.byte	0
	.zero	1
	.half	2452
	.half	9
	.zero	10
	.word	16
	.zero	32
	.byte	0
	.zero	1
	.half	2457
	.half	10
	.zero	10
	.word	16
	.zero	32
	.byte	0
	.zero	1
	.half	2462
	.half	11
	.zero	10
	.word	16
	.zero	32
	.byte	0
	.zero	1
	.half	2467
	.half	12
	.zero	10
	.word	16
	.zero	32
	.byte	0
	.zero	1
	.half	2472
	.half	13
	.zero	10
	.word	16
	.zero	32
	.section	.rodata.bl_channels_24_ER,"a"
	.align	2
	.type	bl_channels_24_ER, @object
	.size	bl_channels_24_ER, 676
bl_channels_24_ER:
	.byte	0
	.zero	1
	.half	2412
	.half	1
	.zero	10
	.word	16
	.zero	32
	.byte	0
	.zero	1
	.half	2417
	.half	2
	.zero	10
	.word	16
	.zero	32
	.byte	0
	.zero	1
	.half	2422
	.half	3
	.zero	10
	.word	16
	.zero	32
	.byte	0
	.zero	1
	.half	2427
	.half	4
	.zero	10
	.word	16
	.zero	32
	.byte	0
	.zero	1
	.half	2432
	.half	5
	.zero	10
	.word	16
	.zero	32
	.byte	0
	.zero	1
	.half	2437
	.half	6
	.zero	10
	.word	16
	.zero	32
	.byte	0
	.zero	1
	.half	2442
	.half	7
	.zero	10
	.word	16
	.zero	32
	.byte	0
	.zero	1
	.half	2447
	.half	8
	.zero	10
	.word	16
	.zero	32
	.byte	0
	.zero	1
	.half	2452
	.half	9
	.zero	10
	.word	16
	.zero	32
	.byte	0
	.zero	1
	.half	2457
	.half	10
	.zero	10
	.word	16
	.zero	32
	.byte	0
	.zero	1
	.half	2462
	.half	11
	.zero	10
	.word	16
	.zero	32
	.byte	0
	.zero	1
	.half	2467
	.half	12
	.zero	10
	.word	16
	.zero	32
	.byte	0
	.zero	1
	.half	2472
	.half	13
	.zero	10
	.word	16
	.zero	32
	.section	.rodata.bl_channels_24_JP,"a"
	.align	2
	.set	.LANCHOR5,. + 0
	.type	bl_channels_24_JP, @object
	.size	bl_channels_24_JP, 728
bl_channels_24_JP:
	.byte	0
	.zero	1
	.half	2412
	.half	1
	.zero	10
	.word	16
	.zero	32
	.byte	0
	.zero	1
	.half	2417
	.half	2
	.zero	10
	.word	16
	.zero	32
	.byte	0
	.zero	1
	.half	2422
	.half	3
	.zero	10
	.word	16
	.zero	32
	.byte	0
	.zero	1
	.half	2427
	.half	4
	.zero	10
	.word	16
	.zero	32
	.byte	0
	.zero	1
	.half	2432
	.half	5
	.zero	10
	.word	16
	.zero	32
	.byte	0
	.zero	1
	.half	2437
	.half	6
	.zero	10
	.word	16
	.zero	32
	.byte	0
	.zero	1
	.half	2442
	.half	7
	.zero	10
	.word	16
	.zero	32
	.byte	0
	.zero	1
	.half	2447
	.half	8
	.zero	10
	.word	16
	.zero	32
	.byte	0
	.zero	1
	.half	2452
	.half	9
	.zero	10
	.word	16
	.zero	32
	.byte	0
	.zero	1
	.half	2457
	.half	10
	.zero	10
	.word	16
	.zero	32
	.byte	0
	.zero	1
	.half	2462
	.half	11
	.zero	10
	.word	16
	.zero	32
	.byte	0
	.zero	1
	.half	2467
	.half	12
	.zero	10
	.word	16
	.zero	32
	.byte	0
	.zero	1
	.half	2472
	.half	13
	.zero	10
	.word	16
	.zero	32
	.byte	0
	.zero	1
	.half	2484
	.half	14
	.zero	10
	.word	16
	.zero	32
	.section	.rodata.bl_channels_24_US,"a"
	.align	2
	.type	bl_channels_24_US, @object
	.size	bl_channels_24_US, 572
bl_channels_24_US:
	.byte	0
	.zero	1
	.half	2412
	.half	1
	.zero	10
	.word	16
	.zero	32
	.byte	0
	.zero	1
	.half	2417
	.half	2
	.zero	10
	.word	16
	.zero	32
	.byte	0
	.zero	1
	.half	2422
	.half	3
	.zero	10
	.word	16
	.zero	32
	.byte	0
	.zero	1
	.half	2427
	.half	4
	.zero	10
	.word	16
	.zero	32
	.byte	0
	.zero	1
	.half	2432
	.half	5
	.zero	10
	.word	16
	.zero	32
	.byte	0
	.zero	1
	.half	2437
	.half	6
	.zero	10
	.word	16
	.zero	32
	.byte	0
	.zero	1
	.half	2442
	.half	7
	.zero	10
	.word	16
	.zero	32
	.byte	0
	.zero	1
	.half	2447
	.half	8
	.zero	10
	.word	16
	.zero	32
	.byte	0
	.zero	1
	.half	2452
	.half	9
	.zero	10
	.word	16
	.zero	32
	.byte	0
	.zero	1
	.half	2457
	.half	10
	.zero	10
	.word	16
	.zero	32
	.byte	0
	.zero	1
	.half	2462
	.half	11
	.zero	10
	.word	16
	.zero	32
	.section	.rodata.bl_msg_update_channel_cfg.str1.4,"aMS",@progbits,1
	.align	2
.LC5:
	.string	"[WF] country code %s used, num of channel %d\r\n"
	.zero	1
.LC6:
	.string	"[WF] %s NOT found, using JP instead, num of channel %d\r\n"
	.section	.rodata.bl_msg_zalloc.constprop.3.str1.4,"aMS",@progbits,1
	.align	2
.LC4:
	.string	"%s: msg allocation failed\n"
	.section	.rodata.bl_send_cfg_task_req.str1.4,"aMS",@progbits,1
	.align	2
.LC9:
	.string	"bl_msg_tx.c"
.LC10:
	.string	"\033[35mASSERT\033[0m"
.LC11:
	.string	"[%10u][%s: %s:%4d] ASSERT: %s:%d\r\n"
	.section	.rodata.bl_send_me_config_req.str1.4,"aMS",@progbits,1
	.align	2
.LC7:
	.string	"[ME] HT supp %d, VHT supp %d\r\n"
	.section	.rodata.bl_send_msg.str1.4,"aMS",@progbits,1
	.align	2
.LC1:
	.string	"%s: bypassing (RWNX_DEV_RESTARTING set) 0x%02x\n"
.LC2:
	.string	"%s: bypassing (restart must have failed)\r\n"
	.zero	1
.LC3:
	.string	"%s: failed to allocate mem for cmd, size is %d\r\n"
	.section	.rodata.bl_send_sm_connect_req.str1.4,"aMS",@progbits,1
	.align	2
.LC8:
	.string	"%s:%d\r\n"
	.section	.rodata.country_list,"a"
	.align	2
	.set	.LANCHOR2,. + 0
	.type	country_list, @object
	.size	country_list, 48
country_list:
	.word	.LC12
	.word	13
	.word	bl_channels_24_CN
	.word	.LC13
	.word	14
	.word	bl_channels_24_JP
	.word	.LC14
	.word	11
	.word	bl_channels_24_US
	.word	.LC15
	.word	13
	.word	bl_channels_24_ER
	.section	.rodata.str1.4,"aMS",@progbits,1
	.align	2
.LC12:
	.string	"CN"
	.zero	1
.LC13:
	.string	"JP"
	.zero	1
.LC14:
	.string	"US"
	.zero	1
.LC15:
	.string	"EU"
	.section	.sbss.channel_num_default,"aw",@nobits
	.align	2
	.set	.LANCHOR3,. + 0
	.type	channel_num_default, @object
	.size	channel_num_default, 4
channel_num_default:
	.zero	4
	.section	.sbss.channels_default,"aw",@nobits
	.align	2
	.set	.LANCHOR4,. + 0
	.type	channels_default, @object
	.size	channels_default, 4
channels_default:
	.zero	4
	.section	.sdata2.mac_addr_bcst,"a"
	.align	2
	.set	.LANCHOR6,. + 0
	.type	mac_addr_bcst, @object
	.size	mac_addr_bcst, 6
mac_addr_bcst:
	.byte	-1
	.byte	-1
	.byte	-1
	.byte	-1
	.byte	-1
	.byte	-1
	.text
.Letext0:
	.file 3 "/b-l/bl_iot_sdk_new/toolchain/riscv/Linux/lib/gcc/riscv64-unknown-elf/8.3.0/include/stddef.h"
	.file 4 "/b-l/bl_iot_sdk_new/toolchain/riscv/Linux/riscv64-unknown-elf/include/machine/_default_types.h"
	.file 5 "/b-l/bl_iot_sdk_new/toolchain/riscv/Linux/riscv64-unknown-elf/include/sys/_types.h"
	.file 6 "/b-l/bl_iot_sdk_new/toolchain/riscv/Linux/riscv64-unknown-elf/include/sys/reent.h"
	.file 7 "/b-l/bl_iot_sdk_new/toolchain/riscv/Linux/riscv64-unknown-elf/include/sys/lock.h"
	.file 8 "/b-l/bl_iot_sdk_new/toolchain/riscv/Linux/riscv64-unknown-elf/include/sys/_stdint.h"
	.file 9 "/b-l/bl_iot_sdk_new/components/bl602/freertos_riscv_ram/config/FreeRTOS.h"
	.file 10 "/b-l/bl_iot_sdk_new/components/bl602/bl602_wifidrv/bl60x_wifi_driver/lmac_types.h"
	.file 11 "/b-l/bl_iot_sdk_new/components/bl602/bl602_wifidrv/bl60x_wifi_driver/lmac_mac.h"
	.file 12 "/b-l/bl_iot_sdk_new/components/bl602/bl602_wifidrv/bl60x_wifi_driver/ipc_shared.h"
	.file 13 "/b-l/bl_iot_sdk_new/components/bl602/bl602_wifidrv/bl60x_wifi_driver/ipc_host.h"
	.file 14 "/b-l/bl_iot_sdk_new/components/bl602/bl602_wifidrv/bl60x_wifi_driver/list.h"
	.file 15 "/b-l/bl_iot_sdk_new/components/bl602/bl602_wifidrv/bl60x_wifi_driver/lmac_msg.h"
	.file 16 "/b-l/bl_iot_sdk_new/components/utils/include/utils_tlv_bl.h"
	.file 17 "/b-l/bl_iot_sdk_new/components/bl602/freertos_riscv_ram/config/queue.h"
	.file 18 "/b-l/bl_iot_sdk_new/components/bl602/freertos_riscv_ram/config/semphr.h"
	.file 19 "/b-l/bl_iot_sdk_new/components/bl602/bl602_wifidrv/bl60x_wifi_driver/os_hal.h"
	.file 20 "/b-l/bl_iot_sdk_new/components/bl602/bl602_wifidrv/bl60x_wifi_driver/bl_cmds.h"
	.file 21 "/b-l/bl_iot_sdk_new/components/bl602/bl602_wifidrv/bl60x_wifi_driver/bl_defs.h"
	.file 22 "/b-l/bl_iot_sdk_new/components/bl602/bl602_wifidrv/bl60x_wifi_driver/ieee80211.h"
	.file 23 "/b-l/bl_iot_sdk_new/components/bl602/bl602_wifidrv/bl60x_wifi_driver/nl80211.h"
	.file 24 "/b-l/bl_iot_sdk_new/components/bl602/bl602_wifidrv/bl60x_wifi_driver/cfg80211.h"
	.file 25 "/b-l/bl_iot_sdk_new/components/bl602/bl602_wifidrv/bl60x_wifi_driver/bl_mod_params.h"
	.file 26 "/b-l/bl_iot_sdk_new/components/bl602/bl602_wifidrv/bl60x_wifi_driver/bl_utils.h"
	.file 27 "/b-l/bl_iot_sdk_new/toolchain/riscv/Linux/riscv64-unknown-elf/include/string.h"
	.file 28 "/b-l/bl_iot_sdk_new/components/bl602/freertos_riscv_ram/config/task.h"
	.file 29 "/b-l/bl_iot_sdk_new/components/utils/include/utils_log.h"
	.file 30 "/b-l/bl_iot_sdk_new/toolchain/riscv/Linux/riscv64-unknown-elf/include/stdio.h"
	.file 31 "/b-l/bl_iot_sdk_new/components/bl602/freertos_riscv_ram/config/portable.h"
	.file 32 "<built-in>"