	.file	"wifi_mgmr.c"
	.option nopic
	.attribute arch, "rv32i2p0_m2p0_f2p0_c2p0"
	.attribute unaligned_access, 0
	.attribute stack_align, 16
	.text
.Ltext0:
	.cfi_sections	.debug_frame
	.section	.text.stateSnifferGuard,"ax",@progbits
	.align	1
	.type	stateSnifferGuard, @function
stateSnifferGuard:
.LFB22:
	.file 1 "/b-l/bl_iot_sdk_new/components/bl602/bl602_wifidrv/bl60x_wifi_driver/wifi_mgmr.c"
	.loc 1 382 1
	.cfi_startproc
.LVL0:
	.loc 1 383 5
	.loc 1 385 5
	.loc 1 386 5
	.loc 1 386 25 is_stmt 0
	lw	a5,4(a1)
	lbu	a5,0(a5)
	.loc 1 386 8
	sub	a0,a0,a5
.LVL1:
	.loc 1 390 1
	seqz	a0,a0
	ret
	.cfi_endproc
.LFE22:
	.size	stateSnifferGuard, .-stateSnifferGuard
	.section	.text.stateConnectedIPYesGuard_ip_update,"ax",@progbits
	.align	1
	.type	stateConnectedIPYesGuard_ip_update, @function
stateConnectedIPYesGuard_ip_update:
.LFB61:
	.loc 1 1079 1 is_stmt 1
	.cfi_startproc
.LVL2:
	.loc 1 1080 5
	.loc 1 1082 5
	.loc 1 1083 5
	.loc 1 1083 25 is_stmt 0
	lw	a5,4(a1)
	lbu	a5,0(a5)
	.loc 1 1083 8
	sub	a0,a0,a5
.LVL3:
	.loc 1 1088 1
	seqz	a0,a0
	ret
	.cfi_endproc
.LFE61:
	.size	stateConnectedIPYesGuard_ip_update, .-stateConnectedIPYesGuard_ip_update
	.section	.text.printErrMsg,"ax",@progbits
	.align	1
	.type	printErrMsg, @function
printErrMsg:
.LFB6:
	.loc 1 69 1 is_stmt 1
	.cfi_startproc
.LVL4:
	.loc 1 70 4
	lui	a0,%hi(.LC0)
.LVL5:
	addi	a0,a0,%lo(.LC0)
	tail	printf
.LVL6:
	.cfi_endproc
.LFE6:
	.size	printErrMsg, .-printErrMsg
	.section	.text.stateSnifferExit,"ax",@progbits
	.align	1
	.type	stateSnifferExit, @function
stateSnifferExit:
.LFB28:
	.loc 1 458 1
	.cfi_startproc
.LVL7:
	.loc 1 460 5
	mv	a1,a0
.LVL8:
	lui	a0,%hi(.LC1)
.LVL9:
	addi	a0,a0,%lo(.LC1)
	tail	printf
.LVL10:
	.cfi_endproc
.LFE28:
	.size	stateSnifferExit, .-stateSnifferExit
	.section	.text.stateSnifferAction,"ax",@progbits
	.align	1
	.type	stateSnifferAction, @function
stateSnifferAction:
.LFB23:
	.loc 1 394 1
	.cfi_startproc
.LVL11:
	.loc 1 395 5
	mv	a1,a0
.LVL12:
	lui	a0,%hi(.LC2)
.LVL13:
	addi	a0,a0,%lo(.LC2)
	tail	printf
.LVL14:
	.cfi_endproc
.LFE23:
	.size	stateSnifferAction, .-stateSnifferAction
	.section	.text.stateConnectedIPNoAction_ipgot,"ax",@progbits
	.align	1
	.type	stateConnectedIPNoAction_ipgot, @function
stateConnectedIPNoAction_ipgot:
.LFB51:
	.loc 1 880 1
	.cfi_startproc
.LVL15:
	.loc 1 881 5
	.loc 1 882 5
	.loc 1 884 5
	.loc 1 885 5
	.loc 1 880 1 is_stmt 0
	addi	sp,sp,-80
	.cfi_def_cfa_offset 80
	sw	ra,76(sp)
	sw	s0,72(sp)
	sw	s1,68(sp)
	.cfi_offset 1, -4
	.cfi_offset 8, -8
	.cfi_offset 9, -12
	.loc 1 885 9
	lw	a4,4(a1)
.LVL16:
	.loc 1 886 5 is_stmt 1
	.loc 1 887 5
	.loc 1 880 1 is_stmt 0
	mv	s1,a2
	mv	s0,a0
	.loc 1 887 553
	lbu	a2,22(a4)
.LVL17:
	lbu	a0,21(a4)
.LVL18:
	.loc 1 887 743
	lbu	t1,25(a4)
	.loc 1 887 553
	slli	a2,a2,8
	or	a2,a2,a0
	lbu	a0,23(a4)
	.loc 1 887 165
	lbu	a3,14(a4)
	lbu	a5,13(a4)
	.loc 1 887 553
	slli	a0,a0,16
	or	a2,a0,a2
	lbu	a0,24(a4)
	.loc 1 887 165
	slli	a3,a3,8
	or	a5,a3,a5
	.loc 1 887 553
	slli	a0,a0,24
	or	a0,a0,a2
	.loc 1 887 743
	lbu	a2,26(a4)
	.loc 1 887 165
	lbu	a3,15(a4)
	.loc 1 887 355
	lbu	a7,18(a4)
	.loc 1 887 743
	slli	a2,a2,8
	or	a2,a2,t1
	lbu	t1,27(a4)
	.loc 1 887 165
	slli	a3,a3,16
	or	a3,a3,a5
	.loc 1 887 743
	slli	t1,t1,16
	or	a2,t1,a2
	lbu	t1,28(a4)
	.loc 1 887 355
	lbu	a5,17(a4)
	slli	a7,a7,8
	.loc 1 887 743
	slli	t1,t1,24
	or	t1,t1,a2
	.loc 1 887 941
	lbu	a2,30(a4)
	lbu	a6,29(a4)
	.loc 1 887 355
	or	a5,a7,a5
	lbu	a7,19(a4)
	.loc 1 887 941
	slli	a2,a2,8
	or	a6,a2,a6
	.loc 1 887 355
	slli	a7,a7,16
	.loc 1 887 941
	lbu	a2,31(a4)
	.loc 1 887 165
	lbu	a1,16(a4)
.LVL19:
	.loc 1 887 355
	or	a7,a7,a5
	lbu	a5,20(a4)
	.loc 1 887 941
	lbu	a4,32(a4)
.LVL20:
	slli	a2,a2,16
	or	a2,a2,a6
	slli	a4,a4,24
	or	a4,a4,a2
	.loc 1 887 1110
	srli	t3,a4,24
	.loc 1 887 5
	sw	t3,48(sp)
.LVL21:
	.loc 1 887 1060
	srli	t3,a4,16
	.loc 1 887 5
	andi	t3,t3,255
	sw	t3,44(sp)
	.loc 1 887 1011
	srli	t3,a4,8
	.loc 1 887 5
	andi	a4,a4,255
	sw	a4,36(sp)
	.loc 1 887 912
	srli	a4,t1,24
	.loc 1 887 5
	sw	a4,32(sp)
	.loc 1 887 862
	srli	a4,t1,16
	.loc 1 887 5
	andi	a4,a4,255
	sw	a4,28(sp)
	.loc 1 887 813
	srli	a4,t1,8
	.loc 1 887 5
	andi	t3,t3,255
	andi	a4,a4,255
	andi	t1,t1,255
	sw	t3,40(sp)
	sw	a4,24(sp)
	sw	t1,20(sp)
	.loc 1 887 714
	srli	a4,a0,24
	.loc 1 887 5
	sw	a4,16(sp)
	.loc 1 887 666
	srli	a4,a0,16
	.loc 1 887 5
	andi	a4,a4,255
	sw	a4,12(sp)
	.loc 1 887 165
	slli	a1,a1,24
	.loc 1 887 619
	srli	a4,a0,8
	.loc 1 887 355
	slli	a5,a5,24
	.loc 1 887 474
	or	a5,a5,a7
	.loc 1 887 278
	or	a1,a1,a3
	.loc 1 887 5
	andi	a4,a4,255
	andi	a0,a0,255
	sw	a4,8(sp)
	sw	a0,4(sp)
	.loc 1 887 524
	srli	a4,a5,24
	.loc 1 887 425
	srli	a6,a5,8
	.loc 1 887 231
	srli	a2,a1,8
	.loc 1 887 5
	lui	a0,%hi(.LC3)
	sw	a4,0(sp)
	andi	a2,a2,0xff
	srli	a4,a1,24
	srli	a7,a7,16
	andi	a1,a1,0xff
	andi	a6,a6,0xff
	andi	a5,a5,0xff
	srli	a3,a3,16
	addi	a0,a0,%lo(.LC3)
	call	printf
.LVL22:
	.loc 1 914 5 is_stmt 1
	mv	a1,s0
	.loc 1 918 1 is_stmt 0
	lw	s0,72(sp)
	.cfi_restore 8
.LVL23:
	lw	ra,76(sp)
	.cfi_restore 1
	.loc 1 914 5
	mv	a2,s1
	.loc 1 918 1
	lw	s1,68(sp)
	.cfi_restore 9
.LVL24:
	.loc 1 914 5
	lui	a0,%hi(.LC2)
	.loc 1 918 1
	.loc 1 914 5
	addi	a0,a0,%lo(.LC2)
	.loc 1 918 1
	addi	sp,sp,80
	.cfi_def_cfa_offset 0
	.loc 1 914 5
	tail	printf
.LVL25:
	.cfi_endproc
.LFE51:
	.size	stateConnectedIPNoAction_ipgot, .-stateConnectedIPNoAction_ipgot
	.section	.text.stateGlobalEnter,"ax",@progbits
	.align	1
	.type	stateGlobalEnter, @function
stateGlobalEnter:
.LFB20:
	.loc 1 371 1 is_stmt 1
	.cfi_startproc
.LVL26:
	.loc 1 372 4
	mv	a1,a0
.LVL27:
	lui	a0,%hi(.LC4)
.LVL28:
	addi	a0,a0,%lo(.LC4)
	tail	printf
.LVL29:
	.cfi_endproc
.LFE20:
	.size	stateGlobalEnter, .-stateGlobalEnter
	.section	.text.stateGlobalAction,"ax",@progbits
	.align	1
	.type	stateGlobalAction, @function
stateGlobalAction:
.LFB19:
	.loc 1 366 1
	.cfi_startproc
.LVL30:
	.loc 1 367 5
	lui	a0,%hi(.LC5)
.LVL31:
	addi	a0,a0,%lo(.LC5)
	tail	printf
.LVL32:
	.cfi_endproc
.LFE19:
	.size	stateGlobalAction, .-stateGlobalAction
	.section	.text.stateConnectingEnter,"ax",@progbits
	.align	1
	.type	stateConnectingEnter, @function
stateConnectingEnter:
.LFB32:
	.loc 1 494 1
	.cfi_startproc
.LVL33:
	.loc 1 495 4
	mv	a1,a0
.LVL34:
	lui	a0,%hi(.LC4)
.LVL35:
	.loc 1 494 1 is_stmt 0
	addi	sp,sp,-16
	.cfi_def_cfa_offset 16
	.loc 1 495 4
	addi	a0,a0,%lo(.LC4)
	.loc 1 494 1
	sw	ra,12(sp)
	.cfi_offset 1, -4
	.loc 1 495 4
	call	printf
.LVL36:
	.loc 1 496 4 is_stmt 1
	.loc 1 497 1 is_stmt 0
	lw	ra,12(sp)
	.cfi_restore 1
	.loc 1 496 4
	li	a2,0
	.loc 1 497 1
	.loc 1 496 4
	li	a1,8
	li	a0,2
	.loc 1 497 1
	addi	sp,sp,16
	.cfi_def_cfa_offset 0
	.loc 1 496 4
	tail	aos_post_event
.LVL37:
	.cfi_endproc
.LFE32:
	.size	stateConnectingEnter, .-stateConnectingEnter
	.section	.text.stateSnifferGuard_ChannelSet,"ax",@progbits
	.align	1
	.type	stateSnifferGuard_ChannelSet, @function
stateSnifferGuard_ChannelSet:
.LFB24:
	.loc 1 402 1 is_stmt 1
	.cfi_startproc
.LVL38:
	.loc 1 403 5
	.loc 1 405 5
	.loc 1 405 9 is_stmt 0
	lw	a5,4(a1)
.LVL39:
	.loc 1 406 5 is_stmt 1
	.loc 1 406 25 is_stmt 0
	lbu	a4,0(a5)
	.loc 1 406 8
	bne	a0,a4,.L15
	.loc 1 410 5 is_stmt 1
	.loc 1 402 1 is_stmt 0
	addi	sp,sp,-16
	.cfi_def_cfa_offset 16
	sw	ra,12(sp)
	.cfi_offset 1, -4
	.loc 1 410 58
	lbu	a1,6(a5)
.LVL40:
	.loc 1 410 41
	lbu	a0,2(a5)
.LVL41:
	.loc 1 410 58
	lbu	a3,5(a5)
	.loc 1 410 41
	lbu	a4,1(a5)
	.loc 1 410 58
	slli	a1,a1,8
	.loc 1 410 41
	slli	a0,a0,8
	.loc 1 410 58
	or	a1,a1,a3
	.loc 1 410 41
	or	a0,a0,a4
	.loc 1 410 58
	lbu	a3,7(a5)
	.loc 1 410 41
	lbu	a4,3(a5)
	.loc 1 410 58
	slli	a3,a3,16
	.loc 1 410 41
	slli	a4,a4,16
	.loc 1 410 58
	or	a3,a3,a1
	.loc 1 410 41
	or	a4,a4,a0
	.loc 1 410 58
	lbu	a1,8(a5)
	.loc 1 410 41
	lbu	a0,4(a5)
	.loc 1 410 58
	slli	a1,a1,24
	.loc 1 410 41
	slli	a0,a0,24
	.loc 1 410 5
	or	a1,a1,a3
	or	a0,a0,a4
	call	bl_main_monitor_channel_set
.LVL42:
	.loc 1 412 5 is_stmt 1
	.loc 1 413 1 is_stmt 0
	lw	ra,12(sp)
	.cfi_restore 1
	li	a0,0
	addi	sp,sp,16
	.cfi_def_cfa_offset 0
	jr	ra
.LVL43:
.L15:
	li	a0,0
.LVL44:
	ret
	.cfi_endproc
.LFE24:
	.size	stateSnifferGuard_ChannelSet, .-stateSnifferGuard_ChannelSet
	.section	.text.stateIdleGuard_sniffer,"ax",@progbits
	.align	1
	.type	stateIdleGuard_sniffer, @function
stateIdleGuard_sniffer:
.LFB40:
	.loc 1 690 1 is_stmt 1
	.cfi_startproc
.LVL45:
	.loc 1 691 5
	.loc 1 693 5
	.loc 1 694 5
	.loc 1 694 25 is_stmt 0
	lw	a5,4(a1)
	lbu	a5,0(a5)
	.loc 1 694 8
	bne	a0,a5,.L20
	.loc 1 698 5 is_stmt 1
	.loc 1 690 1 is_stmt 0
	addi	sp,sp,-16
	.cfi_def_cfa_offset 16
	sw	ra,12(sp)
.LVL46:
	.cfi_offset 1, -4
	.loc 1 698 5
	call	bl_main_monitor
.LVL47:
	.loc 1 699 5 is_stmt 1
	.loc 1 700 1 is_stmt 0
	lw	ra,12(sp)
	.cfi_restore 1
	.loc 1 699 11
	li	a0,1
	.loc 1 700 1
	addi	sp,sp,16
	.cfi_def_cfa_offset 0
	jr	ra
.LVL48:
.L20:
	.loc 1 695 15
	li	a0,0
.LVL49:
	.loc 1 700 1
	ret
	.cfi_endproc
.LFE40:
	.size	stateIdleGuard_sniffer, .-stateIdleGuard_sniffer
	.section	.text.stateConnectedIPNoExit,"ax",@progbits
	.align	1
	.type	stateConnectedIPNoExit, @function
stateConnectedIPNoExit:
.LFB59:
	.loc 1 1039 1 is_stmt 1
	.cfi_startproc
.LVL50:
	.loc 1 1040 5
	.loc 1 1042 5
	.loc 1 1043 5
	.loc 1 1039 1 is_stmt 0
	addi	sp,sp,-16
	.cfi_def_cfa_offset 16
	sw	s0,8(sp)
	.loc 1 1043 5
	mv	a1,a0
.LVL51:
	.cfi_offset 8, -8
	.loc 1 1039 1
	mv	s0,a0
	.loc 1 1043 5
	lui	a0,%hi(.LC1)
.LVL52:
	addi	a0,a0,%lo(.LC1)
	.loc 1 1039 1
	sw	ra,12(sp)
	.cfi_offset 1, -4
	.loc 1 1044 49
	addi	s0,s0,32
.LVL53:
	.loc 1 1043 5
	call	printf
.LVL54:
	.loc 1 1044 5 is_stmt 1
	.loc 1 1044 10
	li	a4,0
	li	a3,0
	li	a2,0
	li	a1,3
	mv	a0,s0
	call	xTimerGenericCommand
.LVL55:
	.loc 1 1044 15
	mv	a0,s0
	.loc 1 1045 1 is_stmt 0
	lw	s0,8(sp)
	.cfi_restore 8
.LVL56:
	lw	ra,12(sp)
	.cfi_restore 1
	.loc 1 1044 15
	li	a4,0
	.loc 1 1045 1
	.loc 1 1044 15
	li	a3,0
	li	a2,0
	li	a1,5
	.loc 1 1045 1
	addi	sp,sp,16
	.cfi_def_cfa_offset 0
	.loc 1 1044 15
	tail	xTimerGenericCommand
.LVL57:
	.cfi_endproc
.LFE59:
	.size	stateConnectedIPNoExit, .-stateConnectedIPNoExit
	.section	.text.stateDisconnect_action_idle,"ax",@progbits
	.align	1
	.type	stateDisconnect_action_idle, @function
stateDisconnect_action_idle:
.LFB69:
	.loc 1 1237 1 is_stmt 1
	.cfi_startproc
.LVL58:
	.loc 1 1238 5
	mv	a1,a0
.LVL59:
	lui	a0,%hi(.LC2)
.LVL60:
	.loc 1 1237 1 is_stmt 0
	addi	sp,sp,-16
	.cfi_def_cfa_offset 16
	.loc 1 1238 5
	addi	a0,a0,%lo(.LC2)
	.loc 1 1237 1
	sw	ra,12(sp)
	.cfi_offset 1, -4
	.loc 1 1238 5
	call	printf
.LVL61:
	.loc 1 1242 5 is_stmt 1
	lui	a0,%hi(.LC6)
	addi	a0,a0,%lo(.LC6)
	call	printf
.LVL62:
	.loc 1 1243 5
	lui	a5,%hi(wifiMgmr+16)
	.loc 1 1244 1 is_stmt 0
	lw	ra,12(sp)
	.cfi_restore 1
	.loc 1 1243 5
	lbu	a0,%lo(wifiMgmr+16)(a5)
	.loc 1 1244 1
	addi	sp,sp,16
	.cfi_def_cfa_offset 0
	.loc 1 1243 5
	tail	bl_main_if_remove
.LVL63:
	.cfi_endproc
.LFE69:
	.size	stateDisconnect_action_idle, .-stateDisconnect_action_idle
	.section	.text.stateDisconnect_action_reconnect,"ax",@progbits
	.align	1
	.type	stateDisconnect_action_reconnect, @function
stateDisconnect_action_reconnect:
.LFB68:
	.loc 1 1197 1 is_stmt 1
	.cfi_startproc
.LVL64:
	.loc 1 1198 5
	.loc 1 1199 5
	.loc 1 1201 5
	.loc 1 1202 5
	.loc 1 1203 5
	.loc 1 1197 1 is_stmt 0
	addi	sp,sp,-48
	.cfi_def_cfa_offset 48
	sw	s0,40(sp)
	.loc 1 1203 5
	mv	a1,a0
.LVL65:
	.cfi_offset 8, -8
	.loc 1 1197 1
	mv	s0,a0
	.loc 1 1203 5
	lui	a0,%hi(.LC2)
.LVL66:
	addi	a0,a0,%lo(.LC2)
	.loc 1 1197 1
	sw	ra,44(sp)
	sw	s1,36(sp)
	sw	s2,32(sp)
	sw	s3,28(sp)
	.cfi_offset 1, -4
	.cfi_offset 9, -12
	.cfi_offset 18, -16
	.cfi_offset 19, -20
	.loc 1 1203 5
	call	printf
.LVL67:
	.loc 1 1208 5 is_stmt 1
	lui	a0,%hi(.LC7)
	addi	a0,a0,%lo(.LC7)
	call	printf
.LVL68:
	.loc 1 1209 5
	.loc 1 1209 49 is_stmt 0
	addi	s1,s0,77
.LVL69:
	.loc 1 1209 5
	lui	a0,%hi(.LC8)
	mv	a1,s1
	addi	a0,a0,%lo(.LC8)
	call	printf
.LVL70:
	.loc 1 1210 5 is_stmt 1
	.loc 1 1210 67 is_stmt 0
	lbu	a1,111(s0)
	lbu	a5,110(s0)
	.loc 1 1210 5
	lui	a0,%hi(.LC9)
	.loc 1 1210 67
	slli	a1,a1,8
	or	a1,a1,a5
	lbu	a5,112(s0)
	.loc 1 1210 5
	addi	a0,a0,%lo(.LC9)
	.loc 1 1211 48
	addi	s2,s0,114
	.loc 1 1210 67
	slli	a5,a5,16
	or	a5,a5,a1
	lbu	a1,113(s0)
	.loc 1 1213 48
	addi	s3,s0,179
	.loc 1 1210 67
	slli	a1,a1,24
	.loc 1 1210 5
	or	a1,a1,a5
	call	printf
.LVL71:
	.loc 1 1211 5 is_stmt 1
	lui	a0,%hi(.LC10)
	mv	a1,s2
	addi	a0,a0,%lo(.LC10)
	call	printf
.LVL72:
	.loc 1 1212 5
	.loc 1 1212 66 is_stmt 0
	lbu	a1,245(s0)
	lbu	a5,244(s0)
	.loc 1 1212 5
	lui	a0,%hi(.LC11)
	.loc 1 1212 66
	slli	a1,a1,8
	or	a1,a1,a5
	lbu	a5,246(s0)
	.loc 1 1212 5
	addi	a0,a0,%lo(.LC11)
	.loc 1 1212 66
	slli	a5,a5,16
	or	a5,a5,a1
	lbu	a1,247(s0)
	slli	a1,a1,24
	.loc 1 1212 5
	or	a1,a1,a5
	call	printf
.LVL73:
	.loc 1 1213 5 is_stmt 1
	lui	a0,%hi(.LC12)
	mv	a1,s3
	addi	a0,a0,%lo(.LC12)
	call	printf
.LVL74:
	.loc 1 1214 5
	.loc 1 1214 66 is_stmt 0
	lbu	a1,249(s0)
	lbu	a5,248(s0)
	.loc 1 1214 5
	lui	a0,%hi(.LC13)
	.loc 1 1214 66
	slli	a1,a1,8
	or	a1,a1,a5
	lbu	a5,250(s0)
	.loc 1 1214 5
	addi	a0,a0,%lo(.LC13)
	.loc 1 1214 66
	slli	a5,a5,16
	or	a5,a5,a1
	lbu	a1,251(s0)
	slli	a1,a1,24
	.loc 1 1214 5
	or	a1,a1,a5
	call	printf
.LVL75:
	.loc 1 1215 5 is_stmt 1
	lbu	a6,252(s0)
	lbu	a5,253(s0)
	lbu	a4,254(s0)
	lbu	a3,255(s0)
	lbu	a2,256(s0)
	lbu	a1,257(s0)
	lui	a0,%hi(.LC14)
	addi	a0,a0,%lo(.LC14)
	call	printf
.LVL76:
	.loc 1 1225 5
	.loc 1 1227 59 is_stmt 0
	lbu	a5,249(s0)
	.loc 1 1226 59
	lbu	a3,245(s0)
	.loc 1 1225 68
	lbu	a1,111(s0)
	.loc 1 1227 59
	lbu	a4,248(s0)
	.loc 1 1226 59
	lbu	a2,244(s0)
	.loc 1 1225 68
	lbu	a0,110(s0)
	.loc 1 1227 59
	slli	a5,a5,8
	.loc 1 1226 59
	slli	a3,a3,8
	.loc 1 1225 68
	slli	a1,a1,8
	.loc 1 1227 59
	or	a5,a5,a4
	.loc 1 1226 59
	or	a3,a3,a2
	.loc 1 1227 59
	lbu	a4,250(s0)
	.loc 1 1226 59
	lbu	a2,246(s0)
	.loc 1 1225 68
	or	a1,a1,a0
	lbu	a0,112(s0)
	.loc 1 1227 59
	slli	a4,a4,16
	.loc 1 1226 59
	slli	a2,a2,16
	.loc 1 1225 68
	slli	a0,a0,16
	.loc 1 1227 59
	or	a4,a4,a5
	.loc 1 1226 59
	or	a2,a2,a3
	.loc 1 1227 59
	lbu	a5,251(s0)
	.loc 1 1226 59
	lbu	a3,247(s0)
	.loc 1 1225 68
	or	a0,a0,a1
	lbu	a1,113(s0)
	.loc 1 1227 59
	slli	a5,a5,24
	.loc 1 1226 59
	slli	a3,a3,24
	.loc 1 1225 68
	slli	a1,a1,24
	.loc 1 1225 5
	or	a1,a1,a0
	sw	zero,0(sp)
	addi	a6,s0,252
	or	a5,a5,a4
	or	a3,a3,a2
	mv	a4,s3
	mv	a2,s2
	mv	a0,s1
	li	a7,0
	call	bl_main_connect
.LVL77:
	.loc 1 1232 5 is_stmt 1
	.loc 1 1233 1 is_stmt 0
	lw	s0,40(sp)
	.cfi_restore 8
.LVL78:
	lw	ra,44(sp)
	.cfi_restore 1
	lw	s1,36(sp)
	.cfi_restore 9
.LVL79:
	lw	s2,32(sp)
	.cfi_restore 18
	lw	s3,28(sp)
	.cfi_restore 19
.LVL80:
	.loc 1 1232 5
	li	a2,0
	.loc 1 1233 1
	.loc 1 1232 5
	li	a1,3
	li	a0,2
	.loc 1 1233 1
	addi	sp,sp,48
	.cfi_def_cfa_offset 0
	.loc 1 1232 5
	tail	aos_post_event
.LVL81:
	.cfi_endproc
.LFE68:
	.size	stateDisconnect_action_reconnect, .-stateDisconnect_action_reconnect
	.section	.text.ip_obtaining_timeout,"ax",@progbits
	.align	1
	.type	ip_obtaining_timeout, @function
ip_obtaining_timeout:
.LFB53:
	.loc 1 930 1 is_stmt 1
	.cfi_startproc
.LVL82:
	.loc 1 931 5
	.loc 1 930 1 is_stmt 0
	addi	sp,sp,-16
	.cfi_def_cfa_offset 16
	sw	ra,12(sp)
	.cfi_offset 1, -4
	.loc 1 931 38
	call	pvTimerGetTimerID
.LVL83:
	.loc 1 933 5 is_stmt 1
	.loc 1 936 5
	lui	a0,%hi(.LC15)
	addi	a0,a0,%lo(.LC15)
	call	printf
.LVL84:
	.loc 1 937 5
	.loc 1 938 1 is_stmt 0
	lw	ra,12(sp)
	.cfi_restore 1
	addi	sp,sp,16
	.cfi_def_cfa_offset 0
	.loc 1 937 5
	tail	wifi_mgmr_api_fw_disconnect
.LVL85:
	.cfi_endproc
.LFE53:
	.size	ip_obtaining_timeout, .-ip_obtaining_timeout
	.section	.text.stateConnectedIPNoEnter,"ax",@progbits
	.align	1
	.type	stateConnectedIPNoEnter, @function
stateConnectedIPNoEnter:
.LFB57:
	.loc 1 1004 1 is_stmt 1
	.cfi_startproc
.LVL86:
	.loc 1 1005 5
	.loc 1 1007 5
	.loc 1 1008 5
	.loc 1 1004 1 is_stmt 0
	addi	sp,sp,-64
	.cfi_def_cfa_offset 64
	.loc 1 1008 5
	mv	a1,a0
.LVL87:
	sw	a0,12(sp)
	lui	a0,%hi(.LC4)
.LVL88:
	addi	a0,a0,%lo(.LC4)
	.loc 1 1004 1
	sw	ra,60(sp)
	sw	s0,56(sp)
	sw	s1,52(sp)
	sw	s2,48(sp)
	sw	s3,44(sp)
	sw	s4,40(sp)
	sw	s5,36(sp)
	.cfi_offset 1, -4
	.cfi_offset 8, -8
	.cfi_offset 9, -12
	.cfi_offset 18, -16
	.cfi_offset 19, -20
	.cfi_offset 20, -24
	.cfi_offset 21, -28
	.loc 1 1008 5
	call	printf
.LVL89:
	.loc 1 1009 5 is_stmt 1
	.loc 1 1009 122 is_stmt 0
	lw	a3,12(sp)
	.loc 1 1009 5
	lui	a4,%hi(ip_obtaining_timeout)
	li	a1,16384
	.loc 1 1009 122
	addi	s0,a3,32
	.loc 1 1009 5
	lui	a0,%hi(.LC16)
	mv	a5,s0
	addi	a4,a4,%lo(ip_obtaining_timeout)
	li	a2,0
	addi	a1,a1,-1384
	addi	a0,a0,%lo(.LC16)
	call	xTimerCreateStatic
.LVL90:
	.loc 1 1016 5 is_stmt 1
	call	xTaskGetTickCount
.LVL91:
	mv	a2,a0
	li	a1,1
	li	a4,-1
	li	a3,0
	mv	a0,s0
	call	xTimerGenericCommand
.LVL92:
	.loc 1 1016 40
	.loc 1 1017 5
.LBB16:
.LBB17:
	.loc 1 969 5
	.loc 1 970 5
	.loc 1 971 5
	.loc 1 972 5
	.loc 1 974 5
	call	vTaskEnterCritical
.LVL93:
	.loc 1 975 5
	.loc 1 975 8 is_stmt 0
	lui	a5,%hi(wifiMgmr)
	addi	a5,a5,%lo(wifiMgmr)
	lw	s1,24(a5)
.LVL94:
	.loc 1 976 5 is_stmt 1
	.loc 1 976 10 is_stmt 0
	lw	s3,28(a5)
.LVL95:
	.loc 1 977 5 is_stmt 1
	.loc 1 977 8 is_stmt 0
	lw	s2,32(a5)
.LVL96:
	.loc 1 978 5 is_stmt 1
	.loc 1 978 10 is_stmt 0
	lw	s5,36(a5)
.LVL97:
	.loc 1 979 5 is_stmt 1
	.loc 1 979 10 is_stmt 0
	lw	s4,40(a5)
.LVL98:
	.loc 1 980 5 is_stmt 1
	lui	s0,%hi(wifiMgmr+44)
	call	vTaskExitCritical
.LVL99:
	.loc 1 982 5
	.loc 1 984 9 is_stmt 0
	addi	a1,s0,%lo(wifiMgmr+44)
	.loc 1 982 8
	beq	s1,zero,.L34
	.loc 1 984 9 is_stmt 1
	lui	a0,%hi(.LC17)
	addi	a0,a0,%lo(.LC17)
	call	printf
.LVL100:
	.loc 1 986 9
	.loc 1 987 9 is_stmt 0
	addi	a1,sp,20
	li	a0,0
	.loc 1 986 31
	sw	s5,20(sp)
	.loc 1 987 9 is_stmt 1
	call	dns_setserver
.LVL101:
	.loc 1 988 9
	.loc 1 989 9 is_stmt 0
	addi	a1,sp,20
	li	a0,1
	.loc 1 988 31
	sw	s4,20(sp)
	.loc 1 989 9 is_stmt 1
	call	dns_setserver
.LVL102:
	.loc 1 991 9
	.loc 1 994 9 is_stmt 0
	lui	a1,%hi(dhcp_stop)
	li	a2,0
	addi	a1,a1,%lo(dhcp_stop)
	addi	a0,s0,%lo(wifiMgmr+44)
	.loc 1 991 31
	sw	s1,20(sp)
	.loc 1 992 9 is_stmt 1
	.loc 1 992 32 is_stmt 0
	sw	s3,24(sp)
	.loc 1 993 9 is_stmt 1
	.loc 1 993 27 is_stmt 0
	sw	s2,28(sp)
	.loc 1 994 9 is_stmt 1
	call	netifapi_netif_common
.LVL103:
	.loc 1 995 9
	addi	a3,sp,28
	addi	a2,sp,24
	addi	a1,sp,20
	addi	a0,s0,%lo(wifiMgmr+44)
	call	netifapi_netif_set_addr
.LVL104:
.L35:
.LBE17:
.LBE16:
	.loc 1 1018 5
	li	a2,0
	li	a1,4
	li	a0,2
	call	aos_post_event
.LVL105:
	.loc 1 1019 1 is_stmt 0
	lw	ra,60(sp)
	.cfi_remember_state
	.cfi_restore 1
	lw	s0,56(sp)
	.cfi_restore 8
	lw	s1,52(sp)
	.cfi_restore 9
	lw	s2,48(sp)
	.cfi_restore 18
	lw	s3,44(sp)
	.cfi_restore 19
	lw	s4,40(sp)
	.cfi_restore 20
	lw	s5,36(sp)
	.cfi_restore 21
	addi	sp,sp,64
	.cfi_def_cfa_offset 0
.LVL106:
	jr	ra
.LVL107:
.L34:
	.cfi_restore_state
.LBB19:
.LBB18:
	.loc 1 998 9 is_stmt 1
	lui	a0,%hi(.LC18)
	addi	a0,a0,%lo(.LC18)
	call	printf
.LVL108:
	.loc 1 999 9
	addi	a0,s0,%lo(wifiMgmr+44)
	call	wifi_netif_dhcp_start
.LVL109:
	j	.L35
.LBE18:
.LBE19:
	.cfi_endproc
.LFE57:
	.size	stateConnectedIPNoEnter, .-stateConnectedIPNoEnter
	.section	.text.stateConnectedIPNoGuard_disconnect,"ax",@progbits
	.align	1
	.type	stateConnectedIPNoGuard_disconnect, @function
stateConnectedIPNoGuard_disconnect:
.LFB50:
	.loc 1 865 1
	.cfi_startproc
.LVL110:
	.loc 1 866 5
	.loc 1 868 5
	.loc 1 869 5
	.loc 1 869 25 is_stmt 0
	lw	a5,4(a1)
	lbu	a5,0(a5)
	.loc 1 869 8
	bne	a0,a5,.L40
	.loc 1 873 5 is_stmt 1
	.loc 1 865 1 is_stmt 0
	addi	sp,sp,-16
	.cfi_def_cfa_offset 16
	sw	ra,12(sp)
.LVL111:
	.cfi_offset 1, -4
	.loc 1 873 5
	call	bl_main_disconnect
.LVL112:
	.loc 1 875 5 is_stmt 1
	.loc 1 876 1 is_stmt 0
	lw	ra,12(sp)
	.cfi_restore 1
	li	a0,0
	addi	sp,sp,16
	.cfi_def_cfa_offset 0
	jr	ra
.LVL113:
.L40:
	li	a0,0
.LVL114:
	ret
	.cfi_endproc
.LFE50:
	.size	stateConnectedIPNoGuard_disconnect, .-stateConnectedIPNoGuard_disconnect
	.section	.text.stateConnectedIPYesGuard_disconnect,"ax",@progbits
	.align	1
	.type	stateConnectedIPYesGuard_disconnect, @function
stateConnectedIPYesGuard_disconnect:
.LFB139:
	.cfi_startproc
	tail	stateConnectedIPNoGuard_disconnect
	.cfi_endproc
.LFE139:
	.size	stateConnectedIPYesGuard_disconnect, .-stateConnectedIPYesGuard_disconnect
	.section	.text.stateConnectedIPYesGuard_rcconfig,"ax",@progbits
	.align	1
	.type	stateConnectedIPYesGuard_rcconfig, @function
stateConnectedIPYesGuard_rcconfig:
.LFB63:
	.loc 1 1105 1 is_stmt 1
	.cfi_startproc
.LVL115:
	.loc 1 1106 5
	.loc 1 1108 5
	.loc 1 1105 1 is_stmt 0
	addi	sp,sp,-16
	.cfi_def_cfa_offset 16
	sw	ra,12(sp)
	sw	s0,8(sp)
	.cfi_offset 1, -4
	.cfi_offset 8, -8
	.loc 1 1108 9
	lw	s0,4(a1)
.LVL116:
	.loc 1 1109 5 is_stmt 1
	.loc 1 1109 25 is_stmt 0
	lbu	a5,0(s0)
	.loc 1 1109 8
	bne	a0,a5,.L45
	.loc 1 1113 5 is_stmt 1
	.loc 1 1113 94 is_stmt 0
	lbu	a1,2(s0)
.LVL117:
	lbu	a5,1(s0)
	.loc 1 1113 5
	lui	a0,%hi(.LC19)
.LVL118:
	.loc 1 1113 94
	slli	a1,a1,8
	or	a1,a1,a5
	lbu	a5,3(s0)
	.loc 1 1113 5
	addi	a0,a0,%lo(.LC19)
	.loc 1 1113 94
	slli	a5,a5,16
	or	a5,a5,a1
	lbu	a1,4(s0)
	slli	a1,a1,24
	.loc 1 1113 5
	or	a1,a1,a5
	call	printf
.LVL119:
	.loc 1 1114 5 is_stmt 1
	.loc 1 1114 41 is_stmt 0
	lbu	a5,2(s0)
	lbu	a1,1(s0)
	.loc 1 1114 5
	li	a0,0
	.loc 1 1114 41
	slli	a5,a5,8
	.loc 1 1114 5
	or	a1,a5,a1
	call	bl_main_rate_config
.LVL120:
	.loc 1 1116 5 is_stmt 1
.L45:
	.loc 1 1117 1 is_stmt 0
	lw	ra,12(sp)
	.cfi_restore 1
	lw	s0,8(sp)
	.cfi_restore 8
.LVL121:
	li	a0,0
	addi	sp,sp,16
	.cfi_def_cfa_offset 0
	jr	ra
	.cfi_endproc
.LFE63:
	.size	stateConnectedIPYesGuard_rcconfig, .-stateConnectedIPYesGuard_rcconfig
	.section	.text.stateIdleAction_connect,"ax",@progbits
	.align	1
	.type	stateIdleAction_connect, @function
stateIdleAction_connect:
.LFB41:
	.loc 1 704 1 is_stmt 1
	.cfi_startproc
.LVL122:
	.loc 1 705 5
	.loc 1 706 5
	.loc 1 708 5
	.loc 1 704 1 is_stmt 0
	addi	sp,sp,-48
	.cfi_def_cfa_offset 48
	sw	ra,44(sp)
	sw	s1,36(sp)
	sw	s2,32(sp)
	sw	s3,28(sp)
	sw	s4,24(sp)
	sw	s5,20(sp)
	sw	s0,40(sp)
	.cfi_offset 1, -4
	.cfi_offset 9, -12
	.cfi_offset 18, -16
	.cfi_offset 19, -20
	.cfi_offset 20, -24
	.cfi_offset 21, -28
	.cfi_offset 8, -8
	.loc 1 708 9
	lw	s0,4(a1)
.LVL123:
	.loc 1 709 5 is_stmt 1
	.loc 1 704 1 is_stmt 0
	mv	s4,a0
	.loc 1 712 5
	lui	a0,%hi(.LC22)
.LVL124:
	.loc 1 710 31
	sb	zero,45(s0)
	.loc 1 711 30
	sb	zero,114(s0)
	.loc 1 712 5
	addi	a0,a0,%lo(.LC22)
	.loc 1 704 1
	mv	s5,a2
	.loc 1 712 5
	call	printf
.LVL125:
	.loc 1 709 17
	addi	s1,s0,13
.LVL126:
	.loc 1 710 5 is_stmt 1
	.loc 1 711 5
	.loc 1 712 5
	.loc 1 713 5
	lui	a0,%hi(.LC8)
	mv	a1,s1
	addi	a0,a0,%lo(.LC8)
	call	printf
.LVL127:
	.loc 1 714 5
	.loc 1 714 67 is_stmt 0
	lbu	a1,47(s0)
	lbu	a5,46(s0)
	.loc 1 714 5
	lui	a0,%hi(.LC9)
	.loc 1 714 67
	slli	a1,a1,8
	or	a1,a1,a5
	lbu	a5,48(s0)
	.loc 1 714 5
	addi	a0,a0,%lo(.LC9)
	.loc 1 715 48
	addi	s2,s0,50
	.loc 1 714 67
	slli	a5,a5,16
	or	a5,a5,a1
	lbu	a1,49(s0)
	.loc 1 717 48
	addi	s3,s0,115
	.loc 1 714 67
	slli	a1,a1,24
	.loc 1 714 5
	or	a1,a1,a5
	call	printf
.LVL128:
	.loc 1 715 5 is_stmt 1
	lui	a0,%hi(.LC10)
	mv	a1,s2
	addi	a0,a0,%lo(.LC10)
	call	printf
.LVL129:
	.loc 1 716 5
	.loc 1 716 66 is_stmt 0
	lbu	a1,181(s0)
	lbu	a5,180(s0)
	.loc 1 716 5
	lui	a0,%hi(.LC11)
	.loc 1 716 66
	slli	a1,a1,8
	or	a1,a1,a5
	lbu	a5,182(s0)
	.loc 1 716 5
	addi	a0,a0,%lo(.LC11)
	.loc 1 716 66
	slli	a5,a5,16
	or	a5,a5,a1
	lbu	a1,183(s0)
	slli	a1,a1,24
	.loc 1 716 5
	or	a1,a1,a5
	call	printf
.LVL130:
	.loc 1 717 5 is_stmt 1
	lui	a0,%hi(.LC12)
	mv	a1,s3
	addi	a0,a0,%lo(.LC12)
	call	printf
.LVL131:
	.loc 1 718 5
	.loc 1 718 66 is_stmt 0
	lbu	a1,185(s0)
	lbu	a5,184(s0)
	.loc 1 718 5
	lui	a0,%hi(.LC13)
	.loc 1 718 66
	slli	a1,a1,8
	or	a1,a1,a5
	lbu	a5,186(s0)
	.loc 1 718 5
	addi	a0,a0,%lo(.LC13)
	.loc 1 718 66
	slli	a5,a5,16
	or	a5,a5,a1
	lbu	a1,187(s0)
	slli	a1,a1,24
	.loc 1 718 5
	or	a1,a1,a5
	call	printf
.LVL132:
	.loc 1 719 5 is_stmt 1
	lbu	a1,194(s0)
	lui	a0,%hi(.LC23)
	addi	a0,a0,%lo(.LC23)
	call	printf
.LVL133:
	.loc 1 720 5
	.loc 1 720 67 is_stmt 0
	lbu	a5,196(s0)
	lbu	a1,195(s0)
	.loc 1 720 5
	lui	a0,%hi(.LC24)
	.loc 1 720 67
	slli	a5,a5,8
	.loc 1 720 5
	or	a1,a5,a1
	addi	a0,a0,%lo(.LC24)
	call	printf
.LVL134:
	.loc 1 721 5 is_stmt 1
	lbu	a5,189(s0)
	lbu	a6,188(s0)
	lbu	a4,190(s0)
	lbu	a3,191(s0)
	lbu	a2,192(s0)
	lbu	a1,193(s0)
	lui	a0,%hi(.LC14)
	addi	a0,a0,%lo(.LC14)
	call	printf
.LVL135:
	.loc 1 729 5
	lbu	a5,197(s0)
	bne	a5,zero,.L49
	lui	a1,%hi(.LC21)
	addi	a1,a1,%lo(.LC21)
.L48:
	.loc 1 729 5 is_stmt 0 discriminator 4
	lui	a0,%hi(.LC25)
	addi	a0,a0,%lo(.LC25)
	call	printf
.LVL136:
	.loc 1 730 5 is_stmt 1 discriminator 4
	lui	a0,%hi(wifiMgmr)
	mv	a1,s1
	li	a2,-1
	addi	a0,a0,%lo(wifiMgmr)
	call	wifi_mgmr_profile_add
.LVL137:
	.loc 1 732 5 discriminator 4
	lui	a0,%hi(.LC2)
	mv	a2,s5
	mv	a1,s4
	addi	a0,a0,%lo(.LC2)
	call	printf
.LVL138:
	.loc 1 738 5 discriminator 4
	.loc 1 740 59 is_stmt 0 discriminator 4
	lbu	a5,185(s0)
	.loc 1 739 59 discriminator 4
	lbu	a3,181(s0)
	.loc 1 738 68 discriminator 4
	lbu	a1,47(s0)
	.loc 1 740 59 discriminator 4
	lbu	a4,184(s0)
	.loc 1 739 59 discriminator 4
	lbu	a2,180(s0)
	.loc 1 738 68 discriminator 4
	lbu	a0,46(s0)
	.loc 1 740 59 discriminator 4
	slli	a5,a5,8
	.loc 1 739 59 discriminator 4
	slli	a3,a3,8
	.loc 1 738 68 discriminator 4
	slli	a1,a1,8
	.loc 1 740 59 discriminator 4
	or	a5,a5,a4
	.loc 1 739 59 discriminator 4
	or	a3,a3,a2
	.loc 1 740 59 discriminator 4
	lbu	a4,186(s0)
	.loc 1 739 59 discriminator 4
	lbu	a2,182(s0)
	.loc 1 738 68 discriminator 4
	or	a1,a1,a0
	lbu	a0,48(s0)
	.loc 1 743 40 discriminator 4
	lbu	a6,196(s0)
	.loc 1 740 59 discriminator 4
	slli	a4,a4,16
	.loc 1 739 59 discriminator 4
	slli	a2,a2,16
	.loc 1 738 68 discriminator 4
	slli	a0,a0,16
	.loc 1 743 40 discriminator 4
	lbu	t1,195(s0)
	.loc 1 740 59 discriminator 4
	or	a4,a4,a5
	.loc 1 739 59 discriminator 4
	or	a2,a2,a3
	.loc 1 740 59 discriminator 4
	lbu	a5,187(s0)
	.loc 1 739 59 discriminator 4
	lbu	a3,183(s0)
	.loc 1 738 68 discriminator 4
	or	a0,a0,a1
	lbu	a1,49(s0)
	.loc 1 738 5 discriminator 4
	lbu	a7,194(s0)
	.loc 1 743 40 discriminator 4
	slli	a6,a6,8
	.loc 1 738 5 discriminator 4
	or	a6,a6,t1
	.loc 1 740 59 discriminator 4
	slli	a5,a5,24
	.loc 1 739 59 discriminator 4
	slli	a3,a3,24
	.loc 1 738 68 discriminator 4
	slli	a1,a1,24
	.loc 1 738 5 discriminator 4
	sw	a6,0(sp)
	or	a5,a5,a4
	addi	a6,s0,188
	mv	a4,s3
	or	a3,a3,a2
	or	a1,a1,a0
	mv	a2,s2
	mv	a0,s1
	call	bl_main_connect
.LVL139:
	.loc 1 745 1 discriminator 4
	lw	ra,44(sp)
	.cfi_remember_state
	.cfi_restore 1
	lw	s0,40(sp)
	.cfi_restore 8
.LVL140:
	lw	s1,36(sp)
	.cfi_restore 9
.LVL141:
	lw	s2,32(sp)
	.cfi_restore 18
	lw	s3,28(sp)
	.cfi_restore 19
.LVL142:
	lw	s4,24(sp)
	.cfi_restore 20
.LVL143:
	lw	s5,20(sp)
	.cfi_restore 21
.LVL144:
	addi	sp,sp,48
	.cfi_def_cfa_offset 0
	jr	ra
.LVL145:
.L49:
	.cfi_restore_state
	.loc 1 729 5
	lui	a1,%hi(.LC20)
	addi	a1,a1,%lo(.LC20)
	j	.L48
	.cfi_endproc
.LFE41:
	.size	stateIdleAction_connect, .-stateIdleAction_connect
	.section	.text.stateGlobal_cfg_req,"ax",@progbits
	.align	1
	.type	stateGlobal_cfg_req, @function
stateGlobal_cfg_req:
.LFB26:
	.loc 1 438 1 is_stmt 1
	.cfi_startproc
.LVL146:
	.loc 1 439 5
	.loc 1 440 5
	.loc 1 442 5
	.loc 1 442 9 is_stmt 0
	lw	a4,4(a1)
.LVL147:
	.loc 1 443 5 is_stmt 1
	.loc 1 443 8 is_stmt 0
	li	a5,22
	lbu	a3,0(a4)
	bne	a3,a5,.L54
	.loc 1 444 9 is_stmt 1
.LVL148:
	.loc 1 445 9
	.loc 1 438 1 is_stmt 0
	addi	sp,sp,-16
	.cfi_def_cfa_offset 16
	sw	ra,12(sp)
	.cfi_offset 1, -4
	.loc 1 445 9
	lbu	a3,26(a4)
	lbu	a2,22(a4)
	lbu	a1,18(a4)
.LVL149:
	lbu	a0,14(a4)
.LVL150:
	lbu	t3,25(a4)
	lbu	t1,21(a4)
	lbu	a7,17(a4)
	lbu	a6,13(a4)
	slli	a3,a3,8
	slli	a2,a2,8
	slli	a1,a1,8
	slli	a0,a0,8
	or	a3,a3,t3
	or	a2,a2,t1
	lbu	t3,27(a4)
	lbu	t1,23(a4)
	or	a1,a1,a7
	or	a0,a0,a6
	lbu	a7,19(a4)
	lbu	a6,15(a4)
	slli	t3,t3,16
	slli	t1,t1,16
	slli	a7,a7,16
	slli	a6,a6,16
	or	t3,t3,a3
	or	t1,t1,a2
	lbu	a3,28(a4)
	lbu	a2,24(a4)
	or	a7,a7,a1
	or	a6,a6,a0
	lbu	a1,20(a4)
	lbu	a0,16(a4)
	slli	a3,a3,24
	slli	a2,a2,24
	slli	a1,a1,24
	slli	a0,a0,24
	li	a5,0
	addi	a4,a4,33
.LVL151:
	or	a3,a3,t3
	or	a2,a2,t1
	or	a1,a1,a7
	or	a0,a0,a6
	call	bl_main_cfg_task_req
.LVL152:
	.loc 1 448 5 is_stmt 1
	.loc 1 449 1 is_stmt 0
	lw	ra,12(sp)
	.cfi_restore 1
	li	a0,0
	addi	sp,sp,16
	.cfi_def_cfa_offset 0
	jr	ra
.LVL153:
.L54:
	.loc 1 448 5 is_stmt 1
	.loc 1 449 1 is_stmt 0
	li	a0,0
.LVL154:
	ret
	.cfi_endproc
.LFE26:
	.size	stateGlobal_cfg_req, .-stateGlobal_cfg_req
	.section	.text.stateGlobalGuard_fw_powersaving,"ax",@progbits
	.align	1
	.type	stateGlobalGuard_fw_powersaving, @function
stateGlobalGuard_fw_powersaving:
.LFB17:
	.loc 1 316 1 is_stmt 1
	.cfi_startproc
.LVL155:
	.loc 1 317 5
	.loc 1 319 5
	.loc 1 316 1 is_stmt 0
	addi	sp,sp,-16
	.cfi_def_cfa_offset 16
	sw	ra,12(sp)
	sw	s0,8(sp)
	.cfi_offset 1, -4
	.cfi_offset 8, -8
	.loc 1 319 9
	lw	s0,4(a1)
.LVL156:
	.loc 1 320 5 is_stmt 1
	.loc 1 320 8 is_stmt 0
	li	a5,16
	lbu	a4,0(s0)
	bne	a4,a5,.L58
	.loc 1 321 9 is_stmt 1
	.loc 1 321 79 is_stmt 0
	lbu	a1,2(s0)
.LVL157:
	lbu	a5,1(s0)
	.loc 1 321 9
	lui	a0,%hi(.LC26)
.LVL158:
	.loc 1 321 79
	slli	a1,a1,8
	or	a1,a1,a5
	lbu	a5,3(s0)
	.loc 1 321 9
	addi	a0,a0,%lo(.LC26)
	.loc 1 321 79
	slli	a5,a5,16
	or	a5,a5,a1
	lbu	a1,4(s0)
	slli	a1,a1,24
	.loc 1 321 9
	or	a1,a1,a5
	call	printf
.LVL159:
	.loc 1 323 9 is_stmt 1
	.loc 1 323 37 is_stmt 0
	lbu	a0,2(s0)
	lbu	a5,1(s0)
	slli	a0,a0,8
	or	a0,a0,a5
	lbu	a5,3(s0)
	slli	a5,a5,16
	or	a5,a5,a0
	lbu	a0,4(s0)
	slli	a0,a0,24
	.loc 1 323 9
	or	a0,a0,a5
	call	bl_main_powersaving
.LVL160:
.L58:
	.loc 1 326 5 is_stmt 1
	.loc 1 327 1 is_stmt 0
	lw	ra,12(sp)
	.cfi_restore 1
	lw	s0,8(sp)
	.cfi_restore 8
.LVL161:
	li	a0,0
	addi	sp,sp,16
	.cfi_def_cfa_offset 0
	jr	ra
	.cfi_endproc
.LFE17:
	.size	stateGlobalGuard_fw_powersaving, .-stateGlobalGuard_fw_powersaving
	.section	.text.stateGlobalGuard_conf_max_sta,"ax",@progbits
	.align	1
	.type	stateGlobalGuard_conf_max_sta, @function
stateGlobalGuard_conf_max_sta:
.LFB36:
	.loc 1 561 1 is_stmt 1
	.cfi_startproc
.LVL162:
	.loc 1 562 5
	.loc 1 564 5
	.loc 1 561 1 is_stmt 0
	addi	sp,sp,-16
	.cfi_def_cfa_offset 16
	sw	ra,12(sp)
	sw	s0,8(sp)
	.cfi_offset 1, -4
	.cfi_offset 8, -8
	.loc 1 564 9
	lw	s0,4(a1)
.LVL163:
	.loc 1 565 5 is_stmt 1
	.loc 1 565 8 is_stmt 0
	li	a5,10
	lbu	a4,0(s0)
	bne	a4,a5,.L61
	.loc 1 569 5 is_stmt 1
	.loc 1 569 74 is_stmt 0
	lbu	a1,2(s0)
.LVL164:
	lbu	a5,1(s0)
	.loc 1 569 5
	lui	a0,%hi(.LC27)
.LVL165:
	.loc 1 569 74
	slli	a1,a1,8
	or	a1,a1,a5
	lbu	a5,3(s0)
	.loc 1 569 5
	addi	a0,a0,%lo(.LC27)
	.loc 1 569 74
	slli	a5,a5,16
	or	a5,a5,a1
	lbu	a1,4(s0)
	slli	a1,a1,24
	.loc 1 569 5
	or	a1,a1,a5
	call	printf
.LVL166:
	.loc 1 570 5 is_stmt 1
	lbu	a0,1(s0)
	call	bl_main_conf_max_sta
.LVL167:
	.loc 1 572 5
.L61:
	.loc 1 573 1 is_stmt 0
	lw	ra,12(sp)
	.cfi_restore 1
	lw	s0,8(sp)
	.cfi_restore 8
.LVL168:
	li	a0,0
	addi	sp,sp,16
	.cfi_def_cfa_offset 0
	jr	ra
	.cfi_endproc
.LFE36:
	.size	stateGlobalGuard_conf_max_sta, .-stateGlobalGuard_conf_max_sta
	.section	.text.stateGlobalGuard_AP,"ax",@progbits
	.align	1
	.type	stateGlobalGuard_AP, @function
stateGlobalGuard_AP:
.LFB34:
	.loc 1 505 1 is_stmt 1
	.cfi_startproc
.LVL169:
	.loc 1 506 5
	.loc 1 507 5
	.loc 1 509 5
	.loc 1 505 1 is_stmt 0
	addi	sp,sp,-32
	.cfi_def_cfa_offset 32
	sw	ra,28(sp)
	sw	s0,24(sp)
	sw	s1,20(sp)
	sw	s2,16(sp)
	sw	s3,12(sp)
	.cfi_offset 1, -4
	.cfi_offset 8, -8
	.cfi_offset 9, -12
	.cfi_offset 18, -16
	.cfi_offset 19, -20
	.loc 1 509 9
	lw	s0,4(a1)
.LVL170:
	.loc 1 510 5 is_stmt 1
	.loc 1 510 8 is_stmt 0
	li	a5,8
	lbu	a4,0(s0)
	bne	a4,a5,.L64
	.loc 1 514 5 is_stmt 1
	.loc 1 514 9 is_stmt 0
	lui	a2,%hi(wifiMgmr+128)
	lui	s1,%hi(wifiMgmr+156)
	addi	a2,a2,%lo(wifiMgmr+128)
	addi	a1,s1,%lo(wifiMgmr+156)
.LVL171:
	li	a0,0
.LVL172:
	call	bl_main_if_add
.LVL173:
	.loc 1 514 8
	beq	a0,zero,.L65
	.loc 1 515 9 is_stmt 1
	lui	a1,%hi(.LANCHOR0)
	lui	a0,%hi(.LC28)
	addi	a1,a1,%lo(.LANCHOR0)
	addi	a0,a0,%lo(.LC28)
	call	printf
.LVL174:
	.loc 1 516 9
.L64:
	.loc 1 532 1 is_stmt 0
	lw	ra,28(sp)
	.cfi_remember_state
	.cfi_restore 1
	lw	s0,24(sp)
	.cfi_restore 8
.LVL175:
	lw	s1,20(sp)
	.cfi_restore 9
	lw	s2,16(sp)
	.cfi_restore 18
	lw	s3,12(sp)
	.cfi_restore 19
	li	a0,0
	addi	sp,sp,32
	.cfi_def_cfa_offset 0
	jr	ra
.LVL176:
.L65:
	.cfi_restore_state
	.loc 1 518 5 is_stmt 1
	lui	a1,%hi(netif_set_link_up)
	li	a2,0
	addi	a1,a1,%lo(netif_set_link_up)
	addi	a0,s1,%lo(wifiMgmr+156)
	call	netifapi_netif_common
.LVL177:
	.loc 1 519 1
	.loc 1 520 5
	lui	a1,%hi(dhcpd_start)
	li	a2,0
	addi	a1,a1,%lo(dhcpd_start)
	addi	a0,s1,%lo(wifiMgmr+156)
	call	netifapi_netif_common
.LVL178:
	.loc 1 522 5
	.loc 1 523 5
	.loc 1 523 56 is_stmt 0
	addi	s2,s0,17
	.loc 1 523 5
	lui	a0,%hi(.LC29)
	mv	a1,s2
	addi	a0,a0,%lo(.LC29)
	call	printf
.LVL179:
	.loc 1 524 5 is_stmt 1
	.loc 1 524 56 is_stmt 0
	addi	s3,s0,55
	.loc 1 524 5
	lui	a0,%hi(.LC30)
	mv	a1,s3
	addi	a0,a0,%lo(.LC30)
	call	printf
.LVL180:
	.loc 1 525 5 is_stmt 1
	lbu	a1,14(s0)
	lbu	a5,13(s0)
	lui	a0,%hi(.LC31)
	slli	a1,a1,8
	or	a1,a1,a5
	lbu	a5,15(s0)
	addi	a0,a0,%lo(.LC31)
	.loc 1 526 5 is_stmt 0
	lui	s1,%hi(wifiMgmr)
	.loc 1 525 5
	slli	a5,a5,16
	or	a5,a5,a1
	lbu	a1,16(s0)
	.loc 1 526 5
	addi	s1,s1,%lo(wifiMgmr)
	.loc 1 525 5
	slli	a1,a1,24
	or	a1,a1,a5
	call	printf
.LVL181:
	.loc 1 526 5 is_stmt 1
	.loc 1 526 44 is_stmt 0
	lbu	a2,14(s0)
	lbu	a5,13(s0)
	.loc 1 526 5
	lbu	a4,50(s0)
	.loc 1 526 44
	slli	a2,a2,8
	or	a2,a2,a5
	lbu	a5,15(s0)
	.loc 1 526 5
	lbu	a3,128(s1)
	mv	a1,s3
	.loc 1 526 44
	slli	a5,a5,16
	or	a5,a5,a2
	lbu	a2,16(s0)
	.loc 1 526 5
	mv	a0,s2
	.loc 1 526 44
	slli	a2,a2,24
	.loc 1 526 5
	or	a2,a2,a5
	call	bl_main_apm_start
.LVL182:
	.loc 1 527 5 is_stmt 1
	.loc 1 527 29 is_stmt 0
	li	a5,1
	sw	a5,8(s1)
	.loc 1 528 5 is_stmt 1
	call	dns_server_init
.LVL183:
	.loc 1 529 5
	li	a2,0
	li	a1,11
	li	a0,2
	call	aos_post_event
.LVL184:
	.loc 1 531 5
	.loc 1 531 11 is_stmt 0
	j	.L64
	.cfi_endproc
.LFE34:
	.size	stateGlobalGuard_AP, .-stateGlobalGuard_AP
	.section	.text.stateGlobalGuard_scan_beacon,"ax",@progbits
	.align	1
	.type	stateGlobalGuard_scan_beacon, @function
stateGlobalGuard_scan_beacon:
.LFB13:
	.loc 1 156 1 is_stmt 1
	.cfi_startproc
.LVL185:
	.loc 1 159 5
	.loc 1 160 5
	.loc 1 161 5
	.loc 1 162 5
	.loc 1 163 5
	.loc 1 164 5
	.loc 1 166 5
	.loc 1 156 1 is_stmt 0
	addi	sp,sp,-64
	.cfi_def_cfa_offset 64
	sw	ra,60(sp)
	sw	s0,56(sp)
	sw	s1,52(sp)
	sw	s2,48(sp)
	sw	s3,44(sp)
	sw	s4,40(sp)
	sw	s5,36(sp)
	sw	s6,32(sp)
	sw	s7,28(sp)
	sw	s8,24(sp)
	sw	s9,20(sp)
	sw	s10,16(sp)
	sw	s11,12(sp)
	.cfi_offset 1, -4
	.cfi_offset 8, -8
	.cfi_offset 9, -12
	.cfi_offset 18, -16
	.cfi_offset 19, -20
	.cfi_offset 20, -24
	.cfi_offset 21, -28
	.cfi_offset 22, -32
	.cfi_offset 23, -36
	.cfi_offset 24, -40
	.cfi_offset 25, -44
	.cfi_offset 26, -48
	.cfi_offset 27, -52
	.loc 1 166 9
	lw	s0,4(a1)
.LVL186:
	.loc 1 167 5 is_stmt 1
	.loc 1 168 5
	.loc 1 168 25 is_stmt 0
	lbu	a5,0(s0)
	.loc 1 168 8
	bne	a0,a5,.L88
	.loc 1 188 5 is_stmt 1
	.loc 1 188 33 is_stmt 0
	lui	a0,%hi(wifiMgmr)
.LVL187:
	addi	a5,a0,%lo(wifiMgmr)
	li	a3,4096
	add	a5,a5,a3
	.loc 1 188 13
	lbu	a4,59(s0)
	.loc 1 188 8
	lw	a5,1988(a5)
	lui	s6,%hi(wifiMgmr+4096)
	addi	s2,a0,%lo(wifiMgmr)
	addi	s6,s6,%lo(wifiMgmr+4096)
	bgt	a4,a5,.L88
	.loc 1 188 47 discriminator 1
	beq	a4,zero,.L88
	.loc 1 191 5 is_stmt 1
	.loc 1 191 8 is_stmt 0
	lbu	a5,13(s0)
	bne	a5,zero,.L71
.LVL188:
.LBB20:
.LBB21:
	.loc 1 90 5 is_stmt 1
	.loc 1 90 31 is_stmt 0
	lw	a5,1996(s6)
	andi	a5,a5,1
.LBE21:
.LBE20:
	.loc 1 191 28
	beq	a5,zero,.L88
.L71:
	.loc 1 196 5 is_stmt 1
	.loc 1 196 15 is_stmt 0
	call	xTaskGetTickCount
.LVL189:
	mv	s5,a0
.LVL190:
	.loc 1 197 5 is_stmt 1
	mv	s4,s2
	.loc 1 162 14 is_stmt 0
	li	s8,0
	.loc 1 160 14
	li	s7,-1
	.loc 1 159 24
	li	s1,-1
	.loc 1 159 12
	li	s9,-1
	.loc 1 197 12
	li	s3,0
	.loc 1 213 63
	addi	s10,s0,13
	addi	s11,s0,53
.LVL191:
.L77:
	.loc 1 198 9 is_stmt 1
	.loc 1 198 34 is_stmt 0
	lbu	a3,682(s4)
	.loc 1 198 11
	lw	a4,1988(s6)
	ble	a3,a4,.L72
	.loc 1 199 13 is_stmt 1
	li	a2,60
	li	a1,0
	addi	a0,s4,636
	call	memset
.LVL192:
	.loc 1 200 13
	.loc 1 200 44 is_stmt 0
	sb	zero,688(s4)
	.loc 1 203 9 is_stmt 1
.L81:
	mv	s9,s3
.LVL193:
.L73:
	.loc 1 197 82 is_stmt 0 discriminator 2
	addi	s3,s3,1
.LVL194:
	.loc 1 197 5 discriminator 2
	li	a5,50
	addi	s4,s4,60
	bne	s3,a5,.L77
	.loc 1 238 5 is_stmt 1
	.loc 1 240 9
	.loc 1 240 35 is_stmt 0
	li	a4,-1
	bne	s9,a4,.L85
.LVL195:
	.loc 1 241 9 is_stmt 1 discriminator 4
	.loc 1 241 12 is_stmt 0 discriminator 4
	beq	s1,s9,.L88
.LVL196:
.L79:
	.loc 1 242 13 is_stmt 1
	li	a0,60
	mul	s1,s1,a0
.LVL197:
	li	a2,60
	li	a1,0
	.loc 1 242 20 is_stmt 0
	addi	s4,s1,636
	add	s4,s4,s2
	.loc 1 242 13
	mv	a0,s4
	call	memset
.LVL198:
	.loc 1 243 13 is_stmt 1
	li	a2,32
	addi	a1,s0,13
	mv	a0,s4
	.loc 1 244 49 is_stmt 0
	add	s3,s2,s1
	.loc 1 243 13
	call	strncpy
.LVL199:
	.loc 1 244 13 is_stmt 1
	.loc 1 245 47 is_stmt 0
	mv	a0,s4
	.loc 1 244 49
	sb	zero,668(s3)
	.loc 1 245 13 is_stmt 1
	.loc 1 245 47 is_stmt 0
	call	strlen
.LVL200:
	.loc 1 246 42
	addi	s1,s1,676
	.loc 1 245 45
	sw	a0,672(s3)
	.loc 1 246 13 is_stmt 1
	li	a2,6
	addi	a1,s0,53
	add	a0,s2,s1
	call	memcpy
.LVL201:
	.loc 1 247 13
	.loc 1 247 50 is_stmt 0
	lbu	a5,59(s0)
	.loc 1 247 44
	sb	a5,682(s3)
	.loc 1 248 13 is_stmt 1
	.loc 1 248 47 is_stmt 0
	lb	a5,60(s0)
	.loc 1 249 55
	sw	s5,692(s3)
	.loc 1 248 41
	sb	a5,683(s3)
	.loc 1 249 13 is_stmt 1
	.loc 1 250 13
	.loc 1 250 47 is_stmt 0
	lbu	a5,63(s0)
	.loc 1 250 41
	sb	a5,686(s3)
	.loc 1 251 13 is_stmt 1
	.loc 1 251 49 is_stmt 0
	lbu	a5,64(s0)
	.loc 1 251 43
	sb	a5,687(s3)
	.loc 1 252 13 is_stmt 1
	.loc 1 252 44 is_stmt 0
	li	a5,1
	sb	a5,688(s3)
	j	.L88
.LVL202:
.L72:
	.loc 1 203 9 is_stmt 1
	.loc 1 203 12 is_stmt 0
	lbu	a4,688(s4)
	beq	a4,zero,.L81
	.loc 1 205 13 is_stmt 1
	lw	a4,692(s4)
	.loc 1 205 16 is_stmt 0
	beq	s8,zero,.L82
	.loc 1 206 69 discriminator 1
	sub	a3,a4,s7
	.loc 1 205 39 discriminator 1
	bge	a3,zero,.L74
.L82:
	.loc 1 208 26
	mv	s7,a4
.LVL203:
	mv	s1,s3
.LVL204:
.L74:
	.loc 1 213 13 is_stmt 1
	.loc 1 213 22 is_stmt 0
	li	a2,6
	mv	a1,s11
	addi	a0,s4,676
	call	memcmp
.LVL205:
	li	s8,1
	.loc 1 213 16
	bne	a0,zero,.L73
	.loc 1 214 26 discriminator 1
	addi	a1,s4,636
	mv	a0,s10
	call	strcmp
.LVL206:
	.loc 1 213 93 discriminator 1
	bne	a0,zero,.L73
	.loc 1 217 17 is_stmt 1
	.loc 1 217 57 is_stmt 0
	li	s1,60
.LVL207:
	mul	s1,s3,s1
	.loc 1 217 20
	lb	a4,60(s0)
	.loc 1 217 57
	add	s1,s2,s1
	.loc 1 217 20
	lb	a5,683(s1)
	blt	a4,a5,.L75
.L76:
	.loc 1 224 21 is_stmt 1
	.loc 1 224 52 is_stmt 0
	li	a0,60
	mul	a0,s3,a0
	.loc 1 224 58
	lbu	a5,59(s0)
	.loc 1 224 52
	add	a0,s2,a0
	sb	a5,682(a0)
	.loc 1 225 21 is_stmt 1
	.loc 1 225 55 is_stmt 0
	lb	a5,60(s0)
	.loc 1 225 49
	sb	a5,683(a0)
	.loc 1 226 21 is_stmt 1
	.loc 1 226 58 is_stmt 0
	lb	a5,61(s0)
	.loc 1 226 52
	sb	a5,684(a0)
	.loc 1 227 21 is_stmt 1
	.loc 1 227 58 is_stmt 0
	lb	a5,62(s0)
	.loc 1 228 63
	sw	s5,692(a0)
	.loc 1 227 52
	sb	a5,685(a0)
	.loc 1 228 21 is_stmt 1
	.loc 1 229 21
	.loc 1 229 55 is_stmt 0
	lbu	a5,63(s0)
	.loc 1 229 49
	sb	a5,686(a0)
	.loc 1 230 21 is_stmt 1
	.loc 1 230 57 is_stmt 0
	lbu	a5,64(s0)
	.loc 1 230 51
	sb	a5,687(a0)
.LVL208:
.L88:
	.loc 1 260 1
	lw	ra,60(sp)
	.cfi_remember_state
	.cfi_restore 1
	lw	s0,56(sp)
	.cfi_restore 8
.LVL209:
	lw	s1,52(sp)
	.cfi_restore 9
	lw	s2,48(sp)
	.cfi_restore 18
	lw	s3,44(sp)
	.cfi_restore 19
	lw	s4,40(sp)
	.cfi_restore 20
	lw	s5,36(sp)
	.cfi_restore 21
	lw	s6,32(sp)
	.cfi_restore 22
	lw	s7,28(sp)
	.cfi_restore 23
	lw	s8,24(sp)
	.cfi_restore 24
	lw	s9,20(sp)
	.cfi_restore 25
	lw	s10,16(sp)
	.cfi_restore 26
	lw	s11,12(sp)
	.cfi_restore 27
	li	a0,0
	addi	sp,sp,64
	.cfi_def_cfa_offset 0
	jr	ra
.LVL210:
.L75:
	.cfi_restore_state
	.loc 1 218 31 discriminator 1
	call	xTaskGetTickCount
.LVL211:
	.loc 1 218 51 discriminator 1
	lw	a5,692(s1)
	sub	a0,a0,a5
	.loc 1 217 64 discriminator 1
	li	a5,4096
	addi	a5,a5,-1097
	ble	a0,a5,.L88
	j	.L76
.LVL212:
.L85:
	mv	s1,s9
.LVL213:
	j	.L79
	.cfi_endproc
.LFE13:
	.size	stateGlobalGuard_scan_beacon, .-stateGlobalGuard_scan_beacon
	.section	.text.__reload_tsen,"ax",@progbits
	.align	1
	.type	__reload_tsen, @function
__reload_tsen:
.LFB54:
	.loc 1 941 1 is_stmt 1
	.cfi_startproc
.LVL214:
	.loc 1 942 5
	.loc 1 941 1 is_stmt 0
	addi	sp,sp,-16
	.cfi_def_cfa_offset 16
	sw	ra,12(sp)
	.cfi_offset 1, -4
	.loc 1 942 27
	call	pvTimerGetTimerID
.LVL215:
	.loc 1 944 5 is_stmt 1
	.loc 1 946 5
	.loc 1 947 1 is_stmt 0
	lw	ra,12(sp)
	.cfi_restore 1
	addi	sp,sp,16
	.cfi_def_cfa_offset 0
	.loc 1 946 5
	tail	wifi_mgmr_api_fw_tsen_reload
.LVL216:
	.cfi_endproc
.LFE54:
	.size	__reload_tsen, .-__reload_tsen
	.section	.text.event_cb_wifi_event_mgmr,"ax",@progbits
	.align	1
	.type	event_cb_wifi_event_mgmr, @function
event_cb_wifi_event_mgmr:
.LFB74:
	.loc 1 1346 1 is_stmt 1
	.cfi_startproc
.LVL217:
	.loc 1 1347 5
	lhu	a4,6(a0)
	li	a5,20
	bne	a4,a5,.L99
.LVL218:
.LBB24:
.LBB25:
	.loc 1 1350 13
	lui	a1,%hi(trigger_auto_denoise)
.LVL219:
	li	a2,0
	addi	a1,a1,%lo(trigger_auto_denoise)
	li	a0,85
.LVL220:
	tail	aos_post_delayed_action
.LVL221:
.L99:
.LBE25:
.LBE24:
	.loc 1 1358 1 is_stmt 0
	ret
	.cfi_endproc
.LFE74:
	.size	event_cb_wifi_event_mgmr, .-event_cb_wifi_event_mgmr
	.section	.text.trigger_auto_denoise,"ax",@progbits
	.align	1
	.type	trigger_auto_denoise, @function
trigger_auto_denoise:
.LFB37:
	.loc 1 578 1 is_stmt 1
	.cfi_startproc
.LVL222:
	.loc 1 580 5
	.loc 1 580 8 is_stmt 0
	lui	a5,%hi(.LANCHOR1)
	lw	a5,%lo(.LANCHOR1)(a5)
	beq	a5,zero,.L101
.LVL223:
.LBB30:
.LBB31:
	.loc 1 581 1 is_stmt 1
	.loc 1 582 9
.LBE31:
.LBE30:
	.loc 1 578 1 is_stmt 0
	addi	sp,sp,-16
	.cfi_def_cfa_offset 16
	sw	ra,12(sp)
	.cfi_offset 1, -4
.LBB36:
.LBB32:
	.loc 1 582 9
	call	wifi_mgmr_api_denoise_enable
.LVL224:
	.loc 1 583 9 is_stmt 1
.LBE32:
.LBE36:
	.loc 1 585 1 is_stmt 0
	lw	ra,12(sp)
	.cfi_restore 1
.LBB37:
.LBB33:
	.loc 1 583 9
	lui	a1,%hi(trigger_auto_denoise)
.LBE33:
.LBE37:
	.loc 1 585 1
.LBB38:
.LBB34:
	.loc 1 583 9
	li	a2,0
	addi	a1,a1,%lo(trigger_auto_denoise)
	li	a0,85
.LBE34:
.LBE38:
	.loc 1 585 1
	addi	sp,sp,16
	.cfi_def_cfa_offset 0
.LBB39:
.LBB35:
	.loc 1 583 9
	tail	aos_post_delayed_action
.LVL225:
.L101:
	ret
.LBE35:
.LBE39:
	.cfi_endproc
.LFE37:
	.size	trigger_auto_denoise, .-trigger_auto_denoise
	.section	.text.stateDisconnect_exit,"ax",@progbits
	.align	1
	.type	stateDisconnect_exit, @function
stateDisconnect_exit:
.LFB72:
	.loc 1 1299 1 is_stmt 1
	.cfi_startproc
.LVL226:
	.loc 1 1300 5
	.loc 1 1302 5
	.loc 1 1299 1 is_stmt 0
	addi	sp,sp,-16
	.cfi_def_cfa_offset 16
	sw	s0,8(sp)
	.loc 1 1302 5
	mv	a1,a0
.LVL227:
	.cfi_offset 8, -8
	.loc 1 1299 1
	mv	s0,a0
	.loc 1 1302 5
	lui	a0,%hi(.LC1)
.LVL228:
	addi	a0,a0,%lo(.LC1)
	.loc 1 1299 1
	sw	ra,12(sp)
	sw	s1,4(sp)
	.cfi_offset 1, -4
	.cfi_offset 9, -12
	.loc 1 1302 5
	call	printf
.LVL229:
	.loc 1 1303 5 is_stmt 1
	.loc 1 1303 8 is_stmt 0
	lbu	a5,76(s0)
	beq	a5,zero,.L107
.LVL230:
.LBB42:
.LBB43:
	.loc 1 1304 9 is_stmt 1
	lui	a0,%hi(.LC32)
	addi	a0,a0,%lo(.LC32)
	call	printf
.LVL231:
	.loc 1 1305 9
	.loc 1 1305 14
	.loc 1 1305 53 is_stmt 0
	addi	s1,s0,32
	.loc 1 1305 14
	li	a4,0
	li	a3,0
	li	a2,0
	li	a1,3
	mv	a0,s1
	call	xTimerGenericCommand
.LVL232:
	.loc 1 1305 19 is_stmt 1
	mv	a0,s1
	li	a4,0
	li	a3,0
	li	a2,0
	li	a1,5
	call	xTimerGenericCommand
.LVL233:
	.loc 1 1306 9
.LBE43:
.LBE42:
	.loc 1 1310 1 is_stmt 0
	lw	ra,12(sp)
	.cfi_remember_state
	.cfi_restore 1
.LBB45:
.LBB44:
	.loc 1 1306 45
	sb	zero,76(s0)
.LBE44:
.LBE45:
	.loc 1 1310 1
	lw	s0,8(sp)
	.cfi_restore 8
.LVL234:
	lw	s1,4(sp)
	.cfi_restore 9
.LVL235:
	addi	sp,sp,16
	.cfi_def_cfa_offset 0
	jr	ra
.LVL236:
.L107:
	.cfi_restore_state
	.loc 1 1308 9 is_stmt 1
	.loc 1 1310 1 is_stmt 0
	lw	s0,8(sp)
	.cfi_restore 8
.LVL237:
	lw	ra,12(sp)
	.cfi_restore 1
	lw	s1,4(sp)
	.cfi_restore 9
	.loc 1 1308 9
	lui	a0,%hi(.LC33)
	.loc 1 1310 1
	.loc 1 1308 9
	addi	a0,a0,%lo(.LC33)
	.loc 1 1310 1
	addi	sp,sp,16
	.cfi_def_cfa_offset 0
	.loc 1 1308 9
	tail	printf
.LVL238:
	.cfi_endproc
.LFE72:
	.size	stateDisconnect_exit, .-stateDisconnect_exit
	.section	.text.disconnect_retry,"ax",@progbits
	.align	1
	.type	disconnect_retry, @function
disconnect_retry:
.LFB70:
	.loc 1 1247 1 is_stmt 1
	.cfi_startproc
.LVL239:
	.loc 1 1248 5
	.loc 1 1247 1 is_stmt 0
	addi	sp,sp,-16
	.cfi_def_cfa_offset 16
	sw	ra,12(sp)
	.cfi_offset 1, -4
	.loc 1 1248 35
	call	pvTimerGetTimerID
.LVL240:
	.loc 1 1253 5 is_stmt 1
	.loc 1 1253 9 is_stmt 0
	addi	a1,a0,77
	lui	a0,%hi(wifiMgmr)
.LVL241:
	addi	a0,a0,%lo(wifiMgmr)
	call	wifi_mgmr_profile_get
.LVL242:
	.loc 1 1253 8
	beq	a0,zero,.L112
	.loc 1 1254 9 is_stmt 1
	.loc 1 1259 1 is_stmt 0
	lw	ra,12(sp)
	.cfi_remember_state
	.cfi_restore 1
	.loc 1 1254 9
	lui	a0,%hi(.LC34)
	.loc 1 1259 1
	.loc 1 1254 9
	addi	a0,a0,%lo(.LC34)
	.loc 1 1259 1
	addi	sp,sp,16
	.cfi_def_cfa_offset 0
	.loc 1 1254 9
	tail	printf
.LVL243:
.L112:
	.cfi_restore_state
.LBB48:
.LBB49:
	.loc 1 1256 9 is_stmt 1
	lui	a0,%hi(.LC35)
	addi	a0,a0,%lo(.LC35)
	call	printf
.LVL244:
	.loc 1 1257 9
.LBE49:
.LBE48:
	.loc 1 1259 1 is_stmt 0
	lw	ra,12(sp)
	.cfi_restore 1
	addi	sp,sp,16
	.cfi_def_cfa_offset 0
.LBB51:
.LBB50:
	.loc 1 1257 9
	tail	wifi_mgmr_api_reconnect
.LVL245:
.LBE50:
.LBE51:
	.cfi_endproc
.LFE70:
	.size	disconnect_retry, .-disconnect_retry
	.section	.text.stateGlobalGuard_fw_disconnect,"ax",@progbits
	.align	1
	.type	stateGlobalGuard_fw_disconnect, @function
stateGlobalGuard_fw_disconnect:
.LFB16:
	.loc 1 303 1 is_stmt 1
	.cfi_startproc
.LVL246:
	.loc 1 304 5
	.loc 1 306 5
	.loc 1 307 5
	.loc 1 307 45 is_stmt 0
	lw	a5,4(a1)
	.loc 1 307 8
	lbu	a4,0(a5)
	li	a5,15
	bne	a4,a5,.L117
.LVL247:
.LBB54:
.LBB55:
	.loc 1 308 9 is_stmt 1
	lui	a0,%hi(.LC36)
.LVL248:
.LBE55:
.LBE54:
	.loc 1 303 1 is_stmt 0
	addi	sp,sp,-16
	.cfi_def_cfa_offset 16
.LBB58:
.LBB56:
	.loc 1 308 9
	addi	a0,a0,%lo(.LC36)
.LBE56:
.LBE58:
	.loc 1 303 1
	sw	ra,12(sp)
.LVL249:
	.cfi_offset 1, -4
.LBB59:
.LBB57:
	.loc 1 308 9
	call	printf
.LVL250:
	.loc 1 309 9 is_stmt 1
	call	bl_main_disconnect
.LVL251:
.LBE57:
.LBE59:
	.loc 1 312 5
	.loc 1 313 1 is_stmt 0
	lw	ra,12(sp)
	.cfi_restore 1
	li	a0,0
	addi	sp,sp,16
	.cfi_def_cfa_offset 0
	jr	ra
.LVL252:
.L117:
	.loc 1 312 5 is_stmt 1
	.loc 1 313 1 is_stmt 0
	li	a0,0
.LVL253:
	ret
	.cfi_endproc
.LFE16:
	.size	stateGlobalGuard_fw_disconnect, .-stateGlobalGuard_fw_disconnect
	.section	.text.stateConnectedIPYes_exit,"ax",@progbits
	.align	1
	.type	stateConnectedIPYes_exit, @function
stateConnectedIPYes_exit:
.LFB66:
	.loc 1 1140 1 is_stmt 1
	.cfi_startproc
.LVL254:
	.loc 1 1141 4
	.loc 1 1143 4
	.loc 1 1144 4 is_stmt 0
	mv	a1,a0
.LVL255:
	lui	a0,%hi(.LC1)
.LVL256:
	.loc 1 1140 1
	addi	sp,sp,-32
	.cfi_def_cfa_offset 32
	.loc 1 1144 4
	addi	a0,a0,%lo(.LC1)
	.loc 1 1140 1
	sw	ra,28(sp)
	sw	s0,24(sp)
	.cfi_offset 1, -4
	.cfi_offset 8, -8
	.loc 1 1143 26
	sw	zero,12(sp)
	.loc 1 1144 4 is_stmt 1
	call	printf
.LVL257:
	.loc 1 1146 4
	lui	s0,%hi(wifiMgmr+44)
	lui	a1,%hi(dhcp_stop)
	li	a2,0
	addi	a1,a1,%lo(dhcp_stop)
	addi	a0,s0,%lo(wifiMgmr+44)
	call	netifapi_netif_common
.LVL258:
	.loc 1 1147 4
	addi	a3,sp,12
	mv	a2,a3
	mv	a1,a3
	addi	a0,s0,%lo(wifiMgmr+44)
	call	netifapi_netif_set_addr
.LVL259:
	.loc 1 1150 4
	.loc 1 1150 8 is_stmt 0
	lui	a5,%hi(.LANCHOR1)
	addi	a5,a5,%lo(.LANCHOR1)
	.loc 1 1150 7
	lw	a4,0(a5)
	beq	a4,zero,.L120
.LVL260:
.LBB62:
.LBB63:
	.loc 1 1151 8 is_stmt 1
	.loc 1 1152 8 is_stmt 0
	li	a0,0
	.loc 1 1151 20
	sw	zero,0(a5)
	.loc 1 1152 8 is_stmt 1
	call	bl_main_denoise
.LVL261:
.L120:
.LBE63:
.LBE62:
	.loc 1 1154 1 is_stmt 0
	lw	ra,28(sp)
	.cfi_restore 1
	lw	s0,24(sp)
	.cfi_restore 8
	addi	sp,sp,32
	.cfi_def_cfa_offset 0
	jr	ra
	.cfi_endproc
.LFE66:
	.size	stateConnectedIPYes_exit, .-stateConnectedIPYes_exit
	.section	.text.stateGlobalGuard_denoise,"ax",@progbits
	.align	1
	.type	stateGlobalGuard_denoise, @function
stateGlobalGuard_denoise:
.LFB38:
	.loc 1 588 1 is_stmt 1
	.cfi_startproc
.LVL262:
	.loc 1 589 5
	.loc 1 591 5
	.loc 1 591 9 is_stmt 0
	lw	a3,4(a1)
.LVL263:
	.loc 1 592 5 is_stmt 1
	.loc 1 592 8 is_stmt 0
	li	a5,12
	lbu	a4,0(a3)
	bne	a4,a5,.L131
	.loc 1 596 5 is_stmt 1
	.loc 1 588 1 is_stmt 0
	addi	sp,sp,-16
	.cfi_def_cfa_offset 16
	sw	ra,12(sp)
	.cfi_offset 1, -4
	.loc 1 596 12
	lbu	a4,2(a3)
	lbu	a5,1(a3)
	slli	a4,a4,8
	or	a4,a4,a5
	lbu	a5,3(a3)
	slli	a5,a5,16
	or	a4,a5,a4
	lbu	a5,4(a3)
	slli	a5,a5,24
	or	a5,a5,a4
	.loc 1 596 8
	beq	a5,zero,.L128
	.loc 1 599 9 is_stmt 1
	.loc 1 599 12 is_stmt 0
	lui	a4,%hi(wifiMgmr+4096)
	addi	a4,a4,%lo(wifiMgmr+4096)
	lw	a4,1816(a4)
	lui	a5,%hi(.LANCHOR2)
	addi	a5,a5,%lo(.LANCHOR2)
	bne	a4,a5,.L127
	.loc 1 601 13 is_stmt 1
	.loc 1 601 17 is_stmt 0
	lui	a5,%hi(.LANCHOR1)
	addi	a5,a5,%lo(.LANCHOR1)
	.loc 1 601 16
	lw	a4,0(a5)
	.loc 1 603 17
	li	a0,3
.LVL264:
	.loc 1 601 16
	bne	a4,zero,.L134
.LVL265:
.LBB66:
.LBB67:
	.loc 1 606 17 is_stmt 1
	.loc 1 606 29 is_stmt 0
	li	a4,1
	.loc 1 607 17
	li	a0,1
	.loc 1 606 29
	sw	a4,0(a5)
	.loc 1 607 17 is_stmt 1
	call	bl_main_denoise
.LVL266:
	.loc 1 608 17
	li	a2,0
	li	a1,20
	li	a0,2
	call	aos_post_event
.LVL267:
.L127:
.LBE67:
.LBE66:
	.loc 1 618 1 is_stmt 0
	lw	ra,12(sp)
	.cfi_remember_state
	.cfi_restore 1
	li	a0,0
	addi	sp,sp,16
	.cfi_def_cfa_offset 0
	jr	ra
.LVL268:
.L128:
	.cfi_restore_state
	.loc 1 613 9 is_stmt 1
	.loc 1 613 21 is_stmt 0
	lui	a5,%hi(.LANCHOR1)
	sw	zero,%lo(.LANCHOR1)(a5)
	.loc 1 614 9 is_stmt 1
	li	a0,0
.LVL269:
.L134:
	call	bl_main_denoise
.LVL270:
	j	.L127
.LVL271:
.L131:
	.cfi_def_cfa_offset 0
	.cfi_restore 1
	.loc 1 618 1 is_stmt 0
	li	a0,0
.LVL272:
	ret
	.cfi_endproc
.LFE38:
	.size	stateGlobalGuard_denoise, .-stateGlobalGuard_denoise
	.section	.text.stateIdleGuard_connect,"ax",@progbits
	.align	1
	.type	stateIdleGuard_connect, @function
stateIdleGuard_connect:
.LFB39:
	.loc 1 675 1 is_stmt 1
	.cfi_startproc
.LVL273:
	.loc 1 676 5
	.loc 1 678 5
	.loc 1 679 5
	.loc 1 679 25 is_stmt 0
	lw	a5,4(a1)
	lbu	a5,0(a5)
	.loc 1 679 8
	bne	a0,a5,.L137
	.loc 1 682 5 is_stmt 1
	.loc 1 682 9 is_stmt 0
	lui	a2,%hi(wifiMgmr+16)
	lui	a1,%hi(wifiMgmr+44)
.LVL274:
	.loc 1 675 1
	addi	sp,sp,-16
	.cfi_def_cfa_offset 16
	.loc 1 682 9
	addi	a2,a2,%lo(wifiMgmr+16)
	addi	a1,a1,%lo(wifiMgmr+44)
	li	a0,1
.LVL275:
	.loc 1 675 1
	sw	ra,12(sp)
.LVL276:
	.cfi_offset 1, -4
	.loc 1 682 9
	call	bl_main_if_add
.LVL277:
	.loc 1 686 11
	li	a5,1
	.loc 1 682 8
	beq	a0,zero,.L136
.LVL278:
.LBB70:
.LBB71:
	.loc 1 683 9 is_stmt 1
	lui	a1,%hi(.LANCHOR3)
	lui	a0,%hi(.LC37)
	addi	a1,a1,%lo(.LANCHOR3)
	addi	a0,a0,%lo(.LC37)
	call	printf
.LVL279:
	.loc 1 684 9
	.loc 1 683 9 is_stmt 0
	li	a5,0
.L136:
.LBE71:
.LBE70:
	.loc 1 687 1
	lw	ra,12(sp)
	.cfi_restore 1
	mv	a0,a5
	addi	sp,sp,16
	.cfi_def_cfa_offset 0
	jr	ra
.LVL280:
.L137:
	.loc 1 680 15
	li	a5,0
	.loc 1 687 1
	mv	a0,a5
.LVL281:
	ret
	.cfi_endproc
.LFE39:
	.size	stateIdleGuard_connect, .-stateIdleGuard_connect
	.section	.text.stateIfaceDownGuard_phyup,"ax",@progbits
	.align	1
	.type	stateIfaceDownGuard_phyup, @function
stateIfaceDownGuard_phyup:
.LFB45:
	.loc 1 784 1 is_stmt 1
	.cfi_startproc
.LVL282:
	.loc 1 785 5
	.loc 1 786 5
	.loc 1 788 5
	.loc 1 789 5
	.loc 1 784 1 is_stmt 0
	addi	sp,sp,-16
	.cfi_def_cfa_offset 16
	sw	ra,12(sp)
.LVL283:
	.cfi_offset 1, -4
	.loc 1 789 25
	lw	a5,4(a1)
	lbu	a5,0(a5)
	.loc 1 789 8
	beq	a0,a5,.L145
	.loc 1 790 9 is_stmt 1
	lui	a0,%hi(.LC38)
.LVL284:
	addi	a0,a0,%lo(.LC38)
	call	printf
.LVL285:
	.loc 1 791 9
	.loc 1 791 15 is_stmt 0
	li	a0,0
.L146:
	.loc 1 800 1
	lw	ra,12(sp)
	.cfi_remember_state
	.cfi_restore 1
	addi	sp,sp,16
	.cfi_def_cfa_offset 0
	jr	ra
.LVL286:
.L145:
	.cfi_restore_state
.LBB74:
.LBB75:
	.loc 1 795 5 is_stmt 1
	.loc 1 795 13 is_stmt 0
	call	bl_main_phy_up
.LVL287:
	.loc 1 796 5 is_stmt 1
	.loc 1 796 8 is_stmt 0
	seqz	a0,a0
.LVL288:
	j	.L146
.LBE75:
.LBE74:
	.cfi_endproc
.LFE45:
	.size	stateIfaceDownGuard_phyup, .-stateIfaceDownGuard_phyup
	.section	.text.stateSnifferGuard_raw_send,"ax",@progbits
	.align	1
	.type	stateSnifferGuard_raw_send, @function
stateSnifferGuard_raw_send:
.LFB25:
	.loc 1 416 1 is_stmt 1
	.cfi_startproc
.LVL289:
	.loc 1 417 5
	.loc 1 418 5
	.loc 1 419 5
	.loc 1 421 5
	.loc 1 421 35 is_stmt 0
	lui	a5,%hi(wifiMgmr+4096)
	addi	a5,a5,%lo(wifiMgmr+4096)
	lw	a4,1816(a5)
	.loc 1 421 8
	lui	a5,%hi(.LANCHOR4)
	addi	a5,a5,%lo(.LANCHOR4)
	beq	a4,a5,.L151
	.loc 1 421 49 discriminator 1
	lui	a5,%hi(.LANCHOR5)
	addi	a5,a5,%lo(.LANCHOR5)
	beq	a4,a5,.L151
.LVL290:
.LBB78:
.LBB79:
	.loc 1 426 5 is_stmt 1
	.loc 1 426 9 is_stmt 0
	lw	a5,4(a1)
.LVL291:
	.loc 1 427 5 is_stmt 1
	.loc 1 427 8 is_stmt 0
	li	a4,21
	lbu	a3,0(a5)
	bne	a3,a4,.L151
	.loc 1 428 9 is_stmt 1
.LVL292:
	.loc 1 429 9
	.loc 1 430 9
	.loc 1 431 9
.LBE79:
.LBE78:
	.loc 1 416 1 is_stmt 0
	addi	sp,sp,-16
	.cfi_def_cfa_offset 16
	sw	ra,12(sp)
.LVL293:
	.cfi_offset 1, -4
.LBB81:
.LBB80:
	.loc 1 429 23
	lbu	a1,6(a5)
.LVL294:
	.loc 1 428 13
	lbu	a0,2(a5)
.LVL295:
	.loc 1 429 23
	lbu	a3,5(a5)
	.loc 1 428 13
	lbu	a4,1(a5)
	.loc 1 429 23
	slli	a1,a1,8
	.loc 1 428 13
	slli	a0,a0,8
	.loc 1 429 23
	or	a1,a1,a3
	.loc 1 428 13
	or	a0,a0,a4
	.loc 1 429 23
	lbu	a3,7(a5)
	.loc 1 428 13
	lbu	a4,3(a5)
	.loc 1 429 23
	slli	a3,a3,16
	.loc 1 428 13
	slli	a4,a4,16
	.loc 1 429 23
	or	a3,a3,a1
	.loc 1 428 13
	or	a4,a4,a0
	.loc 1 429 23
	lbu	a1,8(a5)
	.loc 1 428 13
	lbu	a0,4(a5)
	.loc 1 429 23
	slli	a1,a1,24
	.loc 1 428 13
	slli	a0,a0,24
	.loc 1 431 9
	or	a1,a1,a3
	or	a0,a0,a4
	call	bl_main_raw_send
.LVL296:
.LBE80:
.LBE81:
	.loc 1 435 1
	lw	ra,12(sp)
	.cfi_restore 1
	li	a0,0
	addi	sp,sp,16
	.cfi_def_cfa_offset 0
	jr	ra
.LVL297:
.L151:
	li	a0,0
.LVL298:
	ret
	.cfi_endproc
.LFE25:
	.size	stateSnifferGuard_raw_send, .-stateSnifferGuard_raw_send
	.section	.text.stateGlobalGuard_stop,"ax",@progbits
	.align	1
	.type	stateGlobalGuard_stop, @function
stateGlobalGuard_stop:
.LFB35:
	.loc 1 535 1 is_stmt 1
	.cfi_startproc
.LVL299:
	.loc 1 536 5
	.loc 1 538 5
	.loc 1 539 5
	.loc 1 539 43 is_stmt 0
	lw	a5,4(a1)
	.loc 1 539 8
	lbu	a4,0(a5)
	li	a5,9
	bne	a4,a5,.L157
.LVL300:
.LBB84:
.LBB85:
	.loc 1 543 5 is_stmt 1
.LBE85:
.LBE84:
	.loc 1 535 1 is_stmt 0
	addi	sp,sp,-16
	.cfi_def_cfa_offset 16
.LBB89:
.LBB86:
	.loc 1 543 5
	lui	a0,%hi(.LC39)
.LVL301:
.LBE86:
.LBE89:
	.loc 1 535 1
	sw	s0,8(sp)
.LVL302:
.LBB90:
.LBB87:
	.loc 1 543 5
	addi	a0,a0,%lo(.LC39)
	.cfi_offset 8, -8
	.loc 1 544 5
	lui	s0,%hi(wifiMgmr)
.LBE87:
.LBE90:
	.loc 1 535 1
	sw	ra,12(sp)
	sw	s1,4(sp)
	.cfi_offset 1, -4
	.cfi_offset 9, -12
.LBB91:
.LBB88:
	.loc 1 544 5
	addi	s0,s0,%lo(wifiMgmr)
	.loc 1 543 5
	call	printf
.LVL303:
	.loc 1 544 5 is_stmt 1
	lbu	a0,128(s0)
	.loc 1 551 5 is_stmt 0
	lui	s1,%hi(wifiMgmr+156)
	.loc 1 544 5
	call	bl_main_apm_stop
.LVL304:
	.loc 1 545 5 is_stmt 1
	lui	a0,%hi(.LC40)
	addi	a0,a0,%lo(.LC40)
	call	printf
.LVL305:
	.loc 1 546 5
	call	bl_main_apm_remove_all_sta
.LVL306:
	.loc 1 547 5
	lui	a0,%hi(.LC41)
	addi	a0,a0,%lo(.LC41)
	call	printf
.LVL307:
	.loc 1 548 5
	lbu	a0,128(s0)
	call	bl_main_if_remove
.LVL308:
	.loc 1 549 5
	lui	a0,%hi(.LC42)
	addi	a0,a0,%lo(.LC42)
	call	printf
.LVL309:
	.loc 1 550 1
	.loc 1 551 5
	lui	a2,%hi(dhcp_server_stop)
	addi	a2,a2,%lo(dhcp_server_stop)
	li	a1,0
	addi	a0,s1,%lo(wifiMgmr+156)
	call	netifapi_netif_common
.LVL310:
	.loc 1 552 5
	lui	a0,%hi(.LC43)
	addi	a0,a0,%lo(.LC43)
	call	printf
.LVL311:
	.loc 1 553 5
	lui	a1,%hi(netif_remove)
	li	a2,0
	addi	a1,a1,%lo(netif_remove)
	addi	a0,s1,%lo(wifiMgmr+156)
	call	netifapi_netif_common
.LVL312:
	.loc 1 554 5
	.loc 1 555 5 is_stmt 0
	li	a2,0
	li	a1,12
	li	a0,2
	.loc 1 554 29
	sw	zero,8(s0)
	.loc 1 555 5 is_stmt 1
	call	aos_post_event
.LVL313:
	.loc 1 557 5
.LBE88:
.LBE91:
	.loc 1 558 1 is_stmt 0
	lw	ra,12(sp)
	.cfi_restore 1
	lw	s0,8(sp)
	.cfi_restore 8
	lw	s1,4(sp)
	.cfi_restore 9
	li	a0,0
	addi	sp,sp,16
	.cfi_def_cfa_offset 0
	jr	ra
.LVL314:
.L157:
	li	a0,0
.LVL315:
	ret
	.cfi_endproc
.LFE35:
	.size	stateGlobalGuard_stop, .-stateGlobalGuard_stop
	.section	.text.stateGlobalGuard_enable_autoreconnect,"ax",@progbits
	.align	1
	.type	stateGlobalGuard_enable_autoreconnect, @function
stateGlobalGuard_enable_autoreconnect:
.LFB15:
	.loc 1 286 1 is_stmt 1
	.cfi_startproc
.LVL316:
	.loc 1 287 5
	.loc 1 289 5
	.loc 1 290 5
	.loc 1 290 25 is_stmt 0
	lw	a5,4(a1)
	lbu	a5,0(a5)
	.loc 1 290 8
	bne	a0,a5,.L163
.LVL317:
.LBB94:
.LBB95:
	.loc 1 295 5 is_stmt 1
	lui	a0,%hi(.LC44)
.LVL318:
.LBE95:
.LBE94:
	.loc 1 286 1 is_stmt 0
	addi	sp,sp,-16
	.cfi_def_cfa_offset 16
.LBB98:
.LBB96:
	.loc 1 295 5
	addi	a0,a0,%lo(.LC44)
.LBE96:
.LBE98:
	.loc 1 286 1
	sw	ra,12(sp)
.LVL319:
	.cfi_offset 1, -4
.LBB99:
.LBB97:
	.loc 1 295 5
	call	printf
.LVL320:
	.loc 1 296 5 is_stmt 1
	lui	a0,%hi(wifiMgmr)
	li	a1,-1
	addi	a0,a0,%lo(wifiMgmr)
	call	wifi_mgmr_profile_autoreconnect_enable
.LVL321:
	.loc 1 299 5
.LBE97:
.LBE99:
	.loc 1 300 1 is_stmt 0
	lw	ra,12(sp)
	.cfi_restore 1
	li	a0,0
	addi	sp,sp,16
	.cfi_def_cfa_offset 0
	jr	ra
.LVL322:
.L163:
	li	a0,0
.LVL323:
	ret
	.cfi_endproc
.LFE15:
	.size	stateGlobalGuard_enable_autoreconnect, .-stateGlobalGuard_enable_autoreconnect
	.section	.text.stateGlobalGuard_disable_autoreconnect,"ax",@progbits
	.align	1
	.type	stateGlobalGuard_disable_autoreconnect, @function
stateGlobalGuard_disable_autoreconnect:
.LFB14:
	.loc 1 263 1 is_stmt 1
	.cfi_startproc
.LVL324:
	.loc 1 264 5
	.loc 1 266 5
	.loc 1 267 5
	.loc 1 267 25 is_stmt 0
	lw	a5,4(a1)
	lbu	a5,0(a5)
	.loc 1 267 8
	bne	a0,a5,.L169
	.loc 1 271 5 is_stmt 1
	.loc 1 263 1 is_stmt 0
	addi	sp,sp,-16
	.cfi_def_cfa_offset 16
	sw	s0,8(sp)
.LVL325:
	.cfi_offset 8, -8
	.loc 1 271 39
	lui	s0,%hi(wifiMgmr)
	.loc 1 263 1
	sw	s1,4(sp)
	.loc 1 271 39
	li	a4,4096
	.cfi_offset 9, -12
	addi	s1,s0,%lo(wifiMgmr)
	.loc 1 263 1
	sw	ra,12(sp)
	.cfi_offset 1, -4
	.loc 1 271 39
	add	a4,s1,a4
	.loc 1 271 8
	lw	a4,1816(a4)
	lui	a5,%hi(.LANCHOR6)
	addi	a5,a5,%lo(.LANCHOR6)
	bne	a4,a5,.L168
.LVL326:
.LBB102:
.LBB103:
	.loc 1 272 9 is_stmt 1
	lui	a0,%hi(.LC45)
.LVL327:
	addi	a0,a0,%lo(.LC45)
	call	printf
.LVL328:
	.loc 1 273 9
	lui	a0,%hi(.LC6)
	addi	a0,a0,%lo(.LC6)
	call	printf
.LVL329:
	.loc 1 274 9
	lbu	a0,16(s1)
	call	bl_main_if_remove
.LVL330:
	.loc 1 275 9
	.loc 1 274 9 is_stmt 0
	li	a0,1
.L167:
.LBE103:
.LBE102:
	.loc 1 283 1
	lw	ra,12(sp)
	.cfi_remember_state
	.cfi_restore 1
	lw	s0,8(sp)
	.cfi_restore 8
	lw	s1,4(sp)
	.cfi_restore 9
	addi	sp,sp,16
	.cfi_def_cfa_offset 0
	jr	ra
.LVL331:
.L168:
	.cfi_restore_state
	.loc 1 278 5 is_stmt 1
	lui	a0,%hi(.LC46)
.LVL332:
	addi	a0,a0,%lo(.LC46)
	call	printf
.LVL333:
	.loc 1 279 5
	li	a1,-1
	addi	a0,s0,%lo(wifiMgmr)
	call	wifi_mgmr_profile_autoreconnect_disable
.LVL334:
	.loc 1 282 5
	.loc 1 282 11 is_stmt 0
	li	a0,0
	j	.L167
.LVL335:
.L169:
	.cfi_def_cfa_offset 0
	.cfi_restore 1
	.cfi_restore 8
	.cfi_restore 9
	.loc 1 268 15
	li	a0,0
.LVL336:
	.loc 1 283 1
	ret
	.cfi_endproc
.LFE14:
	.size	stateGlobalGuard_disable_autoreconnect, .-stateGlobalGuard_disable_autoreconnect
	.section	.text.stateDisconnect_enter,"ax",@progbits
	.align	1
	.type	stateDisconnect_enter, @function
stateDisconnect_enter:
.LFB71:
	.loc 1 1262 1 is_stmt 1
	.cfi_startproc
.LVL337:
	.loc 1 1263 5
	.loc 1 1262 1 is_stmt 0
	addi	sp,sp,-32
	.cfi_def_cfa_offset 32
	sw	s1,20(sp)
	.loc 1 1267 5
	mv	a1,a0
.LVL338:
	.cfi_offset 9, -12
	.loc 1 1262 1
	mv	s1,a0
	.loc 1 1267 5
	lui	a0,%hi(.LC4)
.LVL339:
	addi	a0,a0,%lo(.LC4)
	.loc 1 1262 1
	sw	s0,24(sp)
	sw	ra,28(sp)
	sw	s2,16(sp)
	.cfi_offset 8, -8
	.cfi_offset 1, -4
	.cfi_offset 18, -16
	.loc 1 1263 9
	sw	zero,12(sp)
	.loc 1 1264 5 is_stmt 1
	.loc 1 1266 5
	.loc 1 1267 5
	.loc 1 1269 9 is_stmt 0
	lui	s0,%hi(wifiMgmr)
	.loc 1 1267 5
	call	printf
.LVL340:
	.loc 1 1269 5 is_stmt 1
	.loc 1 1269 9 is_stmt 0
	li	a1,-1
	addi	a0,s0,%lo(wifiMgmr)
	call	wifi_mgmr_profile_autoreconnect_is_enabled
.LVL341:
	.loc 1 1269 8
	beq	a0,zero,.L175
	.loc 1 1270 9 is_stmt 1
	.loc 1 1270 116 is_stmt 0
	addi	s2,s1,32
	.loc 1 1270 9
	lui	a4,%hi(disconnect_retry)
	lui	a0,%hi(.LC47)
	mv	a5,s2
	addi	a4,a4,%lo(disconnect_retry)
	mv	a3,s1
	li	a2,0
	li	a1,2000
	addi	a0,a0,%lo(.LC47)
	call	xTimerCreateStatic
.LVL342:
	.loc 1 1277 9 is_stmt 1
	lui	a0,%hi(.LC48)
	addi	a0,a0,%lo(.LC48)
	call	printf
.LVL343:
	.loc 1 1278 9
	call	xTaskGetTickCount
.LVL344:
	mv	a2,a0
	li	a4,-1
	li	a3,0
	li	a1,1
	mv	a0,s2
	call	xTimerGenericCommand
.LVL345:
	.loc 1 1278 44
	.loc 1 1279 9
	.loc 1 1279 45 is_stmt 0
	li	a5,1
	sb	a5,76(s1)
.L176:
	.loc 1 1283 5 is_stmt 1
	.loc 1 1283 59 is_stmt 0
	li	a5,4096
	addi	s0,s0,%lo(wifiMgmr)
	add	s0,s0,a5
	.loc 1 1283 5
	lhu	a2,1872(s0)
	li	a1,5
	li	a0,2
	call	aos_post_event
.LVL346:
	.loc 1 1284 5 is_stmt 1
	.loc 1 1284 14 is_stmt 0
	addi	a0,sp,12
	call	bl60x_check_mac_status
.LVL347:
	.loc 1 1284 45
	lw	a5,12(sp)
	lui	s0,%hi(wifiMgmr+4096)
	addi	s0,s0,%lo(wifiMgmr+4096)
	or	a0,a0,a5
	bne	a0,zero,.L177
.LBB109:
	.loc 1 1285 9 is_stmt 1
	li	a2,0
	li	a1,23
	li	a0,2
	call	aos_post_event
.LVL348:
	.loc 1 1287 1
	.loc 1 1288 13
	call	helper_record_dump
.LVL349:
.L177:
.LBE109:
	.loc 1 1291 5
.LBB110:
.LBB111:
	.loc 1 85 5
	.loc 1 85 35 is_stmt 0
	lw	a5,1992(s0)
	andi	a5,a5,1
.LBE111:
.LBE110:
	.loc 1 1291 8
	beq	a5,zero,.L174
	.loc 1 1292 9 is_stmt 1
	lui	a0,%hi(.LC50)
	addi	a0,a0,%lo(.LC50)
	call	printf
.LVL350:
	.loc 1 1293 9
	call	bl_main_scan
.LVL351:
	.loc 1 1294 9
.LBB112:
.LBB113:
	.loc 1 80 5
	.loc 1 80 27 is_stmt 0
	lw	a5,1992(s0)
	andi	a5,a5,-2
	sw	a5,1992(s0)
.LVL352:
.L174:
.LBE113:
.LBE112:
	.loc 1 1296 1
	lw	ra,28(sp)
	.cfi_remember_state
	.cfi_restore 1
	lw	s0,24(sp)
	.cfi_restore 8
	lw	s1,20(sp)
	.cfi_restore 9
.LVL353:
	lw	s2,16(sp)
	.cfi_restore 18
	addi	sp,sp,32
	.cfi_def_cfa_offset 0
	jr	ra
.LVL354:
.L175:
	.cfi_restore_state
	.loc 1 1281 9 is_stmt 1
	lui	a0,%hi(.LC49)
	addi	a0,a0,%lo(.LC49)
	call	printf
.LVL355:
	j	.L176
	.cfi_endproc
.LFE71:
	.size	stateDisconnect_enter, .-stateDisconnect_enter
	.section	.text.stateGlobalGuard_fw_scan,"ax",@progbits
	.align	1
	.type	stateGlobalGuard_fw_scan, @function
stateGlobalGuard_fw_scan:
.LFB18:
	.loc 1 330 1
	.cfi_startproc
.LVL356:
	.loc 1 331 5
	.loc 1 333 5
	.loc 1 335 5
	.loc 1 335 39 is_stmt 0
	lw	a5,4(a1)
	.loc 1 335 8
	lbu	a4,0(a5)
	li	a5,18
	bne	a4,a5,.L189
	.loc 1 340 5 is_stmt 1
	.loc 1 330 1 is_stmt 0
	addi	sp,sp,-16
	.cfi_def_cfa_offset 16
	.loc 1 340 39
	lui	a5,%hi(wifiMgmr+4096)
	.loc 1 330 1
	sw	s0,8(sp)
.LVL357:
	sw	ra,12(sp)
	.cfi_offset 8, -8
	.cfi_offset 1, -4
	.loc 1 340 39
	addi	a5,a5,%lo(wifiMgmr+4096)
	lw	a5,1816(a5)
	.loc 1 340 8
	lui	a4,%hi(.LANCHOR7)
	lui	s0,%hi(wifiMgmr+4096)
	addi	a4,a4,%lo(.LANCHOR7)
	addi	s0,s0,%lo(wifiMgmr+4096)
	beq	a5,a4,.L185
	.loc 1 340 53 discriminator 1
	lui	a4,%hi(.LANCHOR8)
	addi	a4,a4,%lo(.LANCHOR8)
	beq	a5,a4,.L185
	.loc 1 341 60
	lui	a4,%hi(.LANCHOR6)
	addi	a4,a4,%lo(.LANCHOR6)
	bne	a5,a4,.L186
.L185:
	.loc 1 343 13 is_stmt 1
	lui	a0,%hi(.LC51)
.LVL358:
	addi	a0,a0,%lo(.LC51)
	call	printf
.LVL359:
	.loc 1 344 13
.LBB118:
.LBB119:
	.loc 1 75 5
	.loc 1 75 27 is_stmt 0
	lw	a5,1992(s0)
	ori	a5,a5,1
	sw	a5,1992(s0)
.LVL360:
.L184:
.LBE119:
.LBE118:
	.loc 1 362 1
	lw	ra,12(sp)
	.cfi_remember_state
	.cfi_restore 1
	lw	s0,8(sp)
	.cfi_restore 8
	li	a0,0
	addi	sp,sp,16
	.cfi_def_cfa_offset 0
	jr	ra
.LVL361:
.L186:
	.cfi_restore_state
	.loc 1 349 5 is_stmt 1
	.loc 1 349 8 is_stmt 0
	lui	a4,%hi(.LANCHOR4)
	addi	a4,a4,%lo(.LANCHOR4)
	beq	a5,a4,.L187
	.loc 1 349 47 discriminator 1
	lui	a4,%hi(.LANCHOR2)
	addi	a4,a4,%lo(.LANCHOR2)
	beq	a5,a4,.L187
	.loc 1 350 61
	lui	a4,%hi(.LANCHOR9)
	addi	a4,a4,%lo(.LANCHOR9)
	beq	a5,a4,.L187
.LVL362:
.LBB120:
.LBB121:
	.loc 1 352 13 is_stmt 1
	lui	a0,%hi(.LC52)
.LVL363:
	addi	a0,a0,%lo(.LC52)
	call	printf
.LVL364:
	.loc 1 353 13
	li	a2,1
	li	a1,9
	li	a0,2
	call	aos_post_event
.LVL365:
	.loc 1 354 13
	j	.L184
.LVL366:
.L187:
.LBE121:
.LBE120:
	.loc 1 358 5
	lui	a0,%hi(.LC53)
.LVL367:
	addi	a0,a0,%lo(.LC53)
	call	printf
.LVL368:
	.loc 1 359 5
	call	bl_main_scan
.LVL369:
	.loc 1 361 5
	.loc 1 361 11 is_stmt 0
	j	.L184
.LVL370:
.L189:
	.cfi_def_cfa_offset 0
	.cfi_restore 1
	.cfi_restore 8
	.loc 1 362 1
	li	a0,0
.LVL371:
	ret
	.cfi_endproc
.LFE18:
	.size	stateGlobalGuard_fw_scan, .-stateGlobalGuard_fw_scan
	.section	.text.stateDisconnect_guard,"ax",@progbits
	.align	1
	.type	stateDisconnect_guard, @function
stateDisconnect_guard:
.LFB121:
	.cfi_startproc
	lw	a5,4(a1)
	lbu	a5,0(a5)
	sub	a0,a0,a5
	seqz	a0,a0
	ret
	.cfi_endproc
.LFE121:
	.size	stateDisconnect_guard, .-stateDisconnect_guard
	.section	.text.stateGlobalExit,"ax",@progbits
	.align	1
	.type	stateGlobalExit, @function
stateGlobalExit:
.LFB105:
	.cfi_startproc
	mv	a1,a0
	lui	a0,%hi(.LC4)
	addi	a0,a0,%lo(.LC4)
	tail	printf
	.cfi_endproc
.LFE105:
	.size	stateGlobalExit, .-stateGlobalExit
	.section	.text.stateSnifferEnter,"ax",@progbits
	.align	1
	.type	stateSnifferEnter, @function
stateSnifferEnter:
.LFB107:
	.cfi_startproc
	mv	a1,a0
	lui	a0,%hi(.LC4)
	addi	a0,a0,%lo(.LC4)
	tail	printf
	.cfi_endproc
.LFE107:
	.size	stateSnifferEnter, .-stateSnifferEnter
	.section	.text.stateConnectingGuard,"ax",@progbits
	.align	1
	.type	stateConnectingGuard, @function
stateConnectingGuard:
.LFB115:
	.cfi_startproc
	lw	a5,4(a1)
	lbu	a5,0(a5)
	sub	a0,a0,a5
	seqz	a0,a0
	ret
	.cfi_endproc
.LFE115:
	.size	stateConnectingGuard, .-stateConnectingGuard
	.section	.text.stateConnectingAction_connected,"ax",@progbits
	.align	1
	.type	stateConnectingAction_connected, @function
stateConnectingAction_connected:
.LFB123:
	.cfi_startproc
	mv	a1,a0
	lui	a0,%hi(.LC2)
	addi	a0,a0,%lo(.LC2)
	tail	printf
	.cfi_endproc
.LFE123:
	.size	stateConnectingAction_connected, .-stateConnectingAction_connected
	.section	.text.stateConnectingAction_disconnect,"ax",@progbits
	.align	1
	.type	stateConnectingAction_disconnect, @function
stateConnectingAction_disconnect:
.LFB125:
	.cfi_startproc
	mv	a1,a0
	lui	a0,%hi(.LC2)
	addi	a0,a0,%lo(.LC2)
	tail	printf
	.cfi_endproc
.LFE125:
	.size	stateConnectingAction_disconnect, .-stateConnectingAction_disconnect
	.section	.text.stateConnectingExit,"ax",@progbits
	.align	1
	.type	stateConnectingExit, @function
stateConnectingExit:
.LFB135:
	.cfi_startproc
	mv	a1,a0
	lui	a0,%hi(.LC1)
	addi	a0,a0,%lo(.LC1)
	tail	printf
	.cfi_endproc
.LFE135:
	.size	stateConnectingExit, .-stateConnectingExit
	.section	.text.stateIdleAction_sniffer,"ax",@progbits
	.align	1
	.type	stateIdleAction_sniffer, @function
stateIdleAction_sniffer:
.LFB127:
	.cfi_startproc
	mv	a1,a0
	lui	a0,%hi(.LC2)
	addi	a0,a0,%lo(.LC2)
	tail	printf
	.cfi_endproc
.LFE127:
	.size	stateIdleAction_sniffer, .-stateIdleAction_sniffer
	.section	.text.stateIdleEnter,"ax",@progbits
	.align	1
	.type	stateIdleEnter, @function
stateIdleEnter:
.LFB109:
	.cfi_startproc
	mv	a1,a0
	lui	a0,%hi(.LC4)
	addi	a0,a0,%lo(.LC4)
	tail	printf
	.cfi_endproc
.LFE109:
	.size	stateIdleEnter, .-stateIdleEnter
	.section	.text.stateIdleExit,"ax",@progbits
	.align	1
	.type	stateIdleExit, @function
stateIdleExit:
.LFB111:
	.cfi_startproc
	mv	a1,a0
	lui	a0,%hi(.LC4)
	addi	a0,a0,%lo(.LC4)
	tail	printf
	.cfi_endproc
.LFE111:
	.size	stateIdleExit, .-stateIdleExit
	.section	.text.stateIfaceDownAction_phyup,"ax",@progbits
	.align	1
	.type	stateIfaceDownAction_phyup, @function
stateIfaceDownAction_phyup:
.LFB129:
	.cfi_startproc
	mv	a1,a0
	lui	a0,%hi(.LC2)
	addi	a0,a0,%lo(.LC2)
	tail	printf
	.cfi_endproc
.LFE129:
	.size	stateIfaceDownAction_phyup, .-stateIfaceDownAction_phyup
	.section	.text.stateIfaceDownEnter,"ax",@progbits
	.align	1
	.type	stateIfaceDownEnter, @function
stateIfaceDownEnter:
.LFB113:
	.cfi_startproc
	mv	a1,a0
	lui	a0,%hi(.LC4)
	addi	a0,a0,%lo(.LC4)
	tail	printf
	.cfi_endproc
.LFE113:
	.size	stateIfaceDownEnter, .-stateIfaceDownEnter
	.section	.text.stateIfaceDownExit,"ax",@progbits
	.align	1
	.type	stateIfaceDownExit, @function
stateIfaceDownExit:
.LFB137:
	.cfi_startproc
	mv	a1,a0
	lui	a0,%hi(.LC1)
	addi	a0,a0,%lo(.LC1)
	tail	printf
	.cfi_endproc
.LFE137:
	.size	stateIfaceDownExit, .-stateIfaceDownExit
	.section	.text.stateConnectedIPNoGuard,"ax",@progbits
	.align	1
	.type	stateConnectedIPNoGuard, @function
stateConnectedIPNoGuard:
.LFB117:
	.cfi_startproc
	lw	a5,4(a1)
	lbu	a5,0(a5)
	sub	a0,a0,a5
	seqz	a0,a0
	ret
	.cfi_endproc
.LFE117:
	.size	stateConnectedIPNoGuard, .-stateConnectedIPNoGuard
	.section	.text.stateConnectedIPNoAction_disconnect,"ax",@progbits
	.align	1
	.type	stateConnectedIPNoAction_disconnect, @function
stateConnectedIPNoAction_disconnect:
.LFB131:
	.cfi_startproc
	mv	a1,a0
	lui	a0,%hi(.LC2)
	addi	a0,a0,%lo(.LC2)
	tail	printf
	.cfi_endproc
.LFE131:
	.size	stateConnectedIPNoAction_disconnect, .-stateConnectedIPNoAction_disconnect
	.section	.text.stateConnectedIPYesGuard,"ax",@progbits
	.align	1
	.type	stateConnectedIPYesGuard, @function
stateConnectedIPYesGuard:
.LFB119:
	.cfi_startproc
	lw	a5,4(a1)
	lbu	a5,0(a5)
	sub	a0,a0,a5
	seqz	a0,a0
	ret
	.cfi_endproc
.LFE119:
	.size	stateConnectedIPYesGuard, .-stateConnectedIPYesGuard
	.section	.text.stateConnectedIPYes_action,"ax",@progbits
	.align	1
	.type	stateConnectedIPYes_action, @function
stateConnectedIPYes_action:
.LFB133:
	.cfi_startproc
	mv	a1,a0
	lui	a0,%hi(.LC2)
	addi	a0,a0,%lo(.LC2)
	tail	printf
	.cfi_endproc
.LFE133:
	.size	stateConnectedIPYes_action, .-stateConnectedIPYes_action
	.section	.text.stateConnectedIPYes_enter,"ax",@progbits
	.align	1
	.type	stateConnectedIPYes_enter, @function
stateConnectedIPYes_enter:
.LFB65:
	.loc 1 1129 1 is_stmt 1
	.cfi_startproc
.LVL372:
	.loc 1 1130 5
	mv	a1,a0
.LVL373:
	lui	a0,%hi(.LC4)
.LVL374:
	.loc 1 1129 1 is_stmt 0
	addi	sp,sp,-16
	.cfi_def_cfa_offset 16
	.loc 1 1130 5
	addi	a0,a0,%lo(.LC4)
	.loc 1 1129 1
	sw	ra,12(sp)
	sw	s0,8(sp)
	.cfi_offset 1, -4
	.cfi_offset 8, -8
	.loc 1 1130 5
	call	printf
.LVL375:
	.loc 1 1131 5 is_stmt 1
	li	a2,0
	li	a1,7
	li	a0,2
.LBB130:
.LBB131:
	.loc 1 85 21 is_stmt 0
	lui	s0,%hi(wifiMgmr+4096)
.LBE131:
.LBE130:
	.loc 1 1131 5
	call	aos_post_event
.LVL376:
	.loc 1 1132 5 is_stmt 1
.LBB133:
.LBB132:
	.loc 1 85 5
	.loc 1 85 21 is_stmt 0
	addi	s0,s0,%lo(wifiMgmr+4096)
	.loc 1 85 35
	lw	a5,1992(s0)
	andi	a5,a5,1
.LBE132:
.LBE133:
	.loc 1 1132 8
	beq	a5,zero,.L209
.LVL377:
.LBB134:
.LBB135:
	.loc 1 1133 9 is_stmt 1
	lui	a0,%hi(.LC50)
	addi	a0,a0,%lo(.LC50)
	call	printf
.LVL378:
	.loc 1 1134 9
	call	bl_main_scan
.LVL379:
	.loc 1 1135 9
.LBB136:
.LBB137:
	.loc 1 80 5
	.loc 1 80 27 is_stmt 0
	lw	a5,1992(s0)
	andi	a5,a5,-2
	sw	a5,1992(s0)
.LVL380:
.L209:
.LBE137:
.LBE136:
.LBE135:
.LBE134:
	.loc 1 1137 1
	lw	ra,12(sp)
	.cfi_restore 1
	lw	s0,8(sp)
	.cfi_restore 8
	addi	sp,sp,16
	.cfi_def_cfa_offset 0
	jr	ra
	.cfi_endproc
.LFE65:
	.size	stateConnectedIPYes_enter, .-stateConnectedIPYes_enter
	.section	.text.wifi_mgmr_auth_to_str,"ax",@progbits
	.align	1
	.globl	wifi_mgmr_auth_to_str
	.type	wifi_mgmr_auth_to_str, @function
wifi_mgmr_auth_to_str:
.LFB11:
	.loc 1 94 1 is_stmt 1
	.cfi_startproc
.LVL381:
	.loc 1 95 5
	li	a5,5
	bgtu	a0,a5,.L216
	lui	a5,%hi(.L218)
	addi	a5,a5,%lo(.L218)
	slli	a0,a0,2
.LVL382:
	add	a0,a0,a5
	lw	a5,0(a0)
	jr	a5
	.section	.rodata.wifi_mgmr_auth_to_str,"a",@progbits
	.align	2
	.align	2
.L218:
	.word	.L224
	.word	.L222
	.word	.L221
	.word	.L220
	.word	.L219
	.word	.L217
	.section	.text.wifi_mgmr_auth_to_str
.L222:
	.loc 1 103 20 is_stmt 0
	lui	a0,%hi(.LC60)
	addi	a0,a0,%lo(.LC60)
	ret
.L221:
	.loc 1 105 9 is_stmt 1
	.loc 1 108 13
	.loc 1 108 20 is_stmt 0
	lui	a0,%hi(.LC56)
	addi	a0,a0,%lo(.LC56)
	ret
.L220:
	.loc 1 110 9 is_stmt 1
	.loc 1 113 13
	.loc 1 113 20 is_stmt 0
	lui	a0,%hi(.LC57)
	addi	a0,a0,%lo(.LC57)
	ret
.L219:
	.loc 1 115 9 is_stmt 1
	.loc 1 118 13
	.loc 1 118 20 is_stmt 0
	lui	a0,%hi(.LC58)
	addi	a0,a0,%lo(.LC58)
	ret
.L217:
	.loc 1 120 9 is_stmt 1
	.loc 1 123 13
	.loc 1 123 20 is_stmt 0
	lui	a0,%hi(.LC59)
	addi	a0,a0,%lo(.LC59)
	ret
.LVL383:
.L216:
	.loc 1 125 9 is_stmt 1
	.loc 1 128 13
	.loc 1 128 20 is_stmt 0
	lui	a0,%hi(.LC55)
.LVL384:
	addi	a0,a0,%lo(.LC55)
	ret
.L224:
	.loc 1 98 20
	lui	a0,%hi(.LC54)
	addi	a0,a0,%lo(.LC54)
	.loc 1 136 1
	ret
	.cfi_endproc
.LFE11:
	.size	wifi_mgmr_auth_to_str, .-wifi_mgmr_auth_to_str
	.section	.text.wifi_mgmr_cipher_to_str,"ax",@progbits
	.align	1
	.globl	wifi_mgmr_cipher_to_str
	.type	wifi_mgmr_cipher_to_str, @function
wifi_mgmr_cipher_to_str:
.LFB12:
	.loc 1 139 1 is_stmt 1
	.cfi_startproc
.LVL385:
	.loc 1 140 5
	.loc 1 140 8 is_stmt 0
	beq	a0,zero,.L227
	.loc 1 142 12 is_stmt 1
	.loc 1 142 15 is_stmt 0
	li	a5,1
	beq	a0,a5,.L228
	.loc 1 144 12 is_stmt 1
	.loc 1 144 15 is_stmt 0
	li	a5,2
	beq	a0,a5,.L229
	.loc 1 146 12 is_stmt 1
	.loc 1 146 15 is_stmt 0
	li	a5,3
	beq	a0,a5,.L230
	.loc 1 148 12 is_stmt 1
	.loc 1 148 15 is_stmt 0
	li	a5,4
	beq	a0,a5,.L231
	.loc 1 151 16
	lui	a0,%hi(.LC55)
.LVL386:
	addi	a0,a0,%lo(.LC55)
	ret
.LVL387:
.L227:
	.loc 1 141 16
	lui	a0,%hi(.LC63)
.LVL388:
	addi	a0,a0,%lo(.LC63)
	ret
.LVL389:
.L228:
	.loc 1 143 16
	lui	a0,%hi(.LC60)
.LVL390:
	addi	a0,a0,%lo(.LC60)
	ret
.LVL391:
.L229:
	.loc 1 145 16
	lui	a0,%hi(.LC64)
.LVL392:
	addi	a0,a0,%lo(.LC64)
	ret
.LVL393:
.L230:
	.loc 1 147 16
	lui	a0,%hi(.LC61)
.LVL394:
	addi	a0,a0,%lo(.LC61)
	ret
.LVL395:
.L231:
	.loc 1 149 16
	lui	a0,%hi(.LC62)
.LVL396:
	addi	a0,a0,%lo(.LC62)
	.loc 1 153 1
	ret
	.cfi_endproc
.LFE12:
	.size	wifi_mgmr_cipher_to_str, .-wifi_mgmr_cipher_to_str
	.section	.text.wifi_mgmr_event_notify,"ax",@progbits
	.align	1
	.globl	wifi_mgmr_event_notify
	.type	wifi_mgmr_event_notify, @function
wifi_mgmr_event_notify:
.LFB73:
	.loc 1 1333 1 is_stmt 1
	.cfi_startproc
.LVL397:
	.loc 1 1334 5
	.loc 1 1333 1 is_stmt 0
	addi	sp,sp,-16
	.cfi_def_cfa_offset 16
	sw	s0,8(sp)
	sw	s1,4(sp)
	sw	s2,0(sp)
	sw	ra,12(sp)
	.cfi_offset 8, -8
	.cfi_offset 9, -12
	.cfi_offset 18, -16
	.cfi_offset 1, -4
	.loc 1 1333 1
	mv	s0,a0
	.loc 1 1334 25
	lui	s1,%hi(wifiMgmr)
	.loc 1 1335 9
	lui	s2,%hi(.LC65)
.LVL398:
.L233:
	.loc 1 1334 11
	lbu	a5,%lo(wifiMgmr)(s1)
	beq	a5,zero,.L234
	.loc 1 1338 5 is_stmt 1
	.loc 1 1338 78 is_stmt 0
	lbu	a2,10(s0)
	lbu	a5,9(s0)
	.loc 1 1338 10
	lui	a0,%hi(wifiMgmr+3636)
	.loc 1 1338 78
	slli	a2,a2,8
	or	a2,a2,a5
	lbu	a5,11(s0)
	.loc 1 1338 10
	li	a3,-1
	mv	a1,s0
	.loc 1 1338 78
	slli	a5,a5,16
	or	a5,a5,a2
	lbu	a2,12(s0)
	.loc 1 1338 10
	addi	a0,a0,%lo(wifiMgmr+3636)
	.loc 1 1338 78
	slli	a2,a2,24
	.loc 1 1338 10
	or	a2,a2,a5
	call	xStreamBufferSend
.LVL399:
	.loc 1 1342 12
	li	a5,0
	.loc 1 1338 8
	bne	a0,zero,.L232
	.loc 1 1339 9 is_stmt 1
	.loc 1 1339 83 is_stmt 0
	lbu	a2,10(s0)
	lbu	a5,9(s0)
	.loc 1 1339 9
	lui	a0,%hi(.LC66)
	.loc 1 1339 83
	slli	a2,a2,8
	or	a2,a2,a5
	lbu	a5,11(s0)
	.loc 1 1339 9
	mv	a1,s0
	addi	a0,a0,%lo(.LC66)
	.loc 1 1339 83
	slli	a5,a5,16
	or	a5,a5,a2
	lbu	a2,12(s0)
	slli	a2,a2,24
	.loc 1 1339 9
	or	a2,a2,a5
	call	printf
.LVL400:
	.loc 1 1340 9 is_stmt 1
	.loc 1 1340 16 is_stmt 0
	li	a5,-1
.L232:
	.loc 1 1343 1
	lw	ra,12(sp)
	.cfi_remember_state
	.cfi_restore 1
	lw	s0,8(sp)
	.cfi_restore 8
.LVL401:
	lw	s1,4(sp)
	.cfi_restore 9
	lw	s2,0(sp)
	.cfi_restore 18
	mv	a0,a5
	addi	sp,sp,16
	.cfi_def_cfa_offset 0
	jr	ra
.LVL402:
.L234:
	.cfi_restore_state
	.loc 1 1335 9 is_stmt 1
	addi	a0,s2,%lo(.LC65)
	call	printf
.LVL403:
	.loc 1 1336 9
	li	a0,20
	call	vTaskDelay
.LVL404:
	j	.L233
	.cfi_endproc
.LFE73:
	.size	wifi_mgmr_event_notify, .-wifi_mgmr_event_notify
	.section	.text.wifi_mgmr_start,"ax",@progbits
	.align	1
	.globl	wifi_mgmr_start
	.type	wifi_mgmr_start, @function
wifi_mgmr_start:
.LFB75:
	.loc 1 1361 1
	.cfi_startproc
	.loc 1 1362 5
	.loc 1 1363 5
	.loc 1 1364 5
	.loc 1 1366 5
	.loc 1 1361 1 is_stmt 0
	addi	sp,sp,-288
	.cfi_def_cfa_offset 288
.LVL405:
	.loc 1 1367 5 is_stmt 1
	.loc 1 1361 1 is_stmt 0
	sw	s0,280(sp)
	.loc 1 1369 5
	lui	a2,%hi(.LANCHOR10)
	lui	a1,%hi(.LANCHOR5)
	.cfi_offset 8, -8
	lui	s0,%hi(wifiMgmr+5912)
	.loc 1 1367 13
	li	a5,1
	.loc 1 1369 5
	addi	a2,a2,%lo(.LANCHOR10)
	addi	a1,a1,%lo(.LANCHOR5)
	.loc 1 1361 1
	sw	s4,264(sp)
	.loc 1 1369 5
	addi	a0,s0,%lo(wifiMgmr+5912)
	.cfi_offset 20, -24
	.loc 1 1368 13
	addi	s4,sp,25
.LVL406:
	.loc 1 1361 1
	sw	ra,284(sp)
	.loc 1 1367 13
	sw	a5,16(sp)
	.loc 1 1368 5 is_stmt 1
	.loc 1 1361 1 is_stmt 0
	sw	s1,276(sp)
	sw	s2,272(sp)
	sw	s3,268(sp)
	sw	s5,260(sp)
	.cfi_offset 1, -4
	.cfi_offset 9, -12
	.cfi_offset 18, -16
	.cfi_offset 19, -20
	.cfi_offset 21, -28
	.loc 1 1368 13
	sw	s4,20(sp)
	.loc 1 1369 5 is_stmt 1
	call	stateM_init
.LVL407:
	.loc 1 1372 5
	call	wifi_mgmr_event_init
.LVL408:
	.loc 1 1375 5
	lui	a1,%hi(event_cb_wifi_event_mgmr)
	li	a2,0
	addi	a1,a1,%lo(event_cb_wifi_event_mgmr)
	li	a0,2
	call	aos_register_event_filter
.LVL409:
	.loc 1 1377 5
	li	a2,0
	li	a1,2
	li	a0,2
	call	aos_post_event
.LVL410:
	.loc 1 1380 5
	li	a1,255
	li	a0,255
	call	hal_sys_capcode_update
.LVL411:
	.loc 1 1383 5
.LBB142:
.LBB143:
	.loc 1 1023 5
	.loc 1 1025 5
	.loc 1 1026 5
	lui	a0,%hi(.LC67)
	addi	a0,a0,%lo(.LC67)
	call	printf
.LVL412:
	.loc 1 1027 5
	lui	a3,%hi(.LANCHOR11)
	addi	s1,a3,%lo(.LANCHOR11)
	addi	s1,s1,32
	lui	a4,%hi(__reload_tsen)
	li	a1,8192
	lui	a0,%hi(.LC68)
	mv	a5,s1
	addi	a4,a4,%lo(__reload_tsen)
	addi	a3,a3,%lo(.LANCHOR11)
	li	a2,1
	addi	a1,a1,1808
	addi	a0,a0,%lo(.LC68)
	call	xTimerCreateStatic
.LVL413:
	.loc 1 1034 5
	call	xTaskGetTickCount
.LVL414:
	mv	a2,a0
	li	a4,-1
	mv	a0,s1
	li	a3,0
	li	a1,1
.LBE143:
.LBE142:
.LBB145:
.LBB146:
	.loc 1 954 39 is_stmt 0
	lui	s1,%hi(wifiMgmr+4096)
	.loc 1 954 8
	lui	s2,%hi(.LANCHOR7)
	.loc 1 954 53
	lui	s3,%hi(.LANCHOR6)
.LBE146:
.LBE145:
.LBB149:
.LBB144:
	.loc 1 1034 5
	call	xTimerGenericCommand
.LVL415:
	.loc 1 1034 40 is_stmt 1
.LBE144:
.LBE149:
.LBB150:
.LBB147:
	.loc 1 954 39 is_stmt 0
	addi	s1,s1,%lo(wifiMgmr+4096)
	.loc 1 954 8
	addi	s2,s2,%lo(.LANCHOR7)
	.loc 1 954 53
	addi	s3,s3,%lo(.LANCHOR6)
.L239:
.LBE147:
.LBE150:
	.loc 1 1387 19
	lui	s5,%hi(wifiMgmr+3636)
.L240:
	.loc 1 1386 5 is_stmt 1
	.loc 1 1387 9
	.loc 1 1387 19 is_stmt 0
	li	a3,-1
	li	a2,224
	mv	a1,s4
	addi	a0,s5,%lo(wifiMgmr+3636)
	call	xStreamBufferReceive
.LVL416:
	.loc 1 1387 12
	beq	a0,zero,.L240
	.loc 1 1388 13 is_stmt 1
	.loc 1 1388 20 is_stmt 0
	lbu	a4,25(sp)
	.loc 1 1388 16
	li	a3,13
	bne	a4,a3,.L241
	.loc 1 1389 17 is_stmt 1
.LBB151:
.LBB148:
	.loc 1 951 5
	.loc 1 954 39 is_stmt 0
	lw	a5,1816(s1)
	.loc 1 951 13
	sh	zero,14(sp)
	.loc 1 952 5 is_stmt 1
	.loc 1 954 5
	.loc 1 954 8 is_stmt 0
	beq	a5,s2,.L242
	.loc 1 954 53
	beq	a5,s3,.L242
	.loc 1 954 100
	lui	a4,%hi(.LANCHOR2)
	addi	a4,a4,%lo(.LANCHOR2)
	beq	a5,a4,.L242
	.loc 1 954 151
	lui	a4,%hi(.LANCHOR9)
	addi	a4,a4,%lo(.LANCHOR9)
	beq	a5,a4,.L242
	.loc 1 955 54
	lui	a4,%hi(.LANCHOR8)
	addi	a4,a4,%lo(.LANCHOR8)
	bne	a5,a4,.L239
.L242:
	.loc 1 956 9 is_stmt 1
	li	a1,0
	addi	a0,sp,14
	call	bl_tsen_adc_get
.LVL417:
	.loc 1 957 9
	lh	a0,14(sp)
	call	phy_tcal_callback
.LVL418:
	.loc 1 959 9
	j	.L239
.L241:
.LBE148:
.LBE151:
	.loc 1 1394 13
	.loc 1 1394 80 is_stmt 0
	li	a5,1
	bleu	a4,a3,.L245
	.loc 1 1395 78
	li	a5,22
	sgtu	a5,a4,a5
	slli	a5,a5,1
.L245:
	.loc 1 1396 13 discriminator 3
	addi	a1,sp,16
	addi	a0,s0,%lo(wifiMgmr+5912)
	.loc 1 1394 21 discriminator 3
	sw	a5,16(sp)
	.loc 1 1396 13 is_stmt 1 discriminator 3
	call	stateM_handleEvent
.LVL419:
	j	.L239
	.cfi_endproc
.LFE75:
	.size	wifi_mgmr_start, .-wifi_mgmr_start
	.section	.text._wifi_mgmr_entry,"ax",@progbits
	.align	1
	.type	_wifi_mgmr_entry, @function
_wifi_mgmr_entry:
.LFB76:
	.loc 1 1402 1
	.cfi_startproc
.LVL420:
	.loc 1 1403 5
	.loc 1 1402 1 is_stmt 0
	addi	sp,sp,-16
	.cfi_def_cfa_offset 16
	sw	ra,12(sp)
	.cfi_offset 1, -4
	.loc 1 1403 5
	call	wifi_mgmr_start
.LVL421:
	.cfi_endproc
.LFE76:
	.size	_wifi_mgmr_entry, .-_wifi_mgmr_entry
	.section	.text.wifi_mgmr_start_background,"ax",@progbits
	.align	1
	.globl	wifi_mgmr_start_background
	.type	wifi_mgmr_start_background, @function
wifi_mgmr_start_background:
.LFB77:
	.loc 1 1407 1 is_stmt 1
	.cfi_startproc
.LVL422:
	.loc 1 1408 5
	.loc 1 1407 1 is_stmt 0
	addi	sp,sp,-32
	.cfi_def_cfa_offset 32
	sw	ra,28(sp)
	.cfi_offset 1, -4
	.loc 1 1408 5
	call	wifi_mgmr_drv_init
.LVL423:
	.loc 1 1409 5 is_stmt 1
.LBB152:
	.loc 1 1409 10
	.loc 1 1409 6 is_stmt 0
	lui	a1,%hi(.LC69)
	lui	a0,%hi(_wifi_mgmr_entry)
	addi	a5,sp,12
	li	a4,28
	li	a3,0
	li	a2,768
	addi	a1,a1,%lo(.LC69)
	addi	a0,a0,%lo(_wifi_mgmr_entry)
	.loc 1 1409 23
	sw	zero,12(sp)
	.loc 1 1409 6 is_stmt 1
	call	xTaskCreate
.LVL424:
.LBE152:
	.loc 1 1415 1 is_stmt 0
	lw	ra,28(sp)
	.cfi_restore 1
	addi	sp,sp,32
	.cfi_def_cfa_offset 0
	jr	ra
	.cfi_endproc
.LFE77:
	.size	wifi_mgmr_start_background, .-wifi_mgmr_start_background
	.section	.text.wifi_mgmr_init,"ax",@progbits
	.align	1
	.globl	wifi_mgmr_init
	.type	wifi_mgmr_init, @function
wifi_mgmr_init:
.LFB78:
	.loc 1 1418 1 is_stmt 1
	.cfi_startproc
	.loc 1 1419 5
	.loc 1 1421 5
	.loc 1 1418 1 is_stmt 0
	addi	sp,sp,-16
	.cfi_def_cfa_offset 16
	sw	s0,8(sp)
	.loc 1 1421 39
	lui	a4,%hi(wifiMgmr+3636)
	.cfi_offset 8, -8
	li	s0,4096
	lui	a3,%hi(wifiMgmr+3672)
	addi	a4,a4,%lo(wifiMgmr+3636)
	addi	a0,s0,-1856
	addi	a3,a3,%lo(wifiMgmr+3672)
	li	a2,1
	li	a1,0
	.loc 1 1418 1
	sw	ra,12(sp)
	.cfi_offset 1, -4
	.loc 1 1421 39
	call	xStreamBufferGenericCreateStatic
.LVL425:
	.loc 1 1428 5 is_stmt 1
	.loc 1 1428 20 is_stmt 0
	lui	a5,%hi(wifiMgmr)
	addi	a5,a5,%lo(wifiMgmr)
	li	a4,1
	sb	a4,0(a5)
	.loc 1 1429 5 is_stmt 1
	.loc 1 1429 32 is_stmt 0
	li	a4,16384
	add	a5,a5,s0
	addi	a4,a4,-1384
	sw	a4,2000(a5)
	.loc 1 1430 5 is_stmt 1
	.loc 1 1431 1 is_stmt 0
	lw	ra,12(sp)
	.cfi_restore 1
	lw	s0,8(sp)
	.cfi_restore 8
	seqz	a0,a0
.LVL426:
	addi	sp,sp,16
	.cfi_def_cfa_offset 0
	jr	ra
	.cfi_endproc
.LFE78:
	.size	wifi_mgmr_init, .-wifi_mgmr_init
	.section	.text.wifi_mgmr_status_code_get_internal,"ax",@progbits
	.align	1
	.globl	wifi_mgmr_status_code_get_internal
	.type	wifi_mgmr_status_code_get_internal, @function
wifi_mgmr_status_code_get_internal:
.LFB79:
	.loc 1 1434 1 is_stmt 1
	.cfi_startproc
.LVL427:
	.loc 1 1435 5
	.loc 1 1435 45 is_stmt 0
	lui	a5,%hi(wifiMgmr+4096)
	addi	a5,a5,%lo(wifiMgmr+4096)
	lhu	a5,1872(a5)
	sw	a5,0(a0)
	.loc 1 1436 5 is_stmt 1
	.loc 1 1437 1 is_stmt 0
	li	a0,0
.LVL428:
	ret
	.cfi_endproc
.LFE79:
	.size	wifi_mgmr_status_code_get_internal, .-wifi_mgmr_status_code_get_internal
	.section	.text.wifi_mgmr_status_code_clean_internal,"ax",@progbits
	.align	1
	.globl	wifi_mgmr_status_code_clean_internal
	.type	wifi_mgmr_status_code_clean_internal, @function
wifi_mgmr_status_code_clean_internal:
.LFB80:
	.loc 1 1440 1 is_stmt 1
	.cfi_startproc
	.loc 1 1441 5
	.loc 1 1441 46 is_stmt 0
	lui	a5,%hi(wifiMgmr+4096)
	addi	a5,a5,%lo(wifiMgmr+4096)
	sh	zero,1872(a5)
	.loc 1 1442 5 is_stmt 1
	.loc 1 1443 1 is_stmt 0
	li	a0,0
	ret
	.cfi_endproc
.LFE80:
	.size	wifi_mgmr_status_code_clean_internal, .-wifi_mgmr_status_code_clean_internal
	.section	.text.wifi_mgmr_state_get_internal,"ax",@progbits
	.align	1
	.globl	wifi_mgmr_state_get_internal
	.type	wifi_mgmr_state_get_internal, @function
wifi_mgmr_state_get_internal:
.LFB81:
	.loc 1 1446 1 is_stmt 1
	.cfi_startproc
.LVL429:
	.loc 1 1447 5
	.loc 1 1448 5
	.loc 1 1450 5
	.loc 1 1450 13 is_stmt 0
	lui	a5,%hi(wifiMgmr)
	addi	a5,a5,%lo(wifiMgmr)
	li	a3,4096
	add	a3,a5,a3
	lw	a4,1816(a3)
.LVL430:
	.loc 1 1451 5 is_stmt 1
.LBB153:
.LBB154:
	.loc 1 1435 5
.LBE154:
.LBE153:
	.loc 1 1453 8 is_stmt 0
	lui	a2,%hi(.LANCHOR4)
	addi	a2,a2,%lo(.LANCHOR4)
.LBB156:
.LBB155:
	.loc 1 1435 45
	lhu	a3,1872(a3)
.LVL431:
	.loc 1 1436 5 is_stmt 1
.LBE155:
.LBE156:
	.loc 1 1453 5
	.loc 1 1453 8 is_stmt 0
	bne	a4,a2,.L260
	.loc 1 1454 9 is_stmt 1
	.loc 1 1454 12 is_stmt 0
	lw	a5,8(a5)
	beq	a5,zero,.L261
	.loc 1 1455 13 is_stmt 1
	.loc 1 1455 20 is_stmt 0
	li	a5,17
.L279:
	.loc 1 1485 20
	sw	a5,0(a0)
.L262:
	.loc 1 1506 5 is_stmt 1
.LVL432:
	.loc 1 1507 1 is_stmt 0
	li	a0,0
.LVL433:
	ret
.LVL434:
.L261:
	.loc 1 1457 13 is_stmt 1
	.loc 1 1457 20 is_stmt 0
	li	a5,1
.L282:
	sw	a5,0(a0)
	.loc 1 1458 13 is_stmt 1
	.loc 1 1458 16 is_stmt 0
	li	a5,8
	bne	a3,a5,.L263
	.loc 1 1459 17 is_stmt 1
	.loc 1 1459 24 is_stmt 0
	li	a5,8
	j	.L279
.L263:
	.loc 1 1460 20 is_stmt 1
	.loc 1 1460 23 is_stmt 0
	li	a5,12
	bne	a3,a5,.L262
	.loc 1 1461 17 is_stmt 1
	.loc 1 1461 24 is_stmt 0
	li	a5,9
	j	.L279
.L260:
	.loc 1 1464 12 is_stmt 1
	.loc 1 1464 15 is_stmt 0
	lui	a2,%hi(.LANCHOR7)
	addi	a2,a2,%lo(.LANCHOR7)
	bne	a4,a2,.L265
	.loc 1 1465 9 is_stmt 1
	.loc 1 1465 12 is_stmt 0
	lw	a5,8(a5)
	beq	a5,zero,.L266
	.loc 1 1466 13 is_stmt 1
	.loc 1 1466 20 is_stmt 0
	li	a5,18
	j	.L279
.L266:
	.loc 1 1468 13 is_stmt 1
	.loc 1 1468 20 is_stmt 0
	li	a5,2
	j	.L282
.L265:
	.loc 1 1475 12 is_stmt 1
	.loc 1 1475 15 is_stmt 0
	lui	a2,%hi(.LANCHOR8)
	addi	a2,a2,%lo(.LANCHOR8)
	bne	a4,a2,.L269
	.loc 1 1476 9 is_stmt 1
	.loc 1 1476 12 is_stmt 0
	lw	a5,8(a5)
	beq	a5,zero,.L270
	.loc 1 1477 13 is_stmt 1
	.loc 1 1477 20 is_stmt 0
	li	a5,19
	j	.L279
.L270:
	.loc 1 1479 13 is_stmt 1
	.loc 1 1479 20 is_stmt 0
	li	a5,3
	j	.L279
.L269:
	.loc 1 1481 12 is_stmt 1
	.loc 1 1481 15 is_stmt 0
	lui	a2,%hi(.LANCHOR2)
	addi	a2,a2,%lo(.LANCHOR2)
	bne	a4,a2,.L271
	.loc 1 1482 9 is_stmt 1
	.loc 1 1482 12 is_stmt 0
	lw	a5,8(a5)
	beq	a5,zero,.L272
	.loc 1 1483 13 is_stmt 1
	.loc 1 1483 20 is_stmt 0
	li	a5,20
	j	.L279
.L272:
	.loc 1 1485 13 is_stmt 1
	.loc 1 1485 20 is_stmt 0
	li	a5,4
	j	.L279
.L271:
	.loc 1 1487 12 is_stmt 1
	.loc 1 1487 15 is_stmt 0
	lui	a2,%hi(.LANCHOR6)
	addi	a2,a2,%lo(.LANCHOR6)
	bne	a4,a2,.L273
	.loc 1 1488 9 is_stmt 1
	.loc 1 1488 12 is_stmt 0
	lw	a5,8(a5)
	beq	a5,zero,.L274
	.loc 1 1489 13 is_stmt 1
	.loc 1 1489 20 is_stmt 0
	li	a5,21
	j	.L279
.L274:
	.loc 1 1491 13 is_stmt 1
	.loc 1 1491 20 is_stmt 0
	li	a5,5
	j	.L282
.L273:
	.loc 1 1498 12 is_stmt 1
	.loc 1 1498 15 is_stmt 0
	lui	a5,%hi(.LANCHOR5)
	addi	a5,a5,%lo(.LANCHOR5)
	bne	a4,a5,.L275
	.loc 1 1499 9 is_stmt 1
	.loc 1 1499 16 is_stmt 0
	li	a5,6
	j	.L279
.L275:
	.loc 1 1500 12 is_stmt 1
	.loc 1 1500 15 is_stmt 0
	lui	a5,%hi(.LANCHOR9)
	addi	a5,a5,%lo(.LANCHOR9)
	bne	a4,a5,.L276
	.loc 1 1501 9 is_stmt 1
	.loc 1 1501 16 is_stmt 0
	li	a5,7
	j	.L279
.L276:
	.loc 1 1503 9 is_stmt 1
	.loc 1 1503 16 is_stmt 0
	sw	zero,0(a0)
	j	.L262
	.cfi_endproc
.LFE81:
	.size	wifi_mgmr_state_get_internal, .-wifi_mgmr_state_get_internal
	.section	.text.wifi_mgmr_set_connect_stat_info,"ax",@progbits
	.align	1
	.globl	wifi_mgmr_set_connect_stat_info
	.type	wifi_mgmr_set_connect_stat_info, @function
wifi_mgmr_set_connect_stat_info:
.LFB82:
	.loc 1 1510 1 is_stmt 1
	.cfi_startproc
.LVL435:
	.loc 1 1511 5
	.loc 1 1512 5
	.loc 1 1512 51 is_stmt 0
	lhu	a4,0(a0)
	.loc 1 1512 46
	lui	a5,%hi(wifiMgmr+4096)
	addi	a5,a5,%lo(wifiMgmr+4096)
	sh	a4,1872(a5)
	.loc 1 1513 5 is_stmt 1
.LVL436:
	lui	a4,%hi(wifiMgmr+6068)
	lui	a5,%hi(wifiMgmr+4096)
	addi	a3,a0,2
	addi	a4,a4,%lo(wifiMgmr+6068)
	addi	a2,a0,8
	addi	a5,a5,%lo(wifiMgmr+4096)
.LVL437:
.L284:
	.loc 1 1514 9 discriminator 3
	.loc 1 1514 59 is_stmt 0 discriminator 3
	lbu	a6,0(a3)
	addi	a3,a3,1
.LVL438:
	addi	a4,a4,1
	.loc 1 1514 47 discriminator 3
	sb	a6,-1(a4)
.LVL439:
	.loc 1 1513 5 discriminator 3
	bne	a3,a2,.L284
	.loc 1 1515 5 is_stmt 1
	.loc 1 1515 49 is_stmt 0
	lhu	a4,20(a0)
	.loc 1 1515 44
	sh	a4,1978(a5)
	.loc 1 1516 5 is_stmt 1
	.loc 1 1516 49 is_stmt 0
	lbu	a4,18(a0)
	.loc 1 1517 43
	sb	a1,1874(a5)
	.loc 1 1516 44
	sb	a4,1980(a5)
	.loc 1 1517 5 is_stmt 1
	.loc 1 1519 5
	.loc 1 1520 5
	.loc 1 1528 6
	.loc 1 1529 5
	.loc 1 1530 5
	.loc 1 1531 5
	.loc 1 1532 1 is_stmt 0
	ret
	.cfi_endproc
.LFE82:
	.size	wifi_mgmr_set_connect_stat_info, .-wifi_mgmr_set_connect_stat_info
	.section	.text.wifi_mgmr_set_country_code_internal,"ax",@progbits
	.align	1
	.globl	wifi_mgmr_set_country_code_internal
	.type	wifi_mgmr_set_country_code_internal, @function
wifi_mgmr_set_country_code_internal:
.LFB83:
	.loc 1 1535 1 is_stmt 1
	.cfi_startproc
.LVL440:
	.loc 1 1536 5
	.loc 1 1535 1 is_stmt 0
	addi	sp,sp,-32
	.cfi_def_cfa_offset 32
	sw	ra,28(sp)
	sw	s0,24(sp)
	.cfi_offset 1, -4
	.cfi_offset 8, -8
	.loc 1 1535 1
	sw	a0,12(sp)
	.loc 1 1536 5
	call	bl_main_set_country_code
.LVL441:
	.loc 1 1537 5 is_stmt 1
	lw	a1,12(sp)
	lui	a0,%hi(wifiMgmr+6078)
	li	a2,3
	addi	a0,a0,%lo(wifiMgmr+6078)
	.loc 1 1538 30 is_stmt 0
	lui	s0,%hi(wifiMgmr+4096)
	.loc 1 1537 5
	call	strncpy
.LVL442:
	.loc 1 1538 5 is_stmt 1
	.loc 1 1538 30 is_stmt 0
	addi	s0,s0,%lo(wifiMgmr+4096)
	sb	zero,1984(s0)
	.loc 1 1539 5 is_stmt 1
	.loc 1 1539 29 is_stmt 0
	call	bl_main_get_channel_nums
.LVL443:
	.loc 1 1539 27
	sw	a0,1988(s0)
	.loc 1 1540 5 is_stmt 1
	.loc 1 1542 5
	.loc 1 1543 1 is_stmt 0
	lw	ra,28(sp)
	.cfi_restore 1
	lw	s0,24(sp)
	.cfi_restore 8
	li	a0,0
	addi	sp,sp,32
	.cfi_def_cfa_offset 0
.LVL444:
	jr	ra
	.cfi_endproc
.LFE83:
	.size	wifi_mgmr_set_country_code_internal, .-wifi_mgmr_set_country_code_internal
	.section	.text.wifi_mgmr_ap_sta_cnt_get_internal,"ax",@progbits
	.align	1
	.globl	wifi_mgmr_ap_sta_cnt_get_internal
	.type	wifi_mgmr_ap_sta_cnt_get_internal, @function
wifi_mgmr_ap_sta_cnt_get_internal:
.LFB84:
	.loc 1 1546 1 is_stmt 1
	.cfi_startproc
.LVL445:
	.loc 1 1547 5
	.loc 1 1546 1 is_stmt 0
	addi	sp,sp,-16
	.cfi_def_cfa_offset 16
	sw	ra,12(sp)
	.cfi_offset 1, -4
	.loc 1 1547 5
	call	bl_main_apm_sta_cnt_get
.LVL446:
	.loc 1 1548 5 is_stmt 1
	.loc 1 1549 1 is_stmt 0
	lw	ra,12(sp)
	.cfi_restore 1
	li	a0,0
	addi	sp,sp,16
	.cfi_def_cfa_offset 0
	jr	ra
	.cfi_endproc
.LFE84:
	.size	wifi_mgmr_ap_sta_cnt_get_internal, .-wifi_mgmr_ap_sta_cnt_get_internal
	.section	.text.wifi_mgmr_ap_sta_info_get_internal,"ax",@progbits
	.align	1
	.globl	wifi_mgmr_ap_sta_info_get_internal
	.type	wifi_mgmr_ap_sta_info_get_internal, @function
wifi_mgmr_ap_sta_info_get_internal:
.LFB85:
	.loc 1 1552 1 is_stmt 1
	.cfi_startproc
.LVL447:
	.loc 1 1553 5
	.loc 1 1554 5
	.loc 1 1552 1 is_stmt 0
	addi	sp,sp,-48
	.cfi_def_cfa_offset 48
	sw	s0,40(sp)
	sw	s1,36(sp)
	.cfi_offset 8, -8
	.cfi_offset 9, -12
	mv	s0,a0
	mv	s1,a1
	.loc 1 1554 5
	li	a2,24
	li	a1,0
.LVL448:
	addi	a0,sp,8
.LVL449:
	.loc 1 1552 1
	sw	ra,44(sp)
	.cfi_offset 1, -4
	.loc 1 1554 5
	call	memset
.LVL450:
	.loc 1 1555 5 is_stmt 1
	mv	a1,s1
	addi	a0,sp,8
	call	bl_main_apm_sta_info_get
.LVL451:
	.loc 1 1556 5
	.loc 1 1557 5
	.loc 1 1556 32 is_stmt 0
	lhu	a5,8(sp)
	.loc 1 1562 5
	addi	a1,sp,10
	addi	a0,s0,2
	.loc 1 1556 32
	sh	a5,0(s0)
	.loc 1 1558 5 is_stmt 1
	.loc 1 1558 29 is_stmt 0
	lw	a5,24(sp)
	.loc 1 1562 5
	li	a2,6
	.loc 1 1558 29
	sw	a5,16(s0)
	.loc 1 1559 5 is_stmt 1
	.loc 1 1559 30 is_stmt 0
	lw	a5,20(sp)
	sw	a5,12(s0)
	.loc 1 1560 5 is_stmt 1
	.loc 1 1560 30 is_stmt 0
	lw	a5,16(sp)
	sw	a5,8(s0)
	.loc 1 1561 5 is_stmt 1
	.loc 1 1561 34 is_stmt 0
	lbu	a5,28(sp)
	sb	a5,20(s0)
	.loc 1 1562 5 is_stmt 1
	call	memcpy
.LVL452:
	.loc 1 1563 5
	.loc 1 1564 1 is_stmt 0
	lw	ra,44(sp)
	.cfi_restore 1
	lw	s0,40(sp)
	.cfi_restore 8
.LVL453:
	lw	s1,36(sp)
	.cfi_restore 9
	li	a0,0
	addi	sp,sp,48
	.cfi_def_cfa_offset 0
	jr	ra
	.cfi_endproc
.LFE85:
	.size	wifi_mgmr_ap_sta_info_get_internal, .-wifi_mgmr_ap_sta_info_get_internal
	.section	.text.wifi_mgmr_ap_sta_delete_internal,"ax",@progbits
	.align	1
	.globl	wifi_mgmr_ap_sta_delete_internal
	.type	wifi_mgmr_ap_sta_delete_internal, @function
wifi_mgmr_ap_sta_delete_internal:
.LFB86:
	.loc 1 1567 1 is_stmt 1
	.cfi_startproc
.LVL454:
	.loc 1 1568 5
	.loc 1 1567 1 is_stmt 0
	addi	sp,sp,-16
	.cfi_def_cfa_offset 16
	sw	ra,12(sp)
	.cfi_offset 1, -4
	.loc 1 1568 5
	call	bl_main_apm_sta_delete
.LVL455:
	.loc 1 1569 5 is_stmt 1
	.loc 1 1570 1 is_stmt 0
	lw	ra,12(sp)
	.cfi_restore 1
	li	a0,0
	addi	sp,sp,16
	.cfi_def_cfa_offset 0
	jr	ra
	.cfi_endproc
.LFE86:
	.size	wifi_mgmr_ap_sta_delete_internal, .-wifi_mgmr_ap_sta_delete_internal
	.section	.text.wifi_mgmr_scan_complete_notify,"ax",@progbits
	.align	1
	.globl	wifi_mgmr_scan_complete_notify
	.type	wifi_mgmr_scan_complete_notify, @function
wifi_mgmr_scan_complete_notify:
.LFB87:
	.loc 1 1573 1 is_stmt 1
	.cfi_startproc
	.loc 1 1574 5
	.loc 1 1573 1 is_stmt 0
	addi	sp,sp,-16
	.cfi_def_cfa_offset 16
	sw	ra,12(sp)
	.cfi_offset 1, -4
	.loc 1 1574 5
	call	wifi_mgmr_scan_complete_callback
.LVL456:
	.loc 1 1575 5 is_stmt 1
	.loc 1 1576 1 is_stmt 0
	lw	ra,12(sp)
	.cfi_restore 1
	li	a0,0
	addi	sp,sp,16
	.cfi_def_cfa_offset 0
	jr	ra
	.cfi_endproc
.LFE87:
	.size	wifi_mgmr_scan_complete_notify, .-wifi_mgmr_scan_complete_notify
	.comm	wifiMgmr,6100,4
	.section	.data.__compound_literal.0,"aw"
	.align	2
	.type	__compound_literal.0, @object
	.size	__compound_literal.0, 240
__compound_literal.0:
	.word	2
	.word	24
	.word	stateGlobalGuard_scan_beacon
	.word	stateGlobalAction
	.word	stateIdle
	.word	2
	.word	28
	.word	stateGlobalGuard_disable_autoreconnect
	.word	stateGlobalAction
	.word	stateIdle
	.word	2
	.word	29
	.word	stateGlobalGuard_enable_autoreconnect
	.word	stateGlobalAction
	.word	stateIdle
	.word	1
	.word	8
	.word	stateGlobalGuard_AP
	.word	stateGlobalAction
	.word	stateIdle
	.word	1
	.word	9
	.word	stateGlobalGuard_stop
	.word	stateGlobalAction
	.word	stateIdle
	.word	1
	.word	10
	.word	stateGlobalGuard_conf_max_sta
	.word	stateGlobalAction
	.word	stateIdle
	.word	1
	.word	12
	.word	stateGlobalGuard_denoise
	.word	stateGlobalAction
	.word	stateIdle
	.word	0
	.word	15
	.word	stateGlobalGuard_fw_disconnect
	.word	stateGlobalAction
	.word	stateIdle
	.word	0
	.word	16
	.word	stateGlobalGuard_fw_powersaving
	.word	stateGlobalAction
	.word	stateIdle
	.word	0
	.word	18
	.word	stateGlobalGuard_fw_scan
	.word	stateGlobalAction
	.word	stateIdle
	.word	0
	.word	21
	.word	stateSnifferGuard_raw_send
	.word	stateGlobalAction
	.word	stateIdle
	.word	0
	.word	22
	.word	stateGlobal_cfg_req
	.word	stateGlobalAction
	.word	stateIdle
	.section	.data.__compound_literal.1,"aw"
	.align	2
	.type	__compound_literal.1, @object
	.size	__compound_literal.1, 40
__compound_literal.1:
	.word	1
	.word	0
	.word	stateSnifferGuard
	.word	stateSnifferAction
	.word	stateIdle
	.word	0
	.word	17
	.word	stateSnifferGuard_ChannelSet
	.word	stateSnifferAction
	.word	stateIdle
	.section	.data.__compound_literal.2,"aw"
	.align	2
	.type	__compound_literal.2, @object
	.size	__compound_literal.2, 40
__compound_literal.2:
	.word	0
	.word	20
	.word	stateConnectingGuard
	.word	stateConnectingAction_connected
	.word	stateConnectedIPNo
	.word	0
	.word	19
	.word	stateConnectingGuard
	.word	stateConnectingAction_disconnect
	.word	stateDisconnect
	.section	.data.__compound_literal.3,"aw"
	.align	2
	.type	__compound_literal.3, @object
	.size	__compound_literal.3, 40
__compound_literal.3:
	.word	1
	.word	1
	.word	stateIdleGuard_connect
	.word	stateIdleAction_connect
	.word	stateConnecting
	.word	1
	.word	2
	.word	stateIdleGuard_sniffer
	.word	stateIdleAction_sniffer
	.word	stateSniffer
	.section	.data.__compound_literal.4,"aw"
	.align	2
	.type	__compound_literal.4, @object
	.size	__compound_literal.4, 20
__compound_literal.4:
	.word	1
	.word	7
	.word	stateIfaceDownGuard_phyup
	.word	stateIfaceDownAction_phyup
	.word	stateIdle
	.section	.data.__compound_literal.5,"aw"
	.align	2
	.type	__compound_literal.5, @object
	.size	__compound_literal.5, 60
__compound_literal.5:
	.word	1
	.word	4
	.word	stateConnectedIPNoGuard
	.word	stateConnectedIPNoAction_ipgot
	.word	stateConnectedIPYes
	.word	1
	.word	5
	.word	stateConnectedIPNoGuard_disconnect
	.word	stateConnectedIPNoAction_disconnect
	.word	stateDisconnect
	.word	0
	.word	19
	.word	stateConnectedIPNoGuard
	.word	stateConnectedIPNoAction_disconnect
	.word	stateDisconnect
	.section	.data.__compound_literal.6,"aw"
	.align	2
	.type	__compound_literal.6, @object
	.size	__compound_literal.6, 80
__compound_literal.6:
	.word	2
	.word	30
	.word	stateConnectedIPYesGuard_ip_update
	.word	stateConnectedIPYes_action
	.word	stateConnectedIPNo
	.word	1
	.word	5
	.word	stateConnectedIPYesGuard_disconnect
	.word	stateConnectedIPYes_action
	.word	stateDisconnect
	.word	1
	.word	11
	.word	stateConnectedIPYesGuard_rcconfig
	.word	stateConnectedIPYes_action
	.word	stateDisconnect
	.word	0
	.word	19
	.word	stateConnectedIPYesGuard
	.word	stateConnectedIPYes_action
	.word	stateDisconnect
	.section	.data.__compound_literal.7,"aw"
	.align	2
	.type	__compound_literal.7, @object
	.size	__compound_literal.7, 40
__compound_literal.7:
	.word	1
	.word	6
	.word	stateDisconnect_guard
	.word	stateDisconnect_action_reconnect
	.word	stateConnecting
	.word	1
	.word	0
	.word	stateDisconnect_guard
	.word	stateDisconnect_action_idle
	.word	stateIdle
	.section	.data.stateConnectedIPNo_data,"aw"
	.align	2
	.type	stateConnectedIPNo_data, @object
	.size	stateConnectedIPNo_data, 76
stateConnectedIPNo_data:
	.string	"wifiConnected_ipObtaining"
	.zero	6
	.zero	44
	.section	.data.stateDisconnect_data,"aw"
	.align	2
	.type	stateDisconnect_data, @object
	.size	stateDisconnect_data, 264
stateDisconnect_data:
	.string	"disconnect"
	.zero	21
	.zero	232
	.section	.data.state_tsen_reload_data,"aw"
	.align	2
	.set	.LANCHOR11,. + 0
	.type	state_tsen_reload_data, @object
	.size	state_tsen_reload_data, 76
state_tsen_reload_data:
	.string	"wifi tsen reload"
	.zero	15
	.zero	44
	.section	.rodata.__func__.5984,"a"
	.align	2
	.set	.LANCHOR0,. + 0
	.type	__func__.5984, @object
	.size	__func__.5984, 20
__func__.5984:
	.string	"stateGlobalGuard_AP"
	.section	.rodata.__func__.6024,"a"
	.align	2
	.set	.LANCHOR3,. + 0
	.type	__func__.6024, @object
	.size	__func__.6024, 23
__func__.6024:
	.string	"stateIdleGuard_connect"
	.section	.rodata.disconnect_retry.str1.4,"aMS",@progbits,1
	.align	2
.LC34:
	.string	"[WF][SM] Retry Again --->>> retry Abort, since profile copy failed\r\n"
	.zero	3
.LC35:
	.string	"[WF][SM] Retry Again --->>> retry connect\r\n"
	.section	.rodata.ip_obtaining_timeout.str1.4,"aMS",@progbits,1
	.align	2
.LC15:
	.string	"[WF][SM] IP obtaining timeout\r\n"
	.section	.rodata.printErrMsg.str1.4,"aMS",@progbits,1
	.align	2
.LC0:
	.string	"ENTERED ERROR STATE!"
	.section	.rodata.stateConnectedIPNo,"a"
	.align	2
	.set	.LANCHOR8,. + 0
	.type	stateConnectedIPNo, @object
	.size	stateConnectedIPNo, 28
stateConnectedIPNo:
	.word	stateGlobal
	.word	0
	.word	__compound_literal.5
	.word	3
	.word	stateConnectedIPNo_data
	.word	stateConnectedIPNoEnter
	.word	stateConnectedIPNoExit
	.section	.rodata.stateConnectedIPNoAction_ipgot.str1.4,"aMS",@progbits,1
	.align	2
.LC3:
	.string	"[WF][SM] IP GOT IP:%u.%u.%u.%u, MASK: %u.%u.%u.%u, Gateway: %u.%u.%u.%u, dns1: %u.%u.%u.%u, dns2: %u.%u.%u.%u\r\n"
	.section	.rodata.stateConnectedIPNoEnter.str1.4,"aMS",@progbits,1
	.align	2
.LC16:
	.string	"wifi IP obtaining"
	.zero	2
.LC17:
	.string	"[WF][SM] Static IP Starting...%p\r\n"
	.zero	1
.LC18:
	.string	"[WF][SM] DHCP Starting...%p\r\n"
	.section	.rodata.stateConnectedIPYes,"a"
	.align	2
	.set	.LANCHOR2,. + 0
	.type	stateConnectedIPYes, @object
	.size	stateConnectedIPYes, 28
stateConnectedIPYes:
	.word	stateGlobal
	.word	0
	.word	__compound_literal.6
	.word	4
	.word	.LC72
	.word	stateConnectedIPYes_enter
	.word	stateConnectedIPYes_exit
	.section	.rodata.stateConnectedIPYesGuard_rcconfig.str1.4,"aMS",@progbits,1
	.align	2
.LC19:
	.string	"[WF][SM] rate config, use sta_idx 0, rate_config %04X\r\n"
	.section	.rodata.stateConnecting,"a"
	.align	2
	.set	.LANCHOR7,. + 0
	.type	stateConnecting, @object
	.size	stateConnecting, 28
stateConnecting:
	.word	stateGlobal
	.word	0
	.word	__compound_literal.2
	.word	2
	.word	.LC73
	.word	stateConnectingEnter
	.word	stateConnectingExit
	.section	.rodata.stateDisconnect,"a"
	.align	2
	.set	.LANCHOR6,. + 0
	.type	stateDisconnect, @object
	.size	stateDisconnect, 28
stateDisconnect:
	.word	stateGlobal
	.word	0
	.word	__compound_literal.7
	.word	2
	.word	stateDisconnect_data
	.word	stateDisconnect_enter
	.word	stateDisconnect_exit
	.section	.rodata.stateDisconnect_action_idle.str1.4,"aMS",@progbits,1
	.align	2
.LC6:
	.string	"[WF][SM] Removing STA interface...\r\n"
	.section	.rodata.stateDisconnect_action_reconnect.str1.4,"aMS",@progbits,1
	.align	2
.LC7:
	.string	"[WF][SM]  Action Connect\r\n"
	.zero	1
.LC8:
	.string	"           ssid %s\r\n"
	.zero	3
.LC9:
	.string	"           ssid len %u\r\n"
	.zero	3
.LC10:
	.string	"           psk %s\r\n"
.LC11:
	.string	"           psk len %u\r\n"
.LC12:
	.string	"           pmk %s\r\n"
.LC13:
	.string	"           pmk len %u\r\n"
.LC14:
	.string	"           mac %02X:%02X:%02X:%02X:%02X:%02X\r\n"
	.section	.rodata.stateDisconnect_enter.str1.4,"aMS",@progbits,1
	.align	2
.LC47:
	.string	"wifi disconnect"
.LC48:
	.string	"[WF][SM] Will retry in 2000 ticks\r\n"
.LC49:
	.string	"[WF][SM] Will NOT retry connect\r\n"
	.zero	2
.LC50:
	.string	"[WF][SM] Pending Scan Sent\r\n"
	.section	.rodata.stateDisconnect_exit.str1.4,"aMS",@progbits,1
	.align	2
.LC32:
	.string	"Delete Timer.\r\n"
.LC33:
	.string	"Delete Timer Skipped\r\n"
	.section	.rodata.stateError,"a"
	.align	2
	.set	.LANCHOR10,. + 0
	.type	stateError, @object
	.size	stateError, 28
stateError:
	.zero	20
	.word	printErrMsg
	.zero	4
	.section	.rodata.stateGlobal,"a"
	.align	2
	.type	stateGlobal, @object
	.size	stateGlobal, 28
stateGlobal:
	.word	0
	.word	0
	.word	__compound_literal.0
	.word	12
	.word	.LC75
	.word	stateGlobalEnter
	.word	stateGlobalExit
	.section	.rodata.stateGlobalAction.str1.4,"aMS",@progbits,1
	.align	2
.LC5:
	.string	"[WF][SM] Global Action\r\n"
	.section	.rodata.stateGlobalEnter.str1.4,"aMS",@progbits,1
	.align	2
.LC4:
	.string	"[WF][SM] Entering %s state\r\n"
	.section	.rodata.stateGlobalGuard_AP.str1.4,"aMS",@progbits,1
	.align	2
.LC28:
	.string	"[WF][SM] %s: add AP iface failed\r\n"
	.zero	1
.LC29:
	.string	"[WF][SM] start AP with ssid %s;\r\n"
	.zero	2
.LC30:
	.string	"[WF][SM]               pwd  %s;\r\n"
	.zero	2
.LC31:
	.string	"[WF][SM]               channel  %ld;\r\n"
	.section	.rodata.stateGlobalGuard_conf_max_sta.str1.4,"aMS",@progbits,1
	.align	2
.LC27:
	.string	"[WF][SM] Conf max sta supported %lu...\r\n"
	.section	.rodata.stateGlobalGuard_disable_autoreconnect.str1.4,"aMS",@progbits,1
	.align	2
.LC45:
	.string	"Disable Autoreconnect in Disconnec State\r\n"
	.zero	1
.LC46:
	.string	"Disable Auto Reconnect\r\n"
	.section	.rodata.stateGlobalGuard_enable_autoreconnect.str1.4,"aMS",@progbits,1
	.align	2
.LC44:
	.string	"Enable Auto Reconnect\r\n"
	.section	.rodata.stateGlobalGuard_fw_disconnect.str1.4,"aMS",@progbits,1
	.align	2
.LC36:
	.string	"Disconnect CMD\r\n"
	.section	.rodata.stateGlobalGuard_fw_powersaving.str1.4,"aMS",@progbits,1
	.align	2
.LC26:
	.string	"------>>>>>> Powersaving CMD, mode: %u\r\n"
	.section	.rodata.stateGlobalGuard_fw_scan.str1.4,"aMS",@progbits,1
	.align	2
.LC51:
	.string	"------>>>>>> Scan CMD Pending\r\n"
.LC52:
	.string	"------>>>>>> FW busy\r\n"
	.zero	1
.LC53:
	.string	"------>>>>>> Scan CMD\r\n"
	.section	.rodata.stateGlobalGuard_stop.str1.4,"aMS",@progbits,1
	.align	2
.LC39:
	.string	"[WF][SM] Stoping AP interface...\r\n"
	.zero	1
.LC40:
	.string	"[WF][SM] Removing and deauth all sta client...\r\n"
	.zero	3
.LC41:
	.string	"[WF][SM] Removing AP interface...\r\n"
.LC42:
	.string	"[WF][SM] Stopping DHCP on AP interface...\r\n"
.LC43:
	.string	"[WF][SM] Removing ETH interface ...\r\n"
	.section	.rodata.stateIdle,"a"
	.align	2
	.set	.LANCHOR4,. + 0
	.type	stateIdle, @object
	.size	stateIdle, 28
stateIdle:
	.word	stateGlobal
	.word	0
	.word	__compound_literal.3
	.word	2
	.word	.LC74
	.word	stateIdleEnter
	.word	stateIdleExit
	.section	.rodata.stateIdleAction_connect.str1.4,"aMS",@progbits,1
	.align	2
.LC20:
	.string	"true"
	.zero	3
.LC21:
	.string	"false"
	.zero	2
.LC22:
	.string	"[WF][SM] Action Connect\r\n"
	.zero	2
.LC23:
	.string	"           channel band %d\r\n"
	.zero	3
.LC24:
	.string	"           channel freq %d\r\n"
	.zero	3
.LC25:
	.string	"           dhcp status: %s\r\n"
	.section	.rodata.stateIdleGuard_connect.str1.4,"aMS",@progbits,1
	.align	2
.LC37:
	.string	"[WF][SM] %s: add STA iface failed\r\n"
	.section	.rodata.stateIfaceDown,"a"
	.align	2
	.set	.LANCHOR5,. + 0
	.type	stateIfaceDown, @object
	.size	stateIfaceDown, 28
stateIfaceDown:
	.word	stateGlobal
	.word	0
	.word	__compound_literal.4
	.word	1
	.word	.LC71
	.word	stateIfaceDownEnter
	.word	stateIfaceDownExit
	.section	.rodata.stateIfaceDownGuard_phyup.str1.4,"aMS",@progbits,1
	.align	2
.LC38:
	.string	"[WF][SM] state mismatch\r\n"
	.section	.rodata.stateSniffer,"a"
	.align	2
	.set	.LANCHOR9,. + 0
	.type	stateSniffer, @object
	.size	stateSniffer, 28
stateSniffer:
	.word	stateGlobal
	.word	0
	.word	__compound_literal.1
	.word	2
	.word	.LC70
	.word	stateSnifferEnter
	.word	stateSnifferExit
	.section	.rodata.stateSnifferAction.str1.4,"aMS",@progbits,1
	.align	2
.LC2:
	.string	"[WF][SM] State Action ###%s### --->>> ###%s###\r\n"
	.section	.rodata.stateSnifferExit.str1.4,"aMS",@progbits,1
	.align	2
.LC1:
	.string	"[WF][SM] Exiting %s state\r\n"
	.section	.rodata.str1.4,"aMS",@progbits,1
	.align	2
.LC70:
	.string	"sniffer"
.LC71:
	.string	"ifaceDown"
	.zero	2
.LC72:
	.string	"wifiConnected_IPOK"
	.zero	1
.LC73:
	.string	"connecting"
	.zero	1
.LC74:
	.string	"idle"
	.zero	3
.LC75:
	.string	"group"
	.section	.rodata.wifi_mgmr_auth_to_str.str1.4,"aMS",@progbits,1
	.align	2
.LC54:
	.string	"Open"
	.zero	3
.LC55:
	.string	"Unknown"
.LC56:
	.string	"WPA-PSK"
.LC57:
	.string	"WPA2-PSK"
	.zero	3
.LC58:
	.string	"WPA2-PSK/WPA-PSK"
	.zero	3
.LC59:
	.string	"WPA/WPA2-Enterprise"
.LC60:
	.string	"WEP"
	.section	.rodata.wifi_mgmr_cipher_to_str.str1.4,"aMS",@progbits,1
	.align	2
.LC61:
	.string	"TKIP"
	.zero	3
.LC62:
	.string	"TKIP/AES"
	.zero	3
.LC63:
	.string	"NONE"
	.zero	3
.LC64:
	.string	"AES"
	.section	.rodata.wifi_mgmr_event_notify.str1.4,"aMS",@progbits,1
	.align	2
.LC65:
	.string	"Wait Wi-Fi Mgmr Start up...\r\n"
	.zero	2
.LC66:
	.string	"Failed when send msg 0x%p, len dec:%u\r\n"
	.section	.rodata.wifi_mgmr_start.str1.4,"aMS",@progbits,1
	.align	2
.LC67:
	.string	"[WF][SM] reload tsen \r\n"
.LC68:
	.string	"wifi reload tsen"
	.section	.rodata.wifi_mgmr_start_background.str1.4,"aMS",@progbits,1
	.align	2
.LC69:
	.string	"wifi_mgmr"
	.section	.sbss.auto_repeat,"aw",@nobits
	.align	2
	.set	.LANCHOR1,. + 0
	.type	auto_repeat, @object
	.size	auto_repeat, 4
auto_repeat:
	.zero	4
	.text
.Letext0:
	.file 2 "/b-l/bl_iot_sdk_new/toolchain/riscv/Linux/lib/gcc/riscv64-unknown-elf/8.3.0/include/stdint-gcc.h"
	.file 3 "/b-l/bl_iot_sdk_new/toolchain/riscv/Linux/lib/gcc/riscv64-unknown-elf/8.3.0/include/stddef.h"
	.file 4 "/b-l/bl_iot_sdk_new/toolchain/riscv/Linux/riscv64-unknown-elf/include/sys/_types.h"
	.file 5 "/b-l/bl_iot_sdk_new/toolchain/riscv/Linux/riscv64-unknown-elf/include/sys/reent.h"
	.file 6 "/b-l/bl_iot_sdk_new/toolchain/riscv/Linux/riscv64-unknown-elf/include/sys/lock.h"
	.file 7 "/b-l/bl_iot_sdk_new/toolchain/riscv/Linux/riscv64-unknown-elf/include/stdlib.h"
	.file 8 "/b-l/bl_iot_sdk_new/components/network/lwip/src/include/lwip/arch.h"
	.file 9 "/b-l/bl_iot_sdk_new/toolchain/riscv/Linux/riscv64-unknown-elf/include/ctype.h"
	.file 10 "/b-l/bl_iot_sdk_new/components/network/lwip/src/include/lwip/err.h"
	.file 11 "/b-l/bl_iot_sdk_new/components/bl602/freertos_riscv_ram/config/projdefs.h"
	.file 12 "/b-l/bl_iot_sdk_new/components/bl602/freertos_riscv_ram/portable/GCC/RISC-V/portmacro.h"
	.file 13 "/b-l/bl_iot_sdk_new/components/bl602/freertos_riscv_ram/config/FreeRTOS.h"
	.file 14 "/b-l/bl_iot_sdk_new/components/bl602/freertos_riscv_ram/config/task.h"
	.file 15 "/b-l/bl_iot_sdk_new/components/network/lwip/src/include/lwip/ip4_addr.h"
	.file 16 "/b-l/bl_iot_sdk_new/components/network/lwip/src/include/lwip/ip_addr.h"
	.file 17 "/b-l/bl_iot_sdk_new/components/network/lwip/src/include/lwip/pbuf.h"
	.file 18 "/b-l/bl_iot_sdk_new/components/network/lwip/src/include/lwip/mem.h"
	.file 19 "/b-l/bl_iot_sdk_new/components/network/lwip/src/include/lwip/priv/memp_priv.h"
	.file 20 "/b-l/bl_iot_sdk_new/components/network/lwip/src/include/lwip/stats.h"
	.file 21 "/b-l/bl_iot_sdk_new/components/network/lwip/src/include/lwip/memp.h"
	.file 22 "/b-l/bl_iot_sdk_new/components/network/lwip/src/include/lwip/netif.h"
	.file 23 "/b-l/bl_iot_sdk_new/components/network/lwip/src/include/lwip/prot/ip4.h"
	.file 24 "/b-l/bl_iot_sdk_new/components/network/lwip/src/include/lwip/ip.h"
	.file 25 "/b-l/bl_iot_sdk_new/components/network/lwip/src/include/lwip/udp.h"
	.file 26 "/b-l/bl_iot_sdk_new/components/network/lwip/src/include/lwip/timeouts.h"
	.file 27 "/b-l/bl_iot_sdk_new/components/network/lwip/src/include/lwip/dns.h"
	.file 28 "/b-l/bl_iot_sdk_new/components/stage/yloop/include/aos/yloop.h"
	.file 29 "/b-l/bl_iot_sdk_new/components/bl602/bl602_wifidrv/bl60x_wifi_driver/bl_main.h"
	.file 30 "/b-l/bl_iot_sdk_new/components/bl602/bl602_wifidrv/bl60x_wifi_driver/include/wifi_mgmr_ext.h"
	.file 31 "/b-l/bl_iot_sdk_new/components/bl602/bl602_wifidrv/bl60x_wifi_driver/stateMachine.h"
	.file 32 "/b-l/bl_iot_sdk_new/components/bl602/freertos_riscv_ram/config/timers.h"
	.file 33 "/b-l/bl_iot_sdk_new/components/bl602/freertos_riscv_ram/config/stream_buffer.h"
	.file 34 "/b-l/bl_iot_sdk_new/components/bl602/freertos_riscv_ram/config/message_buffer.h"
	.file 35 "/b-l/bl_iot_sdk_new/components/bl602/bl602_wifidrv/bl60x_wifi_driver/os_hal.h"
	.file 36 "/b-l/bl_iot_sdk_new/components/bl602/bl602_wifidrv/bl60x_wifi_driver/wifi_mgmr.h"
	.file 37 "/b-l/bl_iot_sdk_new/toolchain/riscv/Linux/riscv64-unknown-elf/include/string.h"
	.file 38 "/b-l/bl_iot_sdk_new/toolchain/riscv/Linux/riscv64-unknown-elf/include/stdio.h"
	.file 39 "/b-l/bl_iot_sdk_new/components/hal_drv/bl602_hal/bl_adc.h"
	.file 40 "/b-l/bl_iot_sdk_new/components/bl602/bl602_wifidrv/bl60x_wifi_driver/wifi_mgmr_event.h"
	.file 41 "/b-l/bl_iot_sdk_new/components/hal_drv/bl602_hal/hal_sys.h"
	.file 42 "/b-l/bl_iot_sdk_new/components/bl602/bl602_wifidrv/bl60x_wifi_driver/wifi_mgmr_profile.h"
	.file 43 "/b-l/bl_iot_sdk_new/components/bl602/bl602_wifi/include/bl60x_fw_api.h"
	.file 44 "/b-l/bl_iot_sdk_new/components/network/lwip/src/include/lwip/netifapi.h"
	.file 45 "/b-l/bl_iot_sdk_new/components/bl602/bl602_wifidrv/bl60x_wifi_driver/wifi_netif.h"
	.file 46 "/b-l/bl_iot_sdk_new/components/bl602/bl602_wifidrv/bl60x_wifi_driver/wifi_mgmr_api.h"
	.file 47 "/b-l/bl_iot_sdk_new/components/network/dns_server/include/dns_server.h"