	.file	"wifi_mgmr_profile.c"
	.option nopic
	.attribute arch, "rv32i2p0_m2p0_f2p0_c2p0"
	.attribute unaligned_access, 0
	.attribute stack_align, 16
	.text
.Ltext0:
	.cfi_sections	.debug_frame
	.section	.text.wifi_mgmr_profile_add,"ax",@progbits
	.align	1
	.globl	wifi_mgmr_profile_add
	.type	wifi_mgmr_profile_add, @function
wifi_mgmr_profile_add:
.LFB6:
	.file 1 "/b-l/bl_iot_sdk_new/components/bl602/bl602_wifidrv/bl60x_wifi_driver/wifi_mgmr_profile.c"
	.loc 1 37 1
	.cfi_startproc
.LVL0:
	.loc 1 38 5
	.loc 1 39 5
	.loc 1 41 5
	.loc 1 43 5
	.loc 1 37 1 is_stmt 0
	addi	sp,sp,-16
	.cfi_def_cfa_offset 16
	sw	s1,4(sp)
	sw	ra,12(sp)
	sw	s0,8(sp)
	.cfi_offset 9, -12
	.cfi_offset 1, -4
	.cfi_offset 8, -8
	.loc 1 43 8
	li	a4,-1
	.loc 1 37 1
	mv	s1,a1
	.loc 1 43 8
	beq	a2,a4,.L2
.LVL1:
	.loc 1 49 13 is_stmt 1
	.loc 1 49 16 is_stmt 0
	lbu	a4,433(a0)
	beq	a4,zero,.L6
.LVL2:
	.loc 1 49 13 is_stmt 1
	.loc 1 49 16 is_stmt 0
	lbu	a4,629(a0)
	.loc 1 59 16
	li	a2,-1
.LVL3:
	.loc 1 49 16
	bne	a4,zero,.L4
	.loc 1 48 76
	li	a1,1
.LVL4:
	j	.L3
.LVL5:
.L2:
	.loc 1 45 9 is_stmt 1
	.loc 1 45 17 is_stmt 0
	addi	s0,a0,240
.LVL6:
	.loc 1 58 5 is_stmt 1
	.loc 1 58 8 is_stmt 0
	bne	s0,zero,.L5
.LVL7:
.L4:
	.loc 1 75 1
	lw	ra,12(sp)
	.cfi_remember_state
	.cfi_restore 1
	lw	s0,8(sp)
	.cfi_restore 8
	lw	s1,4(sp)
	.cfi_restore 9
.LVL8:
	mv	a0,a2
	addi	sp,sp,16
	.cfi_def_cfa_offset 0
	jr	ra
.LVL9:
.L6:
	.cfi_restore_state
	.loc 1 48 16
	li	a1,0
.LVL10:
.L3:
	.loc 1 50 17 is_stmt 1
	.loc 1 50 25 is_stmt 0
	li	s0,196
	mul	s0,a1,s0
	.loc 1 52 44
	sw	a1,632(a0)
	.loc 1 50 25
	addi	s0,s0,240
	add	s0,a0,s0
.LVL11:
	.loc 1 52 17 is_stmt 1
	.loc 1 53 17
	lui	a0,%hi(.LC0)
.LVL12:
	addi	a0,a0,%lo(.LC0)
	call	printf
.LVL13:
	.loc 1 54 17
	.loc 1 58 5
.L5:
	.loc 1 61 5
	li	a2,196
	li	a1,0
	mv	a0,s0
	call	memset
.LVL14:
	.loc 1 62 5
	.loc 1 63 5
	.loc 1 63 23 is_stmt 0
	li	a5,256
	sh	a5,192(s0)
	.loc 1 64 5 is_stmt 1
	.loc 1 64 36 is_stmt 0
	lbu	a4,34(s1)
	lbu	a5,33(s1)
	.loc 1 68 5
	li	a2,33
	.loc 1 64 36
	slli	a4,a4,8
	or	a4,a4,a5
	lbu	a5,35(s1)
	.loc 1 68 5
	mv	a1,s1
	mv	a0,s0
	.loc 1 64 36
	slli	a5,a5,16
	or	a4,a5,a4
	lbu	a5,36(s1)
	slli	a5,a5,24
	or	a5,a5,a4
	.loc 1 64 23
	sw	a5,36(s0)
	.loc 1 65 5 is_stmt 1
	.loc 1 65 35 is_stmt 0
	lbu	a4,168(s1)
	lbu	a5,167(s1)
	slli	a4,a4,8
	or	a4,a4,a5
	lbu	a5,169(s1)
	slli	a5,a5,16
	or	a4,a5,a4
	lbu	a5,170(s1)
	slli	a5,a5,24
	or	a5,a5,a4
	.loc 1 65 22
	sw	a5,108(s0)
	.loc 1 66 5 is_stmt 1
	.loc 1 66 35 is_stmt 0
	lbu	a4,172(s1)
	lbu	a5,171(s1)
	slli	a4,a4,8
	or	a4,a4,a5
	lbu	a5,173(s1)
	slli	a5,a5,16
	or	a4,a5,a4
	lbu	a5,174(s1)
	slli	a5,a5,24
	or	a5,a5,a4
	.loc 1 66 22
	sw	a5,180(s0)
	.loc 1 67 5 is_stmt 1
	.loc 1 67 23 is_stmt 0
	li	a5,-1
	sb	a5,191(s0)
	.loc 1 68 5 is_stmt 1
	call	memcpy
.LVL15:
	.loc 1 69 5
	li	a2,65
	addi	a1,s1,37
	addi	a0,s0,40
	call	memcpy
.LVL16:
	.loc 1 70 5
	li	a2,65
	addi	a1,s1,102
	addi	a0,s0,112
	call	memcpy
.LVL17:
	.loc 1 71 5
	li	a2,6
	addi	a1,s1,175
	addi	a0,s0,184
	call	memcpy
.LVL18:
	.loc 1 72 5
	.loc 1 72 36 is_stmt 0
	lbu	a5,184(s1)
	.loc 1 74 12
	li	a2,0
	.loc 1 72 23
	sb	a5,190(s0)
	.loc 1 74 5 is_stmt 1
	.loc 1 74 12 is_stmt 0
	j	.L4
	.cfi_endproc
.LFE6:
	.size	wifi_mgmr_profile_add, .-wifi_mgmr_profile_add
	.section	.text.wifi_mgmr_profile_del,"ax",@progbits
	.align	1
	.globl	wifi_mgmr_profile_del
	.type	wifi_mgmr_profile_del, @function
wifi_mgmr_profile_del:
.LFB7:
	.loc 1 78 1 is_stmt 1
	.cfi_startproc
.LVL19:
	.loc 1 79 5
	.loc 1 80 5
	.loc 1 82 5
	.loc 1 83 5
	.loc 1 84 9
	.loc 1 78 1 is_stmt 0
	addi	sp,sp,-32
	.cfi_def_cfa_offset 32
	sw	s0,24(sp)
	sw	s2,16(sp)
	sw	s3,12(sp)
	sw	ra,28(sp)
	sw	s1,20(sp)
	.cfi_offset 8, -8
	.cfi_offset 18, -16
	.cfi_offset 19, -20
	.cfi_offset 1, -4
	.cfi_offset 9, -12
	.loc 1 84 12
	lbu	a4,433(a0)
	li	a5,1
	.loc 1 78 1
	mv	s0,a0
	mv	s3,a1
	mv	s2,a2
	.loc 1 84 12
	bne	a4,a5,.L13
	.loc 1 84 43
	lw	a5,276(a0)
	bne	a2,a5,.L13
	.loc 1 86 46
	addi	s1,a0,240
	.loc 1 86 22
	mv	a0,s1
.LVL20:
	call	memcmp
.LVL21:
	mv	a1,a0
	.loc 1 85 51
	beq	a0,zero,.L14
.L13:
.LVL22:
	.loc 1 84 9 is_stmt 1
	.loc 1 84 12 is_stmt 0
	lbu	a4,629(s0)
	li	a5,1
	bne	a4,a5,.L15
	.loc 1 84 43 discriminator 1
	lw	a5,472(s0)
	bne	a5,s2,.L15
	.loc 1 86 46
	addi	s1,s0,436
	.loc 1 86 22
	mv	a2,s2
	mv	a1,s3
	mv	a0,s1
	call	memcmp
.LVL23:
	.loc 1 85 51
	bne	a0,zero,.L15
	.loc 1 83 72
	li	a1,1
.LVL24:
.L14:
	.loc 1 87 13 is_stmt 1
	.loc 1 88 13
	.loc 1 88 16 is_stmt 0
	lw	a5,632(s0)
	bne	a5,a1,.L16
	.loc 1 89 17 is_stmt 1
	.loc 1 89 44 is_stmt 0
	li	a5,-1
	sw	a5,632(s0)
.L16:
	.loc 1 91 13 is_stmt 1
	lui	a0,%hi(.LC1)
	addi	a0,a0,%lo(.LC1)
	call	printf
.LVL25:
	.loc 1 92 13
	.loc 1 95 5
	.loc 1 98 5
	li	a2,196
	li	a1,0
	mv	a0,s1
	call	memset
.LVL26:
	.loc 1 100 5
	.loc 1 100 12 is_stmt 0
	li	a0,0
.LVL27:
.L12:
	.loc 1 101 1
	lw	ra,28(sp)
	.cfi_remember_state
	.cfi_restore 1
	lw	s0,24(sp)
	.cfi_restore 8
.LVL28:
	lw	s1,20(sp)
	.cfi_restore 9
	lw	s2,16(sp)
	.cfi_restore 18
.LVL29:
	lw	s3,12(sp)
	.cfi_restore 19
.LVL30:
	addi	sp,sp,32
	.cfi_def_cfa_offset 0
	jr	ra
.LVL31:
.L15:
	.cfi_restore_state
	.loc 1 96 16
	li	a0,-1
	j	.L12
	.cfi_endproc
.LFE7:
	.size	wifi_mgmr_profile_del, .-wifi_mgmr_profile_del
	.section	.text.wifi_mgmr_profile_get,"ax",@progbits
	.align	1
	.globl	wifi_mgmr_profile_get
	.type	wifi_mgmr_profile_get, @function
wifi_mgmr_profile_get:
.LFB8:
	.loc 1 104 1 is_stmt 1
	.cfi_startproc
.LVL32:
	.loc 1 105 5
	.loc 1 106 5
	.loc 1 108 5
	.loc 1 109 5
	.loc 1 110 9
	.loc 1 104 1 is_stmt 0
	addi	sp,sp,-16
	.cfi_def_cfa_offset 16
	sw	s2,0(sp)
	sw	ra,12(sp)
	sw	s0,8(sp)
	sw	s1,4(sp)
	.cfi_offset 18, -16
	.cfi_offset 1, -4
	.cfi_offset 8, -8
	.cfi_offset 9, -12
	.loc 1 110 12
	lbu	a4,433(a0)
	li	a5,1
	.loc 1 104 1
	mv	s2,a0
	.loc 1 110 12
	beq	a4,a5,.L25
.LVL33:
	.loc 1 110 9 is_stmt 1
	.loc 1 110 12 is_stmt 0
	lbu	a4,629(a0)
	.loc 1 109 72
	li	s1,1
	.loc 1 117 16
	li	a0,-1
.LVL34:
	.loc 1 110 12
	beq	a4,a5,.L23
.LVL35:
.L22:
	.loc 1 131 1
	lw	ra,12(sp)
	.cfi_remember_state
	.cfi_restore 1
	lw	s0,8(sp)
	.cfi_restore 8
	lw	s1,4(sp)
	.cfi_restore 9
	lw	s2,0(sp)
	.cfi_restore 18
.LVL36:
	addi	sp,sp,16
	.cfi_def_cfa_offset 0
	jr	ra
.LVL37:
.L25:
	.cfi_restore_state
	.loc 1 109 12
	li	s1,0
.LVL38:
.L23:
	.loc 1 112 13
	lui	a0,%hi(.LC2)
	mv	s0,a1
	.loc 1 111 13 is_stmt 1
.LVL39:
	.loc 1 112 13
	addi	a0,a0,%lo(.LC2)
	mv	a1,s1
.LVL40:
	call	printf
.LVL41:
	.loc 1 113 13
	.loc 1 116 5
	.loc 1 120 5
	li	a2,185
	li	a1,0
	mv	a0,s0
	call	memset
.LVL42:
	.loc 1 121 5
	.loc 1 121 36 is_stmt 0
	li	a1,196
	mul	s1,s1,a1
.LVL43:
	.loc 1 125 5
	li	a2,33
	mv	a0,s0
	.loc 1 121 36
	add	a4,s2,s1
	lw	a5,276(a4)
	.loc 1 125 38
	addi	a1,s1,240
	.loc 1 125 5
	add	a1,s2,a1
	.loc 1 121 27
	srli	a3,a5,8
	sb	a5,33(s0)
	sb	a3,34(s0)
	srli	a3,a5,16
	srli	a5,a5,24
	sb	a3,35(s0)
	sb	a5,36(s0)
	.loc 1 122 5 is_stmt 1
	.loc 1 122 35 is_stmt 0
	lw	a5,348(a4)
	.loc 1 122 26
	srli	a3,a5,8
	sb	a5,167(s0)
	sb	a3,168(s0)
	srli	a3,a5,16
	srli	a5,a5,24
	sb	a3,169(s0)
	sb	a5,170(s0)
	.loc 1 123 5 is_stmt 1
	.loc 1 123 35 is_stmt 0
	lw	a5,420(a4)
	.loc 1 123 26
	srli	a3,a5,8
	sb	a5,171(s0)
	sb	a3,172(s0)
	srli	a3,a5,16
	srli	a5,a5,24
	sb	a3,173(s0)
	sb	a5,174(s0)
	.loc 1 124 5 is_stmt 1
	.loc 1 124 36 is_stmt 0
	lbu	a5,430(a4)
	.loc 1 124 27
	sb	a5,184(s0)
	.loc 1 125 5 is_stmt 1
	call	memcpy
.LVL44:
	.loc 1 126 5
	.loc 1 126 37 is_stmt 0
	addi	a1,s1,280
	.loc 1 126 5
	li	a2,65
	add	a1,s2,a1
	addi	a0,s0,37
	call	memcpy
.LVL45:
	.loc 1 127 5 is_stmt 1
	.loc 1 127 37 is_stmt 0
	addi	a1,s1,352
	.loc 1 127 5
	li	a2,65
	add	a1,s2,a1
	addi	a0,s0,102
	call	memcpy
.LVL46:
	.loc 1 128 5 is_stmt 1
	.loc 1 128 37 is_stmt 0
	addi	a1,s1,424
	.loc 1 128 5
	li	a2,6
	add	a1,s2,a1
	addi	a0,s0,175
	call	memcpy
.LVL47:
	.loc 1 130 5 is_stmt 1
	.loc 1 130 12 is_stmt 0
	li	a0,0
	j	.L22
	.cfi_endproc
.LFE8:
	.size	wifi_mgmr_profile_get, .-wifi_mgmr_profile_get
	.section	.text.__lookup_profile,"ax",@progbits
	.align	1
	.globl	__lookup_profile
	.type	__lookup_profile, @function
__lookup_profile:
.LFB9:
	.loc 1 134 1 is_stmt 1
	.cfi_startproc
.LVL48:
	.loc 1 135 5
	.loc 1 137 5
	.loc 1 137 8 is_stmt 0
	li	a4,-1
	.loc 1 134 1
	mv	a5,a0
	.loc 1 137 8
	bne	a1,a4,.L29
	.loc 1 139 9 is_stmt 1
	.loc 1 139 17 is_stmt 0
	addi	a0,a0,240
.LVL49:
	ret
.LVL50:
.L29:
	.loc 1 141 9 is_stmt 1
	.loc 1 141 12 is_stmt 0
	li	a4,1
	.loc 1 135 26
	li	a0,0
.LVL51:
	.loc 1 141 12
	bgtu	a1,a4,.L28
	.loc 1 142 13 is_stmt 1
	.loc 1 142 21 is_stmt 0
	li	a0,196
	mul	a1,a1,a0
.LVL52:
	addi	a1,a1,240
	add	a0,a5,a1
.LVL53:
.L28:
	.loc 1 146 1
	ret
	.cfi_endproc
.LFE9:
	.size	__lookup_profile, .-__lookup_profile
	.section	.text.wifi_mgmr_profile_autoreconnect_is_enabled,"ax",@progbits
	.align	1
	.globl	wifi_mgmr_profile_autoreconnect_is_enabled
	.type	wifi_mgmr_profile_autoreconnect_is_enabled, @function
wifi_mgmr_profile_autoreconnect_is_enabled:
.LFB10:
	.loc 1 149 1 is_stmt 1
	.cfi_startproc
.LVL54:
	.loc 1 160 5
	.loc 1 160 16 is_stmt 0
	li	a5,4096
	add	a0,a0,a5
.LVL55:
	.loc 1 160 44
	lbu	a0,1985(a0)
.LVL56:
	.loc 1 162 1
	seqz	a0,a0
	ret
	.cfi_endproc
.LFE10:
	.size	wifi_mgmr_profile_autoreconnect_is_enabled, .-wifi_mgmr_profile_autoreconnect_is_enabled
	.section	.text.wifi_mgmr_profile_autoreconnect_disable,"ax",@progbits
	.align	1
	.globl	wifi_mgmr_profile_autoreconnect_disable
	.type	wifi_mgmr_profile_autoreconnect_disable, @function
wifi_mgmr_profile_autoreconnect_disable:
.LFB11:
	.loc 1 165 1 is_stmt 1
	.cfi_startproc
.LVL57:
	.loc 1 176 5
	.loc 1 176 33 is_stmt 0
	li	a5,4096
	add	a0,a0,a5
.LVL58:
	li	a5,1
	sb	a5,1985(a0)
	.loc 1 178 5 is_stmt 1
	.loc 1 180 1 is_stmt 0
	li	a0,0
.LVL59:
	ret
	.cfi_endproc
.LFE11:
	.size	wifi_mgmr_profile_autoreconnect_disable, .-wifi_mgmr_profile_autoreconnect_disable
	.section	.text.wifi_mgmr_profile_autoreconnect_enable,"ax",@progbits
	.align	1
	.globl	wifi_mgmr_profile_autoreconnect_enable
	.type	wifi_mgmr_profile_autoreconnect_enable, @function
wifi_mgmr_profile_autoreconnect_enable:
.LFB12:
	.loc 1 183 1 is_stmt 1
	.cfi_startproc
.LVL60:
	.loc 1 195 5
	.loc 1 195 33 is_stmt 0
	li	a5,4096
	add	a0,a0,a5
.LVL61:
	sb	zero,1985(a0)
	.loc 1 197 5 is_stmt 1
	.loc 1 199 1 is_stmt 0
	li	a0,0
.LVL62:
	ret
	.cfi_endproc
.LFE12:
	.size	wifi_mgmr_profile_autoreconnect_enable, .-wifi_mgmr_profile_autoreconnect_enable
	.section	.rodata.wifi_mgmr_profile_add.str1.4,"aMS",@progbits,1
	.align	2
.LC0:
	.string	"[WF][PF] Using free profile, idx is @%d\r\n"
	.section	.rodata.wifi_mgmr_profile_del.str1.4,"aMS",@progbits,1
	.align	2
.LC1:
	.string	"[WF][PF] Free profile, idx is @%d\r\n"
	.section	.rodata.wifi_mgmr_profile_get.str1.4,"aMS",@progbits,1
	.align	2
.LC2:
	.string	"[WF][PF] Using profile, idx is @%d\r\n"
	.text
.Letext0:
	.file 2 "/b-l/bl_iot_sdk_new/toolchain/riscv/Linux/lib/gcc/riscv64-unknown-elf/8.3.0/include/stddef.h"
	.file 3 "/b-l/bl_iot_sdk_new/toolchain/riscv/Linux/riscv64-unknown-elf/include/sys/_types.h"
	.file 4 "/b-l/bl_iot_sdk_new/toolchain/riscv/Linux/riscv64-unknown-elf/include/sys/reent.h"
	.file 5 "/b-l/bl_iot_sdk_new/toolchain/riscv/Linux/riscv64-unknown-elf/include/sys/lock.h"
	.file 6 "/b-l/bl_iot_sdk_new/toolchain/riscv/Linux/lib/gcc/riscv64-unknown-elf/8.3.0/include/stdint-gcc.h"
	.file 7 "/b-l/bl_iot_sdk_new/toolchain/riscv/Linux/riscv64-unknown-elf/include/stdlib.h"
	.file 8 "/b-l/bl_iot_sdk_new/components/network/lwip/src/include/lwip/arch.h"
	.file 9 "/b-l/bl_iot_sdk_new/toolchain/riscv/Linux/riscv64-unknown-elf/include/ctype.h"
	.file 10 "/b-l/bl_iot_sdk_new/components/network/lwip/src/include/lwip/err.h"
	.file 11 "/b-l/bl_iot_sdk_new/components/network/lwip/src/include/lwip/ip4_addr.h"
	.file 12 "/b-l/bl_iot_sdk_new/components/network/lwip/src/include/lwip/ip_addr.h"
	.file 13 "/b-l/bl_iot_sdk_new/components/network/lwip/src/include/lwip/pbuf.h"
	.file 14 "/b-l/bl_iot_sdk_new/components/network/lwip/src/include/lwip/mem.h"
	.file 15 "/b-l/bl_iot_sdk_new/components/network/lwip/src/include/lwip/priv/memp_priv.h"
	.file 16 "/b-l/bl_iot_sdk_new/components/network/lwip/src/include/lwip/stats.h"
	.file 17 "/b-l/bl_iot_sdk_new/components/network/lwip/src/include/lwip/memp.h"
	.file 18 "/b-l/bl_iot_sdk_new/components/network/lwip/src/include/lwip/netif.h"
	.file 19 "/b-l/bl_iot_sdk_new/components/bl602/bl602_wifidrv/bl60x_wifi_driver/stateMachine.h"
	.file 20 "/b-l/bl_iot_sdk_new/components/bl602/freertos_riscv_ram/config/projdefs.h"
	.file 21 "/b-l/bl_iot_sdk_new/components/bl602/freertos_riscv_ram/portable/GCC/RISC-V/portmacro.h"
	.file 22 "/b-l/bl_iot_sdk_new/components/bl602/freertos_riscv_ram/config/FreeRTOS.h"
	.file 23 "/b-l/bl_iot_sdk_new/components/bl602/bl602_wifidrv/bl60x_wifi_driver/os_hal.h"
	.file 24 "/b-l/bl_iot_sdk_new/components/bl602/bl602_wifidrv/bl60x_wifi_driver/wifi_mgmr.h"
	.file 25 "/b-l/bl_iot_sdk_new/toolchain/riscv/Linux/riscv64-unknown-elf/include/stdio.h"
	.file 26 "/b-l/bl_iot_sdk_new/toolchain/riscv/Linux/riscv64-unknown-elf/include/string.h"