	.file	"wifi_mgmr_event.c"
	.option nopic
	.attribute arch, "rv32i2p0_m2p0_f2p0_c2p0"
	.attribute unaligned_access, 0
	.attribute stack_align, 16
	.text
.Ltext0:
	.cfi_sections	.debug_frame
	.section	.text.cb_rssi_ind,"ax",@progbits
	.align	1
	.type	cb_rssi_ind, @function
cb_rssi_ind:
.LFB10:
	.file 1 "/b-l/bl_iot_sdk_new/components/bl602/bl602_wifidrv/bl60x_wifi_driver/wifi_mgmr_event.c"
	.loc 1 79 1
	.cfi_startproc
.LVL0:
	.loc 1 80 5
	.loc 1 80 32 is_stmt 0
	lui	a5,%hi(wifiMgmr+120)
	sb	a1,%lo(wifiMgmr+120)(a5)
	.loc 1 81 1
	ret
	.cfi_endproc
.LFE10:
	.size	cb_rssi_ind, .-cb_rssi_ind
	.section	.text.cb_probe_resp_ind,"ax",@progbits
	.align	1
	.type	cb_probe_resp_ind, @function
cb_probe_resp_ind:
.LFB9:
	.loc 1 74 1 is_stmt 1
	.cfi_startproc
.LVL1:
	.loc 1 75 5
	lui	a0,%hi(.LC0)
.LVL2:
	mv	a3,a2
	addi	a0,a0,%lo(.LC0)
	mv	a2,a1
	tail	printf
.LVL3:
	.cfi_endproc
.LFE9:
	.size	cb_probe_resp_ind, .-cb_probe_resp_ind
	.section	.text.cb_beacon_ind,"ax",@progbits
	.align	1
	.type	cb_beacon_ind, @function
cb_beacon_ind:
.LFB8:
	.loc 1 69 1
	.cfi_startproc
.LVL4:
	.loc 1 70 5
	.loc 1 69 1 is_stmt 0
	addi	sp,sp,-32
	.cfi_def_cfa_offset 32
	sw	ra,28(sp)
	.cfi_offset 1, -4
	.loc 1 70 5
	lbu	a5,44(a1)
	.loc 1 69 1
	mv	a3,a1
	.loc 1 70 5
	addi	a4,a1,6
	sw	a5,0(sp)
	lb	a7,41(a1)
	lb	a6,40(a1)
	lw	a5,52(a1)
	lbu	a2,43(a1)
	lbu	a0,42(a3)
.LVL5:
	lb	a1,39(a1)
.LVL6:
	call	wifi_mgmr_api_scan_item_beacon
.LVL7:
	.loc 1 71 1
	lw	ra,28(sp)
	.cfi_restore 1
	addi	sp,sp,32
	.cfi_def_cfa_offset 0
	jr	ra
	.cfi_endproc
.LFE8:
	.size	cb_beacon_ind, .-cb_beacon_ind
	.section	.text.cb_disconnect_ind,"ax",@progbits
	.align	1
	.type	cb_disconnect_ind, @function
cb_disconnect_ind:
.LFB7:
	.loc 1 54 1 is_stmt 1
	.cfi_startproc
.LVL8:
	.loc 1 55 5
	.loc 1 57 5
	.loc 1 54 1 is_stmt 0
	addi	sp,sp,-32
	.cfi_def_cfa_offset 32
	sw	s0,24(sp)
	.loc 1 57 5
	li	a2,13
	.cfi_offset 8, -8
	.loc 1 54 1
	mv	s0,a1
	.loc 1 57 5
	mv	a0,sp
.LVL9:
	li	a1,0
.LVL10:
	.loc 1 54 1
	sw	ra,28(sp)
	.cfi_offset 1, -4
	.loc 1 57 5
	call	memset
.LVL11:
	.loc 1 58 5 is_stmt 1
	lui	a0,%hi(.LC1)
	addi	a0,a0,%lo(.LC1)
	call	printf
.LVL12:
	.loc 1 59 5
	.loc 1 59 17 is_stmt 0
	li	a5,19
	sb	a5,0(sp)
	.loc 1 60 5 is_stmt 1
	.loc 1 60 20 is_stmt 0
	li	a5,68
	sb	a5,1(sp)
	li	a5,51
	sb	a5,2(sp)
	li	a5,34
	sb	a5,3(sp)
	li	a5,17
	sb	a5,4(sp)
	.loc 1 61 5 is_stmt 1
	.loc 1 61 20 is_stmt 0
	li	a5,-120
	sb	a5,5(sp)
	li	a5,119
	sb	a5,6(sp)
	li	a5,102
	sb	a5,7(sp)
	li	a5,85
	sb	a5,8(sp)
	.loc 1 62 5 is_stmt 1
	.loc 1 62 18 is_stmt 0
	li	a5,13
	sb	a5,9(sp)
	.loc 1 63 43
	lui	a5,%hi(wifiMgmr+4096)
	addi	a5,a5,%lo(wifiMgmr+4096)
	li	a4,2
	sb	a4,1874(a5)
	.loc 1 64 51
	lhu	a4,0(s0)
	.loc 1 65 5
	mv	a0,sp
	.loc 1 62 18
	sb	zero,10(sp)
	sb	zero,11(sp)
	sb	zero,12(sp)
	.loc 1 63 5 is_stmt 1
	.loc 1 64 5
	.loc 1 64 46 is_stmt 0
	sh	a4,1872(a5)
	.loc 1 65 5 is_stmt 1
	call	wifi_mgmr_event_notify
.LVL13:
	.loc 1 66 1 is_stmt 0
	lw	ra,28(sp)
	.cfi_restore 1
	lw	s0,24(sp)
	.cfi_restore 8
.LVL14:
	addi	sp,sp,32
	.cfi_def_cfa_offset 0
	jr	ra
	.cfi_endproc
.LFE7:
	.size	cb_disconnect_ind, .-cb_disconnect_ind
	.section	.text.cb_connect_ind,"ax",@progbits
	.align	1
	.type	cb_connect_ind, @function
cb_connect_ind:
.LFB6:
	.loc 1 41 1 is_stmt 1
	.cfi_startproc
.LVL15:
	.loc 1 42 5
	.loc 1 44 5
	.loc 1 41 1 is_stmt 0
	addi	sp,sp,-32
	.cfi_def_cfa_offset 32
	sw	s0,24(sp)
	.loc 1 44 5
	li	a2,13
	.cfi_offset 8, -8
	.loc 1 41 1
	mv	s0,a1
	.loc 1 44 5
	mv	a0,sp
.LVL16:
	li	a1,0
.LVL17:
	.loc 1 41 1
	sw	ra,28(sp)
	.cfi_offset 1, -4
	.loc 1 44 5
	call	memset
.LVL18:
	.loc 1 45 5 is_stmt 1
	.loc 1 45 72 is_stmt 0
	lhu	a5,0(s0)
	.loc 1 49 5
	mv	a0,s0
	li	a1,1
	.loc 1 45 72
	seqz	a5,a5
	addi	a5,a5,19
	.loc 1 45 17
	sb	a5,0(sp)
	.loc 1 46 5 is_stmt 1
	.loc 1 46 20 is_stmt 0
	li	a5,68
	sb	a5,1(sp)
	li	a5,51
	sb	a5,2(sp)
	li	a5,34
	sb	a5,3(sp)
	li	a5,17
	sb	a5,4(sp)
	.loc 1 47 5 is_stmt 1
	.loc 1 47 20 is_stmt 0
	li	a5,-120
	sb	a5,5(sp)
	li	a5,119
	sb	a5,6(sp)
	li	a5,102
	sb	a5,7(sp)
	li	a5,85
	sb	a5,8(sp)
	.loc 1 48 5 is_stmt 1
	.loc 1 48 18 is_stmt 0
	li	a5,13
	sb	a5,9(sp)
	sb	zero,10(sp)
	sb	zero,11(sp)
	sb	zero,12(sp)
	.loc 1 49 5 is_stmt 1
	call	wifi_mgmr_set_connect_stat_info
.LVL19:
	.loc 1 50 5
	mv	a0,sp
	call	wifi_mgmr_event_notify
.LVL20:
	.loc 1 51 1 is_stmt 0
	lw	ra,28(sp)
	.cfi_restore 1
	lw	s0,24(sp)
	.cfi_restore 8
.LVL21:
	addi	sp,sp,32
	.cfi_def_cfa_offset 0
	jr	ra
	.cfi_endproc
.LFE6:
	.size	cb_connect_ind, .-cb_connect_ind
	.section	.text.cb_event_ind,"ax",@progbits
	.align	1
	.type	cb_event_ind, @function
cb_event_ind:
.LFB11:
	.loc 1 84 1 is_stmt 1
	.cfi_startproc
.LVL22:
	.loc 1 85 5
	.loc 1 85 18 is_stmt 0
	lbu	a4,1(a1)
	lbu	a5,0(a1)
	slli	a4,a4,8
	or	a4,a4,a5
	lbu	a5,2(a1)
	slli	a5,a5,16
	or	a4,a5,a4
	lbu	a5,3(a1)
	slli	a5,a5,24
	or	a5,a5,a4
	.loc 1 85 5
	li	a4,1
	beq	a5,a4,.L12
	beq	a5,zero,.L13
	li	a4,2
	beq	a5,a4,.L14
	.loc 1 114 13 is_stmt 1
	lui	a0,%hi(.LC4)
.LVL23:
	mv	a1,a5
.LVL24:
	addi	a0,a0,%lo(.LC4)
	j	.L19
.LVL25:
.L13:
.LBB9:
	.loc 1 88 13
	.loc 1 90 13
	.loc 1 91 13
	.loc 1 91 35 is_stmt 0
	lbu	a5,5(a1)
	lbu	a4,4(a1)
	.loc 1 93 13
	lui	a0,%hi(.LC2)
.LVL26:
	.loc 1 91 35
	slli	a5,a5,8
	or	a4,a5,a4
	lbu	a5,6(a1)
	lbu	a1,7(a1)
.LVL27:
	.loc 1 93 13
	addi	a0,a0,%lo(.LC2)
	.loc 1 91 35
	slli	a5,a5,16
	or	a5,a5,a4
	slli	a1,a1,24
	or	a1,a1,a5
	.loc 1 91 30
	lui	a5,%hi(wifiMgmr+4)
	sw	a1,%lo(wifiMgmr+4)(a5)
	.loc 1 93 13 is_stmt 1
.L19:
.LBE9:
	.loc 1 114 13 is_stmt 0
	tail	printf
.LVL28:
.L12:
.LBB10:
.LBB11:
	.loc 1 98 13 is_stmt 1
	.loc 1 100 13
	.loc 1 101 13
	.loc 1 102 13
	lui	a0,%hi(.LC3)
.LVL29:
.LBE11:
.LBE10:
	.loc 1 84 1 is_stmt 0
	addi	sp,sp,-16
	.cfi_def_cfa_offset 16
.LBB16:
.LBB12:
	.loc 1 102 13
	addi	a0,a0,%lo(.LC3)
.LBE12:
.LBE16:
	.loc 1 84 1
	sw	ra,12(sp)
	.cfi_offset 1, -4
.LBB17:
.LBB13:
	.loc 1 102 13
	call	puts
.LVL30:
	.loc 1 103 13 is_stmt 1
	call	wifi_mgmr_scan_complete_notify
.LVL31:
	.loc 1 104 13
.LBE13:
.LBE17:
	.loc 1 117 1 is_stmt 0
	lw	ra,12(sp)
	.cfi_restore 1
.LBB18:
.LBB14:
	.loc 1 104 13
	li	a2,0
.LBE14:
.LBE18:
	.loc 1 117 1
.LBB19:
.LBB15:
	.loc 1 104 13
	li	a1,9
	li	a0,2
.LBE15:
.LBE19:
	.loc 1 117 1
	addi	sp,sp,16
	.cfi_def_cfa_offset 0
.LVL32:
.L20:
	.loc 1 109 13
	tail	aos_post_event
.LVL33:
.L14:
	.loc 1 109 13 is_stmt 1
	li	a2,0
	li	a1,10
.LVL34:
	li	a0,2
.LVL35:
	j	.L20
	.cfi_endproc
.LFE11:
	.size	cb_event_ind, .-cb_event_ind
	.section	.text.wifi_mgmr_event_init,"ax",@progbits
	.align	1
	.globl	wifi_mgmr_event_init
	.type	wifi_mgmr_event_init, @function
wifi_mgmr_event_init:
.LFB12:
	.loc 1 120 1
	.cfi_startproc
	.loc 1 121 5
	lui	a1,%hi(cb_connect_ind)
	.loc 1 120 1 is_stmt 0
	addi	sp,sp,-16
	.cfi_def_cfa_offset 16
	.loc 1 121 5
	addi	a1,a1,%lo(cb_connect_ind)
	li	a0,0
	.loc 1 120 1
	sw	ra,12(sp)
	.cfi_offset 1, -4
	.loc 1 121 5
	call	bl_rx_sm_connect_ind_cb_register
.LVL36:
	.loc 1 122 5 is_stmt 1
	lui	a1,%hi(cb_disconnect_ind)
	addi	a1,a1,%lo(cb_disconnect_ind)
	li	a0,0
	call	bl_rx_sm_disconnect_ind_cb_register
.LVL37:
	.loc 1 123 5
	lui	a1,%hi(cb_beacon_ind)
	addi	a1,a1,%lo(cb_beacon_ind)
	li	a0,0
	call	bl_rx_beacon_ind_cb_register
.LVL38:
	.loc 1 124 5
	lui	a1,%hi(cb_probe_resp_ind)
	addi	a1,a1,%lo(cb_probe_resp_ind)
	li	a0,0
	call	bl_rx_probe_resp_ind_cb_register
.LVL39:
	.loc 1 125 5
	lui	a1,%hi(cb_rssi_ind)
	addi	a1,a1,%lo(cb_rssi_ind)
	li	a0,0
	call	bl_rx_rssi_cb_register
.LVL40:
	.loc 1 126 5
	lui	a1,%hi(cb_event_ind)
	addi	a1,a1,%lo(cb_event_ind)
	li	a0,0
	call	bl_rx_event_register
.LVL41:
	.loc 1 127 5
	.loc 1 128 1 is_stmt 0
	lw	ra,12(sp)
	.cfi_restore 1
	li	a0,0
	addi	sp,sp,16
	.cfi_def_cfa_offset 0
	jr	ra
	.cfi_endproc
.LFE12:
	.size	wifi_mgmr_event_init, .-wifi_mgmr_event_init
	.section	.rodata.cb_disconnect_ind.str1.4,"aMS",@progbits,1
	.align	2
.LC1:
	.string	"sending disconnect\r\n"
	.section	.rodata.cb_event_ind.str1.4,"aMS",@progbits,1
	.align	2
.LC2:
	.string	"[WIFI] [IND] Channel is %d\r\n"
	.zero	3
.LC3:
	.string	"[WIFI] [IND] SCAN Done\r\n"
	.zero	3
.LC4:
	.string	"----------------UNKNOWN WIFI EVENT %d-------------------\r\n"
	.section	.rodata.cb_probe_resp_ind.str1.4,"aMS",@progbits,1
	.align	2
.LC0:
	.string	"timestamp = 0x%llx\r\n"
	.text
.Letext0:
	.file 2 "/b-l/bl_iot_sdk_new/toolchain/riscv/Linux/riscv64-unknown-elf/include/machine/_default_types.h"
	.file 3 "/b-l/bl_iot_sdk_new/toolchain/riscv/Linux/lib/gcc/riscv64-unknown-elf/8.3.0/include/stddef.h"
	.file 4 "/b-l/bl_iot_sdk_new/toolchain/riscv/Linux/riscv64-unknown-elf/include/sys/_types.h"
	.file 5 "/b-l/bl_iot_sdk_new/toolchain/riscv/Linux/riscv64-unknown-elf/include/sys/reent.h"
	.file 6 "/b-l/bl_iot_sdk_new/toolchain/riscv/Linux/riscv64-unknown-elf/include/sys/lock.h"
	.file 7 "/b-l/bl_iot_sdk_new/toolchain/riscv/Linux/riscv64-unknown-elf/include/sys/_stdint.h"
	.file 8 "/b-l/bl_iot_sdk_new/toolchain/riscv/Linux/riscv64-unknown-elf/include/stdlib.h"
	.file 9 "/b-l/bl_iot_sdk_new/components/network/lwip/src/include/lwip/arch.h"
	.file 10 "/b-l/bl_iot_sdk_new/toolchain/riscv/Linux/riscv64-unknown-elf/include/ctype.h"
	.file 11 "/b-l/bl_iot_sdk_new/components/network/lwip/src/include/lwip/err.h"
	.file 12 "/b-l/bl_iot_sdk_new/components/network/lwip/src/include/lwip/ip4_addr.h"
	.file 13 "/b-l/bl_iot_sdk_new/components/network/lwip/src/include/lwip/ip_addr.h"
	.file 14 "/b-l/bl_iot_sdk_new/components/network/lwip/src/include/lwip/pbuf.h"
	.file 15 "/b-l/bl_iot_sdk_new/components/network/lwip/src/include/lwip/mem.h"
	.file 16 "/b-l/bl_iot_sdk_new/components/network/lwip/src/include/lwip/priv/memp_priv.h"
	.file 17 "/b-l/bl_iot_sdk_new/components/network/lwip/src/include/lwip/stats.h"
	.file 18 "/b-l/bl_iot_sdk_new/components/network/lwip/src/include/lwip/memp.h"
	.file 19 "/b-l/bl_iot_sdk_new/components/network/lwip/src/include/lwip/netif.h"
	.file 20 "/b-l/bl_iot_sdk_new/components/bl602/bl602_wifidrv/bl60x_wifi_driver/bl_main.h"
	.file 21 "/b-l/bl_iot_sdk_new/components/bl602/bl602_wifidrv/bl60x_wifi_driver/include/wifi_mgmr_ext.h"
	.file 22 "/b-l/bl_iot_sdk_new/components/bl602/bl602_wifidrv/bl60x_wifi_driver/stateMachine.h"
	.file 23 "/b-l/bl_iot_sdk_new/components/bl602/freertos_riscv_ram/config/projdefs.h"
	.file 24 "/b-l/bl_iot_sdk_new/components/bl602/freertos_riscv_ram/portable/GCC/RISC-V/portmacro.h"
	.file 25 "/b-l/bl_iot_sdk_new/components/bl602/freertos_riscv_ram/config/FreeRTOS.h"
	.file 26 "/b-l/bl_iot_sdk_new/components/bl602/bl602_wifidrv/bl60x_wifi_driver/os_hal.h"
	.file 27 "/b-l/bl_iot_sdk_new/components/bl602/bl602_wifidrv/bl60x_wifi_driver/wifi_mgmr.h"
	.file 28 "/b-l/bl_iot_sdk_new/toolchain/riscv/Linux/riscv64-unknown-elf/include/stdio.h"
	.file 29 "/b-l/bl_iot_sdk_new/components/bl602/bl602_wifidrv/bl60x_wifi_driver/wifi_mgmr_api.h"
	.file 30 "/b-l/bl_iot_sdk_new/toolchain/riscv/Linux/riscv64-unknown-elf/include/string.h"
	.file 31 "/b-l/bl_iot_sdk_new/components/bl602/bl602_wifidrv/bl60x_wifi_driver/wifi_mgmr_event.h"
	.file 32 "/b-l/bl_iot_sdk_new/components/stage/yloop/include/aos/yloop.h"