	.file	"wifi.c"
	.option nopic
	.attribute arch, "rv32i2p0_m2p0_f2p0_c2p0"
	.attribute unaligned_access, 0
	.attribute stack_align, 16
	.text
.Ltext0:
	.cfi_sections	.debug_frame
	.section	.text.netif_status_callback,"ax",@progbits
	.align	1
	.type	netif_status_callback, @function
netif_status_callback:
.LFB53:
	.file 1 "/b-l/bl_iot_sdk_new/components/bl602/bl602_wifidrv/bl60x_wifi_driver/wifi.c"
	.loc 1 136 1
	.cfi_startproc
.LVL0:
	.loc 1 137 5
	.loc 1 136 1 is_stmt 0
	addi	sp,sp,-32
	.cfi_def_cfa_offset 32
	sw	s1,20(sp)
	.cfi_offset 9, -12
	.loc 1 137 97
	addi	s1,a0,4
	.loc 1 136 1
	sw	s0,24(sp)
	.cfi_offset 8, -8
	mv	s0,a0
	.loc 1 137 5
	mv	a0,s1
.LVL1:
	.loc 1 136 1
	sw	ra,28(sp)
	.cfi_offset 1, -4
	.loc 1 137 5
	call	ip4addr_ntoa
.LVL2:
	mv	a1,a0
	lui	a0,%hi(.LC0)
	addi	a0,a0,%lo(.LC0)
	call	printf
.LVL3:
	.loc 1 139 5 is_stmt 1
	addi	a0,s0,8
	call	ip4addr_ntoa
.LVL4:
	mv	a1,a0
	lui	a0,%hi(.LC1)
	addi	a0,a0,%lo(.LC1)
	call	printf
.LVL5:
	.loc 1 140 5
	addi	a0,s0,12
	call	ip4addr_ntoa
.LVL6:
	mv	a1,a0
	lui	a0,%hi(.LC2)
	addi	a0,a0,%lo(.LC2)
	call	printf
.LVL7:
	.loc 1 141 5
	.loc 1 141 8 is_stmt 0
	beq	s1,zero,.L2
	.loc 1 141 8 discriminator 1
	lw	a5,4(s0)
	bne	a5,zero,.L3
.L2:
	.loc 1 142 9 is_stmt 1
	.loc 1 153 1 is_stmt 0
	lw	s0,24(sp)
	.cfi_remember_state
	.cfi_restore 8
.LVL8:
	lw	ra,28(sp)
	.cfi_restore 1
	lw	s1,20(sp)
	.cfi_restore 9
.LVL9:
	.loc 1 142 9
	lui	a0,%hi(.LC3)
	.loc 1 153 1
	.loc 1 142 9
	addi	a0,a0,%lo(.LC3)
	.loc 1 153 1
	addi	sp,sp,32
	.cfi_def_cfa_offset 0
	.loc 1 142 9
	tail	printf
.LVL10:
.L3:
	.cfi_restore_state
.LBB4:
.LBB5:
	.loc 1 144 9 is_stmt 1
	call	wifi_mgmr_api_ip_update
.LVL11:
	.loc 1 145 9
	lw	a1,8(s0)
	lw	a2,12(s0)
	.loc 1 149 34 is_stmt 0
	li	a0,0
	.loc 1 145 9
	lw	s1,4(s0)
	sw	a1,12(sp)
	sw	a2,8(sp)
	.loc 1 149 34
	call	dns_getserver
.LVL12:
	.loc 1 145 9
	lw	a3,0(a0)
	.loc 1 150 34
	li	a0,1
	.loc 1 145 9
	sw	a3,4(sp)
	.loc 1 150 34
	call	dns_getserver
.LVL13:
.LBE5:
.LBE4:
	.loc 1 153 1
	lw	s0,24(sp)
	.cfi_restore 8
.LVL14:
.LBB9:
.LBB6:
	.loc 1 145 9
	lw	a4,0(a0)
	lw	a3,4(sp)
	lw	a2,8(sp)
	lw	a1,12(sp)
.LBE6:
.LBE9:
	.loc 1 153 1
	lw	ra,28(sp)
	.cfi_restore 1
.LBB10:
.LBB7:
	.loc 1 145 9
	mv	a0,s1
.LBE7:
.LBE10:
	.loc 1 153 1
	lw	s1,20(sp)
	.cfi_restore 9
	addi	sp,sp,32
	.cfi_def_cfa_offset 0
.LBB11:
.LBB8:
	.loc 1 145 9
	tail	wifi_mgmr_api_ip_got
.LVL15:
.LBE8:
.LBE11:
	.cfi_endproc
.LFE53:
	.size	netif_status_callback, .-netif_status_callback
	.section	.text.wifi_tx,"ax",@progbits
	.align	1
	.type	wifi_tx, @function
wifi_tx:
.LFB52:
	.loc 1 81 1 is_stmt 1
	.cfi_startproc
.LVL16:
	.loc 1 82 5
	.loc 1 86 5
	.loc 1 87 5
	.loc 1 95 5
	.loc 1 81 1 is_stmt 0
	addi	sp,sp,-32
	.cfi_def_cfa_offset 32
	sw	ra,28(sp)
	sw	s0,24(sp)
	sw	s1,20(sp)
	.cfi_offset 1, -4
	.cfi_offset 8, -8
	.cfi_offset 9, -12
	.loc 1 95 8
	lhu	a3,8(a1)
	li	a4,1514
	.loc 1 81 1
	mv	a2,a1
	mv	a5,a1
	.loc 1 95 8
	bleu	a3,a4,.L9
.LBB14:
.LBB15:
	.loc 1 96 33
	lui	s0,%hi(.LANCHOR0)
	sw	a1,12(sp)
.LVL17:
	.loc 1 96 9 is_stmt 1
	.loc 1 96 33 is_stmt 0
	addi	s0,s0,%lo(.LANCHOR0)
	.loc 1 96 13
	call	xTaskGetTickCount
.LVL18:
	.loc 1 96 33
	lw	a5,0(s0)
	.loc 1 96 12
	li	s1,-12
	lw	a2,12(sp)
	.loc 1 96 33
	sub	a0,a0,a5
	.loc 1 96 12
	li	a5,2000
	bleu	a0,a5,.L10
	.loc 1 97 13 is_stmt 1
	lhu	a2,8(a2)
	lui	a1,%hi(.LANCHOR1)
	lui	a0,%hi(.LC4)
	addi	a1,a1,%lo(.LANCHOR1)
	addi	a0,a0,%lo(.LC4)
	call	printf
.LVL19:
	.loc 1 98 13
	.loc 1 98 21 is_stmt 0
	call	xTaskGetTickCount
.LVL20:
	.loc 1 98 19
	sw	a0,0(s0)
.LVL21:
.L10:
.LBE15:
.LBE14:
	.loc 1 132 1
	lw	ra,28(sp)
	.cfi_remember_state
	.cfi_restore 1
	lw	s0,24(sp)
	.cfi_restore 8
	mv	a0,s1
	lw	s1,20(sp)
	.cfi_restore 9
	addi	sp,sp,32
	.cfi_def_cfa_offset 0
	jr	ra
.LVL22:
.L9:
	.cfi_restore_state
	.loc 1 125 5 is_stmt 1 discriminator 3
	.loc 1 106 29 is_stmt 0 discriminator 3
	lw	a5,0(a5)
.LVL23:
	.loc 1 106 5 discriminator 3
	bne	a5,zero,.L9
	.loc 1 129 5 is_stmt 1
.LVL24:
	.loc 1 130 5
	lw	a3,-32(a0)
	lui	a5,%hi(.LANCHOR2)
.LVL25:
	mv	a1,a0
.LVL26:
	lw	a0,%lo(.LANCHOR2)(a5)
.LVL27:
	seqz	a3,a3
	.loc 1 131 12 is_stmt 0
	li	s1,0
	.loc 1 130 5
	call	bl_output
.LVL28:
	.loc 1 131 5 is_stmt 1
	.loc 1 131 12 is_stmt 0
	j	.L10
	.cfi_endproc
.LFE52:
	.size	wifi_tx, .-wifi_tx
	.section	.text.bl606a0_wifi_netif_init,"ax",@progbits
	.align	1
	.globl	bl606a0_wifi_netif_init
	.type	bl606a0_wifi_netif_init, @function
bl606a0_wifi_netif_init:
.LFB54:
	.loc 1 156 1 is_stmt 1
	.cfi_startproc
.LVL29:
	.loc 1 157 5
	.loc 1 156 1 is_stmt 0
	addi	sp,sp,-16
	.cfi_def_cfa_offset 16
	.loc 1 157 21
	lui	a4,%hi(.LC5)
	.loc 1 156 1
	sw	ra,12(sp)
	.cfi_offset 1, -4
	.loc 1 157 21
	addi	a4,a4,%lo(.LC5)
	sw	a4,52(a0)
	.loc 1 158 5 is_stmt 1
	.loc 1 160 5
	.loc 1 160 16 is_stmt 0
	li	a4,1500
	sh	a4,56(a0)
	.loc 1 162 5 is_stmt 1
	.loc 1 158 23 is_stmt 0
	li	a4,4096
	addi	a4,a4,-1530
	sh	a4,64(a0)
	.loc 1 163 5 is_stmt 1
	.loc 1 163 19 is_stmt 0
	lui	a4,%hi(etharp_output)
	addi	a4,a4,%lo(etharp_output)
	sw	a4,20(a0)
	.loc 1 164 5 is_stmt 1
	.loc 1 164 23 is_stmt 0
	lui	a4,%hi(wifi_tx)
	addi	a4,a4,%lo(wifi_tx)
	.loc 1 165 5
	lui	a1,%hi(netif_status_callback)
	.loc 1 164 23
	sw	a4,24(a0)
	.loc 1 165 5 is_stmt 1
	addi	a1,a1,%lo(netif_status_callback)
	call	netif_set_status_callback
.LVL30:
	.loc 1 167 5
	.loc 1 168 1 is_stmt 0
	lw	ra,12(sp)
	.cfi_restore 1
	li	a0,0
	addi	sp,sp,16
	.cfi_def_cfa_offset 0
	jr	ra
	.cfi_endproc
.LFE54:
	.size	bl606a0_wifi_netif_init, .-bl606a0_wifi_netif_init
	.section	.text.bl606a0_wifi_init,"ax",@progbits
	.align	1
	.globl	bl606a0_wifi_init
	.type	bl606a0_wifi_init, @function
bl606a0_wifi_init:
.LFB55:
	.loc 1 171 1 is_stmt 1
	.cfi_startproc
.LVL31:
	.loc 1 172 5
	.loc 1 173 5
	.loc 1 175 5
	.loc 1 171 1 is_stmt 0
	addi	sp,sp,-32
	.cfi_def_cfa_offset 32
	sw	s0,24(sp)
	.cfi_offset 8, -8
	mv	s0,a0
	.loc 1 175 5
	lui	a0,%hi(.LC6)
.LVL32:
	addi	a0,a0,%lo(.LC6)
	.loc 1 171 1
	sw	ra,28(sp)
	.cfi_offset 1, -4
	.loc 1 175 5
	call	printf
.LVL33:
	.loc 1 176 5 is_stmt 1
	li	a2,6
	li	a1,0
	addi	a0,sp,8
	call	memset
.LVL34:
	.loc 1 177 5
	addi	a0,sp,8
	call	bl_wifi_mac_addr_get
.LVL35:
	.loc 1 178 5
	lbu	a6,13(sp)
	lbu	a5,12(sp)
	lbu	a4,11(sp)
	lbu	a3,10(sp)
	lbu	a2,9(sp)
	lbu	a1,8(sp)
	lui	a0,%hi(.LC7)
	addi	a0,a0,%lo(.LC7)
	call	printf
.LVL36:
	.loc 1 185 5
	mv	a0,s0
	call	bl_msg_update_channel_cfg
.LVL37:
	.loc 1 186 5
	lui	a0,%hi(.LC8)
	addi	a0,a0,%lo(.LC8)
	call	printf
.LVL38:
	.loc 1 187 5
	call	bl_wifi_clock_enable
.LVL39:
	.loc 1 188 5
	lui	s0,%hi(.LANCHOR2)
.LVL40:
	li	a2,4
	li	a1,0
	addi	a0,s0,%lo(.LANCHOR2)
	call	memset
.LVL41:
	.loc 1 189 5
	.loc 1 189 11 is_stmt 0
	addi	a0,s0,%lo(.LANCHOR2)
	call	bl_main_rtthread_start
.LVL42:
	.loc 1 191 5 is_stmt 1
	.loc 1 192 1 is_stmt 0
	lw	ra,28(sp)
	.cfi_restore 1
	lw	s0,24(sp)
	.cfi_restore 8
	addi	sp,sp,32
	.cfi_def_cfa_offset 0
	jr	ra
	.cfi_endproc
.LFE55:
	.size	bl606a0_wifi_init, .-bl606a0_wifi_init
	.comm	cfg_start_req_u_tlv_t,12,4
	.section	.rodata.bl606a0_wifi_init.str1.4,"aMS",@progbits,1
	.align	2
.LC6:
	.string	"\r\n\r\n[BL] Initi Wi-Fi"
	.zero	3
.LC7:
	.string	" with MAC #### %02X:%02X:%02X:%02X:%02X:%02X ####\r\n"
.LC8:
	.string	"-----------------------------------------------------\r\n"
	.section	.rodata.bl606a0_wifi_netif_init.str1.4,"aMS",@progbits,1
	.align	2
.LC5:
	.string	"bl606a0"
	.section	.rodata.netif_status_callback.str1.4,"aMS",@progbits,1
	.align	2
.LC0:
	.string	"[lwip] netif status callback\r\n  IP: %s\r\n"
	.zero	3
.LC1:
	.string	"  MK: %s\r\n"
	.zero	1
.LC2:
	.string	"  GW: %s\r\n"
	.zero	1
.LC3:
	.string	" SKIP Notify for set Empty Address\r\n"
	.section	.rodata.wifi_tx.str1.4,"aMS",@progbits,1
	.align	2
.LC4:
	.string	"[TX] %s, TX size too big: %u bytes\r\n"
	.section	.sbss.bl606a0_sta,"aw",@nobits
	.align	2
	.set	.LANCHOR2,. + 0
	.type	bl606a0_sta, @object
	.size	bl606a0_sta, 4
bl606a0_sta:
	.zero	4
	.section	.sbss.ticks.7281,"aw",@nobits
	.align	2
	.set	.LANCHOR0,. + 0
	.type	ticks.7281, @object
	.size	ticks.7281, 4
ticks.7281:
	.zero	4
	.section	.sdata2.__func__.7282,"a"
	.align	2
	.set	.LANCHOR1,. + 0
	.type	__func__.7282, @object
	.size	__func__.7282, 8
__func__.7282:
	.string	"wifi_tx"
	.text
.Letext0:
	.file 2 "/b-l/bl_iot_sdk_new/toolchain/riscv/Linux/lib/gcc/riscv64-unknown-elf/8.3.0/include/stddef.h"
	.file 3 "/b-l/bl_iot_sdk_new/toolchain/riscv/Linux/riscv64-unknown-elf/include/machine/_default_types.h"
	.file 4 "/b-l/bl_iot_sdk_new/toolchain/riscv/Linux/riscv64-unknown-elf/include/sys/_types.h"
	.file 5 "/b-l/bl_iot_sdk_new/toolchain/riscv/Linux/riscv64-unknown-elf/include/sys/reent.h"
	.file 6 "/b-l/bl_iot_sdk_new/toolchain/riscv/Linux/riscv64-unknown-elf/include/sys/lock.h"
	.file 7 "/b-l/bl_iot_sdk_new/toolchain/riscv/Linux/riscv64-unknown-elf/include/sys/_stdint.h"
	.file 8 "/b-l/bl_iot_sdk_new/toolchain/riscv/Linux/riscv64-unknown-elf/include/stdlib.h"
	.file 9 "/b-l/bl_iot_sdk_new/components/network/lwip/src/include/lwip/arch.h"
	.file 10 "/b-l/bl_iot_sdk_new/toolchain/riscv/Linux/riscv64-unknown-elf/include/ctype.h"
	.file 11 "/b-l/bl_iot_sdk_new/components/network/lwip/src/include/lwip/err.h"
	.file 12 "/b-l/bl_iot_sdk_new/components/network/lwip/src/include/lwip/ip4_addr.h"
	.file 13 "/b-l/bl_iot_sdk_new/components/network/lwip/src/include/lwip/ip_addr.h"
	.file 14 "/b-l/bl_iot_sdk_new/components/network/lwip/src/include/lwip/pbuf.h"
	.file 15 "/b-l/bl_iot_sdk_new/components/network/lwip/src/include/lwip/mem.h"
	.file 16 "/b-l/bl_iot_sdk_new/components/network/lwip/src/include/lwip/memp.h"
	.file 17 "/b-l/bl_iot_sdk_new/components/network/lwip/src/include/lwip/priv/memp_priv.h"
	.file 18 "/b-l/bl_iot_sdk_new/components/network/lwip/src/include/lwip/stats.h"
	.file 19 "/b-l/bl_iot_sdk_new/components/network/lwip/src/include/lwip/netif.h"
	.file 20 "/b-l/bl_iot_sdk_new/components/network/lwip/src/include/lwip/prot/ethernet.h"
	.file 21 "/b-l/bl_iot_sdk_new/components/network/lwip/src/include/netif/ethernet.h"
	.file 22 "/b-l/bl_iot_sdk_new/components/network/lwip/src/include/lwip/dns.h"
	.file 23 "/b-l/bl_iot_sdk_new/components/bl602/bl602_wifidrv/bl60x_wifi_driver/lmac_types.h"
	.file 24 "/b-l/bl_iot_sdk_new/components/bl602/bl602_wifidrv/bl60x_wifi_driver/lmac_mac.h"
	.file 25 "/b-l/bl_iot_sdk_new/components/bl602/bl602_wifidrv/bl60x_wifi_driver/ipc_shared.h"
	.file 26 "/b-l/bl_iot_sdk_new/components/bl602/bl602_wifidrv/bl60x_wifi_driver/ipc_host.h"
	.file 27 "/b-l/bl_iot_sdk_new/components/bl602/bl602_wifidrv/bl60x_wifi_driver/list.h"
	.file 28 "/b-l/bl_iot_sdk_new/components/bl602/bl602_wifidrv/bl60x_wifi_driver/lmac_msg.h"
	.file 29 "/b-l/bl_iot_sdk_new/components/bl602/freertos_riscv_ram/config/projdefs.h"
	.file 30 "/b-l/bl_iot_sdk_new/components/bl602/freertos_riscv_ram/portable/GCC/RISC-V/portmacro.h"
	.file 31 "/b-l/bl_iot_sdk_new/components/bl602/freertos_riscv_ram/config/FreeRTOS.h"
	.file 32 "/b-l/bl_iot_sdk_new/components/bl602/freertos_riscv_ram/config/queue.h"
	.file 33 "/b-l/bl_iot_sdk_new/components/bl602/freertos_riscv_ram/config/semphr.h"
	.file 34 "/b-l/bl_iot_sdk_new/components/bl602/bl602_wifidrv/bl60x_wifi_driver/os_hal.h"
	.file 35 "/b-l/bl_iot_sdk_new/components/bl602/bl602_wifidrv/bl60x_wifi_driver/bl_cmds.h"
	.file 36 "/b-l/bl_iot_sdk_new/components/bl602/bl602_wifidrv/bl60x_wifi_driver/bl_defs.h"
	.file 37 "/b-l/bl_iot_sdk_new/components/bl602/bl602_wifidrv/bl60x_wifi_driver/ieee80211.h"
	.file 38 "/b-l/bl_iot_sdk_new/components/bl602/bl602_wifidrv/bl60x_wifi_driver/cfg80211.h"
	.file 39 "/b-l/bl_iot_sdk_new/components/bl602/bl602_wifidrv/bl60x_wifi_driver/bl_mod_params.h"
	.file 40 "/b-l/bl_iot_sdk_new/components/bl602/bl602_wifidrv/bl60x_wifi_driver/include/wifi_mgmr_ext.h"
	.file 41 "/b-l/bl_iot_sdk_new/components/bl602/bl602_wifidrv/bl60x_wifi_driver/stateMachine.h"
	.file 42 "/b-l/bl_iot_sdk_new/components/bl602/bl602_wifidrv/bl60x_wifi_driver/wifi_mgmr.h"
	.file 43 "/b-l/bl_iot_sdk_new/toolchain/riscv/Linux/riscv64-unknown-elf/include/stdio.h"
	.file 44 "/b-l/bl_iot_sdk_new/toolchain/riscv/Linux/riscv64-unknown-elf/include/string.h"
	.file 45 "/b-l/bl_iot_sdk_new/components/hal_drv/bl602_hal/bl_wifi.h"
	.file 46 "/b-l/bl_iot_sdk_new/components/bl602/bl602_wifidrv/bl60x_wifi_driver/bl_msg_tx.h"
	.file 47 "/b-l/bl_iot_sdk_new/components/bl602/bl602_wifidrv/bl60x_wifi_driver/wifi_mgmr_api.h"
	.file 48 "/b-l/bl_iot_sdk_new/components/bl602/freertos_riscv_ram/config/task.h"
	.file 49 "/b-l/bl_iot_sdk_new/components/bl602/bl602_wifidrv/bl60x_wifi_driver/bl_tx.h"