	.file	"igmp.c"
	.option nopic
	.attribute arch, "rv32i2p0_m2p0_f2p0_c2p0"
	.attribute unaligned_access, 0
	.attribute stack_align, 16
	.text
.Ltext0:
	.cfi_sections	.debug_frame
	.section	.text.igmp_send,"ax",@progbits
	.align	1
	.type	igmp_send, @function
igmp_send:
.LFB21:
	.file 1 "/b-l/bl_iot_sdk/components/network/lwip/src/core/ipv4/igmp.c"
	.loc 1 759 1
	.cfi_startproc
.LVL0:
	.loc 1 760 3
	.loc 1 761 3
	.loc 1 762 3
	.loc 1 762 14 is_stmt 0
	lui	a5,%hi(ip_addr_any)
	lw	a5,%lo(ip_addr_any)(a5)
	.loc 1 759 1
	addi	sp,sp,-80
	.cfi_def_cfa_offset 80
	sw	s3,60(sp)
	sw	s4,56(sp)
	sw	s5,52(sp)
	.cfi_offset 19, -20
	.cfi_offset 20, -24
	.cfi_offset 21, -28
	mv	s4,a0
	mv	s3,a1
	mv	s5,a2
	.loc 1 766 7
	li	a1,8
.LVL1:
	li	a2,640
.LVL2:
	li	a0,182
.LVL3:
	.loc 1 759 1
	sw	s1,68(sp)
	sw	ra,76(sp)
	sw	s0,72(sp)
	sw	s2,64(sp)
	.cfi_offset 9, -12
	.cfi_offset 1, -4
	.cfi_offset 8, -8
	.cfi_offset 18, -16
	.loc 1 762 14
	sw	a5,40(sp)
	.loc 1 763 3 is_stmt 1
.LVL4:
	.loc 1 766 3
	lui	s1,%hi(lwip_stats)
	.loc 1 766 7 is_stmt 0
	call	pbuf_alloc
.LVL5:
	.loc 1 768 3 is_stmt 1
	addi	s1,s1,%lo(lwip_stats)
	.loc 1 768 6 is_stmt 0
	beq	a0,zero,.L2
	.loc 1 772 17
	lw	a5,4(s4)
	.loc 1 774 8
	li	a2,22
	mv	s2,a0
	.loc 1 769 5 is_stmt 1
	.loc 1 772 17 is_stmt 0
	sw	a5,40(sp)
	lw	a5,4(s3)
	.loc 1 769 10
	lw	s0,4(a0)
.LVL6:
	.loc 1 770 5 is_stmt 1
	.loc 1 770 10
	.loc 1 770 56
	.loc 1 772 5
	.loc 1 774 5
	andi	a1,a5,255
	srli	a3,a5,8
	srli	a4,a5,16
	srli	a5,a5,24
	.loc 1 774 8 is_stmt 0
	bne	s5,a2,.L3
	.loc 1 775 7 is_stmt 1
	.loc 1 776 40 is_stmt 0
	sb	a5,7(s0)
	sb	a1,4(s0)
	sb	a3,5(s0)
	sb	a4,6(s0)
	.loc 1 777 33
	li	a5,1
	.loc 1 775 12
	addi	a2,s3,4
.LVL7:
	.loc 1 776 7 is_stmt 1
	.loc 1 777 7
	.loc 1 777 33 is_stmt 0
	sb	a5,8(s3)
.LVL8:
.L4:
	.loc 1 789 29
	li	a1,8
	.loc 1 786 26
	sb	s5,0(s0)
	.loc 1 787 26
	sb	zero,1(s0)
	.loc 1 788 27
	sb	zero,2(s0)
	sb	zero,3(s0)
	.loc 1 789 29
	mv	a0,s0
.LVL9:
	sw	a2,28(sp)
.LVL10:
	.loc 1 785 5 is_stmt 1
	.loc 1 786 7
	.loc 1 787 7
	.loc 1 788 7
	.loc 1 789 7
	.loc 1 789 29 is_stmt 0
	call	inet_chksum
.LVL11:
	.loc 1 789 27
	sb	a0,2(s0)
	srli	a0,a0,8
	sb	a0,3(s0)
	.loc 1 791 7 is_stmt 1
.LVL12:
.LBB4:
.LBB5:
	.loc 1 744 3
	.loc 1 745 3
	.loc 1 746 3
	.loc 1 745 9 is_stmt 0
	li	a5,1172
	sw	a5,44(sp)
	.loc 1 747 3 is_stmt 1
	lhu	a5,96(s1)
	.loc 1 748 10 is_stmt 0
	lw	a2,28(sp)
	addi	a7,sp,44
	.loc 1 747 3
	addi	a5,a5,1
	sh	a5,96(s1)
	.loc 1 748 3 is_stmt 1
	.loc 1 748 10 is_stmt 0
	li	a5,4
	sw	a5,0(sp)
	mv	a6,s4
	li	a5,2
	li	a4,0
	li	a3,1
	addi	a1,sp,40
.LVL13:
	mv	a0,s2
	call	ip4_output_if_opt
.LVL14:
.LBE5:
.LBE4:
	.loc 1 794 5 is_stmt 1
	mv	a0,s2
	call	pbuf_free
.LVL15:
.L1:
	.loc 1 799 1 is_stmt 0
	lw	ra,76(sp)
	.cfi_remember_state
	.cfi_restore 1
	lw	s0,72(sp)
	.cfi_restore 8
	lw	s1,68(sp)
	.cfi_restore 9
	lw	s2,64(sp)
	.cfi_restore 18
	lw	s3,60(sp)
	.cfi_restore 19
.LVL16:
	lw	s4,56(sp)
	.cfi_restore 20
.LVL17:
	lw	s5,52(sp)
	.cfi_restore 21
	addi	sp,sp,80
	.cfi_def_cfa_offset 0
	jr	ra
.LVL18:
.L3:
	.cfi_restore_state
	.loc 1 779 7 is_stmt 1
	.loc 1 780 9
	.loc 1 781 9
	.loc 1 780 14 is_stmt 0
	lui	a2,%hi(.LANCHOR0)
	.loc 1 781 42
	sb	a1,4(s0)
	sb	a3,5(s0)
	sb	a4,6(s0)
	sb	a5,7(s0)
	.loc 1 780 14
	addi	a2,a2,%lo(.LANCHOR0)
	j	.L4
.LVL19:
.L2:
	.loc 1 796 5 is_stmt 1
	.loc 1 797 5
	lhu	a5,106(s1)
	addi	a5,a5,1
	sh	a5,106(s1)
	.loc 1 799 1 is_stmt 0
	j	.L1
	.cfi_endproc
.LFE21:
	.size	igmp_send, .-igmp_send
	.section	.text.igmp_delaying_member,"ax",@progbits
	.align	1
	.type	igmp_delaying_member, @function
igmp_delaying_member:
.LFB19:
	.loc 1 714 1 is_stmt 1
	.cfi_startproc
.LVL20:
	.loc 1 715 3
	.loc 1 715 13 is_stmt 0
	lbu	a5,9(a0)
	.loc 1 715 6
	li	a4,2
	beq	a5,a4,.L8
	.loc 1 715 33 discriminator 1
	li	a4,1
	bne	a5,a4,.L20
	.loc 1 717 15
	lhu	a5,10(a0)
	.loc 1 716 34
	beq	a5,zero,.L8
	.loc 1 717 29
	bleu	a5,a1,.L20
.L8:
	.loc 1 714 1
	addi	sp,sp,-16
	.cfi_def_cfa_offset 16
	sw	s0,8(sp)
	sw	s1,4(sp)
	sw	ra,12(sp)
	.cfi_offset 8, -8
	.cfi_offset 9, -12
	.cfi_offset 1, -4
.LBB8:
.LBB9:
	.loc 1 695 18
	li	a5,2
	mv	s0,a1
	mv	s1,a0
.LBE9:
.LBE8:
	.loc 1 718 5 is_stmt 1
.LVL21:
.LBB12:
.LBB10:
	.loc 1 695 3
	.loc 1 695 18 is_stmt 0
	bgtu	a1,a5,.L10
.LVL22:
.L12:
	.loc 1 695 16
	li	a5,1
	sh	a5,10(s1)
	.loc 1 701 3 is_stmt 1
.L11:
.LVL23:
.LBE10:
.LBE12:
	.loc 1 719 5
	.loc 1 719 24 is_stmt 0
	li	a5,1
	sb	a5,9(s1)
	.loc 1 721 1
	lw	ra,12(sp)
	.cfi_remember_state
	.cfi_restore 1
	lw	s0,8(sp)
	.cfi_restore 8
	lw	s1,4(sp)
	.cfi_restore 9
.LVL24:
	addi	sp,sp,16
	.cfi_def_cfa_offset 0
	jr	ra
.LVL25:
.L10:
	.cfi_restore_state
.LBB13:
.LBB11:
	.loc 1 695 50
	call	bl_rand
.LVL26:
	.loc 1 695 61
	remu	s0,a0,s0
	.loc 1 695 18
	sh	s0,10(s1)
	.loc 1 701 3 is_stmt 1
	.loc 1 701 6 is_stmt 0
	beq	s0,zero,.L12
	j	.L11
.LVL27:
.L20:
	.cfi_def_cfa_offset 0
	.cfi_restore 1
	.cfi_restore 8
	.cfi_restore 9
	ret
.LBE11:
.LBE13:
	.cfi_endproc
.LFE19:
	.size	igmp_delaying_member, .-igmp_delaying_member
	.section	.text.igmp_init,"ax",@progbits
	.align	1
	.globl	igmp_init
	.type	igmp_init, @function
igmp_init:
.LFB4:
	.loc 1 115 1 is_stmt 1
	.cfi_startproc
	.loc 1 116 3
	.loc 1 118 3
	.loc 1 118 23 is_stmt 0
	li	a5,16777216
	lui	a4,%hi(.LANCHOR1)
	addi	a5,a5,224
	sw	a5,%lo(.LANCHOR1)(a4)
	.loc 1 119 3 is_stmt 1
	.loc 1 119 23 is_stmt 0
	li	a5,33554432
	lui	a4,%hi(.LANCHOR0)
	addi	a5,a5,224
	sw	a5,%lo(.LANCHOR0)(a4)
	.loc 1 120 1
	ret
	.cfi_endproc
.LFE4:
	.size	igmp_init, .-igmp_init
	.section	.text.igmp_stop,"ax",@progbits
	.align	1
	.globl	igmp_stop
	.type	igmp_stop, @function
igmp_stop:
.LFB6:
	.loc 1 161 1 is_stmt 1
	.cfi_startproc
.LVL28:
	.loc 1 162 3
	.loc 1 161 1 is_stmt 0
	addi	sp,sp,-16
	.cfi_def_cfa_offset 16
	sw	s1,4(sp)
	sw	ra,12(sp)
	sw	s0,8(sp)
	sw	s2,0(sp)
	.cfi_offset 9, -12
	.cfi_offset 1, -4
	.cfi_offset 8, -8
	.cfi_offset 18, -16
	.loc 1 162 22
	lw	s0,44(a0)
.LVL29:
	.loc 1 164 3 is_stmt 1
	.loc 1 161 1 is_stmt 0
	mv	s1,a0
	.loc 1 164 61
	sw	zero,44(a0)
	.loc 1 166 3 is_stmt 1
.LVL30:
.L24:
	.loc 1 166 9 is_stmt 0
	bne	s0,zero,.L26
	.loc 1 183 3 is_stmt 1
	.loc 1 184 1 is_stmt 0
	lw	ra,12(sp)
	.cfi_remember_state
	.cfi_restore 1
	lw	s0,8(sp)
	.cfi_restore 8
.LVL31:
	lw	s1,4(sp)
	.cfi_restore 9
.LVL32:
	lw	s2,0(sp)
	.cfi_restore 18
	li	a0,0
	addi	sp,sp,16
	.cfi_def_cfa_offset 0
	jr	ra
.LVL33:
.L26:
	.cfi_restore_state
.LBB14:
	.loc 1 167 5 is_stmt 1
	.loc 1 170 14 is_stmt 0
	lw	a5,72(s1)
	.loc 1 167 24
	lw	s2,0(s0)
.LVL34:
	.loc 1 170 5 is_stmt 1
	.loc 1 170 8 is_stmt 0
	beq	a5,zero,.L25
	.loc 1 171 7 is_stmt 1
	.loc 1 172 7
	.loc 1 173 7
	.loc 1 174 7
	li	a2,0
	addi	a1,s0,4
	mv	a0,s1
	jalr	a5
.LVL35:
.L25:
	.loc 1 178 5
	mv	a1,s0
	li	a0,8
	call	memp_free
.LVL36:
	.loc 1 181 5
	.loc 1 181 11 is_stmt 0
	mv	s0,s2
	j	.L24
.LBE14:
	.cfi_endproc
.LFE6:
	.size	igmp_stop, .-igmp_stop
	.section	.text.igmp_report_groups,"ax",@progbits
	.align	1
	.globl	igmp_report_groups
	.type	igmp_report_groups, @function
igmp_report_groups:
.LFB7:
	.loc 1 193 1 is_stmt 1
	.cfi_startproc
.LVL37:
	.loc 1 194 3
	.loc 1 194 22 is_stmt 0
	lw	a5,44(a0)
.LVL38:
	.loc 1 196 3 is_stmt 1
	.loc 1 199 3
	.loc 1 199 6 is_stmt 0
	beq	a5,zero,.L37
	.loc 1 200 5 is_stmt 1
	.loc 1 193 1 is_stmt 0
	addi	sp,sp,-16
	.cfi_def_cfa_offset 16
	sw	ra,12(sp)
	sw	s0,8(sp)
	.cfi_offset 1, -4
	.cfi_offset 8, -8
	.loc 1 200 11
	lw	s0,0(a5)
.LVL39:
.L33:
	.loc 1 203 9
	bne	s0,zero,.L34
	.loc 1 207 1
	lw	ra,12(sp)
	.cfi_remember_state
	.cfi_restore 1
	lw	s0,8(sp)
	.cfi_restore 8
.LVL40:
	addi	sp,sp,16
	.cfi_def_cfa_offset 0
	jr	ra
.LVL41:
.L34:
	.cfi_restore_state
	.loc 1 204 5 is_stmt 1
	mv	a0,s0
	li	a1,5
	call	igmp_delaying_member
.LVL42:
	.loc 1 205 5
	.loc 1 205 11 is_stmt 0
	lw	s0,0(s0)
.LVL43:
	j	.L33
.LVL44:
.L37:
	.cfi_def_cfa_offset 0
	.cfi_restore 1
	.cfi_restore 8
	ret
	.cfi_endproc
.LFE7:
	.size	igmp_report_groups, .-igmp_report_groups
	.section	.text.igmp_lookfor_group,"ax",@progbits
	.align	1
	.globl	igmp_lookfor_group
	.type	igmp_lookfor_group, @function
igmp_lookfor_group:
.LFB8:
	.loc 1 219 1 is_stmt 1
	.cfi_startproc
.LVL45:
	.loc 1 220 3
	.loc 1 220 22 is_stmt 0
	lw	a0,44(a0)
.LVL46:
	.loc 1 222 3 is_stmt 1
.L41:
	.loc 1 222 9 is_stmt 0
	bne	a0,zero,.L43
.L40:
	.loc 1 233 1
	ret
.L43:
	.loc 1 223 5 is_stmt 1
	.loc 1 223 8 is_stmt 0
	lw	a4,4(a0)
	lw	a5,0(a1)
	beq	a4,a5,.L40
	.loc 1 226 5 is_stmt 1
	.loc 1 226 11 is_stmt 0
	lw	a0,0(a0)
.LVL47:
	j	.L41
	.cfi_endproc
.LFE8:
	.size	igmp_lookfor_group, .-igmp_lookfor_group
	.section	.text.igmp_lookup_group,"ax",@progbits
	.align	1
	.type	igmp_lookup_group, @function
igmp_lookup_group:
.LFB9:
	.loc 1 245 1 is_stmt 1
	.cfi_startproc
.LVL48:
	.loc 1 246 3
	.loc 1 247 3
	.loc 1 245 1 is_stmt 0
	addi	sp,sp,-16
	.cfi_def_cfa_offset 16
	sw	s1,4(sp)
	sw	s2,0(sp)
	sw	ra,12(sp)
	sw	s0,8(sp)
	.cfi_offset 9, -12
	.cfi_offset 18, -16
	.cfi_offset 1, -4
	.cfi_offset 8, -8
	.loc 1 245 1
	mv	s1,a0
.LVL49:
	.loc 1 250 3 is_stmt 1
	.loc 1 245 1 is_stmt 0
	mv	s2,a1
	.loc 1 250 11
	call	igmp_lookfor_group
.LVL50:
	.loc 1 251 3 is_stmt 1
	.loc 1 251 6 is_stmt 0
	bne	a0,zero,.L44
	.loc 1 257 32
	li	a0,8
.LVL51:
	.loc 1 247 22
	lw	s0,44(s1)
	.loc 1 257 3 is_stmt 1
	.loc 1 257 32 is_stmt 0
	call	memp_malloc
.LVL52:
	.loc 1 258 3 is_stmt 1
	.loc 1 258 6 is_stmt 0
	beq	a0,zero,.L44
	.loc 1 259 5 is_stmt 1
	.loc 1 259 8 is_stmt 0
	li	a5,0
	beq	s2,zero,.L46
	.loc 1 259 8 discriminator 1
	lw	a5,0(s2)
.L46:
	.loc 1 259 38 discriminator 4
	sw	a5,4(a0)
	.loc 1 260 5 is_stmt 1 discriminator 4
	.loc 1 261 5 discriminator 4
	.loc 1 262 5 discriminator 4
	.loc 1 263 5 discriminator 4
	.loc 1 262 31 is_stmt 0 discriminator 4
	sw	zero,8(a0)
	.loc 1 263 16 discriminator 4
	sb	zero,12(a0)
	.loc 1 266 5 is_stmt 1 discriminator 4
	.loc 1 266 8 is_stmt 0 discriminator 4
	bne	s0,zero,.L47
	.loc 1 268 7 is_stmt 1
	.loc 1 268 12
	.loc 1 268 67
	.loc 1 270 7
	.loc 1 270 19 is_stmt 0
	sw	zero,0(a0)
	.loc 1 271 7 is_stmt 1
	.loc 1 271 63 is_stmt 0
	sw	a0,44(s1)
.L44:
	.loc 1 286 1
	lw	ra,12(sp)
	.cfi_remember_state
	.cfi_restore 1
	lw	s0,8(sp)
	.cfi_restore 8
	lw	s1,4(sp)
	.cfi_restore 9
.LVL53:
	lw	s2,0(sp)
	.cfi_restore 18
.LVL54:
	addi	sp,sp,16
	.cfi_def_cfa_offset 0
	jr	ra
.LVL55:
.L47:
	.cfi_restore_state
	.loc 1 274 7 is_stmt 1
	.loc 1 274 12
	.loc 1 274 67
	.loc 1 276 7
	.loc 1 276 30 is_stmt 0
	lw	a5,0(s0)
	.loc 1 276 19
	sw	a5,0(a0)
	.loc 1 277 7 is_stmt 1
	.loc 1 277 23 is_stmt 0
	sw	a0,0(s0)
	j	.L44
	.cfi_endproc
.LFE9:
	.size	igmp_lookup_group, .-igmp_lookup_group
	.section	.text.igmp_start,"ax",@progbits
	.align	1
	.globl	igmp_start
	.type	igmp_start, @function
igmp_start:
.LFB5:
	.loc 1 129 1 is_stmt 1
	.cfi_startproc
.LVL56:
	.loc 1 130 3
	.loc 1 132 3
	.loc 1 134 3
	.loc 1 129 1 is_stmt 0
	addi	sp,sp,-16
	.cfi_def_cfa_offset 16
	sw	s1,4(sp)
	.cfi_offset 9, -12
	.loc 1 134 11
	lui	s1,%hi(.LANCHOR1)
	addi	a1,s1,%lo(.LANCHOR1)
	.loc 1 129 1
	sw	s0,8(sp)
	sw	ra,12(sp)
	.cfi_offset 8, -8
	.cfi_offset 1, -4
	.loc 1 129 1
	mv	s0,a0
	.loc 1 134 11
	call	igmp_lookup_group
.LVL57:
	.loc 1 136 3 is_stmt 1
	.loc 1 136 6 is_stmt 0
	beq	a0,zero,.L55
	.loc 1 137 5 is_stmt 1
	.loc 1 137 24 is_stmt 0
	li	a5,2
	sb	a5,9(a0)
	.loc 1 138 5 is_stmt 1
	.loc 1 138 15 is_stmt 0
	lbu	a5,12(a0)
	addi	a5,a5,1
	sb	a5,12(a0)
	.loc 1 141 5 is_stmt 1
	.loc 1 141 14 is_stmt 0
	lw	a5,72(s0)
	.loc 1 148 12
	li	a0,0
.LVL58:
	.loc 1 141 8
	beq	a5,zero,.L54
	.loc 1 142 7 is_stmt 1
	.loc 1 143 7
	.loc 1 144 7
	.loc 1 145 7
	li	a2,1
	addi	a1,s1,%lo(.LANCHOR1)
	mv	a0,s0
	jalr	a5
.LVL59:
	.loc 1 148 12 is_stmt 0
	li	a0,0
.L54:
	.loc 1 152 1
	lw	ra,12(sp)
	.cfi_remember_state
	.cfi_restore 1
	lw	s0,8(sp)
	.cfi_restore 8
.LVL60:
	lw	s1,4(sp)
	.cfi_restore 9
	addi	sp,sp,16
	.cfi_def_cfa_offset 0
	jr	ra
.LVL61:
.L55:
	.cfi_restore_state
	.loc 1 151 10
	li	a0,-1
.LVL62:
	j	.L54
	.cfi_endproc
.LFE5:
	.size	igmp_start, .-igmp_start
	.section	.text.igmp_input,"ax",@progbits
	.align	1
	.globl	igmp_input
	.type	igmp_input, @function
igmp_input:
.LFB11:
	.loc 1 324 1 is_stmt 1
	.cfi_startproc
.LVL63:
	.loc 1 325 3
	.loc 1 326 3
	.loc 1 327 3
	.loc 1 329 3
	.loc 1 324 1 is_stmt 0
	addi	sp,sp,-48
	.cfi_def_cfa_offset 48
	sw	s3,28(sp)
	.cfi_offset 19, -20
	.loc 1 329 3
	lui	s3,%hi(lwip_stats)
	.loc 1 324 1
	sw	s0,40(sp)
	sw	s5,20(sp)
	sw	ra,44(sp)
	sw	s1,36(sp)
	sw	s2,32(sp)
	sw	s4,24(sp)
	.cfi_offset 8, -8
	.cfi_offset 21, -28
	.cfi_offset 1, -4
	.cfi_offset 9, -12
	.cfi_offset 18, -16
	.cfi_offset 20, -24
	.loc 1 329 3
	addi	s0,s3,%lo(lwip_stats)
	lhu	a5,98(s0)
	.loc 1 324 1
	mv	s5,a1
	.loc 1 329 3
	addi	a5,a5,1
	sh	a5,98(s0)
	.loc 1 332 3 is_stmt 1
	.loc 1 332 8 is_stmt 0
	lhu	a1,10(a0)
.LVL64:
	.loc 1 332 6
	li	a5,7
	bgtu	a1,a5,.L59
	.loc 1 333 5 is_stmt 1
	call	pbuf_free
.LVL65:
	.loc 1 334 5
	lhu	a5,104(s0)
	addi	a5,a5,1
	sh	a5,104(s0)
	.loc 1 335 5
	.loc 1 336 5
.L58:
	.loc 1 438 1 is_stmt 0
	lw	ra,44(sp)
	.cfi_remember_state
	.cfi_restore 1
	lw	s0,40(sp)
	.cfi_restore 8
	lw	s1,36(sp)
	.cfi_restore 9
	lw	s2,32(sp)
	.cfi_restore 18
	lw	s3,28(sp)
	.cfi_restore 19
	lw	s4,24(sp)
	.cfi_restore 20
	lw	s5,20(sp)
	.cfi_restore 21
.LVL66:
	addi	sp,sp,48
	.cfi_def_cfa_offset 0
	jr	ra
.LVL67:
.L59:
	.cfi_restore_state
	.loc 1 346 8
	lw	s1,4(a0)
	mv	s2,a0
	mv	s4,a2
	.loc 1 339 3 is_stmt 1
	.loc 1 340 3
	.loc 1 341 3
	.loc 1 342 3
	.loc 1 343 3
	.loc 1 346 3
.LVL68:
	.loc 1 347 3
	.loc 1 347 7 is_stmt 0
	mv	a0,s1
.LVL69:
	call	inet_chksum
.LVL70:
	.loc 1 347 6
	beq	a0,zero,.L61
	.loc 1 348 5 is_stmt 1
	mv	a0,s2
	call	pbuf_free
.LVL71:
	.loc 1 349 5
	lhu	a5,102(s0)
	addi	a5,a5,1
	sh	a5,102(s0)
	.loc 1 350 5
	.loc 1 351 5
	j	.L58
.L61:
	.loc 1 355 3
	.loc 1 355 11 is_stmt 0
	mv	a1,s4
	mv	a0,s5
	call	igmp_lookfor_group
.LVL72:
	.loc 1 358 3 is_stmt 1
	.loc 1 358 6 is_stmt 0
	bne	a0,zero,.L62
	.loc 1 359 5 is_stmt 1
	mv	a0,s2
.LVL73:
	call	pbuf_free
.LVL74:
	.loc 1 360 5
	lhu	a5,100(s0)
	addi	a5,a5,1
	sh	a5,100(s0)
	.loc 1 361 5
	.loc 1 362 5
	j	.L58
.LVL75:
.L62:
	.loc 1 366 3
	.loc 1 366 15 is_stmt 0
	lbu	a5,0(s1)
	.loc 1 366 3
	li	a4,17
	beq	a5,a4,.L63
	li	a4,22
	beq	a5,a4,.L64
.L78:
	.loc 1 431 101 is_stmt 1
	.loc 1 432 7
	lhu	a5,108(s0)
	addi	a5,a5,1
	sh	a5,108(s0)
	.loc 1 433 7
	j	.L71
.L63:
	lbu	a4,5(s1)
	lbu	a5,4(s1)
	.loc 1 369 10 is_stmt 0
	lw	a3,0(s4)
	slli	a4,a4,8
	or	a4,a4,a5
	lbu	a5,6(s1)
	addi	s3,s3,%lo(lwip_stats)
	.loc 1 369 7 is_stmt 1
	slli	a5,a5,16
	or	a4,a5,a4
	lbu	a5,7(s1)
	slli	a5,a5,24
	or	a5,a5,a4
	.loc 1 369 10 is_stmt 0
	lui	a4,%hi(.LANCHOR1)
	lw	a4,%lo(.LANCHOR1)(a4)
	bne	a3,a4,.L66
	.loc 1 369 47 discriminator 1
	bne	a5,zero,.L67
	.loc 1 371 9 is_stmt 1
	.loc 1 373 9
	.loc 1 373 12 is_stmt 0
	lbu	a5,1(s1)
	bne	a5,zero,.L68
	.loc 1 374 11 is_stmt 1
	lhu	a5,110(s0)
	addi	a5,a5,1
	sh	a5,110(s0)
	.loc 1 375 11
	.loc 1 376 11
	.loc 1 376 30 is_stmt 0
	li	a5,10
	sb	a5,1(s1)
.L69:
	.loc 1 381 9 is_stmt 1
	.loc 1 381 18 is_stmt 0
	lw	a5,44(s5)
.LVL76:
	.loc 1 385 9 is_stmt 1
	.loc 1 385 12 is_stmt 0
	beq	a5,zero,.L71
	.loc 1 386 11 is_stmt 1
	.loc 1 386 20 is_stmt 0
	lw	s0,0(a5)
.LVL77:
.L72:
	.loc 1 389 15
	bne	s0,zero,.L73
.LVL78:
.L71:
	.loc 1 436 3 is_stmt 1
	mv	a0,s2
	call	pbuf_free
.LVL79:
	.loc 1 437 3
	j	.L58
.LVL80:
.L68:
	.loc 1 378 11
	lhu	a5,114(s0)
	addi	a5,a5,1
	sh	a5,114(s0)
	j	.L69
.LVL81:
.L73:
	.loc 1 390 11
	lbu	a1,1(s1)
	mv	a0,s0
	call	igmp_delaying_member
.LVL82:
	.loc 1 391 11
	.loc 1 391 20 is_stmt 0
	lw	s0,0(s0)
.LVL83:
	j	.L72
.LVL84:
.L67:
	.loc 1 395 9 is_stmt 1
.LBB15:
	.loc 1 399 13
	.loc 1 400 13
	.loc 1 402 13
	.loc 1 403 21 is_stmt 0
	addi	a1,sp,12
	mv	a0,s5
.LVL85:
	.loc 1 402 31
	sw	a5,12(sp)
	.loc 1 403 13 is_stmt 1
	.loc 1 403 21 is_stmt 0
	call	igmp_lookfor_group
.LVL86:
.LBE15:
	.loc 1 405 13 is_stmt 1
	.loc 1 408 11
	.loc 1 408 14 is_stmt 0
	beq	a0,zero,.L75
.L76:
	.loc 1 409 13 is_stmt 1
	lhu	a5,112(s3)
	addi	a5,a5,1
	sh	a5,112(s3)
	.loc 1 410 13
	lbu	a1,1(s1)
	call	igmp_delaying_member
.LVL87:
	j	.L71
.LVL88:
.L75:
	.loc 1 412 13
	lhu	a5,100(s0)
	addi	a5,a5,1
	sh	a5,100(s0)
	j	.L71
.L64:
	.loc 1 420 7
	.loc 1 421 7
	lhu	a5,116(s0)
	addi	a5,a5,1
	sh	a5,116(s0)
	.loc 1 422 7
	.loc 1 422 10 is_stmt 0
	lbu	a4,9(a0)
	li	a5,1
	bne	a4,a5,.L71
	.loc 1 424 9 is_stmt 1
	.loc 1 425 9
	.loc 1 426 9
	.loc 1 426 35 is_stmt 0
	li	a5,512
	sw	a5,8(a0)
	j	.L71
.L66:
	.loc 1 395 9 is_stmt 1
	.loc 1 395 13 is_stmt 0
	beq	a5,zero,.L78
	j	.L76
	.cfi_endproc
.LFE11:
	.size	igmp_input, .-igmp_input
	.section	.text.igmp_joingroup_netif,"ax",@progbits
	.align	1
	.globl	igmp_joingroup_netif
	.type	igmp_joingroup_netif, @function
igmp_joingroup_netif:
.LFB13:
	.loc 1 486 1 is_stmt 1
	.cfi_startproc
.LVL89:
	.loc 1 487 3
	.loc 1 489 3
	.loc 1 492 3
	.loc 1 492 8
	.loc 1 492 27 is_stmt 0
	lw	a3,0(a1)
	.loc 1 492 11
	li	a5,224
	.loc 1 492 34
	andi	a2,a3,240
	.loc 1 492 11
	bne	a2,a5,.L86
	.loc 1 492 450 is_stmt 1 discriminator 2
	.loc 1 493 3 discriminator 2
	.loc 1 493 8 discriminator 2
	.loc 1 493 11 is_stmt 0 discriminator 2
	lui	a5,%hi(.LANCHOR1)
	lw	a2,%lo(.LANCHOR1)(a5)
	.loc 1 492 442 discriminator 2
	li	a5,-6
	.loc 1 493 11 discriminator 2
	beq	a3,a2,.L95
	.loc 1 486 1 discriminator 2
	addi	sp,sp,-16
	.cfi_def_cfa_offset 16
	sw	s1,4(sp)
	sw	ra,12(sp)
	sw	s0,8(sp)
	sw	s2,0(sp)
	.cfi_offset 9, -12
	.cfi_offset 1, -4
	.cfi_offset 8, -8
	.cfi_offset 18, -16
	.loc 1 496 11 discriminator 2
	lbu	a3,65(a0)
	mv	s1,a0
	.loc 1 493 81 is_stmt 1 discriminator 2
	.loc 1 496 3 discriminator 2
	.loc 1 496 8 discriminator 2
	.loc 1 496 11 is_stmt 0 discriminator 2
	andi	a3,a3,32
	beq	a3,zero,.L82
	mv	s2,a1
	.loc 1 496 56 is_stmt 1 discriminator 2
	.loc 1 499 3 discriminator 2
	.loc 1 499 11 is_stmt 0 discriminator 2
	call	igmp_lookup_group
.LVL90:
	mv	s0,a0
.LVL91:
	.loc 1 501 3 is_stmt 1 discriminator 2
	.loc 1 533 12 is_stmt 0 discriminator 2
	li	a5,-1
	.loc 1 501 6 discriminator 2
	beq	a0,zero,.L82
	.loc 1 503 5 is_stmt 1
	.loc 1 503 8 is_stmt 0
	lbu	a5,9(a0)
	bne	a5,zero,.L83
	.loc 1 507 7 is_stmt 1
	.loc 1 508 7
	.loc 1 509 7
	.loc 1 512 7
	.loc 1 512 10 is_stmt 0
	lbu	a5,12(a0)
	bne	a5,zero,.L84
	.loc 1 512 38 discriminator 1
	lw	a5,72(s1)
	.loc 1 512 29 discriminator 1
	beq	a5,zero,.L84
	.loc 1 513 9 is_stmt 1
	.loc 1 514 9
	.loc 1 515 9
	.loc 1 516 9
	li	a2,1
	mv	a1,s2
	mv	a0,s1
	jalr	a5
.LVL92:
.L84:
	.loc 1 519 7
	lui	a5,%hi(lwip_stats)
	addi	a5,a5,%lo(lwip_stats)
	lhu	a4,118(a5)
	.loc 1 520 7 is_stmt 0
	li	a2,22
	mv	a1,s0
	.loc 1 519 7
	addi	a4,a4,1
	.loc 1 520 7
	mv	a0,s1
	.loc 1 519 7
	sh	a4,118(a5)
	.loc 1 520 7 is_stmt 1
	call	igmp_send
.LVL93:
	.loc 1 522 7
.LBB18:
.LBB19:
	.loc 1 695 3
	.loc 1 695 50 is_stmt 0
	call	bl_rand
.LVL94:
	.loc 1 695 61
	li	a5,5
	remu	a0,a0,a5
	.loc 1 701 3 is_stmt 1
	.loc 1 701 6 is_stmt 0
	bne	a0,zero,.L85
	li	a0,1
.L85:
.LBE19:
.LBE18:
	.loc 1 525 26
	li	a5,1
	sh	a0,10(s0)
.LVL95:
	.loc 1 525 7 is_stmt 1
	.loc 1 525 26 is_stmt 0
	sb	a5,9(s0)
.LVL96:
.L83:
	.loc 1 528 5 is_stmt 1
	.loc 1 528 15 is_stmt 0
	lbu	a5,12(s0)
	addi	a5,a5,1
	sb	a5,12(s0)
	.loc 1 530 5 is_stmt 1
	.loc 1 530 12 is_stmt 0
	li	a5,0
.LVL97:
.L82:
	.loc 1 535 1
	lw	ra,12(sp)
	.cfi_restore 1
	lw	s0,8(sp)
	.cfi_restore 8
	lw	s1,4(sp)
	.cfi_restore 9
.LVL98:
	lw	s2,0(sp)
	.cfi_restore 18
	mv	a0,a5
	addi	sp,sp,16
	.cfi_def_cfa_offset 0
	jr	ra
.LVL99:
.L86:
	.loc 1 492 442
	li	a5,-6
.L95:
	.loc 1 535 1
	mv	a0,a5
.LVL100:
	ret
	.cfi_endproc
.LFE13:
	.size	igmp_joingroup_netif, .-igmp_joingroup_netif
	.section	.text.igmp_joingroup,"ax",@progbits
	.align	1
	.globl	igmp_joingroup
	.type	igmp_joingroup, @function
igmp_joingroup:
.LFB12:
	.loc 1 450 1 is_stmt 1
	.cfi_startproc
.LVL101:
	.loc 1 451 3
	.loc 1 452 3
	.loc 1 454 3
	.loc 1 457 3
	.loc 1 457 8
	.loc 1 457 27 is_stmt 0
	lw	a5,0(a1)
	.loc 1 457 11
	li	a4,224
	.loc 1 457 34
	andi	a3,a5,240
	.loc 1 457 11
	bne	a3,a4,.L104
	.loc 1 458 11 discriminator 2
	lui	a4,%hi(.LANCHOR1)
	lw	a4,%lo(.LANCHOR1)(a4)
	.loc 1 450 1 discriminator 2
	addi	sp,sp,-16
	.cfi_def_cfa_offset 16
	sw	s1,4(sp)
	sw	ra,12(sp)
	sw	s0,8(sp)
	sw	s2,0(sp)
	.cfi_offset 9, -12
	.cfi_offset 1, -4
	.cfi_offset 8, -8
	.cfi_offset 18, -16
	mv	s1,a0
	.loc 1 457 450 is_stmt 1 discriminator 2
	.loc 1 458 3 discriminator 2
	.loc 1 458 8 discriminator 2
	.loc 1 457 442 is_stmt 0 discriminator 2
	li	a0,-6
.LVL102:
	.loc 1 458 11 discriminator 2
	beq	a5,a4,.L99
	.loc 1 461 16 discriminator 2
	lui	a5,%hi(netif_list)
	lw	s0,%lo(netif_list)(a5)
	mv	s2,a1
	.loc 1 458 81 is_stmt 1 discriminator 2
	.loc 1 461 3 discriminator 2
.LVL103:
.L100:
	.loc 1 461 3 is_stmt 0 discriminator 1
	bne	s0,zero,.L103
.LVL104:
.L99:
	.loc 1 474 1
	lw	ra,12(sp)
	.cfi_remember_state
	.cfi_restore 1
	lw	s0,8(sp)
	.cfi_restore 8
	lw	s1,4(sp)
	.cfi_restore 9
.LVL105:
	lw	s2,0(sp)
	.cfi_restore 18
	addi	sp,sp,16
	.cfi_def_cfa_offset 0
	jr	ra
.LVL106:
.L103:
	.cfi_restore_state
	.loc 1 463 5 is_stmt 1
	.loc 1 463 8 is_stmt 0
	lbu	a5,65(s0)
	andi	a5,a5,32
	beq	a5,zero,.L101
	.loc 1 463 32 discriminator 1
	beq	s1,zero,.L102
	.loc 1 463 61 discriminator 2
	lw	a5,0(s1)
	.loc 1 463 46 discriminator 2
	beq	a5,zero,.L102
	.loc 1 463 94 discriminator 3
	lw	a4,4(s0)
	bne	a5,a4,.L101
.L102:
	.loc 1 464 7 is_stmt 1
	.loc 1 464 13 is_stmt 0
	mv	a1,s2
	mv	a0,s0
.LVL107:
	call	igmp_joingroup_netif
.LVL108:
	.loc 1 465 7 is_stmt 1
	.loc 1 465 10 is_stmt 0
	bne	a0,zero,.L99
.L101:
	.loc 1 461 12 discriminator 2
	lw	s0,0(s0)
.LVL109:
	j	.L100
.LVL110:
.L104:
	.cfi_def_cfa_offset 0
	.cfi_restore 1
	.cfi_restore 8
	.cfi_restore 9
	.cfi_restore 18
	.loc 1 457 442
	li	a0,-6
.LVL111:
	.loc 1 474 1
	ret
	.cfi_endproc
.LFE12:
	.size	igmp_joingroup, .-igmp_joingroup
	.section	.text.igmp_leavegroup_netif,"ax",@progbits
	.align	1
	.globl	igmp_leavegroup_netif
	.type	igmp_leavegroup_netif, @function
igmp_leavegroup_netif:
.LFB15:
	.loc 1 582 1 is_stmt 1
	.cfi_startproc
.LVL112:
	.loc 1 583 3
	.loc 1 585 3
	.loc 1 588 3
	.loc 1 588 8
	.loc 1 588 27 is_stmt 0
	lw	a4,0(a1)
	.loc 1 588 11
	li	a5,224
	.loc 1 588 34
	andi	a3,a4,240
	.loc 1 588 11
	bne	a3,a5,.L127
	.loc 1 588 450 is_stmt 1 discriminator 2
	.loc 1 589 3 discriminator 2
	.loc 1 589 8 discriminator 2
	.loc 1 589 11 is_stmt 0 discriminator 2
	lui	a5,%hi(.LANCHOR1)
	lw	a3,%lo(.LANCHOR1)(a5)
	.loc 1 588 442 discriminator 2
	li	a5,-6
	.loc 1 589 11 discriminator 2
	beq	a4,a3,.L139
	.loc 1 582 1 discriminator 2
	addi	sp,sp,-16
	.cfi_def_cfa_offset 16
	sw	s1,4(sp)
	sw	ra,12(sp)
	sw	s0,8(sp)
	sw	s2,0(sp)
	.cfi_offset 9, -12
	.cfi_offset 1, -4
	.cfi_offset 8, -8
	.cfi_offset 18, -16
	.loc 1 592 11 discriminator 2
	lbu	a4,65(a0)
	mv	s1,a0
	.loc 1 589 81 is_stmt 1 discriminator 2
	.loc 1 592 3 discriminator 2
	.loc 1 592 8 discriminator 2
	.loc 1 592 11 is_stmt 0 discriminator 2
	andi	a4,a4,32
	beq	a4,zero,.L120
	mv	s2,a1
	.loc 1 592 56 is_stmt 1 discriminator 2
	.loc 1 595 3 discriminator 2
	.loc 1 595 11 is_stmt 0 discriminator 2
	call	igmp_lookfor_group
.LVL113:
	mv	s0,a0
.LVL114:
	.loc 1 597 3 is_stmt 1 discriminator 2
	.loc 1 588 442 is_stmt 0 discriminator 2
	li	a5,-6
	.loc 1 597 6 discriminator 2
	beq	a0,zero,.L120
	.loc 1 599 5 is_stmt 1
	.loc 1 600 5
	.loc 1 601 5
	.loc 1 604 5
	.loc 1 604 14 is_stmt 0
	lbu	a5,12(a0)
	.loc 1 604 8
	li	a4,1
	bgtu	a5,a4,.L121
	.loc 1 606 7 is_stmt 1
	lw	a5,44(s1)
.LVL115:
.LBB22:
.LBB23:
	.loc 1 297 3
	.loc 1 298 3
	.loc 1 301 3
.L122:
	beq	a5,zero,.L123
	.loc 1 302 5
	.loc 1 302 18 is_stmt 0
	lw	a4,0(a5)
	.loc 1 302 8
	bne	s0,a4,.L131
	.loc 1 303 7 is_stmt 1
	.loc 1 303 30 is_stmt 0
	lw	a4,0(s0)
	.loc 1 303 23
	sw	a4,0(a5)
	.loc 1 304 7 is_stmt 1
	.loc 1 308 3
.L123:
.LVL116:
	.loc 1 312 3
.LBE23:
.LBE22:
	.loc 1 609 7
	.loc 1 609 10 is_stmt 0
	lbu	a5,8(s0)
	beq	a5,zero,.L125
	.loc 1 610 9 is_stmt 1
	.loc 1 611 9
	lui	a5,%hi(lwip_stats)
	addi	a5,a5,%lo(lwip_stats)
	lhu	a4,120(a5)
	.loc 1 612 9 is_stmt 0
	li	a2,23
	mv	a1,s0
	.loc 1 611 9
	addi	a4,a4,1
	.loc 1 612 9
	mv	a0,s1
	.loc 1 611 9
	sh	a4,120(a5)
	.loc 1 612 9 is_stmt 1
	call	igmp_send
.LVL117:
.L125:
	.loc 1 616 7
	.loc 1 616 16 is_stmt 0
	lw	a5,72(s1)
	.loc 1 616 10
	beq	a5,zero,.L126
	.loc 1 617 9 is_stmt 1
	.loc 1 618 9
	.loc 1 619 9
	.loc 1 620 9
	li	a2,0
	mv	a1,s2
	mv	a0,s1
	jalr	a5
.LVL118:
.L126:
	.loc 1 624 7
	mv	a1,s0
	li	a0,8
	call	memp_free
.LVL119:
.L142:
	.loc 1 629 12 is_stmt 0
	li	a5,0
.LVL120:
.L120:
	.loc 1 634 1
	lw	ra,12(sp)
	.cfi_remember_state
	.cfi_restore 1
	lw	s0,8(sp)
	.cfi_restore 8
	lw	s1,4(sp)
	.cfi_restore 9
.LVL121:
	lw	s2,0(sp)
	.cfi_restore 18
	mv	a0,a5
	addi	sp,sp,16
	.cfi_def_cfa_offset 0
	jr	ra
.LVL122:
.L131:
	.cfi_restore_state
.LBB25:
.LBB24:
	.loc 1 302 8
	mv	a5,a4
.LVL123:
	j	.L122
.LVL124:
.L121:
.LBE24:
.LBE25:
	.loc 1 627 7 is_stmt 1
	.loc 1 627 17 is_stmt 0
	addi	a5,a5,-1
	sb	a5,12(a0)
	j	.L142
.LVL125:
.L127:
	.cfi_def_cfa_offset 0
	.cfi_restore 1
	.cfi_restore 8
	.cfi_restore 9
	.cfi_restore 18
	.loc 1 588 442
	li	a5,-6
.L139:
	.loc 1 634 1
	mv	a0,a5
.LVL126:
	ret
	.cfi_endproc
.LFE15:
	.size	igmp_leavegroup_netif, .-igmp_leavegroup_netif
	.section	.text.igmp_leavegroup,"ax",@progbits
	.align	1
	.globl	igmp_leavegroup
	.type	igmp_leavegroup, @function
igmp_leavegroup:
.LFB14:
	.loc 1 547 1 is_stmt 1
	.cfi_startproc
.LVL127:
	.loc 1 548 3
	.loc 1 549 3
	.loc 1 551 3
	.loc 1 554 3
	.loc 1 554 8
	.loc 1 547 1 is_stmt 0
	addi	sp,sp,-32
	.cfi_def_cfa_offset 32
	sw	s1,20(sp)
	sw	ra,28(sp)
	sw	s0,24(sp)
	sw	s2,16(sp)
	sw	s3,12(sp)
	.cfi_offset 9, -12
	.cfi_offset 1, -4
	.cfi_offset 8, -8
	.cfi_offset 18, -16
	.cfi_offset 19, -20
	.loc 1 554 27
	lw	a5,0(a1)
	.loc 1 554 11
	li	a4,224
	.loc 1 554 442
	li	s1,-6
	.loc 1 554 34
	andi	a3,a5,240
	.loc 1 554 11
	bne	a3,a4,.L144
	.loc 1 554 450 is_stmt 1 discriminator 2
	.loc 1 555 3 discriminator 2
	.loc 1 555 8 discriminator 2
	.loc 1 555 11 is_stmt 0 discriminator 2
	lui	a4,%hi(.LANCHOR1)
	lw	a4,%lo(.LANCHOR1)(a4)
	.loc 1 554 442 discriminator 2
	li	s1,-6
	.loc 1 555 11 discriminator 2
	beq	a5,a4,.L144
	.loc 1 558 16 discriminator 2
	lui	a5,%hi(netif_list)
	lw	s0,%lo(netif_list)(a5)
	mv	s3,a1
	mv	s2,a0
	.loc 1 555 81 is_stmt 1 discriminator 2
	.loc 1 558 3 discriminator 2
.LVL128:
.L145:
	.loc 1 558 3 is_stmt 0 discriminator 1
	bne	s0,zero,.L148
.LVL129:
.L144:
	.loc 1 570 1
	lw	ra,28(sp)
	.cfi_remember_state
	.cfi_restore 1
	lw	s0,24(sp)
	.cfi_restore 8
	mv	a0,s1
	lw	s2,16(sp)
	.cfi_restore 18
	lw	s1,20(sp)
	.cfi_restore 9
	lw	s3,12(sp)
	.cfi_restore 19
	addi	sp,sp,32
	.cfi_def_cfa_offset 0
	jr	ra
.LVL130:
.L148:
	.cfi_restore_state
	.loc 1 560 5 is_stmt 1
	.loc 1 560 8 is_stmt 0
	lbu	a5,65(s0)
	andi	a5,a5,32
	beq	a5,zero,.L146
	.loc 1 560 32 discriminator 1
	beq	s2,zero,.L147
	.loc 1 560 61 discriminator 2
	lw	a5,0(s2)
	.loc 1 560 46 discriminator 2
	beq	a5,zero,.L147
	.loc 1 560 94 discriminator 3
	lw	a4,4(s0)
	bne	a5,a4,.L146
.L147:
.LBB26:
	.loc 1 561 7 is_stmt 1
	.loc 1 561 19 is_stmt 0
	mv	a1,s3
	mv	a0,s0
	call	igmp_leavegroup_netif
.LVL131:
	.loc 1 562 7 is_stmt 1
	.loc 1 562 10 is_stmt 0
	beq	s1,zero,.L146
	.loc 1 564 13
	mv	s1,a0
.LVL132:
.L146:
.LBE26:
	.loc 1 558 12 discriminator 2
	lw	s0,0(s0)
.LVL133:
	j	.L145
	.cfi_endproc
.LFE14:
	.size	igmp_leavegroup, .-igmp_leavegroup
	.section	.text.igmp_tmr,"ax",@progbits
	.align	1
	.globl	igmp_tmr
	.type	igmp_tmr, @function
igmp_tmr:
.LFB16:
	.loc 1 642 1 is_stmt 1
	.cfi_startproc
	.loc 1 643 3
	.loc 1 645 3
	.loc 1 642 1 is_stmt 0
	addi	sp,sp,-32
	.cfi_def_cfa_offset 32
	.loc 1 645 16
	lui	a5,%hi(netif_list)
	.loc 1 642 1
	sw	s1,20(sp)
	.cfi_offset 9, -12
	.loc 1 645 16
	lw	s1,%lo(netif_list)(a5)
.LVL134:
	.loc 1 642 1
	sw	s2,16(sp)
	.cfi_offset 18, -16
.LBB30:
.LBB31:
.LBB32:
	.loc 1 679 5
	lui	s2,%hi(lwip_stats)
.LBE32:
.LBE31:
.LBE30:
	.loc 1 642 1
	sw	s3,12(sp)
	sw	s4,8(sp)
	sw	s5,4(sp)
	sw	ra,28(sp)
	sw	s0,24(sp)
	.cfi_offset 19, -20
	.cfi_offset 20, -24
	.cfi_offset 21, -28
	.cfi_offset 1, -4
	.cfi_offset 8, -8
.LBB37:
.LBB35:
.LBB33:
	.loc 1 671 6
	li	s3,1
	.loc 1 672 59
	lui	s4,%hi(.LANCHOR1)
	.loc 1 677 24
	li	s5,2
	.loc 1 679 5
	addi	s2,s2,%lo(lwip_stats)
.L165:
.LBE33:
.LBE35:
.LBE37:
	.loc 1 645 3 discriminator 1
	bne	s1,zero,.L171
	.loc 1 658 1
	lw	ra,28(sp)
	.cfi_remember_state
	.cfi_restore 1
	lw	s0,24(sp)
	.cfi_restore 8
	lw	s1,20(sp)
	.cfi_restore 9
.LVL135:
	lw	s2,16(sp)
	.cfi_restore 18
	lw	s3,12(sp)
	.cfi_restore 19
	lw	s4,8(sp)
	.cfi_restore 20
	lw	s5,4(sp)
	.cfi_restore 21
	addi	sp,sp,32
	.cfi_def_cfa_offset 0
	jr	ra
.LVL136:
.L171:
	.cfi_restore_state
.LBB38:
	.loc 1 646 5 is_stmt 1
	.loc 1 646 24 is_stmt 0
	lw	s0,44(s1)
.LVL137:
	.loc 1 648 5 is_stmt 1
.L166:
	.loc 1 648 11 is_stmt 0
	bne	s0,zero,.L170
.LBE38:
	.loc 1 645 12 discriminator 2
	lw	s1,0(s1)
.LVL138:
	j	.L165
.L170:
.LBB39:
	.loc 1 649 7 is_stmt 1
	.loc 1 649 16 is_stmt 0
	lhu	a5,10(s0)
	.loc 1 649 10
	beq	a5,zero,.L168
	.loc 1 650 9 is_stmt 1
	.loc 1 650 21 is_stmt 0
	addi	a5,a5,-1
	slli	a5,a5,16
	srli	a5,a5,16
	sh	a5,10(s0)
	.loc 1 651 9 is_stmt 1
	.loc 1 651 12 is_stmt 0
	bne	a5,zero,.L168
	.loc 1 652 11 is_stmt 1
.LVL139:
.LBB36:
.LBB34:
	.loc 1 671 3
	.loc 1 671 6 is_stmt 0
	lbu	a5,9(s0)
	bne	a5,s3,.L168
	.loc 1 671 33
	lw	a4,4(s0)
	lw	a5,%lo(.LANCHOR1)(s4)
	beq	a4,a5,.L168
	.loc 1 673 5 is_stmt 1
	.loc 1 674 5
	.loc 1 675 5
	.loc 1 677 5
	.loc 1 677 24 is_stmt 0
	sb	s5,9(s0)
	.loc 1 679 5 is_stmt 1
	lhu	a5,122(s2)
	.loc 1 680 5 is_stmt 0
	li	a2,22
	mv	a1,s0
	.loc 1 679 5
	addi	a5,a5,1
	.loc 1 680 5
	mv	a0,s1
	.loc 1 679 5
	sh	a5,122(s2)
	.loc 1 680 5 is_stmt 1
	call	igmp_send
.LVL140:
.L168:
.LBE34:
.LBE36:
	.loc 1 655 7
	.loc 1 655 13 is_stmt 0
	lw	s0,0(s0)
.LVL141:
	j	.L166
.LBE39:
	.cfi_endproc
.LFE16:
	.size	igmp_tmr, .-igmp_tmr
	.section	.sbss.allrouters,"aw",@nobits
	.align	2
	.set	.LANCHOR0,. + 0
	.type	allrouters, @object
	.size	allrouters, 4
allrouters:
	.zero	4
	.section	.sbss.allsystems,"aw",@nobits
	.align	2
	.set	.LANCHOR1,. + 0
	.type	allsystems, @object
	.size	allsystems, 4
allsystems:
	.zero	4
	.text
.Letext0:
	.file 2 "/b-l/bl_iot_sdk/components/network/lwip/lwip-port/arch/cc.h"
	.file 3 "/b-l/bl_iot_sdk/toolchain/riscv/Linux/lib/gcc/riscv64-unknown-elf/8.3.0/include/stddef.h"
	.file 4 "/b-l/bl_iot_sdk/toolchain/riscv/Linux/riscv64-unknown-elf/include/sys/_types.h"
	.file 5 "/b-l/bl_iot_sdk/toolchain/riscv/Linux/riscv64-unknown-elf/include/sys/reent.h"
	.file 6 "/b-l/bl_iot_sdk/toolchain/riscv/Linux/riscv64-unknown-elf/include/sys/lock.h"
	.file 7 "/b-l/bl_iot_sdk/toolchain/riscv/Linux/riscv64-unknown-elf/include/stdlib.h"
	.file 8 "/b-l/bl_iot_sdk/toolchain/riscv/Linux/riscv64-unknown-elf/include/ctype.h"
	.file 9 "/b-l/bl_iot_sdk/components/network/lwip/src/include/lwip/ip4_addr.h"
	.file 10 "/b-l/bl_iot_sdk/components/network/lwip/src/include/lwip/ip_addr.h"
	.file 11 "/b-l/bl_iot_sdk/components/network/lwip/src/include/lwip/err.h"
	.file 12 "/b-l/bl_iot_sdk/components/network/lwip/src/include/lwip/pbuf.h"
	.file 13 "/b-l/bl_iot_sdk/components/network/lwip/src/include/lwip/mem.h"
	.file 14 "/b-l/bl_iot_sdk/components/network/lwip/src/include/lwip/memp.h"
	.file 15 "/b-l/bl_iot_sdk/components/network/lwip/src/include/lwip/priv/memp_priv.h"
	.file 16 "/b-l/bl_iot_sdk/components/network/lwip/src/include/lwip/stats.h"
	.file 17 "/b-l/bl_iot_sdk/components/network/lwip/src/include/lwip/netif.h"
	.file 18 "/b-l/bl_iot_sdk/components/network/lwip/src/include/lwip/igmp.h"
	.file 19 "/b-l/bl_iot_sdk/components/network/lwip/src/include/lwip/prot/ip4.h"
	.file 20 "/b-l/bl_iot_sdk/components/network/lwip/src/include/lwip/ip.h"
	.file 21 "/b-l/bl_iot_sdk/components/network/lwip/src/include/lwip/prot/igmp.h"
	.file 22 "/b-l/bl_iot_sdk/components/network/lwip/src/include/lwip/ip4.h"
	.file 23 "/b-l/bl_iot_sdk/components/network/lwip/src/include/lwip/inet_chksum.h"
	.file 24 "/b-l/bl_iot_sdk/components/network/lwip/lwip-port/config/lwipopts.h"