	.file	"bl_adc.c"
	.option nopic
	.attribute arch, "rv32i2p0_m2p0_f2p0_c2p0"
	.attribute unaligned_access, 0
	.attribute stack_align, 16
	.text
.Ltext0:
	.cfi_sections	.debug_frame
	.section	.text.adc_data_update,"ax",@progbits
	.align	1
	.type	adc_data_update, @function
adc_data_update:
.LFB34:
	.file 1 "/b-l/bl_iot_sdk_new/components/hal_drv/bl602_hal/bl_adc.c"
	.loc 1 286 1
	.cfi_startproc
	.loc 1 287 5
	.loc 1 289 5
	.loc 1 286 1 is_stmt 0
	addi	sp,sp,-16
	.cfi_def_cfa_offset 16
	.loc 1 289 14
	li	a0,1
	.loc 1 286 1
	sw	ra,12(sp)
	.cfi_offset 1, -4
	.loc 1 289 14
	call	bl_dma_find_ctx_by_channel
.LVL0:
	.loc 1 290 5 is_stmt 1
	.loc 1 290 8 is_stmt 0
	beq	a0,zero,.L1
	.loc 1 295 5 is_stmt 1
	.loc 1 295 8 is_stmt 0
	lw	a4,12(a0)
	lw	a5,8(a0)
	bne	a4,zero,.L4
	.loc 1 296 9 is_stmt 1
	.loc 1 296 30 is_stmt 0
	lw	a5,4(a5)
	sw	a5,4(a0)
	.loc 1 297 9 is_stmt 1
	.loc 1 297 26 is_stmt 0
	li	a5,1
	sw	a5,12(a0)
.L5:
	.loc 1 303 5 is_stmt 1
	.loc 1 303 15 is_stmt 0
	lw	t1,24(a0)
	.loc 1 303 8
	beq	t1,zero,.L1
	.loc 1 304 9 is_stmt 1
	.loc 1 304 16 is_stmt 0
	lw	a2,20(a0)
	lw	a1,4(a0)
	.loc 1 308 1
	lw	ra,12(sp)
	.cfi_remember_state
	.cfi_restore 1
	.loc 1 304 16
	lw	a0,0(a0)
.LVL1:
	.loc 1 308 1
	addi	sp,sp,16
	.cfi_def_cfa_offset 0
	.loc 1 304 16
	jr	t1
.LVL2:
.L4:
	.cfi_restore_state
	.loc 1 299 9 is_stmt 1
	.loc 1 299 30 is_stmt 0
	lw	a5,20(a5)
	.loc 1 300 26
	sw	zero,12(a0)
	.loc 1 299 30
	sw	a5,4(a0)
	.loc 1 300 9 is_stmt 1
	j	.L5
.L1:
	.loc 1 308 1 is_stmt 0
	lw	ra,12(sp)
	.cfi_restore 1
	addi	sp,sp,16
	.cfi_def_cfa_offset 0
	jr	ra
	.cfi_endproc
.LFE34:
	.size	adc_data_update, .-adc_data_update
	.section	.text.ADC_Clock_Init,"ax",@progbits
	.align	1
	.globl	ADC_Clock_Init
	.type	ADC_Clock_Init, @function
ADC_Clock_Init:
.LFB27:
	.loc 1 78 1 is_stmt 1
	.cfi_startproc
.LVL3:
	.loc 1 79 5
	mv	a2,a0
	li	a1,0
	li	a0,1
.LVL4:
	tail	GLB_Set_ADC_CLK
.LVL5:
	.cfi_endproc
.LFE27:
	.size	ADC_Clock_Init, .-ADC_Clock_Init
	.section	.text.TSEN_Calibration,"ax",@progbits
	.align	1
	.globl	TSEN_Calibration
	.type	TSEN_Calibration, @function
TSEN_Calibration:
.LFB28:
	.loc 1 84 1
	.cfi_startproc
	.loc 1 85 5
	.loc 1 84 1 is_stmt 0
	addi	sp,sp,-16
	.cfi_def_cfa_offset 16
	sw	ra,12(sp)
	.cfi_offset 1, -4
	.loc 1 85 5
	call	ADC_SET_TSVBE_LOW
.LVL6:
	.loc 1 86 5 is_stmt 1
	call	ADC_Start
.LVL7:
	.loc 1 87 5
	li	a0,100
	call	BL602_Delay_MS
.LVL8:
	.loc 1 88 5
.L13:
	.loc 1 88 37 discriminator 1
	.loc 1 88 11 is_stmt 0 discriminator 1
	call	ADC_Get_FIFO_Count
.LVL9:
	.loc 1 88 10 discriminator 1
	beq	a0,zero,.L13
	.loc 1 89 5 is_stmt 1
	call	ADC_Read_FIFO
.LVL10:
	.loc 1 91 5
	call	ADC_SET_TSVBE_HIGH
.LVL11:
	.loc 1 92 5
	call	ADC_Start
.LVL12:
	.loc 1 93 5
	li	a0,100
	call	BL602_Delay_MS
.LVL13:
	.loc 1 94 5
.L14:
	.loc 1 94 37 discriminator 1
	.loc 1 94 11 is_stmt 0 discriminator 1
	call	ADC_Get_FIFO_Count
.LVL14:
	.loc 1 94 10 discriminator 1
	beq	a0,zero,.L14
	.loc 1 95 5 is_stmt 1
	call	ADC_Read_FIFO
.LVL15:
	.loc 1 97 5
	.loc 1 98 1 is_stmt 0
	lw	ra,12(sp)
	.cfi_restore 1
	addi	sp,sp,16
	.cfi_def_cfa_offset 0
	.loc 1 97 5
	tail	ADC_SET_TSVBE_LOW
.LVL16:
	.cfi_endproc
.LFE28:
	.size	TSEN_Calibration, .-TSEN_Calibration
	.section	.text.test_adc_init,"ax",@progbits
	.align	1
	.globl	test_adc_init
	.type	test_adc_init, @function
test_adc_init:
.LFB30:
	.loc 1 155 1 is_stmt 1
	.cfi_startproc
	.loc 1 156 5
	.loc 1 155 1 is_stmt 0
	addi	sp,sp,-16
	.cfi_def_cfa_offset 16
	.loc 1 156 5
	li	a0,2
	.loc 1 155 1
	sw	ra,12(sp)
	.cfi_offset 1, -4
	.loc 1 156 5
	call	ADC_Clock_Init
.LVL17:
	.loc 1 158 5 is_stmt 1
	call	ADC_Reset
.LVL18:
	.loc 1 160 5
	call	ADC_Disable
.LVL19:
	.loc 1 161 5
	call	ADC_Enable
.LVL20:
	.loc 1 163 5
	lui	a0,%hi(.LANCHOR0)
	addi	a0,a0,%lo(.LANCHOR0)
	call	ADC_Init
.LVL21:
	.loc 1 164 5
	li	a2,0
	li	a1,23
	li	a0,14
	call	ADC_Channel_Config
.LVL22:
	.loc 1 165 5
	li	a0,0
	call	ADC_Tsen_Init
.LVL23:
	.loc 1 167 5
	lui	a0,%hi(.LANCHOR1)
	addi	a0,a0,%lo(.LANCHOR1)
	call	ADC_FIFO_Cfg
.LVL24:
	.loc 1 168 5
	call	TSEN_Calibration
.LVL25:
	.loc 1 170 5
	.loc 1 171 1 is_stmt 0
	lw	ra,12(sp)
	.cfi_restore 1
	li	a0,0
	addi	sp,sp,16
	.cfi_def_cfa_offset 0
	jr	ra
	.cfi_endproc
.LFE30:
	.size	test_adc_init, .-test_adc_init
	.globl	__extendsfdf2
	.globl	__divdf3
	.globl	__truncdfsf2
	.section	.text.test_adc_get,"ax",@progbits
	.align	1
	.globl	test_adc_get
	.type	test_adc_get, @function
test_adc_get:
.LFB31:
	.loc 1 174 1 is_stmt 1
	.cfi_startproc
.LVL26:
	.loc 1 175 5
	.loc 1 176 5
	.loc 1 174 1 is_stmt 0
	addi	sp,sp,-64
	.cfi_def_cfa_offset 64
	.loc 1 203 21
	lui	a5,%hi(.LC1)
	.loc 1 174 1
	fsw	fs0,28(sp)
	.cfi_offset 40, -36
	.loc 1 203 21
	flw	fs0,%lo(.LC1)(a5)
	.loc 1 204 31
	lui	a5,%hi(.LC2)
	.loc 1 174 1
	sw	s4,40(sp)
	sw	s5,36(sp)
	.cfi_offset 20, -24
	.cfi_offset 21, -28
	.loc 1 204 31
	lw	s4,%lo(.LC2)(a5)
	lw	s5,%lo(.LC2+4)(a5)
	.loc 1 174 1
	sw	s0,56(sp)
	sw	s1,52(sp)
	sw	s2,48(sp)
	sw	s3,44(sp)
	sw	ra,60(sp)
	.cfi_offset 8, -8
	.cfi_offset 9, -12
	.cfi_offset 18, -16
	.cfi_offset 19, -20
	.cfi_offset 1, -4
	.loc 1 174 1
	mv	s3,a0
	.loc 1 176 14
	sw	zero,4(sp)
	.loc 1 177 5 is_stmt 1
.LVL27:
	.loc 1 178 5
	.loc 1 179 5
	.loc 1 181 5
	.loc 1 178 19 is_stmt 0
	li	s2,0
	.loc 1 178 14
	li	s1,0
	.loc 1 181 12
	li	s0,0
.LVL28:
.L29:
	.loc 1 182 9 is_stmt 1
	call	ADC_Start
.LVL29:
	.loc 1 184 9
.L23:
	.loc 1 184 15 is_stmt 0
	call	ADC_Get_FIFO_Count
.LVL30:
	.loc 1 184 14
	beq	a0,zero,.L24
.L27:
	.loc 1 189 9 is_stmt 1
	.loc 1 190 13
	.loc 1 190 22 is_stmt 0
	call	ADC_Read_FIFO
.LVL31:
	.loc 1 190 20
	sw	a0,4(sp)
	.loc 1 191 13 is_stmt 1
	addi	a2,sp,8
	li	a1,1
	addi	a0,sp,4
	call	ADC_Parse_Result
.LVL32:
	.loc 1 193 13
	lhu	a5,10(sp)
	.loc 1 193 15 is_stmt 0
	bne	s0,zero,.L25
	.loc 1 194 17 is_stmt 1
	.loc 1 194 20 is_stmt 0
	mv	s1,a5
.LVL33:
.L26:
	.loc 1 198 17
	call	ADC_Get_FIFO_Count
.LVL34:
	.loc 1 198 9
	bne	a0,zero,.L27
	.loc 1 200 9 is_stmt 1
	.loc 1 200 12 is_stmt 0
	beq	s0,zero,.L28
	.loc 1 201 13 is_stmt 1
	.loc 1 201 35 is_stmt 0
	fcvt.s.wu	fa5,s2
	.loc 1 201 23
	fcvt.s.w	fa0,s1
	.loc 1 201 21
	fsub.s	fa0,fa0,fa5
.LVL35:
	.loc 1 203 13 is_stmt 1
	.loc 1 204 13
	.loc 1 204 31 is_stmt 0
	fsub.s	fa0,fa0,fs0
.LVL36:
	call	__extendsfdf2
.LVL37:
	mv	a2,s4
	mv	a3,s5
	call	__divdf3
.LVL38:
	.loc 1 207 13 is_stmt 1
	.loc 1 204 21 is_stmt 0
	call	__truncdfsf2
.LVL39:
	.loc 1 207 20
	fcvt.w.s a5,fa0,rtz
	sh	a5,0(s3)
	.loc 1 209 9 is_stmt 1
	.loc 1 212 13
	call	ADC_SET_TSVBE_LOW
.LVL40:
.L30:
	.loc 1 181 5 is_stmt 0 discriminator 2
	beq	s0,zero,.L31
	.loc 1 216 1
	lw	ra,60(sp)
	.cfi_remember_state
	.cfi_restore 1
	lw	s0,56(sp)
	.cfi_restore 8
.LVL41:
	lw	s1,52(sp)
	.cfi_restore 9
.LVL42:
	lw	s2,48(sp)
	.cfi_restore 18
.LVL43:
	lw	s3,44(sp)
	.cfi_restore 19
.LVL44:
	lw	s4,40(sp)
	.cfi_restore 20
	lw	s5,36(sp)
	.cfi_restore 21
	flw	fs0,28(sp)
	.cfi_restore 40
	li	a0,0
	addi	sp,sp,64
	.cfi_def_cfa_offset 0
	jr	ra
.LVL45:
.L31:
	.cfi_restore_state
	li	s0,1
.LVL46:
	j	.L29
.LVL47:
.L24:
.LBB9:
	.loc 1 185 13 is_stmt 1
	.loc 1 186 13
	li	a0,1
	call	aos_msleep
.LVL48:
	j	.L23
.L25:
.LBE9:
	.loc 1 196 17
	.loc 1 196 20 is_stmt 0
	mv	s2,a5
.LVL49:
	j	.L26
.L28:
	.loc 1 209 9 is_stmt 1
	.loc 1 210 13
	call	ADC_SET_TSVBE_HIGH
.LVL50:
	j	.L30
	.cfi_endproc
.LFE31:
	.size	test_adc_get, .-test_adc_get
	.section	.text.test_adc_test,"ax",@progbits
	.align	1
	.globl	test_adc_test
	.type	test_adc_test, @function
test_adc_test:
.LFB32:
	.loc 1 219 1
	.cfi_startproc
	.loc 1 220 5
.LBB12:
.LBB13:
	.loc 1 102 2
	.loc 1 103 2
.LBE13:
.LBE12:
	.loc 1 219 1 is_stmt 0
	addi	sp,sp,-32
	.cfi_def_cfa_offset 32
	sw	ra,28(sp)
	sw	s0,24(sp)
	sw	s1,20(sp)
	.cfi_offset 1, -4
	.cfi_offset 8, -8
	.cfi_offset 9, -12
.LBB16:
.LBB14:
	.loc 1 103 11
	sw	zero,4(sp)
	.loc 1 104 5 is_stmt 1
.LVL51:
	.loc 1 105 5
	.loc 1 106 5
	.loc 1 108 5
	call	ADC_Reset
.LVL52:
	.loc 1 110 5
	call	ADC_Disable
.LVL53:
	.loc 1 111 5
	call	ADC_Enable
.LVL54:
	.loc 1 113 5
	lui	a0,%hi(.LANCHOR0)
	addi	a0,a0,%lo(.LANCHOR0)
	call	ADC_Init
.LVL55:
	.loc 1 114 5
	li	a2,0
	li	a1,23
	li	a0,14
	call	ADC_Channel_Config
.LVL56:
	.loc 1 115 5
	li	a0,0
	call	ADC_Tsen_Init
.LVL57:
	.loc 1 117 5
	lui	a0,%hi(.LANCHOR1)
	addi	a0,a0,%lo(.LANCHOR1)
	call	ADC_FIFO_Cfg
.LVL58:
	.loc 1 118 5
	.loc 1 120 7 is_stmt 0
	li	s0,0
	.loc 1 118 5
	call	TSEN_Calibration
.LVL59:
	.loc 1 120 2 is_stmt 1
	li	s1,40
.LVL60:
.L40:
	.loc 1 121 3
	call	ADC_Start
.LVL61:
	.loc 1 123 3
.L36:
	.loc 1 123 35
	.loc 1 123 9 is_stmt 0
	call	ADC_Get_FIFO_Count
.LVL62:
	.loc 1 123 8
	beq	a0,zero,.L36
.L37:
	.loc 1 125 3 is_stmt 1
	.loc 1 126 4
	.loc 1 126 13 is_stmt 0
	call	ADC_Read_FIFO
.LVL63:
	.loc 1 126 11
	sw	a0,4(sp)
	.loc 1 127 4 is_stmt 1
	addi	a2,sp,8
	li	a1,1
	addi	a0,sp,4
	call	ADC_Parse_Result
.LVL64:
	.loc 1 129 13
	.loc 1 132 17
	.loc 1 134 10 is_stmt 0
	call	ADC_Get_FIFO_Count
.LVL65:
	.loc 1 134 3
	bne	a0,zero,.L37
	.loc 1 136 9 is_stmt 1
	.loc 1 140 13
	.loc 1 142 13
	.loc 1 144 9
	.loc 1 144 11 is_stmt 0
	andi	a5,s0,1
	bne	a5,zero,.L38
	.loc 1 145 13 is_stmt 1
	call	ADC_SET_TSVBE_HIGH
.LVL66:
.L39:
	.loc 1 149 3
	.loc 1 120 16 is_stmt 0
	addi	s0,s0,1
.LVL67:
	.loc 1 149 3
	li	a0,500
	.loc 1 120 16
	andi	s0,s0,0xff
	.loc 1 149 3
	call	BL602_Delay_MS
.LVL68:
	.loc 1 120 2
	bne	s0,s1,.L40
.LVL69:
.LBE14:
.LBE16:
	.loc 1 221 5 is_stmt 1
	.loc 1 222 1 is_stmt 0
	lw	ra,28(sp)
	.cfi_remember_state
	.cfi_restore 1
	lw	s0,24(sp)
	.cfi_restore 8
	lw	s1,20(sp)
	.cfi_restore 9
	li	a0,0
	addi	sp,sp,32
	.cfi_def_cfa_offset 0
	jr	ra
.LVL70:
.L38:
	.cfi_restore_state
.LBB17:
.LBB15:
	.loc 1 147 13 is_stmt 1
	call	ADC_SET_TSVBE_LOW
.LVL71:
	j	.L39
.LBE15:
.LBE17:
	.cfi_endproc
.LFE32:
	.size	test_adc_test, .-test_adc_test
	.section	.text.bl_tsen_adc_get,"ax",@progbits
	.align	1
	.globl	bl_tsen_adc_get
	.type	bl_tsen_adc_get, @function
bl_tsen_adc_get:
.LFB33:
	.loc 1 225 1
	.cfi_startproc
.LVL72:
	.loc 1 226 5
	.loc 1 227 5
	.loc 1 229 5
	.loc 1 225 1 is_stmt 0
	addi	sp,sp,-80
	.cfi_def_cfa_offset 80
	sw	s1,68(sp)
	.cfi_offset 9, -12
	.loc 1 229 16
	lui	s1,%hi(.LANCHOR2)
	.loc 1 229 8
	lhu	a4,%lo(.LANCHOR2)(s1)
	li	a5,65536
	.loc 1 225 1
	sw	s0,72(sp)
	sw	s2,64(sp)
	sw	s3,60(sp)
	sw	ra,76(sp)
	fsw	fs0,44(sp)
	.cfi_offset 8, -8
	.cfi_offset 18, -16
	.cfi_offset 19, -20
	.cfi_offset 1, -4
	.cfi_offset 40, -36
	.loc 1 229 8
	addi	a5,a5,-1
	.loc 1 225 1
	mv	s2,a0
	mv	s3,a1
	addi	s0,s1,%lo(.LANCHOR2)
	.loc 1 229 8
	bne	a4,a5,.L47
.LBB18:
	.loc 1 230 9 is_stmt 1
	.loc 1 231 22 is_stmt 0
	lui	a1,%hi(.LANCHOR3)
.LVL73:
	li	a2,14
	addi	a1,a1,%lo(.LANCHOR3)
	addi	a0,sp,16
.LVL74:
	.loc 1 230 21
	sh	zero,0(s0)
	.loc 1 231 9 is_stmt 1
	.loc 1 231 22 is_stmt 0
	call	memcpy
.LVL75:
	.loc 1 248 9 is_stmt 1
	.loc 1 253 9 is_stmt 0
	li	a2,7
	li	a1,0
	li	a0,1
	.loc 1 248 27
	sh	zero,12(sp)
	.loc 1 253 9 is_stmt 1
	call	GLB_Set_ADC_CLK
.LVL76:
	.loc 1 255 9
	call	ADC_Disable
.LVL77:
	.loc 1 256 9
	call	ADC_Enable
.LVL78:
	.loc 1 258 9
	call	ADC_Reset
.LVL79:
	.loc 1 260 9
	addi	a0,sp,16
	call	ADC_Init
.LVL80:
	.loc 1 261 9
	li	a2,0
	li	a1,23
	li	a0,14
	call	ADC_Channel_Config
.LVL81:
	.loc 1 262 9
	li	a0,0
	call	ADC_Tsen_Init
.LVL82:
	.loc 1 264 9
	addi	a0,sp,12
	call	ADC_FIFO_Cfg
.LVL83:
	.loc 1 266 9
	.loc 1 266 13 is_stmt 0
	addi	a0,s1,%lo(.LANCHOR2)
	call	ADC_Trim_TSEN
.LVL84:
	lui	a5,%hi(TrapNetCounter)
	.loc 1 266 12
	li	a4,1
	lui	s1,%hi(.LC3)
	.loc 1 267 20
	lw	a5,%lo(TrapNetCounter)(a5)
	.loc 1 266 12
	bne	a0,a4,.L48
	.loc 1 267 13 is_stmt 1
	.loc 1 267 18
	.loc 1 267 20
.LBB19:
.LBB20:
	.file 2 "/b-l/bl_iot_sdk_new/components/bl602/freertos_riscv_ram/portable/GCC/RISC-V/portmacro.h"
	.loc 2 151 5
.LBE20:
.LBE19:
	.loc 1 267 20 is_stmt 0
	beq	a5,zero,.L49
	.loc 1 267 110 discriminator 1
	call	xTaskGetTickCountFromISR
.LVL85:
.L50:
	.loc 1 267 20 discriminator 4
	lui	a2,%hi(.LC4)
	mv	a1,a0
	lui	a0,%hi(.LC5)
	li	a4,267
	addi	a3,s1,%lo(.LC3)
	addi	a2,a2,%lo(.LC4)
	addi	a0,a0,%lo(.LC5)
	call	bl_printk
.LVL86:
	.loc 1 267 204 is_stmt 1 discriminator 4
.L47:
.LBE18:
	.loc 1 272 5
	.loc 1 272 11 is_stmt 0
	lhu	a0,0(s0)
	call	TSEN_Get_Temp
.LVL87:
	fmv.s	fs0,fa0
.LVL88:
	.loc 1 273 5 is_stmt 1
	.loc 1 273 8 is_stmt 0
	beq	s3,zero,.L54
	.loc 1 274 9 is_stmt 1
	call	__extendsfdf2
.LVL89:
	mv	a2,a0
	lui	a0,%hi(.LC8)
	mv	a3,a1
	addi	a0,a0,%lo(.LC8)
	call	printf
.LVL90:
.L54:
	.loc 1 277 5
	.loc 1 277 8 is_stmt 0
	beq	s2,zero,.L55
	.loc 1 278 9 is_stmt 1
	.loc 1 278 17 is_stmt 0
	fcvt.w.s a5,fs0,rtz
	sh	a5,0(s2)
.L55:
	.loc 1 281 5 is_stmt 1
	.loc 1 282 1 is_stmt 0
	lw	ra,76(sp)
	.cfi_remember_state
	.cfi_restore 1
	lw	s0,72(sp)
	.cfi_restore 8
	lw	s1,68(sp)
	.cfi_restore 9
	lw	s2,64(sp)
	.cfi_restore 18
.LVL91:
	lw	s3,60(sp)
	.cfi_restore 19
	flw	fs0,44(sp)
	.cfi_restore 40
.LVL92:
	li	a0,0
	addi	sp,sp,80
	.cfi_def_cfa_offset 0
	jr	ra
.LVL93:
.L49:
	.cfi_restore_state
.LBB23:
	.loc 1 267 139 discriminator 2
	call	xTaskGetTickCount
.LVL94:
	j	.L50
.L48:
	.loc 1 269 13 is_stmt 1
	.loc 1 269 18
	.loc 1 269 20
.LBB21:
.LBB22:
	.loc 2 151 5
.LBE22:
.LBE21:
	.loc 1 269 20 is_stmt 0
	beq	a5,zero,.L52
	.loc 1 269 99 discriminator 1
	call	xTaskGetTickCountFromISR
.LVL95:
.L53:
	.loc 1 269 20 discriminator 4
	lhu	a5,0(s0)
	mv	a1,a0
	lui	a2,%hi(.LC6)
	lui	a0,%hi(.LC7)
	li	a4,269
	addi	a3,s1,%lo(.LC3)
	addi	a2,a2,%lo(.LC6)
	addi	a0,a0,%lo(.LC7)
	call	bl_printk
.LVL96:
	.loc 1 269 206 is_stmt 1 discriminator 4
	j	.L47
.L52:
	.loc 1 269 128 is_stmt 0 discriminator 2
	call	xTaskGetTickCount
.LVL97:
	j	.L53
.LBE23:
	.cfi_endproc
.LFE33:
	.size	bl_tsen_adc_get, .-bl_tsen_adc_get
	.section	.text.bl_adc_freq_init,"ax",@progbits
	.align	1
	.globl	bl_adc_freq_init
	.type	bl_adc_freq_init, @function
bl_adc_freq_init:
.LFB35:
	.loc 1 313 1 is_stmt 1
	.cfi_startproc
.LVL98:
	.loc 1 314 5
	.loc 1 315 5
	.loc 1 316 5
	.loc 1 318 5
	.loc 1 313 1 is_stmt 0
	addi	sp,sp,-16
	.cfi_def_cfa_offset 16
	sw	ra,12(sp)
	.cfi_offset 1, -4
	.loc 1 321 19
	li	a4,1
	.loc 1 318 8
	bne	a0,zero,.L64
	li	a4,12
.L64:
.LVL99:
	.loc 1 324 5 is_stmt 1
	.loc 1 324 40 is_stmt 0
	li	a5,4096
	addi	a5,a5,-1024
	mul	a4,a4,a5
.LVL100:
	.loc 1 324 17
	li	a5,96002048
	addi	a5,a5,-2048
	divu	a5,a5,a4
.LVL101:
	.loc 1 325 5 is_stmt 1
	.loc 1 325 9 is_stmt 0
	divu	a2,a5,a1
.LVL102:
	.loc 1 326 5 is_stmt 1
	.loc 1 326 15 is_stmt 0
	addi	a3,a2,1
	.loc 1 326 20
	mul	a4,a3,a1
	.loc 1 326 27
	sub	a4,a4,a5
	.loc 1 326 8
	remu	a5,a5,a1
.LVL103:
	bgeu	a4,a5,.L65
	.loc 1 327 13
	mv	a2,a3
.LVL104:
.L65:
	.loc 1 330 5 is_stmt 1
	.loc 1 334 5
	li	a5,64
	bleu	a2,a5,.L66
	li	a2,64
.LVL105:
.L66:
	addi	a2,a2,-1
	andi	a2,a2,0xff
	li	a1,0
.LVL106:
	li	a0,1
.LVL107:
	call	GLB_Set_ADC_CLK
.LVL108:
	.loc 1 336 5
	.loc 1 337 1 is_stmt 0
	lw	ra,12(sp)
	.cfi_restore 1
	li	a0,0
	addi	sp,sp,16
	.cfi_def_cfa_offset 0
	jr	ra
	.cfi_endproc
.LFE35:
	.size	bl_adc_freq_init, .-bl_adc_freq_init
	.section	.text.bl_adc_dma_init,"ax",@progbits
	.align	1
	.globl	bl_adc_dma_init
	.type	bl_adc_dma_init, @function
bl_adc_dma_init:
.LFB38:
	.loc 1 420 1 is_stmt 1
	.cfi_startproc
.LVL109:
	.loc 1 421 5
	.loc 1 422 5
	.loc 1 423 5
	.loc 1 424 5
	.loc 1 426 5
	.loc 1 426 8 is_stmt 0
	bne	a1,zero,.L72
	.loc 1 429 16
	li	a0,-1
.LVL110:
	.loc 1 472 1
	ret
.LVL111:
.L74:
	.cfi_def_cfa_offset 48
	.cfi_offset 1, -4
	.cfi_offset 8, -8
	.cfi_offset 9, -12
	.cfi_offset 18, -16
	.cfi_offset 19, -20
	.cfi_offset 20, -24
	.cfi_offset 21, -28
	.loc 1 429 16
	li	a0,-1
.L71:
	.loc 1 472 1
	lw	ra,44(sp)
	.cfi_restore 1
	lw	s0,40(sp)
	.cfi_restore 8
	lw	s1,36(sp)
	.cfi_restore 9
.LVL112:
	lw	s2,32(sp)
	.cfi_restore 18
	lw	s3,28(sp)
	.cfi_restore 19
.LVL113:
	lw	s4,24(sp)
	.cfi_restore 20
.LVL114:
	lw	s5,20(sp)
	.cfi_restore 21
	addi	sp,sp,48
	.cfi_def_cfa_offset 0
	jr	ra
.LVL115:
.L72:
	.loc 1 420 1
	addi	sp,sp,-48
	.cfi_def_cfa_offset 48
	sw	s4,24(sp)
	.cfi_offset 20, -24
	mv	s4,a0
	.loc 1 432 5 is_stmt 1
	.loc 1 432 14 is_stmt 0
	li	a0,28
.LVL116:
	.loc 1 420 1
	sw	s1,36(sp)
	sw	s3,28(sp)
	sw	ra,44(sp)
	sw	s0,40(sp)
	sw	s2,32(sp)
	sw	s5,20(sp)
	.cfi_offset 9, -12
	.cfi_offset 19, -20
	.cfi_offset 1, -4
	.cfi_offset 8, -8
	.cfi_offset 18, -16
	.cfi_offset 21, -28
	mv	s3,a1
	.loc 1 432 14
	call	pvPortMalloc
.LVL117:
	mv	s1,a0
.LVL118:
	.loc 1 433 5 is_stmt 1
	.loc 1 433 8 is_stmt 0
	beq	a0,zero,.L74
	.loc 1 439 5 is_stmt 1
	.loc 1 439 14 is_stmt 0
	li	a0,32
	call	pvPortMalloc
.LVL119:
	mv	s0,a0
.LVL120:
	.loc 1 440 5 is_stmt 1
	.loc 1 440 8 is_stmt 0
	beq	a0,zero,.L74
	.loc 1 446 5 is_stmt 1
	.loc 1 446 14 is_stmt 0
	slli	a0,s3,3
	call	pvPortMalloc
.LVL121:
	mv	s5,a0
.LVL122:
	.loc 1 447 5 is_stmt 1
	.loc 1 447 8 is_stmt 0
	beq	a0,zero,.L74
	.loc 1 453 5 is_stmt 1
	.loc 1 454 5
	.loc 1 455 5
	.loc 1 453 16 is_stmt 0
	li	s2,4096
	addi	a5,s2,1538
	.loc 1 456 5
	li	a0,1
.LVL123:
	.loc 1 453 16
	sh	a5,12(sp)
.LBB26:
.LBB27:
	.loc 1 395 31
	addi	s2,s2,-1
.LBE27:
.LBE26:
	.loc 1 455 22
	sb	zero,14(sp)
	.loc 1 456 5 is_stmt 1
	call	DMA_Channel_Disable
.LVL124:
	.loc 1 458 5
.LBB30:
.LBB28:
	.loc 1 393 5
	.loc 1 395 5
	.loc 1 395 31 is_stmt 0
	and	a5,s3,s2
.LVL125:
	.loc 1 396 5 is_stmt 1
	.loc 1 397 5
	.loc 1 398 5
	.loc 1 399 5
	.loc 1 400 5
	.loc 1 401 5
	.loc 1 402 5
	.loc 1 403 5
	.loc 1 404 5
	.loc 1 406 5
	.loc 1 408 35 is_stmt 0
	addi	a4,s0,16
	.loc 1 409 22
	slli	s2,a5,16
	li	a5,33558528
.LVL126:
	addi	a3,a5,-1
	.loc 1 408 23
	sw	a4,8(s0)
	.loc 1 414 22
	lw	a5,28(s0)
	.loc 1 409 22
	lw	a4,12(s0)
	li	a0,-4096
	srli	s2,s2,16
	and	a4,a4,a0
	.loc 1 414 22
	and	a5,a5,a0
	.loc 1 409 22
	or	a4,a4,s2
	.loc 1 414 22
	or	a5,a5,s2
	.loc 1 409 22
	and	a4,a4,a3
	.loc 1 414 22
	and	a5,a5,a3
	.loc 1 409 22
	li	a1,-2008547328
	.loc 1 406 26
	li	a2,1073750016
	addi	a2,a2,4
	.loc 1 409 22
	or	a4,a4,a1
	.loc 1 414 22
	or	a5,a5,a1
	.loc 1 407 27
	sw	s5,4(s0)
	.loc 1 412 39
	addi	s5,s5,48
.LVL127:
	.loc 1 406 26
	sw	a2,0(s0)
	.loc 1 407 5 is_stmt 1
	.loc 1 408 5
	.loc 1 409 5
	.loc 1 411 5
	.loc 1 409 22 is_stmt 0
	sw	a4,12(s0)
	.loc 1 411 26
	sw	a2,16(s0)
	.loc 1 412 5 is_stmt 1
	.loc 1 414 22 is_stmt 0
	sw	a5,28(s0)
.LBE28:
.LBE30:
	.loc 1 459 5
	addi	a1,sp,12
	li	a0,1
.LBB31:
.LBB29:
	.loc 1 412 27
	sw	s5,20(s0)
	.loc 1 413 5 is_stmt 1
	.loc 1 413 23 is_stmt 0
	sw	s0,24(s0)
	.loc 1 414 5 is_stmt 1
	.loc 1 416 5
.LVL128:
.LBE29:
.LBE31:
	.loc 1 459 5
	call	DMA_LLI_Init
.LVL129:
	.loc 1 460 5
	mv	a1,s0
	li	a0,1
	call	DMA_LLI_Update
.LVL130:
	.loc 1 462 5
	.loc 1 469 5 is_stmt 0
	lui	a1,%hi(adc_data_update)
	.loc 1 462 18
	sw	s4,0(s1)
	.loc 1 463 5 is_stmt 1
	.loc 1 463 21 is_stmt 0
	sw	s0,8(s1)
	.loc 1 464 5 is_stmt 1
	.loc 1 464 22 is_stmt 0
	sw	zero,12(s1)
	.loc 1 465 5 is_stmt 1
	.loc 1 465 29 is_stmt 0
	sw	zero,16(s1)
	.loc 1 466 5 is_stmt 1
	.loc 1 466 26 is_stmt 0
	sw	zero,4(s1)
	.loc 1 467 5 is_stmt 1
	.loc 1 467 23 is_stmt 0
	sw	s3,20(s1)
	.loc 1 468 5 is_stmt 1
	.loc 1 468 16 is_stmt 0
	sw	zero,24(s1)
	.loc 1 469 5 is_stmt 1
	mv	a3,s1
	li	a2,0
	addi	a1,a1,%lo(adc_data_update)
	li	a0,1
	call	bl_dma_irq_register
.LVL131:
	.loc 1 471 5
	.loc 1 471 12 is_stmt 0
	li	a0,0
	j	.L71
	.cfi_endproc
.LFE38:
	.size	bl_adc_dma_init, .-bl_adc_dma_init
	.section	.text.bl_adc_start,"ax",@progbits
	.align	1
	.globl	bl_adc_start
	.type	bl_adc_start, @function
bl_adc_start:
.LFB39:
	.loc 1 475 1 is_stmt 1
	.cfi_startproc
	.loc 1 476 5
	.loc 1 475 1 is_stmt 0
	addi	sp,sp,-16
	.cfi_def_cfa_offset 16
	.loc 1 476 5
	li	a2,1
	li	a1,2
	li	a0,1
	.loc 1 475 1
	sw	ra,12(sp)
	.cfi_offset 1, -4
	.loc 1 476 5
	call	DMA_IntMask
.LVL132:
	.loc 1 477 5 is_stmt 1
	li	a2,0
	li	a1,0
	li	a0,1
	call	DMA_IntMask
.LVL133:
	.loc 1 478 5
	li	a2,0
	li	a1,1
	li	a0,1
	call	DMA_IntMask
.LVL134:
	.loc 1 480 5
	call	ADC_Start
.LVL135:
	.loc 1 481 5
	call	DMA_Enable
.LVL136:
	.loc 1 482 5
	li	a0,1
	call	DMA_Channel_Enable
.LVL137:
	.loc 1 484 5
	.loc 1 485 1 is_stmt 0
	lw	ra,12(sp)
	.cfi_restore 1
	li	a0,0
	addi	sp,sp,16
	.cfi_def_cfa_offset 0
	jr	ra
	.cfi_endproc
.LFE39:
	.size	bl_adc_start, .-bl_adc_start
	.section	.text.bl_adc_gpio_init,"ax",@progbits
	.align	1
	.globl	bl_adc_gpio_init
	.type	bl_adc_gpio_init, @function
bl_adc_gpio_init:
.LFB40:
	.loc 1 488 1 is_stmt 1
	.cfi_startproc
.LVL138:
	.loc 1 489 5
	.loc 1 488 1 is_stmt 0
	addi	sp,sp,-32
	.cfi_def_cfa_offset 32
	.loc 1 489 13
	sb	a0,15(sp)
	.loc 1 491 5 is_stmt 1
	addi	a1,sp,15
	li	a2,1
	li	a0,10
.LVL139:
	.loc 1 488 1 is_stmt 0
	sw	ra,28(sp)
	.cfi_offset 1, -4
	.loc 1 491 5
	call	GLB_GPIO_Func_Init
.LVL140:
	.loc 1 493 5 is_stmt 1
	.loc 1 494 1 is_stmt 0
	lw	ra,28(sp)
	.cfi_restore 1
	li	a0,0
	addi	sp,sp,32
	.cfi_def_cfa_offset 0
	jr	ra
	.cfi_endproc
.LFE40:
	.size	bl_adc_gpio_init, .-bl_adc_gpio_init
	.section	.text.bl_adc_parse_data,"ax",@progbits
	.align	1
	.globl	bl_adc_parse_data
	.type	bl_adc_parse_data, @function
bl_adc_parse_data:
.LFB42:
	.loc 1 507 1 is_stmt 1
	.cfi_startproc
.LVL141:
	.loc 1 508 5
	.loc 1 509 5
	.loc 1 511 5
	.loc 1 511 12 is_stmt 0
	li	a4,0
.LVL142:
.L92:
	.loc 1 511 5 discriminator 1
	blt	a4,a1,.L96
	.loc 1 524 12
	li	a0,-1
.LVL143:
	.loc 1 525 1
	ret
.LVL144:
.L96:
	.loc 1 512 9 is_stmt 1
	.loc 1 512 17 is_stmt 0
	slli	a5,a4,2
	add	a5,a0,a5
	lw	a5,0(a5)
	.loc 1 512 21
	srli	a6,a5,21
	.loc 1 512 12
	bne	a6,a2,.L93
	.loc 1 513 13 is_stmt 1
	li	a0,65536
.LVL145:
	addi	a0,a0,-1
	.loc 1 513 16 is_stmt 0
	bne	a3,zero,.L94
	.loc 1 514 17 is_stmt 1
	.loc 1 514 22 is_stmt 0
	and	a0,a5,a0
.LVL146:
	.loc 1 515 17 is_stmt 1
	.loc 1 515 24 is_stmt 0
	ret
.LVL147:
.L94:
	.loc 1 517 17 is_stmt 1
.LBB32:
.LBB33:
	.loc 1 498 5
	.loc 1 500 5
	.loc 1 501 5
	.loc 1 500 9 is_stmt 0
	and	a5,a5,a0
.LVL148:
	.loc 1 501 16
	li	a0,4096
	addi	a0,a0,-896
	mul	a5,a5,a0
.LVL149:
	.loc 1 503 5 is_stmt 1
	.loc 1 501 9 is_stmt 0
	srli	a0,a5,16
.LVL150:
.LBE33:
.LBE32:
	.loc 1 519 17 is_stmt 1
	.loc 1 519 24 is_stmt 0
	ret
.LVL151:
.L93:
	.loc 1 511 33 discriminator 2
	addi	a4,a4,1
.LVL152:
	j	.L92
	.cfi_endproc
.LFE42:
	.size	bl_adc_parse_data, .-bl_adc_parse_data
	.section	.text.bl_adc_get_channel_by_gpio,"ax",@progbits
	.align	1
	.globl	bl_adc_get_channel_by_gpio
	.type	bl_adc_get_channel_by_gpio, @function
bl_adc_get_channel_by_gpio:
.LFB43:
	.loc 1 528 1 is_stmt 1
	.cfi_startproc
.LVL153:
	.loc 1 529 5
	.loc 1 531 5
	.loc 1 531 8 is_stmt 0
	li	a5,4
	beq	a0,a5,.L99
	.loc 1 533 12 is_stmt 1
	.loc 1 533 15 is_stmt 0
	li	a4,5
	beq	a0,a4,.L97
	.loc 1 535 12 is_stmt 1
	.loc 1 535 15 is_stmt 0
	li	a4,6
	.loc 1 536 17
	li	a5,5
	.loc 1 535 15
	beq	a0,a4,.L97
	.loc 1 537 12 is_stmt 1
	.loc 1 537 15 is_stmt 0
	li	a4,9
	.loc 1 538 17
	li	a5,7
	.loc 1 537 15
	beq	a0,a4,.L97
	.loc 1 539 12 is_stmt 1
	.loc 1 539 15 is_stmt 0
	li	a4,10
	.loc 1 540 17
	li	a5,9
	.loc 1 539 15
	beq	a0,a4,.L97
	.loc 1 541 12 is_stmt 1
	.loc 1 541 15 is_stmt 0
	li	a4,11
	.loc 1 542 17
	li	a5,10
	.loc 1 541 15
	beq	a0,a4,.L97
	.loc 1 543 12 is_stmt 1
	.loc 1 543 15 is_stmt 0
	li	a4,12
	.loc 1 544 17
	li	a5,0
	.loc 1 543 15
	beq	a0,a4,.L97
	.loc 1 545 12 is_stmt 1
	.loc 1 545 15 is_stmt 0
	li	a4,13
	.loc 1 546 17
	li	a5,3
	.loc 1 545 15
	beq	a0,a4,.L97
.LVL154:
.LBB36:
.LBB37:
	.loc 1 547 12 is_stmt 1
	.loc 1 547 15 is_stmt 0
	li	a4,14
	.loc 1 548 17
	li	a5,2
	.loc 1 547 15
	beq	a0,a4,.L97
	.loc 1 549 12 is_stmt 1
	.loc 1 549 15 is_stmt 0
	li	a4,15
	.loc 1 550 17
	li	a5,11
	.loc 1 549 15
	beq	a0,a4,.L97
	.loc 1 552 16
	li	a5,-1
.LVL155:
.L97:
.LBE37:
.LBE36:
	.loc 1 556 1
	mv	a0,a5
.LVL156:
	ret
.LVL157:
.L99:
	.loc 1 532 17
	li	a5,1
	j	.L97
	.cfi_endproc
.LFE43:
	.size	bl_adc_get_channel_by_gpio, .-bl_adc_get_channel_by_gpio
	.section	.text.bl_adc_init,"ax",@progbits
	.align	1
	.globl	bl_adc_init
	.type	bl_adc_init, @function
bl_adc_init:
.LFB36:
	.loc 1 340 1 is_stmt 1
	.cfi_startproc
.LVL158:
	.loc 1 341 5
	.loc 1 342 5
	.loc 1 343 5
	.loc 1 344 5
	.loc 1 345 5
	.loc 1 346 5
	.loc 1 347 5
	.loc 1 349 5
	.loc 1 350 5
	.loc 1 351 5
	.loc 1 352 5
	.loc 1 353 5
	.loc 1 354 5
	.loc 1 355 5
	.loc 1 356 5
	.loc 1 357 5
	.loc 1 358 5
	.loc 1 359 5
	.loc 1 360 5
	.loc 1 361 5
	.loc 1 349 18 is_stmt 0
	li	a5,393216
	.loc 1 340 1
	addi	sp,sp,-80
	.cfi_def_cfa_offset 80
	.loc 1 349 18
	addi	a5,a5,258
	sw	a5,48(sp)
	.loc 1 357 16
	li	a5,196608
	.loc 1 340 1
	sw	a1,12(sp)
	sw	ra,76(sp)
	.loc 1 357 16
	sw	a5,56(sp)
	.loc 1 340 1
	sw	s0,72(sp)
	.cfi_offset 1, -4
	.cfi_offset 8, -8
	.loc 1 353 17
	sw	zero,52(sp)
	.loc 1 340 1
	mv	s0,a0
	.loc 1 361 26
	sh	zero,60(sp)
	.loc 1 363 5 is_stmt 1
	call	ADC_Disable
.LVL159:
	.loc 1 364 5
	call	ADC_Enable
.LVL160:
	.loc 1 365 5
	call	ADC_Reset
.LVL161:
	.loc 1 367 5
	addi	a0,sp,48
	call	ADC_Init
.LVL162:
	.loc 1 369 5
	.loc 1 369 8 is_stmt 0
	lw	a1,12(sp)
	bne	s0,zero,.L110
	.loc 1 372 34
	li	a3,23
	.loc 1 370 9
	li	a5,12
.LVL163:
.L111:
	.loc 1 371 13 is_stmt 1 discriminator 3
	.loc 1 371 34 is_stmt 0 discriminator 3
	addi	a4,sp,24
	add	a4,a4,s0
	sb	s0,0(a4)
	.loc 1 372 13 is_stmt 1 discriminator 3
	.loc 1 372 34 is_stmt 0 discriminator 3
	addi	a4,sp,36
	add	a4,a4,s0
	sb	a3,0(a4)
	.loc 1 370 30 discriminator 3
	addi	s0,s0,1
.LVL164:
	.loc 1 370 9 discriminator 3
	bne	s0,a5,.L111
.LVL165:
.L112:
	.loc 1 382 5 is_stmt 1
	andi	a2,s0,0xff
	addi	a1,sp,36
	addi	a0,sp,24
	li	a3,1
	call	ADC_Scan_Channel_Config
.LVL166:
	.loc 1 384 5
	.loc 1 385 5
	.loc 1 386 5 is_stmt 0
	addi	a0,sp,20
	.loc 1 384 32
	li	a5,256
	sh	a5,20(sp)
	.loc 1 386 5 is_stmt 1
	call	ADC_FIFO_Cfg
.LVL167:
	.loc 1 388 5
	.loc 1 389 1 is_stmt 0
	lw	ra,76(sp)
	.cfi_remember_state
	.cfi_restore 1
	lw	s0,72(sp)
	.cfi_restore 8
.LVL168:
	li	a0,0
	addi	sp,sp,80
	.cfi_def_cfa_offset 0
.LVL169:
	jr	ra
.LVL170:
.L110:
	.cfi_restore_state
	.loc 1 377 9 is_stmt 1
	.loc 1 377 16 is_stmt 0
	mv	a0,a1
	call	bl_adc_get_channel_by_gpio
.LVL171:
	.loc 1 378 9 is_stmt 1
	.loc 1 379 30 is_stmt 0
	li	a5,23
	.loc 1 378 30
	sb	a0,24(sp)
	.loc 1 379 9 is_stmt 1
	.loc 1 379 30 is_stmt 0
	sb	a5,36(sp)
	.loc 1 380 9 is_stmt 1
.LVL172:
	.loc 1 380 21 is_stmt 0
	li	s0,1
.LVL173:
	j	.L112
	.cfi_endproc
.LFE36:
	.size	bl_adc_init, .-bl_adc_init
	.globl	adcFifoCfg
	.globl	adcCfg
	.section	.rodata
	.align	2
	.set	.LANCHOR3,. + 0
.LC0:
	.byte	2
	.byte	1
	.byte	7
	.byte	1
	.byte	1
	.byte	2
	.byte	0
	.byte	0
	.byte	1
	.byte	0
	.byte	4
	.byte	0
	.half	0
	.section	.data.adcCfg,"aw"
	.align	2
	.set	.LANCHOR0,. + 0
	.type	adcCfg, @object
	.size	adcCfg, 14
adcCfg:
	.byte	2
	.byte	1
	.byte	4
	.byte	0
	.byte	0
	.byte	2
	.byte	0
	.byte	0
	.byte	1
	.byte	0
	.byte	4
	.byte	0
	.half	0
	.section	.rodata.bl_tsen_adc_get.str1.4,"aMS",@progbits,1
	.align	2
.LC3:
	.string	"bl_adc.c"
	.zero	3
.LC4:
	.string	"\033[31mERROR \033[0m"
.LC5:
	.string	"[%10u][%s: %s:%4d] read efuse data failed\r\n"
.LC6:
	.string	"\033[32mINFO  \033[0m"
.LC7:
	.string	"[%10u][%s: %s:%4d] offset = %d\r\n"
	.zero	3
.LC8:
	.string	"temperature = %f Celsius\r\n"
	.section	.rodata.test_adc_get.cst4,"aM",@progbits,4
	.align	2
.LC1:
	.word	1158733824
	.section	.rodata.test_adc_get.cst8,"aM",@progbits,8
	.align	3
.LC2:
	.word	1855425872
	.word	1075774226
	.section	.sbss.adcFifoCfg,"aw",@nobits
	.align	2
	.set	.LANCHOR1,. + 0
	.type	adcFifoCfg, @object
	.size	adcFifoCfg, 2
adcFifoCfg:
	.zero	2
	.section	.sdata.tsen_offset.8866,"aw"
	.align	1
	.set	.LANCHOR2,. + 0
	.type	tsen_offset.8866, @object
	.size	tsen_offset.8866, 2
tsen_offset.8866:
	.half	-1
	.text
.Letext0:
	.file 3 "/b-l/bl_iot_sdk_new/toolchain/riscv/Linux/riscv64-unknown-elf/include/machine/_default_types.h"
	.file 4 "/b-l/bl_iot_sdk_new/toolchain/riscv/Linux/lib/gcc/riscv64-unknown-elf/8.3.0/include/stddef.h"
	.file 5 "/b-l/bl_iot_sdk_new/toolchain/riscv/Linux/riscv64-unknown-elf/include/sys/_types.h"
	.file 6 "/b-l/bl_iot_sdk_new/toolchain/riscv/Linux/riscv64-unknown-elf/include/sys/reent.h"
	.file 7 "/b-l/bl_iot_sdk_new/toolchain/riscv/Linux/riscv64-unknown-elf/include/sys/lock.h"
	.file 8 "/b-l/bl_iot_sdk_new/toolchain/riscv/Linux/riscv64-unknown-elf/include/sys/_stdint.h"
	.file 9 "/b-l/bl_iot_sdk_new/components/bl602/bl602_std/bl602_std/RISCV/Device/Bouffalo/BL602/Startup/system_bl602.h"
	.file 10 "/b-l/bl_iot_sdk_new/components/bl602/bl602_std/bl602_std/StdDriver/Inc/bl602_common.h"
	.file 11 "/b-l/bl_iot_sdk_new/components/bl602/bl602_std/bl602_std/StdDriver/Inc/bl602_gpio.h"
	.file 12 "/b-l/bl_iot_sdk_new/components/bl602/bl602_std/bl602_std/StdDriver/Inc/bl602_glb.h"
	.file 13 "/b-l/bl_iot_sdk_new/components/bl602/bl602_std/bl602_std/Device/Bouffalo/BL602/Peripherals/dma_reg.h"
	.file 14 "/b-l/bl_iot_sdk_new/components/bl602/bl602_std/bl602_std/StdDriver/Inc/bl602_dma.h"
	.file 15 "/b-l/bl_iot_sdk_new/components/bl602/bl602_std/bl602_std/StdDriver/Inc/bl602_adc.h"
	.file 16 "/b-l/bl_iot_sdk_new/components/hal_drv/bl602_hal/bl_adc.h"
	.file 17 "/b-l/bl_iot_sdk_new/components/bl602/freertos_riscv_ram/config/portable.h"
	.file 18 "/b-l/bl_iot_sdk_new/components/hal_drv/bl602_hal/bl_dma.h"
	.file 19 "/b-l/bl_iot_sdk_new/components/bl602/freertos_riscv_ram/config/task.h"
	.file 20 "/b-l/bl_iot_sdk_new/components/utils/include/utils_log.h"
	.file 21 "/b-l/bl_iot_sdk_new/toolchain/riscv/Linux/riscv64-unknown-elf/include/stdio.h"
	.file 22 "<built-in>"