	.file	"bl_i2c.c"
	.option nopic
	.attribute arch, "rv32i2p0_m2p0_f2p0_c2p0"
	.attribute unaligned_access, 0
	.attribute stack_align, 16
	.text
.Ltext0:
	.cfi_sections	.debug_frame
	.section	.text.i2c_set_freq,"ax",@progbits
	.align	1
	.globl	i2c_set_freq
	.type	i2c_set_freq, @function
i2c_set_freq:
.LFB9:
	.file 1 "/b-l/bl_iot_sdk_new/components/hal_drv/bl602_hal/bl_i2c.c"
	.loc 1 46 1
	.cfi_startproc
.LVL0:
	.loc 1 47 5
	.loc 1 46 1 is_stmt 0
	addi	sp,sp,-16
	.cfi_def_cfa_offset 16
	sw	s0,8(sp)
	.cfi_offset 8, -8
	.loc 1 47 5
	andi	s0,a1,0xff
	.loc 1 46 1
	sw	s1,4(sp)
	.loc 1 47 5
	li	a1,0
.LVL1:
	.cfi_offset 9, -12
	.loc 1 46 1
	mv	s1,a0
	.loc 1 47 5
	mv	a0,s0
.LVL2:
	.loc 1 46 1
	sw	ra,12(sp)
	.cfi_offset 1, -4
	.loc 1 47 5
	call	I2C_SetSclSync
.LVL3:
	.loc 1 48 5 is_stmt 1
	mv	a0,s0
	.loc 1 50 1 is_stmt 0
	lw	s0,8(sp)
	.cfi_restore 8
	lw	ra,12(sp)
	.cfi_restore 1
	.loc 1 48 5
	mv	a1,s1
	.loc 1 50 1
	lw	s1,4(sp)
	.cfi_restore 9
.LVL4:
	addi	sp,sp,16
	.cfi_def_cfa_offset 0
	.loc 1 48 5
	tail	I2C_ClockSet
.LVL5:
	.cfi_endproc
.LFE9:
	.size	i2c_set_freq, .-i2c_set_freq
	.section	.text.i2c_gpio_init,"ax",@progbits
	.align	1
	.globl	i2c_gpio_init
	.type	i2c_gpio_init, @function
i2c_gpio_init:
.LFB10:
	.loc 1 53 1 is_stmt 1
	.cfi_startproc
.LVL6:
	.loc 1 54 5
	.loc 1 55 5
	.loc 1 53 1 is_stmt 0
	addi	sp,sp,-32
	.cfi_def_cfa_offset 32
	sw	ra,28(sp)
	.cfi_offset 1, -4
	.loc 1 55 8
	bne	a0,zero,.L4
	.loc 1 56 9 is_stmt 1
	.loc 1 57 9
	.loc 1 56 21 is_stmt 0
	li	a5,772
	sh	a5,12(sp)
.L4:
	.loc 1 59 5 is_stmt 1
	.loc 1 61 5
	addi	a1,sp,12
	li	a2,2
	li	a0,6
.LVL7:
	call	GLB_GPIO_Func_Init
.LVL8:
	.loc 1 62 5
	.loc 1 63 1 is_stmt 0
	lw	ra,28(sp)
	.cfi_restore 1
	addi	sp,sp,32
	.cfi_def_cfa_offset 0
	jr	ra
	.cfi_endproc
.LFE10:
	.size	i2c_gpio_init, .-i2c_gpio_init
	.section	.text.i2c_clear_status,"ax",@progbits
	.align	1
	.globl	i2c_clear_status
	.type	i2c_clear_status, @function
i2c_clear_status:
.LFB11:
	.loc 1 66 1 is_stmt 1
	.cfi_startproc
.LVL9:
	.loc 1 67 5
	.loc 1 69 5
	.loc 1 69 8 is_stmt 0
	bne	a0,zero,.L6
.LVL10:
.LBB4:
.LBB5:
	.loc 1 70 9 is_stmt 1
	.loc 1 70 16 is_stmt 0
	li	a4,1073782784
	lw	a5,772(a4)
.LVL11:
	.loc 1 71 9 is_stmt 1
	.loc 1 72 9
	.loc 1 73 9
	.loc 1 73 16 is_stmt 0
	li	a3,1638400
	or	a5,a5,a3
.LVL12:
	.loc 1 74 9 is_stmt 1
	.loc 1 74 63 is_stmt 0
	sw	a5,772(a4)
	.loc 1 76 5 is_stmt 1
	.loc 1 78 9
.LBE5:
.LBE4:
	.loc 1 76 5
	.loc 1 78 9
.LVL13:
.L6:
	.loc 1 79 1 is_stmt 0
	ret
	.cfi_endproc
.LFE11:
	.size	i2c_clear_status, .-i2c_clear_status
	.section	.text.do_write_data,"ax",@progbits
	.align	1
	.globl	do_write_data
	.type	do_write_data, @function
do_write_data:
.LFB12:
	.loc 1 82 1 is_stmt 1
	.cfi_startproc
.LVL14:
	.loc 1 83 5
	.loc 1 84 5
	.loc 1 85 5
	.loc 1 86 5
	.loc 1 88 5
	.loc 1 88 33 is_stmt 0
	lw	a1,24(a0)
	.loc 1 88 25
	lw	a5,12(a0)
	li	a4,4
	sub	a5,a5,a1
	.loc 1 89 5 is_stmt 1
	ble	a5,a4,.L9
	li	a5,4
.L9:
.LVL15:
	.loc 1 93 5
	.loc 1 93 12 is_stmt 0
	li	a4,0
	.loc 1 83 14
	li	a2,0
.LVL16:
.L10:
	.loc 1 93 5 discriminator 1
	bgt	a5,a4,.L11
	.loc 1 97 5 is_stmt 1
	.loc 1 97 60 is_stmt 0
	li	a4,1073782784
.LVL17:
	sw	a2,904(a4)
	.loc 1 98 5 is_stmt 1
	.loc 1 98 33 is_stmt 0
	lw	a4,24(a0)
	add	a5,a4,a5
.LVL18:
	.loc 1 98 18
	sw	a5,24(a0)
	.loc 1 100 5 is_stmt 1
	.loc 1 101 1 is_stmt 0
	ret
.LVL19:
.L11:
	.loc 1 94 9 is_stmt 1 discriminator 3
	.loc 1 95 9 discriminator 3
	.loc 1 94 15 is_stmt 0 discriminator 3
	lw	a3,16(a0)
	.loc 1 95 26 discriminator 3
	slli	a6,a4,3
	.loc 1 94 15 discriminator 3
	add	a3,a3,a1
	add	a3,a3,a4
	.loc 1 94 13 discriminator 3
	lbu	a3,0(a3)
	.loc 1 93 29 discriminator 3
	addi	a4,a4,1
.LVL20:
	.loc 1 95 21 discriminator 3
	sll	a3,a3,a6
	.loc 1 95 14 discriminator 3
	add	a2,a2,a3
.LVL21:
	j	.L10
	.cfi_endproc
.LFE12:
	.size	do_write_data, .-do_write_data
	.section	.text.do_read_data,"ax",@progbits
	.align	1
	.globl	do_read_data
	.type	do_read_data, @function
do_read_data:
.LFB13:
	.loc 1 104 1 is_stmt 1
	.cfi_startproc
.LVL22:
	.loc 1 105 5
	.loc 1 106 5
	.loc 1 107 5
	.loc 1 109 5
	.loc 1 109 33 is_stmt 0
	lw	a3,24(a0)
	.loc 1 109 25
	lw	a4,12(a0)
	.loc 1 110 10
	li	a5,1073782784
	lw	a5,908(a5)
.LVL23:
	.loc 1 109 25
	sub	a4,a4,a3
.LVL24:
	.loc 1 110 5 is_stmt 1
	.loc 1 111 5
	.loc 1 111 8 is_stmt 0
	li	a2,3
	ble	a4,a2,.L16
	.loc 1 112 11 is_stmt 1
	.loc 1 112 42 is_stmt 0
	lw	a4,16(a0)
.LVL25:
	add	a4,a4,a3
	.loc 1 112 44
	sb	a5,0(a4)
.LVL26:
	.loc 1 112 66 is_stmt 1
	.loc 1 112 100 is_stmt 0
	lw	a3,24(a0)
	lw	a4,16(a0)
	add	a4,a4,a3
	.loc 1 112 121
	srli	a3,a5,8
	.loc 1 112 102
	sb	a3,1(a4)
	.loc 1 112 129 is_stmt 1
	.loc 1 112 163 is_stmt 0
	lw	a3,24(a0)
	lw	a4,16(a0)
	add	a4,a4,a3
	.loc 1 112 184
	srli	a3,a5,16
	.loc 1 112 165
	sb	a3,2(a4)
	.loc 1 112 193 is_stmt 1
	.loc 1 112 227 is_stmt 0
	lw	a4,16(a0)
	lw	a3,24(a0)
	.loc 1 112 248
	srli	a5,a5,24
.LVL27:
	.loc 1 112 227
	add	a4,a4,a3
	.loc 1 112 229
	sb	a5,3(a4)
	.loc 1 112 258 is_stmt 1
	.loc 1 113 9
.LVL28:
	.loc 1 113 15 is_stmt 0
	li	a4,4
.LVL29:
.L14:
	.loc 1 120 5 is_stmt 1
	.loc 1 120 33 is_stmt 0
	lw	a5,24(a0)
	add	a4,a5,a4
.LVL30:
	.loc 1 120 18
	sw	a4,24(a0)
	.loc 1 122 5 is_stmt 1
	.loc 1 123 1 is_stmt 0
	ret
.LVL31:
.L15:
	.loc 1 116 13 is_stmt 1 discriminator 3
	.loc 1 116 43 is_stmt 0 discriminator 3
	lw	a3,16(a0)
	lw	a1,24(a0)
	add	a3,a3,a2
	add	a3,a3,a1
	sb	a5,0(a3)
	.loc 1 117 13 is_stmt 1 discriminator 3
	.loc 1 115 33 is_stmt 0 discriminator 3
	addi	a2,a2,1
.LVL32:
	.loc 1 117 18 discriminator 3
	srli	a5,a5,8
.LVL33:
.L13:
	.loc 1 115 9 discriminator 1
	blt	a2,a4,.L15
	j	.L14
.LVL34:
.L16:
	.loc 1 115 16
	li	a2,0
	j	.L13
	.cfi_endproc
.LFE13:
	.size	do_read_data, .-do_read_data
	.section	.text.i2c_transfer_start,"ax",@progbits
	.align	1
	.globl	i2c_transfer_start
	.type	i2c_transfer_start, @function
i2c_transfer_start:
.LFB16:
	.loc 1 176 1 is_stmt 1
	.cfi_startproc
.LVL35:
	.loc 1 177 5
	.loc 1 176 1 is_stmt 0
	addi	sp,sp,-16
	.cfi_def_cfa_offset 16
	sw	s0,8(sp)
	sw	ra,12(sp)
	.cfi_offset 8, -8
	.cfi_offset 1, -4
	.loc 1 176 1
	mv	s0,a0
	.loc 1 177 5
	lw	a0,40(a0)
.LVL36:
	call	i2c_clear_status
.LVL37:
	.loc 1 178 5 is_stmt 1
.LBB10:
.LBB11:
	.loc 1 145 5
	.loc 1 147 5
	.loc 1 147 8 is_stmt 0
	lw	a5,40(s0)
	bne	a5,zero,.L19
	.loc 1 148 9 is_stmt 1
	.loc 1 148 16 is_stmt 0
	li	a5,1073782784
	lw	a5,768(a5)
.LVL38:
	.loc 1 149 9 is_stmt 1
	.loc 1 149 11 is_stmt 0
	lbu	a3,2(s0)
	.loc 1 152 20
	ori	a4,a5,2
	.loc 1 149 11
	bne	a3,zero,.L21
	.loc 1 150 13 is_stmt 1
	.loc 1 150 20 is_stmt 0
	andi	a4,a5,-3
.LVL39:
.L21:
	.loc 1 155 9 is_stmt 1
	.loc 1 155 29 is_stmt 0
	li	a5,-32768
	addi	a5,a5,255
	and	a5,a4,a5
	.loc 1 155 60
	lhu	a4,0(s0)
.LVL40:
	.loc 1 156 11
	lbu	a3,3(s0)
	.loc 1 155 84
	slli	a4,a4,8
	.loc 1 155 16
	or	a4,a4,a5
.LVL41:
	.loc 1 156 9 is_stmt 1
	.loc 1 160 20 is_stmt 0
	andi	a5,a4,-17
	.loc 1 156 11
	beq	a3,zero,.L23
	.loc 1 157 13 is_stmt 1
.LVL42:
	.loc 1 158 13
	.loc 1 158 81 is_stmt 0
	lbu	a5,8(s0)
	andi	a4,a4,-97
.LVL43:
	.loc 1 158 89
	addi	a5,a5,-1
	.loc 1 158 92
	slli	a5,a5,5
	or	a5,a5,a4
	.loc 1 158 20
	ori	a5,a5,16
.LVL44:
.L23:
	.loc 1 163 9 is_stmt 1
	.loc 1 163 29 is_stmt 0
	li	a4,-16711680
	addi	a4,a4,-1
	and	a5,a5,a4
.LVL45:
	.loc 1 163 61
	lw	a4,12(s0)
	addi	a4,a4,-1
	.loc 1 163 86
	slli	a4,a4,16
	.loc 1 163 16
	or	a5,a4,a5
.LVL46:
	.loc 1 164 9 is_stmt 1
	.loc 1 164 63 is_stmt 0
	li	a4,1073782784
	sw	a5,768(a4)
	.loc 1 166 9 is_stmt 1
	.loc 1 166 11 is_stmt 0
	lbu	a5,3(s0)
.LVL47:
	beq	a5,zero,.L19
	.loc 1 167 13 is_stmt 1
	.loc 1 167 75 is_stmt 0
	lw	a5,4(s0)
	.loc 1 167 67
	sw	a5,776(a4)
.LVL48:
.L19:
	.loc 1 170 5 is_stmt 1
	.loc 1 172 5
.LBE11:
.LBE10:
	.loc 1 179 5
.LBB12:
.LBB13:
	.loc 1 127 5
	.loc 1 127 15 is_stmt 0
	lbu	a5,2(s0)
	lbu	a0,40(s0)
	.loc 1 127 8
	bne	a5,zero,.L25
	.loc 1 128 9 is_stmt 1
	li	a2,0
	li	a1,1
.L32:
	.loc 1 130 9 is_stmt 0
	call	I2C_IntMask
.LVL49:
.L26:
	.loc 1 133 5 is_stmt 1
	lbu	a0,40(s0)
	li	a2,0
	li	a1,0
	call	I2C_IntMask
.LVL50:
	.loc 1 134 5
	lbu	a0,40(s0)
	li	a2,0
	li	a1,5
	call	I2C_IntMask
.LVL51:
	.loc 1 135 5
	lbu	a0,40(s0)
	li	a2,0
	li	a1,4
	call	I2C_IntMask
.LVL52:
	.loc 1 136 5
	lbu	a0,40(s0)
	li	a2,0
	li	a1,3
	call	I2C_IntMask
.LVL53:
	.loc 1 138 5
	lbu	a0,40(s0)
.LBE13:
.LBE12:
	.loc 1 182 1 is_stmt 0
	lw	s0,8(sp)
	.cfi_remember_state
	.cfi_restore 8
.LVL54:
	lw	ra,12(sp)
	.cfi_restore 1
	addi	sp,sp,16
	.cfi_def_cfa_offset 0
.LBB15:
.LBB14:
	.loc 1 138 5
	tail	I2C_Enable
.LVL55:
.L25:
	.cfi_restore_state
	.loc 1 129 12 is_stmt 1
	.loc 1 129 15 is_stmt 0
	li	a4,1
	bne	a5,a4,.L26
	.loc 1 130 9 is_stmt 1
	li	a2,0
	li	a1,2
	j	.L32
.LBE14:
.LBE15:
	.cfi_endproc
.LFE16:
	.size	i2c_transfer_start, .-i2c_transfer_start
	.text
.Letext0:
	.file 2 "/b-l/bl_iot_sdk_new/toolchain/riscv/Linux/lib/gcc/riscv64-unknown-elf/8.3.0/include/stdint-gcc.h"
	.file 3 "/b-l/bl_iot_sdk_new/components/hal_drv/bl602_hal/bl_i2c.h"
	.file 4 "/b-l/bl_iot_sdk_new/toolchain/riscv/Linux/lib/gcc/riscv64-unknown-elf/8.3.0/include/stddef.h"
	.file 5 "/b-l/bl_iot_sdk_new/toolchain/riscv/Linux/riscv64-unknown-elf/include/sys/_types.h"
	.file 6 "/b-l/bl_iot_sdk_new/toolchain/riscv/Linux/riscv64-unknown-elf/include/sys/reent.h"
	.file 7 "/b-l/bl_iot_sdk_new/toolchain/riscv/Linux/riscv64-unknown-elf/include/sys/lock.h"
	.file 8 "/b-l/bl_iot_sdk_new/components/bl602/bl602_std/bl602_std/RISCV/Device/Bouffalo/BL602/Startup/system_bl602.h"
	.file 9 "/b-l/bl_iot_sdk_new/components/bl602/bl602_std/bl602_std/StdDriver/Inc/bl602_common.h"
	.file 10 "/b-l/bl_iot_sdk_new/components/bl602/bl602_std/bl602_std/StdDriver/Inc/bl602_i2c.h"
	.file 11 "/b-l/bl_iot_sdk_new/components/bl602/bl602_std/bl602_std/StdDriver/Inc/bl602_gpio.h"
	.file 12 "/b-l/bl_iot_sdk_new/components/bl602/freertos_riscv_ram/portable/GCC/RISC-V/portmacro.h"
	.file 13 "/b-l/bl_iot_sdk_new/components/bl602/bl602_std/bl602_std/StdDriver/Inc/bl602_glb.h"