	.file	"hal_i2c.c"
	.option nopic
	.attribute arch, "rv32i2p0_m2p0_f2p0_c2p0"
	.attribute unaligned_access, 0
	.attribute stack_align, 16
	.text
.Ltext0:
	.cfi_sections	.debug_frame
	.section	.text.i2c_callback,"ax",@progbits
	.align	1
	.type	i2c_callback, @function
i2c_callback:
.LFB27:
	.file 1 "/b-l/bl_iot_sdk_new/components/hal_drv/bl602_hal/hal_i2c.c"
	.loc 1 53 1
	.cfi_startproc
.LVL0:
	.loc 1 54 5
	.loc 1 55 5
	.loc 1 53 1 is_stmt 0
	addi	sp,sp,-32
	.cfi_def_cfa_offset 32
	sw	ra,28(sp)
	sw	s0,24(sp)
	.cfi_offset 1, -4
	.cfi_offset 8, -8
	.loc 1 53 1
	mv	s0,a0
	.loc 1 55 5
	lbu	a0,40(a0)
.LVL1:
	call	I2C_Disable
.LVL2:
	.loc 1 56 5 is_stmt 1
	lbu	a0,40(s0)
	li	a2,1
	li	a1,6
	call	I2C_IntMask
.LVL3:
	.loc 1 57 5
	lw	a0,40(s0)
	call	i2c_clear_status
.LVL4:
	.loc 1 58 5
	.loc 1 58 8 is_stmt 0
	lw	a4,28(s0)
	li	a5,1
	bne	a4,a5,.L3
	.loc 1 59 9 is_stmt 1
	li	a1,2
	mv	a0,s0
	call	i2c_async_trigger
.LVL5:
	.loc 1 60 9
	.loc 1 60 12 is_stmt 0
	lbu	a5,2(s0)
	bne	a5,zero,.L3
	.loc 1 61 13 is_stmt 1
	lw	a0,16(s0)
	call	vPortFree
.LVL6:
	.loc 1 62 13
	mv	a0,s0
	call	vPortFree
.LVL7:
.L3:
	.loc 1 65 5
	lui	a5,%hi(.LANCHOR0)
	lw	a0,%lo(.LANCHOR0)(a5)
	addi	a1,sp,12
	call	xQueueGiveFromISR
.LVL8:
	.loc 1 66 5
	.loc 1 66 7 is_stmt 0
	lw	a5,12(sp)
	beq	a5,zero,.L5
	.loc 1 66 36 is_stmt 1 discriminator 1
	call	vTaskSwitchContext
.LVL9:
.L5:
	.loc 1 67 5
	.loc 1 67 8 is_stmt 0
	lw	a4,28(s0)
	li	a5,1
	bne	a4,a5,.L1
	.loc 1 68 9 is_stmt 1
	lui	a5,%hi(.LANCHOR1)
	lw	a0,%lo(.LANCHOR1)(a5)
	addi	a1,sp,12
	call	xQueueGiveFromISR
.LVL10:
	.loc 1 69 9
	.loc 1 69 11 is_stmt 0
	lw	a5,12(sp)
	beq	a5,zero,.L1
	.loc 1 69 40 is_stmt 1 discriminator 1
	call	vTaskSwitchContext
.LVL11:
	.loc 1 71 5 discriminator 1
.L1:
	.loc 1 72 1 is_stmt 0
	lw	ra,28(sp)
	.cfi_restore 1
	lw	s0,24(sp)
	.cfi_restore 8
.LVL12:
	addi	sp,sp,32
	.cfi_def_cfa_offset 0
	jr	ra
	.cfi_endproc
.LFE27:
	.size	i2c_callback, .-i2c_callback
	.section	.text.i2c_interrupt_entry,"ax",@progbits
	.align	1
	.type	i2c_interrupt_entry, @function
i2c_interrupt_entry:
.LFB29:
	.loc 1 98 1 is_stmt 1
	.cfi_startproc
.LVL13:
	.loc 1 99 5
	.loc 1 100 5
	.loc 1 102 5
	.loc 1 98 1 is_stmt 0
	addi	sp,sp,-16
	.cfi_def_cfa_offset 16
	sw	ra,12(sp)
	sw	s0,8(sp)
	.cfi_offset 1, -4
	.cfi_offset 8, -8
	.loc 1 104 12
	li	a5,1073782784
	lw	a5,772(a5)
	.loc 1 102 12
	lw	s0,0(a0)
.LVL14:
	.loc 1 104 5 is_stmt 1
	.loc 1 105 5
	.loc 1 105 19 is_stmt 0
	andi	a4,a5,4
	.loc 1 105 7
	beq	a4,zero,.L17
	.loc 1 106 9 is_stmt 1
	.loc 1 106 23 is_stmt 0
	li	a5,3
.LVL15:
.L31:
	.loc 1 116 23
	sw	a5,20(s0)
.LVL16:
.L18:
	.loc 1 131 5 is_stmt 1
.LBB10:
.LBB11:
	.loc 1 76 5
	.loc 1 76 16 is_stmt 0
	lbu	a5,2(s0)
	.loc 1 76 8
	bne	a5,zero,.L24
	.loc 1 76 49
	li	a5,1
	sw	a5,20(s0)
	.loc 1 77 9 is_stmt 1
	.loc 1 77 19 is_stmt 0
	lw	a4,24(s0)
	.loc 1 77 34
	lw	a5,12(s0)
	.loc 1 77 12
	bgeu	a4,a5,.L25
	.loc 1 78 13 is_stmt 1
	mv	a0,s0
.LBE11:
.LBE10:
	.loc 1 133 1 is_stmt 0
	lw	s0,8(sp)
	.cfi_remember_state
	.cfi_restore 8
.LVL17:
	lw	ra,12(sp)
	.cfi_restore 1
	addi	sp,sp,16
	.cfi_def_cfa_offset 0
.LBB16:
.LBB12:
	.loc 1 78 13
	tail	do_write_data
.LVL18:
.L17:
	.cfi_restore_state
.LBE12:
.LBE16:
	.loc 1 107 12 is_stmt 1
	.loc 1 107 26 is_stmt 0
	andi	a4,a5,1
	.loc 1 107 14
	beq	a4,zero,.L19
	.loc 1 108 9 is_stmt 1
	.loc 1 108 23 is_stmt 0
	sw	zero,20(s0)
	.loc 1 109 9 is_stmt 1
.LVL19:
.L32:
	.loc 1 113 9
	mv	a0,s0
.LVL20:
	.loc 1 133 1 is_stmt 0
	lw	s0,8(sp)
	.cfi_remember_state
	.cfi_restore 8
.LVL21:
	lw	ra,12(sp)
	.cfi_restore 1
	addi	sp,sp,16
	.cfi_def_cfa_offset 0
	.loc 1 113 9
	tail	i2c_callback
.LVL22:
.L19:
	.cfi_restore_state
	.loc 1 111 12 is_stmt 1
	.loc 1 111 26 is_stmt 0
	andi	a4,a5,8
	.loc 1 111 14
	beq	a4,zero,.L20
	.loc 1 112 9 is_stmt 1
	.loc 1 112 23 is_stmt 0
	li	a5,6
.LVL23:
.L33:
	sw	a5,20(s0)
	j	.L32
.LVL24:
.L20:
	.loc 1 115 12 is_stmt 1
	.loc 1 115 26 is_stmt 0
	andi	a4,a5,2
	.loc 1 115 14
	beq	a4,zero,.L21
	.loc 1 116 9 is_stmt 1
	.loc 1 116 23 is_stmt 0
	li	a5,1
.LVL25:
	j	.L31
.LVL26:
.L21:
	.loc 1 117 12 is_stmt 1
	.loc 1 117 26 is_stmt 0
	andi	a4,a5,16
	.loc 1 117 14
	beq	a4,zero,.L22
	.loc 1 118 9 is_stmt 1
	.loc 1 118 23 is_stmt 0
	li	a5,5
.LVL27:
	j	.L33
.LVL28:
.L22:
	.loc 1 121 12 is_stmt 1
	.loc 1 121 26 is_stmt 0
	andi	a5,a5,32
.LVL29:
	.loc 1 121 14
	beq	a5,zero,.L23
	.loc 1 122 9 is_stmt 1
	.loc 1 122 23 is_stmt 0
	li	a5,4
	j	.L33
.L23:
	.loc 1 126 9 is_stmt 1
	.loc 1 127 9
	.loc 1 127 23 is_stmt 0
	li	a5,255
	sw	a5,20(s0)
	.loc 1 128 9 is_stmt 1
	mv	a0,s0
.LVL30:
	call	i2c_callback
.LVL31:
	j	.L18
.LVL32:
.L25:
.LBB17:
.LBB13:
	.loc 1 79 16
	.loc 1 79 19 is_stmt 0
	bne	a4,a5,.L16
	.loc 1 80 13 is_stmt 1
	li	a2,1
	li	a1,1
.L34:
	.loc 1 88 13 is_stmt 0
	lbu	a0,40(s0)
.LBE13:
.LBE17:
	.loc 1 133 1
	lw	s0,8(sp)
	.cfi_remember_state
	.cfi_restore 8
.LVL33:
	lw	ra,12(sp)
	.cfi_restore 1
	addi	sp,sp,16
	.cfi_def_cfa_offset 0
.LBB18:
.LBB14:
	.loc 1 88 13
	tail	I2C_IntMask
.LVL34:
.L24:
	.cfi_restore_state
	.loc 1 84 12 is_stmt 1
	.loc 1 84 15 is_stmt 0
	li	a4,1
	bne	a5,a4,.L16
	.loc 1 84 56
	li	a5,3
	sw	a5,20(s0)
	.loc 1 85 9 is_stmt 1
	.loc 1 85 12 is_stmt 0
	lw	a4,24(s0)
	lw	a5,12(s0)
	bgeu	a4,a5,.L29
	.loc 1 86 14 is_stmt 1
	mv	a0,s0
.LBE14:
.LBE18:
	.loc 1 133 1 is_stmt 0
	lw	s0,8(sp)
	.cfi_remember_state
	.cfi_restore 8
.LVL35:
	lw	ra,12(sp)
	.cfi_restore 1
	addi	sp,sp,16
	.cfi_def_cfa_offset 0
.LBB19:
.LBB15:
	.loc 1 86 14
	tail	do_read_data
.LVL36:
.L29:
	.cfi_restore_state
	.loc 1 88 13 is_stmt 1
	li	a2,1
	li	a1,2
	j	.L34
.L16:
.LBE15:
.LBE19:
	.loc 1 133 1 is_stmt 0
	lw	ra,12(sp)
	.cfi_restore 1
	lw	s0,8(sp)
	.cfi_restore 8
.LVL37:
	addi	sp,sp,16
	.cfi_def_cfa_offset 0
	jr	ra
	.cfi_endproc
.LFE29:
	.size	i2c_interrupt_entry, .-i2c_interrupt_entry
	.section	.text.i2c_transfer_block,"ax",@progbits
	.align	1
	.globl	i2c_transfer_block
	.type	i2c_transfer_block, @function
i2c_transfer_block:
.LFB30:
	.loc 1 136 1 is_stmt 1
	.cfi_startproc
.LVL38:
	.loc 1 137 5
	.loc 1 136 1 is_stmt 0
	addi	sp,sp,-16
	.cfi_def_cfa_offset 16
	sw	s2,0(sp)
	.cfi_offset 18, -16
	.loc 1 137 5
	lui	s2,%hi(.LANCHOR1)
	addi	s2,s2,%lo(.LANCHOR1)
	.loc 1 136 1
	sw	s1,4(sp)
	.cfi_offset 9, -12
	mv	s1,a0
	.loc 1 137 5
	lw	a0,0(s2)
.LVL39:
	.loc 1 136 1
	sw	s0,8(sp)
	.loc 1 137 5
	li	a1,-1
	.cfi_offset 8, -8
	.loc 1 138 5
	lui	s0,%hi(.LANCHOR0)
	.loc 1 136 1
	sw	ra,12(sp)
	.cfi_offset 1, -4
	.loc 1 138 5
	addi	s0,s0,%lo(.LANCHOR0)
	.loc 1 137 5
	call	xQueueSemaphoreTake
.LVL40:
	.loc 1 138 5 is_stmt 1
	lw	a0,0(s0)
	li	a1,-1
	call	xQueueSemaphoreTake
.LVL41:
	.loc 1 139 5
	.loc 1 140 13 is_stmt 0
	lui	a5,%hi(gpstmsg)
	.loc 1 142 5
	mv	a0,s1
	.loc 1 139 19
	sw	zero,28(s1)
	.loc 1 140 5 is_stmt 1
	.loc 1 140 13 is_stmt 0
	sw	s1,%lo(gpstmsg)(a5)
	.loc 1 142 5 is_stmt 1
	call	i2c_transfer_start
.LVL42:
	.loc 1 143 5
	lw	a0,0(s0)
	li	a1,-1
	call	xQueueSemaphoreTake
.LVL43:
	.loc 1 144 5
	.loc 1 147 9
	.loc 1 150 5
	lw	a0,0(s0)
	li	a3,0
	li	a2,0
	li	a1,0
	call	xQueueGenericSend
.LVL44:
	.loc 1 151 5
	lw	a0,0(s2)
	li	a3,0
	li	a2,0
	li	a1,0
	call	xQueueGenericSend
.LVL45:
	.loc 1 153 5
	.loc 1 154 1 is_stmt 0
	lw	ra,12(sp)
	.cfi_restore 1
	lw	s0,8(sp)
	.cfi_restore 8
	lw	a0,20(s1)
	lw	s2,0(sp)
	.cfi_restore 18
	lw	s1,4(sp)
	.cfi_restore 9
.LVL46:
	addi	sp,sp,16
	.cfi_def_cfa_offset 0
	jr	ra
	.cfi_endproc
.LFE30:
	.size	i2c_transfer_block, .-i2c_transfer_block
	.section	.text.i2c_transfer_no_block,"ax",@progbits
	.align	1
	.globl	i2c_transfer_no_block
	.type	i2c_transfer_no_block, @function
i2c_transfer_no_block:
.LFB31:
	.loc 1 157 1 is_stmt 1
	.cfi_startproc
.LVL47:
	.loc 1 158 5
	.loc 1 159 5
	.loc 1 160 5
	.loc 1 157 1 is_stmt 0
	addi	sp,sp,-32
	.cfi_def_cfa_offset 32
	.loc 1 160 5
	lui	a5,%hi(.LANCHOR1)
	.loc 1 157 1
	sw	s0,24(sp)
	.cfi_offset 8, -8
	mv	s0,a0
	.loc 1 160 5
	lw	a0,%lo(.LANCHOR1)(a5)
.LVL48:
	li	a1,-1
	.loc 1 157 1
	sw	ra,28(sp)
	sw	s2,16(sp)
	sw	s1,20(sp)
	sw	s3,12(sp)
	.cfi_offset 1, -4
	.cfi_offset 18, -16
	.cfi_offset 9, -12
	.cfi_offset 19, -20
	.loc 1 160 5
	call	xQueueSemaphoreTake
.LVL49:
	.loc 1 161 5 is_stmt 1
	lui	a5,%hi(.LANCHOR0)
	lw	a0,%lo(.LANCHOR0)(a5)
	li	a1,-1
	.loc 1 162 13 is_stmt 0
	lui	s2,%hi(gpstmsg)
	.loc 1 161 5
	call	xQueueSemaphoreTake
.LVL50:
	.loc 1 162 5 is_stmt 1
	.loc 1 163 14 is_stmt 0
	li	a0,44
	.loc 1 162 13
	sw	s0,%lo(gpstmsg)(s2)
	.loc 1 163 5 is_stmt 1
	.loc 1 163 14 is_stmt 0
	call	pvPortMalloc
.LVL51:
	.loc 1 165 5 is_stmt 1
	.loc 1 165 8 is_stmt 0
	beq	a0,zero,.L41
	.loc 1 169 5
	li	a2,44
	mv	a1,s0
	mv	s1,a0
	.loc 1 169 5 is_stmt 1
	call	memcpy
.LVL52:
	.loc 1 170 5
	.loc 1 170 15 is_stmt 0
	lbu	a5,2(s0)
	.loc 1 170 8
	bne	a5,zero,.L39
	.loc 1 171 9 is_stmt 1
	.loc 1 171 16 is_stmt 0
	lw	a0,12(s0)
	call	pvPortMalloc
.LVL53:
	.loc 1 175 9
	lw	a2,12(s0)
	lw	a1,16(s0)
	.loc 1 171 16
	mv	s3,a0
.LVL54:
	.loc 1 172 9 is_stmt 1
	.loc 1 173 13
	.loc 1 175 9
	call	memcpy
.LVL55:
	.loc 1 176 9
	.loc 1 176 21 is_stmt 0
	sw	s3,16(s1)
.LVL56:
.L40:
	.loc 1 180 5 is_stmt 1
	.loc 1 181 5
	.loc 1 182 5 is_stmt 0
	mv	a0,s1
	.loc 1 181 13
	sw	s1,%lo(gpstmsg)(s2)
	.loc 1 182 5 is_stmt 1
	call	i2c_transfer_start
.LVL57:
	.loc 1 183 5
	.loc 1 183 12 is_stmt 0
	li	a0,0
.LVL58:
.L37:
	.loc 1 184 1
	lw	ra,28(sp)
	.cfi_remember_state
	.cfi_restore 1
	lw	s0,24(sp)
	.cfi_restore 8
.LVL59:
	lw	s1,20(sp)
	.cfi_restore 9
	lw	s2,16(sp)
	.cfi_restore 18
	lw	s3,12(sp)
	.cfi_restore 19
	addi	sp,sp,32
	.cfi_def_cfa_offset 0
	jr	ra
.LVL60:
.L39:
	.cfi_restore_state
	.loc 1 177 12 is_stmt 1
	.loc 1 177 15 is_stmt 0
	li	a4,1
	bne	a5,a4,.L40
	.loc 1 178 9 is_stmt 1
	.loc 1 178 29 is_stmt 0
	lw	a5,16(s0)
	.loc 1 178 21
	sw	a5,16(s1)
	j	.L40
.LVL61:
.L41:
	.loc 1 167 16
	li	a0,-1
.LVL62:
	j	.L37
	.cfi_endproc
.LFE31:
	.size	i2c_transfer_no_block, .-i2c_transfer_no_block
	.section	.text.i2c_msgs_process,"ax",@progbits
	.align	1
	.globl	i2c_msgs_process
	.type	i2c_msgs_process, @function
i2c_msgs_process:
.LFB32:
	.loc 1 187 1 is_stmt 1
	.cfi_startproc
.LVL63:
	.loc 1 188 5
	.loc 1 187 1 is_stmt 0
	addi	sp,sp,-16
	.cfi_def_cfa_offset 16
	sw	ra,12(sp)
	.cfi_offset 1, -4
	.loc 1 188 5
	call	i2c_transfer_block
.LVL64:
	.loc 1 189 5 is_stmt 1
	lui	a5,%hi(.LANCHOR2)
	.loc 1 192 1 is_stmt 0
	lw	ra,12(sp)
	.cfi_restore 1
	.loc 1 189 5
	lw	a0,%lo(.LANCHOR2)(a5)
	li	a3,0
	.loc 1 192 1
	.loc 1 189 5
	li	a2,0
	li	a1,0
	.loc 1 192 1
	addi	sp,sp,16
	.cfi_def_cfa_offset 0
	.loc 1 189 5
	tail	xQueueGenericSend
.LVL65:
	.cfi_endproc
.LFE32:
	.size	i2c_msgs_process, .-i2c_msgs_process
	.section	.text.i2c_insert_msgs_process,"ax",@progbits
	.align	1
	.globl	i2c_insert_msgs_process
	.type	i2c_insert_msgs_process, @function
i2c_insert_msgs_process:
.LFB33:
	.loc 1 195 1 is_stmt 1
	.cfi_startproc
.LVL66:
	.loc 1 196 5
	.loc 1 197 5
	.loc 1 199 5
	.loc 1 195 1 is_stmt 0
	addi	sp,sp,-16
	.cfi_def_cfa_offset 16
	sw	s0,8(sp)
	sw	s1,4(sp)
	sw	s2,0(sp)
	sw	ra,12(sp)
	.cfi_offset 8, -8
	.cfi_offset 9, -12
	.cfi_offset 18, -16
	.cfi_offset 1, -4
	.loc 1 195 1
	mv	s1,a0
	.loc 1 199 12
	li	s0,0
	.loc 1 201 15
	li	s2,44
.LVL67:
.L46:
	.loc 1 199 5 discriminator 1
	lw	a5,36(s1)
	ble	a5,s0,.L49
	.loc 1 201 9 is_stmt 1
	.loc 1 201 15 is_stmt 0
	mul	a0,s0,s2
	add	a0,s1,a0
	call	i2c_transfer_block
.LVL68:
	.loc 1 202 9 is_stmt 1
	.loc 1 202 12 is_stmt 0
	beq	a0,zero,.L47
.LVL69:
.L49:
	.loc 1 207 5 is_stmt 1
	lui	a5,%hi(.LANCHOR2)
	lw	a0,%lo(.LANCHOR2)(a5)
	li	a3,0
	li	a2,0
	li	a1,0
	call	xQueueGenericSend
.LVL70:
	.loc 1 208 5
	lui	a5,%hi(.LANCHOR3)
	.loc 1 211 1 is_stmt 0
	lw	s0,8(sp)
	.cfi_remember_state
	.cfi_restore 8
.LVL71:
	lw	ra,12(sp)
	.cfi_restore 1
	lw	s1,4(sp)
	.cfi_restore 9
.LVL72:
	lw	s2,0(sp)
	.cfi_restore 18
	.loc 1 208 5
	lw	a0,%lo(.LANCHOR3)(a5)
	li	a3,0
	.loc 1 211 1
	.loc 1 208 5
	li	a2,0
	li	a1,0
	.loc 1 211 1
	addi	sp,sp,16
	.cfi_def_cfa_offset 0
	.loc 1 208 5
	tail	xQueueGenericSend
.LVL73:
.L47:
	.cfi_restore_state
	.loc 1 199 39 discriminator 2
	addi	s0,s0,1
.LVL74:
	j	.L46
	.cfi_endproc
.LFE33:
	.size	i2c_insert_msgs_process, .-i2c_insert_msgs_process
	.section	.text.i2c_transfer_msgs_block,"ax",@progbits
	.align	1
	.globl	i2c_transfer_msgs_block
	.type	i2c_transfer_msgs_block, @function
i2c_transfer_msgs_block:
.LFB35:
	.loc 1 224 1 is_stmt 1
	.cfi_startproc
.LVL75:
	.loc 1 225 5
	.loc 1 227 5
	.loc 1 224 1 is_stmt 0
	addi	sp,sp,-48
	.cfi_def_cfa_offset 48
	sw	s6,16(sp)
	.cfi_offset 22, -32
	.loc 1 227 5
	lui	s6,%hi(.LANCHOR4)
	.loc 1 224 1
	sw	s1,36(sp)
	.cfi_offset 9, -12
	mv	s1,a0
	.loc 1 227 5
	lw	a0,%lo(.LANCHOR4)(s6)
.LVL76:
	.loc 1 224 1
	sw	s7,12(sp)
	sw	s8,8(sp)
	.cfi_offset 23, -36
	.cfi_offset 24, -40
	mv	s7,a2
	mv	s8,a1
	.loc 1 227 5
	li	a1,-1
.LVL77:
	.loc 1 224 1
	sw	ra,44(sp)
	sw	s0,40(sp)
	sw	s2,32(sp)
	sw	s3,28(sp)
	sw	s4,24(sp)
	sw	s5,20(sp)
	sw	s9,4(sp)
	.cfi_offset 1, -4
	.cfi_offset 8, -8
	.cfi_offset 18, -16
	.cfi_offset 19, -20
	.cfi_offset 20, -24
	.cfi_offset 21, -28
	.cfi_offset 25, -44
	addi	s6,s6,%lo(.LANCHOR4)
	.loc 1 227 5
	call	xQueueSemaphoreTake
.LVL78:
	.loc 1 228 5 is_stmt 1
	.loc 1 228 8 is_stmt 0
	bne	s7,zero,.L52
	.loc 1 229 9 is_stmt 1
	lui	a5,%hi(.LANCHOR3)
	lw	a0,%lo(.LANCHOR3)(a5)
	li	a1,-1
	call	xQueueSemaphoreTake
.LVL79:
.L52:
	mv	s2,s1
	.loc 1 224 1 is_stmt 0 discriminator 1
	li	s0,0
	lui	s5,%hi(.LANCHOR2)
	li	s9,44
.L53:
.LVL80:
	lw	a0,%lo(.LANCHOR2)(s5)
	mul	s3,s0,s9
	addi	s4,s5,%lo(.LANCHOR2)
	.loc 1 231 5 discriminator 1
	bge	s0,s8,.L58
	.loc 1 232 9 is_stmt 1
	li	a1,-1
	call	xQueueSemaphoreTake
.LVL81:
	.loc 1 233 9
	.loc 1 233 12 is_stmt 0
	ble	s0,zero,.L54
	.loc 1 233 19 discriminator 1
	lw	a5,-24(s2)
	beq	a5,zero,.L54
.L58:
	.loc 1 240 5 is_stmt 1
	.loc 1 243 5 is_stmt 0
	lw	a0,0(s4)
	li	a1,-1
	.loc 1 240 21
	addi	s3,s3,-44
	.loc 1 243 5
	call	xQueueSemaphoreTake
.LVL82:
	.loc 1 244 5
	lw	a0,0(s4)
	li	a3,0
	li	a2,0
	li	a1,0
	.loc 1 240 21
	add	s1,s1,s3
.LVL83:
	.loc 1 242 5 is_stmt 1
	.loc 1 243 5
	.loc 1 244 5
	call	xQueueGenericSend
.LVL84:
	.loc 1 245 5
	.loc 1 245 8 is_stmt 0
	bne	s7,zero,.L56
	.loc 1 246 9 is_stmt 1
	lui	a5,%hi(.LANCHOR3)
	lw	a0,%lo(.LANCHOR3)(a5)
	li	a3,0
	li	a2,0
	li	a1,0
	call	xQueueGenericSend
.LVL85:
.L56:
	.loc 1 248 5
	lw	a0,0(s6)
	li	a3,0
	li	a2,0
	li	a1,0
	call	xQueueGenericSend
.LVL86:
	.loc 1 250 5
	.loc 1 251 1 is_stmt 0
	lw	ra,44(sp)
	.cfi_remember_state
	.cfi_restore 1
	lw	s0,40(sp)
	.cfi_restore 8
.LVL87:
	lw	a0,20(s1)
	lw	s2,32(sp)
	.cfi_restore 18
	lw	s1,36(sp)
	.cfi_restore 9
	lw	s3,28(sp)
	.cfi_restore 19
	lw	s4,24(sp)
	.cfi_restore 20
	lw	s5,20(sp)
	.cfi_restore 21
	lw	s6,16(sp)
	.cfi_restore 22
	lw	s7,12(sp)
	.cfi_restore 23
.LVL88:
	lw	s8,8(sp)
	.cfi_restore 24
.LVL89:
	lw	s9,4(sp)
	.cfi_restore 25
	addi	sp,sp,48
	.cfi_def_cfa_offset 0
	jr	ra
.LVL90:
.L54:
	.cfi_restore_state
	.loc 1 237 9 is_stmt 1 discriminator 2
	.loc 1 215 5 discriminator 2
	.loc 1 220 5 discriminator 2
	.loc 1 238 9 discriminator 2
	mv	a0,s2
	li	a1,0
	call	i2c_async_trigger
.LVL91:
	.loc 1 231 27 is_stmt 0 discriminator 2
	addi	s0,s0,1
.LVL92:
	addi	s2,s2,44
	j	.L53
	.cfi_endproc
.LFE35:
	.size	i2c_transfer_msgs_block, .-i2c_transfer_msgs_block
	.section	.text.i2c_insert_transfer_msgs,"ax",@progbits
	.align	1
	.globl	i2c_insert_transfer_msgs
	.type	i2c_insert_transfer_msgs, @function
i2c_insert_transfer_msgs:
.LFB36:
	.loc 1 254 1 is_stmt 1
	.cfi_startproc
.LVL93:
	.loc 1 255 5
	.loc 1 254 1 is_stmt 0
	addi	sp,sp,-32
	.cfi_def_cfa_offset 32
	sw	s1,20(sp)
	.cfi_offset 9, -12
	.loc 1 255 5
	lui	s1,%hi(.LANCHOR3)
	addi	s1,s1,%lo(.LANCHOR3)
	.loc 1 254 1
	sw	s2,16(sp)
	.cfi_offset 18, -16
	mv	s2,a0
	.loc 1 255 5
	lw	a0,0(s1)
.LVL94:
	.loc 1 254 1
	sw	s0,24(sp)
	sw	s3,12(sp)
	.cfi_offset 8, -8
	.cfi_offset 19, -20
	.loc 1 256 5
	lui	s0,%hi(.LANCHOR2)
	.loc 1 254 1
	mv	s3,a1
	.loc 1 255 5
	li	a1,-1
.LVL95:
	.loc 1 254 1
	sw	ra,28(sp)
	.cfi_offset 1, -4
	.loc 1 256 5
	addi	s0,s0,%lo(.LANCHOR2)
	.loc 1 255 5
	call	xQueueSemaphoreTake
.LVL96:
	.loc 1 256 5 is_stmt 1
	lw	a0,0(s0)
	li	a1,-1
	call	xQueueSemaphoreTake
.LVL97:
	.loc 1 257 5
	.loc 1 258 5 is_stmt 0
	mv	a0,s2
	.loc 1 257 21
	sw	s3,36(s2)
	.loc 1 258 5 is_stmt 1
	li	a1,1
	call	i2c_async_trigger
.LVL98:
	.loc 1 259 5
	lw	a0,0(s0)
	li	a1,-1
	call	xQueueSemaphoreTake
.LVL99:
	.loc 1 260 5
	lw	a0,0(s0)
	li	a3,0
	li	a2,0
	li	a1,0
	call	xQueueGenericSend
.LVL100:
	.loc 1 261 5
	lw	a0,0(s1)
	li	a3,0
	li	a2,0
	li	a1,0
	call	xQueueGenericSend
.LVL101:
	.loc 1 263 5
	.loc 1 264 1 is_stmt 0
	lw	ra,28(sp)
	.cfi_restore 1
	lw	s0,24(sp)
	.cfi_restore 8
	lw	s1,20(sp)
	.cfi_restore 9
	lw	s2,16(sp)
	.cfi_restore 18
.LVL102:
	lw	s3,12(sp)
	.cfi_restore 19
.LVL103:
	li	a0,0
	addi	sp,sp,32
	.cfi_def_cfa_offset 0
	jr	ra
	.cfi_endproc
.LFE36:
	.size	i2c_insert_transfer_msgs, .-i2c_insert_transfer_msgs
	.section	.text.i2c_transfer_onemsg_no_block,"ax",@progbits
	.align	1
	.globl	i2c_transfer_onemsg_no_block
	.type	i2c_transfer_onemsg_no_block, @function
i2c_transfer_onemsg_no_block:
.LFB37:
	.loc 1 267 1 is_stmt 1
	.cfi_startproc
.LVL104:
	.loc 1 268 5
	.loc 1 267 1 is_stmt 0
	addi	sp,sp,-16
	.cfi_def_cfa_offset 16
	sw	ra,12(sp)
	.cfi_offset 1, -4
	.loc 1 268 5
	call	i2c_transfer_no_block
.LVL105:
	.loc 1 269 5 is_stmt 1
	.loc 1 270 1 is_stmt 0
	lw	ra,12(sp)
	.cfi_restore 1
	li	a0,0
	addi	sp,sp,16
	.cfi_def_cfa_offset 0
	jr	ra
	.cfi_endproc
.LFE37:
	.size	i2c_transfer_onemsg_no_block, .-i2c_transfer_onemsg_no_block
	.section	.text.hal_i2c_init,"ax",@progbits
	.align	1
	.globl	hal_i2c_init
	.type	hal_i2c_init, @function
hal_i2c_init:
.LFB38:
	.loc 1 273 1 is_stmt 1
	.cfi_startproc
.LVL106:
	.loc 1 274 5
	.loc 1 273 1 is_stmt 0
	addi	sp,sp,-32
	.cfi_def_cfa_offset 32
	sw	ra,28(sp)
	sw	s0,24(sp)
	sw	s1,20(sp)
	.cfi_offset 1, -4
	.cfi_offset 8, -8
	.cfi_offset 9, -12
	mv	s0,a0
	mv	s1,a1
	sw	s2,16(sp)
	sw	s3,12(sp)
	sw	s4,8(sp)
	.cfi_offset 18, -16
	.cfi_offset 19, -20
	.cfi_offset 20, -24
	.loc 1 274 5
	call	i2c_gpio_init
.LVL107:
	.loc 1 275 5 is_stmt 1
	mv	a1,s0
	mv	a0,s1
	call	i2c_set_freq
.LVL108:
	.loc 1 276 5
	andi	s0,s0,0xff
.LVL109:
	mv	a0,s0
	call	I2C_Disable
.LVL110:
	.loc 1 277 5
	li	a0,48
	call	bl_irq_enable
.LVL111:
	.loc 1 278 5
	mv	a0,s0
	li	a2,1
	li	a1,6
	call	I2C_IntMask
.LVL112:
	.loc 1 280 5
	.loc 1 280 21 is_stmt 0
	li	a2,3
	li	a1,0
	li	a0,1
	.loc 1 280 19
	lui	s4,%hi(.LANCHOR0)
	.loc 1 280 21
	call	xQueueGenericCreate
.LVL113:
	.loc 1 280 19
	addi	s4,s4,%lo(.LANCHOR0)
	sw	a0,0(s4)
	.loc 1 281 5 is_stmt 1
	.loc 1 281 21 is_stmt 0
	lui	s2,%hi(.LANCHOR4)
	.loc 1 281 23
	li	a0,1
	call	xQueueCreateMutex
.LVL114:
	.loc 1 281 21
	addi	s2,s2,%lo(.LANCHOR4)
	sw	a0,0(s2)
	.loc 1 282 5 is_stmt 1
	.loc 1 282 27 is_stmt 0
	li	a2,3
	li	a1,0
	li	a0,1
	.loc 1 282 25
	lui	s1,%hi(.LANCHOR1)
.LVL115:
	.loc 1 282 27
	call	xQueueGenericCreate
.LVL116:
	.loc 1 282 25
	addi	s1,s1,%lo(.LANCHOR1)
	sw	a0,0(s1)
	.loc 1 283 5 is_stmt 1
	.loc 1 283 23 is_stmt 0
	li	a2,3
	li	a1,0
	li	a0,1
	.loc 1 283 21
	lui	s0,%hi(.LANCHOR2)
	.loc 1 283 23
	call	xQueueGenericCreate
.LVL117:
	.loc 1 283 21
	addi	s0,s0,%lo(.LANCHOR2)
	sw	a0,0(s0)
	.loc 1 284 5 is_stmt 1
	.loc 1 284 25 is_stmt 0
	li	a2,3
	li	a1,0
	li	a0,1
	call	xQueueGenericCreate
.LVL118:
	.loc 1 284 23
	lui	s3,%hi(.LANCHOR3)
	.loc 1 285 23
	lw	a4,0(s4)
	.loc 1 284 23
	addi	s3,s3,%lo(.LANCHOR3)
	sw	a0,0(s3)
	.loc 1 285 5 is_stmt 1
	.loc 1 287 16 is_stmt 0
	li	a5,-1
	.loc 1 285 8
	beq	a4,zero,.L67
	.loc 1 285 30 discriminator 1
	lw	a3,0(s2)
	.loc 1 287 16 discriminator 1
	li	a5,-1
	.loc 1 285 30 discriminator 1
	beq	a3,zero,.L67
	.loc 1 285 57 discriminator 2
	lw	a3,0(s1)
	beq	a3,zero,.L67
	.loc 1 285 88 discriminator 3
	lw	a3,0(s0)
	beq	a3,zero,.L67
	.loc 1 285 115 discriminator 4
	beq	a0,zero,.L67
	.loc 1 290 5 is_stmt 1
	mv	a0,a4
	li	a3,0
	li	a2,0
	li	a1,0
	call	xQueueGenericSend
.LVL119:
	.loc 1 291 5
	lw	a0,0(s2)
	li	a3,0
	li	a2,0
	li	a1,0
	call	xQueueGenericSend
.LVL120:
	.loc 1 292 5
	lw	a0,0(s1)
	li	a3,0
	li	a2,0
	li	a1,0
	call	xQueueGenericSend
.LVL121:
	.loc 1 293 5
	lw	a0,0(s0)
	li	a3,0
	li	a2,0
	li	a1,0
	call	xQueueGenericSend
.LVL122:
	.loc 1 294 5
	lw	a0,0(s3)
	li	a3,0
	li	a2,0
	li	a1,0
	call	xQueueGenericSend
.LVL123:
	.loc 1 295 5
	lui	a2,%hi(gpstmsg)
	lui	a1,%hi(i2c_interrupt_entry)
	addi	a2,a2,%lo(gpstmsg)
	addi	a1,a1,%lo(i2c_interrupt_entry)
	li	a0,48
	call	bl_irq_register_with_ctx
.LVL124:
	.loc 1 297 5
	.loc 1 297 12 is_stmt 0
	li	a5,0
.L67:
	.loc 1 298 1
	lw	ra,28(sp)
	.cfi_restore 1
	lw	s0,24(sp)
	.cfi_restore 8
	lw	s1,20(sp)
	.cfi_restore 9
	lw	s2,16(sp)
	.cfi_restore 18
	lw	s3,12(sp)
	.cfi_restore 19
	lw	s4,8(sp)
	.cfi_restore 20
	mv	a0,a5
	addi	sp,sp,32
	.cfi_def_cfa_offset 0
	jr	ra
	.cfi_endproc
.LFE38:
	.size	hal_i2c_init, .-hal_i2c_init
	.section	.text.hal_i2c_read_block,"ax",@progbits
	.align	1
	.globl	hal_i2c_read_block
	.type	hal_i2c_read_block, @function
hal_i2c_read_block:
.LFB39:
	.loc 1 301 1 is_stmt 1
	.cfi_startproc
.LVL125:
	.loc 1 302 5
	.loc 1 303 5
	.loc 1 305 5
	.loc 1 301 1 is_stmt 0
	addi	sp,sp,-64
	.cfi_def_cfa_offset 64
	.loc 1 308 16
	li	a5,1
	.loc 1 301 1
	sw	ra,60(sp)
	.cfi_offset 1, -4
	.loc 1 305 14
	sh	a0,4(sp)
	.loc 1 306 5 is_stmt 1
	.loc 1 306 13 is_stmt 0
	sw	a1,20(sp)
	.loc 1 307 5 is_stmt 1
	.loc 1 307 13 is_stmt 0
	sw	a2,16(sp)
	.loc 1 308 5 is_stmt 1
	.loc 1 308 16 is_stmt 0
	sb	a5,6(sp)
	.loc 1 309 5 is_stmt 1
	.loc 1 309 15 is_stmt 0
	sw	zero,32(sp)
	.loc 1 310 5 is_stmt 1
	.loc 1 310 14 is_stmt 0
	sw	zero,28(sp)
	.loc 1 311 5 is_stmt 1
	.loc 1 311 14 is_stmt 0
	sw	zero,44(sp)
	.loc 1 313 5 is_stmt 1
	.loc 1 313 8 is_stmt 0
	ble	a4,zero,.L76
	.loc 1 314 9 is_stmt 1
	.loc 1 314 21 is_stmt 0
	sb	a5,7(sp)
	.loc 1 315 9 is_stmt 1
	.loc 1 315 21 is_stmt 0
	sw	a4,8(sp)
	.loc 1 316 9 is_stmt 1
	.loc 1 316 20 is_stmt 0
	sb	a3,12(sp)
.L77:
	.loc 1 321 5 is_stmt 1
	.loc 1 321 11 is_stmt 0
	addi	a0,sp,4
.LVL126:
	li	a2,0
.LVL127:
	li	a1,1
.LVL128:
	call	i2c_transfer_msgs_block
.LVL129:
	.loc 1 323 5 is_stmt 1
	.loc 1 324 1 is_stmt 0
	lw	ra,60(sp)
	.cfi_remember_state
	.cfi_restore 1
	addi	sp,sp,64
	.cfi_def_cfa_offset 0
	jr	ra
.LVL130:
.L76:
	.cfi_restore_state
	.loc 1 318 9 is_stmt 1
	.loc 1 318 21 is_stmt 0
	sb	zero,7(sp)
	j	.L77
	.cfi_endproc
.LFE39:
	.size	hal_i2c_read_block, .-hal_i2c_read_block
	.section	.text.hal_i2c_write_block,"ax",@progbits
	.align	1
	.globl	hal_i2c_write_block
	.type	hal_i2c_write_block, @function
hal_i2c_write_block:
.LFB40:
	.loc 1 327 1 is_stmt 1
	.cfi_startproc
.LVL131:
	.loc 1 328 5
	.loc 1 329 5
	.loc 1 331 5
	.loc 1 327 1 is_stmt 0
	addi	sp,sp,-64
	.cfi_def_cfa_offset 64
	sw	ra,60(sp)
	.cfi_offset 1, -4
	.loc 1 331 14
	sh	a0,4(sp)
	.loc 1 332 5 is_stmt 1
	.loc 1 332 13 is_stmt 0
	sw	a1,20(sp)
	.loc 1 333 5 is_stmt 1
	.loc 1 333 13 is_stmt 0
	sw	a2,16(sp)
	.loc 1 334 5 is_stmt 1
	.loc 1 334 16 is_stmt 0
	sb	zero,6(sp)
	.loc 1 335 5 is_stmt 1
	.loc 1 335 15 is_stmt 0
	sw	zero,32(sp)
	.loc 1 336 5 is_stmt 1
	.loc 1 336 14 is_stmt 0
	sw	zero,28(sp)
	.loc 1 337 5 is_stmt 1
	.loc 1 337 14 is_stmt 0
	sw	zero,44(sp)
	.loc 1 339 5 is_stmt 1
	.loc 1 339 8 is_stmt 0
	ble	a4,zero,.L80
	.loc 1 340 9 is_stmt 1
	.loc 1 340 21 is_stmt 0
	li	a5,1
	sb	a5,7(sp)
	.loc 1 341 9 is_stmt 1
	.loc 1 341 21 is_stmt 0
	sw	a4,8(sp)
	.loc 1 342 9 is_stmt 1
	.loc 1 342 20 is_stmt 0
	sb	a3,12(sp)
.L81:
	.loc 1 347 5 is_stmt 1
	.loc 1 347 11 is_stmt 0
	addi	a0,sp,4
.LVL132:
	li	a2,0
.LVL133:
	li	a1,1
.LVL134:
	call	i2c_transfer_msgs_block
.LVL135:
	.loc 1 349 5 is_stmt 1
	.loc 1 350 1 is_stmt 0
	lw	ra,60(sp)
	.cfi_remember_state
	.cfi_restore 1
	addi	sp,sp,64
	.cfi_def_cfa_offset 0
	jr	ra
.LVL136:
.L80:
	.cfi_restore_state
	.loc 1 344 9 is_stmt 1
	.loc 1 344 21 is_stmt 0
	sb	zero,7(sp)
	j	.L81
	.cfi_endproc
.LFE40:
	.size	hal_i2c_write_block, .-hal_i2c_write_block
	.section	.text.hal_i2c_write_no_block,"ax",@progbits
	.align	1
	.globl	hal_i2c_write_no_block
	.type	hal_i2c_write_no_block, @function
hal_i2c_write_no_block:
.LFB41:
	.loc 1 353 1 is_stmt 1
	.cfi_startproc
.LVL137:
	.loc 1 354 5
	.loc 1 356 5
	.loc 1 353 1 is_stmt 0
	addi	sp,sp,-64
	.cfi_def_cfa_offset 64
	.loc 1 360 15
	li	a5,1
	.loc 1 353 1
	sw	ra,60(sp)
	.cfi_offset 1, -4
	.loc 1 356 14
	sh	a0,4(sp)
	.loc 1 357 5 is_stmt 1
	.loc 1 357 13 is_stmt 0
	sw	a1,20(sp)
	.loc 1 358 5 is_stmt 1
	.loc 1 358 13 is_stmt 0
	sw	a2,16(sp)
	.loc 1 359 5 is_stmt 1
	.loc 1 359 16 is_stmt 0
	sb	zero,6(sp)
	.loc 1 360 5 is_stmt 1
	.loc 1 360 15 is_stmt 0
	sw	a5,32(sp)
	.loc 1 361 5 is_stmt 1
	.loc 1 361 14 is_stmt 0
	sw	zero,28(sp)
	.loc 1 362 5 is_stmt 1
	.loc 1 362 14 is_stmt 0
	sw	zero,44(sp)
	.loc 1 364 5 is_stmt 1
	.loc 1 364 8 is_stmt 0
	ble	a4,zero,.L84
	.loc 1 365 9 is_stmt 1
	.loc 1 365 21 is_stmt 0
	sb	a5,7(sp)
	.loc 1 366 9 is_stmt 1
	.loc 1 366 21 is_stmt 0
	sw	a4,8(sp)
	.loc 1 367 9 is_stmt 1
	.loc 1 367 20 is_stmt 0
	sb	a3,12(sp)
.L85:
	.loc 1 372 5 is_stmt 1
.LVL138:
.LBB20:
.LBB21:
	.loc 1 268 5
	addi	a0,sp,4
.LVL139:
	call	i2c_transfer_no_block
.LVL140:
	.loc 1 269 5
.LBE21:
.LBE20:
	.loc 1 374 5
	.loc 1 375 1 is_stmt 0
	lw	ra,60(sp)
	.cfi_remember_state
	.cfi_restore 1
	li	a0,0
	addi	sp,sp,64
	.cfi_def_cfa_offset 0
	jr	ra
.LVL141:
.L84:
	.cfi_restore_state
	.loc 1 369 9 is_stmt 1
	.loc 1 369 21 is_stmt 0
	sb	zero,7(sp)
	j	.L85
	.cfi_endproc
.LFE41:
	.size	hal_i2c_write_no_block, .-hal_i2c_write_no_block
	.section	.text.hal_i2c_read_no_block,"ax",@progbits
	.align	1
	.globl	hal_i2c_read_no_block
	.type	hal_i2c_read_no_block, @function
hal_i2c_read_no_block:
.LFB42:
	.loc 1 378 1 is_stmt 1
	.cfi_startproc
.LVL142:
	.loc 1 379 5
	.loc 1 381 5
	.loc 1 378 1 is_stmt 0
	addi	sp,sp,-64
	.cfi_def_cfa_offset 64
	.loc 1 384 16
	li	a5,1
	.loc 1 378 1
	sw	ra,60(sp)
	.cfi_offset 1, -4
	.loc 1 381 14
	sh	a0,4(sp)
	.loc 1 382 5 is_stmt 1
	.loc 1 382 13 is_stmt 0
	sw	a1,20(sp)
	.loc 1 383 5 is_stmt 1
	.loc 1 383 13 is_stmt 0
	sw	a2,16(sp)
	.loc 1 384 5 is_stmt 1
	.loc 1 384 16 is_stmt 0
	sb	a5,6(sp)
	.loc 1 385 5 is_stmt 1
	.loc 1 385 15 is_stmt 0
	sw	a5,32(sp)
	.loc 1 386 5 is_stmt 1
	.loc 1 386 14 is_stmt 0
	sw	zero,28(sp)
	.loc 1 387 5 is_stmt 1
	.loc 1 387 14 is_stmt 0
	sw	zero,44(sp)
	.loc 1 389 5 is_stmt 1
	.loc 1 389 8 is_stmt 0
	ble	a4,zero,.L88
	.loc 1 390 9 is_stmt 1
	.loc 1 390 21 is_stmt 0
	sb	a5,7(sp)
	.loc 1 391 9 is_stmt 1
	.loc 1 391 21 is_stmt 0
	sw	a4,8(sp)
	.loc 1 392 9 is_stmt 1
	.loc 1 392 20 is_stmt 0
	sb	a3,12(sp)
.L89:
	.loc 1 397 5 is_stmt 1
.LVL143:
.LBB22:
.LBB23:
	.loc 1 268 5
	addi	a0,sp,4
.LVL144:
	call	i2c_transfer_no_block
.LVL145:
	.loc 1 269 5
.LBE23:
.LBE22:
	.loc 1 399 5
	.loc 1 400 1 is_stmt 0
	lw	ra,60(sp)
	.cfi_remember_state
	.cfi_restore 1
	li	a0,0
	addi	sp,sp,64
	.cfi_def_cfa_offset 0
	jr	ra
.LVL146:
.L88:
	.cfi_restore_state
	.loc 1 394 9 is_stmt 1
	.loc 1 394 21 is_stmt 0
	sb	zero,7(sp)
	j	.L89
	.cfi_endproc
.LFE42:
	.size	hal_i2c_read_no_block, .-hal_i2c_read_no_block
	.globl	i2c_insert_handle
	.globl	i2c_loop_handle
	.globl	i2c_transfer_handle
	.globl	i2c_msgs_handle
	.globl	i2c_hd_handle
	.comm	gpstmsg,4,4
	.section	.sbss.i2c_hd_handle,"aw",@nobits
	.align	2
	.set	.LANCHOR0,. + 0
	.type	i2c_hd_handle, @object
	.size	i2c_hd_handle, 4
i2c_hd_handle:
	.zero	4
	.section	.sbss.i2c_insert_handle,"aw",@nobits
	.align	2
	.set	.LANCHOR3,. + 0
	.type	i2c_insert_handle, @object
	.size	i2c_insert_handle, 4
i2c_insert_handle:
	.zero	4
	.section	.sbss.i2c_loop_handle,"aw",@nobits
	.align	2
	.set	.LANCHOR2,. + 0
	.type	i2c_loop_handle, @object
	.size	i2c_loop_handle, 4
i2c_loop_handle:
	.zero	4
	.section	.sbss.i2c_msgs_handle,"aw",@nobits
	.align	2
	.set	.LANCHOR4,. + 0
	.type	i2c_msgs_handle, @object
	.size	i2c_msgs_handle, 4
i2c_msgs_handle:
	.zero	4
	.section	.sbss.i2c_transfer_handle,"aw",@nobits
	.align	2
	.set	.LANCHOR1,. + 0
	.type	i2c_transfer_handle, @object
	.size	i2c_transfer_handle, 4
i2c_transfer_handle:
	.zero	4
	.text
.Letext0:
	.file 2 "/b-l/bl_iot_sdk_new/toolchain/riscv/Linux/lib/gcc/riscv64-unknown-elf/8.3.0/include/stdint-gcc.h"
	.file 3 "/b-l/bl_iot_sdk_new/components/bl602/freertos_riscv_ram/portable/GCC/RISC-V/portmacro.h"
	.file 4 "/b-l/bl_iot_sdk_new/components/bl602/freertos_riscv_ram/config/task.h"
	.file 5 "/b-l/bl_iot_sdk_new/components/bl602/freertos_riscv_ram/config/queue.h"
	.file 6 "/b-l/bl_iot_sdk_new/components/bl602/freertos_riscv_ram/config/semphr.h"
	.file 7 "/b-l/bl_iot_sdk_new/components/utils/include/utils_list.h"
	.file 8 "/b-l/bl_iot_sdk_new/components/sys/bloop/bloop/include/bloop.h"
	.file 9 "/b-l/bl_iot_sdk_new/components/hal_drv/bl602_hal/bl_i2c.h"
	.file 10 "/b-l/bl_iot_sdk_new/components/bl602/bl602_std/bl602_std/RISCV/Device/Bouffalo/BL602/Startup/system_bl602.h"
	.file 11 "/b-l/bl_iot_sdk_new/toolchain/riscv/Linux/lib/gcc/riscv64-unknown-elf/8.3.0/include/stddef.h"
	.file 12 "/b-l/bl_iot_sdk_new/toolchain/riscv/Linux/riscv64-unknown-elf/include/sys/_types.h"
	.file 13 "/b-l/bl_iot_sdk_new/toolchain/riscv/Linux/riscv64-unknown-elf/include/sys/reent.h"
	.file 14 "/b-l/bl_iot_sdk_new/toolchain/riscv/Linux/riscv64-unknown-elf/include/sys/lock.h"
	.file 15 "/b-l/bl_iot_sdk_new/components/bl602/bl602_std/bl602_std/Device/Bouffalo/BL602/Peripherals/bl602.h"
	.file 16 "/b-l/bl_iot_sdk_new/components/bl602/bl602_std/bl602_std/StdDriver/Inc/bl602_common.h"
	.file 17 "/b-l/bl_iot_sdk_new/components/bl602/bl602_std/bl602_std/StdDriver/Inc/bl602_i2c.h"
	.file 18 "/b-l/bl_iot_sdk_new/components/hal_drv/bl602_hal/bl_irq.h"
	.file 19 "/b-l/bl_iot_sdk_new/components/sys/bloop/loopset/include/loopset_i2c.h"
	.file 20 "/b-l/bl_iot_sdk_new/components/bl602/bl602_std/bl602_std/Common/platform_print/bflb_platform.h"
	.file 21 "/b-l/bl_iot_sdk_new/toolchain/riscv/Linux/riscv64-unknown-elf/include/string.h"