	.file	"hal_board.c"
	.option nopic
	.attribute arch, "rv32i2p0_m2p0_f2p0_c2p0"
	.attribute unaligned_access, 0
	.attribute stack_align, 16
	.text
.Ltext0:
	.cfi_sections	.debug_frame
	.section	.text.fdt32_to_cpu,"ax",@progbits
	.align	1
	.type	fdt32_to_cpu, @function
fdt32_to_cpu:
.LFB6:
	.file 1 "/b-l/bl_iot_sdk_new/components/stage/blfdt/inc/libfdt_env.h"
	.loc 1 121 1
	.cfi_startproc
.LVL0:
	.loc 1 122 5
	.loc 1 122 212 is_stmt 0
	srli	a4,a0,24
	.loc 1 122 12
	slli	a5,a0,24
	or	a5,a5,a4
	.loc 1 122 112
	srli	a4,a0,8
	andi	a4,a4,0xff
	.loc 1 122 163
	srli	a0,a0,16
.LVL1:
	.loc 1 122 117
	slli	a4,a4,16
	.loc 1 122 163
	andi	a0,a0,0xff
	.loc 1 122 12
	or	a5,a5,a4
	.loc 1 122 168
	slli	a0,a0,8
	.loc 1 123 1
	or	a0,a5,a0
	ret
	.cfi_endproc
.LFE6:
	.size	fdt32_to_cpu, .-fdt32_to_cpu
	.section	.text.hal_board_get_factory_addr,"ax",@progbits
	.align	1
	.globl	hal_board_get_factory_addr
	.type	hal_board_get_factory_addr, @function
hal_board_get_factory_addr:
.LFB55:
	.file 2 "/b-l/bl_iot_sdk_new/components/hal_drv/bl602_hal/hal_board.c"
	.loc 2 872 1 is_stmt 1
	.cfi_startproc
	.loc 2 873 5
	.loc 2 874 1 is_stmt 0
	lui	a5,%hi(.LANCHOR0)
	lw	a0,%lo(.LANCHOR0)(a5)
	ret
	.cfi_endproc
.LFE55:
	.size	hal_board_get_factory_addr, .-hal_board_get_factory_addr
	.section	.text.hal_board_cfg,"ax",@progbits
	.align	1
	.globl	hal_board_cfg
	.type	hal_board_cfg, @function
hal_board_cfg:
.LFB56:
	.loc 2 877 1 is_stmt 1
	.cfi_startproc
.LVL2:
	.loc 2 881 5
	.loc 2 882 5
	.loc 2 884 5
	.loc 2 885 5
	.loc 2 877 1 is_stmt 0
	addi	sp,sp,-224
	.cfi_def_cfa_offset 224
	sw	s0,216(sp)
	sw	s2,208(sp)
	.cfi_offset 8, -8
	.cfi_offset 18, -16
	.loc 2 885 11
	lui	s0,%hi(.LANCHOR0)
	lui	s2,%hi(.LC0)
	addi	a2,sp,32
	addi	a1,s0,%lo(.LANCHOR0)
	addi	a0,s2,%lo(.LC0)
.LVL3:
	.loc 2 877 1
	sw	s1,212(sp)
	sw	ra,220(sp)
	sw	s3,204(sp)
	sw	s4,200(sp)
	sw	s5,196(sp)
	sw	s6,192(sp)
	sw	s7,188(sp)
	sw	s8,184(sp)
	sw	s9,180(sp)
	sw	s10,176(sp)
	sw	s11,172(sp)
	.cfi_offset 9, -12
	.cfi_offset 1, -4
	.cfi_offset 19, -20
	.cfi_offset 20, -24
	.cfi_offset 21, -28
	.cfi_offset 22, -32
	.cfi_offset 23, -36
	.cfi_offset 24, -40
	.cfi_offset 25, -44
	.cfi_offset 26, -48
	.cfi_offset 27, -52
	.loc 2 885 11
	addi	s1,s0,%lo(.LANCHOR0)
	call	hal_boot2_partition_addr_active
.LVL4:
	.loc 2 886 5 is_stmt 1
	.loc 2 887 5
	.loc 2 887 8 is_stmt 0
	lw	a5,0(s1)
	bne	a5,zero,.L4
.L5:
	.loc 2 888 9 is_stmt 1 discriminator 1
	.loc 2 889 9 discriminator 1
	.loc 2 890 9 discriminator 1
	j	.L5
.L4:
	.loc 2 893 5
	.loc 2 893 11 is_stmt 0
	addi	a1,s0,%lo(.LANCHOR0)
	addi	a2,sp,32
	addi	a0,s2,%lo(.LC0)
	call	hal_boot2_partition_bus_addr_active
.LVL5:
	.loc 2 894 5 is_stmt 1
	.loc 2 895 5
	.loc 2 895 11 is_stmt 0
	lw	s0,0(s1)
	.loc 2 895 8
	bne	s0,zero,.L6
.L7:
	.loc 2 896 9 is_stmt 1 discriminator 2
	.loc 2 897 9 discriminator 2
	.loc 2 898 9 discriminator 2
	j	.L7
.L6:
	.loc 2 903 5
.LVL6:
.LBB57:
.LBB58:
	.loc 2 567 5
	.loc 2 569 5
	.loc 2 570 5
	.loc 2 571 5
	.loc 2 573 5
	.loc 2 576 19 is_stmt 0
	lui	a2,%hi(.LC1)
	addi	a2,a2,%lo(.LC1)
	li	a1,0
	mv	a0,s0
	.loc 2 573 9
	sw	zero,36(sp)
	.loc 2 574 5 is_stmt 1
	.loc 2 576 5
	.loc 2 581 15 is_stmt 0
	lui	s4,%hi(.LC2)
	.loc 2 576 19
	call	fdt_subnode_offset
.LVL7:
	.loc 2 581 15
	mv	a1,a0
	.loc 2 576 19
	mv	s3,a0
.LVL8:
	.loc 2 577 5 is_stmt 1
	.loc 2 578 8
	.loc 2 581 5
	.loc 2 581 15 is_stmt 0
	addi	a2,s4,%lo(.LC2)
	mv	a0,s0
.LVL9:
	call	fdt_subnode_offset
.LVL10:
	mv	s1,a0
.LVL11:
	.loc 2 582 5 is_stmt 1
	.loc 2 582 8 is_stmt 0
	ble	a0,zero,.L8
.LBB59:
	.loc 2 583 9 is_stmt 1
	.loc 2 584 9
	.loc 2 585 9
.LVL12:
	.loc 2 587 9
	.loc 2 588 9
	.loc 2 589 9
	.loc 2 592 9
.LBB60:
.LBB61:
	.loc 2 314 5
	.loc 2 318 18 is_stmt 0
	lui	s2,%hi(.LC3)
	mv	a1,a0
	addi	a2,s2,%lo(.LC3)
	mv	a0,s0
	.loc 2 314 9
	sw	zero,64(sp)
	.loc 2 315 5 is_stmt 1
	.loc 2 316 5
.LVL13:
	.loc 2 318 5
	.loc 2 318 18 is_stmt 0
	call	fdt_stringlist_count
.LVL14:
	.loc 2 319 5 is_stmt 1
	.loc 2 319 8 is_stmt 0
	li	a5,1
	bne	a0,a5,.L10
	.loc 2 320 9 is_stmt 1
	.loc 2 320 18 is_stmt 0
	addi	a2,s2,%lo(.LC3)
	mv	a1,s1
	addi	a4,sp,64
	li	a3,0
	mv	a0,s0
.LVL15:
	call	fdt_stringlist_get
.LVL16:
	.loc 2 322 20
	lw	a2,64(sp)
	.loc 2 322 12
	li	a5,2
	.loc 2 320 18
	mv	a1,a0
.LVL17:
	.loc 2 321 9 is_stmt 1
	.loc 2 322 9
	.loc 2 322 12 is_stmt 0
	bgt	a2,a5,.L10
	.loc 2 323 13 is_stmt 1
	addi	a0,sp,48
.LVL18:
	call	memcpy
.LVL19:
	.loc 2 324 13
.LBB62:
.LBB63:
	.loc 2 269 11 is_stmt 0
	addi	a0,sp,48
.LBE63:
.LBE62:
	.loc 2 324 46
	sb	zero,50(sp)
	.loc 2 325 13 is_stmt 1
	.loc 2 326 13
.LVL20:
.LBB74:
.LBB72:
	.loc 2 265 5
	.loc 2 266 5
	.loc 2 268 5
	.loc 2 269 5
	.loc 2 269 11 is_stmt 0
	call	strlen
.LVL21:
	mv	s6,a0
.LVL22:
	.loc 2 270 5 is_stmt 1
	.loc 2 270 12 is_stmt 0
	li	s2,0
	.loc 2 271 9
	li	s7,70
.LBB64:
.LBB65:
	.loc 2 239 17
	lui	s8,%hi(.LC4)
	.loc 2 241 8
	li	s9,20
.LBE65:
.LBE64:
	.loc 2 271 9
	li	s10,77
	.loc 2 270 5
	li	s11,2
.LVL23:
.L12:
	.loc 2 270 25
	ble	s6,s2,.L24
	.loc 2 271 9 is_stmt 1
	.loc 2 271 22 is_stmt 0
	addi	a5,sp,48
.LVL24:
	add	a5,a5,s2
.LVL25:
	lbu	a5,0(a5)
	.loc 2 271 9
	beq	a5,s7,.L13
	beq	a5,s10,.L14
	.loc 2 296 17 is_stmt 1
	.loc 2 296 22
	.loc 2 296 34
	.loc 2 296 39
	.loc 2 296 41
.LBB67:
.LBB68:
	.file 3 "/b-l/bl_iot_sdk_new/components/bl602/freertos_riscv_ram/portable/GCC/RISC-V/portmacro.h"
	.loc 3 151 5
	.loc 3 151 31 is_stmt 0
	lui	a5,%hi(TrapNetCounter)
.LBE68:
.LBE67:
	.loc 2 296 41
	lw	a5,%lo(TrapNetCounter)(a5)
	beq	a5,zero,.L20
	.loc 2 296 122
	call	xTaskGetTickCountFromISR
.LVL26:
.L21:
	.loc 2 296 41
	lui	a3,%hi(.LC5)
	lui	a2,%hi(.LC6)
	mv	a1,a0
	lui	a0,%hi(.LC7)
	addi	a5,a3,%lo(.LC5)
	li	a6,296
	li	a4,296
	addi	a3,a3,%lo(.LC5)
	addi	a2,a2,%lo(.LC6)
	addi	a0,a0,%lo(.LC7)
	call	bl_printk
.LVL27:
.L22:
	.loc 2 296 239 is_stmt 1
	.loc 2 296 256
	.loc 2 296 268
	j	.L22
.L13:
	.loc 2 274 17
.LVL28:
.LBB69:
.LBB66:
	.loc 2 236 5
	.loc 2 237 5
	.loc 2 239 17 is_stmt 0
	addi	a3,sp,96
	addi	a2,s8,%lo(.LC4)
	mv	a1,s1
	mv	a0,s0
	.loc 2 237 9
	sw	zero,96(sp)
	.loc 2 239 5 is_stmt 1
	.loc 2 239 17 is_stmt 0
	call	fdt_getprop
.LVL29:
	.loc 2 241 8
	lw	a5,96(sp)
	.loc 2 239 17
	mv	s5,a0
.LVL30:
	.loc 2 241 5 is_stmt 1
	.loc 2 241 8 is_stmt 0
	bne	a5,s9,.L17
	.loc 2 249 10 is_stmt 1
	.loc 2 250 9
	.loc 2 250 32 is_stmt 0
	lw	a0,0(a0)
.LVL31:
	call	fdt32_to_cpu
.LVL32:
	andi	s2,a0,0xff
.LVL33:
	.loc 2 251 9 is_stmt 1
	.loc 2 251 32 is_stmt 0
	lw	a0,4(s5)
	call	fdt32_to_cpu
.LVL34:
	andi	a1,a0,0xff
.LVL35:
	.loc 2 252 9 is_stmt 1
	.loc 2 253 9
	.loc 2 254 9
	.loc 2 259 5
.L18:
.LBE66:
.LBE69:
	.loc 2 309 5
	mv	a0,s2
	call	hal_sys_capcode_update
.LVL36:
.L10:
.LBE72:
.LBE74:
.LBE61:
.LBE60:
	.loc 2 595 9
	.loc 2 595 21 is_stmt 0
	lui	a2,%hi(.LC8)
	addi	a3,sp,36
	addi	a2,a2,%lo(.LC8)
	mv	a1,s1
	mv	a0,s0
	call	fdt_getprop
.LVL37:
	.loc 2 596 9 is_stmt 1
	.loc 2 603 13
	.loc 2 606 9
	.loc 2 606 21 is_stmt 0
	lui	a2,%hi(.LC9)
	addi	a3,sp,36
	addi	a2,a2,%lo(.LC9)
	mv	a1,s1
	mv	a0,s0
	call	fdt_getprop
.LVL38:
	.loc 2 607 9 is_stmt 1
	.loc 2 614 13
	.loc 2 617 9
	.loc 2 617 21 is_stmt 0
	lui	a2,%hi(.LC10)
	addi	a3,sp,36
	addi	a2,a2,%lo(.LC10)
	mv	a1,s1
	mv	a0,s0
	call	fdt_getprop
.LVL39:
	.loc 2 618 9 is_stmt 1
	.loc 2 622 13
.L8:
.LBE59:
	.loc 2 629 5
	.loc 2 629 15 is_stmt 0
	lui	a2,%hi(.LC11)
	addi	a2,a2,%lo(.LC11)
	mv	a1,s3
	mv	a0,s0
	call	fdt_subnode_offset
.LVL40:
	mv	s2,a0
.LVL41:
	.loc 2 630 5 is_stmt 1
	.loc 2 630 8 is_stmt 0
	ble	a0,zero,.L25
	.loc 2 631 9 is_stmt 1
.LVL42:
.LBB78:
.LBB79:
	.loc 2 199 5
	.loc 2 203 18 is_stmt 0
	lui	s1,%hi(.LC12)
	mv	a1,a0
	addi	a2,s1,%lo(.LC12)
	mv	a0,s0
.LVL43:
	.loc 2 199 25
	sw	zero,44(sp)
	.loc 2 200 5 is_stmt 1
.LVL44:
	.loc 2 201 5
	.loc 2 203 5
	.loc 2 203 18 is_stmt 0
	call	fdt_stringlist_count
.LVL45:
	.loc 2 204 5 is_stmt 1
	.loc 2 204 8 is_stmt 0
	li	a5,1
	bne	a0,a5,.L25
	.loc 2 205 9 is_stmt 1
	.loc 2 205 18 is_stmt 0
	addi	a2,s1,%lo(.LC12)
	mv	a1,s2
	addi	a4,sp,44
	li	a3,0
	mv	a0,s0
.LVL46:
	call	fdt_stringlist_get
.LVL47:
	.loc 2 207 20
	lw	a2,44(sp)
	.loc 2 207 12
	li	a5,3
	.loc 2 205 18
	mv	a1,a0
.LVL48:
	.loc 2 206 9 is_stmt 1
	.loc 2 207 9
	.loc 2 207 12 is_stmt 0
	bgt	a2,a5,.L25
	.loc 2 208 13 is_stmt 1
	addi	a0,sp,48
.LVL49:
	call	memcpy
.LVL50:
	.loc 2 209 13
.LBB80:
.LBB81:
	.loc 2 137 11 is_stmt 0
	addi	a0,sp,48
.LBE81:
.LBE80:
	.loc 2 209 25
	sb	zero,51(sp)
	.loc 2 210 13 is_stmt 1
	.loc 2 211 13
.LVL51:
.LBB99:
.LBB96:
	.loc 2 132 5
	.loc 2 133 5
	.loc 2 134 5
	.loc 2 136 5
	.loc 2 137 5
	.loc 2 137 11 is_stmt 0
	call	strlen
.LVL52:
	mv	s7,a0
.LVL53:
	.loc 2 138 5 is_stmt 1
	.loc 2 138 12 is_stmt 0
	li	s1,0
	.loc 2 139 9
	li	s8,70
.LBB82:
.LBB83:
	.loc 2 62 17
	lui	s9,%hi(.LC13)
	.loc 2 63 8
	li	s5,6
	.loc 2 75 17
	lui	s10,%hi(.LC14)
.LBE83:
.LBE82:
	.loc 2 139 9
	li	s11,77
.LBB85:
.LBB86:
	.loc 2 115 24
	li	s6,1
.LVL54:
.L29:
.LBE86:
.LBE85:
	.loc 2 138 25
	ble	s7,s1,.L42
	.loc 2 139 9 is_stmt 1
	.loc 2 139 22 is_stmt 0
	addi	a5,sp,48
.LVL55:
	add	a5,a5,s1
.LVL56:
	lbu	a5,0(a5)
	.loc 2 139 9
	beq	a5,s8,.L30
	beq	a5,s11,.L31
	li	a4,66
	bne	a5,a4,.L32
	.loc 2 142 17 is_stmt 1
.LVL57:
.LBB89:
.LBB90:
	.loc 2 93 5
	.loc 2 95 5
	addi	a0,sp,96
.LVL58:
	call	bl_efuse_read_mac
.LVL59:
	.loc 2 96 5
.L119:
.LBE90:
.LBE89:
.LBB91:
.LBB87:
	.loc 2 113 5
	.loc 2 113 25 is_stmt 0
	lbu	a0,96(sp)
	.loc 2 113 39
	lbu	a6,97(sp)
	.loc 2 113 53
	lbu	a1,98(sp)
	.loc 2 113 67
	lbu	a2,99(sp)
	.loc 2 113 81
	lbu	a3,100(sp)
	.loc 2 114 16
	and	a5,a0,a6
	.loc 2 113 15
	or	a0,a0,a6
	.loc 2 113 95
	lbu	a4,101(sp)
.LVL60:
	.loc 2 114 5 is_stmt 1
	.loc 2 114 16 is_stmt 0
	and	a5,a1,a5
	.loc 2 113 15
	or	a1,a1,a0
	.loc 2 114 16
	and	a5,a2,a5
	.loc 2 113 15
	or	a2,a2,a1
	.loc 2 114 16
	and	a5,a3,a5
	.loc 2 113 15
	or	a3,a3,a2
	.loc 2 114 16
	and	a5,a4,a5
.LVL61:
	.loc 2 115 5 is_stmt 1
	.loc 2 115 8 is_stmt 0
	or	a4,a4,a3
	beq	a4,zero,.L36
	.loc 2 115 24
	bne	a5,s6,.L34
	j	.L36
.LVL62:
.L14:
.LBE87:
.LBE91:
.LBE96:
.LBE99:
.LBE79:
.LBE78:
.LBB104:
.LBB77:
.LBB76:
.LBB75:
.LBB73:
	.loc 2 285 17 is_stmt 1
.LBB70:
.LBB71:
	.loc 2 219 5
	.loc 2 221 9 is_stmt 0
	addi	a0,sp,96
	.loc 2 219 13
	sb	zero,96(sp)
	.loc 2 221 5 is_stmt 1
	.loc 2 221 9 is_stmt 0
	call	bl_efuse_read_capcode
.LVL63:
	.loc 2 221 8
	bne	a0,zero,.L17
	.loc 2 225 5 is_stmt 1
	.loc 2 225 16 is_stmt 0
	lbu	s2,96(sp)
.LVL64:
	.loc 2 226 5 is_stmt 1
	.loc 2 227 5
	.loc 2 228 5
	.loc 2 229 5
	.loc 2 231 5
	.loc 2 226 16 is_stmt 0
	mv	a1,s2
	j	.L18
.LVL65:
.L20:
.LBE71:
.LBE70:
	.loc 2 296 151
	call	xTaskGetTickCount
.LVL66:
	j	.L21
.L17:
	.loc 2 270 38
	addi	s2,s2,1
.LVL67:
	.loc 2 270 5
	bne	s2,s11,.L12
.L24:
	.loc 2 304 20
	li	a1,50
	.loc 2 303 20
	li	s2,50
.LVL68:
	j	.L18
.LVL69:
.L30:
.LBE73:
.LBE75:
.LBE76:
.LBE77:
.LBE104:
.LBB105:
.LBB102:
.LBB100:
.LBB97:
	.loc 2 153 17 is_stmt 1
.LBB92:
.LBB84:
	.loc 2 58 5
	.loc 2 59 5
	.loc 2 62 5
	.loc 2 62 17 is_stmt 0
	mv	a1,s2
	addi	a3,sp,64
	addi	a2,s9,%lo(.LC13)
	mv	a0,s0
	call	fdt_getprop
.LVL70:
	.loc 2 63 8
	lw	a5,64(sp)
	.loc 2 62 17
	mv	a1,a0
.LVL71:
	.loc 2 63 5 is_stmt 1
	.loc 2 63 8 is_stmt 0
	bne	a5,s5,.L36
	.loc 2 65 9 is_stmt 1
	li	a2,6
	addi	a0,sp,96
.LVL72:
	call	memcpy
.LVL73:
	.loc 2 69 9
	addi	a0,sp,96
.LVL74:
	call	bl_wifi_sta_mac_addr_set
.LVL75:
	.loc 2 75 5
	.loc 2 75 17 is_stmt 0
	mv	a1,s2
	addi	a3,sp,64
	addi	a2,s10,%lo(.LC14)
	mv	a0,s0
	call	fdt_getprop
.LVL76:
	.loc 2 76 8
	lw	a5,64(sp)
	.loc 2 75 17
	mv	a1,a0
.LVL77:
	.loc 2 76 5 is_stmt 1
	.loc 2 76 8 is_stmt 0
	bne	a5,s5,.L36
	.loc 2 78 9 is_stmt 1
	li	a2,6
	addi	a0,sp,96
.LVL78:
	call	memcpy
.LVL79:
	.loc 2 82 9
	addi	a0,sp,96
.LVL80:
	call	bl_wifi_ap_mac_addr_set
.LVL81:
	.loc 2 88 5
.L34:
.LBE84:
.LBE92:
	.loc 2 192 6
	.loc 2 193 5
	addi	a0,sp,96
	call	bl_wifi_ap_mac_addr_set
.LVL82:
	.loc 2 194 5
	addi	a0,sp,96
	call	bl_wifi_sta_mac_addr_set
.LVL83:
.L25:
.LBE97:
.LBE100:
.LBE102:
.LBE105:
	.loc 2 634 5
	.loc 2 634 15 is_stmt 0
	lui	a2,%hi(.LC15)
	mv	a1,s3
	addi	a2,a2,%lo(.LC15)
	mv	a0,s0
	call	fdt_subnode_offset
.LVL84:
	mv	a1,a0
.LVL85:
	.loc 2 635 5 is_stmt 1
	.loc 2 635 8 is_stmt 0
	ble	a0,zero,.L44
	.loc 2 637 9 is_stmt 1
	.loc 2 637 21 is_stmt 0
	lui	a2,%hi(.LC16)
	addi	a3,sp,36
	addi	a2,a2,%lo(.LC16)
	mv	a0,s0
.LVL86:
	call	fdt_getprop
.LVL87:
	.loc 2 638 9 is_stmt 1
	.loc 2 638 12 is_stmt 0
	lw	a4,36(sp)
	li	a5,4
	bne	a4,a5,.L44
	.loc 2 639 13 is_stmt 1
	.loc 2 641 13
	.loc 2 641 48 is_stmt 0
	lw	a0,0(a0)
.LVL88:
	call	fdt32_to_cpu
.LVL89:
	.loc 2 641 13
	andi	a0,a0,0xff
	call	bl_wifi_country_code_set
.LVL90:
.L44:
	.loc 2 643 13 is_stmt 1
	.loc 2 647 5
	.loc 2 647 15 is_stmt 0
	addi	a2,s4,%lo(.LC2)
	mv	a1,s3
	mv	a0,s0
	call	fdt_subnode_offset
.LVL91:
	mv	s2,a0
.LVL92:
	.loc 2 648 5 is_stmt 1
	.loc 2 648 8 is_stmt 0
	ble	a0,zero,.L46
.LBB106:
	.loc 2 651 9 is_stmt 1
	.loc 2 653 9
	.loc 2 654 9
	.loc 2 654 21 is_stmt 0
	lui	a2,%hi(.LC17)
	mv	a1,a0
	addi	a3,sp,36
	addi	a2,a2,%lo(.LC17)
	mv	a0,s0
.LVL93:
	call	fdt_getprop
.LVL94:
	.loc 2 655 12
	lw	a4,36(sp)
	li	a5,16
	.loc 2 654 21
	mv	s6,a0
.LVL95:
	.loc 2 655 9 is_stmt 1
	.loc 2 655 12 is_stmt 0
	bne	a4,a5,.L47
	.loc 2 656 20
	li	s1,0
	.loc 2 656 13
	li	s5,4
.LVL96:
.L48:
	.loc 2 657 17 is_stmt 1
	.loc 2 657 43 is_stmt 0
	slli	a5,s1,2
	add	a5,s6,a5
	lw	a0,0(a5)
	call	fdt32_to_cpu
.LVL97:
	.loc 2 657 30
	addi	a5,sp,96
	add	a5,a5,s1
	sb	a0,0(a5)
	.loc 2 656 33
	addi	s1,s1,1
.LVL98:
	.loc 2 656 13
	bne	s1,s5,.L48
	.loc 2 664 14 is_stmt 1
	.loc 2 665 13
	addi	a0,sp,96
	call	bl_tpc_update_power_rate_11b
.LVL99:
.L47:
	.loc 2 667 13
	.loc 2 670 9
	.loc 2 670 21 is_stmt 0
	lui	a2,%hi(.LC18)
	addi	a3,sp,36
	addi	a2,a2,%lo(.LC18)
	mv	a1,s2
	mv	a0,s0
	call	fdt_getprop
.LVL100:
	.loc 2 671 12
	lw	a4,36(sp)
	li	a5,32
	.loc 2 670 21
	mv	s6,a0
.LVL101:
	.loc 2 671 9 is_stmt 1
	.loc 2 671 12 is_stmt 0
	bne	a4,a5,.L49
	.loc 2 672 20
	li	s1,0
	.loc 2 672 13
	li	s5,8
.LVL102:
.L50:
	.loc 2 673 17 is_stmt 1
	.loc 2 673 43 is_stmt 0
	slli	a5,s1,2
	add	a5,s6,a5
	lw	a0,0(a5)
	call	fdt32_to_cpu
.LVL103:
	.loc 2 673 30
	addi	a5,sp,96
	add	a5,a5,s1
	sb	a0,0(a5)
	.loc 2 672 33
	addi	s1,s1,1
.LVL104:
	.loc 2 672 13
	bne	s1,s5,.L50
	.loc 2 684 14 is_stmt 1
	.loc 2 685 13
	addi	a0,sp,96
	call	bl_tpc_update_power_rate_11g
.LVL105:
.L49:
	.loc 2 687 13
	.loc 2 690 9
	.loc 2 690 21 is_stmt 0
	lui	a2,%hi(.LC19)
	addi	a3,sp,36
	addi	a2,a2,%lo(.LC19)
	mv	a1,s2
	mv	a0,s0
	call	fdt_getprop
.LVL106:
	.loc 2 691 12
	lw	a4,36(sp)
	li	a5,32
	.loc 2 690 21
	mv	s6,a0
.LVL107:
	.loc 2 691 9 is_stmt 1
	.loc 2 691 12 is_stmt 0
	bne	a4,a5,.L51
	.loc 2 692 20
	li	s1,0
	.loc 2 692 13
	li	s5,8
.LVL108:
.L52:
	.loc 2 693 17 is_stmt 1
	.loc 2 693 43 is_stmt 0
	slli	a5,s1,2
	add	a5,s6,a5
	lw	a0,0(a5)
	call	fdt32_to_cpu
.LVL109:
	.loc 2 693 30
	addi	a5,sp,96
	add	a5,a5,s1
	sb	a0,0(a5)
	.loc 2 692 33
	addi	s1,s1,1
.LVL110:
	.loc 2 692 13
	bne	s1,s5,.L52
	.loc 2 704 14 is_stmt 1
	.loc 2 705 13
	addi	a0,sp,96
	call	bl_tpc_update_power_rate_11n
.LVL111:
.L51:
	.loc 2 707 13
	.loc 2 709 9
.LBB107:
.LBB108:
	.loc 2 442 5
	.loc 2 446 18 is_stmt 0
	lui	s1,%hi(.LC20)
	addi	a2,s1,%lo(.LC20)
	mv	a1,s2
	mv	a0,s0
	.loc 2 442 9
	sw	zero,40(sp)
	.loc 2 443 5 is_stmt 1
	.loc 2 444 5
.LVL112:
	.loc 2 446 5
	.loc 2 446 18 is_stmt 0
	call	fdt_stringlist_count
.LVL113:
	.loc 2 447 5 is_stmt 1
	.loc 2 447 8 is_stmt 0
	li	a5,1
	bne	a0,a5,.L46
	.loc 2 448 9 is_stmt 1
	.loc 2 448 18 is_stmt 0
	addi	a2,s1,%lo(.LC20)
	mv	a1,s2
	addi	a4,sp,40
	li	a3,0
	mv	a0,s0
.LVL114:
	call	fdt_stringlist_get
.LVL115:
	.loc 2 450 20
	lw	a2,40(sp)
	.loc 2 450 12
	li	a5,2
	.loc 2 448 18
	mv	a1,a0
.LVL116:
	.loc 2 449 9 is_stmt 1
	.loc 2 450 9
	.loc 2 450 12 is_stmt 0
	bgt	a2,a5,.L46
	.loc 2 451 13 is_stmt 1
	addi	a0,sp,28
.LVL117:
	call	memcpy
.LVL118:
	.loc 2 452 13
.LBB109:
.LBB110:
	.loc 2 362 5 is_stmt 0
	li	a2,14
	li	a1,0
	addi	a0,sp,48
.LBE110:
.LBE109:
	.loc 2 452 44
	sb	zero,30(sp)
	.loc 2 453 13 is_stmt 1
	.loc 2 454 13
.LVL119:
.LBB118:
.LBB115:
	.loc 2 359 5
	.loc 2 360 5
	.loc 2 362 5
	call	memset
.LVL120:
	.loc 2 363 5
	li	a2,14
	li	a1,0
	addi	a0,sp,64
	call	memset
.LVL121:
	.loc 2 364 5
	.loc 2 365 5
	.loc 2 365 11 is_stmt 0
	addi	a0,sp,28
.LVL122:
	call	strlen
.LVL123:
	mv	s8,a0
.LVL124:
	.loc 2 366 5 is_stmt 1
	addi	s1,sp,28
.LVL125:
	.loc 2 366 12 is_stmt 0
	li	s5,0
	.loc 2 367 9
	li	s6,70
.LVL126:
	.loc 2 374 21
	lui	s9,%hi(.LC5)
	.loc 2 375 24
	li	s7,66
	.loc 2 367 9
	li	s10,98
	li	s11,102
.LVL127:
.L56:
	.loc 2 366 25
	ble	s8,s5,.L70
	.loc 2 367 9 is_stmt 1
	.loc 2 367 22 is_stmt 0
	lbu	a5,0(s1)
	.loc 2 367 9
	beq	a5,s6,.L57
	bgtu	a5,s6,.L58
	beq	a5,s7,.L59
.L60:
	.loc 2 422 17 is_stmt 1
	.loc 2 422 22
	.loc 2 422 34
	.loc 2 422 39
	.loc 2 422 41
.LBB111:
.LBB112:
	.loc 3 151 5
	.loc 3 151 31 is_stmt 0
	lui	a5,%hi(TrapNetCounter)
.LBE112:
.LBE111:
	.loc 2 422 41
	lw	a5,%lo(TrapNetCounter)(a5)
	beq	a5,zero,.L72
	.loc 2 422 122
	call	xTaskGetTickCountFromISR
.LVL128:
.L73:
	.loc 2 422 41
	lui	a3,%hi(.LC5)
	lui	a2,%hi(.LC6)
	mv	a1,a0
	lui	a0,%hi(.LC7)
	addi	a5,a3,%lo(.LC5)
	li	a6,422
	li	a4,422
	addi	a3,a3,%lo(.LC5)
	addi	a2,a2,%lo(.LC6)
	addi	a0,a0,%lo(.LC7)
	call	bl_printk
.LVL129:
.L74:
	.loc 2 422 239 is_stmt 1
	.loc 2 422 256
	.loc 2 422 268
	j	.L74
.LVL130:
.L31:
.LBE115:
.LBE118:
.LBE108:
.LBE107:
.LBE106:
.LBB125:
.LBB103:
.LBB101:
.LBB98:
	.loc 2 164 17
.LBB93:
.LBB88:
	.loc 2 108 5
	.loc 2 110 5
	.loc 2 110 9 is_stmt 0
	addi	a0,sp,96
.LVL131:
	call	bl_efuse_read_mac_factory
.LVL132:
	.loc 2 110 8
	beq	a0,zero,.L119
.LVL133:
.L36:
.LBE88:
.LBE93:
	.loc 2 138 38
	addi	s1,s1,1
.LVL134:
	.loc 2 138 5
	li	a5,3
	bne	s1,a5,.L29
.L42:
.LDL1:
	.loc 2 180 5 is_stmt 1
	.loc 2 181 9
	.loc 2 182 9
	lui	a1,%hi(.LANCHOR1)
	li	a2,6
	addi	a1,a1,%lo(.LANCHOR1)
	addi	a0,sp,96
	call	memcpy
.LVL135:
	j	.L34
.L32:
	.loc 2 175 17
	.loc 2 175 22
	.loc 2 175 34
	.loc 2 175 39
	.loc 2 175 41
.LBB94:
.LBB95:
	.loc 3 151 5
	.loc 3 151 31 is_stmt 0
	lui	a5,%hi(TrapNetCounter)
.LBE95:
.LBE94:
	.loc 2 175 41
	lw	a5,%lo(TrapNetCounter)(a5)
	beq	a5,zero,.L38
	.loc 2 175 122
	call	xTaskGetTickCountFromISR
.LVL136:
.L39:
	.loc 2 175 41
	lui	a3,%hi(.LC5)
	lui	a2,%hi(.LC6)
	mv	a1,a0
	lui	a0,%hi(.LC7)
	addi	a5,a3,%lo(.LC5)
	li	a6,175
	li	a4,175
	addi	a3,a3,%lo(.LC5)
	addi	a2,a2,%lo(.LC6)
	addi	a0,a0,%lo(.LC7)
	call	bl_printk
.LVL137:
.L40:
	.loc 2 175 239 is_stmt 1
	.loc 2 175 256
	.loc 2 175 268
	j	.L40
.L38:
	.loc 2 175 151 is_stmt 0
	call	xTaskGetTickCount
.LVL138:
	j	.L39
.LVL139:
.L58:
.LBE98:
.LBE101:
.LBE103:
.LBE125:
.LBB126:
.LBB123:
.LBB121:
.LBB119:
.LBB116:
	.loc 2 367 9
	beq	a5,s10,.L59
	bne	a5,s11,.L60
.L57:
	.loc 2 397 17 is_stmt 1
.LVL140:
.LBB113:
.LBB114:
	.loc 2 333 5
	.loc 2 337 17 is_stmt 0
	lui	a5,%hi(.LC21)
	addi	a3,sp,44
	addi	a2,a5,%lo(.LC21)
	mv	a1,s2
	mv	a0,s0
	.loc 2 333 9
	sw	zero,44(sp)
	.loc 2 334 5 is_stmt 1
.LVL141:
	.loc 2 337 5
	.loc 2 337 17 is_stmt 0
	call	fdt_getprop
.LVL142:
	.loc 2 338 8
	lw	a5,44(sp)
	li	a3,56
	.loc 2 337 17
	mv	a4,a0
.LVL143:
	.loc 2 338 5 is_stmt 1
	.loc 2 338 8 is_stmt 0
	bne	a5,a3,.L66
	.loc 2 339 16
	li	s2,0
.LVL144:
	.loc 2 339 9
	li	s5,14
.LVL145:
.L65:
	.loc 2 340 13 is_stmt 1
	.loc 2 340 41 is_stmt 0
	slli	a5,s2,2
	add	a5,a4,a5
	lw	a0,0(a5)
	sw	a4,12(sp)
	call	fdt32_to_cpu
.LVL146:
	.loc 2 340 28
	addi	a5,sp,64
.LVL147:
	add	a5,a5,s2
.LVL148:
	sb	a0,0(a5)
	.loc 2 339 30
	addi	s2,s2,1
.LVL149:
	.loc 2 339 9
	lw	a4,12(sp)
	bne	s2,s5,.L65
.LVL150:
	addi	a5,sp,64
.LVL151:
	addi	a3,sp,78
.LVL152:
.L67:
	.loc 2 345 13 is_stmt 1
	.loc 2 345 28 is_stmt 0
	lbu	a4,0(a5)
	addi	a5,a5,1
.LVL153:
	addi	a4,a4,-10
	sb	a4,-1(a5)
.LVL154:
	.loc 2 344 9
	bne	a3,a5,.L67
.LVL155:
.LBE114:
.LBE113:
	.loc 2 398 21 is_stmt 1
	.loc 2 399 21
	.loc 2 400 21
	.loc 2 400 24 is_stmt 0
	lbu	a4,0(s1)
	li	a5,66
	bne	a4,a5,.L68
	.loc 2 402 32
	li	a5,0
	.loc 2 402 25
	li	a4,14
.L69:
.LVL156:
	.loc 2 403 29 is_stmt 1
	.loc 2 403 61 is_stmt 0
	addi	a2,sp,64
	add	a2,a2,a5
	.loc 2 403 44
	lbu	a2,0(a2)
	addi	a3,sp,48
	add	a3,a3,a5
	sb	a2,0(a3)
	.loc 2 402 63
	addi	a5,a5,1
.LVL157:
	.loc 2 402 25
	beq	a5,a4,.L70
	j	.L69
.LVL158:
.L59:
	.loc 2 371 17 is_stmt 1
	.loc 2 371 26 is_stmt 0
	addi	a0,sp,64
	call	bl_efuse_read_pwroft
.LVL159:
	.loc 2 371 20
	bne	a0,zero,.L66
	sw	a0,12(sp)
	.loc 2 372 21 is_stmt 1
.LVL160:
	.loc 2 373 21
	.loc 2 374 21
	li	a4,1
	li	a3,14
	addi	a2,sp,64
	li	a1,374
	addi	a0,s9,%lo(.LC5)
	call	log_buf_out
.LVL161:
	.loc 2 375 21
	.loc 2 375 24 is_stmt 0
	lbu	a4,0(s1)
	lw	a5,12(sp)
	bne	a4,s7,.L62
	.loc 2 377 25
	li	a4,14
.L63:
.LVL162:
	.loc 2 378 29 is_stmt 1
	.loc 2 378 61 is_stmt 0
	addi	a2,sp,64
	add	a2,a2,a5
	.loc 2 378 44
	lbu	a2,0(a2)
	addi	a3,sp,48
	add	a3,a3,a5
	sb	a2,0(a3)
	.loc 2 377 63
	addi	a5,a5,1
.LVL163:
	.loc 2 377 25
	bne	a5,a4,.L63
.LVL164:
.L70:
.LDL2:
	.loc 2 427 5 is_stmt 1
	.loc 2 428 9
	.loc 2 430 5
	lui	a0,%hi(.LC5)
	li	a4,1
	li	a3,14
	addi	a2,sp,48
	li	a1,430
	addi	a0,a0,%lo(.LC5)
	call	log_buf_out
.LVL165:
	.loc 2 432 5
	.loc 2 433 5
	lb	a0,54(sp)
	call	ble_rf_set_pwr_offset
.LVL166:
	.loc 2 435 5
	addi	a0,sp,48
	call	phy_powroffset_set
.LVL167:
.L46:
.LBE116:
.LBE119:
.LBE121:
.LBE123:
.LBE126:
	.loc 2 712 5
.LBB127:
.LBB128:
	.loc 2 512 5
	.loc 2 513 5
	.loc 2 517 15 is_stmt 0
	lui	a2,%hi(.LC22)
	addi	a2,a2,%lo(.LC22)
	mv	a1,s3
	mv	a0,s0
	.loc 2 513 25
	sw	zero,48(sp)
	.loc 2 514 5 is_stmt 1
.LVL168:
	.loc 2 515 5
	.loc 2 517 5
	.loc 2 517 15 is_stmt 0
	call	fdt_subnode_offset
.LVL169:
	mv	s1,a0
.LVL170:
	.loc 2 518 5 is_stmt 1
	.loc 2 518 8 is_stmt 0
	ble	a0,zero,.L76
.LBB129:
	.loc 2 521 9 is_stmt 1
	.loc 2 522 9
.LVL171:
	.loc 2 523 9
	.loc 2 524 9
	.loc 2 525 9
	.loc 2 527 9
	.loc 2 527 22 is_stmt 0
	lui	s2,%hi(.LC23)
	mv	a1,a0
	addi	a2,s2,%lo(.LC23)
	mv	a0,s0
	call	fdt_stringlist_count
.LVL172:
	.loc 2 528 9 is_stmt 1
	.loc 2 528 12 is_stmt 0
	li	a5,1
	beq	a0,a5,.L77
.LVL173:
.L79:
	.loc 2 522 17
	li	s2,0
.LVL174:
.L78:
	.loc 2 538 9 is_stmt 1
	.loc 2 538 22 is_stmt 0
	lui	s5,%hi(.LC24)
	addi	a2,s5,%lo(.LC24)
	mv	a1,s1
	mv	a0,s0
	call	fdt_stringlist_count
.LVL175:
	.loc 2 539 9 is_stmt 1
	.loc 2 539 12 is_stmt 0
	li	a5,1
	beq	a0,a5,.L80
.LVL176:
.L82:
	.loc 2 524 17
	li	s5,0
.LVL177:
.L81:
	.loc 2 549 9 is_stmt 1
	.loc 2 549 21 is_stmt 0
	lui	a2,%hi(.LC25)
	addi	a3,sp,48
	addi	a2,a2,%lo(.LC25)
	mv	a1,s1
	mv	a0,s0
	call	fdt_getprop
.LVL178:
	.loc 2 550 9 is_stmt 1
	.loc 2 525 17 is_stmt 0
	li	a4,0
	.loc 2 550 12
	beq	a0,zero,.L83
	.loc 2 551 13 is_stmt 1
	.loc 2 553 13
	.loc 2 553 37 is_stmt 0
	lw	a0,0(a0)
.LVL179:
	call	fdt32_to_cpu
.LVL180:
	.loc 2 553 24
	andi	a4,a0,0xff
.LVL181:
.L83:
	.loc 2 555 13 is_stmt 1
	.loc 2 558 9
	mv	a3,s5
	addi	a2,sp,96
	mv	a1,s2
	addi	a0,sp,64
	call	bl_wifi_ap_info_set
.LVL182:
.L76:
.LBE129:
	.loc 2 562 5
.LBE128:
.LBE127:
	.loc 2 713 5
.LBB132:
.LBB133:
	.loc 2 461 5
	.loc 2 462 5
	.loc 2 467 15 is_stmt 0
	lui	a2,%hi(.LC26)
	addi	a2,a2,%lo(.LC26)
	mv	a1,s3
	mv	a0,s0
	.loc 2 462 25
	sw	zero,48(sp)
	.loc 2 463 5 is_stmt 1
.LVL183:
	.loc 2 464 5
	.loc 2 465 5
	.loc 2 467 5
	.loc 2 467 15 is_stmt 0
	call	fdt_subnode_offset
.LVL184:
	mv	s1,a0
.LVL185:
	.loc 2 468 5 is_stmt 1
	.loc 2 468 8 is_stmt 0
	ble	a0,zero,.L84
.LBB134:
	.loc 2 470 9 is_stmt 1
	.loc 2 471 9
.LVL186:
	.loc 2 472 9
	.loc 2 473 9
	.loc 2 475 9
	.loc 2 475 22 is_stmt 0
	lui	s2,%hi(.LC23)
	mv	a1,a0
	addi	a2,s2,%lo(.LC23)
	mv	a0,s0
	call	fdt_stringlist_count
.LVL187:
	.loc 2 476 9 is_stmt 1
	.loc 2 476 12 is_stmt 0
	li	a5,1
	beq	a0,a5,.L85
.LVL188:
.L87:
	.loc 2 471 17
	li	s2,0
.LVL189:
.L86:
	.loc 2 486 9 is_stmt 1
	.loc 2 486 22 is_stmt 0
	lui	s3,%hi(.LC24)
.LVL190:
	addi	a2,s3,%lo(.LC24)
	mv	a1,s1
	mv	a0,s0
	call	fdt_stringlist_count
.LVL191:
	.loc 2 487 9 is_stmt 1
	.loc 2 487 12 is_stmt 0
	li	a5,1
	beq	a0,a5,.L88
.LVL192:
.L90:
	.loc 2 473 17
	li	s3,0
.LVL193:
.L89:
	.loc 2 496 9 is_stmt 1
	.loc 2 496 21 is_stmt 0
	lui	a2,%hi(.LC27)
	addi	a3,sp,48
	addi	a2,a2,%lo(.LC27)
	mv	a1,s1
	mv	a0,s0
	call	fdt_getprop
.LVL194:
	.loc 2 497 9 is_stmt 1
	.loc 2 502 33 is_stmt 0
	li	a4,0
	.loc 2 497 12
	beq	a0,zero,.L91
	.loc 2 498 13 is_stmt 1
	.loc 2 500 13
	.loc 2 500 46 is_stmt 0
	lw	a0,0(a0)
.LVL195:
	call	fdt32_to_cpu
.LVL196:
	mv	a4,a0
.LVL197:
.L91:
	.loc 2 505 9 is_stmt 1
	mv	a3,s3
	addi	a2,sp,96
	mv	a1,s2
	addi	a0,sp,64
	call	bl_wifi_sta_info_set
.LVL198:
.L84:
.LBE134:
	.loc 2 507 5
.LBE133:
.LBE132:
	.loc 2 715 5
	.loc 2 715 17 is_stmt 0
	lui	a2,%hi(.LC28)
	addi	a2,a2,%lo(.LC28)
	li	a1,0
	mv	a0,s0
	call	fdt_subnode_offset
.LVL199:
	.loc 2 716 5 is_stmt 1
	.loc 2 717 8
	.loc 2 720 5
	.loc 2 720 15 is_stmt 0
	mv	a1,a0
	addi	a2,s4,%lo(.LC2)
	mv	a0,s0
.LVL200:
	call	fdt_subnode_offset
.LVL201:
	mv	a1,a0
.LVL202:
	.loc 2 721 5 is_stmt 1
	.loc 2 721 8 is_stmt 0
	ble	a0,zero,.L92
.LBB137:
	.loc 2 722 9 is_stmt 1
.LVL203:
	.loc 2 723 9
	.loc 2 723 21 is_stmt 0
	lui	a2,%hi(.LC29)
	addi	a3,sp,36
	addi	a2,a2,%lo(.LC29)
	mv	a0,s0
.LVL204:
	call	fdt_getprop
.LVL205:
	mv	a5,a0
.LVL206:
	.loc 2 724 9 is_stmt 1
	.loc 2 727 27 is_stmt 0
	li	a0,0
.LVL207:
	.loc 2 724 12
	beq	a5,zero,.L93
	.loc 2 725 13 is_stmt 1
	.loc 2 725 40 is_stmt 0
	lw	a0,0(a5)
	call	fdt32_to_cpu
.LVL208:
.L93:
	.loc 2 729 9 is_stmt 1
	.loc 2 731 9
	call	ble_controller_set_tx_pwr
.LVL209:
.L92:
.LBE137:
	.loc 2 734 5
.LBE58:
.LBE57:
	.loc 2 906 5
	.loc 2 907 1 is_stmt 0
	lw	ra,220(sp)
	.cfi_remember_state
	.cfi_restore 1
	lw	s0,216(sp)
	.cfi_restore 8
.LVL210:
	lw	s1,212(sp)
	.cfi_restore 9
	lw	s2,208(sp)
	.cfi_restore 18
	lw	s3,204(sp)
	.cfi_restore 19
	lw	s4,200(sp)
	.cfi_restore 20
	lw	s5,196(sp)
	.cfi_restore 21
	lw	s6,192(sp)
	.cfi_restore 22
	lw	s7,188(sp)
	.cfi_restore 23
	lw	s8,184(sp)
	.cfi_restore 24
	lw	s9,180(sp)
	.cfi_restore 25
	lw	s10,176(sp)
	.cfi_restore 26
	lw	s11,172(sp)
	.cfi_restore 27
	li	a0,0
	addi	sp,sp,224
	.cfi_def_cfa_offset 0
	jr	ra
.LVL211:
.L62:
	.cfi_restore_state
	addi	a4,sp,48
.LBB142:
.LBB141:
.LBB138:
.LBB124:
.LBB122:
.LBB120:
.LBB117:
	.loc 2 385 25
	li	a2,14
.L64:
.LVL212:
	.loc 2 386 29 is_stmt 1
	.loc 2 386 62 is_stmt 0
	addi	a3,sp,64
	add	a3,a3,a5
	.loc 2 386 44
	lbu	a1,0(a4)
	lbu	a3,0(a3)
	.loc 2 385 63
	addi	a5,a5,1
.LVL213:
	addi	a4,a4,1
	.loc 2 386 44
	add	a3,a3,a1
	sb	a3,-1(a4)
	.loc 2 385 25
	bne	a5,a2,.L64
.LVL214:
.L66:
	.loc 2 366 38
	addi	s5,s5,1
.LVL215:
	.loc 2 366 5
	li	a5,2
	addi	s1,s1,1
	beq	s5,a5,.L70
	j	.L56
.LVL216:
.L68:
	addi	a4,sp,48
	.loc 2 410 32
	li	a5,0
	.loc 2 410 25
	li	a2,14
.L71:
.LVL217:
	.loc 2 411 29 is_stmt 1
	.loc 2 411 62 is_stmt 0
	addi	a3,sp,64
	add	a3,a3,a5
	.loc 2 411 44
	lbu	a1,0(a4)
	lbu	a3,0(a3)
	.loc 2 410 63
	addi	a5,a5,1
.LVL218:
	addi	a4,a4,1
	.loc 2 411 44
	add	a3,a3,a1
	sb	a3,-1(a4)
	.loc 2 410 25
	beq	a5,a2,.L70
	j	.L71
.LVL219:
.L72:
	.loc 2 422 151
	call	xTaskGetTickCount
.LVL220:
	j	.L73
.LVL221:
.L77:
.LBE117:
.LBE120:
.LBE122:
.LBE124:
.LBE138:
.LBB139:
.LBB131:
.LBB130:
	.loc 2 529 13 is_stmt 1
	.loc 2 529 22 is_stmt 0
	addi	a4,sp,48
	addi	a2,s2,%lo(.LC23)
	mv	a1,s1
	li	a3,0
	mv	a0,s0
.LVL222:
	call	fdt_stringlist_get
.LVL223:
	.loc 2 530 30
	lw	a2,48(sp)
	.loc 2 530 16
	li	a5,30
	.loc 2 529 22
	mv	a1,a0
.LVL224:
	.loc 2 530 13 is_stmt 1
	.loc 2 530 30 is_stmt 0
	addi	a4,a2,-1
	.loc 2 530 16
	bgtu	a4,a5,.L79
	.loc 2 531 17 is_stmt 1
	.loc 2 532 17
	addi	a0,sp,64
.LVL225:
	call	memcpy
.LVL226:
	.loc 2 533 17
	.loc 2 533 24 is_stmt 0
	lw	s2,48(sp)
	.loc 2 533 33
	addi	a5,sp,160
	add	a5,a5,s2
	sb	zero,-96(a5)
	.loc 2 534 17 is_stmt 1
	.loc 2 534 29 is_stmt 0
	andi	s2,s2,0xff
.LVL227:
	j	.L78
.LVL228:
.L80:
	.loc 2 540 13 is_stmt 1
	.loc 2 540 22 is_stmt 0
	addi	a4,sp,48
	addi	a2,s5,%lo(.LC24)
	mv	a1,s1
	li	a3,0
	mv	a0,s0
.LVL229:
	call	fdt_stringlist_get
.LVL230:
	.loc 2 541 30
	lw	a2,48(sp)
	.loc 2 541 16
	li	a5,30
	.loc 2 540 22
	mv	a1,a0
.LVL231:
	.loc 2 541 13 is_stmt 1
	.loc 2 541 30 is_stmt 0
	addi	a4,a2,-1
	.loc 2 541 16
	bgtu	a4,a5,.L82
	.loc 2 542 17 is_stmt 1
	.loc 2 543 17
	addi	a0,sp,96
.LVL232:
	call	memcpy
.LVL233:
	.loc 2 544 17
	.loc 2 544 23 is_stmt 0
	lw	s5,48(sp)
	.loc 2 544 32
	addi	a5,sp,160
	add	a5,a5,s5
	sb	zero,-64(a5)
	.loc 2 545 17 is_stmt 1
	.loc 2 545 28 is_stmt 0
	andi	s5,s5,0xff
.LVL234:
	j	.L81
.LVL235:
.L85:
.LBE130:
.LBE131:
.LBE139:
.LBB140:
.LBB136:
.LBB135:
	.loc 2 477 13 is_stmt 1
	.loc 2 477 22 is_stmt 0
	addi	a4,sp,48
	addi	a2,s2,%lo(.LC23)
	mv	a1,s1
	li	a3,0
	mv	a0,s0
.LVL236:
	call	fdt_stringlist_get
.LVL237:
	.loc 2 478 30
	lw	a2,48(sp)
	.loc 2 478 16
	li	a5,30
	.loc 2 477 22
	mv	a1,a0
.LVL238:
	.loc 2 478 13 is_stmt 1
	.loc 2 478 30 is_stmt 0
	addi	a4,a2,-1
	.loc 2 478 16
	bgtu	a4,a5,.L87
	.loc 2 479 17 is_stmt 1
	.loc 2 480 17
	addi	a0,sp,64
.LVL239:
	call	memcpy
.LVL240:
	.loc 2 481 17
	.loc 2 481 24 is_stmt 0
	lw	s2,48(sp)
	.loc 2 481 33
	addi	a5,sp,160
	add	a5,a5,s2
	sb	zero,-96(a5)
	.loc 2 482 17 is_stmt 1
	.loc 2 482 29 is_stmt 0
	andi	s2,s2,0xff
.LVL241:
	j	.L86
.LVL242:
.L88:
	.loc 2 488 13 is_stmt 1
	.loc 2 488 22 is_stmt 0
	addi	a4,sp,48
	addi	a2,s3,%lo(.LC24)
	mv	a1,s1
	li	a3,0
	mv	a0,s0
.LVL243:
	call	fdt_stringlist_get
.LVL244:
	.loc 2 489 30
	lw	a2,48(sp)
	.loc 2 489 16
	li	a5,30
	.loc 2 488 22
	mv	a1,a0
.LVL245:
	.loc 2 489 13 is_stmt 1
	.loc 2 489 30 is_stmt 0
	addi	a4,a2,-1
	.loc 2 489 16
	bgtu	a4,a5,.L90
	.loc 2 490 17 is_stmt 1
	.loc 2 491 17
	addi	a0,sp,96
.LVL246:
	call	memcpy
.LVL247:
	.loc 2 492 17
	.loc 2 492 23 is_stmt 0
	lw	s3,48(sp)
	.loc 2 492 32
	addi	a5,sp,160
	add	a5,a5,s3
	sb	zero,-64(a5)
	.loc 2 493 17 is_stmt 1
	.loc 2 493 28 is_stmt 0
	andi	s3,s3,0xff
.LVL248:
	j	.L89
.LBE135:
.LBE136:
.LBE140:
.LBE141:
.LBE142:
	.cfi_endproc
.LFE56:
	.size	hal_board_cfg, .-hal_board_cfg
	.section	.rodata.hal_board_cfg.str1.4,"aMS",@progbits,1
	.align	2
.LC0:
	.string	"factory"
.LC1:
	.string	"wifi"
	.zero	3
.LC2:
	.string	"brd_rf"
	.zero	1
.LC3:
	.string	"xtal_mode"
	.zero	2
.LC4:
	.string	"xtal"
	.zero	3
.LC5:
	.string	"hal_board.c"
.LC6:
	.string	"\033[35mASSERT\033[0m"
.LC7:
	.string	"[%10u][%s: %s:%4d] ASSERT: %s:%d\r\n"
	.zero	1
.LC8:
	.string	"channel_div_table"
	.zero	2
.LC9:
	.string	"channel_cnt_table"
	.zero	2
.LC10:
	.string	"lo_fcal_div"
.LC11:
	.string	"mac"
.LC12:
	.string	"mode"
	.zero	3
.LC13:
	.string	"sta_mac_addr"
	.zero	3
.LC14:
	.string	"ap_mac_addr"
.LC15:
	.string	"region"
	.zero	1
.LC16:
	.string	"country_code"
	.zero	3
.LC17:
	.string	"pwr_table_11b"
	.zero	2
.LC18:
	.string	"pwr_table_11g"
	.zero	2
.LC19:
	.string	"pwr_table_11n"
	.zero	2
.LC20:
	.string	"pwr_mode"
	.zero	3
.LC21:
	.string	"pwr_offset"
	.zero	1
.LC22:
	.string	"ap"
	.zero	1
.LC23:
	.string	"ssid"
	.zero	3
.LC24:
	.string	"pwd"
.LC25:
	.string	"ap_channel"
	.zero	1
.LC26:
	.string	"sta"
.LC27:
	.string	"auto_connect_enable"
.LC28:
	.string	"bluetooth"
	.zero	2
.LC29:
	.string	"pwr_table_ble"
	.section	.sbss.factory_addr,"aw",@nobits
	.align	2
	.set	.LANCHOR0,. + 0
	.type	factory_addr, @object
	.size	factory_addr, 4
factory_addr:
	.zero	4
	.section	.sdata2.mac_default.3787,"a"
	.align	2
	.set	.LANCHOR1,. + 0
	.type	mac_default.3787, @object
	.size	mac_default.3787, 6
mac_default.3787:
	.byte	24
	.byte	-71
	.byte	5
	.byte	-120
	.byte	-120
	.byte	-120
	.text
.Letext0:
	.file 4 "/b-l/bl_iot_sdk_new/toolchain/riscv/Linux/lib/gcc/riscv64-unknown-elf/8.3.0/include/stdint-gcc.h"
	.file 5 "/b-l/bl_iot_sdk_new/toolchain/riscv/Linux/lib/gcc/riscv64-unknown-elf/8.3.0/include/stddef.h"
	.file 6 "/b-l/bl_iot_sdk_new/toolchain/riscv/Linux/riscv64-unknown-elf/include/sys/_types.h"
	.file 7 "/b-l/bl_iot_sdk_new/toolchain/riscv/Linux/riscv64-unknown-elf/include/sys/reent.h"
	.file 8 "/b-l/bl_iot_sdk_new/toolchain/riscv/Linux/riscv64-unknown-elf/include/sys/lock.h"
	.file 9 "/b-l/bl_iot_sdk_new/toolchain/riscv/Linux/riscv64-unknown-elf/include/stdlib.h"
	.file 10 "/b-l/bl_iot_sdk_new/components/stage/blfdt/inc/libfdt.h"
	.file 11 "/b-l/bl_iot_sdk_new/components/hal_drv/bl602_hal/bl_efuse.h"
	.file 12 "/b-l/bl_iot_sdk_new/toolchain/riscv/Linux/riscv64-unknown-elf/include/string.h"
	.file 13 "/b-l/bl_iot_sdk_new/components/bl602/freertos_riscv_ram/config/task.h"
	.file 14 "/b-l/bl_iot_sdk_new/components/utils/include/utils_log.h"
	.file 15 "/b-l/bl_iot_sdk_new/components/hal_drv/bl602_hal/hal_sys.h"
	.file 16 "/b-l/bl_iot_sdk_new/components/hal_drv/bl602_hal/bl_wifi.h"
	.file 17 "/b-l/bl_iot_sdk_new/components/bl602/bl602_wifi/include/bl_phy_api.h"
	.file 18 "/b-l/bl_iot_sdk_new/components/bl602/bl602_wifi/include/bl60x_fw_api.h"
	.file 19 "/b-l/bl_iot_sdk_new/components/network/ble/blecontroller/ble_inc/ble_lib_api.h"
	.file 20 "/b-l/bl_iot_sdk_new/components/hal_drv/bl602_hal/hal_boot2.h"