	.file	"doit_dohome_protocol.c"
	.option nopic
	.attribute arch, "rv32i2p0_m2p0_f2p0_c2p0"
	.attribute unaligned_access, 0
	.attribute stack_align, 16
	.text
.Ltext0:
	.cfi_sections	.debug_frame
	.section	.text.dohome_product_run_cmd,"ax",@progbits
	.align	1
	.weak	dohome_product_run_cmd
	.type	dohome_product_run_cmd, @function
dohome_product_run_cmd:
.LFB5:
	.file 1 "/b-l/DoHome_Light_rgbcw/DoHome_Light_rgbcw/components/doit_server/doit_dohome_protocol.c"
	.loc 1 26 86
	.cfi_startproc
.LVL0:
	.loc 1 28 2
	.loc 1 29 1 is_stmt 0
	li	a0,26
.LVL1:
	ret
	.cfi_endproc
.LFE5:
	.size	dohome_product_run_cmd, .-dohome_product_run_cmd
	.section	.text.parse_dohome_protocol,"ax",@progbits
	.align	1
	.globl	parse_dohome_protocol
	.type	parse_dohome_protocol, @function
parse_dohome_protocol:
.LFB6:
	.loc 1 32 1 is_stmt 1
	.cfi_startproc
.LVL2:
	.loc 1 33 2
	.loc 1 32 1 is_stmt 0
	addi	sp,sp,-32
	.cfi_def_cfa_offset 32
	sw	s0,24(sp)
	sw	s3,12(sp)
	sw	ra,28(sp)
	sw	s1,20(sp)
	sw	s2,16(sp)
	.cfi_offset 8, -8
	.cfi_offset 19, -20
	.cfi_offset 1, -4
	.cfi_offset 9, -12
	.cfi_offset 18, -16
	lui	s3,%hi(TrapNetCounter)
	lui	s0,%hi(.LC0)
	.loc 1 33 5
	bne	a0,zero,.L3
	.loc 1 34 3 is_stmt 1
	.loc 1 34 8
.LBB12:
.LBB13:
	.file 2 "/b-l/bl_iot_sdk/components/bl602/freertos_riscv_ram/portable/GCC/RISC-V/portmacro.h"
	.loc 2 151 5
.LBE13:
.LBE12:
	.loc 1 34 8 is_stmt 0
	lw	a5,%lo(TrapNetCounter)(s3)
	beq	a5,zero,.L4
	.loc 1 34 102 discriminator 1
	call	xTaskGetTickCountFromISR
.LVL3:
.L5:
	.loc 1 34 8 discriminator 4
	mv	a1,a0
	lui	a0,%hi(.LC1)
	addi	a2,s0,%lo(.LC0)
	addi	a0,a0,%lo(.LC1)
	call	bl_printk
.LVL4:
	.loc 1 35 3 is_stmt 1 discriminator 4
.L47:
	.loc 1 163 2
	.loc 1 163 9 is_stmt 0
	li	a0,0
	j	.L2
.LVL5:
.L4:
	.loc 1 34 131 discriminator 2
	call	xTaskGetTickCount
.LVL6:
	j	.L5
.LVL7:
.L3:
	.loc 1 38 2 is_stmt 1
	.loc 1 38 5 is_stmt 0
	bge	a1,zero,.L7
	.loc 1 39 3 is_stmt 1
	.loc 1 39 8
.LBB14:
.LBB15:
	.loc 2 151 5
.LBE15:
.LBE14:
	.loc 1 39 8 is_stmt 0
	lw	a5,%lo(TrapNetCounter)(s3)
	beq	a5,zero,.L8
	.loc 1 39 101 discriminator 1
	call	xTaskGetTickCountFromISR
.LVL8:
.L9:
	.loc 1 39 8 discriminator 4
	mv	a1,a0
	lui	a0,%hi(.LC2)
	addi	a0,a0,%lo(.LC2)
	addi	a2,s0,%lo(.LC0)
	call	bl_printk
.LVL9:
	.loc 1 40 3 is_stmt 1 discriminator 4
	.loc 1 40 10 is_stmt 0 discriminator 4
	li	a0,1
.L2:
	.loc 1 164 1
	lw	ra,28(sp)
	.cfi_remember_state
	.cfi_restore 1
	lw	s0,24(sp)
	.cfi_restore 8
	lw	s1,20(sp)
	.cfi_restore 9
	lw	s2,16(sp)
	.cfi_restore 18
	lw	s3,12(sp)
	.cfi_restore 19
	addi	sp,sp,32
	.cfi_def_cfa_offset 0
	jr	ra
.LVL10:
.L8:
	.cfi_restore_state
	.loc 1 39 130 discriminator 2
	call	xTaskGetTickCount
.LVL11:
	j	.L9
.LVL12:
.L7:
	mv	s2,a2
	.loc 1 43 2 is_stmt 1
	.loc 1 43 16 is_stmt 0
	call	cJSON_Parse
.LVL13:
	mv	s1,a0
.LVL14:
	.loc 1 45 2 is_stmt 1
	.loc 1 46 8 is_stmt 0
	lw	a5,%lo(TrapNetCounter)(s3)
	.loc 1 45 5
	bne	a0,zero,.L10
	.loc 1 46 3 is_stmt 1
	.loc 1 46 8
.LBB16:
.LBB17:
	.loc 2 151 5
.LBE17:
.LBE16:
	.loc 1 46 8 is_stmt 0
	beq	a5,zero,.L11
	.loc 1 46 103 discriminator 1
	call	xTaskGetTickCountFromISR
.LVL15:
.L12:
	.loc 1 46 8 discriminator 4
	mv	a1,a0
	lui	a0,%hi(.LC3)
	addi	a0,a0,%lo(.LC3)
	addi	a2,s0,%lo(.LC0)
	call	bl_printk
.LVL16:
	.loc 1 47 3 is_stmt 1 discriminator 4
	.loc 1 47 10 is_stmt 0 discriminator 4
	li	a0,2
	j	.L2
.L11:
	.loc 1 46 132 discriminator 2
	call	xTaskGetTickCount
.LVL17:
	j	.L12
.L10:
	.loc 1 49 3 is_stmt 1
	.loc 1 49 8
.LBB18:
.LBB19:
	.loc 2 151 5
.LBE19:
.LBE18:
	.loc 1 49 8 is_stmt 0
	beq	a5,zero,.L13
	.loc 1 49 109 discriminator 1
	call	xTaskGetTickCountFromISR
.LVL18:
.L14:
	.loc 1 49 8 discriminator 4
	mv	a1,a0
	lui	a0,%hi(.LC4)
	addi	a0,a0,%lo(.LC4)
	addi	a2,s0,%lo(.LC0)
	call	bl_printk
.LVL19:
	.loc 1 55 2 is_stmt 1 discriminator 4
	.loc 1 55 16 is_stmt 0 discriminator 4
	lui	a1,%hi(.LC5)
	addi	a1,a1,%lo(.LC5)
	mv	a0,s1
	call	cJSON_GetObjectItem
.LVL20:
	.loc 1 56 2 is_stmt 1 discriminator 4
	.loc 1 56 5 is_stmt 0 discriminator 4
	bne	a0,zero,.L15
	.loc 1 57 3 is_stmt 1
	.loc 1 57 8
.LBB20:
.LBB21:
	.loc 2 151 5
.LBE21:
.LBE20:
	.loc 1 57 8 is_stmt 0
	lw	a5,%lo(TrapNetCounter)(s3)
	beq	a5,zero,.L16
	.loc 1 57 100 discriminator 1
	call	xTaskGetTickCountFromISR
.LVL21:
.L17:
	.loc 1 57 8 discriminator 4
	mv	a1,a0
	lui	a0,%hi(.LC6)
	addi	a2,s0,%lo(.LC0)
	addi	a0,a0,%lo(.LC6)
	call	bl_printk
.LVL22:
	.loc 1 59 3 is_stmt 1 discriminator 4
.L46:
	.loc 1 162 2
	mv	a0,s1
	call	cJSON_Delete
.LVL23:
	j	.L47
.L13:
	.loc 1 49 138 is_stmt 0 discriminator 2
	call	xTaskGetTickCount
.LVL24:
	j	.L14
.LVL25:
.L16:
	.loc 1 57 129 discriminator 2
	call	xTaskGetTickCount
.LVL26:
	j	.L17
.LVL27:
.L15:
	.loc 1 62 2 is_stmt 1
	.loc 1 62 6 is_stmt 0
	lw	s0,20(a0)
.LVL28:
	.loc 1 63 2 is_stmt 1
	.loc 1 65 2
	li	a5,19
	beq	s0,a5,.L18
	bgt	s0,a5,.L19
	li	a5,10
	beq	s0,a5,.L20
	bgt	s0,a5,.L21
	li	a5,4
	beq	s0,a5,.L22
	bgt	s0,a5,.L23
	li	a5,3
	beq	s0,a5,.L24
.L25:
	.loc 1 152 3
	.loc 1 152 12 is_stmt 0
	mv	a2,s2
	mv	a1,s1
	mv	a0,s0
.LVL29:
	call	dohome_product_run_cmd
.LVL30:
	.loc 1 153 3 is_stmt 1
	.loc 1 153 5 is_stmt 0
	li	a5,200
	bne	a0,a5,.L26
	j	.L46
.LVL31:
.L23:
	.loc 1 65 2
	li	a5,8
	beq	s0,a5,.L44
	li	a5,9
	bne	s0,a5,.L25
	.loc 1 80 3 is_stmt 1
	.loc 1 80 12 is_stmt 0
	mv	a0,s2
.LVL32:
	call	get_time_info
.LVL33:
	.loc 1 81 3 is_stmt 1
	j	.L46
.LVL34:
.L21:
	.loc 1 65 2 is_stmt 0
	li	a5,14
	beq	s0,a5,.L28
	bgt	s0,a5,.L29
	li	a5,13
	bne	s0,a5,.L25
	.loc 1 89 3 is_stmt 1
	.loc 1 89 12 is_stmt 0
	mv	a0,s1
.LVL35:
	call	setup_shutdown_timer_to_json
.LVL36:
	.loc 1 90 3 is_stmt 1
	j	.L26
.LVL37:
.L29:
	.loc 1 65 2 is_stmt 0
	li	a5,16
	beq	s0,a5,.L31
	li	a5,17
	bne	s0,a5,.L25
	.loc 1 104 3 is_stmt 1
	.loc 1 104 12 is_stmt 0
	mv	a0,s1
.LVL38:
	call	delay_shutdown_to_json
.LVL39:
	.loc 1 105 3 is_stmt 1
	j	.L26
.LVL40:
.L19:
	.loc 1 65 2 is_stmt 0
	li	a5,26
	beq	s0,a5,.L33
	bgt	s0,a5,.L34
	li	a5,21
	beq	s0,a5,.L35
	blt	s0,a5,.L36
	li	a5,22
	beq	s0,a5,.L37
	li	a5,23
	bne	s0,a5,.L25
	.loc 1 128 3 is_stmt 1
	mv	a0,s1
.LVL41:
	call	cancel_timer_to_json
.LVL42:
	.loc 1 129 3
.L44:
	.loc 1 63 6 is_stmt 0
	li	a0,0
	j	.L26
.LVL43:
.L34:
	.loc 1 65 2
	li	a5,29
	beq	s0,a5,.L39
	bgt	s0,a5,.L40
	li	a5,28
	bne	s0,a5,.L25
	.loc 1 136 3 is_stmt 1
	.loc 1 136 12 is_stmt 0
	call	reset_ap
.LVL44:
	.loc 1 137 3 is_stmt 1
	j	.L26
.LVL45:
.L40:
	.loc 1 65 2 is_stmt 0
	li	a5,200
	beq	s0,a5,.L42
	li	a5,201
	bne	s0,a5,.L25
	.loc 1 148 3 is_stmt 1
	.loc 1 148 12 is_stmt 0
	mv	a0,s1
.LVL46:
	call	reset_config_to_json
.LVL47:
	.loc 1 149 3 is_stmt 1
	j	.L26
.LVL48:
.L24:
	.loc 1 68 3
	.loc 1 68 12 is_stmt 0
	mv	a0,s2
.LVL49:
	call	system_reset_json
.LVL50:
	.loc 1 69 3 is_stmt 1
.L26:
	.loc 1 161 2
	lui	a1,%hi(.LC7)
	mv	a2,a0
	mv	a3,s0
	addi	a1,a1,%lo(.LC7)
	mv	a0,s2
.LVL51:
	call	sprintf
.LVL52:
	j	.L46
.LVL53:
.L22:
	.loc 1 72 3
	.loc 1 72 12 is_stmt 0
	mv	a0,s2
.LVL54:
	call	get_device_info
.LVL55:
	.loc 1 73 3 is_stmt 1
	j	.L46
.LVL56:
.L20:
	.loc 1 85 3
	.loc 1 85 12 is_stmt 0
	mv	a0,s1
.LVL57:
	call	set_time_to_json
.LVL58:
	.loc 1 86 3 is_stmt 1
	j	.L26
.LVL59:
.L28:
	.loc 1 93 3
	.loc 1 93 12 is_stmt 0
	mv	a0,s1
.LVL60:
	call	setup_powerup_timer_to_json
.LVL61:
	.loc 1 94 3 is_stmt 1
	j	.L26
.LVL62:
.L31:
	.loc 1 97 3
	.loc 1 97 12 is_stmt 0
	mv	a0,s1
.LVL63:
	call	falsh_save_ssid_to_json
.LVL64:
	.loc 1 98 3 is_stmt 1
	mv	a0,s2
	call	get_ssid_info
.LVL65:
	.loc 1 99 3
	mv	a0,s1
	call	cJSON_Delete
.LVL66:
	.loc 1 100 3
	call	system_delay_reset
.LVL67:
	.loc 1 101 3
	j	.L47
.LVL68:
.L18:
	.loc 1 108 3
	.loc 1 108 12 is_stmt 0
	mv	a0,s2
.LVL69:
	call	check_connect_router
.LVL70:
	.loc 1 109 3 is_stmt 1
	j	.L46
.LVL71:
.L36:
	.loc 1 113 3
	.loc 1 113 12 is_stmt 0
	mv	a0,s2
.LVL72:
	call	get_version_info
.LVL73:
	.loc 1 114 3 is_stmt 1
	j	.L46
.LVL74:
.L35:
	.loc 1 118 3
	mv	a1,s2
	li	a0,0
.LVL75:
	call	get_timer_info
.LVL76:
	.loc 1 119 3
	j	.L46
.LVL77:
.L37:
	.loc 1 123 3
	mv	a0,s2
.LVL78:
	call	timer_get_delay_shutdown_info
.LVL79:
	.loc 1 124 3
	j	.L46
.LVL80:
.L33:
	.loc 1 132 3
	.loc 1 132 12 is_stmt 0
	mv	a0,s1
.LVL81:
	call	modify_timer_to_json
.LVL82:
	.loc 1 133 3 is_stmt 1
	j	.L26
.LVL83:
.L39:
	.loc 1 140 3
	mv	a0,s1
.LVL84:
	call	set_timezone_to_json
.LVL85:
	.loc 1 141 3
	j	.L44
.LVL86:
.L42:
	.loc 1 144 3
	.loc 1 144 12 is_stmt 0
	mv	a0,s1
.LVL87:
	call	ota_start_to_json
.LVL88:
	.loc 1 145 3 is_stmt 1
	j	.L26
	.cfi_endproc
.LFE6:
	.size	parse_dohome_protocol, .-parse_dohome_protocol
	.section	.rodata.parse_dohome_protocol.str1.4,"aMS",@progbits,1
	.align	2
.LC0:
	.string	"dohome_protocol"
.LC1:
	.string	"\033[32m[%10u][%s] parse error buff\033[0m\r\n"
	.zero	1
.LC2:
	.string	"\033[32m[%10u][%s] parse error len\033[0m\r\n"
	.zero	2
.LC3:
	.string	"\033[32m[%10u][%s] json parse failed\033[0m\r\n"
.LC4:
	.string	"\033[32m[%10u][%s] json parse successfully\033[0m\r\n"
	.zero	2
.LC5:
	.string	"cmd"
.LC6:
	.string	"\033[32m[%10u][%s] get cmd failed\033[0m\r\n"
	.zero	3
.LC7:
	.string	"{\"res\":%d,\"cmd\":%d}\r\n"
	.text
.Letext0:
	.file 3 "/b-l/bl_iot_sdk/toolchain/riscv/Linux/lib/gcc/riscv64-unknown-elf/8.3.0/include/stddef.h"
	.file 4 "/b-l/bl_iot_sdk/toolchain/riscv/Linux/riscv64-unknown-elf/include/sys/_types.h"
	.file 5 "/b-l/bl_iot_sdk/toolchain/riscv/Linux/riscv64-unknown-elf/include/sys/reent.h"
	.file 6 "/b-l/bl_iot_sdk/toolchain/riscv/Linux/riscv64-unknown-elf/include/sys/lock.h"
	.file 7 "/b-l/DoHome_Light_rgbcw/DoHome_Light_rgbcw/components/cjson/include/cJSON.h"
	.file 8 "/b-l/bl_iot_sdk/toolchain/riscv/Linux/lib/gcc/riscv64-unknown-elf/8.3.0/include/stdint-gcc.h"
	.file 9 "/b-l/DoHome_Light_rgbcw/DoHome_Light_rgbcw/components/doit_server/include/doit_device_info.h"
	.file 10 "/b-l/bl_iot_sdk/components/bl602/freertos_riscv_ram/config/task.h"
	.file 11 "/b-l/bl_iot_sdk/components/utils/include/utils_log.h"
	.file 12 "/b-l/DoHome_Light_rgbcw/DoHome_Light_rgbcw/components/doit_server/include/doit_dohome_proces.h"
	.file 13 "/b-l/bl_iot_sdk/toolchain/riscv/Linux/riscv64-unknown-elf/include/stdio.h"
	.file 14 "/b-l/DoHome_Light_rgbcw/DoHome_Light_rgbcw/components/doit_server/include/doit_system.h"
	.file 15 "/b-l/DoHome_Light_rgbcw/DoHome_Light_rgbcw/components/doit_server/include/doit_timer.h"
	.file 16 "/b-l/DoHome_Light_rgbcw/DoHome_Light_rgbcw/components/doit_server/include/doit_dohome_protocol.h"