	.file	"doit_device_info.c"
	.option nopic
	.attribute arch, "rv32i2p0_m2p0_f2p0_c2p0"
	.attribute unaligned_access, 0
	.attribute stack_align, 16
	.text
.Ltext0:
	.cfi_sections	.debug_frame
	.section	.text.device_get_broadcast_ip,"ax",@progbits
	.align	1
	.globl	device_get_broadcast_ip
	.type	device_get_broadcast_ip, @function
device_get_broadcast_ip:
.LFB7:
	.file 1 "/b-l/DoHome_Light_rgbcw/DoHome_Light_rgbcw/components/doit_server/doit_device_info.c"
	.loc 1 63 1
	.cfi_startproc
	.loc 1 64 5
	.loc 1 63 1 is_stmt 0
	addi	sp,sp,-48
	.cfi_def_cfa_offset 48
	.loc 1 68 5
	addi	a2,sp,20
	addi	a1,sp,16
	addi	a0,sp,12
	.loc 1 63 1
	sw	ra,44(sp)
	.cfi_offset 1, -4
	.loc 1 64 14
	sw	zero,12(sp)
	.loc 1 65 5 is_stmt 1
	.loc 1 65 14 is_stmt 0
	sw	zero,16(sp)
	.loc 1 66 5 is_stmt 1
	.loc 1 66 14 is_stmt 0
	sw	zero,20(sp)
	.loc 1 68 5 is_stmt 1
	call	wifi_mgmr_sta_ip_get
.LVL0:
	.loc 1 69 5
	.loc 1 70 5
	.loc 1 70 39 is_stmt 0
	lw	a5,20(sp)
	.loc 1 70 37
	lw	a4,12(sp)
	.loc 1 73 5
	li	a2,4
	.loc 1 70 39
	not	a5,a5
	.loc 1 70 37
	or	a5,a5,a4
	.loc 1 73 5
	addi	a1,sp,24
	addi	a0,sp,28
	.loc 1 70 14
	sw	a5,24(sp)
	.loc 1 72 5 is_stmt 1
	.loc 1 73 5
	call	memcpy
.LVL1:
	.loc 1 74 5
	.loc 1 74 10
.LBB10:
.LBB11:
	.file 2 "/b-l/bl_iot_sdk/components/bl602/freertos_riscv_ram/portable/GCC/RISC-V/portmacro.h"
	.loc 2 151 5
	.loc 2 151 31 is_stmt 0
	lui	a5,%hi(TrapNetCounter)
.LBE11:
.LBE10:
	.loc 1 74 10
	lw	a5,%lo(TrapNetCounter)(a5)
	beq	a5,zero,.L2
	.loc 1 74 113 discriminator 1
	call	xTaskGetTickCountFromISR
.LVL2:
.L3:
	.loc 1 74 10 discriminator 4
	lbu	a6,31(sp)
	lbu	a5,30(sp)
	lbu	a4,29(sp)
	lbu	a3,28(sp)
	mv	a1,a0
	lui	a2,%hi(.LC0)
	lui	a0,%hi(.LC1)
	addi	a0,a0,%lo(.LC1)
	addi	a2,a2,%lo(.LC0)
	call	bl_printk
.LVL3:
	.loc 1 75 5 is_stmt 1 discriminator 4
	.loc 1 76 1 is_stmt 0 discriminator 4
	lw	ra,44(sp)
	.cfi_remember_state
	.cfi_restore 1
	lw	a0,24(sp)
	addi	sp,sp,48
	.cfi_def_cfa_offset 0
	jr	ra
.L2:
	.cfi_restore_state
	.loc 1 74 142 discriminator 2
	call	xTaskGetTickCount
.LVL4:
	j	.L3
	.cfi_endproc
.LFE7:
	.size	device_get_broadcast_ip, .-device_get_broadcast_ip
	.section	.text.device_get_sta_ip,"ax",@progbits
	.align	1
	.globl	device_get_sta_ip
	.type	device_get_sta_ip, @function
device_get_sta_ip:
.LFB8:
	.loc 1 78 36 is_stmt 1
	.cfi_startproc
.LVL5:
	.loc 1 80 5
	.loc 1 78 36 is_stmt 0
	addi	sp,sp,-32
	.cfi_def_cfa_offset 32
	sw	s0,24(sp)
	.loc 1 84 5
	addi	a2,sp,12
	.cfi_offset 8, -8
	.loc 1 78 36
	mv	s0,a0
	.loc 1 84 5
	addi	a1,sp,8
	addi	a0,sp,4
.LVL6:
	.loc 1 78 36
	sw	ra,28(sp)
	.cfi_offset 1, -4
	.loc 1 80 14
	sw	zero,4(sp)
	.loc 1 81 5 is_stmt 1
	.loc 1 81 14 is_stmt 0
	sw	zero,8(sp)
	.loc 1 82 5 is_stmt 1
	.loc 1 82 14 is_stmt 0
	sw	zero,12(sp)
	.loc 1 84 5 is_stmt 1
	call	wifi_mgmr_sta_ip_get
.LVL7:
	.loc 1 85 5
	addi	a1,sp,4
	mv	a0,s0
	li	a2,4
	call	memcpy
.LVL8:
	.loc 1 86 1 is_stmt 0
	lw	ra,28(sp)
	.cfi_restore 1
	lw	s0,24(sp)
	.cfi_restore 8
.LVL9:
	addi	sp,sp,32
	.cfi_def_cfa_offset 0
	jr	ra
	.cfi_endproc
.LFE8:
	.size	device_get_sta_ip, .-device_get_sta_ip
	.section	.text.device_get_sta_mac,"ax",@progbits
	.align	1
	.globl	device_get_sta_mac
	.type	device_get_sta_mac, @function
device_get_sta_mac:
.LFB9:
	.loc 1 88 38 is_stmt 1
	.cfi_startproc
.LVL10:
	.loc 1 89 5
	lui	a1,%hi(station_mac)
	li	a2,6
	addi	a1,a1,%lo(station_mac)
	tail	memcpy
.LVL11:
	.cfi_endproc
.LFE9:
	.size	device_get_sta_mac, .-device_get_sta_mac
	.section	.text.device_get_dev_id,"ax",@progbits
	.align	1
	.globl	device_get_dev_id
	.type	device_get_dev_id, @function
device_get_dev_id:
.LFB10:
	.loc 1 93 1
	.cfi_startproc
.LVL12:
	.loc 1 94 5
	lui	a1,%hi(dev_id)
	li	a2,64
	addi	a1,a1,%lo(dev_id)
	tail	memcpy
.LVL13:
	.cfi_endproc
.LFE10:
	.size	device_get_dev_id, .-device_get_dev_id
	.section	.text.device_get_dev_key,"ax",@progbits
	.align	1
	.globl	device_get_dev_key
	.type	device_get_dev_key, @function
device_get_dev_key:
.LFB11:
	.loc 1 98 1
	.cfi_startproc
.LVL14:
	.loc 1 99 5
	lui	a1,%hi(dev_key)
	li	a2,33
	addi	a1,a1,%lo(dev_key)
	tail	memcpy
.LVL15:
	.cfi_endproc
.LFE11:
	.size	device_get_dev_key, .-device_get_dev_key
	.section	.text.doit_device_info_init,"ax",@progbits
	.align	1
	.globl	doit_device_info_init
	.type	doit_device_info_init, @function
doit_device_info_init:
.LFB13:
	.loc 1 116 33
	.cfi_startproc
	.loc 1 118 5
.LBB24:
.LBB25:
	.loc 1 54 5
.LBE25:
.LBE24:
	.loc 1 116 33 is_stmt 0
	addi	sp,sp,-160
	.cfi_def_cfa_offset 160
	sw	s0,152(sp)
	.cfi_offset 8, -8
.LBB34:
.LBB30:
	.loc 1 54 5
	lui	s0,%hi(station_mac)
	addi	a0,s0,%lo(station_mac)
.LBE30:
.LBE34:
	.loc 1 116 33
	sw	s2,144(sp)
	sw	ra,156(sp)
	sw	s1,148(sp)
	sw	s3,140(sp)
	sw	s4,136(sp)
	sw	s5,132(sp)
	sw	s6,128(sp)
	sw	s7,124(sp)
	sw	s8,120(sp)
	.cfi_offset 18, -16
	.cfi_offset 1, -4
	.cfi_offset 9, -12
	.cfi_offset 19, -20
	.cfi_offset 20, -24
	.cfi_offset 21, -28
	.cfi_offset 22, -32
	.cfi_offset 23, -36
	.cfi_offset 24, -40
.LBB35:
.LBB31:
.LBB26:
.LBB27:
	.loc 2 151 31
	lui	s2,%hi(TrapNetCounter)
.LBE27:
.LBE26:
	.loc 1 54 5
	call	wifi_mgmr_sta_mac_get
.LVL16:
	.loc 1 55 5 is_stmt 1
	.loc 1 55 10
.LBB29:
.LBB28:
	.loc 2 151 5
.LBE28:
.LBE29:
	.loc 1 55 10 is_stmt 0
	lw	a5,%lo(TrapNetCounter)(s2)
	beq	a5,zero,.L11
	.loc 1 55 124
	call	xTaskGetTickCountFromISR
.LVL17:
.L12:
	.loc 1 55 261
	addi	a3,s0,%lo(station_mac)
	.loc 1 55 10
	lbu	a5,5(a3)
	mv	a1,a0
	lui	s0,%hi(.LC0)
	sw	a5,0(sp)
	lbu	a7,4(a3)
	lbu	a6,3(a3)
	lbu	a5,2(a3)
	lbu	a4,1(a3)
	lbu	a3,0(a3)
	lui	a0,%hi(.LC2)
	addi	a2,s0,%lo(.LC0)
	addi	a0,a0,%lo(.LC2)
	lui	s4,%hi(station_mac)
.LBE31:
.LBE35:
.LBB36:
.LBB37:
	.loc 1 107 9
	lui	s6,%hi(.LC3)
	.loc 1 108 9
	lui	s1,%hi(dev_id)
.LBE37:
.LBE36:
.LBB42:
.LBB32:
	.loc 1 55 10
	call	bl_printk
.LVL18:
.LBE32:
.LBE42:
	.loc 1 119 5 is_stmt 1
.LBB43:
.LBB40:
	.loc 1 104 5
	.loc 1 106 12 is_stmt 0
	li	s3,0
	.loc 1 104 10
	sh	zero,40(sp)
	sb	zero,42(sp)
	.loc 1 105 5 is_stmt 1
	.loc 1 106 5
.LVL19:
	addi	s4,s4,%lo(station_mac)
	li	s8,6
	mv	s7,s6
	mv	s5,s1
.LVL20:
.L13:
	.loc 1 107 9
	.loc 1 107 41 is_stmt 0
	add	a5,s4,s3
	.loc 1 107 9
	lbu	a2,0(a5)
	addi	a1,s6,%lo(.LC3)
	addi	a0,sp,40
	call	sprintf
.LVL21:
	.loc 1 108 9 is_stmt 1
	addi	a1,sp,40
	addi	a0,s1,%lo(dev_id)
	call	doit_strcat
.LVL22:
	.loc 1 109 9
	li	a2,3
	li	a1,0
	addi	a0,sp,40
	.loc 1 106 25 is_stmt 0
	addi	s3,s3,1
.LVL23:
	.loc 1 109 9
	call	memset
.LVL24:
	.loc 1 106 5
	bne	s3,s8,.L13
	.loc 1 111 5 is_stmt 1
	lui	a1,%hi(.LC4)
	addi	a1,a1,%lo(.LC4)
	addi	a0,s1,%lo(dev_id)
	call	doit_strcat
.LVL25:
	.loc 1 112 5
	lui	a1,%hi(.LC5)
	addi	a1,a1,%lo(.LC5)
	addi	a0,s1,%lo(dev_id)
	call	doit_strcat
.LVL26:
	.loc 1 113 5
	.loc 1 113 10
.LBB38:
.LBB39:
	.loc 2 151 5
.LBE39:
.LBE38:
	.loc 1 113 10 is_stmt 0
	lw	a5,%lo(TrapNetCounter)(s2)
	beq	a5,zero,.L14
	.loc 1 113 98
	call	xTaskGetTickCountFromISR
.LVL27:
.L15:
	.loc 1 113 10
	mv	a1,a0
	lui	a0,%hi(.LC6)
	addi	a3,s5,%lo(dev_id)
	addi	a2,s0,%lo(.LC0)
	addi	a0,a0,%lo(.LC6)
	call	bl_printk
.LVL28:
.LBE40:
.LBE43:
	.loc 1 120 5 is_stmt 1
.LBB44:
.LBB45:
	.loc 1 30 5
	.loc 1 31 10 is_stmt 0
	li	a2,70
	li	a1,0
	addi	a0,sp,40
	.loc 1 30 10
	sw	zero,20(sp)
	sw	zero,24(sp)
	sw	zero,28(sp)
	sw	zero,32(sp)
	sb	zero,36(sp)
	.loc 1 31 5 is_stmt 1
	.loc 1 31 10 is_stmt 0
	call	memset
.LVL29:
	.loc 1 33 5 is_stmt 1
	lui	a1,%hi(.LC7)
	addi	a2,s5,%lo(dev_id)
	addi	a1,a1,%lo(.LC7)
	addi	a0,sp,40
	call	sprintf
.LVL30:
	.loc 1 35 5
	addi	a0,sp,40
	call	strlen
.LVL31:
	mv	a1,a0
	addi	a2,sp,20
	addi	a0,sp,40
	call	mbedtls_md5
.LVL32:
	.loc 1 37 5
	lui	s1,%hi(dev_key)
	li	a2,33
	li	a1,0
	addi	a0,s1,%lo(dev_key)
	call	memset
.LVL33:
	.loc 1 39 5
	.loc 1 41 12 is_stmt 0
	li	s3,0
	.loc 1 39 10
	sh	zero,16(sp)
	sb	zero,18(sp)
	.loc 1 40 5 is_stmt 1
	.loc 1 41 5
.LVL34:
	li	s4,16
.LVL35:
.L16:
	.loc 1 42 9
	li	a2,3
	li	a1,0
	addi	a0,sp,16
	call	memset
.LVL36:
	.loc 1 43 9
	.loc 1 43 34 is_stmt 0
	addi	a5,sp,20
	add	a5,a5,s3
	.loc 1 43 9
	lbu	a2,0(a5)
	addi	a1,s7,%lo(.LC3)
	addi	a0,sp,16
	call	sprintf
.LVL37:
	.loc 1 44 9 is_stmt 1
	addi	a1,sp,16
	addi	a0,s1,%lo(dev_key)
	.loc 1 41 26 is_stmt 0
	addi	s3,s3,1
.LVL38:
	.loc 1 44 9
	call	doit_strcat
.LVL39:
	.loc 1 41 5
	bne	s3,s4,.L16
	.loc 1 47 5 is_stmt 1
	.loc 1 47 10
.LBB46:
.LBB47:
	.loc 2 151 5
.LBE47:
.LBE46:
	.loc 1 47 10 is_stmt 0
	lw	a5,%lo(TrapNetCounter)(s2)
	beq	a5,zero,.L17
	.loc 1 47 99
	call	xTaskGetTickCountFromISR
.LVL40:
.L18:
	.loc 1 47 10
	mv	a1,a0
	lui	a0,%hi(.LC8)
	addi	a3,s1,%lo(dev_key)
	addi	a2,s0,%lo(.LC0)
	addi	a0,a0,%lo(.LC8)
	call	bl_printk
.LVL41:
	.loc 1 48 5 is_stmt 1
.LBE45:
.LBE44:
	.loc 1 121 1 is_stmt 0
	lw	ra,156(sp)
	.cfi_remember_state
	.cfi_restore 1
	lw	s0,152(sp)
	.cfi_restore 8
	lw	s1,148(sp)
	.cfi_restore 9
	lw	s2,144(sp)
	.cfi_restore 18
	lw	s3,140(sp)
	.cfi_restore 19
	lw	s4,136(sp)
	.cfi_restore 20
	lw	s5,132(sp)
	.cfi_restore 21
	lw	s6,128(sp)
	.cfi_restore 22
	lw	s7,124(sp)
	.cfi_restore 23
	lw	s8,120(sp)
	.cfi_restore 24
	addi	sp,sp,160
	.cfi_def_cfa_offset 0
	jr	ra
.L11:
	.cfi_restore_state
.LBB49:
.LBB33:
	.loc 1 55 153
	call	xTaskGetTickCount
.LVL42:
	j	.L12
.LVL43:
.L14:
.LBE33:
.LBE49:
.LBB50:
.LBB41:
	.loc 1 113 127
	call	xTaskGetTickCount
.LVL44:
	j	.L15
.LVL45:
.L17:
.LBE41:
.LBE50:
.LBB51:
.LBB48:
	.loc 1 47 128
	call	xTaskGetTickCount
.LVL46:
	j	.L18
.LBE48:
.LBE51:
	.cfi_endproc
.LFE13:
	.size	doit_device_info_init, .-doit_device_info_init
	.comm	station_mac,6,4
	.comm	station_ip,4,4
	.comm	dev_key,33,4
	.comm	dev_id,64,4
	.section	.rodata.device_get_broadcast_ip.str1.4,"aMS",@progbits,1
	.align	2
.LC0:
	.string	"device_info"
.LC1:
	.string	"\033[32m[%10u][%s] broadcast_ip: %d.%d.%d.%d\033[0m\r\n"
	.section	.rodata.doit_device_info_init.str1.4,"aMS",@progbits,1
	.align	2
.LC2:
	.string	"\033[32m[%10u][%s] device_mac: %02x%02x%02x%02x%02x%02x\033[0m\r\n"
	.zero	1
.LC3:
	.string	"%02x"
	.zero	3
.LC4:
	.string	"_DT-WYRGB"
	.zero	2
.LC5:
	.string	"_ESP32"
	.zero	1
.LC6:
	.string	"\033[32m[%10u][%s] dev_id: %s\033[0m\r\n"
	.zero	3
.LC7:
	.string	"%sdoitxf"
	.zero	3
.LC8:
	.string	"\033[32m[%10u][%s] key md5: %s\033[0m\r\n"
	.text
.Letext0:
	.file 3 "/b-l/bl_iot_sdk/toolchain/riscv/Linux/lib/gcc/riscv64-unknown-elf/8.3.0/include/stdint-gcc.h"
	.file 4 "/b-l/DoHome_Light_rgbcw/DoHome_Light_rgbcw/components/doit_server/include/doit_device_info.h"
	.file 5 "/b-l/bl_iot_sdk/components/network/lwip/lwip-port/arch/cc.h"
	.file 6 "/b-l/bl_iot_sdk/toolchain/riscv/Linux/lib/gcc/riscv64-unknown-elf/8.3.0/include/stddef.h"
	.file 7 "/b-l/bl_iot_sdk/toolchain/riscv/Linux/riscv64-unknown-elf/include/sys/_types.h"
	.file 8 "/b-l/bl_iot_sdk/toolchain/riscv/Linux/riscv64-unknown-elf/include/sys/reent.h"
	.file 9 "/b-l/bl_iot_sdk/toolchain/riscv/Linux/riscv64-unknown-elf/include/sys/lock.h"
	.file 10 "/b-l/bl_iot_sdk/toolchain/riscv/Linux/riscv64-unknown-elf/include/stdlib.h"
	.file 11 "/b-l/bl_iot_sdk/toolchain/riscv/Linux/riscv64-unknown-elf/include/ctype.h"
	.file 12 "/b-l/bl_iot_sdk/components/network/lwip/src/include/lwip/err.h"
	.file 13 "/b-l/bl_iot_sdk/components/network/lwip/src/include/lwip/ip4_addr.h"
	.file 14 "/b-l/bl_iot_sdk/components/network/lwip/src/include/lwip/ip_addr.h"
	.file 15 "/b-l/bl_iot_sdk/components/network/lwip/src/include/lwip/pbuf.h"
	.file 16 "/b-l/bl_iot_sdk/components/network/lwip/src/include/lwip/mem.h"
	.file 17 "/b-l/bl_iot_sdk/components/network/lwip/src/include/lwip/priv/memp_priv.h"
	.file 18 "/b-l/bl_iot_sdk/components/network/lwip/src/include/lwip/stats.h"
	.file 19 "/b-l/bl_iot_sdk/components/network/lwip/src/include/lwip/memp.h"
	.file 20 "/b-l/bl_iot_sdk/components/network/lwip/src/include/lwip/netif.h"
	.file 21 "/b-l/bl_iot_sdk/components/bl602/bl602_wifidrv/bl60x_wifi_driver/include/wifi_mgmr_ext.h"
	.file 22 "/b-l/bl_iot_sdk/components/bl602/freertos_riscv_ram/config/task.h"
	.file 23 "/b-l/bl_iot_sdk/components/utils/include/utils_log.h"
	.file 24 "/b-l/bl_iot_sdk/toolchain/riscv/Linux/riscv64-unknown-elf/include/stdio.h"
	.file 25 "/b-l/DoHome_Light_rgbcw/DoHome_Light_rgbcw/components/doit_server/include/doit_utils.h"
	.file 26 "/b-l/bl_iot_sdk/toolchain/riscv/Linux/riscv64-unknown-elf/include/string.h"
	.file 27 "/b-l/bl_iot_sdk/components/security/mbedtls/include/mbedtls/md5.h"
	.file 28 "<built-in>"