	.file	"doit_udp_control.c"
	.option nopic
	.attribute arch, "rv32i2p0_m2p0_f2p0_c2p0"
	.attribute unaligned_access, 0
	.attribute stack_align, 16
	.text
.Ltext0:
	.cfi_sections	.debug_frame
	.section	.text.udp_send_discovery_data,"ax",@progbits
	.align	1
	.type	udp_send_discovery_data, @function
udp_send_discovery_data:
.LFB10:
	.file 1 "/b-l/DoHome_Light_rgbcw/DoHome_Light_rgbcw/components/doit_server/doit_udp_control.c"
	.loc 1 166 1
	.cfi_startproc
.LVL0:
	.loc 1 167 2
	.loc 1 166 1 is_stmt 0
	addi	sp,sp,-64
	.cfi_def_cfa_offset 64
	.loc 1 167 2
	li	a0,100
.LVL1:
	.loc 1 166 1
	sw	s0,56(sp)
	sw	ra,60(sp)
	sw	s1,52(sp)
	sw	s2,48(sp)
	sw	s3,44(sp)
	sw	s4,40(sp)
	sw	s5,36(sp)
	sw	s6,32(sp)
	sw	s7,28(sp)
	sw	s8,24(sp)
	sw	s9,20(sp)
	.cfi_offset 8, -8
	.cfi_offset 1, -4
	.cfi_offset 9, -12
	.cfi_offset 18, -16
	.cfi_offset 19, -20
	.cfi_offset 20, -24
	.cfi_offset 21, -28
	.cfi_offset 22, -32
	.cfi_offset 23, -36
	.cfi_offset 24, -40
	.cfi_offset 25, -44
.LBB42:
.LBB43:
	.file 2 "/b-l/bl_iot_sdk/components/bl602/freertos_riscv_ram/portable/GCC/RISC-V/portmacro.h"
	.loc 2 151 31
	lui	s0,%hi(TrapNetCounter)
.LBE43:
.LBE42:
	.loc 1 167 2
	call	vTaskDelay
.LVL2:
	.loc 1 169 2 is_stmt 1
	.loc 1 171 2
	.loc 1 171 7
.LBB45:
.LBB44:
	.loc 2 151 5
.LBE44:
.LBE45:
	.loc 1 171 7 is_stmt 0
	lw	a5,%lo(TrapNetCounter)(s0)
	beq	a5,zero,.L2
	.loc 1 171 118 discriminator 1
	call	xTaskGetTickCountFromISR
.LVL3:
.L3:
	.loc 1 171 7 discriminator 4
	mv	a1,a0
	lui	s1,%hi(.LC0)
	lui	a0,%hi(.LC1)
	addi	a2,s1,%lo(.LC0)
	addi	a0,a0,%lo(.LC1)
	call	bl_printk
.LVL4:
	.loc 1 173 2 is_stmt 1 discriminator 4
	.loc 1 173 18 is_stmt 0 discriminator 4
	call	device_get_broadcast_ip
.LVL5:
	.loc 1 176 7 discriminator 4
	lw	a5,%lo(TrapNetCounter)(s0)
	.loc 1 173 18 discriminator 4
	mv	s2,a0
.LVL6:
	.loc 1 174 2 is_stmt 1 discriminator 4
	.loc 1 176 2 discriminator 4
	.loc 1 176 7 discriminator 4
.LBB46:
.LBB47:
	.loc 2 151 5 discriminator 4
.LBE47:
.LBE46:
	.loc 1 176 7 is_stmt 0 discriminator 4
	beq	a5,zero,.L4
	.loc 1 176 113 discriminator 1
	call	xTaskGetTickCountFromISR
.LVL7:
.L5:
	.loc 1 176 7 discriminator 4
	mv	a1,a0
	.loc 1 176 204 discriminator 4
	srli	a5,s2,16
	.loc 1 176 194 discriminator 4
	srli	a4,s2,8
	.loc 1 176 7 discriminator 4
	li	a7,4096
	lui	a0,%hi(.LC2)
	andi	a5,a5,0xff
	addi	a7,a7,1999
	srli	a6,s2,24
	andi	a4,a4,0xff
	andi	a3,s2,0xff
	addi	a2,s1,%lo(.LC0)
	addi	a0,a0,%lo(.LC2)
	call	bl_printk
.LVL8:
	.loc 1 179 2 is_stmt 1 discriminator 4
	.loc 1 179 18 is_stmt 0 discriminator 4
	li	a2,0
	li	a1,2
	li	a0,2
	call	lwip_socket
.LVL9:
	mv	s3,a0
.LVL10:
	.loc 1 181 2 is_stmt 1 discriminator 4
	.loc 1 182 8 is_stmt 0 discriminator 4
	lw	a5,%lo(TrapNetCounter)(s0)
	.loc 1 181 5 discriminator 4
	bge	a0,zero,.L6
	.loc 1 182 3 is_stmt 1
	.loc 1 182 8
.LBB48:
.LBB49:
	.loc 2 151 5
.LBE49:
.LBE48:
	.loc 1 182 8 is_stmt 0
	beq	a5,zero,.L7
	.loc 1 182 130 discriminator 1
	call	xTaskGetTickCountFromISR
.LVL11:
.L8:
	.loc 1 182 8 discriminator 4
	mv	a1,a0
	lui	a3,%hi(.LC3)
	lui	a0,%hi(.LC4)
	addi	a0,a0,%lo(.LC4)
	li	a4,182
	addi	a3,a3,%lo(.LC3)
	addi	a2,s1,%lo(.LC0)
	call	bl_printk
.LVL12:
	.loc 1 183 3 is_stmt 1 discriminator 4
	mv	a0,s3
	call	lwip_close
.LVL13:
.L9:
	.loc 1 189 2
	.loc 1 190 25 is_stmt 0
	li	a0,4096
	.loc 1 189 25
	li	a5,2
	.loc 1 190 25
	addi	a0,a0,1999
	.loc 1 189 25
	sb	a5,1(sp)
	.loc 1 190 2 is_stmt 1
	.loc 1 190 25 is_stmt 0
	call	lwip_htons
.LVL14:
	.loc 1 190 23
	sh	a0,2(sp)
	.loc 1 191 2 is_stmt 1
	.loc 1 191 30 is_stmt 0
	sw	s2,4(sp)
	.loc 1 194 6
	lui	s4,%hi(.LANCHOR0)
	.loc 1 195 9
	lui	s6,%hi(.LANCHOR1)
	lui	s7,%hi(.LC6)
	.loc 1 196 4
	lui	s5,%hi(.LANCHOR2)
	.loc 1 200 7
	li	s8,59
.LVL15:
.L12:
	.loc 1 193 2 is_stmt 1
	.loc 1 194 3
	.loc 1 194 5 is_stmt 0
	lbu	a5,%lo(.LANCHOR0)(s4)
	addi	s9,s4,%lo(.LANCHOR0)
	beq	a5,zero,.L13
	.loc 1 195 4 is_stmt 1
	.loc 1 195 9
.LBB50:
.LBB51:
	.loc 2 151 5
.LBE51:
.LBE50:
	.loc 1 195 9 is_stmt 0
	lw	a5,%lo(TrapNetCounter)(s0)
	beq	a5,zero,.L14
	.loc 1 195 115 discriminator 1
	call	xTaskGetTickCountFromISR
.LVL16:
.L15:
	.loc 1 195 9 discriminator 4
	addi	s2,s6,%lo(.LANCHOR1)
	lw	a3,0(s2)
	mv	a1,a0
	addi	a2,s1,%lo(.LC0)
	addi	a0,s7,%lo(.LC6)
	call	bl_printk
.LVL17:
	.loc 1 196 4 is_stmt 1 discriminator 4
	addi	a0,s5,%lo(.LANCHOR2)
	call	strlen
.LVL18:
	li	a5,16
	mv	a2,a0
	mv	a4,sp
	li	a3,0
	addi	a1,s5,%lo(.LANCHOR2)
	mv	a0,s3
	call	lwip_sendto
.LVL19:
	.loc 1 198 4 discriminator 4
	.loc 1 198 24 is_stmt 0 discriminator 4
	lw	a5,0(s2)
	addi	a5,a5,1
	.loc 1 200 4 is_stmt 1 discriminator 4
	.loc 1 200 7 is_stmt 0 discriminator 4
	bgt	a5,s8,.L16
	.loc 1 198 24
	sw	a5,0(s2)
.L17:
	.loc 1 204 4 is_stmt 1
	li	a0,500
.L20:
	.loc 1 206 4 is_stmt 0
	call	vTaskDelay
.LVL20:
	j	.L12
.LVL21:
.L2:
	.loc 1 171 147 discriminator 2
	call	xTaskGetTickCount
.LVL22:
	j	.L3
.LVL23:
.L4:
	.loc 1 176 142 discriminator 2
	call	xTaskGetTickCount
.LVL24:
	j	.L5
.LVL25:
.L7:
	.loc 1 182 159 discriminator 2
	call	xTaskGetTickCount
.LVL26:
	j	.L8
.LVL27:
.L6:
	.loc 1 185 3 is_stmt 1
	.loc 1 185 8
.LBB52:
.LBB53:
	.loc 2 151 5
.LBE53:
.LBE52:
	.loc 1 185 8 is_stmt 0
	beq	a5,zero,.L10
	.loc 1 185 119 discriminator 1
	call	xTaskGetTickCountFromISR
.LVL28:
.L11:
	.loc 1 185 8 discriminator 4
	mv	a1,a0
	lui	a0,%hi(.LC5)
	addi	a2,s1,%lo(.LC0)
	addi	a0,a0,%lo(.LC5)
	call	bl_printk
.LVL29:
	j	.L9
.LVL30:
.L10:
	.loc 1 185 148 discriminator 2
	call	xTaskGetTickCount
.LVL31:
	j	.L11
.LVL32:
.L14:
	.loc 1 195 144 discriminator 2
	call	xTaskGetTickCount
.LVL33:
	j	.L15
.L16:
	.loc 1 201 5 is_stmt 1
	.loc 1 201 26 is_stmt 0
	sw	zero,0(s2)
	.loc 1 202 5 is_stmt 1
	.loc 1 202 25 is_stmt 0
	sb	zero,0(s9)
	j	.L17
.L13:
	.loc 1 206 4 is_stmt 1
	li	a0,1000
	j	.L20
	.cfi_endproc
.LFE10:
	.size	udp_send_discovery_data, .-udp_send_discovery_data
	.section	.text.udp_send_msg,"ax",@progbits
	.align	1
	.type	udp_send_msg, @function
udp_send_msg:
.LFB6:
	.loc 1 62 1
	.cfi_startproc
.LVL34:
	addi	sp,sp,-32
	.cfi_def_cfa_offset 32
	sw	s3,12(sp)
	.cfi_offset 19, -20
	mv	s3,a1
	.loc 1 63 21 is_stmt 0
	slli	a1,a4,16
.LVL35:
	.loc 1 62 1
	sw	s2,16(sp)
	sw	s4,8(sp)
	.cfi_offset 18, -16
	.cfi_offset 20, -24
	mv	s2,a0
	mv	s4,a2
	.loc 1 63 21
	srli	a1,a1,16
	li	a2,640
.LVL36:
	li	a0,182
.LVL37:
	.loc 1 62 1
	sw	s1,20(sp)
	sw	s5,4(sp)
	sw	ra,28(sp)
	sw	s0,24(sp)
	.cfi_offset 9, -12
	.cfi_offset 21, -28
	.cfi_offset 1, -4
	.cfi_offset 8, -8
	.loc 1 62 1
	mv	s5,a3
	.loc 1 63 2 is_stmt 1
	.loc 1 62 1 is_stmt 0
	mv	s1,a4
	.loc 1 63 21
	call	pbuf_alloc
.LVL38:
	.loc 1 64 2 is_stmt 1
	.loc 1 64 5 is_stmt 0
	bne	a0,zero,.L22
.LVL39:
.LBB58:
.LBB59:
	.loc 1 65 3 is_stmt 1
	.loc 1 65 8
.LBB60:
.LBB61:
	.loc 2 151 5
	.loc 2 151 31 is_stmt 0
	lui	a5,%hi(TrapNetCounter)
.LBE61:
.LBE60:
	.loc 1 65 8
	lw	a5,%lo(TrapNetCounter)(a5)
	beq	a5,zero,.L23
	.loc 1 65 114
	call	xTaskGetTickCountFromISR
.LVL40:
.L24:
	.loc 1 65 8
	mv	a1,a0
	lui	a3,%hi(.LC3)
	lui	a2,%hi(.LC0)
	lui	a0,%hi(.LC7)
	addi	a0,a0,%lo(.LC7)
	li	a4,65
	addi	a3,a3,%lo(.LC3)
	addi	a2,a2,%lo(.LC0)
	call	bl_printk
.LVL41:
	.loc 1 66 3 is_stmt 1
	.loc 1 65 8 is_stmt 0
	li	a0,0
.L25:
.LBE59:
.LBE58:
	.loc 1 73 1
	lw	ra,28(sp)
	.cfi_remember_state
	.cfi_restore 1
	lw	s0,24(sp)
	.cfi_restore 8
	lw	s1,20(sp)
	.cfi_restore 9
.LVL42:
	lw	s2,16(sp)
	.cfi_restore 18
.LVL43:
	lw	s3,12(sp)
	.cfi_restore 19
.LVL44:
	lw	s4,8(sp)
	.cfi_restore 20
	lw	s5,4(sp)
	.cfi_restore 21
.LVL45:
	addi	sp,sp,32
	.cfi_def_cfa_offset 0
	jr	ra
.LVL46:
.L23:
	.cfi_restore_state
.LBB63:
.LBB62:
	.loc 1 65 143
	call	xTaskGetTickCount
.LVL47:
	j	.L24
.LVL48:
.L22:
	mv	s0,a0
.LBE62:
.LBE63:
	.loc 1 68 2 is_stmt 1
	lhu	a2,10(a0)
	lw	a0,4(a0)
.LVL49:
	li	a1,0
	call	memset
.LVL50:
	.loc 1 69 2
	lw	a0,4(s0)
	mv	a2,s1
	mv	a1,s5
	call	memcpy
.LVL51:
	.loc 1 70 2
	mv	a3,s4
	mv	a2,s3
	mv	a1,s0
	mv	a0,s2
	call	udp_sendto
.LVL52:
	.loc 1 71 2
	mv	a0,s0
	call	pbuf_free
.LVL53:
	.loc 1 72 2
	.loc 1 72 9 is_stmt 0
	li	a0,1
	j	.L25
	.cfi_endproc
.LFE6:
	.size	udp_send_msg, .-udp_send_msg
	.section	.text.udpecho_raw_recv,"ax",@progbits
	.align	1
	.type	udpecho_raw_recv, @function
udpecho_raw_recv:
.LFB8:
	.loc 1 139 1 is_stmt 1
	.cfi_startproc
.LVL54:
	.loc 1 140 2
	.loc 1 141 2
	.loc 1 139 1 is_stmt 0
	addi	sp,sp,-64
	.cfi_def_cfa_offset 64
	sw	s1,52(sp)
	sw	s2,48(sp)
	sw	ra,60(sp)
	sw	s0,56(sp)
	sw	s3,44(sp)
	sw	s4,40(sp)
	sw	s5,36(sp)
	sw	s6,32(sp)
	sw	s7,28(sp)
	sw	s8,24(sp)
	sw	s9,20(sp)
	.cfi_offset 9, -12
	.cfi_offset 18, -16
	.cfi_offset 1, -4
	.cfi_offset 8, -8
	.cfi_offset 19, -20
	.cfi_offset 20, -24
	.cfi_offset 21, -28
	.cfi_offset 22, -32
	.cfi_offset 23, -36
	.cfi_offset 24, -40
	.cfi_offset 25, -44
	lui	s2,%hi(TrapNetCounter)
	lui	s1,%hi(.LC0)
	.loc 1 141 5
	bne	a2,zero,.L28
.LVL55:
.LBB86:
.LBB87:
	.loc 1 142 3 is_stmt 1
	.loc 1 142 8
.LBB88:
.LBB89:
	.loc 2 151 5
.LBE89:
.LBE88:
	.loc 1 142 8 is_stmt 0
	lw	a5,%lo(TrapNetCounter)(s2)
	beq	a5,zero,.L29
	.loc 1 142 106
	call	xTaskGetTickCountFromISR
.LVL56:
.L30:
	.loc 1 142 8
	lui	a3,%hi(.LC3)
	mv	a1,a0
	lui	a0,%hi(.LC8)
	li	a4,142
	addi	a3,a3,%lo(.LC3)
	addi	a2,s1,%lo(.LC0)
	addi	a0,a0,%lo(.LC8)
	call	bl_printk
.LVL57:
	.loc 1 143 3 is_stmt 1
.L27:
.LBE87:
.LBE86:
	.loc 1 150 1 is_stmt 0
	lw	ra,60(sp)
	.cfi_remember_state
	.cfi_restore 1
	lw	s0,56(sp)
	.cfi_restore 8
	lw	s1,52(sp)
	.cfi_restore 9
	lw	s2,48(sp)
	.cfi_restore 18
	lw	s3,44(sp)
	.cfi_restore 19
	lw	s4,40(sp)
	.cfi_restore 20
	lw	s5,36(sp)
	.cfi_restore 21
	lw	s6,32(sp)
	.cfi_restore 22
	lw	s7,28(sp)
	.cfi_restore 23
	lw	s8,24(sp)
	.cfi_restore 24
	lw	s9,20(sp)
	.cfi_restore 25
	addi	sp,sp,64
	.cfi_def_cfa_offset 0
	jr	ra
.LVL58:
.L29:
	.cfi_restore_state
.LBB91:
.LBB90:
	.loc 1 142 135
	call	xTaskGetTickCount
.LVL59:
	j	.L30
.LVL60:
.L28:
.LBE90:
.LBE91:
	.loc 1 147 51
	lw	s0,4(a2)
	mv	s6,a1
.LBB92:
.LBB93:
	.loc 1 79 20
	li	a1,125
.LVL61:
	mv	a0,s0
.LVL62:
	mv	s5,a2
	mv	s7,a3
	mv	s8,a4
.LBE93:
.LBE92:
	.loc 1 147 2 is_stmt 1
	.loc 1 147 63 is_stmt 0
	lhu	s9,10(a2)
.LVL63:
.LBB117:
.LBB115:
	.loc 1 79 2 is_stmt 1
	.loc 1 79 20 is_stmt 0
	call	doit_strrchr
.LVL64:
	.loc 1 80 2 is_stmt 1
	.loc 1 80 4 is_stmt 0
	beq	a0,zero,.L32
	.loc 1 81 3 is_stmt 1
	.loc 1 81 18 is_stmt 0
	sb	zero,1(a0)
.L32:
	.loc 1 84 2 is_stmt 1
	.loc 1 84 7
.LBB94:
.LBB95:
	.loc 2 151 5
.LBE95:
.LBE94:
	.loc 1 84 7 is_stmt 0
	lw	a5,%lo(TrapNetCounter)(s2)
	beq	a5,zero,.L33
	.loc 1 84 100
	call	xTaskGetTickCountFromISR
.LVL65:
.L34:
	.loc 1 84 7
	mv	a1,a0
	lui	a0,%hi(.LC9)
	addi	a0,a0,%lo(.LC9)
	mv	a3,s0
	addi	a2,s1,%lo(.LC0)
	call	bl_printk
.LVL66:
	.loc 1 86 2 is_stmt 1
	.loc 1 86 6 is_stmt 0
	lui	a1,%hi(.LC10)
	addi	a1,a1,%lo(.LC10)
	mv	a0,s0
	call	strstr
.LVL67:
	.loc 1 86 5
	beq	a0,zero,.L35
	.loc 1 87 3 is_stmt 1
	.loc 1 87 8
.LBB96:
.LBB97:
	.loc 2 151 5
.LBE97:
.LBE96:
	.loc 1 87 8 is_stmt 0
	lw	a5,%lo(TrapNetCounter)(s2)
	beq	a5,zero,.L36
	.loc 1 87 104
	call	xTaskGetTickCountFromISR
.LVL68:
.L37:
	.loc 1 87 8
	mv	a1,a0
	lui	a0,%hi(.LC11)
	addi	a2,s1,%lo(.LC0)
	addi	a0,a0,%lo(.LC11)
	call	bl_printk
.LVL69:
	.loc 1 89 3 is_stmt 1
	.loc 1 89 48 is_stmt 0
	lui	s0,%hi(.LANCHOR2)
.LVL70:
	addi	a0,s0,%lo(.LANCHOR2)
	call	strlen
.LVL71:
	.loc 1 89 3
	mv	a4,a0
	addi	a3,s0,%lo(.LANCHOR2)
	mv	a2,s8
	mv	a1,s7
	mv	a0,s6
	call	udp_send_msg
.LVL72:
.L38:
.LBE115:
.LBE117:
	.loc 1 149 2 is_stmt 1
	mv	a0,s5
	call	pbuf_free
.LVL73:
	j	.L27
.LVL74:
.L33:
.LBB118:
.LBB116:
	.loc 1 84 129 is_stmt 0
	call	xTaskGetTickCount
.LVL75:
	j	.L34
.L36:
	.loc 1 87 133
	call	xTaskGetTickCount
.LVL76:
	j	.L37
.L35:
	.loc 1 91 9 is_stmt 1
	.loc 1 91 13 is_stmt 0
	lui	a1,%hi(.LC12)
	addi	a1,a1,%lo(.LC12)
	mv	a0,s0
	call	strstr
.LVL77:
	.loc 1 91 12
	beq	a0,zero,.L39
.LBB98:
	.loc 1 93 3 is_stmt 1
	.loc 1 94 54 is_stmt 0
	lui	a5,%hi(station_mac)
	addi	a5,a5,%lo(station_mac)
	.loc 1 94 3
	lbu	a3,5(a5)
	lbu	a2,4(a5)
	lui	a1,%hi(.LC13)
	addi	a1,a1,%lo(.LC13)
	addi	a0,sp,8
	.loc 1 93 8
	sw	zero,8(sp)
	sw	zero,12(sp)
	.loc 1 94 3 is_stmt 1
	call	sprintf
.LVL78:
	.loc 1 98 3
	.loc 1 98 9 is_stmt 0
	addi	a1,sp,8
	mv	a0,s0
	call	strstr
.LVL79:
	.loc 1 98 6
	beq	a0,zero,.L38
	.loc 1 98 38
	addi	a1,sp,8
	mv	a0,s0
	call	strstr
.LVL80:
	.loc 1 98 57
	lui	s3,%hi(.LC14)
	.loc 1 98 38
	mv	s4,a0
	.loc 1 98 57
	addi	a1,s3,%lo(.LC14)
	mv	a0,s0
	call	strstr
.LVL81:
	.loc 1 98 34
	bgeu	s4,a0,.L38
.LBB99:
	.loc 1 102 4 is_stmt 1
	.loc 1 102 19 is_stmt 0
	addi	a1,s3,%lo(.LC14)
	mv	a0,s0
	call	strstr
.LVL82:
	mv	s4,a0
.LVL83:
	.loc 1 105 4 is_stmt 1
	.loc 1 105 7 is_stmt 0
	beq	a0,zero,.L38
.LBB100:
	.loc 1 106 5 is_stmt 1
	.loc 1 106 17 is_stmt 0
	li	a0,256
.LVL84:
	call	malloc
.LVL85:
	mv	s3,a0
.LVL86:
	.loc 1 108 5 is_stmt 1
	.loc 1 108 8 is_stmt 0
	bne	a0,zero,.L43
	.loc 1 109 6 is_stmt 1
	.loc 1 109 11
.LBB101:
.LBB102:
	.loc 2 151 5
.LBE102:
.LBE101:
	.loc 1 109 11 is_stmt 0
	lw	a5,%lo(TrapNetCounter)(s2)
	beq	a5,zero,.L44
	.loc 1 109 125
	call	xTaskGetTickCountFromISR
.LVL87:
.L45:
	.loc 1 109 11
	mv	a1,a0
	lui	a3,%hi(.LC3)
	lui	a0,%hi(.LC15)
	li	a4,109
	addi	a3,a3,%lo(.LC3)
	addi	a2,s1,%lo(.LC0)
	addi	a0,a0,%lo(.LC15)
	call	bl_printk
.LVL88:
	.loc 1 110 6 is_stmt 1
	j	.L38
.LVL89:
.L44:
	.loc 1 109 154 is_stmt 0
	call	xTaskGetTickCount
.LVL90:
	j	.L45
.LVL91:
.L43:
	.loc 1 113 5 is_stmt 1
	lui	a2,%hi(dev_id)
	lui	a1,%hi(.LC16)
	addi	a2,a2,%lo(dev_id)
	addi	a1,a1,%lo(.LC16)
	call	sprintf
.LVL92:
	.loc 1 115 5
	addi	s4,s4,3
.LVL93:
	.loc 1 115 57 is_stmt 0
	sub	s0,s4,s0
.LVL94:
	.loc 1 115 72
	mv	a0,s3
	call	strlen
.LVL95:
	.loc 1 115 5
	sub	s9,s9,s0
.LVL96:
	add	a2,s3,a0
	mv	a1,s9
	mv	a0,s4
	call	parse_dohome_protocol
.LVL97:
	.loc 1 116 5 is_stmt 1
	.loc 1 116 10
.LBB103:
.LBB104:
	.loc 2 151 5
.LBE104:
.LBE103:
	.loc 1 116 10 is_stmt 0
	lw	a5,%lo(TrapNetCounter)(s2)
	beq	a5,zero,.L46
	.loc 1 116 104
	call	xTaskGetTickCountFromISR
.LVL98:
.L47:
	.loc 1 116 10
	mv	a1,a0
	lui	a0,%hi(.LC17)
	mv	a3,s3
	addi	a2,s1,%lo(.LC0)
	addi	a0,a0,%lo(.LC17)
	call	bl_printk
.LVL99:
	.loc 1 117 5 is_stmt 1
	.loc 1 117 40 is_stmt 0
	mv	a0,s3
	call	strlen
.LVL100:
	.loc 1 117 5
	mv	a4,a0
	mv	a3,s3
	mv	a2,s8
	mv	a1,s7
	mv	a0,s6
	call	udp_send_msg
.LVL101:
	.loc 1 119 5 is_stmt 1
	mv	a0,s3
.LVL102:
.L62:
.LBE100:
.LBE99:
.LBE98:
.LBB107:
	.loc 1 131 3 is_stmt 0
	call	free
.LVL103:
	j	.L38
.LVL104:
.L46:
.LBE107:
.LBB110:
.LBB106:
.LBB105:
	.loc 1 116 133
	call	xTaskGetTickCount
.LVL105:
	j	.L47
.LVL106:
.L39:
.LBE105:
.LBE106:
.LBE110:
	.loc 1 122 8 is_stmt 1
	.loc 1 122 12 is_stmt 0
	lui	a1,%hi(.LC18)
	addi	a1,a1,%lo(.LC18)
	mv	a0,s0
	call	strstr
.LVL107:
	.loc 1 122 11
	beq	a0,zero,.L48
.LBB111:
	.loc 1 123 3 is_stmt 1
.LVL108:
	.loc 1 124 3
	.loc 1 124 15 is_stmt 0
	li	a0,16
	call	malloc
.LVL109:
	mv	s0,a0
.LVL110:
	.loc 1 125 3 is_stmt 1
	.loc 1 125 6 is_stmt 0
	bne	a0,zero,.L49
	.loc 1 126 4 is_stmt 1
	.loc 1 126 9
.LBB108:
.LBB109:
	.loc 2 151 5
.LBE109:
.LBE108:
	.loc 1 126 9 is_stmt 0
	lw	a5,%lo(TrapNetCounter)(s2)
	beq	a5,zero,.L50
	.loc 1 126 116
	call	xTaskGetTickCountFromISR
.LVL111:
.L51:
	.loc 1 126 9
	mv	a1,a0
	lui	a0,%hi(.LC19)
	addi	a2,s1,%lo(.LC0)
	addi	a0,a0,%lo(.LC19)
.LVL112:
.L61:
.LBE111:
	.loc 1 134 8
	call	bl_printk
.LVL113:
	j	.L38
.LVL114:
.L50:
.LBB112:
	.loc 1 126 145
	call	xTaskGetTickCount
.LVL115:
	j	.L51
.L49:
	.loc 1 129 3 is_stmt 1
	lui	a1,%hi(.LC20)
	li	a2,1
	addi	a1,a1,%lo(.LC20)
	call	sprintf
.LVL116:
	.loc 1 130 3
	.loc 1 130 38 is_stmt 0
	mv	a0,s0
	call	strlen
.LVL117:
	.loc 1 130 3
	mv	a4,a0
	mv	a3,s0
	mv	a2,s8
	mv	a1,s7
	mv	a0,s6
	call	udp_send_msg
.LVL118:
	.loc 1 131 3 is_stmt 1
	mv	a0,s0
	j	.L62
.LVL119:
.L48:
.LBE112:
	.loc 1 134 3
	.loc 1 134 8
.LBB113:
.LBB114:
	.loc 2 151 5
.LBE114:
.LBE113:
	.loc 1 134 8 is_stmt 0
	lw	a5,%lo(TrapNetCounter)(s2)
	beq	a5,zero,.L52
	.loc 1 134 107
	call	xTaskGetTickCountFromISR
.LVL120:
.L53:
	.loc 1 134 8
	mv	a1,a0
	lui	a0,%hi(.LC21)
	addi	a2,s1,%lo(.LC0)
	addi	a0,a0,%lo(.LC21)
	j	.L61
.L52:
	.loc 1 134 136
	call	xTaskGetTickCount
.LVL121:
	j	.L53
.LBE116:
.LBE118:
	.cfi_endproc
.LFE8:
	.size	udpecho_raw_recv, .-udpecho_raw_recv
	.section	.text.doit_udp_control_init,"ax",@progbits
	.align	1
	.globl	doit_udp_control_init
	.type	doit_udp_control_init, @function
doit_udp_control_init:
.LFB11:
	.loc 1 218 1 is_stmt 1
	.cfi_startproc
	.loc 1 220 2
.LBB129:
.LBB130:
	.loc 1 38 2
.LBE130:
.LBE129:
	.loc 1 218 1 is_stmt 0
	addi	sp,sp,-80
	.cfi_def_cfa_offset 80
.LBB136:
.LBB133:
	.loc 1 39 2
	addi	a0,sp,44
.LBE133:
.LBE136:
	.loc 1 218 1
	sw	ra,76(sp)
	sw	s0,72(sp)
	sw	s3,60(sp)
	sw	s1,68(sp)
	sw	s2,64(sp)
	sw	s4,56(sp)
	.cfi_offset 1, -4
	.cfi_offset 8, -8
	.cfi_offset 19, -20
	.cfi_offset 9, -12
	.cfi_offset 18, -16
	.cfi_offset 20, -24
.LBB137:
.LBB134:
	.loc 1 38 10
	sw	zero,44(sp)
	.loc 1 39 2 is_stmt 1
	call	device_get_sta_ip
.LVL122:
	.loc 1 40 5
	lui	a5,%hi(.LC23+1)
	addi	a5,a5,%lo(.LC23+1)
	sw	a5,20(sp)
	lui	a5,%hi(.LC24)
	addi	a5,a5,%lo(.LC24)
	sw	a5,16(sp)
	lui	a5,%hi(.LC25)
	addi	a5,a5,%lo(.LC25)
	sw	a5,12(sp)
	.loc 1 52 40 is_stmt 0
	lui	a5,%hi(station_mac)
	addi	a5,a5,%lo(station_mac)
	.loc 1 40 5
	lbu	a4,5(a5)
	lbu	a3,45(sp)
	lbu	a2,44(sp)
	sw	a4,8(sp)
	lbu	a5,4(a5)
	lbu	a4,46(sp)
	lui	s0,%hi(.LANCHOR2)
	sw	a5,4(sp)
	lui	a5,%hi(.LC26)
	addi	a5,a5,%lo(.LC26)
	sw	a5,0(sp)
	lbu	a5,47(sp)
	lui	a7,%hi(dev_key)
	lui	a6,%hi(dev_id)
	lui	a1,%hi(.LC22)
	addi	a7,a7,%lo(dev_key)
	addi	a6,a6,%lo(dev_id)
	addi	a1,a1,%lo(.LC22)
	addi	a0,s0,%lo(.LANCHOR2)
	call	sprintf
.LVL123:
	.loc 1 58 5 is_stmt 1
	.loc 1 58 10
.LBB131:
.LBB132:
	.loc 2 151 5
	.loc 2 151 31 is_stmt 0
	lui	s3,%hi(TrapNetCounter)
.LBE132:
.LBE131:
	.loc 1 58 10
	lw	a5,%lo(TrapNetCounter)(s3)
	beq	a5,zero,.L64
	.loc 1 58 105
	call	xTaskGetTickCountFromISR
.LVL124:
.L65:
	.loc 1 58 10
	addi	a3,s0,%lo(.LANCHOR2)
	mv	a1,a0
	lui	s0,%hi(.LC0)
	lui	a0,%hi(.LC27)
	addi	a2,s0,%lo(.LC0)
	addi	a0,a0,%lo(.LC27)
	call	bl_printk
.LVL125:
.LBE134:
.LBE137:
	.loc 1 221 2 is_stmt 1
	.loc 1 221 22 is_stmt 0
	lui	a5,%hi(.LANCHOR0)
	li	a4,1
	sb	a4,%lo(.LANCHOR0)(a5)
	.loc 1 222 2 is_stmt 1
	.loc 1 222 23 is_stmt 0
	lui	a5,%hi(.LANCHOR1)
	sw	zero,%lo(.LANCHOR1)(a5)
	.loc 1 224 2 is_stmt 1
	.loc 1 224 5 is_stmt 0
	lui	a5,%hi(.LANCHOR3)
	.loc 1 224 4
	lw	a4,%lo(.LANCHOR3)(a5)
	mv	s1,a5
	bne	a4,zero,.L63
	.loc 1 225 3 is_stmt 1
.LBB138:
.LBB139:
	.loc 1 154 2
	.loc 1 154 7
.LBB140:
.LBB141:
	.loc 2 151 5
.LBE141:
.LBE140:
	.loc 1 154 7 is_stmt 0
	lw	a5,%lo(TrapNetCounter)(s3)
	beq	a5,zero,.L68
	.loc 1 154 123
	call	xTaskGetTickCountFromISR
.LVL126:
.L69:
	.loc 1 154 7
	mv	a1,a0
	li	s2,4096
	lui	a0,%hi(.LC28)
	addi	a3,s2,1995
	addi	a2,s0,%lo(.LC0)
	addi	a0,a0,%lo(.LC28)
	call	bl_printk
.LVL127:
	.loc 1 156 2 is_stmt 1
	.loc 1 157 2
	.loc 1 157 8 is_stmt 0
	call	udp_new
.LVL128:
	.loc 1 158 2
	lui	a1,%hi(ip_addr_any)
	addi	a2,s2,1995
	addi	a1,a1,%lo(ip_addr_any)
	.loc 1 157 8
	mv	s4,a0
.LVL129:
	.loc 1 158 2 is_stmt 1
	call	udp_bind
.LVL130:
	.loc 1 160 2
	lui	a1,%hi(udpecho_raw_recv)
	mv	a2,s4
	addi	a1,a1,%lo(udpecho_raw_recv)
	mv	a0,s4
	call	udp_recv
.LVL131:
	.loc 1 162 2
.LBE139:
.LBE138:
	.loc 1 227 3
	.loc 1 227 7 is_stmt 0
	lui	a1,%hi(.LC29)
	lui	a0,%hi(udp_send_discovery_data)
	addi	a5,s1,%lo(.LANCHOR3)
	li	a4,5
	li	a3,0
	li	a2,512
	addi	a1,a1,%lo(.LC29)
	addi	a0,a0,%lo(udp_send_discovery_data)
	call	xTaskCreate
.LVL132:
	.loc 1 227 6
	li	a5,1
	beq	a0,a5,.L63
	.loc 1 228 4 is_stmt 1
	.loc 1 228 9
.LBB143:
.LBB144:
	.loc 2 151 5
.LBE144:
.LBE143:
	.loc 1 228 9 is_stmt 0
	lw	a5,%lo(TrapNetCounter)(s3)
	beq	a5,zero,.L71
	.loc 1 228 121 discriminator 1
	call	xTaskGetTickCountFromISR
.LVL133:
.L72:
	.loc 1 228 9 discriminator 4
	lui	a3,%hi(.LC3)
	mv	a1,a0
	lui	a0,%hi(.LC30)
	li	a4,228
	addi	a3,a3,%lo(.LC3)
	addi	a2,s0,%lo(.LC0)
	addi	a0,a0,%lo(.LC30)
	call	bl_printk
.LVL134:
.L63:
	.loc 1 231 1
	lw	ra,76(sp)
	.cfi_remember_state
	.cfi_restore 1
	lw	s0,72(sp)
	.cfi_restore 8
	lw	s1,68(sp)
	.cfi_restore 9
	lw	s2,64(sp)
	.cfi_restore 18
	lw	s3,60(sp)
	.cfi_restore 19
	lw	s4,56(sp)
	.cfi_restore 20
	addi	sp,sp,80
	.cfi_def_cfa_offset 0
	jr	ra
.L64:
	.cfi_restore_state
.LBB145:
.LBB135:
	.loc 1 58 134
	call	xTaskGetTickCount
.LVL135:
	j	.L65
.L68:
.LBE135:
.LBE145:
.LBB146:
.LBB142:
	.loc 1 154 152
	call	xTaskGetTickCount
.LVL136:
	j	.L69
.L71:
.LBE142:
.LBE146:
	.loc 1 228 150 discriminator 2
	call	xTaskGetTickCount
.LVL137:
	j	.L72
	.cfi_endproc
.LFE11:
	.size	doit_udp_control_init, .-doit_udp_control_init
	.globl	discovery_task_handle
	.section	.bss.ping_ret_data,"aw",@nobits
	.align	2
	.set	.LANCHOR2,. + 0
	.type	ping_ret_data, @object
	.size	ping_ret_data, 512
ping_ret_data:
	.zero	512
	.section	.rodata.doit_udp_control_init.str1.4,"aMS",@progbits,1
	.align	2
.LC22:
	.string	"cmd=pong&host_ip=192.168.4.1&sta_ip=%d.%d.%d.%d&device_id=%s&device_key=%s&device_name=%s%02x%02x&device_type=%s&compandy_id=%s&chip=%s\r\n"
	.zero	2
.LC23:
	.string	"_ESP32"
	.zero	1
.LC24:
	.string	"_DOIT"
	.zero	2
.LC25:
	.string	"_DT-WYRGB"
	.zero	2
.LC26:
	.string	"Light_"
	.zero	1
.LC27:
	.string	"\033[32m[%10u][%s] ping_ret_data: %s\033[0m\r\n"
.LC28:
	.string	"\033[32m[%10u][%s] Create Udp Server succeed port : %d \n\033[0m\r\n"
.LC29:
	.string	"discovery_task"
	.zero	1
.LC30:
	.string	"\033[31m[%10u][%s %s:%4d] create discovery_task error\033[0m\r\n"
	.section	.rodata.udp_send_discovery_data.str1.4,"aMS",@progbits,1
	.align	2
.LC0:
	.string	"udp_control"
.LC1:
	.string	"\033[32m[%10u][%s] Now Let us create udp client ... \033[0m\r\n"
.LC2:
	.string	"\033[32m[%10u][%s] connecting to %d.%d.%d.%d:%d\033[0m\r\n"
	.zero	1
.LC3:
	.string	"doit_udp_control.c"
	.zero	1
.LC4:
	.string	"\033[31m[%10u][%s %s:%4d] client create socket error , stop !!!\033[0m\r\n"
	.zero	1
.LC5:
	.string	"\033[32m[%10u][%s] client create socket Succeed  !!!\033[0m\r\n"
.LC6:
	.string	"\033[32m[%10u][%s] udp send_discovery_count: %d\033[0m\r\n"
	.section	.rodata.udp_send_msg.str1.4,"aMS",@progbits,1
	.align	2
.LC7:
	.string	"\033[31m[%10u][%s %s:%4d] not enough memory\r\n\033[0m\r\n"
	.section	.rodata.udpecho_raw_recv.str1.4,"aMS",@progbits,1
	.align	2
.LC8:
	.string	"\033[31m[%10u][%s %s:%4d] p == NULL\r\n\033[0m\r\n"
	.zero	3
.LC9:
	.string	"\033[32m[%10u][%s] udp_package: %s\033[0m\r\n"
	.zero	2
.LC10:
	.string	"cmd=ping"
	.zero	3
.LC11:
	.string	"\033[32m[%10u][%s] udp_recv: cmd=ping\033[0m\r\n"
	.zero	3
.LC12:
	.string	"cmd=ctrl"
	.zero	3
.LC13:
	.string	"%02x%02x"
	.zero	3
.LC14:
	.string	"op="
.LC15:
	.string	"\033[31m[%10u][%s %s:%4d] buf Application memory failed\033[0m\r\n"
	.zero	1
.LC16:
	.string	"cmd=echo&dev=%s&op="
.LC17:
	.string	"\033[32m[%10u][%s] udp_ctrl_ret: %s\033[0m\r\n"
	.zero	1
.LC18:
	.string	"cmd=bin_slot"
	.zero	3
.LC19:
	.string	"\033[32m[%10u][%s] buf Application memory failed\033[0m\r\n"
.LC20:
	.string	"slot=%d"
.LC21:
	.string	"\033[32m[%10u][%s] unknown command!!\r\n\033[0m\r\n"
	.section	.sbss.discovery_task_handle,"aw",@nobits
	.align	2
	.set	.LANCHOR3,. + 0
	.type	discovery_task_handle, @object
	.size	discovery_task_handle, 4
discovery_task_handle:
	.zero	4
	.section	.sbss.send_discovery_count,"aw",@nobits
	.align	2
	.set	.LANCHOR1,. + 0
	.type	send_discovery_count, @object
	.size	send_discovery_count, 4
send_discovery_count:
	.zero	4
	.section	.sdata.send_discovery_flag,"aw"
	.set	.LANCHOR0,. + 0
	.type	send_discovery_flag, @object
	.size	send_discovery_flag, 1
send_discovery_flag:
	.byte	1
	.text
.Letext0:
	.file 3 "/b-l/bl_iot_sdk/toolchain/riscv/Linux/lib/gcc/riscv64-unknown-elf/8.3.0/include/stdint-gcc.h"
	.file 4 "/b-l/bl_iot_sdk/components/bl602/freertos_riscv_ram/config/task.h"
	.file 5 "/b-l/bl_iot_sdk/components/network/lwip/lwip-port/arch/cc.h"
	.file 6 "/b-l/bl_iot_sdk/toolchain/riscv/Linux/riscv64-unknown-elf/include/machine/_default_types.h"
	.file 7 "/b-l/bl_iot_sdk/toolchain/riscv/Linux/lib/gcc/riscv64-unknown-elf/8.3.0/include/stddef.h"
	.file 8 "/b-l/bl_iot_sdk/toolchain/riscv/Linux/riscv64-unknown-elf/include/sys/_types.h"
	.file 9 "/b-l/bl_iot_sdk/toolchain/riscv/Linux/riscv64-unknown-elf/include/sys/reent.h"
	.file 10 "/b-l/bl_iot_sdk/toolchain/riscv/Linux/riscv64-unknown-elf/include/sys/lock.h"
	.file 11 "/b-l/bl_iot_sdk/toolchain/riscv/Linux/riscv64-unknown-elf/include/sys/types.h"
	.file 12 "/b-l/bl_iot_sdk/toolchain/riscv/Linux/riscv64-unknown-elf/include/stdlib.h"
	.file 13 "/b-l/bl_iot_sdk/toolchain/riscv/Linux/riscv64-unknown-elf/include/ctype.h"
	.file 14 "/b-l/bl_iot_sdk/components/network/lwip/src/include/lwip/ip4_addr.h"
	.file 15 "/b-l/bl_iot_sdk/components/network/lwip/src/include/lwip/ip_addr.h"
	.file 16 "/b-l/bl_iot_sdk/components/network/lwip/src/include/lwip/err.h"
	.file 17 "/b-l/bl_iot_sdk/components/network/lwip/src/include/lwip/pbuf.h"
	.file 18 "/b-l/bl_iot_sdk/components/network/lwip/src/include/lwip/mem.h"
	.file 19 "/b-l/bl_iot_sdk/components/network/lwip/src/include/lwip/memp.h"
	.file 20 "/b-l/bl_iot_sdk/components/network/lwip/src/include/lwip/priv/memp_priv.h"
	.file 21 "/b-l/bl_iot_sdk/components/network/lwip/src/include/lwip/stats.h"
	.file 22 "/b-l/bl_iot_sdk/components/network/lwip/src/include/lwip/netif.h"
	.file 23 "/b-l/bl_iot_sdk/components/network/lwip/src/include/lwip/inet.h"
	.file 24 "/b-l/bl_iot_sdk/components/network/lwip/src/include/lwip/errno.h"
	.file 25 "/b-l/bl_iot_sdk/components/network/lwip/src/include/lwip/sockets.h"
	.file 26 "/b-l/bl_iot_sdk/components/network/lwip/src/include/lwip/prot/ip4.h"
	.file 27 "/b-l/bl_iot_sdk/components/network/lwip/src/include/lwip/ip.h"
	.file 28 "/b-l/bl_iot_sdk/components/network/lwip/src/include/lwip/udp.h"
	.file 29 "/b-l/bl_iot_sdk/components/network/lwip/src/include/lwip/netdb.h"
	.file 30 "/b-l/DoHome_Light_rgbcw/DoHome_Light_rgbcw/components/doit_server/include/doit_device_info.h"
	.file 31 "/b-l/bl_iot_sdk/toolchain/riscv/Linux/riscv64-unknown-elf/include/stdio.h"
	.file 32 "/b-l/bl_iot_sdk/components/utils/include/utils_log.h"
	.file 33 "/b-l/bl_iot_sdk/components/network/lwip/src/include/lwip/def.h"
	.file 34 "/b-l/bl_iot_sdk/toolchain/riscv/Linux/riscv64-unknown-elf/include/string.h"
	.file 35 "/b-l/DoHome_Light_rgbcw/DoHome_Light_rgbcw/components/doit_server/include/doit_dohome_protocol.h"
	.file 36 "/b-l/DoHome_Light_rgbcw/DoHome_Light_rgbcw/components/doit_server/include/doit_utils.h"