	.file	"doit_dohome_proces.c"
	.option nopic
	.attribute arch, "rv32i2p0_m2p0_f2p0_c2p0"
	.attribute unaligned_access, 0
	.attribute stack_align, 16
	.text
.Ltext0:
	.cfi_sections	.debug_frame
	.section	.text.get_tm_from_json_string,"ax",@progbits
	.align	1
	.type	get_tm_from_json_string, @function
get_tm_from_json_string:
.LFB8:
	.file 1 "/b-l/DoHome_Light_rgbcw/DoHome_Light_rgbcw/components/doit_server/doit_dohome_proces.c"
	.loc 1 71 1
	.cfi_startproc
.LVL0:
	.loc 1 72 2
	.loc 1 74 2
	.loc 1 71 1 is_stmt 0
	addi	sp,sp,-16
	.cfi_def_cfa_offset 16
	sw	s0,8(sp)
	.cfi_offset 8, -8
	mv	s0,a1
	.loc 1 74 10
	lui	a1,%hi(.LC0)
.LVL1:
	addi	a1,a1,%lo(.LC0)
	.loc 1 71 1
	sw	s1,4(sp)
	sw	ra,12(sp)
	.cfi_offset 9, -12
	.cfi_offset 1, -4
	.loc 1 71 1
	mv	s1,a0
	.loc 1 74 10
	call	cJSON_GetObjectItem
.LVL2:
	.loc 1 75 5 is_stmt 1
	.loc 1 77 10 is_stmt 0
	li	a5,18
	.loc 1 75 8
	beq	a0,zero,.L1
	.loc 1 79 2 is_stmt 1
	.loc 1 79 24 is_stmt 0
	lw	a5,20(a0)
	.loc 1 82 10
	lui	a1,%hi(.LC1)
	addi	a1,a1,%lo(.LC1)
	.loc 1 79 17
	sw	a5,20(s0)
	.loc 1 80 2 is_stmt 1
.LVL3:
	.loc 1 82 2
	.loc 1 82 10 is_stmt 0
	mv	a0,s1
	call	cJSON_GetObjectItem
.LVL4:
	.loc 1 83 5 is_stmt 1
	.loc 1 85 10 is_stmt 0
	li	a5,19
	.loc 1 83 8
	beq	a0,zero,.L1
	.loc 1 87 5 is_stmt 1
	.loc 1 87 26 is_stmt 0
	lw	a5,20(a0)
	.loc 1 90 10
	lui	a1,%hi(.LC2)
	addi	a1,a1,%lo(.LC2)
	.loc 1 87 19
	sw	a5,16(s0)
	.loc 1 88 5 is_stmt 1
.LVL5:
	.loc 1 90 2
	.loc 1 90 10 is_stmt 0
	mv	a0,s1
	call	cJSON_GetObjectItem
.LVL6:
	.loc 1 91 5 is_stmt 1
	.loc 1 93 10 is_stmt 0
	li	a5,20
	.loc 1 91 8
	beq	a0,zero,.L1
	.loc 1 95 5 is_stmt 1
	.loc 1 95 27 is_stmt 0
	lw	a5,20(a0)
	.loc 1 98 10
	lui	a1,%hi(.LC3)
	addi	a1,a1,%lo(.LC3)
	.loc 1 95 20
	sw	a5,12(s0)
	.loc 1 96 5 is_stmt 1
.LVL7:
	.loc 1 98 2
	.loc 1 98 10 is_stmt 0
	mv	a0,s1
	call	cJSON_GetObjectItem
.LVL8:
	.loc 1 99 5 is_stmt 1
	.loc 1 101 10 is_stmt 0
	li	a5,21
	.loc 1 99 8
	beq	a0,zero,.L1
	.loc 1 103 5 is_stmt 1
	.loc 1 103 27 is_stmt 0
	lw	a5,20(a0)
	.loc 1 106 10
	lui	a1,%hi(.LC4)
	addi	a1,a1,%lo(.LC4)
	.loc 1 103 20
	sw	a5,8(s0)
	.loc 1 104 5 is_stmt 1
.LVL9:
	.loc 1 106 2
	.loc 1 106 10 is_stmt 0
	mv	a0,s1
	call	cJSON_GetObjectItem
.LVL10:
	.loc 1 107 5 is_stmt 1
	.loc 1 109 10 is_stmt 0
	li	a5,22
	.loc 1 107 8
	beq	a0,zero,.L1
	.loc 1 111 5 is_stmt 1
	.loc 1 111 26 is_stmt 0
	lw	a5,20(a0)
	.loc 1 114 10
	lui	a1,%hi(.LC5)
	addi	a1,a1,%lo(.LC5)
	.loc 1 111 19
	sw	a5,4(s0)
	.loc 1 112 5 is_stmt 1
.LVL11:
	.loc 1 114 2
	.loc 1 114 10 is_stmt 0
	mv	a0,s1
	call	cJSON_GetObjectItem
.LVL12:
	.loc 1 115 5 is_stmt 1
	.loc 1 117 10 is_stmt 0
	li	a5,23
	.loc 1 115 8
	beq	a0,zero,.L1
	.loc 1 119 5 is_stmt 1
	.loc 1 119 26 is_stmt 0
	lw	a5,20(a0)
	.loc 1 119 19
	sw	a5,0(s0)
	.loc 1 120 5 is_stmt 1
.LVL13:
	.loc 1 121 5
	.loc 1 121 12 is_stmt 0
	li	a5,0
.LVL14:
.L1:
	.loc 1 122 1
	lw	ra,12(sp)
	.cfi_restore 1
	lw	s0,8(sp)
	.cfi_restore 8
.LVL15:
	lw	s1,4(sp)
	.cfi_restore 9
.LVL16:
	mv	a0,a5
	addi	sp,sp,16
	.cfi_def_cfa_offset 0
	jr	ra
	.cfi_endproc
.LFE8:
	.size	get_tm_from_json_string, .-get_tm_from_json_string
	.section	.text.system_reset_json,"ax",@progbits
	.align	1
	.globl	system_reset_json
	.type	system_reset_json, @function
system_reset_json:
.LFB5:
	.loc 1 30 33 is_stmt 1
	.cfi_startproc
.LVL17:
	.loc 1 31 5
	lui	a1,%hi(.LC6)
	.loc 1 30 33 is_stmt 0
	addi	sp,sp,-16
	.cfi_def_cfa_offset 16
	.loc 1 31 5
	li	a2,0
	addi	a1,a1,%lo(.LC6)
	.loc 1 30 33
	sw	ra,12(sp)
	.cfi_offset 1, -4
	.loc 1 31 5
	call	sprintf
.LVL18:
	.loc 1 32 2 is_stmt 1
	call	system_delay_reset
.LVL19:
	.loc 1 33 5
	.loc 1 34 1 is_stmt 0
	lw	ra,12(sp)
	.cfi_restore 1
	li	a0,0
	addi	sp,sp,16
	.cfi_def_cfa_offset 0
	jr	ra
	.cfi_endproc
.LFE5:
	.size	system_reset_json, .-system_reset_json
	.section	.text.product_get_ext_info,"ax",@progbits
	.align	1
	.weak	product_get_ext_info
	.type	product_get_ext_info, @function
product_get_ext_info:
.LFB6:
	.loc 1 36 59 is_stmt 1
	.cfi_startproc
.LVL20:
	.loc 1 37 2
	.loc 1 37 9 is_stmt 0
	sb	zero,0(a0)
	.loc 1 38 1
	ret
	.cfi_endproc
.LFE6:
	.size	product_get_ext_info, .-product_get_ext_info
	.section	.text.get_device_info,"ax",@progbits
	.align	1
	.globl	get_device_info
	.type	get_device_info, @function
get_device_info:
.LFB7:
	.loc 1 40 32 is_stmt 1
	.cfi_startproc
.LVL21:
	.loc 1 41 5
	.loc 1 40 32 is_stmt 0
	addi	sp,sp,-160
	.cfi_def_cfa_offset 160
	sw	ra,156(sp)
	sw	s0,152(sp)
	sw	s1,148(sp)
	.cfi_offset 1, -4
	.cfi_offset 8, -8
	.cfi_offset 9, -12
	.loc 1 40 32
	mv	s0,a0
	.loc 1 41 27
	call	flash_get_user_config
.LVL22:
	mv	s1,a0
.LVL23:
	.loc 1 42 2 is_stmt 1
	.loc 1 43 2
	addi	a0,sp,16
	call	product_get_ext_info
.LVL24:
	.loc 1 44 5
	lbu	a2,89(s1)
	lui	a5,%hi(.LC9+1)
	addi	a5,a5,%lo(.LC9+1)
	lui	a4,%hi(dev_id)
	lui	a3,%hi(.LC7)
	lui	a1,%hi(.LC8)
	sw	a5,8(sp)
	sw	zero,4(sp)
	sw	zero,0(sp)
	addi	a7,sp,16
	mv	a0,s0
	li	a6,0
	li	a5,1
	addi	a4,a4,%lo(dev_id)
	addi	a3,a3,%lo(.LC7)
	addi	a1,a1,%lo(.LC8)
	call	sprintf
.LVL25:
	.loc 1 66 5
	.loc 1 67 1 is_stmt 0
	lw	ra,156(sp)
	.cfi_restore 1
	lw	s0,152(sp)
	.cfi_restore 8
.LVL26:
	lw	s1,148(sp)
	.cfi_restore 9
.LVL27:
	li	a0,0
	addi	sp,sp,160
	.cfi_def_cfa_offset 0
	jr	ra
	.cfi_endproc
.LFE7:
	.size	get_device_info, .-get_device_info
	.section	.text.set_time_to_json,"ax",@progbits
	.align	1
	.globl	set_time_to_json
	.type	set_time_to_json, @function
set_time_to_json:
.LFB9:
	.loc 1 124 34 is_stmt 1
	.cfi_startproc
.LVL28:
	.loc 1 126 2
	.loc 1 127 2
	.loc 1 124 34 is_stmt 0
	addi	sp,sp,-112
	.cfi_def_cfa_offset 112
	.loc 1 127 12
	addi	a1,sp,60
	.loc 1 124 34
	sw	s0,104(sp)
	sw	ra,108(sp)
	.cfi_offset 8, -8
	.cfi_offset 1, -4
	.loc 1 127 12
	call	get_tm_from_json_string
.LVL29:
	mv	s0,a0
.LVL30:
	.loc 1 128 5 is_stmt 1
	.loc 1 128 8 is_stmt 0
	bne	a0,zero,.L15
	.loc 1 131 2 is_stmt 1
	li	a2,36
	addi	a1,sp,60
	mv	a0,sp
	call	memcpy
.LVL31:
	mv	a0,sp
	call	time_set_curr_sec_tm
.LVL32:
	.loc 1 132 5
.L15:
	.loc 1 133 1 is_stmt 0
	mv	a0,s0
	lw	ra,108(sp)
	.cfi_restore 1
	lw	s0,104(sp)
	.cfi_restore 8
.LVL33:
	addi	sp,sp,112
	.cfi_def_cfa_offset 0
	jr	ra
	.cfi_endproc
.LFE9:
	.size	set_time_to_json, .-set_time_to_json
	.section	.text.check_connect_router,"ax",@progbits
	.align	1
	.globl	check_connect_router
	.type	check_connect_router, @function
check_connect_router:
.LFB10:
	.loc 1 135 40 is_stmt 1
	.cfi_startproc
.LVL34:
	.loc 1 136 2
	.loc 1 135 40 is_stmt 0
	addi	sp,sp,-32
	.cfi_def_cfa_offset 32
	sw	s0,24(sp)
	sw	ra,28(sp)
	.cfi_offset 8, -8
	.cfi_offset 1, -4
	.loc 1 135 40
	mv	s0,a0
	.loc 1 136 6
	call	wifi_get_connect_status
.LVL35:
	.loc 1 136 5
	beq	a0,zero,.L19
.LBB2:
	.loc 1 137 3 is_stmt 1
	.loc 1 138 3
	addi	a0,sp,12
	call	device_get_sta_ip
.LVL36:
	.loc 1 140 3
	lbu	a5,15(sp)
	lbu	a4,14(sp)
	lbu	a3,13(sp)
	lbu	a2,12(sp)
	lui	a1,%hi(.LC10)
	addi	a1,a1,%lo(.LC10)
	mv	a0,s0
	call	sprintf
.LVL37:
.L20:
.LBE2:
	.loc 1 149 2
	.loc 1 150 1 is_stmt 0
	lw	ra,28(sp)
	.cfi_remember_state
	.cfi_restore 1
	lw	s0,24(sp)
	.cfi_restore 8
.LVL38:
	li	a0,0
	addi	sp,sp,32
	.cfi_def_cfa_offset 0
	jr	ra
.LVL39:
.L19:
	.cfi_restore_state
	.loc 1 147 3 is_stmt 1
	lui	a1,%hi(.LC11)
	addi	a1,a1,%lo(.LC11)
	mv	a0,s0
	call	sprintf
.LVL40:
	j	.L20
	.cfi_endproc
.LFE10:
	.size	check_connect_router, .-check_connect_router
	.section	.text.get_time_info,"ax",@progbits
	.align	1
	.globl	get_time_info
	.type	get_time_info, @function
get_time_info:
.LFB11:
	.loc 1 152 30
	.cfi_startproc
.LVL41:
	.loc 1 153 2
	.loc 1 154 2
	.loc 1 152 30 is_stmt 0
	addi	sp,sp,-80
	.cfi_def_cfa_offset 80
	sw	s0,72(sp)
	.cfi_offset 8, -8
	mv	s0,a0
	.loc 1 154 2
	addi	a0,sp,28
.LVL42:
	.loc 1 152 30
	sw	ra,76(sp)
	.cfi_offset 1, -4
	.loc 1 154 2
	call	time_get_curr_sec_tm
.LVL43:
	.loc 1 155 5 is_stmt 1
	.loc 1 155 24 is_stmt 0
	call	time_get_curr_sec
.LVL44:
	.loc 1 157 2 is_stmt 1
	lw	a2,48(sp)
	lw	a7,28(sp)
	lw	a6,32(sp)
	lw	a5,36(sp)
	lw	a4,40(sp)
	lw	a3,44(sp)
	lui	a1,%hi(.LC12)
	sw	a0,0(sp)
	addi	a2,a2,1970
	mv	a0,s0
.LVL45:
	addi	a1,a1,%lo(.LC12)
	call	sprintf
.LVL46:
	.loc 1 166 5
	.loc 1 167 1 is_stmt 0
	lw	ra,76(sp)
	.cfi_restore 1
	lw	s0,72(sp)
	.cfi_restore 8
.LVL47:
	li	a0,0
	addi	sp,sp,80
	.cfi_def_cfa_offset 0
	jr	ra
	.cfi_endproc
.LFE11:
	.size	get_time_info, .-get_time_info
	.section	.text.setup_shutdown_timer_to_json,"ax",@progbits
	.align	1
	.globl	setup_shutdown_timer_to_json
	.type	setup_shutdown_timer_to_json, @function
setup_shutdown_timer_to_json:
.LFB12:
	.loc 1 169 46 is_stmt 1
	.cfi_startproc
.LVL48:
	.loc 1 170 2
	.loc 1 171 2
	.loc 1 169 46 is_stmt 0
	addi	sp,sp,-64
	.cfi_def_cfa_offset 64
	.loc 1 171 12
	addi	a1,sp,12
	.loc 1 169 46
	sw	s0,56(sp)
	sw	s1,52(sp)
	sw	ra,60(sp)
	sw	s2,48(sp)
	.cfi_offset 8, -8
	.cfi_offset 9, -12
	.cfi_offset 1, -4
	.cfi_offset 18, -16
	.loc 1 169 46
	mv	s1,a0
	.loc 1 171 12
	call	get_tm_from_json_string
.LVL49:
	mv	s0,a0
.LVL50:
	.loc 1 172 5 is_stmt 1
	.loc 1 172 8 is_stmt 0
	bne	a0,zero,.L24
	.loc 1 176 2 is_stmt 1
	.loc 1 176 15 is_stmt 0
	lui	a1,%hi(.LC13)
	addi	a1,a1,%lo(.LC13)
	mv	a0,s1
	call	cJSON_GetObjectItem
.LVL51:
	.loc 1 177 2 is_stmt 1
	.loc 1 177 5 is_stmt 0
	beq	a0,zero,.L26
	.loc 1 181 2 is_stmt 1
	.loc 1 183 19 is_stmt 0
	lui	a1,%hi(.LC14)
	.loc 1 181 11
	lw	s2,20(a0)
.LVL52:
	.loc 1 183 2 is_stmt 1
	.loc 1 183 19 is_stmt 0
	addi	a1,a1,%lo(.LC14)
	mv	a0,s1
.LVL53:
	call	cJSON_GetObjectItem
.LVL54:
	.loc 1 184 2 is_stmt 1
	.loc 1 184 5 is_stmt 0
	beq	a0,zero,.L27
	.loc 1 188 5 is_stmt 1
.LVL55:
	.loc 1 189 2
	.loc 1 189 13 is_stmt 0
	lbu	a7,20(a0)
	lw	a6,12(sp)
	lw	a5,16(sp)
	lw	a4,20(sp)
	lw	a3,24(sp)
	lw	a2,28(sp)
	lw	a1,32(sp)
	mv	a0,s2
.LVL56:
	call	timer_setup_shutdown
.LVL57:
	.loc 1 190 2 is_stmt 1
	.loc 1 190 5 is_stmt 0
	bne	a0,zero,.L24
	.loc 1 191 10
	li	s0,30
.LVL58:
.L24:
	.loc 1 194 1
	mv	a0,s0
	lw	ra,60(sp)
	.cfi_remember_state
	.cfi_restore 1
	lw	s0,56(sp)
	.cfi_restore 8
	lw	s1,52(sp)
	.cfi_restore 9
.LVL59:
	lw	s2,48(sp)
	.cfi_restore 18
	addi	sp,sp,64
	.cfi_def_cfa_offset 0
	jr	ra
.LVL60:
.L26:
	.cfi_restore_state
	.loc 1 179 10
	li	s0,45
.LVL61:
	j	.L24
.LVL62:
.L27:
	.loc 1 186 10
	li	s0,41
.LVL63:
	j	.L24
	.cfi_endproc
.LFE12:
	.size	setup_shutdown_timer_to_json, .-setup_shutdown_timer_to_json
	.section	.text.setup_powerup_timer_to_json,"ax",@progbits
	.align	1
	.globl	setup_powerup_timer_to_json
	.type	setup_powerup_timer_to_json, @function
setup_powerup_timer_to_json:
.LFB13:
	.loc 1 197 45 is_stmt 1
	.cfi_startproc
.LVL64:
	.loc 1 198 2
	.loc 1 199 2
	.loc 1 197 45 is_stmt 0
	addi	sp,sp,-80
	.cfi_def_cfa_offset 80
	.loc 1 199 12
	addi	a1,sp,12
	.loc 1 197 45
	sw	s0,72(sp)
	sw	s2,64(sp)
	sw	ra,76(sp)
	sw	s1,68(sp)
	sw	s3,60(sp)
	.cfi_offset 8, -8
	.cfi_offset 18, -16
	.cfi_offset 1, -4
	.cfi_offset 9, -12
	.cfi_offset 19, -20
	.loc 1 197 45
	mv	s2,a0
	.loc 1 199 12
	call	get_tm_from_json_string
.LVL65:
	mv	s0,a0
.LVL66:
	.loc 1 200 5 is_stmt 1
	.loc 1 200 8 is_stmt 0
	bne	a0,zero,.L29
	.loc 1 204 2 is_stmt 1
	.loc 1 204 17 is_stmt 0
	lui	a1,%hi(.LC15)
	addi	a1,a1,%lo(.LC15)
	mv	a0,s2
	call	cJSON_GetObjectItem
.LVL67:
	.loc 1 205 2 is_stmt 1
	.loc 1 205 5 is_stmt 0
	beq	a0,zero,.L33
	.loc 1 209 2 is_stmt 1
	.loc 1 210 15 is_stmt 0
	lui	a1,%hi(.LC13)
	.loc 1 209 6
	lw	s1,20(a0)
.LVL68:
	.loc 1 210 2 is_stmt 1
	.loc 1 210 15 is_stmt 0
	addi	a1,a1,%lo(.LC13)
	mv	a0,s2
.LVL69:
	call	cJSON_GetObjectItem
.LVL70:
	.loc 1 211 2 is_stmt 1
	.loc 1 211 5 is_stmt 0
	beq	a0,zero,.L34
	.loc 1 215 2 is_stmt 1
	.loc 1 217 19 is_stmt 0
	lui	a1,%hi(.LC14)
	.loc 1 215 11
	lw	s3,20(a0)
.LVL71:
	.loc 1 217 2 is_stmt 1
	.loc 1 217 19 is_stmt 0
	addi	a1,a1,%lo(.LC14)
	mv	a0,s2
.LVL72:
	call	cJSON_GetObjectItem
.LVL73:
	.loc 1 218 2 is_stmt 1
	.loc 1 218 5 is_stmt 0
	beq	a0,zero,.L35
	.loc 1 222 5 is_stmt 1
.LVL74:
	.loc 1 223 2
	.loc 1 223 26 is_stmt 0
	lbu	a7,20(a0)
	lw	a6,12(sp)
	lw	a5,16(sp)
	lw	a4,20(sp)
	lw	a3,24(sp)
	lw	a2,28(sp)
	lw	a1,32(sp)
	mv	a0,s3
.LVL75:
	call	timer_setup_powerup
.LVL76:
	.loc 1 224 2 is_stmt 1
	.loc 1 224 5 is_stmt 0
	beq	a0,zero,.L36
	.loc 1 227 2 is_stmt 1
	.loc 1 227 5 is_stmt 0
	li	a5,1
	bne	s1,a5,.L31
.L39:
	.loc 1 232 3 is_stmt 1
	.loc 1 232 17 is_stmt 0
	sw	s1,8(a0)
	j	.L29
.L31:
	.loc 1 229 9 is_stmt 1
	.loc 1 229 12 is_stmt 0
	li	a5,2
	beq	s1,a5,.L39
	.loc 1 231 9 is_stmt 1
	.loc 1 231 12 is_stmt 0
	li	a5,3
	beq	s1,a5,.L39
.LVL77:
.L29:
	.loc 1 237 1
	mv	a0,s0
	lw	ra,76(sp)
	.cfi_remember_state
	.cfi_restore 1
	lw	s0,72(sp)
	.cfi_restore 8
	lw	s1,68(sp)
	.cfi_restore 9
	lw	s2,64(sp)
	.cfi_restore 18
.LVL78:
	lw	s3,60(sp)
	.cfi_restore 19
	addi	sp,sp,80
	.cfi_def_cfa_offset 0
	jr	ra
.LVL79:
.L33:
	.cfi_restore_state
	.loc 1 207 10
	li	s0,29
.LVL80:
	j	.L29
.LVL81:
.L34:
	.loc 1 213 10
	li	s0,45
.LVL82:
	j	.L29
.LVL83:
.L35:
	.loc 1 220 10
	li	s0,41
.LVL84:
	j	.L29
.LVL85:
.L36:
	.loc 1 225 10
	li	s0,30
.LVL86:
	j	.L29
	.cfi_endproc
.LFE13:
	.size	setup_powerup_timer_to_json, .-setup_powerup_timer_to_json
	.section	.text.modify_timer_to_json,"ax",@progbits
	.align	1
	.globl	modify_timer_to_json
	.type	modify_timer_to_json, @function
modify_timer_to_json:
.LFB14:
	.loc 1 239 38 is_stmt 1
	.cfi_startproc
.LVL87:
	.loc 1 240 5
	.loc 1 241 2
	.loc 1 239 38 is_stmt 0
	addi	sp,sp,-64
	.cfi_def_cfa_offset 64
	.loc 1 241 12
	addi	a1,sp,12
	.loc 1 239 38
	sw	s0,56(sp)
	sw	s1,52(sp)
	sw	ra,60(sp)
	sw	s2,48(sp)
	.cfi_offset 8, -8
	.cfi_offset 9, -12
	.cfi_offset 1, -4
	.cfi_offset 18, -16
	.loc 1 239 38
	mv	s1,a0
	.loc 1 241 12
	call	get_tm_from_json_string
.LVL88:
	mv	s0,a0
.LVL89:
	.loc 1 242 5 is_stmt 1
	.loc 1 242 8 is_stmt 0
	bne	a0,zero,.L40
	.loc 1 245 5 is_stmt 1
	.loc 1 245 21 is_stmt 0
	lui	a1,%hi(.LC16)
	addi	a1,a1,%lo(.LC16)
	mv	a0,s1
	call	cJSON_GetObjectItem
.LVL90:
	.loc 1 246 5 is_stmt 1
	.loc 1 246 8 is_stmt 0
	beq	a0,zero,.L42
	.loc 1 250 5 is_stmt 1
	.loc 1 251 22 is_stmt 0
	lui	a1,%hi(.LC14)
	.loc 1 250 9
	lw	s2,20(a0)
.LVL91:
	.loc 1 251 5 is_stmt 1
	.loc 1 251 22 is_stmt 0
	addi	a1,a1,%lo(.LC14)
	mv	a0,s1
.LVL92:
	call	cJSON_GetObjectItem
.LVL93:
	.loc 1 252 5 is_stmt 1
	.loc 1 252 8 is_stmt 0
	beq	a0,zero,.L43
	.loc 1 256 5 is_stmt 1
.LVL94:
	.loc 1 257 2
	.loc 1 259 5
	.loc 1 257 19 is_stmt 0
	lw	a7,20(a0)
	.loc 1 259 9
	lw	a6,12(sp)
	lw	a5,16(sp)
	lw	a4,20(sp)
	lw	a3,24(sp)
	lw	a2,28(sp)
	lw	a1,32(sp)
	.loc 1 257 19
	addi	a7,a7,-1
	.loc 1 259 9
	seqz	a7,a7
	mv	a0,s2
.LVL95:
	call	timer_modify
.LVL96:
	.loc 1 259 8
	bne	a0,zero,.L40
	.loc 1 262 16
	li	s0,36
.LVL97:
.L40:
	.loc 1 265 1
	mv	a0,s0
	lw	ra,60(sp)
	.cfi_remember_state
	.cfi_restore 1
	lw	s0,56(sp)
	.cfi_restore 8
	lw	s1,52(sp)
	.cfi_restore 9
.LVL98:
	lw	s2,48(sp)
	.cfi_restore 18
	addi	sp,sp,64
	.cfi_def_cfa_offset 0
	jr	ra
.LVL99:
.L42:
	.cfi_restore_state
	.loc 1 248 16
	li	s0,28
.LVL100:
	j	.L40
.LVL101:
.L43:
	.loc 1 254 16
	li	s0,41
.LVL102:
	j	.L40
	.cfi_endproc
.LFE14:
	.size	modify_timer_to_json, .-modify_timer_to_json
	.section	.text.delay_shutdown_to_json,"ax",@progbits
	.align	1
	.globl	delay_shutdown_to_json
	.type	delay_shutdown_to_json, @function
delay_shutdown_to_json:
.LFB15:
	.loc 1 268 40 is_stmt 1
	.cfi_startproc
.LVL103:
	.loc 1 269 5
	.loc 1 269 18 is_stmt 0
	lui	a1,%hi(.LC13)
	.loc 1 268 40
	addi	sp,sp,-16
	.cfi_def_cfa_offset 16
	.loc 1 269 18
	addi	a1,a1,%lo(.LC13)
	.loc 1 268 40
	sw	s1,4(sp)
	sw	ra,12(sp)
	sw	s0,8(sp)
	.cfi_offset 9, -12
	.cfi_offset 1, -4
	.cfi_offset 8, -8
	.loc 1 268 40
	mv	s1,a0
	.loc 1 269 18
	call	cJSON_GetObjectItem
.LVL104:
	.loc 1 270 5 is_stmt 1
	.loc 1 272 16 is_stmt 0
	li	a5,45
	.loc 1 270 8
	beq	a0,zero,.L45
	.loc 1 274 5 is_stmt 1
	.loc 1 276 20 is_stmt 0
	lui	a1,%hi(.LC17)
	.loc 1 274 14
	lw	s0,20(a0)
.LVL105:
	.loc 1 276 5 is_stmt 1
	.loc 1 276 20 is_stmt 0
	addi	a1,a1,%lo(.LC17)
	mv	a0,s1
.LVL106:
	call	cJSON_GetObjectItem
.LVL107:
	.loc 1 277 5 is_stmt 1
	.loc 1 279 16 is_stmt 0
	li	a5,28
	.loc 1 277 8
	beq	a0,zero,.L45
	.loc 1 281 5 is_stmt 1
.LVL108:
	.loc 1 283 5
	lw	a1,20(a0)
	mv	a0,s0
.LVL109:
	call	timer_setup_shutdown_with_deley
.LVL110:
	.loc 1 284 5
	.loc 1 284 12 is_stmt 0
	li	a5,0
.LVL111:
.L45:
	.loc 1 285 1
	lw	ra,12(sp)
	.cfi_restore 1
	lw	s0,8(sp)
	.cfi_restore 8
	lw	s1,4(sp)
	.cfi_restore 9
.LVL112:
	mv	a0,a5
	addi	sp,sp,16
	.cfi_def_cfa_offset 0
	jr	ra
	.cfi_endproc
.LFE15:
	.size	delay_shutdown_to_json, .-delay_shutdown_to_json
	.section	.text.cancel_timer_to_json,"ax",@progbits
	.align	1
	.globl	cancel_timer_to_json
	.type	cancel_timer_to_json, @function
cancel_timer_to_json:
.LFB16:
	.loc 1 287 38 is_stmt 1
	.cfi_startproc
.LVL113:
	.loc 1 288 5
	.loc 1 288 18 is_stmt 0
	lui	a1,%hi(.LC13)
	.loc 1 287 38
	addi	sp,sp,-16
	.cfi_def_cfa_offset 16
	.loc 1 288 18
	addi	a1,a1,%lo(.LC13)
	.loc 1 287 38
	sw	ra,12(sp)
	.cfi_offset 1, -4
	.loc 1 288 18
	call	cJSON_GetObjectItem
.LVL114:
	.loc 1 289 5 is_stmt 1
	.loc 1 289 8 is_stmt 0
	beq	a0,zero,.L52
	.loc 1 293 5 is_stmt 1
.LVL115:
	.loc 1 294 5
	lw	a0,20(a0)
.LVL116:
	call	timer_cancel_with_ts
.LVL117:
	.loc 1 295 2
	.loc 1 295 9 is_stmt 0
	li	a0,0
.L50:
	.loc 1 296 1
	lw	ra,12(sp)
	.cfi_remember_state
	.cfi_restore 1
	addi	sp,sp,16
	.cfi_def_cfa_offset 0
	jr	ra
.LVL118:
.L52:
	.cfi_restore_state
	.loc 1 291 16
	li	a0,45
.LVL119:
	j	.L50
	.cfi_endproc
.LFE16:
	.size	cancel_timer_to_json, .-cancel_timer_to_json
	.section	.text.falsh_save_ssid_to_json,"ax",@progbits
	.align	1
	.globl	falsh_save_ssid_to_json
	.type	falsh_save_ssid_to_json, @function
falsh_save_ssid_to_json:
.LFB17:
	.loc 1 299 41 is_stmt 1
	.cfi_startproc
.LVL120:
	.loc 1 300 5
	.loc 1 301 5
	.loc 1 303 5
	.loc 1 303 20 is_stmt 0
	lui	a1,%hi(.LC18)
	.loc 1 299 41
	addi	sp,sp,-16
	.cfi_def_cfa_offset 16
	.loc 1 303 20
	addi	a1,a1,%lo(.LC18)
	.loc 1 299 41
	sw	s0,8(sp)
	sw	ra,12(sp)
	sw	s1,4(sp)
	sw	s2,0(sp)
	.cfi_offset 8, -8
	.cfi_offset 1, -4
	.cfi_offset 9, -12
	.cfi_offset 18, -16
	.loc 1 299 41
	mv	s0,a0
	.loc 1 303 20
	call	cJSON_GetObjectItem
.LVL121:
	.loc 1 304 5 is_stmt 1
	.loc 1 304 8 is_stmt 0
	bne	a0,zero,.L55
.LVL122:
.L57:
	.loc 1 306 16
	li	a0,5
.LVL123:
.L54:
	.loc 1 331 1
	lw	ra,12(sp)
	.cfi_remember_state
	.cfi_restore 1
	lw	s0,8(sp)
	.cfi_restore 8
	lw	s1,4(sp)
	.cfi_restore 9
	lw	s2,0(sp)
	.cfi_restore 18
	addi	sp,sp,16
	.cfi_def_cfa_offset 0
	jr	ra
.LVL124:
.L55:
	.cfi_restore_state
	.loc 1 308 5 is_stmt 1
	.loc 1 310 20 is_stmt 0
	lui	a1,%hi(.LC19)
	.loc 1 308 10
	lw	s2,16(a0)
.LVL125:
	.loc 1 310 5 is_stmt 1
	.loc 1 310 20 is_stmt 0
	addi	a1,a1,%lo(.LC19)
	mv	a0,s0
.LVL126:
	call	cJSON_GetObjectItem
.LVL127:
	.loc 1 311 5 is_stmt 1
	.loc 1 311 8 is_stmt 0
	beq	a0,zero,.L57
	.loc 1 315 5 is_stmt 1
	.loc 1 315 10 is_stmt 0
	lw	s1,16(a0)
.LVL128:
	.loc 1 317 5 is_stmt 1
	.loc 1 320 2
	.loc 1 320 29 is_stmt 0
	call	flash_get_user_ssid_config
.LVL129:
	mv	s0,a0
.LVL130:
	.loc 1 322 5 is_stmt 1
	mv	a0,s2
	call	strlen
.LVL131:
	mv	a2,a0
	mv	a1,s2
	mv	a0,s0
	call	memcpy
.LVL132:
	.loc 1 323 5
	mv	a0,s1
	call	strlen
.LVL133:
	mv	a2,a0
	mv	a1,s1
	addi	a0,s0,32
	call	memcpy
.LVL134:
	.loc 1 326 2
	call	flash_ssid_config_write
.LVL135:
	.loc 1 327 2
	call	flash_ssid_config_to_bak_write
.LVL136:
	.loc 1 330 5
	.loc 1 330 12 is_stmt 0
	li	a0,0
	j	.L54
	.cfi_endproc
.LFE17:
	.size	falsh_save_ssid_to_json, .-falsh_save_ssid_to_json
	.section	.text.get_ssid_info,"ax",@progbits
	.align	1
	.globl	get_ssid_info
	.type	get_ssid_info, @function
get_ssid_info:
.LFB18:
	.loc 1 334 30 is_stmt 1
	.cfi_startproc
.LVL137:
	.loc 1 335 2
	.loc 1 334 30 is_stmt 0
	addi	sp,sp,-16
	.cfi_def_cfa_offset 16
	sw	ra,12(sp)
	sw	s0,8(sp)
	.cfi_offset 1, -4
	.cfi_offset 8, -8
	.loc 1 334 30
	mv	s0,a0
	.loc 1 335 29
	call	flash_get_user_ssid_config
.LVL138:
	.loc 1 336 5
	lui	a2,%hi(dev_id)
	lui	a1,%hi(.LC20)
	.loc 1 335 29
	mv	a3,a0
.LVL139:
	.loc 1 336 5 is_stmt 1
	addi	a4,a0,32
	addi	a2,a2,%lo(dev_id)
	mv	a0,s0
.LVL140:
	addi	a1,a1,%lo(.LC20)
	call	sprintf
.LVL141:
	.loc 1 337 5
	.loc 1 338 1 is_stmt 0
	lw	ra,12(sp)
	.cfi_restore 1
	lw	s0,8(sp)
	.cfi_restore 8
.LVL142:
	li	a0,0
	addi	sp,sp,16
	.cfi_def_cfa_offset 0
	jr	ra
	.cfi_endproc
.LFE18:
	.size	get_ssid_info, .-get_ssid_info
	.section	.text.get_version_info,"ax",@progbits
	.align	1
	.globl	get_version_info
	.type	get_version_info, @function
get_version_info:
.LFB19:
	.loc 1 341 33 is_stmt 1
	.cfi_startproc
.LVL143:
	.loc 1 342 5
	lui	a2,%hi(.LC7)
	lui	a1,%hi(.LC21)
	.loc 1 341 33 is_stmt 0
	addi	sp,sp,-16
	.cfi_def_cfa_offset 16
	.loc 1 342 5
	addi	a2,a2,%lo(.LC7)
	addi	a1,a1,%lo(.LC21)
	.loc 1 341 33
	sw	ra,12(sp)
	.cfi_offset 1, -4
	.loc 1 342 5
	call	sprintf
.LVL144:
	.loc 1 343 5 is_stmt 1
	.loc 1 344 1 is_stmt 0
	lw	ra,12(sp)
	.cfi_restore 1
	li	a0,0
	addi	sp,sp,16
	.cfi_def_cfa_offset 0
	jr	ra
	.cfi_endproc
.LFE19:
	.size	get_version_info, .-get_version_info
	.section	.text.reset_ap,"ax",@progbits
	.align	1
	.globl	reset_ap
	.type	reset_ap, @function
reset_ap:
.LFB20:
	.loc 1 347 19 is_stmt 1
	.cfi_startproc
	.loc 1 348 5
	.loc 1 347 19 is_stmt 0
	addi	sp,sp,-16
	.cfi_def_cfa_offset 16
	sw	ra,12(sp)
	sw	s0,8(sp)
	.cfi_offset 1, -4
	.cfi_offset 8, -8
	.loc 1 348 30
	call	flash_get_user_ssid_config
.LVL145:
	.loc 1 349 5
	li	a2,32
	li	a1,0
	.loc 1 348 30
	mv	s0,a0
.LVL146:
	.loc 1 349 5 is_stmt 1
	call	memset
.LVL147:
	.loc 1 350 5
	li	a2,64
	li	a1,0
	addi	a0,s0,32
	call	memset
.LVL148:
	.loc 1 351 5
	call	flash_ssid_config_write
.LVL149:
	.loc 1 352 5
	call	flash_ssid_config_to_bak_write
.LVL150:
	.loc 1 353 5
	.loc 1 354 1 is_stmt 0
	lw	ra,12(sp)
	.cfi_restore 1
	lw	s0,8(sp)
	.cfi_restore 8
.LVL151:
	li	a0,0
	addi	sp,sp,16
	.cfi_def_cfa_offset 0
	jr	ra
	.cfi_endproc
.LFE20:
	.size	reset_ap, .-reset_ap
	.section	.text.get_timer_info,"ax",@progbits
	.align	1
	.globl	get_timer_info
	.type	get_timer_info, @function
get_timer_info:
.LFB21:
	.loc 1 361 1 is_stmt 1
	.cfi_startproc
.LVL152:
	.loc 1 362 2
	.loc 1 361 1 is_stmt 0
	addi	sp,sp,-368
	.cfi_def_cfa_offset 368
	sw	s1,356(sp)
	.cfi_offset 9, -12
	mv	s1,a0
	.loc 1 362 27
	mv	a0,a1
.LVL153:
	.loc 1 361 1
	sw	s0,360(sp)
	sw	ra,364(sp)
	.cfi_offset 8, -8
	.cfi_offset 1, -4
	mv	s0,a1
	sw	s2,352(sp)
	sw	s3,348(sp)
	sw	s4,344(sp)
	sw	s5,340(sp)
	sw	s6,336(sp)
	sw	s7,332(sp)
	sw	s8,328(sp)
	sw	s9,324(sp)
	sw	s10,320(sp)
	sw	s11,316(sp)
	.cfi_offset 18, -16
	.cfi_offset 19, -20
	.cfi_offset 20, -24
	.cfi_offset 21, -28
	.cfi_offset 22, -32
	.cfi_offset 23, -36
	.cfi_offset 24, -40
	.cfi_offset 25, -44
	.cfi_offset 26, -48
	.cfi_offset 27, -52
	.loc 1 362 27
	call	strlen
.LVL154:
	.loc 1 362 8
	add	s0,s0,a0
.LVL155:
	.loc 1 363 2 is_stmt 1
	.loc 1 364 2
	.loc 1 364 7 is_stmt 0
	li	a2,256
	li	a1,0
	addi	a0,sp,48
	call	memset
.LVL156:
	.loc 1 368 2 is_stmt 1
	.loc 1 368 5 is_stmt 0
	bne	s1,zero,.L69
	.loc 1 369 3 is_stmt 1
	lui	a1,%hi(.LC22)
	addi	a1,a1,%lo(.LC22)
	mv	a0,s0
	call	doit_strcat
.LVL157:
.L69:
	.loc 1 372 5
	.loc 1 372 32 is_stmt 0
	call	timer_get_list
.LVL158:
	mv	s1,a0
.LVL159:
	.loc 1 374 2 is_stmt 1
	addi	a4,a0,112
	.loc 1 372 32 is_stmt 0
	mv	a5,a0
	.loc 1 363 13
	li	s3,0
.LVL160:
.L71:
	.loc 1 375 3 is_stmt 1
	.loc 1 375 6 is_stmt 0
	lbu	a3,0(a5)
	beq	a3,zero,.L70
	.loc 1 376 4 is_stmt 1
	.loc 1 376 19 is_stmt 0
	addi	s3,s3,1
.LVL161:
.L70:
	addi	a5,a5,16
	.loc 1 374 2 discriminator 2
	bne	a5,a4,.L71
.LBB3:
	.loc 1 393 4
	lui	s5,%hi(.L75)
.LBE3:
	.loc 1 380 6
	li	s4,0
	.loc 1 381 9
	li	s2,0
.LBB4:
	.loc 1 383 4
	lui	s7,%hi(.LC23)
	.loc 1 462 5
	lui	s8,%hi(.LC28)
	.loc 1 460 5
	lui	s9,%hi(.LC27)
	.loc 1 393 4
	addi	s5,s5,%lo(.L75)
	.loc 1 445 5
	lui	s10,%hi(.LC26)
	.loc 1 418 5
	lui	s11,%hi(.LC25)
	.loc 1 412 5
	lui	s6,%hi(.LC24)
.L81:
.LVL162:
.LBE4:
	.loc 1 382 3 is_stmt 1
	.loc 1 382 6 is_stmt 0
	lbu	a5,0(s1)
	beq	a5,zero,.L72
.LBB5:
	.loc 1 383 4 is_stmt 1
	lbu	a5,1(s1)
	lw	a4,8(s1)
	lw	a3,12(s1)
	mv	a2,s2
	addi	a1,s7,%lo(.LC23)
	addi	a0,sp,48
	call	sprintf
.LVL163:
	.loc 1 385 4
	addi	a1,sp,48
	mv	a0,s0
	call	doit_strcat
.LVL164:
	.loc 1 386 4
	li	a2,256
	li	a1,0
	addi	a0,sp,48
	call	memset
.LVL165:
	.loc 1 388 4
	.loc 1 389 28 is_stmt 0
	lw	a0,4(s1)
	.loc 1 391 4
	addi	a5,sp,40
	addi	a4,sp,36
	addi	a6,sp,44
	addi	a3,sp,32
	addi	a2,sp,28
	addi	a1,sp,24
	.loc 1 390 8
	sw	zero,24(sp)
	.loc 1 390 18
	sw	zero,28(sp)
	.loc 1 390 27
	sw	zero,32(sp)
	.loc 1 390 36
	sw	zero,36(sp)
	.loc 1 390 46
	sw	zero,40(sp)
	.loc 1 390 55
	sw	zero,44(sp)
	.loc 1 391 4
	call	time_sec_to_time
.LVL166:
	.loc 1 393 4
	lw	a5,8(s1)
	li	a4,4
	.loc 1 388 9
	addi	s4,s4,1
.LVL167:
	.loc 1 389 4 is_stmt 1
	.loc 1 390 4
	.loc 1 391 4
	.loc 1 393 4
	bgtu	a5,a4,.L73
	slli	a5,a5,2
	add	a5,a5,s5
	lw	a1,0(a5)
	lw	a7,44(sp)
	lw	a6,40(sp)
	lw	a5,36(sp)
	lw	a4,32(sp)
	lw	a3,28(sp)
	lw	a2,24(sp)
	jr	a1
	.section	.rodata.get_timer_info,"a",@progbits
	.align	2
	.align	2
.L75:
	.word	.L78
	.word	.L78
	.word	.L77
	.word	.L76
	.word	.L78
	.section	.text.get_timer_info
.L78:
	.loc 1 412 5
	addi	a1,s6,%lo(.LC24)
	addi	a0,sp,48
	call	sprintf
.LVL168:
	.loc 1 414 5
.L91:
	.loc 1 449 5
	addi	a1,sp,48
	mv	a0,s0
	call	doit_strcat
.LVL169:
	.loc 1 451 5
.L73:
	.loc 1 459 4
	.loc 1 460 5 is_stmt 0
	addi	a1,s9,%lo(.LC27)
	.loc 1 459 7
	beq	s3,s4,.L93
	.loc 1 462 5 is_stmt 1
	addi	a1,s8,%lo(.LC28)
.L93:
	mv	a0,s0
	call	doit_strcat
.LVL170:
.L72:
.LBE5:
	.loc 1 381 22 is_stmt 0 discriminator 2
	addi	s2,s2,1
.LVL171:
	.loc 1 381 2 discriminator 2
	li	a5,7
	addi	s1,s1,16
	bne	s2,a5,.L81
	.loc 1 466 2 is_stmt 1
	lui	a1,%hi(.LC29)
	mv	a0,s0
	addi	a1,a1,%lo(.LC29)
	call	doit_strcat
.LVL172:
	.loc 1 467 2
	.loc 1 468 1 is_stmt 0
	mv	a0,s0
	lw	ra,364(sp)
	.cfi_remember_state
	.cfi_restore 1
	lw	s0,360(sp)
	.cfi_restore 8
.LVL173:
	lw	s1,356(sp)
	.cfi_restore 9
	lw	s2,352(sp)
	.cfi_restore 18
.LVL174:
	lw	s3,348(sp)
	.cfi_restore 19
.LVL175:
	lw	s4,344(sp)
	.cfi_restore 20
.LVL176:
	lw	s5,340(sp)
	.cfi_restore 21
	lw	s6,336(sp)
	.cfi_restore 22
	lw	s7,332(sp)
	.cfi_restore 23
	lw	s8,328(sp)
	.cfi_restore 24
	lw	s9,324(sp)
	.cfi_restore 25
	lw	s10,320(sp)
	.cfi_restore 26
	lw	s11,316(sp)
	.cfi_restore 27
	addi	sp,sp,368
	.cfi_def_cfa_offset 0
	jr	ra
.LVL177:
.L77:
	.cfi_restore_state
.LBB6:
	.loc 1 418 5 is_stmt 1
	sw	a7,4(sp)
	sw	a6,0(sp)
	mv	a7,a5
	mv	a6,a4
	mv	a5,a3
	mv	a4,a2
	li	a3,0
	li	a2,0
	addi	a1,s11,%lo(.LC25)
.L92:
	.loc 1 445 5 is_stmt 0
	addi	a0,sp,48
	call	sprintf
.LVL178:
	j	.L91
.L76:
	.loc 1 445 5 is_stmt 1
	sw	zero,4(sp)
	sw	zero,0(sp)
	addi	a1,s10,%lo(.LC26)
	j	.L92
.LBE6:
	.cfi_endproc
.LFE21:
	.size	get_timer_info, .-get_timer_info
	.section	.text.timer_get_delay_shutdown_info,"ax",@progbits
	.align	1
	.globl	timer_get_delay_shutdown_info
	.type	timer_get_delay_shutdown_info, @function
timer_get_delay_shutdown_info:
.LFB22:
	.loc 1 475 1
	.cfi_startproc
.LVL179:
	.loc 1 476 2
	lui	a1,%hi(.LC30)
	.loc 1 475 1 is_stmt 0
	addi	sp,sp,-176
	.cfi_def_cfa_offset 176
	.loc 1 476 2
	addi	a1,a1,%lo(.LC30)
	.loc 1 475 1
	sw	ra,172(sp)
	sw	s0,168(sp)
	sw	s2,160(sp)
	sw	s4,152(sp)
	sw	s1,164(sp)
	sw	s3,156(sp)
	sw	s5,148(sp)
	sw	s6,144(sp)
	.cfi_offset 1, -4
	.cfi_offset 8, -8
	.cfi_offset 18, -16
	.cfi_offset 20, -24
	.cfi_offset 9, -12
	.cfi_offset 19, -20
	.cfi_offset 21, -28
	.cfi_offset 22, -32
	.loc 1 475 1
	mv	s4,a0
	.loc 1 476 2
	call	sprintf
.LVL180:
	.loc 1 477 2 is_stmt 1
	.loc 1 478 2
	.loc 1 478 7 is_stmt 0
	li	a2,100
	li	a1,0
	addi	a0,sp,44
	call	memset
.LVL181:
	.loc 1 480 5 is_stmt 1
	.loc 1 480 32 is_stmt 0
	call	timer_get_list
.LVL182:
	mv	s0,a0
	.loc 1 481 2 is_stmt 1
.LVL183:
	addi	a4,a0,112
	.loc 1 480 32 is_stmt 0
	mv	a5,a0
	.loc 1 477 9
	li	s2,0
	.loc 1 482 27
	li	a3,4
.LVL184:
.L96:
	.loc 1 482 3 is_stmt 1
	.loc 1 482 6 is_stmt 0
	lbu	a2,0(a5)
	beq	a2,zero,.L95
	.loc 1 482 27 discriminator 1
	lw	a2,8(a5)
	bne	a2,a3,.L95
	.loc 1 483 4 is_stmt 1
	.loc 1 483 19 is_stmt 0
	addi	s2,s2,1
.LVL185:
.L95:
	addi	a5,a5,16
	.loc 1 481 2 discriminator 2
	bne	a5,a4,.L96
	.loc 1 477 30
	li	s3,0
	.loc 1 487 9
	li	s1,0
.LBB7:
	.loc 1 498 5
	lui	s5,%hi(.LC32)
	.loc 1 495 5
	lui	s6,%hi(.LC31)
.LVL186:
.L100:
.LBE7:
	.loc 1 488 3 is_stmt 1
	.loc 1 488 6 is_stmt 0
	lbu	a5,0(s0)
	beq	a5,zero,.L97
	.loc 1 488 27 discriminator 1
	lw	a4,8(s0)
	li	a5,4
	bne	a4,a5,.L97
.LBB8:
	.loc 1 489 4 is_stmt 1
	.loc 1 490 28 is_stmt 0
	lw	a0,4(s0)
	.loc 1 492 4
	addi	a6,sp,40
	addi	a5,sp,36
	addi	a4,sp,32
	addi	a3,sp,28
	addi	a2,sp,24
	addi	a1,sp,20
	.loc 1 491 8
	sw	zero,20(sp)
	.loc 1 491 18
	sw	zero,24(sp)
	.loc 1 491 27
	sw	zero,28(sp)
	.loc 1 491 36
	sw	zero,32(sp)
	.loc 1 491 46
	sw	zero,36(sp)
	.loc 1 491 55
	sw	zero,40(sp)
	.loc 1 492 4
	call	time_sec_to_time
.LVL187:
	.loc 1 493 4
	li	a2,100
	li	a1,0
	addi	a0,sp,44
	call	memset
.LVL188:
	lw	a1,40(sp)
	lw	a2,36(sp)
	lw	a3,12(s0)
	.loc 1 489 10
	addi	s3,s3,1
.LVL189:
	.loc 1 490 4 is_stmt 1
	.loc 1 491 4
	.loc 1 492 4
	.loc 1 493 4
	.loc 1 494 4
	.loc 1 495 5 is_stmt 0
	sw	a1,4(sp)
	sw	a2,0(sp)
	lw	a7,32(sp)
	lw	a6,28(sp)
	lw	a5,24(sp)
	lw	a4,20(sp)
	mv	a2,s1
	addi	a1,s6,%lo(.LC31)
	.loc 1 494 7
	beq	s2,s3,.L110
	.loc 1 498 5 is_stmt 1
	addi	a1,s5,%lo(.LC32)
.L110:
	addi	a0,sp,44
	call	sprintf
.LVL190:
	.loc 1 501 4
	addi	a1,sp,44
	mv	a0,s4
	call	doit_strcat
.LVL191:
.L97:
.LBE8:
	.loc 1 487 22 is_stmt 0 discriminator 2
	addi	s1,s1,1
.LVL192:
	.loc 1 487 2 discriminator 2
	li	a5,7
	addi	s0,s0,16
	bne	s1,a5,.L100
	.loc 1 504 2 is_stmt 1
	lui	a1,%hi(.LC33)
	mv	a0,s4
	addi	a1,a1,%lo(.LC33)
	call	doit_strcat
.LVL193:
	.loc 1 505 1 is_stmt 0
	lw	ra,172(sp)
	.cfi_restore 1
	lw	s0,168(sp)
	.cfi_restore 8
	lw	s1,164(sp)
	.cfi_restore 9
.LVL194:
	lw	s2,160(sp)
	.cfi_restore 18
.LVL195:
	lw	s3,156(sp)
	.cfi_restore 19
.LVL196:
	lw	s4,152(sp)
	.cfi_restore 20
.LVL197:
	lw	s5,148(sp)
	.cfi_restore 21
	lw	s6,144(sp)
	.cfi_restore 22
	addi	sp,sp,176
	.cfi_def_cfa_offset 0
	jr	ra
	.cfi_endproc
.LFE22:
	.size	timer_get_delay_shutdown_info, .-timer_get_delay_shutdown_info
	.section	.text.set_timezone_to_json,"ax",@progbits
	.align	1
	.globl	set_timezone_to_json
	.type	set_timezone_to_json, @function
set_timezone_to_json:
.LFB23:
	.loc 1 507 38 is_stmt 1
	.cfi_startproc
.LVL198:
	.loc 1 508 2
	.loc 1 508 19 is_stmt 0
	lui	a1,%hi(.LC34)
	.loc 1 507 38
	addi	sp,sp,-16
	.cfi_def_cfa_offset 16
	.loc 1 508 19
	addi	a1,a1,%lo(.LC34)
	.loc 1 507 38
	sw	ra,12(sp)
	sw	s0,8(sp)
	.cfi_offset 1, -4
	.cfi_offset 8, -8
	.loc 1 508 19
	call	cJSON_GetObjectItem
.LVL199:
	.loc 1 509 2 is_stmt 1
	.loc 1 509 5 is_stmt 0
	beq	a0,zero,.L113
	.loc 1 514 2 is_stmt 1
	.loc 1 514 6 is_stmt 0
	lw	s0,20(a0)
.LVL200:
	.loc 1 516 2 is_stmt 1
	.loc 1 516 24 is_stmt 0
	call	flash_get_user_config
.LVL201:
	.loc 1 517 2 is_stmt 1
	.loc 1 517 26 is_stmt 0
	sb	s0,89(a0)
	.loc 1 518 2 is_stmt 1
	.loc 1 520 2
	call	flash_user_config_write
.LVL202:
	.loc 1 521 2
	call	time_start_sync
.LVL203:
	.loc 1 522 5
	call	upload_reset_ext
.LVL204:
	.loc 1 523 2
	.loc 1 523 9 is_stmt 0
	li	a0,0
.LVL205:
.L111:
	.loc 1 524 1
	lw	ra,12(sp)
	.cfi_remember_state
	.cfi_restore 1
	lw	s0,8(sp)
	.cfi_restore 8
	addi	sp,sp,16
	.cfi_def_cfa_offset 0
	jr	ra
.LVL206:
.L113:
	.cfi_restore_state
	.loc 1 511 10
	li	a0,43
.LVL207:
	j	.L111
	.cfi_endproc
.LFE23:
	.size	set_timezone_to_json, .-set_timezone_to_json
	.section	.text.ota_start_to_json,"ax",@progbits
	.align	1
	.globl	ota_start_to_json
	.type	ota_start_to_json, @function
ota_start_to_json:
.LFB24:
	.loc 1 526 35 is_stmt 1
	.cfi_startproc
.LVL208:
	.loc 1 528 2
	.loc 1 528 18 is_stmt 0
	lui	a1,%hi(.LC35)
	.loc 1 526 35
	addi	sp,sp,-32
	.cfi_def_cfa_offset 32
	.loc 1 528 18
	addi	a1,a1,%lo(.LC35)
	.loc 1 526 35
	sw	ra,28(sp)
	.cfi_offset 1, -4
	.loc 1 528 18
	call	cJSON_GetObjectItem
.LVL209:
	.loc 1 529 2 is_stmt 1
	.loc 1 529 5 is_stmt 0
	beq	a0,zero,.L117
	.loc 1 533 2 is_stmt 1
.LVL210:
	.loc 1 534 2
	.loc 1 534 5 is_stmt 0
	lw	a4,20(a0)
	li	a5,1
	.loc 1 538 9
	li	a0,0
.LVL211:
	.loc 1 534 5
	bne	a4,a5,.L115
	sw	a0,12(sp)
	.loc 1 535 3 is_stmt 1
	.loc 1 536 3
	call	doit_ota_server_init
.LVL212:
	lw	a0,12(sp)
.L115:
	.loc 1 539 1 is_stmt 0
	lw	ra,28(sp)
	.cfi_remember_state
	.cfi_restore 1
	addi	sp,sp,32
	.cfi_def_cfa_offset 0
	jr	ra
.LVL213:
.L117:
	.cfi_restore_state
	.loc 1 531 10
	li	a0,46
.LVL214:
	j	.L115
	.cfi_endproc
.LFE24:
	.size	ota_start_to_json, .-ota_start_to_json
	.section	.text.reset_config_to_json,"ax",@progbits
	.align	1
	.globl	reset_config_to_json
	.type	reset_config_to_json, @function
reset_config_to_json:
.LFB25:
	.loc 1 542 38 is_stmt 1
	.cfi_startproc
.LVL215:
	.loc 1 543 2
	.loc 1 543 15 is_stmt 0
	lui	a1,%hi(.LC36)
	.loc 1 542 38
	addi	sp,sp,-32
	.cfi_def_cfa_offset 32
	.loc 1 543 15
	addi	a1,a1,%lo(.LC36)
	.loc 1 542 38
	sw	ra,28(sp)
	.cfi_offset 1, -4
	.loc 1 543 15
	call	cJSON_GetObjectItem
.LVL216:
	.loc 1 544 2 is_stmt 1
	.loc 1 544 5 is_stmt 0
	beq	a0,zero,.L122
	.loc 1 548 2 is_stmt 1
.LVL217:
	.loc 1 549 2
	.loc 1 549 5 is_stmt 0
	lw	a4,20(a0)
	li	a5,1
	.loc 1 553 9
	li	a0,0
.LVL218:
	.loc 1 549 5
	bne	a4,a5,.L120
	sw	a0,12(sp)
	.loc 1 550 3 is_stmt 1
	call	flash_reset_user_config
.LVL219:
	.loc 1 551 3
	call	system_delay_reset
.LVL220:
	lw	a0,12(sp)
.L120:
	.loc 1 554 1 is_stmt 0
	lw	ra,28(sp)
	.cfi_remember_state
	.cfi_restore 1
	addi	sp,sp,32
	.cfi_def_cfa_offset 0
	jr	ra
.LVL221:
.L122:
	.cfi_restore_state
	.loc 1 546 10
	li	a0,46
.LVL222:
	j	.L120
	.cfi_endproc
.LFE25:
	.size	reset_config_to_json, .-reset_config_to_json
	.section	.rodata.check_connect_router.str1.4,"aMS",@progbits,1
	.align	2
.LC10:
	.string	"{\"res\":0,\"cmd\":19\",ip\":\"%d.%d.%d.%d\"}\r\n"
.LC11:
	.string	"{\"res\":1,\"cmd\":19}\r\n"
	.section	.rodata.delay_shutdown_to_json.str1.4,"aMS",@progbits,1
	.align	2
.LC17:
	.string	"time"
	.section	.rodata.falsh_save_ssid_to_json.str1.4,"aMS",@progbits,1
	.align	2
.LC18:
	.string	"ssid"
	.zero	3
.LC19:
	.string	"pass"
	.section	.rodata.get_device_info.str1.4,"aMS",@progbits,1
	.align	2
.LC7:
	.string	"1.1.0"
	.zero	2
.LC8:
	.string	"{\"res\":0,\"cmd\":4,\"tz\":%d,\"ver\":\"%s\",\"dev_id\":\"%s\",\"conn\":%d,\"remote\":%d,%s\"repeater\":%d,\"portal\":%d,\"chip\":\"%s\"}\r\n"
	.zero	1
.LC9:
	.string	"_ESP32"
	.section	.rodata.get_ssid_info.str1.4,"aMS",@progbits,1
	.align	2
.LC20:
	.string	"{\"res\":0,\"cmd\":16,\"dev_id\":\"%s\",\"ssid\":\"%s\",\"pass\":\"%s\"}\r\n"
	.section	.rodata.get_time_info.str1.4,"aMS",@progbits,1
	.align	2
.LC12:
	.string	"{\"res\":0,\"cmd\":9,\"year\":%d,\"mon\":%d,\"day\":%d,\"hour\":%d,\"min\":%d,\"sec\":%d,\"stamps\":%ld}\r\n"
	.section	.rodata.get_timer_info.str1.4,"aMS",@progbits,1
	.align	2
.LC22:
	.string	"{\"res\":0,\"cmd\":21,\"timers\":["
	.zero	3
.LC23:
	.string	"{\"index\":%d,\"ts\":%ld,\"type\":%d,\"repeat\":%d"
	.zero	1
.LC24:
	.string	",\"year\":%d,\"mon\":%d,\"day\":%d,\"hour\":%d,\"min\":%d,\"sec\":%d"
	.zero	3
.LC25:
	.string	",\"index2\":%d,\"freq\":%d,\"year\":%d,\"mon\":%d,\"day\":%d,\"hour\":%d,\"min\":%d,\"sec\":%d"
	.zero	1
.LC26:
	.string	",\"year\":%d,\"mon\":%d,\"day\":%d,\"hour\":%d,\"min\":%d,\"sec\":%d,\"mode\":%d,\"freq\":%d"
	.zero	3
.LC27:
	.string	"}"
	.zero	2
.LC28:
	.string	"},"
	.zero	1
.LC29:
	.string	"]}"
	.section	.rodata.get_tm_from_json_string.str1.4,"aMS",@progbits,1
	.align	2
.LC0:
	.string	"year"
	.zero	3
.LC1:
	.string	"month"
	.zero	2
.LC2:
	.string	"day"
.LC3:
	.string	"hour"
	.zero	3
.LC4:
	.string	"minute"
	.zero	1
.LC5:
	.string	"second"
	.section	.rodata.get_version_info.str1.4,"aMS",@progbits,1
	.align	2
.LC21:
	.string	"{\"res\":0,\"cmd\":20,\"ver\":\"%s\"}\r\n"
	.section	.rodata.modify_timer_to_json.str1.4,"aMS",@progbits,1
	.align	2
.LC16:
	.string	"index"
	.section	.rodata.ota_start_to_json.str1.4,"aMS",@progbits,1
	.align	2
.LC35:
	.string	"otaen"
	.section	.rodata.reset_config_to_json.str1.4,"aMS",@progbits,1
	.align	2
.LC36:
	.string	"en"
	.section	.rodata.set_timezone_to_json.str1.4,"aMS",@progbits,1
	.align	2
.LC34:
	.string	"offset"
	.section	.rodata.setup_powerup_timer_to_json.str1.4,"aMS",@progbits,1
	.align	2
.LC15:
	.string	"type"
	.section	.rodata.setup_shutdown_timer_to_json.str1.4,"aMS",@progbits,1
	.align	2
.LC13:
	.string	"ts"
	.zero	1
.LC14:
	.string	"repeat"
	.section	.rodata.system_reset_json.str1.4,"aMS",@progbits,1
	.align	2
.LC6:
	.string	"{\"res\":%d,\"cmd\":3}\r\n"
	.section	.rodata.timer_get_delay_shutdown_info.str1.4,"aMS",@progbits,1
	.align	2
.LC30:
	.string	"{\"res\":0,\"cmd\":22,\"timers\":["
	.zero	3
.LC31:
	.string	"{\"index\":%d,\"ts\":%ld,\"year\":%d,\"mon\":%d,\"day\":%d,\"hour\":%d,\"min\":%d,\"sec\":%d}"
	.zero	2
.LC32:
	.string	"{\"index\":%d,\"ts\":%ld,\"year\":%d,\"mon\":%d,\"day\":%d,\"hour\":%d,\"min\":%d,\"sec\":%d},"
	.zero	1
.LC33:
	.string	"]}\r\n"
	.text
.Letext0:
	.file 2 "/b-l/DoHome_Light_rgbcw/DoHome_Light_rgbcw/components/cjson/include/cJSON.h"
	.file 3 "/b-l/bl_iot_sdk/toolchain/riscv/Linux/lib/gcc/riscv64-unknown-elf/8.3.0/include/stddef.h"
	.file 4 "/b-l/bl_iot_sdk/toolchain/riscv/Linux/riscv64-unknown-elf/include/machine/_default_types.h"
	.file 5 "/b-l/bl_iot_sdk/toolchain/riscv/Linux/riscv64-unknown-elf/include/sys/_types.h"
	.file 6 "/b-l/bl_iot_sdk/toolchain/riscv/Linux/riscv64-unknown-elf/include/sys/reent.h"
	.file 7 "/b-l/bl_iot_sdk/toolchain/riscv/Linux/riscv64-unknown-elf/include/sys/lock.h"
	.file 8 "/b-l/bl_iot_sdk/toolchain/riscv/Linux/lib/gcc/riscv64-unknown-elf/8.3.0/include/stdint-gcc.h"
	.file 9 "/b-l/DoHome_Light_rgbcw/DoHome_Light_rgbcw/components/doit_server/include/doit_device_info.h"
	.file 10 "/b-l/DoHome_Light_rgbcw/DoHome_Light_rgbcw/components/doit_server/include/doit_flash.h"
	.file 11 "/b-l/bl_iot_sdk/toolchain/riscv/Linux/riscv64-unknown-elf/include/sys/_timeval.h"
	.file 12 "/b-l/bl_iot_sdk/toolchain/riscv/Linux/riscv64-unknown-elf/include/time.h"
	.file 13 "/b-l/DoHome_Light_rgbcw/DoHome_Light_rgbcw/components/doit_server/include/doit_timer.h"
	.file 14 "/b-l/bl_iot_sdk/components/bl602/freertos_riscv_ram/portable/GCC/RISC-V/portmacro.h"
	.file 15 "/b-l/DoHome_Light_rgbcw/DoHome_Light_rgbcw/components/doit_server/include/doit_system.h"
	.file 16 "/b-l/DoHome_Light_rgbcw/DoHome_Light_rgbcw/components/doit_server/include/doit_ota.h"
	.file 17 "/b-l/DoHome_Light_rgbcw/DoHome_Light_rgbcw/components/doit_server/include/doit_sntp.h"
	.file 18 "/b-l/DoHome_Light_rgbcw/DoHome_Light_rgbcw/components/doit_server/include/doit_upload.h"
	.file 19 "/b-l/bl_iot_sdk/toolchain/riscv/Linux/riscv64-unknown-elf/include/string.h"
	.file 20 "/b-l/bl_iot_sdk/toolchain/riscv/Linux/riscv64-unknown-elf/include/stdio.h"
	.file 21 "/b-l/DoHome_Light_rgbcw/DoHome_Light_rgbcw/components/doit_server/include/doit_utils.h"
	.file 22 "/b-l/DoHome_Light_rgbcw/DoHome_Light_rgbcw/components/doit_server/include/doit_wifi.h"
	.file 23 "<built-in>"