	.file	"ecc_dsa.c"
	.option nopic
	.attribute arch, "rv32i2p0_m2p0_f2p0_c2p0"
	.attribute unaligned_access, 0
	.attribute stack_align, 16
	.text
.Ltext0:
	.cfi_sections	.debug_frame
	.section	.text.bits2int,"ax",@progbits
	.align	1
	.type	bits2int, @function
bits2int:
.LFB0:
	.file 1 "/b-l/bl_iot_sdk_new/components/network/ble/blestack/src/common/tinycrypt/source/ecc_dsa.c"
	.loc 1 68 1
	.cfi_startproc
.LVL0:
	.loc 1 69 2
	.loc 1 68 1 is_stmt 0
	addi	sp,sp,-32
	.cfi_def_cfa_offset 32
	sw	s1,20(sp)
	sw	s2,16(sp)
	sw	s3,12(sp)
	sw	s5,4(sp)
	sw	ra,28(sp)
	sw	s0,24(sp)
	sw	s4,8(sp)
	.cfi_offset 9, -12
	.cfi_offset 18, -16
	.cfi_offset 19, -20
	.cfi_offset 21, -28
	.cfi_offset 1, -4
	.cfi_offset 8, -8
	.cfi_offset 20, -24
	.loc 1 69 32
	lh	s0,2(a3)
.LVL1:
	.loc 1 70 2 is_stmt 1
	.loc 1 70 62 is_stmt 0
	li	a5,32
	.loc 1 68 1
	mv	s2,a0
	.loc 1 70 45
	addi	s1,s0,31
	.loc 1 70 62
	div	s1,s1,a5
.LVL2:
	.loc 1 71 2 is_stmt 1
	.loc 1 72 2
	.loc 1 73 2
	.loc 1 75 2
	.loc 1 69 45 is_stmt 0
	addi	s0,s0,7
.LVL3:
	.loc 1 69 50
	li	a5,8
	.loc 1 68 1
	mv	s5,a1
	mv	s3,a3
	.loc 1 69 50
	div	s0,s0,a5
.LVL4:
	bleu	s0,a2,.L2
	mv	s0,a2
.LVL5:
.L2:
	.loc 1 79 2 is_stmt 1
	slli	s4,s1,24
	srai	s4,s4,24
	mv	a1,s4
.LVL6:
	mv	a0,s2
.LVL7:
	call	uECC_vli_clear
.LVL8:
	.loc 1 80 2
	mv	a2,s0
	mv	a1,s5
	mv	a0,s2
	call	uECC_vli_bytesToNative
.LVL9:
	.loc 1 81 2
	.loc 1 81 23 is_stmt 0
	lh	a5,2(s3)
	.loc 1 81 16
	slli	s0,s0,3
.LVL10:
	.loc 1 81 5
	bleu	s0,a5,.L1
	.loc 1 84 2 is_stmt 1
	.loc 1 84 24 is_stmt 0
	sub	s0,s0,a5
.LVL11:
	.loc 1 85 2 is_stmt 1
	.loc 1 86 2
	.loc 1 87 2
.LBB5:
	.loc 1 90 23 is_stmt 0
	li	a4,32
.LBE5:
	.loc 1 86 15
	slli	a5,s1,2
	.loc 1 86 6
	add	a5,s2,a5
.LVL12:
	.loc 1 85 8
	li	a2,0
.LBB6:
	.loc 1 90 23
	sub	a4,a4,s0
.LVL13:
.L5:
.LBE6:
	.loc 1 87 8
	bltu	s2,a5,.L6
	.loc 1 94 2 is_stmt 1
	.loc 1 94 31 is_stmt 0
	addi	s3,s3,36
.LVL14:
	.loc 1 94 6
	mv	a2,s4
.LVL15:
	mv	a1,s2
	mv	a0,s3
	call	uECC_vli_cmp_unsafe
.LVL16:
	.loc 1 94 5
	li	a5,1
	beq	a0,a5,.L1
	.loc 1 95 3 is_stmt 1
	.loc 1 97 1 is_stmt 0
	lw	s0,24(sp)
	.cfi_remember_state
	.cfi_restore 8
.LVL17:
	lw	ra,28(sp)
	.cfi_restore 1
	lw	s1,20(sp)
	.cfi_restore 9
.LVL18:
	lw	s5,4(sp)
	.cfi_restore 21
.LVL19:
	.loc 1 95 3
	mv	a3,s4
	mv	a2,s3
	.loc 1 97 1
	lw	s4,8(sp)
	.cfi_restore 20
	lw	s3,12(sp)
	.cfi_restore 19
.LVL20:
	.loc 1 95 3
	mv	a1,s2
	mv	a0,s2
	.loc 1 97 1
	lw	s2,16(sp)
	.cfi_restore 18
.LVL21:
	addi	sp,sp,32
	.cfi_def_cfa_offset 0
	.loc 1 95 3
	tail	uECC_vli_sub
.LVL22:
.L6:
	.cfi_restore_state
.LBB7:
	.loc 1 88 3 is_stmt 1
	.loc 1 88 15 is_stmt 0
	lw	a1,-4(a5)
.LVL23:
	.loc 1 89 3 is_stmt 1
	addi	a5,a5,-4
.LVL24:
	.loc 1 89 16 is_stmt 0
	srl	a3,a1,s0
	.loc 1 89 26
	or	a3,a3,a2
	.loc 1 89 8
	sw	a3,0(a5)
	.loc 1 90 3 is_stmt 1
	.loc 1 90 9 is_stmt 0
	sll	a2,a1,a4
.LVL25:
	j	.L5
.LVL26:
.L1:
.LBE7:
	.loc 1 97 1
	lw	ra,28(sp)
	.cfi_restore 1
	lw	s0,24(sp)
	.cfi_restore 8
	lw	s1,20(sp)
	.cfi_restore 9
.LVL27:
	lw	s2,16(sp)
	.cfi_restore 18
.LVL28:
	lw	s3,12(sp)
	.cfi_restore 19
	lw	s4,8(sp)
	.cfi_restore 20
	lw	s5,4(sp)
	.cfi_restore 21
.LVL29:
	addi	sp,sp,32
	.cfi_def_cfa_offset 0
	jr	ra
	.cfi_endproc
.LFE0:
	.size	bits2int, .-bits2int
	.section	.text.uECC_sign_with_k,"ax",@progbits
	.align	1
	.globl	uECC_sign_with_k
	.type	uECC_sign_with_k, @function
uECC_sign_with_k:
.LFB1:
	.loc 1 102 1 is_stmt 1
	.cfi_startproc
.LVL30:
	.loc 1 104 2
	.loc 1 105 2
	.loc 1 106 2
	.loc 1 102 1 is_stmt 0
	addi	sp,sp,-224
	.cfi_def_cfa_offset 224
	sw	s1,212(sp)
	sw	s2,208(sp)
	sw	s3,204(sp)
	sw	s4,200(sp)
	sw	s7,188(sp)
	sw	s10,176(sp)
	sw	s11,172(sp)
	sw	ra,220(sp)
	sw	s0,216(sp)
	sw	s5,196(sp)
	sw	s6,192(sp)
	sw	s8,184(sp)
	sw	s9,180(sp)
	.cfi_offset 9, -12
	.cfi_offset 18, -16
	.cfi_offset 19, -20
	.cfi_offset 20, -24
	.cfi_offset 23, -36
	.cfi_offset 26, -48
	.cfi_offset 27, -52
	.cfi_offset 1, -4
	.cfi_offset 8, -8
	.cfi_offset 21, -28
	.cfi_offset 22, -32
	.cfi_offset 24, -40
	.cfi_offset 25, -44
	.loc 1 109 14
	lb	s6,0(a5)
	.loc 1 102 1
	mv	s11,a0
	sw	a1,12(sp)
	.loc 1 106 15
	addi	s4,sp,32
	addi	s1,sp,64
	.loc 1 114 8
	mv	a1,s6
.LVL31:
	mv	a0,a3
.LVL32:
	.loc 1 102 1
	mv	s10,a2
	mv	s3,a3
	mv	s7,a4
	mv	s2,a5
	.loc 1 106 15
	sw	s4,24(sp)
	sw	s1,28(sp)
	.loc 1 107 2 is_stmt 1
	.loc 1 108 2
	.loc 1 109 2
.LVL33:
	.loc 1 110 2
	.loc 1 110 35 is_stmt 0
	lh	s9,2(a5)
.LVL34:
	.loc 1 111 2 is_stmt 1
	.loc 1 114 4
	.loc 1 114 8 is_stmt 0
	call	uECC_vli_isZero
.LVL35:
	.loc 1 114 7
	beq	a0,zero,.L10
.L12:
	.loc 1 116 10
	li	a0,0
.L9:
	.loc 1 159 1
	lw	ra,220(sp)
	.cfi_remember_state
	.cfi_restore 1
	lw	s0,216(sp)
	.cfi_restore 8
	lw	s1,212(sp)
	.cfi_restore 9
	lw	s2,208(sp)
	.cfi_restore 18
.LVL36:
	lw	s3,204(sp)
	.cfi_restore 19
.LVL37:
	lw	s4,200(sp)
	.cfi_restore 20
	lw	s5,196(sp)
	.cfi_restore 21
	lw	s6,192(sp)
	.cfi_restore 22
.LVL38:
	lw	s7,188(sp)
	.cfi_restore 23
.LVL39:
	lw	s8,184(sp)
	.cfi_restore 24
	lw	s9,180(sp)
	.cfi_restore 25
.LVL40:
	lw	s10,176(sp)
	.cfi_restore 26
.LVL41:
	lw	s11,172(sp)
	.cfi_restore 27
.LVL42:
	addi	sp,sp,224
	.cfi_def_cfa_offset 0
.LVL43:
	jr	ra
.LVL44:
.L10:
	.cfi_restore_state
	.loc 1 110 65 discriminator 1
	li	a5,32
	.loc 1 110 48 discriminator 1
	addi	s0,s9,31
	.loc 1 110 65 discriminator 1
	div	s0,s0,a5
	.loc 1 115 24 discriminator 1
	addi	s5,s2,36
	.loc 1 115 6 discriminator 1
	mv	a1,s3
	mv	a0,s5
	.loc 1 110 14 discriminator 1
	slli	s0,s0,24
	srai	s0,s0,24
	.loc 1 115 6 discriminator 1
	mv	a2,s0
	call	uECC_vli_cmp
.LVL45:
	.loc 1 114 38 discriminator 1
	li	a5,1
	.loc 1 115 6 discriminator 1
	mv	s8,a0
	.loc 1 114 38 discriminator 1
	bne	a0,a5,.L12
	.loc 1 119 2 is_stmt 1
	.loc 1 119 10 is_stmt 0
	mv	a3,s2
	mv	a2,s1
	mv	a1,s4
	mv	a0,s3
	call	regularize_k
.LVL46:
	.loc 1 120 2 is_stmt 1
	.loc 1 120 32 is_stmt 0
	seqz	a0,a0
.LVL47:
	.loc 1 120 31
	addi	a5,sp,160
	slli	a0,a0,2
	add	a0,a5,a0
	.loc 1 120 2
	lw	a2,-136(a0)
	.loc 1 120 55
	addi	a4,s9,1
	.loc 1 120 2
	slli	a4,a4,16
	addi	a1,s2,68
	addi	a0,sp,96
	mv	a5,s2
	srai	a4,a4,16
	li	a3,0
	call	EccPoint_mult
.LVL48:
	.loc 1 121 2 is_stmt 1
	.loc 1 121 6 is_stmt 0
	mv	a1,s6
	addi	a0,sp,96
	call	uECC_vli_isZero
.LVL49:
	.loc 1 121 5
	bne	a0,zero,.L12
	.loc 1 127 2 is_stmt 1
	.loc 1 128 3
	mv	a1,s0
	mv	a0,s4
	call	uECC_vli_clear
.LVL50:
	.loc 1 129 3
	.loc 1 137 2 is_stmt 0
	mv	a4,s0
	mv	a3,s5
	mv	a2,s4
	mv	a1,s3
	mv	a0,s3
	.loc 1 129 10
	sw	s8,32(sp)
	.loc 1 137 2 is_stmt 1
	call	uECC_vli_modMult
.LVL51:
	.loc 1 138 2
	mv	a3,s0
	mv	a2,s5
	mv	a1,s3
	mv	a0,s3
	call	uECC_vli_modInv
.LVL52:
	.loc 1 139 2
	mv	a3,s5
	mv	a4,s0
	mv	a2,s4
	mv	a1,s3
	mv	a0,s3
	call	uECC_vli_modMult
.LVL53:
	.loc 1 141 2
	lb	a1,1(s2)
	addi	a2,sp,96
	mv	a0,s7
	call	uECC_vli_nativeToBytes
.LVL54:
	.loc 1 144 2
	.loc 1 144 50 is_stmt 0
	lh	a5,2(s2)
	.loc 1 144 2
	li	a2,8
	mv	a1,s11
	.loc 1 144 63
	addi	a5,a5,7
	.loc 1 144 2
	div	a2,a5,a2
	mv	a0,s4
	call	uECC_vli_bytesToNative
.LVL55:
	.loc 1 146 2 is_stmt 1
	.loc 1 146 21 is_stmt 0
	addi	a5,s0,-1
	addi	a4,sp,160
	slli	a5,a5,2
	add	a5,a4,a5
	.loc 1 147 2
	mv	a2,s6
	addi	a1,sp,96
	mv	a0,s1
	.loc 1 146 21
	sw	zero,-96(a5)
	.loc 1 147 2 is_stmt 1
	call	uECC_vli_set
.LVL56:
	.loc 1 148 2
	mv	a4,s0
	mv	a3,s5
	mv	a2,s1
	mv	a1,s4
	mv	a0,s1
	call	uECC_vli_modMult
.LVL57:
	.loc 1 150 2
	lw	a1,12(sp)
	mv	a3,s2
	mv	a2,s10
	mv	a0,s4
	call	bits2int
.LVL58:
	.loc 1 151 2
	mv	a4,s0
	mv	a3,s5
	mv	a2,s1
	mv	a1,s4
	mv	a0,s1
	call	uECC_vli_modAdd
.LVL59:
	.loc 1 152 2
	mv	a4,s0
	mv	a3,s5
	mv	a2,s3
	mv	a1,s1
	mv	a0,s1
	call	uECC_vli_modMult
.LVL60:
	.loc 1 153 2
	.loc 1 153 6 is_stmt 0
	mv	a1,s0
	mv	a0,s1
	call	uECC_vli_numBits
.LVL61:
	.loc 1 153 58
	lb	a1,1(s2)
	.loc 1 153 70
	slli	a5,a1,3
	.loc 1 153 5
	bgt	a0,a5,.L12
	.loc 1 157 2 is_stmt 1
	add	a0,s7,a1
	mv	a2,s1
	call	uECC_vli_nativeToBytes
.LVL62:
	.loc 1 158 2
	.loc 1 158 9 is_stmt 0
	li	a0,1
	j	.L9
	.cfi_endproc
.LFE1:
	.size	uECC_sign_with_k, .-uECC_sign_with_k
	.section	.text.uECC_sign,"ax",@progbits
	.align	1
	.globl	uECC_sign
	.type	uECC_sign, @function
uECC_sign:
.LFB2:
	.loc 1 163 1 is_stmt 1
	.cfi_startproc
.LVL63:
	.loc 1 164 8
	.loc 1 165 8
	.loc 1 166 8
	.loc 1 168 2
	.loc 1 163 1 is_stmt 0
	addi	sp,sp,-144
	.cfi_def_cfa_offset 144
	sw	s0,136(sp)
	sw	s1,132(sp)
	sw	s2,128(sp)
	sw	s3,124(sp)
	sw	s4,120(sp)
	sw	s5,116(sp)
	sw	s6,112(sp)
	sw	s7,108(sp)
	sw	ra,140(sp)
	.cfi_offset 8, -8
	.cfi_offset 9, -12
	.cfi_offset 18, -16
	.cfi_offset 19, -20
	.cfi_offset 20, -24
	.cfi_offset 21, -28
	.cfi_offset 22, -32
	.cfi_offset 23, -36
	.cfi_offset 1, -4
	.loc 1 163 1
	mv	s2,a0
	mv	s3,a1
	mv	s4,a2
	mv	s5,a3
	mv	s1,a4
	li	s0,64
.LBB8:
	.loc 1 177 76
	li	s6,32
	.loc 1 177 34
	addi	s7,a4,36
.LVL64:
.L17:
	.loc 1 170 3 is_stmt 1
	.loc 1 170 36 is_stmt 0
	call	uECC_get_rng
.LVL65:
	mv	a5,a0
.LVL66:
	.loc 1 171 3 is_stmt 1
	.loc 1 171 6 is_stmt 0
	beq	a0,zero,.L15
	.loc 1 172 8 discriminator 1
	li	a1,64
	addi	a0,sp,32
.LVL67:
	jalr	a5
.LVL68:
	.loc 1 171 21 discriminator 1
	beq	a0,zero,.L15
	.loc 1 177 3 is_stmt 1
	.loc 1 177 46 is_stmt 0
	lh	a3,2(s1)
	.loc 1 177 3
	mv	a2,s7
	addi	a1,sp,32
	.loc 1 177 59
	addi	a3,a3,31
	.loc 1 177 76
	div	a3,a3,s6
	.loc 1 177 3
	mv	a0,sp
	slli	a3,a3,24
	srai	a3,a3,24
	call	uECC_vli_mmod
.LVL69:
	.loc 1 179 3 is_stmt 1
	.loc 1 179 7 is_stmt 0
	mv	a5,s1
	mv	a4,s5
	mv	a3,sp
	mv	a2,s4
	mv	a1,s3
	mv	a0,s2
	call	uECC_sign_with_k
.LVL70:
	.loc 1 179 6
	bne	a0,zero,.L18
.LVL71:
	addi	s0,s0,-1
.LVL72:
.LBE8:
	.loc 1 168 2 discriminator 2
	bne	s0,zero,.L17
.LVL73:
.L15:
.LBB9:
	.loc 1 173 11
	li	a0,0
.L14:
.LBE9:
	.loc 1 185 1
	lw	ra,140(sp)
	.cfi_remember_state
	.cfi_restore 1
	lw	s0,136(sp)
	.cfi_restore 8
	lw	s1,132(sp)
	.cfi_restore 9
.LVL74:
	lw	s2,128(sp)
	.cfi_restore 18
.LVL75:
	lw	s3,124(sp)
	.cfi_restore 19
.LVL76:
	lw	s4,120(sp)
	.cfi_restore 20
.LVL77:
	lw	s5,116(sp)
	.cfi_restore 21
.LVL78:
	lw	s6,112(sp)
	.cfi_restore 22
	lw	s7,108(sp)
	.cfi_restore 23
.LVL79:
	addi	sp,sp,144
	.cfi_def_cfa_offset 0
	jr	ra
.LVL80:
.L18:
	.cfi_restore_state
.LBB10:
	.loc 1 181 11
	li	a0,1
	j	.L14
.LBE10:
	.cfi_endproc
.LFE2:
	.size	uECC_sign, .-uECC_sign
	.section	.text.uECC_verify,"ax",@progbits
	.align	1
	.globl	uECC_verify
	.type	uECC_verify, @function
uECC_verify:
.LFB4:
	.loc 1 195 1 is_stmt 1
	.cfi_startproc
.LVL81:
	.loc 1 197 2
	.loc 1 198 2
	.loc 1 199 2
	.loc 1 200 2
	.loc 1 201 2
	.loc 1 202 2
	.loc 1 203 2
	.loc 1 204 2
	.loc 1 205 2
	.loc 1 206 2
	.loc 1 207 2
	.loc 1 208 2
	.loc 1 210 2
	.loc 1 211 2
	.loc 1 212 2
	.loc 1 195 1 is_stmt 0
	addi	sp,sp,-512
	.cfi_def_cfa_offset 512
	sw	ra,508(sp)
	sw	s0,504(sp)
	sw	s3,492(sp)
	sw	s4,488(sp)
	sw	s5,484(sp)
	sw	s6,480(sp)
	sw	s7,476(sp)
	sw	s8,472(sp)
	sw	s9,468(sp)
	sw	s10,464(sp)
	sw	s1,500(sp)
	sw	s2,496(sp)
	.cfi_offset 1, -4
	.cfi_offset 8, -8
	.cfi_offset 19, -20
	.cfi_offset 20, -24
	.cfi_offset 21, -28
	.cfi_offset 22, -32
	.cfi_offset 23, -36
	.cfi_offset 24, -40
	.cfi_offset 25, -44
	.cfi_offset 26, -48
	.cfi_offset 9, -12
	.cfi_offset 18, -16
	.loc 1 213 35
	lh	s2,2(a4)
	.loc 1 213 65
	li	a5,32
	.loc 1 195 1
	mv	s7,a2
	.loc 1 213 48
	addi	s2,s2,31
	.loc 1 213 65
	div	s2,s2,a5
	.loc 1 219 2
	lb	a2,1(a4)
.LVL82:
	.loc 1 215 22
	addi	a5,sp,464
	.loc 1 219 2
	addi	s8,sp,400
	.loc 1 212 14
	lb	s1,0(a4)
.LVL83:
	.loc 1 213 2 is_stmt 1
	.loc 1 195 1 is_stmt 0
	mv	s9,a0
	mv	s4,a1
	.loc 1 219 2
	mv	a1,a0
.LVL84:
	mv	a0,s8
.LVL85:
	.loc 1 195 1
	mv	s0,a4
	mv	s5,a3
	.loc 1 220 33
	slli	s6,s1,2
	.loc 1 220 2
	add	s10,s8,s6
	.loc 1 213 14
	slli	s2,s2,24
	srai	s2,s2,24
.LVL86:
	.loc 1 215 2 is_stmt 1
	.loc 1 215 17 is_stmt 0
	addi	s3,s2,-1
	.loc 1 215 22
	slli	s3,s3,2
	add	s3,a5,s3
	sw	zero,-352(s3)
	.loc 1 216 2 is_stmt 1
	.loc 1 216 21 is_stmt 0
	sw	zero,-192(s3)
	.loc 1 217 2 is_stmt 1
	.loc 1 217 21 is_stmt 0
	sw	zero,-160(s3)
	.loc 1 219 2 is_stmt 1
	call	uECC_vli_bytesToNative
.LVL87:
	.loc 1 220 2
	.loc 1 220 64 is_stmt 0
	lb	a2,1(s0)
	.loc 1 220 2
	mv	a0,s10
	add	a1,s9,a2
	call	uECC_vli_bytesToNative
.LVL88:
	.loc 1 222 2 is_stmt 1
	lb	a2,1(s0)
	mv	a1,s5
	addi	a0,sp,272
	call	uECC_vli_bytesToNative
.LVL89:
	.loc 1 223 2
	.loc 1 223 45 is_stmt 0
	lb	a2,1(s0)
	.loc 1 223 2
	addi	a0,sp,304
	add	a1,s5,a2
	call	uECC_vli_bytesToNative
.LVL90:
	.loc 1 226 2 is_stmt 1
	.loc 1 226 6 is_stmt 0
	mv	a1,s1
	addi	a0,sp,272
	call	uECC_vli_isZero
.LVL91:
	.loc 1 226 5
	beq	a0,zero,.L28
.LVL92:
.L30:
	.loc 1 227 10
	li	a0,0
.LVL93:
.L27:
	.loc 1 294 1
	lw	ra,508(sp)
	.cfi_remember_state
	.cfi_restore 1
	lw	s0,504(sp)
	.cfi_restore 8
.LVL94:
	lw	s1,500(sp)
	.cfi_restore 9
.LVL95:
	lw	s2,496(sp)
	.cfi_restore 18
.LVL96:
	lw	s3,492(sp)
	.cfi_restore 19
	lw	s4,488(sp)
	.cfi_restore 20
	lw	s5,484(sp)
	.cfi_restore 21
	lw	s6,480(sp)
	.cfi_restore 22
	lw	s7,476(sp)
	.cfi_restore 23
	lw	s8,472(sp)
	.cfi_restore 24
	lw	s9,468(sp)
	.cfi_restore 25
	lw	s10,464(sp)
	.cfi_restore 26
	addi	sp,sp,512
	.cfi_def_cfa_offset 0
	jr	ra
.LVL97:
.L28:
	.cfi_restore_state
	.loc 1 226 39 discriminator 1
	mv	a1,s1
	addi	a0,sp,304
	call	uECC_vli_isZero
.LVL98:
	.loc 1 226 36 discriminator 1
	bne	a0,zero,.L30
	.loc 1 231 2 is_stmt 1
	.loc 1 231 31 is_stmt 0
	addi	s5,s0,36
.LVL99:
	.loc 1 231 6
	mv	a2,s2
	addi	a1,sp,272
	mv	a0,s5
	call	uECC_vli_cmp_unsafe
.LVL100:
	.loc 1 231 5
	li	a5,1
	.loc 1 231 6
	mv	s9,a0
.LVL101:
	.loc 1 231 5
	bne	a0,a5,.L30
	.loc 1 232 6 discriminator 1
	mv	a2,s2
	addi	a1,sp,304
	mv	a0,s5
	call	uECC_vli_cmp_unsafe
.LVL102:
	.loc 1 231 57 discriminator 1
	bne	a0,s9,.L30
	.loc 1 237 2 is_stmt 1
	mv	a3,s2
	mv	a2,s5
	addi	a1,sp,304
	addi	a0,sp,80
	call	uECC_vli_modInv
.LVL103:
	.loc 1 238 2
	.loc 1 239 2 is_stmt 0
	mv	a2,s7
	mv	a1,s4
	mv	a3,s0
	addi	a0,sp,16
	.loc 1 238 22
	sw	zero,-448(s3)
	.loc 1 239 2 is_stmt 1
	call	bits2int
.LVL104:
	.loc 1 240 2
	addi	a1,sp,16
	mv	a0,a1
	mv	a4,s2
	mv	a3,s5
	addi	a2,sp,80
	call	uECC_vli_modMult
.LVL105:
	.loc 1 241 2
	mv	a4,s2
	mv	a3,s5
	addi	a2,sp,80
	addi	a1,sp,272
	addi	a0,sp,48
	call	uECC_vli_modMult
.LVL106:
	.loc 1 244 2
	addi	s3,sp,336
	mv	a0,s3
	mv	a2,s1
	mv	a1,s8
	call	uECC_vli_set
.LVL107:
	.loc 1 245 2
	add	s9,s3,s6
	mv	a2,s1
	mv	a1,s10
	mv	a0,s9
	call	uECC_vli_set
.LVL108:
	.loc 1 246 2
	.loc 1 246 24 is_stmt 0
	addi	s4,s0,68
.LVL109:
	.loc 1 246 2
	mv	a1,s4
	mv	a2,s1
	addi	a0,sp,176
	call	uECC_vli_set
.LVL110:
	.loc 1 247 2 is_stmt 1
	add	a1,s4,s6
	mv	a2,s1
	addi	a0,sp,208
	call	uECC_vli_set
.LVL111:
	.loc 1 248 2
	.loc 1 248 35 is_stmt 0
	addi	s7,s0,4
.LVL112:
	.loc 1 248 2
	mv	a1,s3
	mv	a4,s1
	mv	a3,s7
	addi	a2,sp,176
	addi	a0,sp,80
	call	uECC_vli_modSub
.LVL113:
	.loc 1 249 2 is_stmt 1
	mv	a4,s0
	mv	a2,s3
	mv	a3,s9
	addi	a1,sp,208
	addi	a0,sp,176
	call	XYcZ_add
.LVL114:
	.loc 1 250 2
	addi	a1,sp,80
	mv	a0,a1
	mv	a3,s1
	mv	a2,s7
	call	uECC_vli_modInv
.LVL115:
	.loc 1 251 2
	mv	a3,s0
	addi	a2,sp,80
	mv	a0,s3
	mv	a1,s9
	call	apply_z
.LVL116:
	.loc 1 254 2
	.loc 1 258 13 is_stmt 0
	mv	a1,s2
	addi	a0,sp,16
	.loc 1 255 12
	sw	s4,4(sp)
	.loc 1 257 12
	sw	s3,12(sp)
	.loc 1 254 12
	sw	zero,0(sp)
	.loc 1 255 2 is_stmt 1
	.loc 1 256 2
	.loc 1 256 12 is_stmt 0
	sw	s8,8(sp)
	.loc 1 257 2 is_stmt 1
	.loc 1 258 2
	.loc 1 258 13 is_stmt 0
	call	uECC_vli_numBits
.LVL117:
	mv	s4,a0
	mv	a1,s2
	addi	a0,sp,48
	call	uECC_vli_numBits
.LVL118:
.LBB11:
.LBB12:
	.loc 1 189 2 is_stmt 1
.LBE12:
.LBE11:
	.loc 1 261 2
.LBB14:
.LBB13:
	.loc 1 189 20 is_stmt 0
	mv	s3,s4
	bge	s4,a0,.L31
	mv	s3,a0
.L31:
.LBE13:
.LBE14:
	.loc 1 261 50
	slli	s3,s3,16
	srli	s3,s3,16
	addi	s8,s3,-1
	.loc 1 261 20
	slli	s8,s8,16
	srai	s8,s8,16
	mv	a1,s8
	addi	a0,sp,16
.LVL119:
	call	uECC_vli_testBit
.LVL120:
	.loc 1 261 18
	snez	s4,a0
	.loc 1 262 28
	mv	a1,s8
	addi	a0,sp,48
	call	uECC_vli_testBit
.LVL121:
	.loc 1 262 64
	snez	a0,a0
	slli	a0,a0,1
	.loc 1 261 56
	or	s4,s4,a0
	.loc 1 261 8
	addi	a5,sp,464
	slli	s4,s4,2
	add	s4,a5,s4
	lw	s4,-464(s4)
.LVL122:
	.loc 1 263 2 is_stmt 1
	mv	a2,s1
	addi	a0,sp,112
	mv	a1,s4
	call	uECC_vli_set
.LVL123:
	.loc 1 264 2
	mv	a2,s1
	add	a1,s4,s6
	addi	a0,sp,144
	call	uECC_vli_set
.LVL124:
	.loc 1 265 2
	mv	a1,s1
	addi	a0,sp,80
	call	uECC_vli_clear
.LVL125:
	.loc 1 266 2
	.loc 1 266 7 is_stmt 0
	li	a5,1
	sw	a5,80(sp)
	.loc 1 268 2 is_stmt 1
	.loc 1 268 20 is_stmt 0
	addi	s3,s3,-2
.L44:
	slli	s3,s3,16
	srai	s3,s3,16
.LVL126:
	.loc 1 268 2 discriminator 2
	bge	s3,zero,.L36
	.loc 1 284 2 is_stmt 1
	addi	a1,sp,80
	mv	a0,a1
	mv	a3,s1
	mv	a2,s7
	call	uECC_vli_modInv
.LVL127:
	.loc 1 285 2
	mv	a3,s0
	addi	a2,sp,80
	addi	a1,sp,144
	addi	a0,sp,112
	call	apply_z
.LVL128:
	.loc 1 288 2
	.loc 1 288 6 is_stmt 0
	mv	a2,s2
	addi	a1,sp,112
	mv	a0,s5
	call	uECC_vli_cmp_unsafe
.LVL129:
	.loc 1 288 5
	li	a5,1
	beq	a0,a5,.L37
	.loc 1 289 3 is_stmt 1
	addi	a1,sp,112
	mv	a3,s2
	mv	a2,s5
	mv	a0,a1
	call	uECC_vli_sub
.LVL130:
.L37:
	.loc 1 293 2
	.loc 1 293 15 is_stmt 0
	mv	a2,s1
	addi	a1,sp,272
	addi	a0,sp,112
	call	uECC_vli_equal
.LVL131:
	.loc 1 293 9
	seqz	a0,a0
	j	.L27
.L36:
.LBB15:
	.loc 1 269 3 is_stmt 1
	.loc 1 270 3
	lw	a5,164(s0)
	mv	a3,s0
	addi	a2,sp,80
	addi	a1,sp,144
	addi	a0,sp,112
	jalr	a5
.LVL132:
	.loc 1 272 3
	.loc 1 272 14 is_stmt 0
	mv	a1,s3
	addi	a0,sp,16
	call	uECC_vli_testBit
.LVL133:
	.loc 1 272 12
	snez	s4,a0
.LVL134:
	.loc 1 272 45
	mv	a1,s3
	addi	a0,sp,48
	call	uECC_vli_testBit
.LVL135:
	.loc 1 272 70
	snez	a0,a0
	slli	a0,a0,1
.LVL136:
	.loc 1 273 3 is_stmt 1
	.loc 1 272 39 is_stmt 0
	or	s4,s4,a0
.LVL137:
	.loc 1 273 9
	slli	s4,s4,2
.LVL138:
	addi	a5,sp,464
	add	s4,a5,s4
	lw	s4,-464(s4)
.LVL139:
	.loc 1 274 3 is_stmt 1
	.loc 1 274 6 is_stmt 0
	beq	s4,zero,.L35
	.loc 1 275 4 is_stmt 1
	mv	a2,s1
	mv	a1,s4
	addi	a0,sp,176
	call	uECC_vli_set
.LVL140:
	.loc 1 276 4
	mv	a2,s1
	add	a1,s4,s6
	addi	a0,sp,208
	call	uECC_vli_set
.LVL141:
	.loc 1 277 4
	mv	a3,s0
	addi	a2,sp,80
	addi	a1,sp,208
	addi	a0,sp,176
	call	apply_z
.LVL142:
	.loc 1 278 4
	mv	a4,s1
	mv	a3,s7
	addi	a2,sp,176
	addi	a1,sp,112
	addi	a0,sp,240
	call	uECC_vli_modSub
.LVL143:
	.loc 1 279 4
	addi	a3,sp,144
	addi	a2,sp,112
	addi	a1,sp,208
	addi	a0,sp,176
	mv	a4,s0
	call	XYcZ_add
.LVL144:
	.loc 1 280 4
	addi	a1,sp,80
	mv	a3,s0
	addi	a2,sp,240
	mv	a0,a1
	call	uECC_vli_modMult_fast
.LVL145:
.L35:
	addi	s3,s3,-1
.LVL146:
	j	.L44
.LBE15:
	.cfi_endproc
.LFE4:
	.size	uECC_verify, .-uECC_verify
	.text
.Letext0:
	.file 2 "/b-l/bl_iot_sdk_new/toolchain/riscv/Linux/lib/gcc/riscv64-unknown-elf/8.3.0/include/stdint-gcc.h"
	.file 3 "/b-l/bl_iot_sdk_new/components/network/ble/blestack/src/common/tinycrypt/include/tinycrypt/ecc.h"