	.file	"hci_core.c"
	.option nopic
	.attribute arch, "rv32i2p0_m2p0_f2p0_c2p0"
	.attribute unaligned_access, 0
	.attribute stack_align, 16
	.text
.Ltext0:
	.cfi_sections	.debug_frame
	.section	.text.le_dhkey_complete,"ax",@progbits
	.align	1
	.type	le_dhkey_complete, @function
le_dhkey_complete:
.LFB151:
	.file 1 "/b-l/bl_iot_sdk_new/components/network/ble/blestack/src/host/hci_core.c"
	.loc 1 3551 1
	.cfi_startproc
.LVL0:
	.loc 1 3552 2
	.loc 1 3554 2
	.loc 1 3556 2
	.loc 1 3556 6 is_stmt 0
	lui	a5,%hi(.LANCHOR0)
	lw	a4,%lo(.LANCHOR0)(a5)
	.loc 1 3556 5
	beq	a4,zero,.L9
	.loc 1 3551 1
	addi	sp,sp,-16
	.cfi_def_cfa_offset 16
	sw	s0,8(sp)
.LVL1:
	sw	ra,12(sp)
	.cfi_offset 8, -8
	.cfi_offset 1, -4
	addi	s0,a5,%lo(.LANCHOR0)
	.loc 1 3552 48
	lw	a5,8(a0)
	.loc 1 3557 3 is_stmt 1
	li	a0,0
.LVL2:
	lbu	a3,0(a5)
	bne	a3,zero,.L3
	.loc 1 3557 3 is_stmt 0 discriminator 1
	addi	a0,a5,1
.L3:
	.loc 1 3557 3 discriminator 4
	jalr	a4
.LVL3:
	.loc 1 3558 3 is_stmt 1 discriminator 4
	.loc 1 3560 1 is_stmt 0 discriminator 4
	lw	ra,12(sp)
	.cfi_restore 1
	.loc 1 3558 13 discriminator 4
	sw	zero,0(s0)
	.loc 1 3560 1 discriminator 4
	lw	s0,8(sp)
	.cfi_restore 8
	addi	sp,sp,16
	.cfi_def_cfa_offset 0
	jr	ra
.LVL4:
.L9:
	ret
	.cfi_endproc
.LFE151:
	.size	le_dhkey_complete, .-le_dhkey_complete
	.section	.text.hci_data_buf_overflow,"ax",@progbits
	.align	1
	.type	hci_data_buf_overflow, @function
hci_data_buf_overflow:
.LFB111:
	.loc 1 748 1 is_stmt 1
	.cfi_startproc
.LVL5:
	.loc 1 749 2
	.loc 1 751 2
	.loc 1 751 61 is_stmt 0
	lw	a5,8(a0)
	.loc 1 751 2
	lui	a0,%hi(.LC1)
.LVL6:
	addi	a0,a0,%lo(.LC1)
	lbu	a1,0(a5)
	tail	printf
.LVL7:
	.cfi_endproc
.LFE111:
	.size	hci_data_buf_overflow, .-hci_data_buf_overflow
	.section	.text.atomic_test_bit,"ax",@progbits
	.align	1
	.type	atomic_test_bit, @function
atomic_test_bit:
.LFB35:
	.file 2 "/b-l/bl_iot_sdk_new/components/network/ble/blestack/src/common/include/atomic.h"
	.loc 2 330 1 is_stmt 1
	.cfi_startproc
.LVL8:
	.loc 2 331 2
	.loc 2 330 1 is_stmt 0
	addi	sp,sp,-32
	.cfi_def_cfa_offset 32
	sw	ra,28(sp)
	.cfi_offset 1, -4
	.loc 2 330 1
	sw	a1,12(sp)
	.loc 2 331 21
	call	atomic_get
.LVL9:
	.loc 2 333 2 is_stmt 1
	.loc 2 333 19 is_stmt 0
	lw	a1,12(sp)
	.loc 2 334 1
	lw	ra,28(sp)
	.cfi_restore 1
	.loc 2 333 19
	sra	a0,a0,a1
.LVL10:
	.loc 2 334 1
	andi	a0,a0,1
	addi	sp,sp,32
	.cfi_def_cfa_offset 0
.LVL11:
	jr	ra
	.cfi_endproc
.LFE35:
	.size	atomic_test_bit, .-atomic_test_bit
	.section	.text.bt_addr_le_copy,"ax",@progbits
	.align	1
	.type	bt_addr_le_copy, @function
bt_addr_le_copy:
.LFB76:
	.file 3 "/b-l/bl_iot_sdk_new/components/network/ble/blestack/src/include/bluetooth/addr.h"
	.loc 3 64 1 is_stmt 1
	.cfi_startproc
.LVL12:
	.loc 3 65 2
	li	a2,7
	tail	memcpy
.LVL13:
	.cfi_endproc
.LFE76:
	.size	bt_addr_le_copy, .-bt_addr_le_copy
	.section	.text.le_pkey_complete,"ax",@progbits
	.align	1
	.type	le_pkey_complete, @function
le_pkey_complete:
.LFB150:
	.loc 1 3530 1
	.cfi_startproc
.LVL14:
	.loc 1 3531 2
	.loc 1 3530 1 is_stmt 0
	addi	sp,sp,-32
	.cfi_def_cfa_offset 32
	sw	s0,24(sp)
	sw	ra,28(sp)
	sw	s1,20(sp)
	sw	s2,16(sp)
	sw	s3,12(sp)
	.cfi_offset 8, -8
	.cfi_offset 1, -4
	.cfi_offset 9, -12
	.cfi_offset 18, -16
	.cfi_offset 19, -20
.LBB133:
.LBB134:
	.loc 2 393 2
	lui	s0,%hi(.LANCHOR2+108)
.LBE134:
.LBE133:
	.loc 1 3531 49
	lw	s2,8(a0)
.LVL15:
	.loc 1 3532 2 is_stmt 1
	.loc 1 3534 2
	.loc 1 3536 2
.LBB136:
.LBB135:
	.loc 2 391 2
	.loc 2 393 2
	addi	s0,s0,%lo(.LANCHOR2+108)
	li	a1,-33
	mv	a0,s0
.LVL16:
	call	atomic_and
.LVL17:
.LBE135:
.LBE136:
	.loc 1 3538 2
	.loc 1 3538 5 is_stmt 0
	lbu	a5,0(s2)
	bne	a5,zero,.L17
	.loc 1 3539 3 is_stmt 1
	lui	a0,%hi(.LANCHOR1)
	addi	a1,s2,1
	li	a2,64
	addi	a0,a0,%lo(.LANCHOR1)
	call	memcpy
.LVL18:
	.loc 1 3540 3
.LBB137:
.LBB138:
	.loc 2 409 2
	.loc 2 411 2
	li	a1,16
	mv	a0,s0
	call	atomic_or
.LVL19:
.L17:
.LBE138:
.LBE137:
	.loc 1 3543 2
	.loc 1 3543 10 is_stmt 0
	lui	a5,%hi(.LANCHOR3)
	lw	s1,%lo(.LANCHOR3)(a5)
.LVL20:
	.loc 1 3544 3
	lui	s3,%hi(.LANCHOR1)
	addi	s0,a5,%lo(.LANCHOR3)
	addi	s3,s3,%lo(.LANCHOR1)
.L18:
	.loc 1 3543 2 discriminator 2
	bne	s1,zero,.L20
	.loc 1 3547 2 is_stmt 1
	.loc 1 3547 13 is_stmt 0
	sw	zero,0(s0)
	.loc 1 3548 1
	lw	ra,28(sp)
	.cfi_remember_state
	.cfi_restore 1
	lw	s0,24(sp)
	.cfi_restore 8
	lw	s1,20(sp)
	.cfi_restore 9
.LVL21:
	lw	s2,16(sp)
	.cfi_restore 18
.LVL22:
	lw	s3,12(sp)
	.cfi_restore 19
	addi	sp,sp,32
	.cfi_def_cfa_offset 0
	jr	ra
.LVL23:
.L20:
	.cfi_restore_state
	.loc 1 3544 3 is_stmt 1
	lbu	a4,0(s2)
	.loc 1 3544 5 is_stmt 0
	lw	a5,0(s1)
	.loc 1 3544 3
	mv	a0,s3
	beq	a4,zero,.L19
	li	a0,0
.L19:
	.loc 1 3544 3 discriminator 4
	jalr	a5
.LVL24:
	.loc 1 3543 31 discriminator 4
	lw	s1,4(s1)
.LVL25:
	j	.L18
	.cfi_endproc
.LFE150:
	.size	le_pkey_complete, .-le_pkey_complete
	.section	.text.atomic_set_bit_to,"ax",@progbits
	.align	1
	.type	atomic_set_bit_to, @function
atomic_set_bit_to:
.LFB40:
	.loc 2 427 1 is_stmt 1
	.cfi_startproc
.LVL26:
	.loc 2 428 2
	.loc 2 427 1 is_stmt 0
	mv	a5,a1
	.loc 2 428 15
	li	a1,1
.LVL27:
	sll	a1,a1,a5
.LVL28:
	.loc 2 430 2 is_stmt 1
	srli	a5,a5,5
.LVL29:
	slli	a5,a5,2
	add	a0,a0,a5
.LVL30:
	.loc 2 430 5 is_stmt 0
	beq	a2,zero,.L24
	.loc 2 431 3 is_stmt 1
	.loc 2 431 9 is_stmt 0
	tail	atomic_or
.LVL31:
.L24:
	.loc 2 433 3 is_stmt 1
	.loc 2 433 9 is_stmt 0
	not	a1,a1
.LVL32:
	tail	atomic_and
.LVL33:
	.cfi_endproc
.LFE40:
	.size	atomic_set_bit_to, .-atomic_set_bit_to
	.section	.text.slave_update_conn_param,"ax",@progbits
	.align	1
	.type	slave_update_conn_param, @function
slave_update_conn_param:
.LFB121:
	.loc 1 1194 1 is_stmt 1
	.cfi_startproc
.LVL34:
	.loc 1 1195 2
	.loc 1 1200 2
	.loc 1 1194 1 is_stmt 0
	addi	sp,sp,-16
	.cfi_def_cfa_offset 16
	sw	s0,8(sp)
	.loc 1 1200 6
	li	a1,8
	.cfi_offset 8, -8
	.loc 1 1194 1
	mv	s0,a0
	.loc 1 1200 6
	addi	a0,a0,4
.LVL35:
	.loc 1 1194 1
	sw	ra,12(sp)
	.cfi_offset 1, -4
	.loc 1 1200 6
	call	atomic_test_bit
.LVL36:
	.loc 1 1200 5
	bne	a0,zero,.L25
	.loc 1 1209 2 is_stmt 1
	addi	a0,s0,76
	.loc 1 1210 1 is_stmt 0
	lw	s0,8(sp)
	.cfi_remember_state
	.cfi_restore 8
.LVL37:
	lw	ra,12(sp)
	.cfi_restore 1
	.loc 1 1209 2
	li	a1,4096
	.loc 1 1210 1
	.loc 1 1209 2
	addi	a1,a1,904
	.loc 1 1210 1
	addi	sp,sp,16
	.cfi_def_cfa_offset 0
	.loc 1 1209 2
	tail	k_delayed_work_submit
.LVL38:
.L25:
	.cfi_restore_state
	.loc 1 1210 1
	lw	ra,12(sp)
	.cfi_restore 1
	lw	s0,8(sp)
	.cfi_restore 8
.LVL39:
	addi	sp,sp,16
	.cfi_def_cfa_offset 0
	jr	ra
	.cfi_endproc
.LFE121:
	.size	slave_update_conn_param, .-slave_update_conn_param
	.section	.text.le_remote_feat_complete,"ax",@progbits
	.align	1
	.type	le_remote_feat_complete, @function
le_remote_feat_complete:
.LFB127:
	.loc 1 1544 1 is_stmt 1
	.cfi_startproc
.LVL40:
	.loc 1 1545 2
	.loc 1 1544 1 is_stmt 0
	addi	sp,sp,-16
	.cfi_def_cfa_offset 16
	sw	ra,12(sp)
	sw	s0,8(sp)
	sw	s1,4(sp)
	sw	s2,0(sp)
	.cfi_offset 1, -4
	.cfi_offset 8, -8
	.cfi_offset 9, -12
	.cfi_offset 18, -16
	.loc 1 1545 45
	lw	s2,8(a0)
.LVL41:
	.loc 1 1546 2 is_stmt 1
	.loc 1 1546 8 is_stmt 0
	lbu	s0,2(s2)
	lbu	a1,1(s2)
	slli	s0,s0,8
	or	s0,s0,a1
.LVL42:
	.loc 1 1547 2 is_stmt 1
	.loc 1 1549 2
	.loc 1 1549 9 is_stmt 0
	mv	a0,s0
.LVL43:
	call	bt_conn_lookup_handle
.LVL44:
	.loc 1 1550 2 is_stmt 1
	.loc 1 1550 5 is_stmt 0
	bne	a0,zero,.L29
	.loc 1 1551 3 is_stmt 1
	mv	a1,s0
	.loc 1 1586 1 is_stmt 0
	lw	s0,8(sp)
	.cfi_remember_state
	.cfi_restore 8
.LVL45:
	lw	ra,12(sp)
	.cfi_restore 1
	lw	s1,4(sp)
	.cfi_restore 9
	lw	s2,0(sp)
	.cfi_restore 18
.LVL46:
	.loc 1 1551 3
	lui	a0,%hi(.LC2)
.LVL47:
	.loc 1 1586 1
	.loc 1 1551 3
	addi	a0,a0,%lo(.LC2)
	.loc 1 1586 1
	addi	sp,sp,16
	.cfi_def_cfa_offset 0
	.loc 1 1551 3
	tail	printf
.LVL48:
.L29:
	.cfi_restore_state
	.loc 1 1555 5
	lbu	a5,0(s2)
	mv	s1,a0
	.loc 1 1555 2 is_stmt 1
	.loc 1 1555 5 is_stmt 0
	bne	a5,zero,.L30
.LVL49:
	.loc 1 1556 3 is_stmt 1
	li	a2,8
	addi	a1,s2,3
	addi	a0,a0,148
	call	memcpy
.LVL50:
.L30:
	.loc 1 1560 2
	.loc 1 1572 2
	.loc 1 1579 2
	.loc 1 1579 5 is_stmt 0
	lbu	a4,3(s1)
	li	a5,1
	bne	a4,a5,.L31
	.loc 1 1581 3 is_stmt 1
	mv	a0,s1
	call	slave_update_conn_param
.LVL51:
.L31:
	.loc 1 1585 2
	.loc 1 1586 1 is_stmt 0
	lw	s0,8(sp)
	.cfi_restore 8
.LVL52:
	lw	ra,12(sp)
	.cfi_restore 1
	lw	s2,0(sp)
	.cfi_restore 18
.LVL53:
	.loc 1 1585 2
	mv	a0,s1
	.loc 1 1586 1
	lw	s1,4(sp)
	.cfi_restore 9
.LVL54:
	addi	sp,sp,16
	.cfi_def_cfa_offset 0
	.loc 1 1585 2
	tail	bt_conn_unref
.LVL55:
	.cfi_endproc
.LFE127:
	.size	le_remote_feat_complete, .-le_remote_feat_complete
	.section	.text.le_conn_update_complete,"ax",@progbits
	.align	1
	.type	le_conn_update_complete, @function
le_conn_update_complete:
.LFB132:
	.loc 1 1750 1 is_stmt 1
	.cfi_startproc
.LVL56:
	.loc 1 1751 2
	.loc 1 1750 1 is_stmt 0
	addi	sp,sp,-48
	.cfi_def_cfa_offset 48
	sw	ra,44(sp)
	sw	s0,40(sp)
	sw	s1,36(sp)
	.cfi_offset 1, -4
	.cfi_offset 8, -8
	.cfi_offset 9, -12
	.loc 1 1751 45
	lw	s1,8(a0)
.LVL57:
	.loc 1 1752 2 is_stmt 1
	.loc 1 1753 2
	.loc 1 1755 2
	.loc 1 1755 9 is_stmt 0
	lbu	a1,2(s1)
	lbu	a5,1(s1)
	slli	a1,a1,8
	or	a1,a1,a5
.LVL58:
	.loc 1 1757 2 is_stmt 1
	.loc 1 1759 2
	.loc 1 1759 9 is_stmt 0
	mv	a0,a1
.LVL59:
	sw	a1,12(sp)
	call	bt_conn_lookup_handle
.LVL60:
	.loc 1 1760 2 is_stmt 1
	.loc 1 1760 5 is_stmt 0
	lw	a1,12(sp)
	bne	a0,zero,.L34
	.loc 1 1761 3 is_stmt 1
	lui	a0,%hi(.LC2)
.LVL61:
	addi	a0,a0,%lo(.LC2)
	call	printf
.LVL62:
	.loc 1 1762 3
.L33:
	.loc 1 1786 1 is_stmt 0
	lw	ra,44(sp)
	.cfi_remember_state
	.cfi_restore 1
	lw	s0,40(sp)
	.cfi_restore 8
	lw	s1,36(sp)
	.cfi_restore 9
.LVL63:
	addi	sp,sp,48
	.cfi_def_cfa_offset 0
.LVL64:
	jr	ra
.LVL65:
.L34:
	.cfi_restore_state
	.loc 1 1765 10
	lbu	a5,0(s1)
	mv	s0,a0
	.loc 1 1765 2 is_stmt 1
	.loc 1 1765 5 is_stmt 0
	bne	a5,zero,.L36
.LVL66:
	.loc 1 1766 3 is_stmt 1
	.loc 1 1766 27 is_stmt 0
	lbu	a5,4(s1)
	lbu	a4,3(s1)
	slli	a5,a5,8
	or	a5,a5,a4
	.loc 1 1766 21
	sh	a5,134(a0)
	.loc 1 1767 3 is_stmt 1
	.loc 1 1767 26 is_stmt 0
	lbu	a5,6(s1)
	lbu	a4,5(s1)
	slli	a5,a5,8
	or	a5,a5,a4
	.loc 1 1767 20
	sh	a5,140(a0)
	.loc 1 1768 3 is_stmt 1
	.loc 1 1768 26 is_stmt 0
	lbu	a5,8(s1)
	lbu	a4,7(s1)
	slli	a5,a5,8
	or	a5,a5,a4
	.loc 1 1768 20
	sh	a5,142(a0)
	.loc 1 1769 3 is_stmt 1
	call	notify_le_param_updated
.LVL67:
.L37:
	.loc 1 1785 2
	mv	a0,s0
	call	bt_conn_unref
.LVL68:
	j	.L33
.L36:
	.loc 1 1770 9
	.loc 1 1770 12 is_stmt 0
	li	a4,26
	bne	a5,a4,.L37
	.loc 1 1770 33 discriminator 1
	lbu	a4,3(a0)
	li	a5,1
	bne	a4,a5,.L37
.LVL69:
.LBB142:
.LBB143:
	.loc 2 370 2 is_stmt 1
	.loc 2 371 2
	.loc 2 373 2
	.loc 2 373 8 is_stmt 0
	li	a1,1024
	addi	a0,a0,4
.LVL70:
	call	atomic_or
.LVL71:
	.loc 2 375 2 is_stmt 1
	.loc 2 375 14 is_stmt 0
	andi	a0,a0,1024
.LBE143:
.LBE142:
	.loc 1 1771 25
	bne	a0,zero,.L37
.LBB144:
	.loc 1 1775 3 is_stmt 1
	.loc 1 1777 3
	.loc 1 1778 3
	.loc 1 1777 22 is_stmt 0
	lw	a5,136(s0)
	.loc 1 1782 3
	addi	a1,sp,24
	mv	a0,s0
	.loc 1 1777 22
	sw	a5,24(sp)
	.loc 1 1779 3 is_stmt 1
	.loc 1 1780 3
	.loc 1 1779 17 is_stmt 0
	lw	a5,144(s0)
	sw	a5,28(sp)
	.loc 1 1782 3 is_stmt 1
	call	bt_l2cap_update_conn_param
.LVL72:
	j	.L37
.LBE144:
	.cfi_endproc
.LFE132:
	.size	le_conn_update_complete, .-le_conn_update_complete
	.section	.text.hci_num_completed_packets,"ax",@progbits
	.align	1
	.type	hci_num_completed_packets, @function
hci_num_completed_packets:
.LFB112:
	.loc 1 757 1
	.cfi_startproc
.LVL73:
	.loc 1 758 2
	.loc 1 757 1 is_stmt 0
	addi	sp,sp,-48
	.cfi_def_cfa_offset 48
	sw	s3,28(sp)
	sw	s5,20(sp)
	sw	s6,16(sp)
	sw	s7,12(sp)
	sw	ra,44(sp)
	sw	s0,40(sp)
	sw	s1,36(sp)
	sw	s2,32(sp)
	sw	s4,24(sp)
	sw	s8,8(sp)
	.cfi_offset 19, -20
	.cfi_offset 21, -28
	.cfi_offset 22, -32
	.cfi_offset 23, -36
	.cfi_offset 1, -4
	.cfi_offset 8, -8
	.cfi_offset 9, -12
	.cfi_offset 18, -16
	.cfi_offset 20, -24
	.cfi_offset 24, -40
	.loc 1 758 43
	lw	s4,8(a0)
.LVL74:
	.loc 1 759 2 is_stmt 1
	.loc 1 761 2
	.loc 1 763 2
	.loc 1 763 9 is_stmt 0
	li	s3,0
.LBB153:
.LBB154:
	.loc 1 816 13
	lui	s5,%hi(g_poll_sem)
	.loc 1 801 5
	lui	s6,%hi(.LC4)
.LBE154:
	.loc 1 778 4
	lui	s7,%hi(.LC3)
.LVL75:
.L42:
.LBE153:
	.loc 1 763 21 discriminator 1
	lbu	a5,0(s4)
	.loc 1 763 2 discriminator 1
	bgt	a5,s3,.L54
	.loc 1 822 1
	lw	ra,44(sp)
	.cfi_remember_state
	.cfi_restore 1
	lw	s0,40(sp)
	.cfi_restore 8
	lw	s1,36(sp)
	.cfi_restore 9
	lw	s2,32(sp)
	.cfi_restore 18
	lw	s3,28(sp)
	.cfi_restore 19
.LVL76:
	lw	s4,24(sp)
	.cfi_restore 20
.LVL77:
	lw	s5,20(sp)
	.cfi_restore 21
	lw	s6,16(sp)
	.cfi_restore 22
	lw	s7,12(sp)
	.cfi_restore 23
	lw	s8,8(sp)
	.cfi_restore 24
	addi	sp,sp,48
	.cfi_def_cfa_offset 0
	jr	ra
.LVL78:
.L54:
	.cfi_restore_state
.LBB169:
	.loc 1 764 3 is_stmt 1
	.loc 1 765 3
	.loc 1 766 3
	.loc 1 768 3
	slli	a5,s3,2
	add	a5,s4,a5
	.loc 1 768 10 is_stmt 0
	lbu	s1,2(a5)
	lbu	a4,1(a5)
	.loc 1 769 9
	lbu	s2,4(a5)
	.loc 1 768 10
	slli	s1,s1,8
	or	s1,s1,a4
.LVL79:
	.loc 1 769 3 is_stmt 1
	.loc 1 769 9 is_stmt 0
	lbu	a4,3(a5)
	slli	s2,s2,8
	or	s2,s2,a4
.LVL80:
	.loc 1 771 3 is_stmt 1
	.loc 1 773 3
	.loc 1 773 9 is_stmt 0
	call	irq_lock
.LVL81:
	mv	s8,a0
.LVL82:
	.loc 1 775 3 is_stmt 1
	.loc 1 775 10 is_stmt 0
	mv	a0,s1
.LVL83:
	call	bt_conn_lookup_handle
.LVL84:
	mv	s0,a0
.LVL85:
	.loc 1 776 3 is_stmt 1
	.loc 1 777 4 is_stmt 0
	mv	a0,s8
	.loc 1 776 6
	bne	s0,zero,.L43
	.loc 1 777 4 is_stmt 1
	call	irq_unlock
.LVL86:
	.loc 1 778 4
	mv	a1,s1
	addi	a0,s7,%lo(.LC3)
	call	printf
.LVL87:
	.loc 1 779 4
.L44:
.LBE169:
	.loc 1 763 37 is_stmt 0 discriminator 2
	addi	s3,s3,1
.LVL88:
	j	.L42
.LVL89:
.L43:
.LBB170:
	.loc 1 782 3 is_stmt 1
	call	irq_unlock
.LVL90:
	.loc 1 784 3
.LBB165:
	.loc 1 813 4 is_stmt 0
	addi	s8,s0,40
.LVL91:
.L45:
.LBE165:
	.loc 1 784 9
	beq	s2,zero,.L50
.LBB166:
	.loc 1 785 4 is_stmt 1
	.loc 1 786 4
	.loc 1 788 4
	.loc 1 788 10 is_stmt 0
	call	irq_lock
.LVL92:
	.loc 1 790 12
	lw	a5,28(s0)
	.loc 1 788 10
	mv	a4,a0
.LVL93:
	.loc 1 790 4 is_stmt 1
	.loc 1 790 7 is_stmt 0
	beq	a5,zero,.L46
	.loc 1 791 5 is_stmt 1
	.loc 1 791 24 is_stmt 0
	addi	a5,a5,-1
	sw	a5,28(s0)
	.loc 1 792 5 is_stmt 1
	call	irq_unlock
.LVL94:
	.loc 1 793 5
	mv	a0,s0
	call	bt_conn_get_pkts
.LVL95:
.L59:
	addi	s2,s2,-1
.LVL96:
	slli	s2,s2,16
	.loc 1 816 13 is_stmt 0
	call	k_sem_give
.LVL97:
	srli	s2,s2,16
	j	.L45
.LVL98:
.L46:
	.loc 1 797 4 is_stmt 1
.LBB155:
.LBB156:
	.file 4 "/b-l/bl_iot_sdk_new/components/network/ble/blestack/src/common/include/misc/slist.h"
	.loc 4 399 2
	.loc 4 399 9 is_stmt 0
	lw	s1,20(s0)
.LVL99:
.LBE156:
.LBE155:
.LBE166:
.LBE170:
	.loc 4 209 2 is_stmt 1
.LBB171:
.LBB167:
.LBB160:
.LBB159:
	.loc 4 399 40 is_stmt 0
	beq	s1,zero,.L48
.LVL100:
.LBB157:
.LBB158:
	.loc 4 378 2 is_stmt 1
	.loc 4 380 2
	.loc 4 380 19 is_stmt 0
	lw	a5,0(s1)
	.loc 4 381 5
	lw	a3,24(s0)
	.loc 4 380 13
	sw	a5,20(s0)
	.loc 4 381 2 is_stmt 1
	.loc 4 381 5 is_stmt 0
	bne	s1,a3,.L48
	.loc 4 382 3 is_stmt 1
	.loc 4 382 14 is_stmt 0
	sw	a5,24(s0)
.LVL101:
.L48:
.LBE158:
.LBE157:
.LBE159:
.LBE160:
	.loc 1 798 4 is_stmt 1
	mv	a0,a4
.LVL102:
	call	irq_unlock
.LVL103:
	.loc 1 800 4
	.loc 1 800 7 is_stmt 0
	bne	s1,zero,.L49
.LVL104:
	.loc 1 801 5 is_stmt 1
	addi	a0,s6,%lo(.LC4)
	call	printf
.LVL105:
	.loc 1 802 5
.L50:
.LBE167:
	.loc 1 820 3
	mv	a0,s0
	call	bt_conn_unref
.LVL106:
	j	.L44
.LVL107:
.L49:
.LBB168:
	.loc 1 805 4
	.loc 1 807 4
	.loc 1 807 10 is_stmt 0
	call	irq_lock
.LVL108:
	.loc 1 808 4 is_stmt 1
	.loc 1 808 28 is_stmt 0
	lw	a5,12(s1)
	.loc 1 808 24
	sw	a5,28(s0)
	.loc 1 809 4 is_stmt 1
	.loc 1 809 22 is_stmt 0
	sw	zero,12(s1)
	.loc 1 810 4 is_stmt 1
.LVL109:
.LBB161:
.LBB162:
	.loc 4 292 2
	.loc 4 292 13 is_stmt 0
	sw	zero,0(s1)
	.loc 4 294 2 is_stmt 1
	.loc 4 294 11 is_stmt 0
	lw	a5,36(s0)
	.loc 4 294 5
	bne	a5,zero,.L51
	.loc 4 295 3 is_stmt 1
	.loc 4 295 14 is_stmt 0
	sw	s1,36(s0)
	.loc 4 296 3 is_stmt 1
	.loc 4 296 14 is_stmt 0
	sw	s1,32(s0)
.L52:
.LVL110:
.LBE162:
.LBE161:
	.loc 1 811 4 is_stmt 1
	call	irq_unlock
.LVL111:
	.loc 1 813 4
	mv	a0,s8
	call	k_work_submit
.LVL112:
	.loc 1 814 4
	mv	a0,s0
	call	bt_conn_get_pkts
.LVL113:
	call	k_sem_give
.LVL114:
	.loc 1 816 13
	addi	a0,s5,%lo(g_poll_sem)
	j	.L59
.LVL115:
.L51:
.LBB164:
.LBB163:
	.loc 4 298 3
	.loc 4 298 20 is_stmt 0
	sw	s1,0(a5)
	.loc 4 299 3 is_stmt 1
	.loc 4 299 14 is_stmt 0
	sw	s1,36(s0)
	j	.L52
.LBE163:
.LBE164:
.LBE168:
.LBE171:
	.cfi_endproc
.LFE112:
	.size	hci_num_completed_packets, .-hci_num_completed_packets
	.section	.text.update_sec_level,"ax",@progbits
	.align	1
	.type	update_sec_level, @function
update_sec_level:
.LFB144:
	.loc 1 3318 1 is_stmt 1
	.cfi_startproc
.LVL116:
	.loc 1 3319 2
	.loc 1 3319 5 is_stmt 0
	lbu	a5,11(a0)
	bne	a5,zero,.L61
	.loc 1 3320 3 is_stmt 1
	.loc 1 3320 19 is_stmt 0
	li	a5,1
	sb	a5,9(a0)
	.loc 1 3321 3 is_stmt 1
	ret
.L61:
	.loc 1 3324 2
	.loc 1 3324 14 is_stmt 0
	lw	a4,156(a0)
	.loc 1 3324 5
	beq	a4,zero,.L63
	.loc 1 3324 37 discriminator 1
	lbu	a5,9(a4)
	.loc 1 3324 20 discriminator 1
	andi	a3,a5,1
	beq	a3,zero,.L63
	.loc 1 3325 3 is_stmt 1
	.loc 1 3325 6 is_stmt 0
	andi	a5,a5,16
	beq	a5,zero,.L64
	.loc 1 3325 41 discriminator 1
	lbu	a4,8(a4)
	li	a5,16
	bne	a4,a5,.L64
	.loc 1 3327 4 is_stmt 1
	.loc 1 3327 20 is_stmt 0
	li	a5,4
.L78:
	.loc 1 3332 19
	sb	a5,9(a0)
	.loc 1 3335 2 is_stmt 1
	.loc 1 3335 5 is_stmt 0
	lbu	a4,10(a0)
	lbu	a5,9(a0)
	bleu	a4,a5,.L60
	.loc 1 3318 1
	addi	sp,sp,-16
	.cfi_def_cfa_offset 16
	sw	s0,8(sp)
	.cfi_offset 8, -8
	mv	s0,a0
.LVL117:
.LBB174:
.LBB175:
	.loc 1 3336 3 is_stmt 1
	lui	a0,%hi(.LC5)
.LVL118:
	addi	a0,a0,%lo(.LC5)
.LBE175:
.LBE174:
	.loc 1 3318 1 is_stmt 0
	sw	ra,12(sp)
	.cfi_offset 1, -4
.LBB179:
.LBB176:
	.loc 1 3336 3
	call	printf
.LVL119:
	.loc 1 3337 3 is_stmt 1
	mv	a0,s0
.LBE176:
.LBE179:
	.loc 1 3339 1 is_stmt 0
	lw	s0,8(sp)
	.cfi_restore 8
.LVL120:
	lw	ra,12(sp)
	.cfi_restore 1
.LBB180:
.LBB177:
	.loc 1 3337 3
	li	a1,5
.LBE177:
.LBE180:
	.loc 1 3339 1
	addi	sp,sp,16
	.cfi_def_cfa_offset 0
.LBB181:
.LBB178:
	.loc 1 3337 3
	tail	bt_conn_disconnect
.LVL121:
.L64:
.LBE178:
.LBE181:
	.loc 1 3329 4 is_stmt 1
	.loc 1 3329 20 is_stmt 0
	li	a5,3
	j	.L78
.L63:
	.loc 1 3332 3 is_stmt 1
	.loc 1 3332 19 is_stmt 0
	li	a5,2
	j	.L78
.L60:
	ret
	.cfi_endproc
.LFE144:
	.size	update_sec_level, .-update_sec_level
	.section	.text.hci_encrypt_key_refresh_complete,"ax",@progbits
	.align	1
	.type	hci_encrypt_key_refresh_complete, @function
hci_encrypt_key_refresh_complete:
.LFB146:
	.loc 1 3412 1 is_stmt 1
	.cfi_startproc
.LVL122:
	.loc 1 3413 2
	.loc 1 3412 1 is_stmt 0
	addi	sp,sp,-32
	.cfi_def_cfa_offset 32
	sw	ra,28(sp)
	sw	s0,24(sp)
	sw	s1,20(sp)
	.cfi_offset 1, -4
	.cfi_offset 8, -8
	.cfi_offset 9, -12
	.loc 1 3413 50
	lw	s1,8(a0)
.LVL123:
	.loc 1 3414 2 is_stmt 1
	.loc 1 3415 2
	.loc 1 3417 2
	.loc 1 3417 9 is_stmt 0
	lbu	a1,2(s1)
	lbu	a5,1(s1)
	slli	a1,a1,8
	or	a1,a1,a5
.LVL124:
	.loc 1 3419 2 is_stmt 1
	.loc 1 3421 2
	.loc 1 3421 9 is_stmt 0
	mv	a0,a1
.LVL125:
	sw	a1,12(sp)
	call	bt_conn_lookup_handle
.LVL126:
	.loc 1 3422 2 is_stmt 1
	.loc 1 3422 5 is_stmt 0
	lw	a1,12(sp)
	bne	a0,zero,.L80
	.loc 1 3423 3 is_stmt 1
	.loc 1 3460 1 is_stmt 0
	lw	s0,24(sp)
	.cfi_remember_state
	.cfi_restore 8
	lw	ra,28(sp)
	.cfi_restore 1
	lw	s1,20(sp)
	.cfi_restore 9
.LVL127:
	.loc 1 3423 3
	lui	a0,%hi(.LC6)
.LVL128:
	.loc 1 3460 1
	.loc 1 3423 3
	addi	a0,a0,%lo(.LC6)
	.loc 1 3460 1
	addi	sp,sp,32
	.cfi_def_cfa_offset 0
.LVL129:
	.loc 1 3423 3
	tail	printf
.LVL130:
.L80:
	.cfi_restore_state
	.loc 1 3427 5
	lbu	a5,0(s1)
	mv	s0,a0
	.loc 1 3427 2 is_stmt 1
	.loc 1 3427 5 is_stmt 0
	beq	a5,zero,.L81
.LVL131:
	.loc 1 3428 3 is_stmt 1
.LBB182:
.LBB183:
	.loc 1 1972 2
	.loc 1 1972 27 is_stmt 0
	lbu	a5,9(a0)
	sb	a5,10(a0)
.LVL132:
.LBE183:
.LBE182:
	.loc 1 3429 3 is_stmt 1
	lbu	a1,0(s1)
	call	bt_l2cap_encrypt_change
.LVL133:
	.loc 1 3430 3
	lbu	a4,0(s1)
.LVL134:
	.loc 1 1943 2
	li	a5,41
	.loc 1 3430 3 is_stmt 0
	li	a1,8
	bgtu	a4,a5,.L86
	lui	a5,%hi(.LANCHOR4)
	addi	a5,a5,%lo(.LANCHOR4)
	add	a5,a5,a4
	lbu	a1,0(a5)
.LVL135:
.L86:
	.loc 1 3458 2
	mv	a0,s0
	call	bt_conn_security_changed
.LVL136:
	.loc 1 3459 2 is_stmt 1
	mv	a0,s0
	.loc 1 3460 1 is_stmt 0
	lw	s0,24(sp)
	.cfi_remember_state
	.cfi_restore 8
.LVL137:
	lw	ra,28(sp)
	.cfi_restore 1
	lw	s1,20(sp)
	.cfi_restore 9
.LVL138:
	addi	sp,sp,32
	.cfi_def_cfa_offset 0
.LVL139:
	.loc 1 3459 2
	tail	bt_conn_unref
.LVL140:
.L81:
	.cfi_restore_state
	.loc 1 3442 2 is_stmt 1
	.loc 1 3442 5 is_stmt 0
	lbu	a4,2(a0)
	li	a5,1
	bne	a4,a5,.L83
	.loc 1 3443 3 is_stmt 1
	call	bt_smp_update_keys
.LVL141:
	.loc 1 3444 3
	mv	a0,s0
	call	update_sec_level
.LVL142:
.L83:
	.loc 1 3456 2
.LBB184:
.LBB185:
	.loc 1 1972 2
	.loc 1 1972 27 is_stmt 0
	lbu	a5,9(s0)
.LBE185:
.LBE184:
	.loc 1 3457 2
	mv	a0,s0
.LBB187:
.LBB186:
	.loc 1 1972 27
	sb	a5,10(s0)
.LVL143:
.LBE186:
.LBE187:
	.loc 1 3457 2 is_stmt 1
	lbu	a1,0(s1)
	call	bt_l2cap_encrypt_change
.LVL144:
	.loc 1 3458 2
	li	a1,0
	j	.L86
	.cfi_endproc
.LFE146:
	.size	hci_encrypt_key_refresh_complete, .-hci_encrypt_key_refresh_complete
	.section	.text.hci_encrypt_change,"ax",@progbits
	.align	1
	.type	hci_encrypt_change, @function
hci_encrypt_change:
.LFB145:
	.loc 1 3344 1
	.cfi_startproc
.LVL145:
	.loc 1 3345 2
	.loc 1 3344 1 is_stmt 0
	addi	sp,sp,-32
	.cfi_def_cfa_offset 32
	sw	ra,28(sp)
	sw	s0,24(sp)
	sw	s1,20(sp)
	.cfi_offset 1, -4
	.cfi_offset 8, -8
	.cfi_offset 9, -12
	.loc 1 3345 36
	lw	s1,8(a0)
.LVL146:
	.loc 1 3346 2 is_stmt 1
	.loc 1 3346 8 is_stmt 0
	lbu	a1,2(s1)
	lbu	a5,1(s1)
	slli	a1,a1,8
	or	a1,a1,a5
.LVL147:
	.loc 1 3347 2 is_stmt 1
	.loc 1 3350 22
	.loc 1 3352 2
	.loc 1 3352 9 is_stmt 0
	mv	a0,a1
.LVL148:
	sw	a1,12(sp)
	call	bt_conn_lookup_handle
.LVL149:
	.loc 1 3353 2 is_stmt 1
	.loc 1 3353 5 is_stmt 0
	lw	a1,12(sp)
	bne	a0,zero,.L88
	.loc 1 3354 3 is_stmt 1
	.loc 1 3409 1 is_stmt 0
	lw	s0,24(sp)
	.cfi_remember_state
	.cfi_restore 8
	lw	ra,28(sp)
	.cfi_restore 1
	lw	s1,20(sp)
	.cfi_restore 9
.LVL150:
	.loc 1 3354 3
	lui	a0,%hi(.LC6)
.LVL151:
	.loc 1 3409 1
	.loc 1 3354 3
	addi	a0,a0,%lo(.LC6)
	.loc 1 3409 1
	addi	sp,sp,32
	.cfi_def_cfa_offset 0
.LVL152:
	.loc 1 3354 3
	tail	printf
.LVL153:
.L88:
	.cfi_restore_state
	.loc 1 3358 5
	lbu	a5,0(s1)
	mv	s0,a0
	.loc 1 3358 2 is_stmt 1
	.loc 1 3358 5 is_stmt 0
	beq	a5,zero,.L89
.LVL154:
	.loc 1 3359 3 is_stmt 1
.LBB188:
.LBB189:
	.loc 1 1972 2
	.loc 1 1972 27 is_stmt 0
	lbu	a5,9(a0)
	sb	a5,10(a0)
.LVL155:
.LBE189:
.LBE188:
	.loc 1 3360 3 is_stmt 1
	lbu	a1,0(s1)
	call	bt_l2cap_encrypt_change
.LVL156:
	.loc 1 3361 3
	lbu	a4,0(s1)
.LVL157:
	.loc 1 1943 2
	li	a5,41
	.loc 1 3361 3 is_stmt 0
	li	a1,8
	bgtu	a4,a5,.L98
	lui	a5,%hi(.LANCHOR4)
	addi	a5,a5,%lo(.LANCHOR4)
	add	a5,a5,a4
	lbu	a1,0(a5)
.LVL158:
.L98:
	.loc 1 3406 2
	mv	a0,s0
	call	bt_conn_security_changed
.LVL159:
	.loc 1 3408 2 is_stmt 1
	mv	a0,s0
	.loc 1 3409 1 is_stmt 0
	lw	s0,24(sp)
	.cfi_remember_state
	.cfi_restore 8
.LVL160:
	lw	ra,28(sp)
	.cfi_restore 1
	lw	s1,20(sp)
	.cfi_restore 9
.LVL161:
	addi	sp,sp,32
	.cfi_def_cfa_offset 0
.LVL162:
	.loc 1 3408 2
	tail	bt_conn_unref
.LVL163:
.L89:
	.cfi_restore_state
	.loc 1 3366 2 is_stmt 1
	.loc 1 3366 21 is_stmt 0
	lbu	a5,3(s1)
	.loc 1 3369 5
	lbu	a3,2(a0)
	li	a4,1
	.loc 1 3366 16
	sb	a5,11(a0)
	.loc 1 3369 2 is_stmt 1
	.loc 1 3369 5 is_stmt 0
	bne	a3,a4,.L91
	.loc 1 3378 3 is_stmt 1
	.loc 1 3378 6 is_stmt 0
	beq	a5,zero,.L92
	.loc 1 3379 4 is_stmt 1
	call	bt_smp_update_keys
.LVL164:
.L92:
	.loc 1 3381 3
	mv	a0,s0
	call	update_sec_level
.LVL165:
.L91:
	.loc 1 3403 2
.LBB190:
.LBB191:
	.loc 1 1972 2
	.loc 1 1972 27 is_stmt 0
	lbu	a5,9(s0)
.LBE191:
.LBE190:
	.loc 1 3405 2
	mv	a0,s0
.LBB193:
.LBB192:
	.loc 1 1972 27
	sb	a5,10(s0)
.LVL166:
.LBE192:
.LBE193:
	.loc 1 3405 2 is_stmt 1
	lbu	a1,0(s1)
	call	bt_l2cap_encrypt_change
.LVL167:
	.loc 1 3406 2
	li	a1,0
	j	.L98
	.cfi_endproc
.LFE145:
	.size	hci_encrypt_change, .-hci_encrypt_change
	.section	.text.find_pending_connect,"ax",@progbits
	.align	1
	.type	find_pending_connect, @function
find_pending_connect:
.LFB123:
	.loc 1 1230 1
	.cfi_startproc
.LVL168:
	.loc 1 1231 2
	.loc 1 1237 2
	.loc 1 1230 1 is_stmt 0
	addi	sp,sp,-16
	.cfi_def_cfa_offset 16
	.loc 1 1237 9
	li	a1,3
	.loc 1 1230 1
	sw	s0,8(sp)
	sw	ra,12(sp)
	.cfi_offset 8, -8
	.cfi_offset 1, -4
	.loc 1 1230 1
	mv	s0,a0
	.loc 1 1237 9
	call	bt_conn_lookup_state_le
.LVL169:
	.loc 1 1238 2 is_stmt 1
	.loc 1 1238 5 is_stmt 0
	bne	a0,zero,.L99
.LVL170:
.LBB196:
.LBB197:
	.loc 1 1242 2 is_stmt 1
	.loc 1 1242 9 is_stmt 0
	mv	a0,s0
.LVL171:
.LBE197:
.LBE196:
	.loc 1 1243 1
	lw	s0,8(sp)
	.cfi_remember_state
	.cfi_restore 8
.LVL172:
	lw	ra,12(sp)
	.cfi_restore 1
.LBB200:
.LBB198:
	.loc 1 1242 9
	li	a1,2
.LBE198:
.LBE200:
	.loc 1 1243 1
	addi	sp,sp,16
	.cfi_def_cfa_offset 0
.LBB201:
.LBB199:
	.loc 1 1242 9
	tail	bt_conn_lookup_state_le
.LVL173:
.L99:
	.cfi_restore_state
.LBE199:
.LBE201:
	.loc 1 1243 1
	lw	ra,12(sp)
	.cfi_restore 1
	lw	s0,8(sp)
	.cfi_restore 8
.LVL174:
	addi	sp,sp,16
	.cfi_def_cfa_offset 0
	jr	ra
	.cfi_endproc
.LFE123:
	.size	find_pending_connect, .-find_pending_connect
	.section	.text.hci_vendor_event,"ax",@progbits
	.align	1
	.type	hci_vendor_event, @function
hci_vendor_event:
.LFB162:
	.loc 1 3970 1 is_stmt 1
	.cfi_startproc
.LVL175:
	.loc 1 3971 1
	.loc 1 3974 2
	.loc 1 3970 1 is_stmt 0
	addi	sp,sp,-32
	.cfi_def_cfa_offset 32
	sw	s1,20(sp)
	.cfi_offset 9, -12
	.loc 1 3974 6
	lui	s1,%hi(.LANCHOR5)
	addi	s1,s1,%lo(.LANCHOR5)
	.loc 1 3974 5
	lw	a5,0(s1)
	.loc 1 3970 1
	sw	ra,28(sp)
	sw	s0,24(sp)
	sw	s2,16(sp)
	sw	s3,12(sp)
	sw	s4,8(sp)
	.cfi_offset 1, -4
	.cfi_offset 8, -8
	.cfi_offset 18, -16
	.cfi_offset 19, -20
	.cfi_offset 20, -24
	.loc 1 3974 5
	beq	a5,zero,.L102
.LBB209:
.LBB210:
.LBB211:
	.loc 1 3977 3
	addi	s3,a0,8
	mv	s0,a0
.LVL176:
	.loc 1 3975 3 is_stmt 1
	.loc 1 3977 3
.LBB212:
.LBB213:
	.file 5 "/b-l/bl_iot_sdk_new/components/network/ble/blestack/src/common/include/net/buf.h"
	.loc 5 506 2
	.loc 5 506 18 is_stmt 0
	mv	a0,s3
.LVL177:
	call	net_buf_simple_headroom
.LVL178:
.LBE213:
.LBE212:
	.loc 1 3979 13
	lw	a5,0(s1)
.LBB216:
.LBB214:
	.loc 5 506 18
	mv	s2,a0
	.loc 5 507 2 is_stmt 1
.LBE214:
.LBE216:
	.loc 1 3979 13 is_stmt 0
	mv	a0,s3
.LBB217:
.LBB215:
	.loc 5 507 18
	lhu	s4,12(s0)
.LVL179:
.LBE215:
.LBE217:
	.loc 1 3979 3 is_stmt 1
	.loc 1 3979 13 is_stmt 0
	jalr	a5
.LVL180:
	.loc 1 3981 3 is_stmt 1
.LBB218:
.LBB219:
	.loc 5 522 2
	.loc 5 522 25 is_stmt 0
	lw	a0,16(s0)
	slli	s2,s2,16
	srli	s2,s2,16
	add	a0,a0,s2
	.loc 5 522 12
	sw	a0,8(s0)
	.loc 5 523 2 is_stmt 1
	.loc 5 523 11 is_stmt 0
	sh	s4,12(s0)
.LVL181:
.LBE219:
.LBE218:
.LBE211:
.LBE210:
.LBE209:
	.loc 1 3985 2 is_stmt 1
.L102:
	.loc 1 3990 1 is_stmt 0
	lw	ra,28(sp)
	.cfi_restore 1
	lw	s0,24(sp)
	.cfi_restore 8
	lw	s1,20(sp)
	.cfi_restore 9
	lw	s2,16(sp)
	.cfi_restore 18
	lw	s3,12(sp)
	.cfi_restore 19
	lw	s4,8(sp)
	.cfi_restore 20
	addi	sp,sp,32
	.cfi_def_cfa_offset 0
	jr	ra
	.cfi_endproc
.LFE162:
	.size	hci_vendor_event, .-hci_vendor_event
	.section	.text.handle_event,"ax",@progbits
	.align	1
	.type	handle_event, @function
handle_event:
.LFB98:
	.loc 1 221 1 is_stmt 1
	.cfi_startproc
.LVL182:
	addi	sp,sp,-32
	.cfi_def_cfa_offset 32
	slli	a3,a3,3
.LVL183:
	sw	s0,24(sp)
	sw	ra,28(sp)
	.cfi_offset 8, -8
	.cfi_offset 1, -4
	.loc 1 221 1 is_stmt 0
	mv	s0,a0
	add	a3,a2,a3
	mv	a0,a1
.LVL184:
	.loc 1 222 2 is_stmt 1
	.loc 1 224 2
.L110:
.LBB224:
	.loc 1 225 3
	.loc 1 227 3
	.loc 1 227 6 is_stmt 0
	lbu	a5,0(a2)
	beq	a5,s0,.L109
	.loc 1 228 4 is_stmt 1
	addi	a2,a2,8
.LVL185:
.LBE224:
	.loc 1 224 2 is_stmt 0
	bne	a2,a3,.L110
.LVL186:
.LBB225:
.LBB226:
	.loc 1 241 2 is_stmt 1
	.loc 1 241 62 is_stmt 0
	lhu	a2,12(a0)
.LVL187:
	.loc 1 241 2
	lw	a0,8(a0)
	mv	a1,a2
.LVL188:
	sw	a2,12(sp)
	call	bt_hex_real
.LVL189:
.LBE226:
.LBE225:
	.file 6 "/b-l/bl_iot_sdk_new/components/network/ble/blestack/src/common/log.h"
	.loc 6 95 2 is_stmt 1
.LBB232:
.LBB227:
	.loc 1 241 2 is_stmt 0
	mv	a1,s0
.LBE227:
.LBE232:
	.loc 1 243 1
	lw	s0,24(sp)
	.cfi_remember_state
	.cfi_restore 8
.LVL190:
.LBB233:
.LBB228:
	.loc 1 241 2
	lw	a2,12(sp)
.LBE228:
.LBE233:
	.loc 1 243 1
	lw	ra,28(sp)
	.cfi_restore 1
.LBB234:
.LBB229:
	.loc 1 241 2
	mv	a3,a0
	lui	a0,%hi(.LC8)
.LBE229:
.LBE234:
	.loc 1 243 1
.LBB235:
.LBB230:
	.loc 1 241 2
	addi	a0,a0,%lo(.LC8)
.LBE230:
.LBE235:
	.loc 1 243 1
	addi	sp,sp,32
	.cfi_def_cfa_offset 0
.LBB236:
.LBB231:
	.loc 1 241 2
	tail	printf
.LVL191:
.L109:
	.cfi_restore_state
.LBE231:
.LBE236:
.LBB237:
	.loc 1 231 3 is_stmt 1
	.loc 1 231 10 is_stmt 0
	lhu	a1,12(a0)
	.loc 1 231 6
	lbu	a5,1(a2)
	bleu	a5,a1,.L112
	.loc 1 232 4 is_stmt 1
	mv	a2,s0
.LVL192:
.LBE237:
	.loc 1 243 1 is_stmt 0
	lw	s0,24(sp)
	.cfi_remember_state
	.cfi_restore 8
	lw	ra,28(sp)
	.cfi_restore 1
.LBB238:
	.loc 1 232 4
	lui	a0,%hi(.LC7)
.LVL193:
.LBE238:
	.loc 1 243 1
.LBB239:
	.loc 1 232 4
	addi	a0,a0,%lo(.LC7)
.LBE239:
	.loc 1 243 1
	addi	sp,sp,32
	.cfi_def_cfa_offset 0
.LBB240:
	.loc 1 232 4
	tail	printf
.LVL194:
.L112:
	.cfi_restore_state
	.loc 1 237 3 is_stmt 1
.LBE240:
	.loc 1 243 1 is_stmt 0
	lw	s0,24(sp)
	.cfi_restore 8
	lw	ra,28(sp)
	.cfi_restore 1
.LBB241:
	.loc 1 237 3
	lw	t1,4(a2)
.LBE241:
	.loc 1 243 1
	addi	sp,sp,32
	.cfi_def_cfa_offset 0
.LBB242:
	.loc 1 237 3
	jr	t1
.LVL195:
.LBE242:
	.cfi_endproc
.LFE98:
	.size	handle_event, .-handle_event
	.section	.text.hci_le_meta_event,"ax",@progbits
	.align	1
	.type	hci_le_meta_event, @function
hci_le_meta_event:
.LFB163:
	.loc 1 4033 1 is_stmt 1
	.cfi_startproc
.LVL196:
	.loc 1 4034 2
	.loc 1 4036 2
	.loc 1 4033 1 is_stmt 0
	addi	sp,sp,-16
	.cfi_def_cfa_offset 16
	sw	s0,8(sp)
	.loc 1 4036 8
	li	a1,1
	.cfi_offset 8, -8
	.loc 1 4033 1
	mv	s0,a0
	.loc 1 4036 8
	addi	a0,a0,8
.LVL197:
	.loc 1 4033 1
	sw	ra,12(sp)
	.cfi_offset 1, -4
	.loc 1 4036 8
	call	net_buf_simple_pull_mem
.LVL198:
	.loc 1 4038 2 is_stmt 1
	.loc 1 4040 2
	mv	a1,s0
	.loc 1 4041 1 is_stmt 0
	lw	s0,8(sp)
	.cfi_restore 8
.LVL199:
	lw	ra,12(sp)
	.cfi_restore 1
	.loc 1 4040 2
	lbu	a0,0(a0)
.LVL200:
	lui	a2,%hi(.LANCHOR6)
	.loc 1 4041 1
	.loc 1 4040 2
	li	a3,9
	addi	a2,a2,%lo(.LANCHOR6)
	.loc 1 4041 1
	addi	sp,sp,16
	.cfi_def_cfa_offset 0
	.loc 1 4040 2
	tail	handle_event
.LVL201:
	.cfi_endproc
.LFE163:
	.size	hci_le_meta_event, .-hci_le_meta_event
	.section	.text.hci_cmd_done,"ax",@progbits
	.align	1
	.type	hci_cmd_done, @function
hci_cmd_done:
.LFB153:
	.loc 1 3587 1 is_stmt 1
	.cfi_startproc
.LVL202:
	.loc 1 3588 2
	.loc 1 3590 2
	.loc 1 3587 1 is_stmt 0
	addi	sp,sp,-48
	.cfi_def_cfa_offset 48
	sw	s0,40(sp)
	sw	s1,36(sp)
	sw	s3,28(sp)
	sw	s4,24(sp)
	sw	ra,44(sp)
	sw	s2,32(sp)
	.cfi_offset 8, -8
	.cfi_offset 9, -12
	.cfi_offset 19, -20
	.cfi_offset 20, -24
	.cfi_offset 1, -4
	.cfi_offset 18, -16
	.loc 1 3587 1
	mv	s4,a0
	.loc 1 3590 6
	lbu	a0,6(a2)
.LVL203:
	.loc 1 3587 1
	mv	s3,a1
	mv	s1,a2
	.loc 1 3590 5
	lui	s0,%hi(.LANCHOR7)
	.loc 1 3590 6
	call	net_buf_pool_get
.LVL204:
	.loc 1 3590 5
	addi	a5,s0,%lo(.LANCHOR7)
	beq	a5,a0,.L119
	.loc 1 3591 3 is_stmt 1
	lbu	a2,6(s1)
	mv	a0,a2
	sw	a2,12(sp)
	call	net_buf_pool_get
.LVL205:
	addi	a4,s0,%lo(.LANCHOR7)
	.loc 1 3613 1 is_stmt 0
	lw	s0,40(sp)
	.cfi_remember_state
	.cfi_restore 8
	.loc 1 3591 3
	lw	a2,12(sp)
	.loc 1 3613 1
	lw	ra,44(sp)
	.cfi_restore 1
	lw	s1,36(sp)
	.cfi_restore 9
.LVL206:
	lw	s2,32(sp)
	.cfi_restore 18
	lw	s3,28(sp)
	.cfi_restore 19
	.loc 1 3591 3
	mv	a1,s4
	.loc 1 3613 1
	lw	s4,24(sp)
	.cfi_restore 20
	.loc 1 3591 3
	mv	a3,a0
	lui	a0,%hi(.LC9)
	.loc 1 3613 1
	.loc 1 3591 3
	addi	a0,a0,%lo(.LC9)
	.loc 1 3613 1
	addi	sp,sp,48
	.cfi_def_cfa_offset 0
	.loc 1 3591 3
	tail	printf
.LVL207:
.L119:
	.cfi_restore_state
.LBB246:
.LBB247:
	.loc 1 3597 2 is_stmt 1
	.loc 1 3597 17 is_stmt 0
	mv	a0,s1
	call	net_buf_id
.LVL208:
	.loc 1 3597 34
	li	s2,12
	mul	a0,a0,s2
	lui	s0,%hi(.LANCHOR8)
	addi	a5,s0,%lo(.LANCHOR8)
	addi	s0,s0,%lo(.LANCHOR8)
	add	a5,a5,a0
	.loc 1 3597 5
	lhu	a5,2(a5)
	beq	a5,s4,.L120
	.loc 1 3598 3 is_stmt 1
	.loc 1 3598 89 is_stmt 0
	mv	a0,s1
	call	net_buf_id
.LVL209:
	.loc 1 3598 106
	mul	a0,a0,s2
	.loc 1 3598 3
	mv	a1,s4
	.loc 1 3598 106
	add	a0,s0,a0
	.loc 1 3598 3
	lhu	a2,2(a0)
	lui	a0,%hi(.LC10)
	addi	a0,a0,%lo(.LC10)
	call	printf
.LVL210:
.L120:
	.loc 1 3602 2 is_stmt 1
	.loc 1 3602 17 is_stmt 0
	mv	a0,s1
	call	net_buf_id
.LVL211:
	.loc 1 3602 34
	li	s2,12
	mul	a0,a0,s2
	add	a0,s0,a0
	.loc 1 3602 5
	lw	a5,4(a0)
	beq	a5,zero,.L121
	.loc 1 3602 42
	bne	s3,zero,.L121
.LBB248:
	.loc 1 3603 3 is_stmt 1
	.loc 1 3603 45 is_stmt 0
	mv	a0,s1
	call	net_buf_id
.LVL212:
	.loc 1 3603 25
	mul	a0,a0,s2
	add	a0,s0,a0
	lw	a5,4(a0)
.LVL213:
	.loc 1 3605 3 is_stmt 1
	lbu	a2,8(a5)
	lw	a1,4(a5)
	lw	a0,0(a5)
	call	atomic_set_bit_to
.LVL214:
.L121:
.LBE248:
	.loc 1 3609 2
	.loc 1 3609 17 is_stmt 0
	mv	a0,s1
	call	net_buf_id
.LVL215:
	.loc 1 3609 34
	li	s2,12
	mul	a0,a0,s2
	add	a0,s0,a0
	.loc 1 3609 5
	lw	a5,8(a0)
	beq	a5,zero,.L118
	.loc 1 3610 3 is_stmt 1
	.loc 1 3610 14 is_stmt 0
	mv	a0,s1
	call	net_buf_id
.LVL216:
	.loc 1 3610 40
	mul	a0,a0,s2
	add	a0,s0,a0
	sb	s3,0(a0)
	.loc 1 3611 3 is_stmt 1
	.loc 1 3611 25 is_stmt 0
	mv	a0,s1
	call	net_buf_id
.LVL217:
	.loc 1 3611 3
	mul	a0,a0,s2
.LBE247:
.LBE246:
	.loc 1 3613 1
	lw	ra,44(sp)
	.cfi_remember_state
	.cfi_restore 1
	lw	s1,36(sp)
	.cfi_restore 9
.LVL218:
	lw	s2,32(sp)
	.cfi_restore 18
	lw	s3,28(sp)
	.cfi_restore 19
.LVL219:
	lw	s4,24(sp)
	.cfi_restore 20
.LVL220:
.LBB251:
.LBB249:
	.loc 1 3611 3
	add	s0,s0,a0
	lw	a0,8(s0)
.LBE249:
.LBE251:
	.loc 1 3613 1
	lw	s0,40(sp)
	.cfi_restore 8
	addi	sp,sp,48
	.cfi_def_cfa_offset 0
.LBB252:
.LBB250:
	.loc 1 3611 3
	tail	k_sem_give
.LVL221:
.L118:
	.cfi_restore_state
.LBE250:
.LBE252:
	.loc 1 3613 1
	lw	ra,44(sp)
	.cfi_restore 1
	lw	s0,40(sp)
	.cfi_restore 8
	lw	s1,36(sp)
	.cfi_restore 9
.LVL222:
	lw	s2,32(sp)
	.cfi_restore 18
	lw	s3,28(sp)
	.cfi_restore 19
.LVL223:
	lw	s4,24(sp)
	.cfi_restore 20
.LVL224:
	addi	sp,sp,48
	.cfi_def_cfa_offset 0
	jr	ra
	.cfi_endproc
.LFE153:
	.size	hci_cmd_done, .-hci_cmd_done
	.section	.text.hci_cmd_status,"ax",@progbits
	.align	1
	.type	hci_cmd_status, @function
hci_cmd_status:
.LFB155:
	.loc 1 3641 1 is_stmt 1
	.cfi_startproc
.LVL225:
	.loc 1 3642 2
	.loc 1 3643 2
	.loc 1 3644 2
	.loc 1 3646 2
	.loc 1 3641 1 is_stmt 0
	addi	sp,sp,-32
	.cfi_def_cfa_offset 32
	mv	a2,a0
	.loc 1 3646 8
	li	a1,4
	addi	a0,a0,8
.LVL226:
	.loc 1 3641 1
	sw	s0,24(sp)
	sw	ra,28(sp)
	.cfi_offset 8, -8
	.cfi_offset 1, -4
	.loc 1 3646 8
	sw	a2,12(sp)
	call	net_buf_simple_pull_mem
.LVL227:
	.loc 1 3647 2 is_stmt 1
	.loc 1 3648 2
	.loc 1 3647 9 is_stmt 0
	lbu	a5,3(a0)
	lbu	a4,2(a0)
	.loc 1 3648 7
	lbu	s0,1(a0)
.LVL228:
	.loc 1 3650 2 is_stmt 1
	.loc 1 3652 2
	lbu	a1,0(a0)
	lw	a2,12(sp)
	.loc 1 3647 9 is_stmt 0
	slli	a5,a5,8
	.loc 1 3652 2
	or	a0,a5,a4
.LVL229:
	call	hci_cmd_done
.LVL230:
	.loc 1 3655 2 is_stmt 1
	.loc 1 3655 5 is_stmt 0
	beq	s0,zero,.L127
	.loc 1 3656 3 is_stmt 1
	.loc 1 3658 1 is_stmt 0
	lw	s0,24(sp)
	.cfi_remember_state
	.cfi_restore 8
.LVL231:
	lw	ra,28(sp)
	.cfi_restore 1
	.loc 1 3656 3
	lui	a0,%hi(.LANCHOR2+152)
	.loc 1 3658 1
	.loc 1 3656 3
	addi	a0,a0,%lo(.LANCHOR2+152)
	.loc 1 3658 1
	addi	sp,sp,32
	.cfi_def_cfa_offset 0
.LVL232:
	.loc 1 3656 3
	tail	k_sem_give
.LVL233:
.L127:
	.cfi_restore_state
	.loc 1 3658 1
	lw	ra,28(sp)
	.cfi_restore 1
	lw	s0,24(sp)
	.cfi_restore 8
.LVL234:
	addi	sp,sp,32
	.cfi_def_cfa_offset 0
.LVL235:
	jr	ra
	.cfi_endproc
.LFE155:
	.size	hci_cmd_status, .-hci_cmd_status
	.section	.text.hci_cmd_complete,"ax",@progbits
	.align	1
	.type	hci_cmd_complete, @function
hci_cmd_complete:
.LFB154:
	.loc 1 3616 1 is_stmt 1
	.cfi_startproc
.LVL236:
	.loc 1 3617 2
	.loc 1 3618 2
	.loc 1 3619 2
	.loc 1 3621 2
	.loc 1 3616 1 is_stmt 0
	addi	sp,sp,-32
	.cfi_def_cfa_offset 32
	mv	a2,a0
	.loc 1 3621 8
	li	a1,3
	addi	a0,a0,8
.LVL237:
	.loc 1 3616 1
	sw	s0,24(sp)
	sw	ra,28(sp)
	.cfi_offset 8, -8
	.cfi_offset 1, -4
	.loc 1 3621 8
	sw	a2,12(sp)
	call	net_buf_simple_pull_mem
.LVL238:
	.loc 1 3622 2 is_stmt 1
	.loc 1 3630 9 is_stmt 0
	lw	a2,12(sp)
	.loc 1 3623 9
	lbu	a5,2(a0)
	lbu	a4,1(a0)
	.loc 1 3630 9
	lw	a3,8(a2)
	.loc 1 3622 7
	lbu	s0,0(a0)
.LVL239:
	.loc 1 3623 2 is_stmt 1
	.loc 1 3625 2
	.loc 1 3630 2
	.loc 1 3632 2
	.loc 1 3623 9 is_stmt 0
	slli	a5,a5,8
	.loc 1 3632 2
	lbu	a1,0(a3)
	or	a0,a5,a4
.LVL240:
	call	hci_cmd_done
.LVL241:
	.loc 1 3635 2 is_stmt 1
	.loc 1 3635 5 is_stmt 0
	beq	s0,zero,.L130
	.loc 1 3636 3 is_stmt 1
	.loc 1 3638 1 is_stmt 0
	lw	s0,24(sp)
	.cfi_remember_state
	.cfi_restore 8
.LVL242:
	lw	ra,28(sp)
	.cfi_restore 1
	.loc 1 3636 3
	lui	a0,%hi(.LANCHOR2+152)
	.loc 1 3638 1
	.loc 1 3636 3
	addi	a0,a0,%lo(.LANCHOR2+152)
	.loc 1 3638 1
	addi	sp,sp,32
	.cfi_def_cfa_offset 0
.LVL243:
	.loc 1 3636 3
	tail	k_sem_give
.LVL244:
.L130:
	.cfi_restore_state
	.loc 1 3638 1
	lw	ra,28(sp)
	.cfi_restore 1
	lw	s0,24(sp)
	.cfi_restore 8
.LVL245:
	addi	sp,sp,32
	.cfi_def_cfa_offset 0
.LVL246:
	jr	ra
	.cfi_endproc
.LFE154:
	.size	hci_cmd_complete, .-hci_cmd_complete
	.section	.text.id_find,"ax",@progbits
	.align	1
	.type	id_find, @function
id_find:
.LFB205:
	.loc 1 5801 1 is_stmt 1
	.cfi_startproc
.LVL247:
	.loc 1 5802 2
	.loc 1 5804 2
	.loc 1 5801 1 is_stmt 0
	addi	sp,sp,-32
	.cfi_def_cfa_offset 32
	sw	s1,20(sp)
	.cfi_offset 9, -12
	.loc 1 5804 27
	lui	s1,%hi(.LANCHOR2)
	.loc 1 5801 1
	sw	s0,24(sp)
	sw	s3,12(sp)
	sw	s4,8(sp)
	sw	ra,28(sp)
	sw	s2,16(sp)
	.cfi_offset 8, -8
	.cfi_offset 19, -20
	.cfi_offset 20, -24
	.cfi_offset 1, -4
	.cfi_offset 18, -16
	.loc 1 5801 1
	mv	s3,a0
	.loc 1 5804 10
	li	s0,0
	.loc 1 5804 27
	addi	s1,s1,%lo(.LANCHOR2)
	.loc 1 5805 29
	li	s4,7
.LVL248:
.L134:
	.loc 1 5804 2 discriminator 1
	lbu	a5,7(s1)
	bgtu	a5,s0,.L136
	.loc 1 5810 9
	li	s2,-2
.L133:
	.loc 1 5811 1
	lw	ra,28(sp)
	.cfi_remember_state
	.cfi_restore 1
	lw	s0,24(sp)
	.cfi_restore 8
.LVL249:
	mv	a0,s2
	lw	s1,20(sp)
	.cfi_restore 9
	lw	s2,16(sp)
	.cfi_restore 18
	lw	s3,12(sp)
	.cfi_restore 19
.LVL250:
	lw	s4,8(sp)
	.cfi_restore 20
	addi	sp,sp,32
	.cfi_def_cfa_offset 0
	jr	ra
.LVL251:
.L136:
	.cfi_restore_state
	.loc 1 5805 3 is_stmt 1
	.loc 1 5805 29 is_stmt 0
	mul	a1,s0,s4
.LBB255:
.LBB256:
	.loc 3 55 9
	li	a2,7
	mv	a0,s3
.LBE256:
.LBE255:
	.loc 1 5805 44
	mv	s2,s0
.LVL252:
.LBB258:
.LBB257:
	.loc 3 55 2 is_stmt 1
	.loc 3 55 9 is_stmt 0
	add	a1,s1,a1
	call	memcmp
.LVL253:
.LBE257:
.LBE258:
	.loc 1 5805 6
	beq	a0,zero,.L133
	.loc 1 5804 40 discriminator 2
	addi	s0,s0,1
.LVL254:
	andi	s0,s0,0xff
.LVL255:
	j	.L134
	.cfi_endproc
.LFE205:
	.size	id_find, .-id_find
	.section	.text.sys_put_le64,"ax",@progbits
	.align	1
	.type	sys_put_le64, @function
sys_put_le64:
.LFB52:
	.file 7 "/b-l/bl_iot_sdk_new/components/network/ble/blestack/src/common/include/misc/byteorder.h"
	.loc 7 248 1 is_stmt 1
	.cfi_startproc
.LVL256:
	.loc 7 249 2
.LBB271:
.LBB272:
	.loc 7 234 2
.LBB273:
.LBB274:
	.loc 7 204 2
	.loc 7 205 9 is_stmt 0
	slli	a5,a0,16
	srli	a5,a5,16
	srli	a5,a5,8
	sb	a5,1(a2)
.LBE274:
.LBE273:
.LBE272:
.LBE271:
.LBB286:
.LBB287:
.LBB288:
.LBB289:
	slli	a5,a1,16
	srli	a5,a5,16
.LBE289:
.LBE288:
.LBE287:
.LBE286:
.LBB301:
.LBB283:
.LBB276:
.LBB275:
	.loc 7 204 9
	sb	a0,0(a2)
	.loc 7 205 2 is_stmt 1
.LVL257:
.LBE275:
.LBE276:
	.loc 7 235 2
.LBB277:
.LBB278:
	.loc 7 204 2
.LBE278:
.LBE277:
.LBE283:
.LBE301:
.LBB302:
.LBB298:
.LBB292:
.LBB290:
	.loc 7 205 9 is_stmt 0
	srli	a5,a5,8
.LBE290:
.LBE292:
.LBE298:
.LBE302:
.LBB303:
.LBB284:
.LBB281:
.LBB279:
	srli	a0,a0,24
.LVL258:
.LBE279:
.LBE281:
.LBE284:
.LBE303:
.LBB304:
.LBB299:
.LBB293:
.LBB294:
	srli	a1,a1,24
.LBE294:
.LBE293:
.LBE299:
.LBE304:
.LBB305:
.LBB285:
.LBB282:
.LBB280:
	.loc 7 204 9
	sb	zero,2(a2)
	.loc 7 205 2 is_stmt 1
	.loc 7 205 9 is_stmt 0
	sb	a0,3(a2)
.LVL259:
.LBE280:
.LBE282:
.LBE285:
.LBE305:
	.loc 7 250 2 is_stmt 1
.LBB306:
.LBB300:
	.loc 7 234 2
.LBB296:
.LBB291:
	.loc 7 204 2
	.loc 7 204 9 is_stmt 0
	sb	zero,4(a2)
	.loc 7 205 2 is_stmt 1
	.loc 7 205 9 is_stmt 0
	sb	a5,5(a2)
.LVL260:
.LBE291:
.LBE296:
	.loc 7 235 2 is_stmt 1
.LBB297:
.LBB295:
	.loc 7 204 2
	.loc 7 204 9 is_stmt 0
	sb	zero,6(a2)
	.loc 7 205 2 is_stmt 1
	.loc 7 205 9 is_stmt 0
	sb	a1,7(a2)
.LVL261:
.LBE295:
.LBE297:
.LBE300:
.LBE306:
	.loc 7 251 1
	ret
	.cfi_endproc
.LFE52:
	.size	sys_put_le64, .-sys_put_le64
	.section	.text.cmd_state_set_init,"ax",@progbits
	.align	1
	.globl	cmd_state_set_init
	.type	cmd_state_set_init, @function
cmd_state_set_init:
.LFB97:
	.loc 1 141 1 is_stmt 1
	.cfi_startproc
.LVL262:
	.loc 1 142 2
	.loc 1 142 16 is_stmt 0
	sw	a1,0(a0)
	.loc 1 143 2 is_stmt 1
	.loc 1 143 13 is_stmt 0
	sw	a2,4(a0)
	.loc 1 144 2 is_stmt 1
	.loc 1 144 13 is_stmt 0
	sb	a3,8(a0)
	.loc 1 145 1
	ret
	.cfi_endproc
.LFE97:
	.size	cmd_state_set_init, .-cmd_state_set_init
	.section	.text.bt_hci_cmd_create,"ax",@progbits
	.align	1
	.globl	bt_hci_cmd_create
	.type	bt_hci_cmd_create, @function
bt_hci_cmd_create:
.LFB100:
	.loc 1 310 1 is_stmt 1
	.cfi_startproc
.LVL263:
	.loc 1 311 2
	.loc 1 312 2
	.loc 1 314 2
	.loc 1 316 2
	.loc 1 310 1 is_stmt 0
	addi	sp,sp,-32
	.cfi_def_cfa_offset 32
	sw	s2,16(sp)
	.cfi_offset 18, -16
	mv	s2,a0
	.loc 1 316 8
	lui	a0,%hi(.LANCHOR7)
.LVL264:
	.loc 1 310 1
	sw	s5,4(sp)
	.loc 1 316 8
	addi	a0,a0,%lo(.LANCHOR7)
	.cfi_offset 21, -28
	.loc 1 310 1
	mv	s5,a1
	.loc 1 316 8
	li	a1,-1
.LVL265:
	.loc 1 310 1
	sw	ra,28(sp)
	sw	s0,24(sp)
	sw	s1,20(sp)
	sw	s3,12(sp)
	sw	s4,8(sp)
	.cfi_offset 1, -4
	.cfi_offset 8, -8
	.cfi_offset 9, -12
	.cfi_offset 19, -20
	.cfi_offset 20, -24
	.loc 1 316 8
	call	net_buf_alloc_fixed
.LVL266:
	.loc 1 321 2
	addi	s4,a0,8
	.loc 1 316 8
	mv	s1,a0
.LVL267:
	.loc 1 317 2 is_stmt 1
	.loc 1 317 7
	.loc 1 319 2
	.loc 1 321 2
	li	a1,1
	mv	a0,s4
	call	net_buf_simple_reserve
.LVL268:
	.loc 1 323 2
.LBB307:
.LBB308:
	.file 8 "/b-l/bl_iot_sdk_new/components/network/ble/blestack/src/include/bluetooth/buf.h"
	.loc 8 95 2
.LBE308:
.LBE307:
	.loc 5 1063 2
	.loc 1 325 13 is_stmt 0
	mv	a0,s1
.LBB310:
.LBB309:
	.loc 8 95 34
	sb	zero,20(s1)
.LVL269:
.LBE309:
.LBE310:
	.loc 1 325 2 is_stmt 1
	.loc 1 325 13 is_stmt 0
	call	net_buf_id
.LVL270:
	.loc 1 325 39
	li	s3,12
	mul	a0,a0,s3
	lui	s0,%hi(.LANCHOR8)
	addi	s0,s0,%lo(.LANCHOR8)
	add	a0,s0,a0
	sh	s2,2(a0)
	.loc 1 326 2 is_stmt 1
	.loc 1 326 13 is_stmt 0
	mv	a0,s1
	call	net_buf_id
.LVL271:
	.loc 1 326 37
	mul	a0,a0,s3
	add	a0,s0,a0
	sw	zero,8(a0)
	.loc 1 327 2 is_stmt 1
	.loc 1 327 13 is_stmt 0
	mv	a0,s1
	call	net_buf_id
.LVL272:
	.loc 1 327 38
	mul	a0,a0,s3
	.loc 1 329 8
	li	a1,3
	.loc 1 327 38
	add	s0,s0,a0
	sw	zero,4(s0)
	.loc 1 329 2 is_stmt 1
	.loc 1 329 8 is_stmt 0
	mv	a0,s4
	call	net_buf_simple_add
.LVL273:
	.loc 1 330 2 is_stmt 1
	.loc 1 330 14 is_stmt 0
	sb	s2,0(a0)
	srli	s2,s2,8
	sb	s2,1(a0)
	.loc 1 331 2 is_stmt 1
	.loc 1 331 17 is_stmt 0
	sb	s5,2(a0)
	.loc 1 333 2 is_stmt 1
	.loc 1 334 1 is_stmt 0
	lw	ra,28(sp)
	.cfi_restore 1
	lw	s0,24(sp)
	.cfi_restore 8
	mv	a0,s1
.LVL274:
	lw	s2,16(sp)
	.cfi_restore 18
	lw	s1,20(sp)
	.cfi_restore 9
.LVL275:
	lw	s3,12(sp)
	.cfi_restore 19
	lw	s4,8(sp)
	.cfi_restore 20
	lw	s5,4(sp)
	.cfi_restore 21
	addi	sp,sp,32
	.cfi_def_cfa_offset 0
	jr	ra
	.cfi_endproc
.LFE100:
	.size	bt_hci_cmd_create, .-bt_hci_cmd_create
	.section	.text.bt_hci_cmd_send_sync,"ax",@progbits
	.align	1
	.globl	bt_hci_cmd_send_sync
	.type	bt_hci_cmd_send_sync, @function
bt_hci_cmd_send_sync:
.LFB102:
	.loc 1 371 1 is_stmt 1
	.cfi_startproc
.LVL276:
	.loc 1 372 2
	.loc 1 373 2
	.loc 1 375 2
	.loc 1 371 1 is_stmt 0
	addi	sp,sp,-48
	.cfi_def_cfa_offset 48
	sw	s0,40(sp)
	sw	s4,24(sp)
	sw	s5,20(sp)
	sw	ra,44(sp)
	sw	s1,36(sp)
	sw	s2,32(sp)
	sw	s3,28(sp)
	.cfi_offset 8, -8
	.cfi_offset 20, -24
	.cfi_offset 21, -28
	.cfi_offset 1, -4
	.cfi_offset 9, -12
	.cfi_offset 18, -16
	.cfi_offset 19, -20
	.loc 1 371 1
	mv	s4,a0
	mv	s5,a2
	mv	s0,a1
	.loc 1 375 5
	bne	a1,zero,.L146
	.loc 1 376 3 is_stmt 1
	.loc 1 376 9 is_stmt 0
	call	bt_hci_cmd_create
.LVL277:
	mv	s0,a0
.LVL278:
	.loc 1 377 3 is_stmt 1
	.loc 1 378 11 is_stmt 0
	li	s1,-55
	.loc 1 377 6
	beq	a0,zero,.L145
.L146:
	.loc 1 382 2 is_stmt 1
	.loc 1 384 2
	addi	s3,sp,4
	li	a2,1
	li	a1,0
	mv	a0,s3
	call	k_sem_init
.LVL279:
	.loc 1 385 2
	.loc 1 385 13 is_stmt 0
	mv	a0,s0
	call	net_buf_id
.LVL280:
	.loc 1 385 37
	li	s2,12
	mul	a0,a0,s2
	lui	s1,%hi(.LANCHOR8)
	addi	s1,s1,%lo(.LANCHOR8)
	add	a0,s1,a0
	sw	s3,8(a0)
	.loc 1 389 5 is_stmt 1
	.loc 1 389 16 is_stmt 0
	mv	a0,s0
	call	net_buf_id
.LVL281:
	.loc 1 389 42
	mul	a0,a0,s2
	li	a5,-1
	add	a0,s1,a0
	sb	a5,0(a0)
	.loc 1 393 2 is_stmt 1
	mv	a0,s0
	call	net_buf_ref
.LVL282:
	.loc 1 395 2
	lui	a0,%hi(.LANCHOR2+168)
	mv	a1,s0
	addi	a0,a0,%lo(.LANCHOR2+168)
	call	net_buf_put
.LVL283:
	.loc 1 397 5
	lui	a0,%hi(g_poll_sem)
	addi	a0,a0,%lo(g_poll_sem)
	call	k_sem_give
.LVL284:
	.loc 1 399 2
	.loc 1 399 8 is_stmt 0
	li	a1,8192
	addi	a1,a1,1808
	mv	a0,s3
	call	k_sem_take
.LVL285:
	.loc 1 401 5 is_stmt 1
	mv	a0,s3
	call	k_sem_delete
.LVL286:
	.loc 1 403 2
	.loc 1 403 7
	.loc 1 405 2
	.loc 1 407 2
	.loc 1 407 17 is_stmt 0
	mv	a0,s0
	call	net_buf_id
.LVL287:
	.loc 1 407 34
	mul	a0,a0,s2
	add	a0,s1,a0
	.loc 1 407 5
	lbu	a5,0(a0)
	beq	a5,zero,.L148
	.loc 1 408 6 is_stmt 1
	.loc 1 408 25 is_stmt 0
	mv	a0,s0
	call	net_buf_id
.LVL288:
	.loc 1 408 42
	mul	a0,a0,s2
	.loc 1 408 6
	li	a4,9
	.loc 1 408 42
	add	s1,s1,a0
	lbu	a5,0(s1)
	.loc 1 410 8
	li	s1,-61
	.loc 1 408 6
	beq	a5,a4,.L149
	li	a4,255
	.loc 1 420 8
	li	s1,-5
	.loc 1 408 6
	bne	a5,a4,.L149
	.loc 1 414 8 is_stmt 1
.LVL289:
	.loc 1 415 13
	lui	a0,%hi(.LC11)
	mv	a1,s4
	addi	a0,a0,%lo(.LC11)
	call	printf
.LVL290:
	.loc 1 416 13
	.loc 1 416 37
	call	user_vAssertCalled
.LVL291:
	.loc 1 414 12 is_stmt 0
	li	s1,-79
.LVL292:
.L149:
	.loc 1 424 3 is_stmt 1
	mv	a0,s0
	call	net_buf_unref
.LVL293:
.L145:
	.loc 1 435 1 is_stmt 0
	lw	ra,44(sp)
	.cfi_remember_state
	.cfi_restore 1
	lw	s0,40(sp)
	.cfi_restore 8
.LVL294:
	mv	a0,s1
	lw	s2,32(sp)
	.cfi_restore 18
	lw	s1,36(sp)
	.cfi_restore 9
	lw	s3,28(sp)
	.cfi_restore 19
	lw	s4,24(sp)
	.cfi_restore 20
	lw	s5,20(sp)
	.cfi_restore 21
.LVL295:
	addi	sp,sp,48
	.cfi_def_cfa_offset 0
	jr	ra
.LVL296:
.L148:
	.cfi_restore_state
	.loc 1 426 3 is_stmt 1
	.loc 1 427 3
	.loc 1 427 6 is_stmt 0
	beq	s5,zero,.L150
	.loc 1 428 4 is_stmt 1
	.loc 1 428 9 is_stmt 0
	sw	s0,0(s5)
.L156:
	.loc 1 426 7
	li	s1,0
	j	.L145
.L150:
	.loc 1 430 4 is_stmt 1
	mv	a0,s0
	call	net_buf_unref
.LVL297:
	j	.L156
	.cfi_endproc
.LFE102:
	.size	bt_hci_cmd_send_sync, .-bt_hci_cmd_send_sync
	.section	.text.set_le_scan_enable,"ax",@progbits
	.align	1
	.type	set_le_scan_enable, @function
set_le_scan_enable:
.LFB109:
	.loc 1 671 1
	.cfi_startproc
.LVL298:
	.loc 1 672 2
	.loc 1 673 2
	.loc 1 674 2
	.loc 1 675 2
	.loc 1 677 2
	.loc 1 671 1 is_stmt 0
	addi	sp,sp,-48
	.cfi_def_cfa_offset 48
	sw	s0,40(sp)
	.cfi_offset 8, -8
	mv	s0,a0
	.loc 1 677 8
	li	a0,8192
.LVL299:
	li	a1,2
	addi	a0,a0,12
	.loc 1 671 1
	sw	ra,44(sp)
	sw	s1,36(sp)
	sw	s2,32(sp)
	sw	s3,28(sp)
	.cfi_offset 1, -4
	.cfi_offset 9, -12
	.cfi_offset 18, -16
	.cfi_offset 19, -20
	.loc 1 677 8
	call	bt_hci_cmd_create
.LVL300:
	.loc 1 678 2 is_stmt 1
	.loc 1 678 5 is_stmt 0
	beq	a0,zero,.L161
	mv	s1,a0
	.loc 1 682 2 is_stmt 1
	.loc 1 682 7 is_stmt 0
	li	a1,2
	addi	a0,a0,8
.LVL301:
	call	net_buf_simple_add
.LVL302:
	mv	s2,a0
.LVL303:
	.loc 1 684 2 is_stmt 1
	.loc 1 684 5 is_stmt 0
	li	a5,1
	lui	a0,%hi(.LANCHOR2+108)
.LVL304:
	addi	s3,a0,%lo(.LANCHOR2+108)
	bne	s0,a5,.L159
	.loc 1 685 3 is_stmt 1
	.loc 1 685 20 is_stmt 0
	li	a1,13
	addi	a0,a0,%lo(.LANCHOR2+108)
	call	atomic_test_bit
.LVL305:
	.loc 1 685 18
	sb	a0,1(s2)
.L160:
	.loc 1 691 2 is_stmt 1
	.loc 1 691 13 is_stmt 0
	sb	s0,0(s2)
	.loc 1 693 2 is_stmt 1
.LVL306:
.LBB311:
.LBB312:
	.loc 1 142 2
	.loc 1 143 13 is_stmt 0
	li	a5,10
.LBE312:
.LBE311:
	.loc 1 693 2
	andi	s0,s0,1
.LVL307:
	.loc 1 695 13
	mv	a0,s1
.LBB314:
.LBB313:
	.loc 1 143 13
	sw	a5,8(sp)
.LVL308:
	.loc 1 142 16
	sw	s3,4(sp)
	.loc 1 143 2 is_stmt 1
	.loc 1 144 2
.LBE313:
.LBE314:
	.loc 1 693 2 is_stmt 0
	sb	s0,12(sp)
.LVL309:
	.loc 1 695 2 is_stmt 1
	.loc 1 695 13 is_stmt 0
	call	net_buf_id
.LVL310:
	.loc 1 695 38
	li	a5,12
	mul	a0,a0,a5
	lui	a5,%hi(.LANCHOR8)
	addi	a5,a5,%lo(.LANCHOR8)
	addi	a4,sp,4
	.loc 1 697 8
	li	a2,0
	mv	a1,s1
	.loc 1 695 38
	add	a5,a5,a0
	.loc 1 697 8
	li	a0,8192
	.loc 1 695 38
	sw	a4,4(a5)
	.loc 1 697 2 is_stmt 1
	.loc 1 697 8 is_stmt 0
	addi	a0,a0,12
	call	bt_hci_cmd_send_sync
.LVL311:
	.loc 1 698 2 is_stmt 1
.L157:
	.loc 1 703 1 is_stmt 0
	lw	ra,44(sp)
	.cfi_remember_state
	.cfi_restore 1
	lw	s0,40(sp)
	.cfi_restore 8
	lw	s1,36(sp)
	.cfi_restore 9
	lw	s2,32(sp)
	.cfi_restore 18
	lw	s3,28(sp)
	.cfi_restore 19
	addi	sp,sp,48
	.cfi_def_cfa_offset 0
	jr	ra
.LVL312:
.L159:
	.cfi_restore_state
	.loc 1 688 3 is_stmt 1
	.loc 1 688 18 is_stmt 0
	sb	zero,1(s2)
	j	.L160
.LVL313:
.L161:
	.loc 1 679 10
	li	a0,-55
.LVL314:
	j	.L157
	.cfi_endproc
.LFE109:
	.size	set_le_scan_enable, .-set_le_scan_enable
	.section	.text.set_random_address,"ax",@progbits
	.align	1
	.type	set_random_address, @function
set_random_address:
.LFB105:
	.loc 1 485 1 is_stmt 1
	.cfi_startproc
.LVL315:
	.loc 1 486 2
	.loc 1 487 2
	.loc 1 492 2
	.loc 1 496 2
	.loc 1 485 1 is_stmt 0
	addi	sp,sp,-32
	.cfi_def_cfa_offset 32
	sw	s1,20(sp)
	.cfi_offset 9, -12
.LBB321:
.LBB322:
	.loc 3 50 9
	lui	s1,%hi(.LANCHOR2)
	addi	s1,s1,%lo(.LANCHOR2)
.LBE322:
.LBE321:
	.loc 1 485 1
	sw	s3,12(sp)
	.cfi_offset 19, -20
.LBB325:
.LBB323:
	.loc 3 50 9
	addi	s3,s1,10
	li	a2,6
	mv	a1,s3
.LBE323:
.LBE325:
	.loc 1 485 1
	sw	s0,24(sp)
	sw	s4,8(sp)
	sw	ra,28(sp)
	sw	s2,16(sp)
	sw	s5,4(sp)
	.cfi_offset 8, -8
	.cfi_offset 20, -24
	.cfi_offset 1, -4
	.cfi_offset 18, -16
	.cfi_offset 21, -28
	.loc 1 485 1
	mv	s4,a0
.LVL316:
.LBB326:
.LBB324:
	.loc 3 50 2 is_stmt 1
	.loc 3 50 9 is_stmt 0
	call	memcmp
.LVL317:
	mv	s0,a0
.LVL318:
.LBE324:
.LBE326:
	.loc 1 496 5
	beq	a0,zero,.L163
	.loc 1 500 2 is_stmt 1
	.loc 1 500 8 is_stmt 0
	li	s5,8192
	li	a1,6
	addi	a0,s5,5
	call	bt_hci_cmd_create
.LVL319:
	mv	s2,a0
.LVL320:
	.loc 1 501 2 is_stmt 1
	.loc 1 502 10 is_stmt 0
	li	s0,-55
	.loc 1 501 5
	beq	a0,zero,.L163
	.loc 1 505 2 is_stmt 1
	li	a2,6
	mv	a1,s4
	addi	a0,a0,8
.LVL321:
	call	net_buf_simple_add_mem
.LVL322:
	.loc 1 507 2
	.loc 1 507 8 is_stmt 0
	li	a2,0
	mv	a1,s2
	addi	a0,s5,5
	call	bt_hci_cmd_send_sync
.LVL323:
	mv	s0,a0
.LVL324:
	.loc 1 508 2 is_stmt 1
	.loc 1 508 5 is_stmt 0
	bne	a0,zero,.L163
.LVL325:
.LBB327:
.LBB328:
	.loc 1 512 2 is_stmt 1
.LBB329:
.LBB330:
	.loc 3 60 2
	li	a2,6
	mv	a1,s4
	mv	a0,s3
	call	memcpy
.LVL326:
.LBE330:
.LBE329:
	.loc 1 513 2
	.loc 1 513 26 is_stmt 0
	li	a5,1
	sb	a5,9(s1)
	.loc 1 515 2 is_stmt 1
.LVL327:
.L163:
.LBE328:
.LBE327:
	.loc 1 516 1 is_stmt 0
	mv	a0,s0
	lw	ra,28(sp)
	.cfi_restore 1
	lw	s0,24(sp)
	.cfi_restore 8
	lw	s1,20(sp)
	.cfi_restore 9
	lw	s2,16(sp)
	.cfi_restore 18
	lw	s3,12(sp)
	.cfi_restore 19
	lw	s4,8(sp)
	.cfi_restore 20
.LVL328:
	lw	s5,4(sp)
	.cfi_restore 21
	addi	sp,sp,32
	.cfi_def_cfa_offset 0
	jr	ra
	.cfi_endproc
.LFE105:
	.size	set_random_address, .-set_random_address
	.section	.text.le_set_private_addr.isra.19,"ax",@progbits
	.align	1
	.type	le_set_private_addr.isra.19, @function
le_set_private_addr.isra.19:
.LFB263:
	.loc 1 653 12 is_stmt 1
	.cfi_startproc
.LVL329:
	.loc 1 655 2
	.loc 1 656 2
	.loc 1 658 2
	.loc 1 653 12 is_stmt 0
	addi	sp,sp,-32
	.cfi_def_cfa_offset 32
	.loc 1 658 8
	li	a1,6
	addi	a0,sp,8
	.loc 1 653 12
	sw	ra,28(sp)
	.cfi_offset 1, -4
	.loc 1 658 8
	call	bt_rand
.LVL330:
	.loc 1 659 2 is_stmt 1
	.loc 1 659 5 is_stmt 0
	bne	a0,zero,.L170
	.loc 1 663 2 is_stmt 1
	.loc 1 663 14 is_stmt 0
	lbu	a5,13(sp)
	.loc 1 665 9
	addi	a0,sp,8
.LVL331:
	.loc 1 663 14
	andi	a5,a5,63
	sb	a5,13(sp)
	.loc 1 665 2 is_stmt 1
	.loc 1 665 9 is_stmt 0
	call	set_random_address
.LVL332:
.L170:
	.loc 1 666 1
	lw	ra,28(sp)
	.cfi_restore 1
	addi	sp,sp,32
	.cfi_def_cfa_offset 0
	jr	ra
	.cfi_endproc
.LFE263:
	.size	le_set_private_addr.isra.19, .-le_set_private_addr.isra.19
	.section	.text.hci_id_add,"ax",@progbits
	.align	1
	.type	hci_id_add, @function
hci_id_add:
.LFB140:
	.loc 1 3102 1 is_stmt 1
	.cfi_startproc
.LVL333:
	.loc 1 3103 2
	.loc 1 3104 2
	.loc 1 3106 2
	.loc 1 3108 2
	.loc 1 3102 1 is_stmt 0
	addi	sp,sp,-32
	.cfi_def_cfa_offset 32
	sw	s1,20(sp)
	.cfi_offset 9, -12
	.loc 1 3108 8
	li	s1,8192
	.loc 1 3102 1
	sw	s3,12(sp)
	sw	s4,8(sp)
	.cfi_offset 19, -20
	.cfi_offset 20, -24
	mv	s3,a1
	mv	s4,a0
	.loc 1 3108 8
	li	a1,39
.LVL334:
	addi	a0,s1,39
.LVL335:
	.loc 1 3102 1
	sw	ra,28(sp)
	sw	s0,24(sp)
	sw	s2,16(sp)
	.cfi_offset 1, -4
	.cfi_offset 8, -8
	.cfi_offset 18, -16
	.loc 1 3108 8
	call	bt_hci_cmd_create
.LVL336:
	.loc 1 3109 2 is_stmt 1
	.loc 1 3109 5 is_stmt 0
	beq	a0,zero,.L174
	mv	s0,a0
	.loc 1 3113 2 is_stmt 1
	.loc 1 3113 7 is_stmt 0
	li	a1,39
	addi	a0,a0,8
.LVL337:
	call	net_buf_simple_add
.LVL338:
	.loc 1 3114 2
	mv	a1,s4
	.loc 1 3113 7
	mv	s2,a0
.LVL339:
	.loc 1 3114 2 is_stmt 1
	call	bt_addr_le_copy
.LVL340:
	.loc 1 3115 2
	mv	a1,s3
	li	a2,16
	addi	a0,s2,7
	call	memcpy
.LVL341:
	.loc 1 3120 2
	.loc 1 3120 8 is_stmt 0
	li	a2,16
	li	a1,0
	addi	a0,s2,23
	call	memset
.LVL342:
	.loc 1 3123 2 is_stmt 1
	.loc 1 3123 9 is_stmt 0
	mv	a1,s0
	.loc 1 3124 1
	lw	s0,24(sp)
	.cfi_remember_state
	.cfi_restore 8
.LVL343:
	lw	ra,28(sp)
	.cfi_restore 1
	lw	s2,16(sp)
	.cfi_restore 18
.LVL344:
	lw	s3,12(sp)
	.cfi_restore 19
.LVL345:
	lw	s4,8(sp)
	.cfi_restore 20
.LVL346:
	.loc 1 3123 9
	addi	a0,s1,39
	.loc 1 3124 1
	lw	s1,20(sp)
	.cfi_restore 9
	.loc 1 3123 9
	li	a2,0
	.loc 1 3124 1
	addi	sp,sp,32
	.cfi_def_cfa_offset 0
	.loc 1 3123 9
	tail	bt_hci_cmd_send_sync
.LVL347:
.L174:
	.cfi_restore_state
	.loc 1 3124 1
	lw	ra,28(sp)
	.cfi_restore 1
	lw	s0,24(sp)
	.cfi_restore 8
	lw	s1,20(sp)
	.cfi_restore 9
	lw	s2,16(sp)
	.cfi_restore 18
	lw	s3,12(sp)
	.cfi_restore 19
.LVL348:
	lw	s4,8(sp)
	.cfi_restore 20
.LVL349:
	li	a0,-55
.LVL350:
	addi	sp,sp,32
	.cfi_def_cfa_offset 0
	jr	ra
	.cfi_endproc
.LFE140:
	.size	hci_id_add, .-hci_id_add
	.section	.text.keys_add_id,"ax",@progbits
	.align	1
	.type	keys_add_id, @function
keys_add_id:
.LFB142:
	.loc 1 3227 1 is_stmt 1
	.cfi_startproc
.LVL351:
	.loc 1 3228 2
	addi	a1,a0,38
.LVL352:
	addi	a0,a0,1
.LVL353:
	tail	hci_id_add
.LVL354:
	.cfi_endproc
.LFE142:
	.size	keys_add_id, .-keys_add_id
	.section	.text.addr_res_enable,"ax",@progbits
	.align	1
	.type	addr_res_enable, @function
addr_res_enable:
.LFB139:
	.loc 1 3080 1
	.cfi_startproc
.LVL355:
	.loc 1 3081 2
	.loc 1 3083 2
	.loc 1 3085 2
	.loc 1 3080 1 is_stmt 0
	addi	sp,sp,-16
	.cfi_def_cfa_offset 16
	sw	s1,4(sp)
	.cfi_offset 9, -12
	.loc 1 3085 8
	li	s1,8192
	.loc 1 3080 1
	sw	s2,0(sp)
	.loc 1 3085 8
	li	a1,1
	.cfi_offset 18, -16
	.loc 1 3080 1
	mv	s2,a0
	.loc 1 3085 8
	addi	a0,s1,45
.LVL356:
	.loc 1 3080 1
	sw	ra,12(sp)
	sw	s0,8(sp)
	.cfi_offset 1, -4
	.cfi_offset 8, -8
	.loc 1 3085 8
	call	bt_hci_cmd_create
.LVL357:
	.loc 1 3086 2 is_stmt 1
	.loc 1 3086 5 is_stmt 0
	beq	a0,zero,.L178
	mv	s0,a0
	.loc 1 3090 2 is_stmt 1
	mv	a1,s2
	addi	a0,a0,8
.LVL358:
	call	net_buf_simple_add_u8
.LVL359:
	.loc 1 3092 2
	.loc 1 3092 9 is_stmt 0
	mv	a1,s0
	.loc 1 3094 1
	lw	s0,8(sp)
	.cfi_remember_state
	.cfi_restore 8
.LVL360:
	lw	ra,12(sp)
	.cfi_restore 1
	lw	s2,0(sp)
	.cfi_restore 18
	.loc 1 3092 9
	addi	a0,s1,45
	.loc 1 3094 1
	lw	s1,4(sp)
	.cfi_restore 9
	.loc 1 3092 9
	li	a2,0
	.loc 1 3094 1
	addi	sp,sp,16
	.cfi_def_cfa_offset 0
	.loc 1 3092 9
	tail	bt_hci_cmd_send_sync
.LVL361:
.L178:
	.cfi_restore_state
	.loc 1 3094 1
	lw	ra,12(sp)
	.cfi_restore 1
	lw	s0,8(sp)
	.cfi_restore 8
	lw	s1,4(sp)
	.cfi_restore 9
	lw	s2,0(sp)
	.cfi_restore 18
	li	a0,-55
.LVL362:
	addi	sp,sp,16
	.cfi_def_cfa_offset 0
	jr	ra
	.cfi_endproc
.LFE139:
	.size	addr_res_enable, .-addr_res_enable
	.section	.text.set_advertise_enable,"ax",@progbits
	.align	1
	.type	set_advertise_enable, @function
set_advertise_enable:
.LFB104:
	.loc 1 457 1 is_stmt 1
	.cfi_startproc
.LVL363:
	.loc 1 458 2
	.loc 1 459 2
	.loc 1 460 2
	.loc 1 462 2
	.loc 1 457 1 is_stmt 0
	addi	sp,sp,-32
	.cfi_def_cfa_offset 32
	sw	s1,20(sp)
	.cfi_offset 9, -12
	mv	s1,a0
	.loc 1 462 8
	li	a0,8192
.LVL364:
	li	a1,1
	addi	a0,a0,10
	.loc 1 457 1
	sw	ra,28(sp)
	sw	s0,24(sp)
	.cfi_offset 1, -4
	.cfi_offset 8, -8
	.loc 1 462 8
	call	bt_hci_cmd_create
.LVL365:
	.loc 1 463 2 is_stmt 1
	.loc 1 463 5 is_stmt 0
	beq	a0,zero,.L184
	mv	s0,a0
	.loc 1 467 2 is_stmt 1
	.loc 1 468 3 is_stmt 0
	li	a1,1
	addi	a0,a0,8
.LVL366:
	.loc 1 467 5
	bne	s1,zero,.L186
	.loc 1 470 3 is_stmt 1
	li	a1,0
.L186:
	call	net_buf_simple_add_u8
.LVL367:
	.loc 1 473 2
.LBB331:
.LBB332:
	.loc 1 142 2
	.loc 1 142 16 is_stmt 0
	lui	a5,%hi(.LANCHOR2+108)
	addi	a5,a5,%lo(.LANCHOR2+108)
	sw	a5,4(sp)
	.loc 1 143 2 is_stmt 1
.LBE332:
.LBE331:
	.loc 1 474 13 is_stmt 0
	mv	a0,s0
.LBB334:
.LBB333:
	.loc 1 143 13
	li	a5,6
	sw	a5,8(sp)
	.loc 1 144 2 is_stmt 1
	.loc 1 144 13 is_stmt 0
	sb	s1,12(sp)
.LVL368:
.LBE333:
.LBE334:
	.loc 1 474 2 is_stmt 1
	.loc 1 474 13 is_stmt 0
	call	net_buf_id
.LVL369:
	.loc 1 474 38
	li	a5,12
	mul	a0,a0,a5
	lui	a5,%hi(.LANCHOR8)
	addi	a5,a5,%lo(.LANCHOR8)
	addi	a4,sp,4
	.loc 1 476 8
	li	a2,0
	mv	a1,s0
	.loc 1 474 38
	add	a5,a5,a0
	.loc 1 476 8
	li	a0,8192
	.loc 1 474 38
	sw	a4,4(a5)
	.loc 1 476 2 is_stmt 1
	.loc 1 476 8 is_stmt 0
	addi	a0,a0,10
	call	bt_hci_cmd_send_sync
.LVL370:
	.loc 1 477 2 is_stmt 1
.L180:
	.loc 1 482 1 is_stmt 0
	lw	ra,28(sp)
	.cfi_remember_state
	.cfi_restore 1
	lw	s0,24(sp)
	.cfi_restore 8
	lw	s1,20(sp)
	.cfi_restore 9
	addi	sp,sp,32
	.cfi_def_cfa_offset 0
	jr	ra
.LVL371:
.L184:
	.cfi_restore_state
	.loc 1 464 10
	li	a0,-55
.LVL372:
	j	.L180
	.cfi_endproc
.LFE104:
	.size	set_advertise_enable, .-set_advertise_enable
	.section	.text.hci_disconn_complete,"ax",@progbits
	.align	1
	.type	hci_disconn_complete, @function
hci_disconn_complete:
.LFB116:
	.loc 1 1021 1 is_stmt 1
	.cfi_startproc
.LVL373:
	.loc 1 1022 2
	.loc 1 1021 1 is_stmt 0
	addi	sp,sp,-32
	.cfi_def_cfa_offset 32
	sw	ra,28(sp)
	sw	s0,24(sp)
	sw	s1,20(sp)
	.cfi_offset 1, -4
	.cfi_offset 8, -8
	.cfi_offset 9, -12
	.loc 1 1022 38
	lw	s1,8(a0)
.LVL374:
	.loc 1 1023 2 is_stmt 1
	.loc 1 1024 2
	.loc 1 1027 21
	.loc 1 1029 2
	.loc 1 1029 5 is_stmt 0
	lbu	a5,0(s1)
	bne	a5,zero,.L187
	.loc 1 1023 8
	lbu	a1,2(s1)
	lbu	a5,1(s1)
	slli	a1,a1,8
	or	a1,a1,a5
	.loc 1 1033 2 is_stmt 1
	.loc 1 1033 9 is_stmt 0
	mv	a0,a1
.LVL375:
	sw	a1,12(sp)
	call	bt_conn_lookup_handle
.LVL376:
	mv	s0,a0
.LVL377:
	.loc 1 1034 2 is_stmt 1
	.loc 1 1034 5 is_stmt 0
	lw	a1,12(sp)
	bne	a0,zero,.L190
	.loc 1 1035 3 is_stmt 1
	lui	a0,%hi(.LC6)
	addi	a0,a0,%lo(.LC6)
	call	printf
.LVL378:
	.loc 1 1036 3
.L191:
	.loc 1 1085 2
	.loc 1 1085 6 is_stmt 0
	lui	s0,%hi(.LANCHOR2+108)
.LVL379:
	addi	s0,s0,%lo(.LANCHOR2+108)
	li	a1,9
	mv	a0,s0
	call	atomic_test_bit
.LVL380:
	.loc 1 1085 5
	beq	a0,zero,.L187
.LVL381:
.LBB337:
.LBB338:
	.loc 1 1086 7
	li	a1,6
	mv	a0,s0
	call	atomic_test_bit
.LVL382:
	.loc 1 1085 61
	bne	a0,zero,.L187
	.loc 1 1087 3 is_stmt 1
	.loc 1 1091 3
.LBE338:
.LBE337:
	.loc 1 1093 1 is_stmt 0
	lw	s0,24(sp)
	.cfi_remember_state
	.cfi_restore 8
	lw	ra,28(sp)
	.cfi_restore 1
	lw	s1,20(sp)
	.cfi_restore 9
.LVL383:
.LBB341:
.LBB339:
	.loc 1 1091 3
	li	a0,1
.LBE339:
.LBE341:
	.loc 1 1093 1
	addi	sp,sp,32
	.cfi_def_cfa_offset 0
.LBB342:
.LBB340:
	.loc 1 1091 3
	tail	set_advertise_enable
.LVL384:
.L190:
	.cfi_restore_state
.LBE340:
.LBE342:
	.loc 1 1039 2 is_stmt 1
	.loc 1 1039 17 is_stmt 0
	lbu	a5,3(s1)
	.loc 1 1049 2
	li	a1,0
	.loc 1 1039 12
	sb	a5,12(a0)
	.loc 1 1049 2 is_stmt 1
	call	bt_conn_set_state
.LVL385:
	.loc 1 1050 2
	.loc 1 1052 5 is_stmt 0
	lbu	a4,2(s0)
	.loc 1 1050 15
	sh	zero,0(s0)
	.loc 1 1052 2 is_stmt 1
	.loc 1 1052 5 is_stmt 0
	li	a5,1
	.loc 1 1067 3
	mv	a0,s0
	.loc 1 1052 5
	beq	a4,a5,.L192
	.loc 1 1067 3 is_stmt 1
	.loc 1 1093 1 is_stmt 0
	lw	s0,24(sp)
	.cfi_remember_state
	.cfi_restore 8
.LVL386:
	lw	ra,28(sp)
	.cfi_restore 1
	lw	s1,20(sp)
	.cfi_restore 9
.LVL387:
	addi	sp,sp,32
	.cfi_def_cfa_offset 0
	.loc 1 1067 3
	tail	bt_conn_unref
.LVL388:
.L192:
	.cfi_restore_state
	.loc 1 1078 2 is_stmt 1
	call	bt_conn_unref
.LVL389:
	.loc 1 1081 2
	addi	a0,s0,72
	call	atomic_clear
.LVL390:
	j	.L191
.LVL391:
.L187:
	.loc 1 1093 1 is_stmt 0
	lw	ra,28(sp)
	.cfi_restore 1
	lw	s0,24(sp)
	.cfi_restore 8
	lw	s1,20(sp)
	.cfi_restore 9
.LVL392:
	addi	sp,sp,32
	.cfi_def_cfa_offset 0
	jr	ra
	.cfi_endproc
.LFE116:
	.size	hci_disconn_complete, .-hci_disconn_complete
	.section	.text.set_ad,"ax",@progbits
	.align	1
	.type	set_ad, @function
set_ad:
.LFB200:
	.loc 1 5673 1 is_stmt 1
	.cfi_startproc
.LVL393:
	.loc 1 5674 2
	.loc 1 5675 2
	.loc 1 5676 2
	.loc 1 5678 2
	.loc 1 5673 1 is_stmt 0
	addi	sp,sp,-48
	.cfi_def_cfa_offset 48
	sw	s0,40(sp)
	.cfi_offset 8, -8
	mv	s0,a1
	.loc 1 5678 8
	li	a1,32
.LVL394:
	.loc 1 5673 1
	sw	s2,32(sp)
	sw	s3,28(sp)
	sw	ra,44(sp)
	sw	s1,36(sp)
	sw	s4,24(sp)
	sw	s5,20(sp)
	sw	s6,16(sp)
	sw	s7,12(sp)
	sw	s8,8(sp)
	sw	s9,4(sp)
	.cfi_offset 18, -16
	.cfi_offset 19, -20
	.cfi_offset 1, -4
	.cfi_offset 9, -12
	.cfi_offset 20, -24
	.cfi_offset 21, -28
	.cfi_offset 22, -32
	.cfi_offset 23, -36
	.cfi_offset 24, -40
	.cfi_offset 25, -44
	.loc 1 5673 1
	mv	s3,a0
	mv	s2,a2
	.loc 1 5678 8
	call	bt_hci_cmd_create
.LVL395:
	.loc 1 5679 2 is_stmt 1
	.loc 1 5679 5 is_stmt 0
	beq	a0,zero,.L206
	.loc 1 5683 13
	li	a1,32
	mv	s6,a0
	.loc 1 5683 2 is_stmt 1
	.loc 1 5683 13 is_stmt 0
	addi	a0,a0,8
.LVL396:
	call	net_buf_simple_add
.LVL397:
	.loc 1 5685 8
	li	a2,32
	li	a1,0
	slli	s2,s2,3
.LVL398:
	.loc 1 5683 13
	mv	s1,a0
.LVL399:
	.loc 1 5685 2 is_stmt 1
	add	s4,s0,s2
	.loc 1 5685 8 is_stmt 0
	call	memset
.LVL400:
	.loc 1 5687 2 is_stmt 1
.LBB343:
.LBB344:
	.loc 1 5695 7 is_stmt 0
	li	s8,29
	.loc 1 5697 8
	li	s9,9
.LVL401:
.L200:
.LBE344:
.LBE343:
	.loc 1 5687 2 discriminator 1
	bne	s0,s4,.L205
	.loc 1 5714 2 is_stmt 1
	.loc 1 5715 1 is_stmt 0
	lw	s0,40(sp)
	.cfi_remember_state
	.cfi_restore 8
	lw	ra,44(sp)
	.cfi_restore 1
	lw	s1,36(sp)
	.cfi_restore 9
.LVL402:
	lw	s2,32(sp)
	.cfi_restore 18
	lw	s4,24(sp)
	.cfi_restore 20
	lw	s5,20(sp)
	.cfi_restore 21
	lw	s7,12(sp)
	.cfi_restore 23
	lw	s8,8(sp)
	.cfi_restore 24
	lw	s9,4(sp)
	.cfi_restore 25
	.loc 1 5714 9
	mv	a1,s6
	mv	a0,s3
	.loc 1 5715 1
	lw	s6,16(sp)
	.cfi_restore 22
.LVL403:
	lw	s3,28(sp)
	.cfi_restore 19
	.loc 1 5714 9
	li	a2,0
	.loc 1 5715 1
	addi	sp,sp,48
	.cfi_def_cfa_offset 0
	.loc 1 5714 9
	tail	bt_hci_cmd_send_sync
.LVL404:
.L205:
	.cfi_restore_state
.LBB348:
	.loc 1 5688 3 is_stmt 1
	.loc 1 5690 3
	lw	s5,0(s0)
	.loc 1 5690 10 is_stmt 0
	li	s7,0
.LVL405:
.L201:
	.loc 1 5690 3 discriminator 1
	lw	a5,4(s0)
	bgtu	a5,s7,.L204
	addi	s0,s0,8
	j	.L200
.L204:
.LBB345:
	.loc 1 5691 4 is_stmt 1
	.loc 1 5691 8 is_stmt 0
	lbu	a2,1(s5)
.LVL406:
	.loc 1 5692 4 is_stmt 1
	.loc 1 5695 16 is_stmt 0
	lbu	a5,0(s1)
	.loc 1 5692 9
	lbu	a4,0(s5)
.LVL407:
	.loc 1 5695 4 is_stmt 1
	.loc 1 5695 22 is_stmt 0
	add	a3,a5,a2
	.loc 1 5695 7
	ble	a3,s8,.L202
	.loc 1 5696 5 is_stmt 1
	.loc 1 5696 9 is_stmt 0
	sub	a2,s8,a5
.LVL408:
	.loc 1 5697 5 is_stmt 1
	.loc 1 5697 8 is_stmt 0
	bne	a4,s9,.L203
	.loc 1 5697 22 discriminator 1
	bne	a2,zero,.L207
.L203:
	.loc 1 5698 6 is_stmt 1
	mv	a0,s6
	call	net_buf_unref
.LVL409:
	.loc 1 5699 6
	lui	a0,%hi(.LC12)
	addi	a0,a0,%lo(.LC12)
	call	printf
.LVL410:
	.loc 1 5700 6
	.loc 1 5700 13 is_stmt 0
	li	a0,-22
.LVL411:
.L198:
.LBE345:
.LBE348:
	.loc 1 5715 1
	lw	ra,44(sp)
	.cfi_remember_state
	.cfi_restore 1
	lw	s0,40(sp)
	.cfi_restore 8
	lw	s1,36(sp)
	.cfi_restore 9
	lw	s2,32(sp)
	.cfi_restore 18
	lw	s3,28(sp)
	.cfi_restore 19
	lw	s4,24(sp)
	.cfi_restore 20
	lw	s5,20(sp)
	.cfi_restore 21
	lw	s6,16(sp)
	.cfi_restore 22
	lw	s7,12(sp)
	.cfi_restore 23
	lw	s8,8(sp)
	.cfi_restore 24
	lw	s9,4(sp)
	.cfi_restore 25
	addi	sp,sp,48
	.cfi_def_cfa_offset 0
	jr	ra
.LVL412:
.L207:
	.cfi_restore_state
.LBB349:
.LBB346:
	.loc 1 5702 10
	li	a4,8
.LVL413:
.L202:
	.loc 1 5705 4 is_stmt 1 discriminator 2
	.loc 1 5705 42 is_stmt 0 discriminator 2
	andi	s2,a2,0xff
	.loc 1 5705 36 discriminator 2
	add	a3,s1,a5
	.loc 1 5705 42 discriminator 2
	addi	a1,s2,1
	.loc 1 5706 32 discriminator 2
	addi	a0,a5,2
	.loc 1 5705 32 discriminator 2
	addi	a5,a5,1
	.loc 1 5705 36 discriminator 2
	sb	a1,1(a3)
	.loc 1 5706 4 is_stmt 1 discriminator 2
	.loc 1 5706 32 is_stmt 0 discriminator 2
	andi	a0,a0,0xff
	andi	a5,a5,0xff
	sb	a0,0(s1)
	.loc 1 5706 36 discriminator 2
	add	a5,s1,a5
	sb	a4,1(a5)
	.loc 1 5708 4 is_stmt 1 discriminator 2
	lw	a1,4(s5)
	.loc 1 5708 11 is_stmt 0 discriminator 2
	addi	a0,a0,1
	.loc 1 5708 4 discriminator 2
	add	a0,s1,a0
	call	memcpy
.LVL414:
	.loc 1 5710 4 is_stmt 1 discriminator 2
	.loc 1 5710 18 is_stmt 0 discriminator 2
	lbu	a5,0(s1)
.LBE346:
	.loc 1 5690 31 discriminator 2
	addi	s7,s7,1
.LVL415:
	addi	s5,s5,8
.LBB347:
	.loc 1 5710 18 discriminator 2
	add	s2,s2,a5
	sb	s2,0(s1)
	j	.L201
.LVL416:
.L206:
.LBE347:
.LBE349:
	.loc 1 5680 10
	li	a0,-55
.LVL417:
	j	.L198
	.cfi_endproc
.LFE200:
	.size	set_ad, .-set_ad
	.section	.text.le_adv_update,"ax",@progbits
	.align	1
	.type	le_adv_update, @function
le_adv_update:
.LFB214:
	.loc 1 6099 1 is_stmt 1
	.cfi_startproc
.LVL418:
	.loc 1 6100 2
	.loc 1 6099 1 is_stmt 0
	addi	sp,sp,-64
	.cfi_def_cfa_offset 64
	.loc 1 6104 12
	sw	a0,32(sp)
	.loc 1 6107 8
	li	a0,8192
.LVL419:
	.loc 1 6099 1
	sw	s1,52(sp)
	.loc 1 6105 11
	sw	a1,36(sp)
	.cfi_offset 9, -12
	.loc 1 6099 1
	mv	s1,a2
	.loc 1 6107 8
	addi	a1,sp,32
.LVL420:
	li	a2,1
.LVL421:
	addi	a0,a0,8
	.loc 1 6099 1
	sw	s0,56(sp)
	sw	s2,48(sp)
	sw	ra,60(sp)
	.cfi_offset 8, -8
	.cfi_offset 18, -16
	.cfi_offset 1, -4
	.loc 1 6099 1
	sw	a3,12(sp)
	mv	s2,a4
	sw	a5,8(sp)
	.loc 1 6100 15
	sw	zero,40(sp)
	sw	zero,44(sp)
	.loc 1 6101 2 is_stmt 1
	.loc 1 6102 2
	.loc 1 6104 2
	.loc 1 6105 2
	.loc 1 6107 2
	.loc 1 6107 8 is_stmt 0
	call	set_ad
.LVL422:
	mv	s0,a0
.LVL423:
	.loc 1 6108 2 is_stmt 1
	.loc 1 6108 5 is_stmt 0
	bne	a0,zero,.L209
	.loc 1 6112 2 is_stmt 1
	.loc 1 6113 11 is_stmt 0
	lw	a3,12(sp)
	.loc 1 6115 5
	lw	a5,8(sp)
	.loc 1 6112 12
	sw	s1,32(sp)
	.loc 1 6113 2 is_stmt 1
	.loc 1 6113 11 is_stmt 0
	sw	a3,36(sp)
	.loc 1 6115 2 is_stmt 1
	.loc 1 6115 5 is_stmt 0
	beq	a5,zero,.L211
.LBB354:
	.loc 1 6116 3 is_stmt 1
	.loc 1 6118 3
	.loc 1 6118 6 is_stmt 0
	beq	s1,zero,.L212
.LBB355:
.LBB356:
	.loc 1 6086 9
	li	a2,0
	.loc 1 6087 6
	li	a4,1
.L213:
.LVL424:
	.loc 1 6086 2
	bne	a2,a3,.L214
.LVL425:
.L212:
.LBE356:
.LBE355:
	.loc 1 6125 3 is_stmt 1
.LBE354:
	.loc 1 5772 2
.LBB359:
	.loc 1 6126 3
	.loc 1 6126 57 is_stmt 0
	lui	s1,%hi(.LANCHOR2+184)
.LVL426:
	addi	s1,s1,%lo(.LANCHOR2+184)
	mv	a0,s1
	call	strlen
.LVL427:
	.loc 1 6126 8
	li	a5,9
	sb	a5,24(sp)
	.loc 1 6130 13
	addi	a5,sp,24
	sw	a5,40(sp)
	.loc 1 6131 12
	li	a5,1
	.loc 1 6126 8
	sb	a0,25(sp)
	sw	s1,28(sp)
	.loc 1 6130 3 is_stmt 1
	.loc 1 6131 3
	.loc 1 6131 12 is_stmt 0
	sw	a5,44(sp)
.LVL428:
.L211:
.LBE359:
	.loc 1 6145 2 is_stmt 1
	.loc 1 6145 5 is_stmt 0
	lw	a5,32(sp)
	bne	a5,zero,.L215
	.loc 1 6145 16 discriminator 1
	lw	a5,40(sp)
	bne	a5,zero,.L215
	.loc 1 6145 29 discriminator 2
	beq	s2,zero,.L209
.L215:
	.loc 1 6146 3 is_stmt 1
	.loc 1 6146 9 is_stmt 0
	li	a0,8192
	li	a2,2
	addi	a1,sp,32
	addi	a0,a0,9
	call	set_ad
.LVL429:
	mv	s0,a0
.LVL430:
	.loc 1 6147 3 is_stmt 1
.L209:
	.loc 1 6153 1 is_stmt 0
	mv	a0,s0
	lw	ra,60(sp)
	.cfi_remember_state
	.cfi_restore 1
	lw	s0,56(sp)
	.cfi_restore 8
	lw	s1,52(sp)
	.cfi_restore 9
	lw	s2,48(sp)
	.cfi_restore 18
	addi	sp,sp,64
	.cfi_def_cfa_offset 0
.LVL431:
	jr	ra
.LVL432:
.L214:
	.cfi_restore_state
.LBB360:
.LBB358:
.LBB357:
	.loc 1 6087 3 is_stmt 1
	.loc 1 6087 12 is_stmt 0
	slli	a5,a2,3
	add	a5,s1,a5
	.loc 1 6087 26
	lbu	a5,0(a5)
	addi	a5,a5,-8
	.loc 1 6087 6
	andi	a5,a5,0xff
	bleu	a5,a4,.L216
	.loc 1 6086 27
	addi	a2,a2,1
.LVL433:
	j	.L213
.L216:
.LBE357:
.LBE358:
	.loc 1 6121 12
	li	s0,-22
.LVL434:
	j	.L209
.LBE360:
	.cfi_endproc
.LFE214:
	.size	le_adv_update, .-le_adv_update
	.section	.text.bt_lookup_id_addr,"ax",@progbits
	.align	1
	.globl	bt_lookup_id_addr
	.type	bt_lookup_id_addr, @function
bt_lookup_id_addr:
.LFB103:
	.loc 1 439 1 is_stmt 1
	.cfi_startproc
.LVL435:
	.loc 1 440 2
.LBB361:
	.loc 1 441 3
	.loc 1 443 3
.LBE361:
	.loc 1 439 1 is_stmt 0
	addi	sp,sp,-16
	.cfi_def_cfa_offset 16
	sw	s0,8(sp)
	sw	ra,12(sp)
	.cfi_offset 8, -8
	.cfi_offset 1, -4
	.loc 1 439 1
	mv	s0,a1
.LBB362:
	.loc 1 443 10
	call	bt_keys_find_irk
.LVL436:
	.loc 1 444 3 is_stmt 1
	.loc 1 444 6 is_stmt 0
	beq	a0,zero,.L228
	.loc 1 447 32 is_stmt 1
	.loc 1 448 4
	.loc 1 448 11 is_stmt 0
	addi	s0,a0,1
.LVL437:
.L228:
.LBE362:
	.loc 1 453 1
	mv	a0,s0
.LVL438:
	lw	ra,12(sp)
	.cfi_restore 1
	lw	s0,8(sp)
	.cfi_restore 8
	addi	sp,sp,16
	.cfi_def_cfa_offset 0
	jr	ra
	.cfi_endproc
.LFE103:
	.size	bt_lookup_id_addr, .-bt_lookup_id_addr
	.section	.text.bt_addr_from_str,"ax",@progbits
	.align	1
	.globl	bt_addr_from_str
	.type	bt_addr_from_str, @function
bt_addr_from_str:
.LFB106:
	.loc 1 519 1 is_stmt 1
	.cfi_startproc
.LVL439:
	.loc 1 520 2
	.loc 1 521 2
	.loc 1 523 2
	.loc 1 519 1 is_stmt 0
	addi	sp,sp,-48
	.cfi_def_cfa_offset 48
	sw	s0,40(sp)
	sw	s4,24(sp)
	sw	ra,44(sp)
	sw	s1,36(sp)
	sw	s2,32(sp)
	sw	s3,28(sp)
	sw	s5,20(sp)
	sw	s6,16(sp)
	.cfi_offset 8, -8
	.cfi_offset 20, -24
	.cfi_offset 1, -4
	.cfi_offset 9, -12
	.cfi_offset 18, -16
	.cfi_offset 19, -20
	.cfi_offset 21, -28
	.cfi_offset 22, -32
	.loc 1 519 1
	mv	s0,a0
	mv	s4,a1
	.loc 1 523 6
	call	strlen
.LVL440:
	.loc 1 523 5
	li	a5,17
	bne	a0,a5,.L243
	li	s2,1
.LBB365:
.LBB366:
	.loc 1 527 9
	li	s3,5
	sub	s2,s2,s0
	.loc 1 528 11
	li	s6,3
	.loc 1 530 13
	li	s5,58
.LVL441:
.L235:
	.loc 1 527 21
	lbu	a5,0(s0)
	add	a4,s0,s2
.LVL442:
	.loc 1 527 2
	bne	a5,zero,.L242
	.loc 1 544 9
	li	a0,0
.LVL443:
.L233:
.LBE366:
.LBE365:
	.loc 1 545 1
	lw	ra,44(sp)
	.cfi_remember_state
	.cfi_restore 1
	lw	s0,40(sp)
	.cfi_restore 8
	lw	s1,36(sp)
	.cfi_restore 9
	lw	s2,32(sp)
	.cfi_restore 18
	lw	s3,28(sp)
	.cfi_restore 19
	lw	s4,24(sp)
	.cfi_restore 20
.LVL444:
	lw	s5,20(sp)
	.cfi_restore 21
	lw	s6,16(sp)
	.cfi_restore 22
	addi	sp,sp,48
	.cfi_def_cfa_offset 0
	jr	ra
.LVL445:
.L242:
	.cfi_restore_state
.LBB369:
.LBB367:
	.loc 1 528 3 is_stmt 1
	.loc 1 528 11 is_stmt 0
	rem	a4,a4,s6
.LVL446:
	.loc 1 528 6
	bne	a4,zero,.L236
	.loc 1 528 16
	beq	a5,s5,.L237
.LVL447:
.L243:
.LBE367:
.LBE369:
	.loc 1 524 10
	li	a0,-22
	j	.L233
.LVL448:
.L236:
.LBB370:
.LBB368:
	.loc 1 530 10 is_stmt 1
	.loc 1 530 13 is_stmt 0
	bne	a5,s5,.L239
.L237:
	.loc 1 531 4 is_stmt 1
	.loc 1 531 5 is_stmt 0
	addi	s3,s3,-1
.LVL449:
	.loc 1 532 4 is_stmt 1
.L240:
	.loc 1 527 38 is_stmt 0
	addi	s0,s0,1
.LVL450:
	j	.L235
.LVL451:
.L239:
	.loc 1 535 3 is_stmt 1
	.loc 1 535 16 is_stmt 0
	add	s1,s4,s3
	.loc 1 535 31
	lbu	a5,0(s1)
	.loc 1 537 7
	addi	a1,sp,15
	.loc 1 535 31
	slli	a5,a5,4
	.loc 1 535 16
	sb	a5,0(s1)
	.loc 1 537 3 is_stmt 1
	.loc 1 537 7 is_stmt 0
	lbu	a0,0(s0)
	call	char2hex
.LVL452:
	.loc 1 537 6
	blt	a0,zero,.L243
	.loc 1 541 3 is_stmt 1
	.loc 1 541 16 is_stmt 0
	lbu	a5,0(s1)
	lbu	a4,15(sp)
	or	a5,a5,a4
	sb	a5,0(s1)
	j	.L240
.LBE368:
.LBE370:
	.cfi_endproc
.LFE106:
	.size	bt_addr_from_str, .-bt_addr_from_str
	.section	.text.bt_addr_le_from_str,"ax",@progbits
	.align	1
	.globl	bt_addr_le_from_str
	.type	bt_addr_le_from_str, @function
bt_addr_le_from_str:
.LFB107:
	.loc 1 548 1 is_stmt 1
	.cfi_startproc
.LVL453:
	.loc 1 549 2
	.loc 1 551 2
	.loc 1 548 1 is_stmt 0
	addi	sp,sp,-16
	.cfi_def_cfa_offset 16
	sw	s0,8(sp)
	.cfi_offset 8, -8
	mv	s0,a1
	.loc 1 551 8
	addi	a1,a2,1
.LVL454:
	.loc 1 548 1
	sw	s1,4(sp)
	sw	ra,12(sp)
	.cfi_offset 9, -12
	.cfi_offset 1, -4
	.loc 1 548 1
	mv	s1,a2
	.loc 1 551 8
	call	bt_addr_from_str
.LVL455:
	.loc 1 552 2 is_stmt 1
	.loc 1 552 5 is_stmt 0
	blt	a0,zero,.L245
	.loc 1 556 2 is_stmt 1
	.loc 1 556 7 is_stmt 0
	lui	a1,%hi(.LC13)
	addi	a1,a1,%lo(.LC13)
	mv	a0,s0
.LVL456:
	call	strcmp
.LVL457:
	.loc 1 556 5
	bne	a0,zero,.L247
.L248:
	.loc 1 557 3 is_stmt 1
	.loc 1 557 14 is_stmt 0
	sb	zero,0(s1)
.L269:
	.loc 1 568 9
	li	a0,0
.L245:
	.loc 1 569 1
	lw	ra,12(sp)
	.cfi_remember_state
	.cfi_restore 1
	lw	s0,8(sp)
	.cfi_restore 8
.LVL458:
	lw	s1,4(sp)
	.cfi_restore 9
.LVL459:
	addi	sp,sp,16
	.cfi_def_cfa_offset 0
	jr	ra
.LVL460:
.L247:
	.cfi_restore_state
	.loc 1 556 34 discriminator 1
	lui	a1,%hi(.LC14)
	addi	a1,a1,%lo(.LC14)
	mv	a0,s0
	call	strcmp
.LVL461:
	.loc 1 556 30 discriminator 1
	beq	a0,zero,.L248
	.loc 1 558 9 is_stmt 1
	.loc 1 558 14 is_stmt 0
	lui	a1,%hi(.LC15)
	addi	a1,a1,%lo(.LC15)
	mv	a0,s0
	call	strcmp
.LVL462:
	.loc 1 558 12
	bne	a0,zero,.L249
.L250:
	.loc 1 559 3 is_stmt 1
	.loc 1 559 14 is_stmt 0
	li	a5,1
.L268:
	.loc 1 563 14
	sb	a5,0(s1)
	j	.L269
.L249:
	.loc 1 558 41 discriminator 1
	lui	a1,%hi(.LC16)
	addi	a1,a1,%lo(.LC16)
	mv	a0,s0
	call	strcmp
.LVL463:
	.loc 1 558 37 discriminator 1
	beq	a0,zero,.L250
	.loc 1 560 9 is_stmt 1
	.loc 1 560 14 is_stmt 0
	lui	a1,%hi(.LC17)
	addi	a1,a1,%lo(.LC17)
	mv	a0,s0
	call	strcmp
.LVL464:
	.loc 1 560 12
	bne	a0,zero,.L251
.L252:
	.loc 1 561 3 is_stmt 1
	.loc 1 561 14 is_stmt 0
	li	a5,2
	j	.L268
.L251:
	.loc 1 560 44 discriminator 1
	lui	a1,%hi(.LC18)
	addi	a1,a1,%lo(.LC18)
	mv	a0,s0
	call	strcmp
.LVL465:
	.loc 1 560 40 discriminator 1
	beq	a0,zero,.L252
	.loc 1 562 9 is_stmt 1
	.loc 1 562 14 is_stmt 0
	lui	a1,%hi(.LC19)
	addi	a1,a1,%lo(.LC19)
	mv	a0,s0
	call	strcmp
.LVL466:
	.loc 1 562 12
	bne	a0,zero,.L253
.L254:
	.loc 1 563 3 is_stmt 1
	.loc 1 563 14 is_stmt 0
	li	a5,3
	j	.L268
.L253:
	.loc 1 562 44 discriminator 1
	lui	a1,%hi(.LC20)
	addi	a1,a1,%lo(.LC20)
	mv	a0,s0
	call	strcmp
.LVL467:
	.loc 1 562 40 discriminator 1
	beq	a0,zero,.L254
	.loc 1 565 10
	li	a0,-22
	j	.L245
	.cfi_endproc
.LFE107:
	.size	bt_addr_le_from_str, .-bt_addr_le_from_str
	.section	.text.bt_le_auto_conn,"ax",@progbits
	.align	1
	.globl	bt_le_auto_conn
	.type	bt_le_auto_conn, @function
bt_le_auto_conn:
.LFB113:
	.loc 1 827 1 is_stmt 1
	.cfi_startproc
.LVL468:
	.loc 1 828 2
	.loc 1 829 2
	.loc 1 830 2
	.loc 1 831 2
	.loc 1 832 2
	.loc 1 834 2
	.loc 1 827 1 is_stmt 0
	addi	sp,sp,-48
	.cfi_def_cfa_offset 48
	sw	s0,40(sp)
	.cfi_offset 8, -8
	.loc 1 834 6
	lui	s0,%hi(.LANCHOR2)
	.loc 1 827 1
	sw	s2,32(sp)
	.cfi_offset 18, -16
	mv	s2,a0
	.loc 1 834 6
	addi	a0,s0,%lo(.LANCHOR2)
.LVL469:
	li	a1,10
	addi	a0,a0,108
	.loc 1 827 1
	sw	ra,44(sp)
	sw	s1,36(sp)
	sw	s3,28(sp)
	sw	s4,24(sp)
	.cfi_offset 1, -4
	.cfi_offset 9, -12
	.cfi_offset 19, -20
	.cfi_offset 20, -24
	.loc 1 834 6
	call	atomic_test_bit
.LVL470:
	addi	s0,s0,%lo(.LANCHOR2)
	.loc 1 834 5
	bne	a0,zero,.L271
.L275:
	.loc 1 845 3 is_stmt 1
.LBB371:
	.loc 1 856 4
.LVL471:
	.loc 1 862 4
	.loc 1 862 7 is_stmt 0
	lbu	a4,0(s0)
	li	a5,1
	bne	a4,a5,.L273
	.loc 1 863 5 is_stmt 1
	.loc 1 863 11 is_stmt 0
	addi	a0,s0,1
	call	set_random_address
.LVL472:
	.loc 1 864 5 is_stmt 1
	.loc 1 864 8 is_stmt 0
	bne	a0,zero,.L270
.LVL473:
.L273:
	.loc 1 869 4 is_stmt 1
.LBE371:
	.loc 1 878 8 is_stmt 0
	li	s3,8192
	li	a1,25
	addi	a0,s3,13
.LBB372:
	.loc 1 869 18
	lbu	s4,0(s0)
.LVL474:
.LBE372:
	.loc 1 878 2 is_stmt 1
	.loc 1 878 8 is_stmt 0
	call	bt_hci_cmd_create
.LVL475:
	mv	s1,a0
.LVL476:
	.loc 1 879 2 is_stmt 1
	.loc 1 880 10 is_stmt 0
	li	a0,-55
	.loc 1 879 5
	beq	s1,zero,.L270
	.loc 1 883 2 is_stmt 1
	.loc 1 883 7 is_stmt 0
	li	a1,25
	addi	a0,s1,8
	call	net_buf_simple_add
.LVL477:
	.loc 1 884 8
	li	a2,25
	li	a1,0
	.loc 1 883 7
	mv	s0,a0
.LVL478:
	.loc 1 884 2 is_stmt 1
	.loc 1 884 8 is_stmt 0
	call	memset
.LVL479:
	.loc 1 886 2 is_stmt 1
	.loc 1 890 20 is_stmt 0
	li	a5,96
	sb	a5,0(s0)
	.loc 1 886 20
	li	a4,1
	.loc 1 891 18
	li	a5,48
	.loc 1 886 20
	sb	a4,4(s0)
	.loc 1 887 2 is_stmt 1
	.loc 1 890 20 is_stmt 0
	sb	zero,1(s0)
	.loc 1 891 18
	sb	a5,2(s0)
	sb	zero,3(s0)
	.loc 1 887 20
	sb	s4,12(s0)
	.loc 1 890 2 is_stmt 1
	.loc 1 891 2
	.loc 1 893 2
	.loc 1 893 37 is_stmt 0
	lhu	a5,0(s2)
	.loc 1 899 13
	mv	a0,s1
.LBB373:
.LBB374:
	.loc 1 144 13
	sb	a4,12(sp)
.LBE374:
.LBE373:
	.loc 1 893 24
	sb	a5,13(s0)
	srli	a5,a5,8
	sb	a5,14(s0)
	.loc 1 894 2 is_stmt 1
	.loc 1 894 37 is_stmt 0
	lhu	a5,2(s2)
	.loc 1 894 24
	sb	a5,15(s0)
	srli	a5,a5,8
	sb	a5,16(s0)
	.loc 1 895 2 is_stmt 1
	.loc 1 895 32 is_stmt 0
	lhu	a5,4(s2)
	.loc 1 895 19
	sb	a5,17(s0)
	srli	a5,a5,8
	sb	a5,18(s0)
	.loc 1 896 2 is_stmt 1
	.loc 1 896 39 is_stmt 0
	lhu	a5,6(s2)
	.loc 1 896 26
	sb	a5,19(s0)
	srli	a5,a5,8
	sb	a5,20(s0)
	.loc 1 898 2 is_stmt 1
.LVL480:
.LBB376:
.LBB375:
	.loc 1 142 2
	.loc 1 142 16 is_stmt 0
	lui	a5,%hi(.LANCHOR2+108)
	addi	a5,a5,%lo(.LANCHOR2+108)
	sw	a5,4(sp)
	.loc 1 143 2 is_stmt 1
	.loc 1 143 13 is_stmt 0
	li	a5,15
	sw	a5,8(sp)
	.loc 1 144 2 is_stmt 1
.LVL481:
.LBE375:
.LBE376:
	.loc 1 899 2
	.loc 1 899 13 is_stmt 0
	call	net_buf_id
.LVL482:
	.loc 1 899 38
	li	a5,12
	mul	a0,a0,a5
	lui	a5,%hi(.LANCHOR8)
	addi	a5,a5,%lo(.LANCHOR8)
	addi	a4,sp,4
	.loc 1 901 9
	li	a2,0
	mv	a1,s1
	.loc 1 899 38
	add	a5,a5,a0
	sw	a4,4(a5)
	.loc 1 901 2 is_stmt 1
	.loc 1 901 9 is_stmt 0
	addi	a0,s3,13
	call	bt_hci_cmd_send_sync
.LVL483:
	j	.L270
.LVL484:
.L271:
	.loc 1 835 3 is_stmt 1
	.loc 1 835 9 is_stmt 0
	li	a0,0
	call	set_le_scan_enable
.LVL485:
	.loc 1 836 3 is_stmt 1
	.loc 1 836 6 is_stmt 0
	beq	a0,zero,.L275
.LVL486:
.L270:
	.loc 1 902 1
	lw	ra,44(sp)
	.cfi_restore 1
	lw	s0,40(sp)
	.cfi_restore 8
	lw	s1,36(sp)
	.cfi_restore 9
	lw	s2,32(sp)
	.cfi_restore 18
.LVL487:
	lw	s3,28(sp)
	.cfi_restore 19
	lw	s4,24(sp)
	.cfi_restore 20
	addi	sp,sp,48
	.cfi_def_cfa_offset 0
	jr	ra
	.cfi_endproc
.LFE113:
	.size	bt_le_auto_conn, .-bt_le_auto_conn
	.section	.text.bt_le_auto_conn_cancel,"ax",@progbits
	.align	1
	.globl	bt_le_auto_conn_cancel
	.type	bt_le_auto_conn_cancel, @function
bt_le_auto_conn_cancel:
.LFB114:
	.loc 1 905 1 is_stmt 1
	.cfi_startproc
	.loc 1 906 2
	.loc 1 907 2
	.loc 1 909 2
	.loc 1 905 1 is_stmt 0
	addi	sp,sp,-48
	.cfi_def_cfa_offset 48
	sw	s0,40(sp)
	.cfi_offset 8, -8
	.loc 1 909 8
	li	s0,8192
	li	a1,0
	addi	a0,s0,14
	.loc 1 905 1
	sw	ra,44(sp)
	.cfi_offset 1, -4
	.loc 1 909 8
	call	bt_hci_cmd_create
.LVL488:
.LBB377:
.LBB378:
	.loc 1 142 16
	lui	a5,%hi(.LANCHOR2+108)
	addi	a5,a5,%lo(.LANCHOR2+108)
	sw	a5,20(sp)
	.loc 1 143 13
	li	a5,15
	sw	a5,24(sp)
.LBE378:
.LBE377:
	.loc 1 909 8
	sw	a0,12(sp)
.LVL489:
	.loc 1 911 2 is_stmt 1
.LBB380:
.LBB379:
	.loc 1 142 2
	.loc 1 143 2
	.loc 1 144 2
	.loc 1 144 13 is_stmt 0
	sb	zero,28(sp)
.LVL490:
.LBE379:
.LBE380:
	.loc 1 912 2 is_stmt 1
	.loc 1 912 13 is_stmt 0
	call	net_buf_id
.LVL491:
	.loc 1 912 38
	li	a5,12
	mul	a0,a0,a5
	lui	a5,%hi(.LANCHOR8)
	.loc 1 914 9
	lw	a1,12(sp)
	.loc 1 912 38
	addi	a5,a5,%lo(.LANCHOR8)
	addi	a4,sp,20
	.loc 1 914 9
	li	a2,0
	.loc 1 912 38
	add	a5,a5,a0
	sw	a4,4(a5)
	.loc 1 914 2 is_stmt 1
	.loc 1 914 9 is_stmt 0
	addi	a0,s0,14
	call	bt_hci_cmd_send_sync
.LVL492:
	.loc 1 915 1
	lw	ra,44(sp)
	.cfi_restore 1
	lw	s0,40(sp)
	.cfi_restore 8
	addi	sp,sp,48
	.cfi_def_cfa_offset 0
.LVL493:
	jr	ra
	.cfi_endproc
.LFE114:
	.size	bt_le_auto_conn_cancel, .-bt_le_auto_conn_cancel
	.section	.text.bt_le_conn_params_valid,"ax",@progbits
	.align	1
	.globl	bt_le_conn_params_valid
	.type	bt_le_conn_params_valid, @function
bt_le_conn_params_valid:
.LFB128:
	.loc 1 1657 1 is_stmt 1
	.cfi_startproc
.LVL494:
	.loc 1 1660 2
	.loc 1 1660 11 is_stmt 0
	lhu	a4,0(a0)
	.loc 1 1660 33
	lhu	a1,2(a0)
	.loc 1 1672 9
	li	a5,0
	.loc 1 1660 5
	bgtu	a4,a1,.L283
	.loc 1 1660 48 discriminator 1
	li	a3,5
	.loc 1 1672 9 discriminator 1
	li	a5,0
	.loc 1 1660 48 discriminator 1
	bleu	a4,a3,.L283
	.loc 1 1661 30
	li	a2,4096
	addi	a4,a2,-896
	bgtu	a1,a4,.L283
	.loc 1 1665 2 is_stmt 1
	.loc 1 1665 11 is_stmt 0
	lhu	a4,4(a0)
	.loc 1 1665 5
	li	a3,499
	bgtu	a4,a3,.L283
	.loc 1 1669 2 is_stmt 1
	.loc 1 1669 11 is_stmt 0
	lhu	a3,6(a0)
	.loc 1 1669 5
	addi	a2,a2,-906
	.loc 1 1669 26
	addi	a0,a3,-10
.LVL495:
	.loc 1 1669 5
	slli	a0,a0,16
	srli	a0,a0,16
	bgtu	a0,a2,.L283
	.loc 1 1671 11 discriminator 1
	addi	a5,a4,1
	.loc 1 1671 29 discriminator 1
	mul	a5,a5,a1
	.loc 1 1670 23 discriminator 1
	slli	a3,a3,2
	.loc 1 1669 51 discriminator 1
	sgtu	a5,a3,a5
.L283:
	.loc 1 1676 1
	mv	a0,a5
	ret
	.cfi_endproc
.LFE128:
	.size	bt_le_conn_params_valid, .-bt_le_conn_params_valid
	.section	.text.bt_unpair,"ax",@progbits
	.align	1
	.globl	bt_unpair
	.type	bt_unpair, @function
bt_unpair:
.LFB135:
	.loc 1 1887 1 is_stmt 1
	.cfi_startproc
.LVL496:
	.loc 1 1888 2
	.loc 1 1889 2
	.loc 1 1891 2
	.loc 1 1891 5 is_stmt 0
	bne	a0,zero,.L297
	.loc 1 1887 1
	addi	sp,sp,-32
	.cfi_def_cfa_offset 32
	sw	s1,20(sp)
	sw	ra,28(sp)
	sw	s0,24(sp)
	sw	s2,16(sp)
	.cfi_offset 9, -12
	.cfi_offset 1, -4
	.cfi_offset 8, -8
	.cfi_offset 18, -16
	mv	s1,a1
	.loc 1 1895 2 is_stmt 1
	.loc 1 1895 5 is_stmt 0
	bne	a1,zero,.L291
.LVL497:
.L292:
	.loc 1 1896 3 is_stmt 1
.LBB387:
.LBB388:
	.loc 1 1873 2
	li	a0,0
	call	bt_conn_disconnect_all
.LVL498:
	.loc 1 1875 2
	.loc 1 1876 3
	li	a0,0
	call	bt_keys_clear_all
.LVL499:
	.loc 1 1879 2
	.loc 1 1883 2
.L309:
.LBE388:
.LBE387:
	.loc 1 1936 1 is_stmt 0
	lw	ra,28(sp)
	.cfi_remember_state
	.cfi_restore 1
	lw	s0,24(sp)
	.cfi_restore 8
	lw	s1,20(sp)
	.cfi_restore 9
.LVL500:
	lw	s2,16(sp)
	.cfi_restore 18
.LBB389:
.LBB390:
	.loc 1 1927 4
	li	a0,0
.LBE390:
.LBE389:
	.loc 1 1936 1
	addi	sp,sp,32
	.cfi_def_cfa_offset 0
	jr	ra
.LVL501:
.L291:
	.cfi_restore_state
.LBB392:
.LBB393:
	.loc 3 55 9 discriminator 1
	li	a2,7
	addi	a1,sp,8
	mv	a0,s1
.LVL502:
.LBE393:
.LBE392:
	.loc 1 1895 54 discriminator 1
	sw	zero,8(sp)
	sh	zero,12(sp)
	sb	zero,14(sp)
.LVL503:
.LBB395:
.LBB394:
	.loc 3 55 2 is_stmt 1 discriminator 1
	.loc 3 55 9 is_stmt 0 discriminator 1
	call	memcmp
.LVL504:
.LBE394:
.LBE395:
	.loc 1 1895 12 discriminator 1
	beq	a0,zero,.L292
.LVL505:
.LBB396:
.LBB391:
	.loc 1 1899 2 is_stmt 1
	.loc 1 1899 9 is_stmt 0
	mv	a1,s1
	li	a0,0
	call	bt_conn_lookup_addr_le
.LVL506:
	mv	s0,a0
.LVL507:
	.loc 1 1900 2 is_stmt 1
	.loc 1 1900 5 is_stmt 0
	bne	a0,zero,.L293
.L296:
	.loc 1 1923 4 is_stmt 1
	.loc 1 1923 11 is_stmt 0
	mv	a1,s1
	li	a0,0
	call	bt_keys_find_addr
.LVL508:
	mv	s2,a0
.LVL509:
	.loc 1 1926 3 is_stmt 1
	.loc 1 1926 6 is_stmt 0
	beq	a0,zero,.L309
.LVL510:
.L294:
	.loc 1 1927 4 is_stmt 1
	mv	a0,s2
	call	bt_keys_clear
.LVL511:
	j	.L309
.LVL512:
.L293:
	.loc 1 1905 3
	.loc 1 1905 6 is_stmt 0
	lbu	a4,2(a0)
	li	a5,1
	.loc 1 1888 18
	li	s2,0
	.loc 1 1905 6
	bne	a4,a5,.L295
	.loc 1 1906 4 is_stmt 1
	.loc 1 1906 9 is_stmt 0
	lw	s2,156(a0)
.LVL513:
	.loc 1 1907 4 is_stmt 1
	.loc 1 1907 18 is_stmt 0
	sw	zero,156(a0)
.LVL514:
.L295:
	.loc 1 1910 3 is_stmt 1
	li	a1,19
	mv	a0,s0
	call	bt_conn_disconnect
.LVL515:
	.loc 1 1911 3
	mv	a0,s0
	call	bt_conn_unref
.LVL516:
	.loc 1 1914 2
	.loc 1 1921 2
	.loc 1 1922 3
	.loc 1 1922 6 is_stmt 0
	bne	s2,zero,.L294
	j	.L296
.LVL517:
.L297:
	.cfi_def_cfa_offset 0
	.cfi_restore 1
	.cfi_restore 8
	.cfi_restore 9
	.cfi_restore 18
.LBE391:
.LBE396:
	.loc 1 1892 10
	li	a0,-22
.LVL518:
	.loc 1 1936 1
	ret
	.cfi_endproc
.LFE135:
	.size	bt_unpair, .-bt_unpair
	.section	.text.bt_id_add,"ax",@progbits
	.align	1
	.globl	bt_id_add
	.type	bt_id_add, @function
bt_id_add:
.LFB141:
	.loc 1 3127 1 is_stmt 1
	.cfi_startproc
.LVL519:
	.loc 1 3128 1
	.loc 1 3130 1
	.loc 1 3132 2
	.loc 1 3133 2
	.loc 1 3135 2
	.loc 1 3138 2
	.loc 1 3127 1 is_stmt 0
	addi	sp,sp,-48
	.cfi_def_cfa_offset 48
	sw	s0,40(sp)
	.cfi_offset 8, -8
	.loc 1 3138 16
	lui	s0,%hi(.LANCHOR2)
	addi	a5,s0,%lo(.LANCHOR2)
	.loc 1 3127 1
	sw	ra,44(sp)
	sw	s1,36(sp)
	sw	s2,32(sp)
	sw	s3,28(sp)
	sw	s4,24(sp)
	.cfi_offset 1, -4
	.cfi_offset 9, -12
	.cfi_offset 18, -16
	.cfi_offset 19, -20
	.cfi_offset 20, -24
	.loc 1 3138 16
	lbu	a4,144(a5)
	addi	s0,s0,%lo(.LANCHOR2)
	lbu	a5,145(a5)
	.loc 1 3138 5
	beq	a4,zero,.L311
	.loc 1 3138 25 discriminator 1
	bgeu	a4,a5,.L312
.L311:
	.loc 1 3139 3 is_stmt 1
	.loc 1 3139 23 is_stmt 0
	addi	a5,a5,1
	sb	a5,145(s0)
	.loc 1 3140 3 is_stmt 1
.LVL520:
.L310:
	.loc 1 3224 1 is_stmt 0
	lw	ra,44(sp)
	.cfi_remember_state
	.cfi_restore 1
	lw	s0,40(sp)
	.cfi_restore 8
	lw	s1,36(sp)
	.cfi_restore 9
	lw	s2,32(sp)
	.cfi_restore 18
	lw	s3,28(sp)
	.cfi_restore 19
	lw	s4,24(sp)
	.cfi_restore 20
	addi	sp,sp,48
	.cfi_def_cfa_offset 0
	jr	ra
.LVL521:
.L312:
	.cfi_restore_state
	mv	s1,a0
	.loc 1 3143 2 is_stmt 1
	.loc 1 3143 9 is_stmt 0
	li	a1,3
	li	a0,0
.LVL522:
	call	bt_conn_lookup_state_le
.LVL523:
	mv	s2,a0
.LVL524:
	.loc 1 3144 2 is_stmt 1
	lui	a0,%hi(.LANCHOR2+108)
.LVL525:
	addi	s3,a0,%lo(.LANCHOR2+108)
	.loc 1 3144 5 is_stmt 0
	beq	s2,zero,.L314
	.loc 1 3145 3 is_stmt 1
.LVL526:
.LBB405:
.LBB406:
	.loc 2 409 2
	.loc 2 411 2
	li	a1,131072
	addi	a0,a0,%lo(.LANCHOR2+108)
	call	atomic_or
.LVL527:
.LBE406:
.LBE405:
	.loc 1 3146 3
	.loc 1 3146 15 is_stmt 0
	lbu	a5,9(s1)
	.loc 1 3147 3
	mv	a0,s2
	.loc 1 3146 15
	ori	a5,a5,4
	sb	a5,9(s1)
	.loc 1 3147 3 is_stmt 1
	call	bt_conn_unref
.LVL528:
	.loc 1 3148 3
	j	.L310
.L314:
.LVL529:
.LBB407:
.LBB408:
	.loc 1 3151 2
	.loc 1 3151 16 is_stmt 0
	li	a1,6
	addi	a0,a0,%lo(.LANCHOR2+108)
	call	atomic_test_bit
.LVL530:
	mv	s2,a0
.LVL531:
	.loc 1 3152 2 is_stmt 1
	.loc 1 3152 5 is_stmt 0
	beq	a0,zero,.L315
	.loc 1 3153 3 is_stmt 1
	li	a0,0
.LVL532:
	call	set_advertise_enable
.LVL533:
.L315:
	.loc 1 3157 2
	.loc 1 3157 17 is_stmt 0
	mv	a0,s3
	li	a1,10
	call	atomic_test_bit
.LVL534:
	mv	s3,a0
.LVL535:
	.loc 1 3158 2 is_stmt 1
	.loc 1 3158 5 is_stmt 0
	beq	a0,zero,.L316
	.loc 1 3159 3 is_stmt 1
	li	a0,0
.LVL536:
	call	set_le_scan_enable
.LVL537:
.L316:
	.loc 1 3164 2
	.loc 1 3164 5 is_stmt 0
	lbu	a5,145(s0)
	beq	a5,zero,.L317
	.loc 1 3165 3 is_stmt 1
	.loc 1 3165 9 is_stmt 0
	li	a0,0
	call	addr_res_enable
.LVL538:
	.loc 1 3166 3 is_stmt 1
	.loc 1 3166 6 is_stmt 0
	beq	a0,zero,.L317
	.loc 1 3167 4 is_stmt 1
	lui	a0,%hi(.LC21)
.LVL539:
	addi	a0,a0,%lo(.LC21)
.LVL540:
.L348:
.LBB409:
.LBB410:
	.loc 1 3052 3 is_stmt 0
	call	printf
.LVL541:
	.loc 1 3053 3 is_stmt 1
.LBE410:
.LBE409:
	.loc 1 3207 2
	j	.L318
.LVL542:
.L317:
	.loc 1 3172 2
	.loc 1 3172 5 is_stmt 0
	lbu	a4,145(s0)
	lbu	a5,144(s0)
	bne	a4,a5,.L319
	.loc 1 3173 3 is_stmt 1
	lui	a0,%hi(.LC22)
	addi	a0,a0,%lo(.LC22)
	call	printf
.LVL543:
	.loc 1 3175 3
	.loc 1 3175 9 is_stmt 0
	li	a0,8192
	li	a2,0
	li	a1,0
	addi	a0,a0,41
	call	bt_hci_cmd_send_sync
.LVL544:
	.loc 1 3176 3 is_stmt 1
	.loc 1 3176 6 is_stmt 0
	beq	a0,zero,.L320
	.loc 1 3177 4 is_stmt 1
	lui	a0,%hi(.LC23)
.LVL545:
	addi	a0,a0,%lo(.LC23)
	j	.L348
.LVL546:
.L320:
	.loc 1 3181 3
	.loc 1 3181 23 is_stmt 0
	lbu	a5,145(s0)
	addi	a5,a5,1
	sb	a5,145(s0)
	.loc 1 3183 3 is_stmt 1
.LVL547:
.L318:
	.loc 1 3213 2
	li	a0,1
	call	addr_res_enable
.LVL548:
	.loc 1 3216 2
	.loc 1 3216 5 is_stmt 0
	beq	s3,zero,.L325
	.loc 1 3217 3 is_stmt 1
	li	a0,1
	call	set_le_scan_enable
.LVL549:
.L325:
	.loc 1 3221 2
	.loc 1 3221 5 is_stmt 0
	beq	s2,zero,.L310
	.loc 1 3222 3 is_stmt 1
	li	a0,1
	call	set_advertise_enable
.LVL550:
	j	.L310
.LVL551:
.L319:
	.loc 1 3186 2
	.loc 1 3186 19 is_stmt 0
	addi	s4,s1,1
	.loc 1 3186 8
	addi	a1,s1,38
	mv	a0,s4
	call	hci_id_add
.LVL552:
	.loc 1 3187 2 is_stmt 1
	.loc 1 3187 5 is_stmt 0
	beq	a0,zero,.L321
	.loc 1 3188 3 is_stmt 1
	lui	a0,%hi(.LC24)
.LVL553:
	addi	a0,a0,%lo(.LC24)
	j	.L348
.LVL554:
.L321:
	.loc 1 3192 2
	.loc 1 3192 22 is_stmt 0
	lbu	a5,145(s0)
	addi	a5,a5,1
	sb	a5,145(s0)
	.loc 1 3206 2 is_stmt 1
.LVL555:
.LBB413:
.LBB411:
	.loc 1 3046 2
	.loc 1 3047 2
	.loc 1 3048 2
	.loc 1 3051 2
	.loc 1 3051 5 is_stmt 0
	lbu	a5,71(s0)
	andi	a5,a5,4
	bne	a5,zero,.L322
	.loc 1 3052 3 is_stmt 1
	lui	a0,%hi(.LC25)
.LVL556:
	addi	a0,a0,%lo(.LC25)
	j	.L348
.LVL557:
.L322:
	.loc 1 3056 2
	.loc 1 3058 2
	mv	a1,s4
	addi	a0,sp,8
.LVL558:
	call	bt_addr_le_copy
.LVL559:
	.loc 1 3059 2
	.loc 1 3061 8 is_stmt 0
	li	s1,8192
.LVL560:
	.loc 1 3059 10
	li	a5,1
	.loc 1 3061 8
	li	a1,8
	addi	a0,s1,78
	.loc 1 3059 10
	sb	a5,15(sp)
	.loc 1 3061 2 is_stmt 1
	.loc 1 3061 8 is_stmt 0
	call	bt_hci_cmd_create
.LVL561:
	mv	s0,a0
.LVL562:
	.loc 1 3062 2 is_stmt 1
	.loc 1 3062 5 is_stmt 0
	bne	a0,zero,.L323
.L324:
.LVL563:
.LBE411:
.LBE413:
	.loc 1 3207 2 is_stmt 1
	.loc 1 3208 3
	lui	a0,%hi(.LC26)
	addi	a0,a0,%lo(.LC26)
	j	.L348
.LVL564:
.L323:
.LBB414:
.LBB412:
	.loc 1 3066 2
	li	a2,8
	addi	a1,sp,8
	addi	a0,a0,8
	call	net_buf_simple_add_mem
.LVL565:
	.loc 1 3068 2
	.loc 1 3068 8 is_stmt 0
	li	a2,0
	mv	a1,s0
	addi	a0,s1,78
	call	bt_hci_cmd_send_sync
.LVL566:
	.loc 1 3069 2 is_stmt 1
	.loc 1 3069 5 is_stmt 0
	beq	a0,zero,.L318
	j	.L324
.LBE412:
.LBE414:
.LBE408:
.LBE407:
	.cfi_endproc
.LFE141:
	.size	bt_id_add, .-bt_id_add
	.section	.text.bt_id_del,"ax",@progbits
	.align	1
	.globl	bt_id_del
	.type	bt_id_del, @function
bt_id_del:
.LFB143:
	.loc 1 3232 1 is_stmt 1
	.cfi_startproc
.LVL567:
	.loc 1 3233 2
	.loc 1 3234 1
	.loc 1 3236 1
	.loc 1 3238 2
	.loc 1 3239 2
	.loc 1 3240 2
	.loc 1 3242 2
	.loc 1 3244 2
	.loc 1 3232 1 is_stmt 0
	addi	sp,sp,-32
	.cfi_def_cfa_offset 32
	sw	s0,24(sp)
	.cfi_offset 8, -8
	.loc 1 3244 16
	lui	s0,%hi(.LANCHOR2)
	addi	a5,s0,%lo(.LANCHOR2)
	.loc 1 3232 1
	sw	ra,28(sp)
	sw	s1,20(sp)
	sw	s2,16(sp)
	sw	s3,12(sp)
	sw	s4,8(sp)
	sw	s5,4(sp)
	.cfi_offset 1, -4
	.cfi_offset 9, -12
	.cfi_offset 18, -16
	.cfi_offset 19, -20
	.cfi_offset 20, -24
	.cfi_offset 21, -28
	.loc 1 3244 16
	lbu	a4,144(a5)
	addi	s0,s0,%lo(.LANCHOR2)
	lbu	a5,145(a5)
	.loc 1 3244 5
	beq	a4,zero,.L350
	.loc 1 3245 47 discriminator 1
	addi	a4,a4,1
	.loc 1 3244 25 discriminator 1
	ble	a5,a4,.L351
.L350:
	.loc 1 3246 3 is_stmt 1
	.loc 1 3246 23 is_stmt 0
	addi	a5,a5,-1
	sb	a5,145(s0)
	.loc 1 3247 3 is_stmt 1
.LVL568:
.L349:
	.loc 1 3315 1 is_stmt 0
	lw	ra,28(sp)
	.cfi_remember_state
	.cfi_restore 1
	lw	s0,24(sp)
	.cfi_restore 8
	lw	s1,20(sp)
	.cfi_restore 9
	lw	s2,16(sp)
	.cfi_restore 18
	lw	s3,12(sp)
	.cfi_restore 19
	lw	s4,8(sp)
	.cfi_restore 20
	lw	s5,4(sp)
	.cfi_restore 21
	addi	sp,sp,32
	.cfi_def_cfa_offset 0
	jr	ra
.LVL569:
.L351:
	.cfi_restore_state
	mv	s1,a0
	.loc 1 3250 2 is_stmt 1
	.loc 1 3250 9 is_stmt 0
	li	a1,3
	li	a0,0
.LVL570:
	call	bt_conn_lookup_state_le
.LVL571:
	mv	s2,a0
.LVL572:
	.loc 1 3251 2 is_stmt 1
	lui	a0,%hi(.LANCHOR2+108)
.LVL573:
	addi	s4,a0,%lo(.LANCHOR2+108)
	.loc 1 3251 5 is_stmt 0
	beq	s2,zero,.L353
	.loc 1 3252 3 is_stmt 1
.LVL574:
.LBB421:
.LBB422:
	.loc 2 409 2
	.loc 2 411 2
	li	a1,131072
	addi	a0,a0,%lo(.LANCHOR2+108)
	call	atomic_or
.LVL575:
.LBE422:
.LBE421:
	.loc 1 3253 3
	.loc 1 3253 15 is_stmt 0
	lbu	a5,9(s1)
	.loc 1 3254 3
	mv	a0,s2
	.loc 1 3253 15
	ori	a5,a5,8
	sb	a5,9(s1)
	.loc 1 3254 3 is_stmt 1
	.loc 1 3315 1 is_stmt 0
	lw	s0,24(sp)
	.cfi_remember_state
	.cfi_restore 8
	lw	ra,28(sp)
	.cfi_restore 1
	lw	s1,20(sp)
	.cfi_restore 9
.LVL576:
	lw	s2,16(sp)
	.cfi_restore 18
.LVL577:
	lw	s3,12(sp)
	.cfi_restore 19
	lw	s4,8(sp)
	.cfi_restore 20
	lw	s5,4(sp)
	.cfi_restore 21
	addi	sp,sp,32
	.cfi_def_cfa_offset 0
	.loc 1 3254 3
	tail	bt_conn_unref
.LVL578:
.L353:
	.cfi_restore_state
.LBB423:
.LBB424:
	.loc 1 3258 2 is_stmt 1
	.loc 1 3258 16 is_stmt 0
	li	a1,6
	addi	a0,a0,%lo(.LANCHOR2+108)
	call	atomic_test_bit
.LVL579:
	mv	s3,a0
.LVL580:
	.loc 1 3259 2 is_stmt 1
	.loc 1 3259 5 is_stmt 0
	beq	a0,zero,.L354
	.loc 1 3260 3 is_stmt 1
	li	a0,0
.LVL581:
	call	set_advertise_enable
.LVL582:
.L354:
	.loc 1 3264 2
	.loc 1 3264 17 is_stmt 0
	mv	a0,s4
	li	a1,10
	call	atomic_test_bit
.LVL583:
	mv	s4,a0
.LVL584:
	.loc 1 3265 2 is_stmt 1
	.loc 1 3265 5 is_stmt 0
	beq	a0,zero,.L355
	.loc 1 3266 3 is_stmt 1
	li	a0,0
.LVL585:
	call	set_le_scan_enable
.LVL586:
.L355:
	.loc 1 3270 2
	.loc 1 3270 8 is_stmt 0
	li	a0,0
	call	addr_res_enable
.LVL587:
	mv	a1,a0
.LVL588:
	.loc 1 3271 2 is_stmt 1
	.loc 1 3271 5 is_stmt 0
	beq	a0,zero,.L356
	.loc 1 3272 3 is_stmt 1
	lui	a0,%hi(.LC27)
.LVL589:
	addi	a0,a0,%lo(.LC27)
	call	printf
.LVL590:
	.loc 1 3273 3
.L357:
	.loc 1 3302 2
	.loc 1 3302 5 is_stmt 0
	lbu	a5,145(s0)
	beq	a5,zero,.L360
	.loc 1 3303 3 is_stmt 1
	li	a0,1
	call	addr_res_enable
.LVL591:
.L360:
	.loc 1 3307 2
	.loc 1 3307 5 is_stmt 0
	beq	s4,zero,.L361
	.loc 1 3308 3 is_stmt 1
	li	a0,1
	call	set_le_scan_enable
.LVL592:
.L361:
	.loc 1 3312 2
	.loc 1 3312 5 is_stmt 0
	beq	s3,zero,.L349
	.loc 1 3313 3 is_stmt 1
.LBE424:
.LBE423:
	.loc 1 3315 1 is_stmt 0
	lw	s0,24(sp)
	.cfi_remember_state
	.cfi_restore 8
	lw	ra,28(sp)
	.cfi_restore 1
	lw	s1,20(sp)
	.cfi_restore 9
.LVL593:
	lw	s2,16(sp)
	.cfi_restore 18
	lw	s3,12(sp)
	.cfi_restore 19
.LVL594:
	lw	s4,8(sp)
	.cfi_restore 20
.LVL595:
	lw	s5,4(sp)
	.cfi_restore 21
.LBB427:
.LBB425:
	.loc 1 3313 3
	li	a0,1
.LBE425:
.LBE427:
	.loc 1 3315 1
	addi	sp,sp,32
	.cfi_def_cfa_offset 0
.LBB428:
.LBB426:
	.loc 1 3313 3
	tail	set_advertise_enable
.LVL596:
.L356:
	.cfi_restore_state
	.loc 1 3277 2 is_stmt 1
	.loc 1 3277 15 is_stmt 0
	lbu	a5,145(s0)
	.loc 1 3277 5
	lbu	a4,144(s0)
	bgeu	a4,a5,.L358
	.loc 1 3278 3 is_stmt 1
	.loc 1 3278 23 is_stmt 0
	addi	a5,a5,-1
	sb	a5,145(s0)
	.loc 1 3279 3 is_stmt 1
	.loc 1 3279 14 is_stmt 0
	lhu	a5,10(s1)
	.loc 1 3280 3
	lui	a1,%hi(keys_add_id)
	li	a2,0
	.loc 1 3279 14
	andi	a5,a5,-3
	sh	a5,10(s1)
	.loc 1 3280 3 is_stmt 1
	addi	a1,a1,%lo(keys_add_id)
	li	a0,2
.LVL597:
	call	bt_keys_foreach
.LVL598:
	.loc 1 3281 3
	j	.L357
.LVL599:
.L358:
	.loc 1 3284 2
	.loc 1 3284 8 is_stmt 0
	li	s5,8192
	li	a1,7
	addi	a0,s5,40
.LVL600:
	call	bt_hci_cmd_create
.LVL601:
	mv	s2,a0
.LVL602:
	.loc 1 3285 2 is_stmt 1
	.loc 1 3285 5 is_stmt 0
	beq	a0,zero,.L357
	.loc 1 3289 2 is_stmt 1
	.loc 1 3289 7 is_stmt 0
	li	a1,7
	addi	a0,a0,8
.LVL603:
	call	net_buf_simple_add
.LVL604:
	.loc 1 3290 2 is_stmt 1
	addi	a1,s1,1
	call	bt_addr_le_copy
.LVL605:
	.loc 1 3292 2
	.loc 1 3292 8 is_stmt 0
	li	a2,0
	mv	a1,s2
	addi	a0,s5,40
	call	bt_hci_cmd_send_sync
.LVL606:
	.loc 1 3293 2 is_stmt 1
	.loc 1 3293 5 is_stmt 0
	beq	a0,zero,.L359
	.loc 1 3294 3 is_stmt 1
	lui	a0,%hi(.LC28)
.LVL607:
	addi	a0,a0,%lo(.LC28)
	call	printf
.LVL608:
	.loc 1 3295 3
	j	.L357
.LVL609:
.L359:
	.loc 1 3298 2
	.loc 1 3298 22 is_stmt 0
	lbu	a5,145(s0)
	addi	a5,a5,-1
	sb	a5,145(s0)
	j	.L357
.LBE426:
.LBE428:
	.cfi_endproc
.LFE143:
	.size	bt_id_del, .-bt_id_del
	.section	.text.update_pending_id,"ax",@progbits
	.align	1
	.type	update_pending_id, @function
update_pending_id:
.LFB122:
	.loc 1 1214 1 is_stmt 1
	.cfi_startproc
.LVL610:
	.loc 1 1215 2
	.loc 1 1215 10 is_stmt 0
	lbu	a5,9(a0)
	.loc 1 1215 5
	andi	a3,a5,4
	beq	a3,zero,.L385
	.loc 1 1216 3 is_stmt 1
	.loc 1 1216 15 is_stmt 0
	andi	a5,a5,-5
	sb	a5,9(a0)
	.loc 1 1217 3 is_stmt 1
	tail	bt_id_add
.LVL611:
.L385:
	.loc 1 1221 2
	.loc 1 1221 5 is_stmt 0
	andi	a3,a5,8
	beq	a3,zero,.L384
	.loc 1 1222 3 is_stmt 1
	.loc 1 1222 15 is_stmt 0
	andi	a5,a5,-9
	sb	a5,9(a0)
	.loc 1 1223 3 is_stmt 1
	tail	bt_id_del
.LVL612:
.L384:
	.loc 1 1226 1 is_stmt 0
	ret
	.cfi_endproc
.LFE122:
	.size	update_pending_id, .-update_pending_id
	.section	.text.bt_data_parse,"ax",@progbits
	.align	1
	.globl	bt_data_parse
	.type	bt_data_parse, @function
bt_data_parse:
.LFB158:
	.loc 1 3869 1 is_stmt 1
	.cfi_startproc
.LVL613:
	.loc 1 3870 2
	.loc 1 3869 1 is_stmt 0
	addi	sp,sp,-48
	.cfi_def_cfa_offset 48
	sw	s0,40(sp)
	sw	s2,32(sp)
	sw	s3,28(sp)
	sw	s4,24(sp)
	sw	ra,44(sp)
	sw	s1,36(sp)
	.cfi_offset 8, -8
	.cfi_offset 18, -16
	.cfi_offset 19, -20
	.cfi_offset 20, -24
	.cfi_offset 1, -4
	.cfi_offset 9, -12
	.loc 1 3869 1
	mv	s0,a0
	mv	s3,a1
	mv	s4,a2
	.loc 1 3870 8
	li	s2,1
.LVL614:
.L388:
	lhu	a5,4(s0)
	bleu	a5,s2,.L387
.LBB429:
	.loc 1 3871 3 is_stmt 1
	.loc 1 3872 3
	.loc 1 3874 3
	.loc 1 3874 9 is_stmt 0
	mv	a0,s0
	call	net_buf_simple_pull_u8
.LVL615:
	mv	s1,a0
.LVL616:
	.loc 1 3875 3 is_stmt 1
	.loc 1 3875 6 is_stmt 0
	beq	a0,zero,.L387
	.loc 1 3880 3 is_stmt 1
	.loc 1 3880 6 is_stmt 0
	lhu	a4,4(s0)
	slli	a5,a0,16
	srli	a5,a5,16
	bgeu	a4,a5,.L390
	.loc 1 3881 4 is_stmt 1
	lui	a0,%hi(.LC29)
.LVL617:
	addi	a0,a0,%lo(.LC29)
	call	printf
.LVL618:
	.loc 1 3882 4
.L387:
.LBE429:
	.loc 1 3895 1 is_stmt 0
	lw	ra,44(sp)
	.cfi_remember_state
	.cfi_restore 1
	lw	s0,40(sp)
	.cfi_restore 8
.LVL619:
	lw	s1,36(sp)
	.cfi_restore 9
	lw	s2,32(sp)
	.cfi_restore 18
	lw	s3,28(sp)
	.cfi_restore 19
.LVL620:
	lw	s4,24(sp)
	.cfi_restore 20
.LVL621:
	addi	sp,sp,48
	.cfi_def_cfa_offset 0
	jr	ra
.LVL622:
.L390:
	.cfi_restore_state
.LBB430:
	.loc 1 3885 3 is_stmt 1
	.loc 1 3885 15 is_stmt 0
	mv	a0,s0
.LVL623:
	call	net_buf_simple_pull_u8
.LVL624:
	.loc 1 3887 13
	lw	a5,0(s0)
	.loc 1 3885 13
	sb	a0,8(sp)
	.loc 1 3886 3 is_stmt 1
	.loc 1 3886 23 is_stmt 0
	addi	s1,s1,-1
	.loc 1 3889 8
	mv	a1,s4
	addi	a0,sp,8
	.loc 1 3886 17
	sb	s1,9(sp)
	.loc 1 3887 3 is_stmt 1
	.loc 1 3887 13 is_stmt 0
	sw	a5,12(sp)
	.loc 1 3889 3 is_stmt 1
	.loc 1 3889 8 is_stmt 0
	jalr	s3
.LVL625:
	.loc 1 3889 6
	beq	a0,zero,.L387
	.loc 1 3893 3 is_stmt 1
	mv	a1,s1
	mv	a0,s0
	call	net_buf_simple_pull
.LVL626:
	j	.L388
.LBE430:
	.cfi_endproc
.LFE158:
	.size	bt_data_parse, .-bt_data_parse
	.section	.text.bt_hci_get_conn_handle,"ax",@progbits
	.align	1
	.globl	bt_hci_get_conn_handle
	.type	bt_hci_get_conn_handle, @function
bt_hci_get_conn_handle:
.LFB160:
	.loc 1 3952 1
	.cfi_startproc
.LVL627:
	.loc 1 3953 2
	.loc 1 3953 5 is_stmt 0
	lbu	a4,13(a0)
	li	a5,4
	bne	a4,a5,.L403
	.loc 1 3957 2 is_stmt 1
	.loc 1 3957 21 is_stmt 0
	lhu	a5,0(a0)
	.loc 1 3958 9
	li	a0,0
.LVL628:
	.loc 1 3957 15
	sh	a5,0(a1)
	.loc 1 3958 2 is_stmt 1
	.loc 1 3958 9 is_stmt 0
	ret
.LVL629:
.L403:
	.loc 1 3954 10
	li	a0,-57
.LVL630:
	.loc 1 3959 1
	ret
	.cfi_endproc
.LFE160:
	.size	bt_hci_get_conn_handle, .-bt_hci_get_conn_handle
	.section	.text.bt_hci_register_vnd_evt_cb,"ax",@progbits
	.align	1
	.globl	bt_hci_register_vnd_evt_cb
	.type	bt_hci_register_vnd_evt_cb, @function
bt_hci_register_vnd_evt_cb:
.LFB161:
	.loc 1 3963 1 is_stmt 1
	.cfi_startproc
.LVL631:
	.loc 1 3964 2
	.loc 1 3964 17 is_stmt 0
	lui	a5,%hi(.LANCHOR5)
	sw	a0,%lo(.LANCHOR5)(a5)
	.loc 1 3965 2 is_stmt 1
	.loc 1 3966 1 is_stmt 0
	li	a0,0
.LVL632:
	ret
	.cfi_endproc
.LFE161:
	.size	bt_hci_register_vnd_evt_cb, .-bt_hci_register_vnd_evt_cb
	.section	.text.bt_addr_le_create_nrpa,"ax",@progbits
	.align	1
	.globl	bt_addr_le_create_nrpa
	.type	bt_addr_le_create_nrpa, @function
bt_addr_le_create_nrpa:
.LFB184:
	.loc 1 4971 1 is_stmt 1
	.cfi_startproc
.LVL633:
	.loc 1 4972 2
	.loc 1 4974 2
.LBB433:
.LBB434:
	.loc 1 4965 2
.LBE434:
.LBE433:
	.loc 1 4971 1 is_stmt 0
	addi	sp,sp,-16
	.cfi_def_cfa_offset 16
	sw	s0,8(sp)
	sw	ra,12(sp)
	.cfi_offset 8, -8
	.cfi_offset 1, -4
.LBB437:
.LBB435:
	.loc 1 4965 13
	li	a5,1
.LBE435:
.LBE437:
	.loc 1 4971 1
	mv	s0,a0
.LBB438:
.LBB436:
	.loc 1 4965 13
	sb	a5,0(a0)
	.loc 1 4967 2 is_stmt 1
	.loc 1 4967 9 is_stmt 0
	li	a1,6
	addi	a0,a0,1
.LVL634:
	call	bt_rand
.LVL635:
.LBE436:
.LBE438:
	.loc 1 4975 2 is_stmt 1
	.loc 1 4975 5 is_stmt 0
	bne	a0,zero,.L405
	.loc 1 4979 2 is_stmt 1
	.loc 1 4979 22 is_stmt 0
	lbu	a5,6(s0)
	andi	a5,a5,63
	sb	a5,6(s0)
	.loc 1 4981 2 is_stmt 1
.L405:
	.loc 1 4982 1 is_stmt 0
	lw	ra,12(sp)
	.cfi_restore 1
	lw	s0,8(sp)
	.cfi_restore 8
.LVL636:
	addi	sp,sp,16
	.cfi_def_cfa_offset 0
	jr	ra
	.cfi_endproc
.LFE184:
	.size	bt_addr_le_create_nrpa, .-bt_addr_le_create_nrpa
	.section	.text.bt_addr_le_create_static,"ax",@progbits
	.align	1
	.globl	bt_addr_le_create_static
	.type	bt_addr_le_create_static, @function
bt_addr_le_create_static:
.LFB185:
	.loc 1 4985 1 is_stmt 1
	.cfi_startproc
.LVL637:
	.loc 1 4986 2
	.loc 1 4988 2
.LBB441:
.LBB442:
	.loc 1 4965 2
.LBE442:
.LBE441:
	.loc 1 4985 1 is_stmt 0
	addi	sp,sp,-16
	.cfi_def_cfa_offset 16
	sw	s0,8(sp)
	sw	ra,12(sp)
	.cfi_offset 8, -8
	.cfi_offset 1, -4
.LBB445:
.LBB443:
	.loc 1 4965 13
	li	a5,1
.LBE443:
.LBE445:
	.loc 1 4985 1
	mv	s0,a0
.LBB446:
.LBB444:
	.loc 1 4965 13
	sb	a5,0(a0)
	.loc 1 4967 2 is_stmt 1
	.loc 1 4967 9 is_stmt 0
	li	a1,6
	addi	a0,a0,1
.LVL638:
	call	bt_rand
.LVL639:
.LBE444:
.LBE446:
	.loc 1 4989 2 is_stmt 1
	.loc 1 4989 5 is_stmt 0
	bne	a0,zero,.L408
	.loc 1 4993 2 is_stmt 1
	.loc 1 4993 22 is_stmt 0
	lbu	a5,6(s0)
	ori	a5,a5,-64
	sb	a5,6(s0)
	.loc 1 4995 2 is_stmt 1
.L408:
	.loc 1 4996 1 is_stmt 0
	lw	ra,12(sp)
	.cfi_restore 1
	lw	s0,8(sp)
	.cfi_restore 8
.LVL640:
	addi	sp,sp,16
	.cfi_def_cfa_offset 0
	jr	ra
	.cfi_endproc
.LFE185:
	.size	bt_addr_le_create_static, .-bt_addr_le_create_static
	.section	.text.id_create.isra.25,"ax",@progbits
	.align	1
	.type	id_create.isra.25, @function
id_create.isra.25:
.LFB269:
	.loc 1 5813 13 is_stmt 1
	.cfi_startproc
.LVL641:
	.loc 1 5815 2
	.loc 1 5813 13 is_stmt 0
	addi	sp,sp,-32
	.cfi_def_cfa_offset 32
	sw	s0,24(sp)
	.cfi_offset 8, -8
	li	s0,7
	mul	a0,a0,s0
.LVL642:
	lui	s0,%hi(.LANCHOR2)
	sw	s1,20(sp)
	addi	s0,s0,%lo(.LANCHOR2)
	sw	ra,28(sp)
	.cfi_offset 9, -12
	.cfi_offset 1, -4
	.loc 1 5813 13
	mv	s1,a1
	add	s0,s0,a0
	.loc 1 5815 5
	beq	a1,zero,.L413
.LBB452:
.LBB453:
	.loc 3 55 9
	li	a2,7
	mv	a1,sp
.LVL643:
	mv	a0,s1
.LBE453:
.LBE452:
	.loc 1 5815 52
	sw	zero,0(sp)
	sh	zero,4(sp)
	sb	zero,6(sp)
.LVL644:
.LBB455:
.LBB454:
	.loc 3 55 2 is_stmt 1
	.loc 3 55 9 is_stmt 0
	call	memcmp
.LVL645:
.LBE454:
.LBE455:
	.loc 1 5815 11
	beq	a0,zero,.L413
	.loc 1 5816 3 is_stmt 1
	mv	a1,s1
	mv	a0,s0
.L425:
.LBB456:
.LBB457:
	.loc 1 5828 4 is_stmt 0
	call	bt_addr_le_copy
.LVL646:
.LBE457:
.LBE456:
	.loc 1 5850 2 is_stmt 1
	.loc 1 5850 2
.L411:
	.loc 1 5854 1 is_stmt 0
	lw	ra,28(sp)
	.cfi_remember_state
	.cfi_restore 1
	lw	s0,24(sp)
	.cfi_restore 8
	lw	s1,20(sp)
	.cfi_restore 9
.LVL647:
	addi	sp,sp,32
	.cfi_def_cfa_offset 0
	jr	ra
.LVL648:
.L413:
	.cfi_restore_state
.LBB459:
.LBB458:
	.loc 1 5818 3 is_stmt 1
	.loc 1 5820 3
	.loc 1 5821 4
	addi	a0,sp,8
	call	bt_addr_le_create_static
.LVL649:
	.loc 1 5823 12 is_stmt 0
	addi	a0,sp,8
	call	id_find
.LVL650:
	.loc 1 5823 3
	bge	a0,zero,.L413
	.loc 1 5825 3 is_stmt 1
	addi	a1,sp,8
	mv	a0,s0
	call	bt_addr_le_copy
.LVL651:
	.loc 1 5827 3
	.loc 1 5827 6 is_stmt 0
	beq	s1,zero,.L411
	.loc 1 5828 4 is_stmt 1
	mv	a1,s0
	mv	a0,s1
	j	.L425
.LBE458:
.LBE459:
	.cfi_endproc
.LFE269:
	.size	id_create.isra.25, .-id_create.isra.25
	.section	.text.bt_send,"ax",@progbits
	.align	1
	.globl	bt_send
	.type	bt_send, @function
bt_send:
.LFB188:
	.loc 1 5207 1
	.cfi_startproc
.LVL652:
	.loc 1 5208 2
	.loc 1 5212 2
	.loc 1 5216 2
	.loc 1 5216 15 is_stmt 0
	lui	a5,%hi(.LANCHOR2+180)
	.loc 1 5216 19
	lw	a5,%lo(.LANCHOR2+180)(a5)
	.loc 1 5216 9
	lw	t1,16(a5)
	jr	t1
.LVL653:
	.cfi_endproc
.LFE188:
	.size	bt_send, .-bt_send
	.section	.text.bt_hci_cmd_send,"ax",@progbits
	.align	1
	.globl	bt_hci_cmd_send
	.type	bt_hci_cmd_send, @function
bt_hci_cmd_send:
.LFB101:
	.loc 1 337 1 is_stmt 1
	.cfi_startproc
.LVL654:
	.loc 1 338 2
	.loc 1 337 1 is_stmt 0
	addi	sp,sp,-16
	.cfi_def_cfa_offset 16
	sw	s0,8(sp)
	sw	s2,0(sp)
	sw	ra,12(sp)
	sw	s1,4(sp)
	.cfi_offset 8, -8
	.cfi_offset 18, -16
	.cfi_offset 1, -4
	.cfi_offset 9, -12
	.loc 1 337 1
	mv	s2,a0
	mv	s0,a1
	.loc 1 338 5
	bne	a1,zero,.L428
	.loc 1 339 3 is_stmt 1
	.loc 1 339 9 is_stmt 0
	call	bt_hci_cmd_create
.LVL655:
	mv	s0,a0
.LVL656:
	.loc 1 340 3 is_stmt 1
	.loc 1 341 11 is_stmt 0
	li	s1,-55
	.loc 1 340 6
	beq	a0,zero,.L427
.L428:
	.loc 1 345 2 is_stmt 1
	.loc 1 350 2
	.loc 1 350 5 is_stmt 0
	li	a5,4096
	addi	a5,a5,-971
	bne	s2,a5,.L430
.LBB460:
	.loc 1 351 3 is_stmt 1
	.loc 1 353 3
	.loc 1 353 9 is_stmt 0
	mv	a0,s0
	call	bt_send
.LVL657:
	mv	s1,a0
.LVL658:
	.loc 1 354 3 is_stmt 1
	.loc 1 354 6 is_stmt 0
	beq	a0,zero,.L427
	.loc 1 355 4 is_stmt 1
	mv	a1,a0
	lui	a0,%hi(.LC30)
	addi	a0,a0,%lo(.LC30)
	call	printf
.LVL659:
	.loc 1 356 4
	mv	a0,s0
	call	net_buf_unref
.LVL660:
.L427:
.LBE460:
	.loc 1 367 1 is_stmt 0
	lw	ra,12(sp)
	.cfi_remember_state
	.cfi_restore 1
	lw	s0,8(sp)
	.cfi_restore 8
.LVL661:
	mv	a0,s1
	lw	s2,0(sp)
	.cfi_restore 18
	lw	s1,4(sp)
	.cfi_restore 9
	addi	sp,sp,16
	.cfi_def_cfa_offset 0
	jr	ra
.LVL662:
.L430:
	.cfi_restore_state
	.loc 1 362 2 is_stmt 1
	lui	a0,%hi(.LANCHOR2+168)
	mv	a1,s0
	addi	a0,a0,%lo(.LANCHOR2+168)
	call	net_buf_put
.LVL663:
	.loc 1 364 5
	lui	a0,%hi(g_poll_sem)
	addi	a0,a0,%lo(g_poll_sem)
	call	k_sem_give
.LVL664:
	.loc 1 366 2
	.loc 1 366 9 is_stmt 0
	li	s1,0
	j	.L427
	.cfi_endproc
.LFE101:
	.size	bt_hci_cmd_send, .-bt_hci_cmd_send
	.section	.text.bt_le_set_data_len,"ax",@progbits
	.align	1
	.globl	bt_le_set_data_len
	.type	bt_le_set_data_len, @function
bt_le_set_data_len:
.LFB119:
	.loc 1 1153 1 is_stmt 1
	.cfi_startproc
.LVL665:
	.loc 1 1154 2
	.loc 1 1155 2
	.loc 1 1157 2
	.loc 1 1153 1 is_stmt 0
	addi	sp,sp,-32
	.cfi_def_cfa_offset 32
	sw	s3,12(sp)
	.cfi_offset 19, -20
	.loc 1 1157 8
	li	s3,8192
	.loc 1 1153 1
	sw	s1,20(sp)
	sw	s4,8(sp)
	.cfi_offset 9, -12
	.cfi_offset 20, -24
	mv	s1,a1
	mv	s4,a0
	.loc 1 1157 8
	li	a1,6
.LVL666:
	addi	a0,s3,34
.LVL667:
	.loc 1 1153 1
	sw	s0,24(sp)
	sw	ra,28(sp)
	sw	s2,16(sp)
	.cfi_offset 8, -8
	.cfi_offset 1, -4
	.cfi_offset 18, -16
	.loc 1 1153 1
	mv	s0,a2
	.loc 1 1157 8
	call	bt_hci_cmd_create
.LVL668:
	.loc 1 1158 2 is_stmt 1
	.loc 1 1158 5 is_stmt 0
	beq	a0,zero,.L441
	mv	s2,a0
	.loc 1 1163 2 is_stmt 1
	.loc 1 1163 7 is_stmt 0
	li	a1,6
	addi	a0,a0,8
.LVL669:
	call	net_buf_simple_add
.LVL670:
	.loc 1 1164 2 is_stmt 1
	.loc 1 1164 20 is_stmt 0
	lhu	a5,0(s4)
	.loc 1 1165 16
	sb	s1,2(a0)
	.loc 1 1166 14
	sb	s0,4(a0)
	.loc 1 1164 13
	sb	a5,0(a0)
	.loc 1 1165 16
	srli	s1,s1,8
	.loc 1 1166 14
	srli	s0,s0,8
	.loc 1 1164 13
	srli	a5,a5,8
	sb	a5,1(a0)
	.loc 1 1165 2 is_stmt 1
	.loc 1 1165 16 is_stmt 0
	sb	s1,3(a0)
	.loc 1 1166 2 is_stmt 1
	.loc 1 1166 14 is_stmt 0
	sb	s0,5(a0)
	.loc 1 1168 2 is_stmt 1
	.loc 1 1169 1 is_stmt 0
	lw	s0,24(sp)
	.cfi_remember_state
	.cfi_restore 8
	lw	ra,28(sp)
	.cfi_restore 1
	lw	s1,20(sp)
	.cfi_restore 9
	lw	s4,8(sp)
	.cfi_restore 20
.LVL671:
	.loc 1 1168 9
	mv	a1,s2
	addi	a0,s3,34
.LVL672:
	.loc 1 1169 1
	lw	s2,16(sp)
	.cfi_restore 18
.LVL673:
	lw	s3,12(sp)
	.cfi_restore 19
	addi	sp,sp,32
	.cfi_def_cfa_offset 0
	.loc 1 1168 9
	tail	bt_hci_cmd_send
.LVL674:
.L441:
	.cfi_restore_state
	.loc 1 1159 3 is_stmt 1
	lui	a0,%hi(.LC31)
.LVL675:
	addi	a0,a0,%lo(.LC31)
	call	printf
.LVL676:
	.loc 1 1160 3
	.loc 1 1169 1 is_stmt 0
	lw	ra,28(sp)
	.cfi_restore 1
	lw	s0,24(sp)
	.cfi_restore 8
	lw	s1,20(sp)
	.cfi_restore 9
	lw	s2,16(sp)
	.cfi_restore 18
	lw	s3,12(sp)
	.cfi_restore 19
	lw	s4,8(sp)
	.cfi_restore 20
.LVL677:
	li	a0,-55
	addi	sp,sp,32
	.cfi_def_cfa_offset 0
	jr	ra
	.cfi_endproc
.LFE119:
	.size	bt_le_set_data_len, .-bt_le_set_data_len
	.section	.text.start_le_scan,"ax",@progbits
	.align	1
	.type	start_le_scan, @function
start_le_scan:
.LFB156:
	.loc 1 3662 1 is_stmt 1
	.cfi_startproc
.LVL678:
	.loc 1 3663 2
	.loc 1 3664 2
	.loc 1 3665 2
	.loc 1 3667 2
	.loc 1 3662 1 is_stmt 0
	addi	sp,sp,-48
	.cfi_def_cfa_offset 48
	sw	s0,40(sp)
	sw	s1,36(sp)
	.cfi_offset 8, -8
	.cfi_offset 9, -12
	mv	s0,a2
	sw	s2,32(sp)
	mv	s1,a0
	.cfi_offset 18, -16
	mv	s2,a1
	.loc 1 3667 8
	li	a2,7
.LVL679:
	li	a1,0
.LVL680:
	addi	a0,sp,8
.LVL681:
	.loc 1 3662 1
	sw	ra,44(sp)
	sw	s3,28(sp)
	sw	s4,24(sp)
	.cfi_offset 1, -4
	.cfi_offset 19, -20
	.cfi_offset 20, -24
	.loc 1 3667 8
	call	memset
.LVL682:
	.loc 1 3669 2 is_stmt 1
	.loc 1 3675 19 is_stmt 0
	sb	s0,11(sp)
	srli	s0,s0,8
	.loc 1 3674 21
	sb	s2,9(sp)
	.loc 1 3675 19
	sb	s0,12(sp)
	.loc 1 3674 21
	srli	s2,s2,8
	.loc 1 3678 6
	lui	s0,%hi(.LANCHOR2)
	.loc 1 3674 21
	sb	s2,10(sp)
	.loc 1 3678 6
	addi	s2,s0,%lo(.LANCHOR2)
	addi	a0,s2,108
	li	a1,14
	.loc 1 3669 22
	sb	s1,8(sp)
	.loc 1 3674 2 is_stmt 1
	.loc 1 3675 2
	.loc 1 3677 2
	.loc 1 3678 6 is_stmt 0
	call	atomic_test_bit
.LVL683:
	.loc 1 3696 23
	lbu	a5,0(s2)
	.loc 1 3677 5
	snez	a0,a0
	lui	s2,%hi(.LANCHOR2+108)
	.loc 1 3696 23
	sb	a5,13(sp)
	.loc 1 3677 5
	sb	a0,14(sp)
	.loc 1 3684 2 is_stmt 1
	.loc 1 3696 3
	.loc 1 3701 3
	.loc 1 3701 6 is_stmt 0
	li	a5,1
	addi	s0,s0,%lo(.LANCHOR2)
	addi	s2,s2,%lo(.LANCHOR2+108)
	bne	s1,a5,.L444
	.loc 1 3703 8
	li	a1,6
	mv	a0,s2
	call	atomic_test_bit
.LVL684:
	.loc 1 3702 25
	bne	a0,zero,.L444
	.loc 1 3704 4 is_stmt 1
	.loc 1 3704 10 is_stmt 0
	call	le_set_private_addr.isra.19
.LVL685:
	mv	s0,a0
.LVL686:
	.loc 1 3705 4 is_stmt 1
	.loc 1 3705 7 is_stmt 0
	bne	a0,zero,.L443
	.loc 1 3709 4 is_stmt 1
	.loc 1 3709 24 is_stmt 0
	sb	s1,13(sp)
.LVL687:
.L446:
	.loc 1 3718 2 is_stmt 1
	.loc 1 3718 8 is_stmt 0
	li	s4,8192
	li	a1,7
	addi	a0,s4,11
	call	bt_hci_cmd_create
.LVL688:
	mv	s3,a0
.LVL689:
	.loc 1 3719 2 is_stmt 1
	.loc 1 3720 10 is_stmt 0
	li	s0,-55
	.loc 1 3719 5
	beq	a0,zero,.L443
	.loc 1 3723 2 is_stmt 1
	li	a2,7
	addi	a1,sp,8
	addi	a0,a0,8
.LVL690:
	call	net_buf_simple_add_mem
.LVL691:
	.loc 1 3725 2
	mv	a1,s3
	addi	a0,s4,11
	call	bt_hci_cmd_send
.LVL692:
	.loc 1 3727 2
	.loc 1 3727 8 is_stmt 0
	li	a0,1
	call	set_le_scan_enable
.LVL693:
	mv	s0,a0
.LVL694:
	.loc 1 3728 2 is_stmt 1
	.loc 1 3728 5 is_stmt 0
	bne	a0,zero,.L443
	.loc 1 3732 2 is_stmt 1
	addi	a2,s1,-1
	seqz	a2,a2
	li	a1,12
	mv	a0,s2
	call	atomic_set_bit_to
.LVL695:
	.loc 1 3735 2
	.loc 1 3735 9 is_stmt 0
	j	.L443
.LVL696:
.L444:
	.loc 1 3710 10 is_stmt 1
	.loc 1 3710 13 is_stmt 0
	lbu	a4,13(sp)
	li	a5,1
	bne	a4,a5,.L446
	.loc 1 3711 4 is_stmt 1
	.loc 1 3711 10 is_stmt 0
	addi	a0,s0,1
	call	set_random_address
.LVL697:
	mv	s0,a0
.LVL698:
	.loc 1 3712 4 is_stmt 1
	.loc 1 3712 7 is_stmt 0
	beq	a0,zero,.L446
.LVL699:
.L443:
	.loc 1 3736 1
	mv	a0,s0
	lw	ra,44(sp)
	.cfi_restore 1
	lw	s0,40(sp)
	.cfi_restore 8
	lw	s1,36(sp)
	.cfi_restore 9
	lw	s2,32(sp)
	.cfi_restore 18
	lw	s3,28(sp)
	.cfi_restore 19
	lw	s4,24(sp)
	.cfi_restore 20
	addi	sp,sp,48
	.cfi_def_cfa_offset 0
	jr	ra
	.cfi_endproc
.LFE156:
	.size	start_le_scan, .-start_le_scan
	.section	.text.bt_le_scan_update,"ax",@progbits
	.align	1
	.globl	bt_le_scan_update
	.type	bt_le_scan_update, @function
bt_le_scan_update:
.LFB157:
	.loc 1 3817 1 is_stmt 1
	.cfi_startproc
.LVL700:
	.loc 1 3818 2
	.loc 1 3817 1 is_stmt 0
	addi	sp,sp,-16
	.cfi_def_cfa_offset 16
	sw	s2,0(sp)
	.cfi_offset 18, -16
	mv	s2,a0
	.loc 1 3818 6
	lui	a0,%hi(.LANCHOR2+108)
.LVL701:
	li	a1,11
	addi	a0,a0,%lo(.LANCHOR2+108)
	.loc 1 3817 1
	sw	ra,12(sp)
	sw	s0,8(sp)
	sw	s1,4(sp)
	.cfi_offset 1, -4
	.cfi_offset 8, -8
	.cfi_offset 9, -12
	.loc 1 3818 6
	call	atomic_test_bit
.LVL702:
	.loc 1 3818 5
	beq	a0,zero,.L452
.L466:
.LBB469:
	.loc 1 3839 4 is_stmt 1
	.loc 1 3839 11 is_stmt 0
	li	a0,0
	j	.L451
.L452:
	lui	s0,%hi(.LANCHOR2+108)
	addi	s0,s0,%lo(.LANCHOR2+108)
.LBE469:
	.loc 1 3822 2 is_stmt 1
	.loc 1 3822 6 is_stmt 0
	li	a1,10
	mv	a0,s0
	call	atomic_test_bit
.LVL703:
	.loc 1 3822 5
	bne	a0,zero,.L454
.L457:
	.loc 1 3831 2 is_stmt 1
.LBB470:
	.loc 1 3832 3
	.loc 1 3833 3
	.loc 1 3836 3
	.loc 1 3836 10 is_stmt 0
	li	a1,3
	li	a0,0
	call	bt_conn_lookup_state_le
.LVL704:
	.loc 1 3837 3 is_stmt 1
	.loc 1 3837 6 is_stmt 0
	bne	a0,zero,.L455
.LVL705:
.LBE470:
.LBB471:
.LBB472:
	.loc 1 3842 3 is_stmt 1
	.loc 1 3842 10 is_stmt 0
	li	a1,1
	call	bt_conn_lookup_state_le
.LVL706:
	mv	s1,a0
.LVL707:
	.loc 1 3843 3 is_stmt 1
	.loc 1 3843 6 is_stmt 0
	beq	a0,zero,.L466
	.loc 1 3848 3 is_stmt 1
.LVL708:
.LBB473:
.LBB474:
	.loc 2 391 2
	.loc 2 393 2
	li	a1,-8192
	addi	a1,a1,-1
	mv	a0,s0
	call	atomic_and
.LVL709:
.LBE474:
.LBE473:
	.loc 1 3850 3
	mv	a0,s1
	call	bt_conn_unref
.LVL710:
	.loc 1 3852 3
	.loc 1 3852 6 is_stmt 0
	bne	s2,zero,.L460
	.loc 1 3856 13
	li	a1,4096
	.loc 1 3857 11
	li	a2,18
	.loc 1 3856 13
	addi	a1,a1,-2048
.L459:
.LVL711:
	.loc 1 3860 3 is_stmt 1
.LBE472:
.LBE471:
	.loc 1 3864 1 is_stmt 0
	lw	s0,8(sp)
	.cfi_remember_state
	.cfi_restore 8
	lw	ra,12(sp)
	.cfi_restore 1
	lw	s1,4(sp)
	.cfi_restore 9
.LVL712:
	lw	s2,0(sp)
	.cfi_restore 18
.LVL713:
.LBB478:
.LBB475:
	.loc 1 3860 10
	li	a0,0
.LBE475:
.LBE478:
	.loc 1 3864 1
	addi	sp,sp,16
	.cfi_def_cfa_offset 0
.LBB479:
.LBB476:
	.loc 1 3860 10
	tail	start_le_scan
.LVL714:
.L454:
	.cfi_restore_state
.LBE476:
.LBE479:
.LBB480:
	.loc 1 3823 3 is_stmt 1
	.loc 1 3825 3
	.loc 1 3825 9 is_stmt 0
	li	a0,0
	call	set_le_scan_enable
.LVL715:
	.loc 1 3826 3 is_stmt 1
	.loc 1 3826 6 is_stmt 0
	beq	a0,zero,.L457
.LVL716:
.L451:
.LBE480:
	.loc 1 3864 1
	lw	ra,12(sp)
	.cfi_remember_state
	.cfi_restore 1
	lw	s0,8(sp)
	.cfi_restore 8
	lw	s1,4(sp)
	.cfi_restore 9
	lw	s2,0(sp)
	.cfi_restore 18
	addi	sp,sp,16
	.cfi_def_cfa_offset 0
	jr	ra
.LVL717:
.L455:
	.cfi_restore_state
.LBB481:
	.loc 1 3838 4 is_stmt 1
	call	bt_conn_unref
.LVL718:
	j	.L466
.LVL719:
.L460:
.LBE481:
.LBB482:
.LBB477:
	.loc 1 3854 11 is_stmt 0
	li	a2,48
	.loc 1 3853 13
	li	a1,96
	j	.L459
.LBE477:
.LBE482:
	.cfi_endproc
.LFE157:
	.size	bt_le_scan_update, .-bt_le_scan_update
	.section	.text.le_adv_report,"ax",@progbits
	.align	1
	.type	le_adv_report, @function
le_adv_report:
.LFB159:
	.loc 1 3898 1 is_stmt 1
	.cfi_startproc
.LVL720:
	.loc 1 3899 2
	.loc 1 3898 1 is_stmt 0
	addi	sp,sp,-80
	.cfi_def_cfa_offset 80
	sw	s5,52(sp)
	.cfi_offset 21, -28
	.loc 1 3899 21
	addi	s5,a0,8
	.loc 1 3898 1
	sw	s1,68(sp)
	sw	s3,60(sp)
	.cfi_offset 9, -12
	.cfi_offset 19, -20
	lui	s1,%hi(.LANCHOR2)
	mv	s3,a0
	.loc 1 3899 21
	mv	a0,s5
.LVL721:
	.loc 1 3898 1
	sw	s4,56(sp)
	sw	s6,48(sp)
	sw	s8,40(sp)
	sw	ra,76(sp)
	sw	s0,72(sp)
	sw	s2,64(sp)
	sw	s7,44(sp)
	sw	s9,36(sp)
	sw	s10,32(sp)
	sw	s11,28(sp)
	.cfi_offset 20, -24
	.cfi_offset 22, -32
	.cfi_offset 24, -40
	.cfi_offset 1, -4
	.cfi_offset 8, -8
	.cfi_offset 18, -16
	.cfi_offset 23, -36
	.cfi_offset 25, -44
	.cfi_offset 26, -48
	.cfi_offset 27, -52
	addi	s1,s1,%lo(.LANCHOR2)
	.loc 1 3899 21
	call	net_buf_simple_pull_u8
.LVL722:
.LBB494:
.LBB495:
.LBB496:
.LBB497:
	.loc 5 522 25
	li	s6,65536
.LBE497:
.LBE496:
.LBE495:
.LBE494:
	.loc 1 3899 21
	mv	s4,a0
.LVL723:
	.loc 1 3900 2 is_stmt 1
	.loc 1 3902 2
	.loc 1 3904 2
.LBB522:
.LBB508:
.LBB500:
.LBB498:
	.loc 5 522 25 is_stmt 0
	addi	s6,s6,-1
.LBE498:
.LBE500:
.LBE508:
.LBB509:
.LBB510:
	.loc 1 1795 6
	addi	s8,s1,108
.LVL724:
.L468:
.LBE510:
.LBE509:
.LBE522:
	.loc 1 3904 8
	beq	s4,zero,.L467
.LBB523:
	.loc 1 3905 3 is_stmt 1
	.loc 1 3906 3
	.loc 1 3908 3
	.loc 1 3908 6 is_stmt 0
	lhu	a5,12(s3)
	li	a4,8
	bgtu	a5,a4,.L469
	.loc 1 3909 4 is_stmt 1
	lui	a0,%hi(.LC32)
	addi	a0,a0,%lo(.LC32)
	call	printf
.LVL725:
	.loc 1 3910 4
.L467:
.LBE523:
	.loc 1 3948 1 is_stmt 0
	lw	ra,76(sp)
	.cfi_remember_state
	.cfi_restore 1
	lw	s0,72(sp)
	.cfi_restore 8
	lw	s1,68(sp)
	.cfi_restore 9
	lw	s2,64(sp)
	.cfi_restore 18
	lw	s3,60(sp)
	.cfi_restore 19
.LVL726:
	lw	s4,56(sp)
	.cfi_restore 20
.LVL727:
	lw	s5,52(sp)
	.cfi_restore 21
.LVL728:
	lw	s6,48(sp)
	.cfi_restore 22
	lw	s7,44(sp)
	.cfi_restore 23
	lw	s8,40(sp)
	.cfi_restore 24
	lw	s9,36(sp)
	.cfi_restore 25
	lw	s10,32(sp)
	.cfi_restore 26
	lw	s11,28(sp)
	.cfi_restore 27
	addi	sp,sp,80
	.cfi_def_cfa_offset 0
	jr	ra
.LVL729:
.L469:
	.cfi_restore_state
.LBB524:
	.loc 1 3913 3 is_stmt 1
	.loc 1 3913 10 is_stmt 0
	li	a1,9
	mv	a0,s5
	call	net_buf_simple_pull_mem
.LVL730:
	.loc 1 3914 25
	lbu	a5,8(a0)
	addi	s11,a0,1
	.loc 1 3920 6
	li	a4,1
	.loc 1 3914 20
	add	a5,a0,a5
	lbu	s0,9(a5)
	.loc 1 3920 31
	lbu	a5,1(a0)
	.loc 1 3913 10
	mv	s2,a0
.LVL731:
	.loc 1 3914 3 is_stmt 1
	.loc 1 3918 45
	.loc 1 3920 3
	.loc 1 3922 4 is_stmt 0
	mv	a1,s11
	.loc 1 3920 31
	addi	a5,a5,-2
	.loc 1 3920 6
	andi	a5,a5,0xff
	bgtu	a5,a4,.L471
	.loc 1 3922 4 is_stmt 1
	addi	a0,sp,8
.LVL732:
	call	bt_addr_le_copy
.LVL733:
	.loc 1 3923 4
	.loc 1 3923 17 is_stmt 0
	lbu	a5,8(sp)
	addi	a5,a5,-2
	sb	a5,8(sp)
.L472:
	.loc 1 3930 3 is_stmt 1
	.loc 1 3930 7 is_stmt 0
	lui	a5,%hi(.LANCHOR9)
	addi	s10,a5,%lo(.LANCHOR9)
	.loc 1 3930 6
	lw	a4,0(s10)
	beq	a4,zero,.L473
.LBB518:
	.loc 1 3931 4 is_stmt 1
	.loc 1 3933 4
.LVL734:
.LBB501:
.LBB502:
	.loc 5 506 2
	.loc 5 506 18 is_stmt 0
	mv	a0,s5
	call	net_buf_simple_headroom
.LVL735:
.LBE502:
.LBE501:
	.loc 1 3935 19
	lbu	a3,8(s2)
.LBB505:
.LBB503:
	.loc 5 507 18
	lhu	s9,12(s3)
.LBE503:
.LBE505:
	.loc 1 3936 4
	lw	a5,0(s10)
	.loc 1 3935 19
	sh	a3,12(s3)
	.loc 1 3936 4
	lbu	a2,0(s2)
	slli	a1,s0,24
.LBB506:
.LBB504:
	.loc 5 506 18
	mv	s7,a0
	.loc 5 507 2 is_stmt 1
.LVL736:
.LBE504:
.LBE506:
	.loc 1 3935 4
	.loc 1 3936 4
	mv	a3,s5
	addi	a0,sp,8
	srai	a1,a1,24
	jalr	a5
.LVL737:
	.loc 1 3939 4
.LBB507:
.LBB499:
	.loc 5 522 2
	.loc 5 522 25 is_stmt 0
	lw	a0,16(s3)
	and	s7,s7,s6
	.loc 5 523 11
	sh	s9,12(s3)
	.loc 5 522 25
	add	a0,a0,s7
	.loc 5 522 12
	sw	a0,8(s3)
	.loc 5 523 2 is_stmt 1
.LVL738:
.L473:
.LBE499:
.LBE507:
.LBE518:
	.loc 1 3943 3 discriminator 1
.LBB519:
.LBB515:
	.loc 1 1795 6 is_stmt 0 discriminator 1
	li	a1,11
	mv	a0,s8
.LBE515:
.LBE519:
	.loc 1 3943 3 discriminator 1
	lbu	s0,0(s2)
.LVL739:
.LBB520:
.LBB516:
	.loc 1 1792 2 is_stmt 1 discriminator 1
	.loc 1 1795 2 discriminator 1
	.loc 1 1795 6 is_stmt 0 discriminator 1
	call	atomic_test_bit
.LVL740:
	.loc 1 1795 5 discriminator 1
	bne	a0,zero,.L475
	.loc 1 1800 2 is_stmt 1
	.loc 1 1800 5 is_stmt 0
	li	a5,1
	bgtu	s0,a5,.L475
	.loc 1 1804 2 is_stmt 1
	.loc 1 1804 9 is_stmt 0
	li	a1,1
	addi	a0,sp,8
.LVL741:
	call	bt_conn_lookup_state_le
.LVL742:
	mv	s0,a0
.LVL743:
	.loc 1 1805 2 is_stmt 1
	.loc 1 1805 5 is_stmt 0
	beq	a0,zero,.L475
	.loc 1 1809 2 is_stmt 1
	.loc 1 1809 6 is_stmt 0
	li	a1,10
	mv	a0,s8
	call	atomic_test_bit
.LVL744:
	.loc 1 1809 5
	bne	a0,zero,.L477
.L481:
	.loc 1 1814 2 is_stmt 1
	addi	s7,s0,126
	mv	a1,s11
	mv	a0,s7
	call	bt_addr_le_copy
.LVL745:
	.loc 1 1815 2
.LBB511:
.LBB512:
	.loc 1 920 2
	.loc 1 921 2
	.loc 1 922 2
	.loc 1 923 2
	.loc 1 924 2
	.loc 1 935 2
.LBB513:
	.loc 1 960 3
	.loc 1 960 54 is_stmt 0
	lbu	s11,8(s0)
.LVL746:
	.loc 1 962 3 is_stmt 1
	.loc 1 962 15 is_stmt 0
	li	a0,7
	mul	a0,s11,a0
	add	a5,s1,a0
	.loc 1 962 6
	lbu	a4,0(a5)
	li	a5,1
	bne	a4,a5,.L479
	.loc 1 963 4 is_stmt 1
	.loc 1 963 10 is_stmt 0
	addi	a0,a0,1
	add	a0,s1,a0
	call	set_random_address
.LVL747:
	.loc 1 964 4 is_stmt 1
	.loc 1 964 7 is_stmt 0
	bne	a0,zero,.L480
.LVL748:
.L479:
	.loc 1 969 3 is_stmt 1
	.loc 1 969 17 is_stmt 0
	li	a5,7
	mul	s11,s11,a5
.LVL749:
.LBE513:
	.loc 1 975 8
	li	a0,8192
	li	a1,25
	addi	a0,a0,13
.LBB514:
	.loc 1 969 17
	add	s11,s1,s11
	lbu	s11,0(s11)
.LVL750:
.LBE514:
	.loc 1 975 2 is_stmt 1
	.loc 1 975 8 is_stmt 0
	call	bt_hci_cmd_create
.LVL751:
	mv	s9,a0
.LVL752:
	.loc 1 976 2 is_stmt 1
	.loc 1 976 5 is_stmt 0
	beq	a0,zero,.L480
	.loc 1 980 2 is_stmt 1
	.loc 1 980 7 is_stmt 0
	li	a1,25
	addi	a0,a0,8
.LVL753:
	call	net_buf_simple_add
.LVL754:
	.loc 1 981 8
	li	a2,25
	li	a1,0
	.loc 1 980 7
	mv	s10,a0
.LVL755:
	.loc 1 981 2 is_stmt 1
	.loc 1 981 8 is_stmt 0
	call	memset
.LVL756:
	.loc 1 984 2 is_stmt 1
	.loc 1 984 20 is_stmt 0
	li	a4,96
	sb	a4,0(s10)
	sb	zero,1(s10)
	.loc 1 985 2 is_stmt 1
	.loc 1 985 18 is_stmt 0
	sb	a4,2(s10)
	sb	zero,3(s10)
	.loc 1 987 2 is_stmt 1
.LVL757:
	.loc 1 990 2
	.loc 1 990 16 is_stmt 0
	lbu	a4,144(s1)
	.loc 1 990 5
	beq	a4,zero,.L483
	.loc 1 990 25
	lbu	a2,145(s1)
	bgtu	a2,a4,.L483
	.loc 1 987 12
	addi	s7,s0,112
.LVL758:
.L483:
	.loc 1 996 2 is_stmt 1
	mv	a1,s7
	addi	a0,s10,5
	call	bt_addr_le_copy
.LVL759:
	.loc 1 997 2
	.loc 1 997 20 is_stmt 0
	sb	s11,12(s10)
	.loc 1 998 2 is_stmt 1
	.loc 1 998 35 is_stmt 0
	lhu	a4,136(s0)
	.loc 1 1016 9
	li	a0,8192
	li	a2,0
	.loc 1 998 24
	sb	a4,13(s10)
	srli	a4,a4,8
	sb	a4,14(s10)
	.loc 1 999 2 is_stmt 1
	.loc 1 999 35 is_stmt 0
	lhu	a4,138(s0)
	.loc 1 1016 9
	mv	a1,s9
	addi	a0,a0,13
	.loc 1 999 24
	sb	a4,15(s10)
	srli	a4,a4,8
	sb	a4,16(s10)
	.loc 1 1000 2 is_stmt 1
	.loc 1 1000 30 is_stmt 0
	lhu	a4,140(s0)
	.loc 1 1000 19
	sb	a4,17(s10)
	srli	a4,a4,8
	sb	a4,18(s10)
	.loc 1 1001 2 is_stmt 1
	.loc 1 1001 37 is_stmt 0
	lhu	a4,142(s0)
	.loc 1 1001 26
	sb	a4,19(s10)
	srli	a4,a4,8
	sb	a4,20(s10)
	.loc 1 1016 2 is_stmt 1
	.loc 1 1016 9 is_stmt 0
	call	bt_hci_cmd_send_sync
.LVL760:
.LBE512:
.LBE511:
	.loc 1 1815 5
	bne	a0,zero,.L480
	.loc 1 1819 2 is_stmt 1
	mv	a0,s0
	li	a1,3
	call	bt_conn_set_state
.LVL761:
	.loc 1 1820 2
	mv	a0,s0
	call	bt_conn_unref
.LVL762:
	.loc 1 1821 2
.L475:
.LBE516:
.LBE520:
	.loc 1 3946 3 discriminator 1
	.loc 1 3946 38 is_stmt 0 discriminator 1
	lbu	a1,8(s2)
	.loc 1 3946 3 discriminator 1
	mv	a0,s5
	addi	s4,s4,-1
.LVL763:
	addi	a1,a1,1
	call	net_buf_simple_pull
.LVL764:
	andi	s4,s4,0xff
	j	.L468
.LVL765:
.L471:
	.loc 1 3925 4 is_stmt 1
	lbu	a0,8(s1)
.LVL766:
	call	bt_lookup_id_addr
.LVL767:
	mv	a1,a0
	addi	a0,sp,8
	call	bt_addr_le_copy
.LVL768:
	j	.L472
.LVL769:
.L477:
.LBB521:
.LBB517:
	.loc 1 1810 6 is_stmt 0
	li	a0,0
	call	set_le_scan_enable
.LVL770:
	.loc 1 1809 53
	beq	a0,zero,.L481
.L480:
.LDL1:
	.loc 1 1824 2 is_stmt 1
	.loc 1 1824 12 is_stmt 0
	li	a5,31
	sb	a5,12(s0)
	.loc 1 1825 2 is_stmt 1
	li	a1,0
	mv	a0,s0
	call	bt_conn_set_state
.LVL771:
	.loc 1 1826 2
	mv	a0,s0
	call	bt_conn_unref
.LVL772:
	.loc 1 1827 2
	li	a0,0
	call	bt_le_scan_update
.LVL773:
	j	.L475
.LBE517:
.LBE521:
.LBE524:
	.cfi_endproc
.LFE159:
	.size	le_adv_report, .-le_adv_report
	.section	.text.le_ltk_request,"ax",@progbits
	.align	1
	.type	le_ltk_request, @function
le_ltk_request:
.LFB149:
	.loc 1 3502 1
	.cfi_startproc
.LVL774:
	.loc 1 3503 2
	.loc 1 3502 1 is_stmt 0
	addi	sp,sp,-48
	.cfi_def_cfa_offset 48
	sw	ra,44(sp)
	sw	s0,40(sp)
	sw	s1,36(sp)
	sw	s2,32(sp)
	sw	s3,28(sp)
	.cfi_offset 1, -4
	.cfi_offset 8, -8
	.cfi_offset 9, -12
	.cfi_offset 18, -16
	.cfi_offset 19, -20
	.loc 1 3503 36
	lw	s1,8(a0)
.LVL775:
	.loc 1 3504 2 is_stmt 1
	.loc 1 3505 2
	.loc 1 3506 2
	.loc 1 3508 2
	.loc 1 3508 9 is_stmt 0
	lbu	s0,1(s1)
	lbu	a5,0(s1)
	slli	s0,s0,8
	or	s0,s0,a5
.LVL776:
	.loc 1 3510 2 is_stmt 1
	.loc 1 3512 2
	.loc 1 3512 9 is_stmt 0
	mv	a0,s0
.LVL777:
	call	bt_conn_lookup_handle
.LVL778:
	.loc 1 3513 2 is_stmt 1
	.loc 1 3513 5 is_stmt 0
	bne	a0,zero,.L500
	.loc 1 3514 3 is_stmt 1
	lui	a0,%hi(.LC2)
.LVL779:
	mv	a1,s0
	addi	a0,a0,%lo(.LC2)
	call	printf
.LVL780:
	.loc 1 3515 3
.L499:
	.loc 1 3525 1 is_stmt 0
	lw	ra,44(sp)
	.cfi_remember_state
	.cfi_restore 1
	lw	s0,40(sp)
	.cfi_restore 8
	lw	s1,36(sp)
	.cfi_restore 9
	lw	s2,32(sp)
	.cfi_restore 18
	lw	s3,28(sp)
	.cfi_restore 19
	addi	sp,sp,48
	.cfi_def_cfa_offset 0
	jr	ra
.LVL781:
.L500:
	.cfi_restore_state
	.loc 1 3518 6
	lbu	a1,3(s1)
	lbu	a2,7(s1)
	lbu	a6,2(s1)
	lbu	a5,6(s1)
	slli	a1,a1,8
	slli	a2,a2,8
	or	a1,a1,a6
	or	a2,a2,a5
	lbu	a6,4(s1)
	lbu	a5,8(s1)
	lbu	a3,11(s1)
	slli	a6,a6,16
	slli	a5,a5,16
	or	a6,a6,a1
	or	a5,a5,a2
	lbu	a1,5(s1)
	lbu	a2,9(s1)
	lbu	a7,10(s1)
	slli	a3,a3,8
	slli	a1,a1,24
	slli	a2,a2,24
	mv	a4,sp
	or	a3,a3,a7
	or	a1,a1,a6
	or	a2,a2,a5
	mv	s2,a0
	.loc 1 3518 2 is_stmt 1
	.loc 1 3518 6 is_stmt 0
	call	bt_smp_request_ltk
.LVL782:
	.loc 1 3518 5
	beq	a0,zero,.L502
	.loc 1 3519 3 is_stmt 1
.LVL783:
.LBB529:
.LBB530:
	.loc 1 3484 2
	.loc 1 3485 2
	.loc 1 3487 2
	.loc 1 3487 8 is_stmt 0
	li	s3,8192
	li	a1,18
	addi	a0,s3,26
	call	bt_hci_cmd_create
.LVL784:
	mv	s1,a0
.LVL785:
	.loc 1 3489 2 is_stmt 1
	.loc 1 3489 5 is_stmt 0
	bne	a0,zero,.L503
.LVL786:
.L505:
	.loc 1 3490 3 is_stmt 1
	lui	a0,%hi(.LC33)
	addi	a0,a0,%lo(.LC33)
	call	printf
.LVL787:
	.loc 1 3491 3
.L504:
.LBE530:
.LBE529:
	.loc 1 3524 2
	mv	a0,s2
	call	bt_conn_unref
.LVL788:
	j	.L499
.LVL789:
.L503:
.LBB532:
.LBB531:
	.loc 1 3494 2
	.loc 1 3494 7 is_stmt 0
	li	a1,18
	addi	a0,a0,8
	call	net_buf_simple_add
.LVL790:
	.loc 1 3495 2 is_stmt 1
	.loc 1 3495 13 is_stmt 0
	sb	s0,0(a0)
	srli	s0,s0,8
.LVL791:
	sb	s0,1(a0)
	.loc 1 3496 2 is_stmt 1
	mv	a1,sp
	li	a2,16
	addi	a0,a0,2
.LVL792:
	call	memcpy
.LVL793:
	.loc 1 3498 2
	mv	a1,s1
	addi	a0,s3,26
.LVL794:
.L510:
.LBE531:
.LBE532:
.LBB533:
.LBB534:
	.loc 1 3479 2 is_stmt 0
	call	bt_hci_cmd_send
.LVL795:
	j	.L504
.LVL796:
.L502:
.LBE534:
.LBE533:
	.loc 1 3521 3 is_stmt 1
.LBB536:
.LBB535:
	.loc 1 3466 2
	.loc 1 3467 2
	.loc 1 3469 2
	.loc 1 3469 8 is_stmt 0
	li	s3,8192
	li	a1,2
	addi	a0,s3,27
	call	bt_hci_cmd_create
.LVL797:
	mv	s1,a0
.LVL798:
	.loc 1 3470 2 is_stmt 1
	.loc 1 3470 5 is_stmt 0
	beq	a0,zero,.L505
	.loc 1 3476 2 is_stmt 1
	.loc 1 3476 7 is_stmt 0
	li	a1,2
	addi	a0,a0,8
	call	net_buf_simple_add
.LVL799:
	.loc 1 3477 2 is_stmt 1
	.loc 1 3477 13 is_stmt 0
	sb	s0,0(a0)
	srli	s0,s0,8
.LVL800:
	sb	s0,1(a0)
	.loc 1 3479 2 is_stmt 1
	mv	a1,s1
	addi	a0,s3,27
.LVL801:
	j	.L510
.LBE535:
.LBE536:
	.cfi_endproc
.LFE149:
	.size	le_ltk_request, .-le_ltk_request
	.section	.text.le_conn_param_neg_reply,"ax",@progbits
	.align	1
	.type	le_conn_param_neg_reply, @function
le_conn_param_neg_reply:
.LFB129:
	.loc 1 1679 1
	.cfi_startproc
.LVL802:
	.loc 1 1680 2
	.loc 1 1681 2
	.loc 1 1683 2
	.loc 1 1679 1 is_stmt 0
	addi	sp,sp,-32
	.cfi_def_cfa_offset 32
	sw	s2,16(sp)
	.cfi_offset 18, -16
	.loc 1 1683 8
	li	s2,8192
	.loc 1 1679 1
	sw	s0,24(sp)
	sw	s3,12(sp)
	.cfi_offset 8, -8
	.cfi_offset 19, -20
	mv	s0,a0
	mv	s3,a1
	.loc 1 1683 8
	addi	a0,s2,33
.LVL803:
	li	a1,3
.LVL804:
	.loc 1 1679 1
	sw	ra,28(sp)
	sw	s1,20(sp)
	.cfi_offset 1, -4
	.cfi_offset 9, -12
	.loc 1 1683 8
	call	bt_hci_cmd_create
.LVL805:
	.loc 1 1685 2 is_stmt 1
	.loc 1 1685 5 is_stmt 0
	bne	a0,zero,.L512
	.loc 1 1686 3 is_stmt 1
	.loc 1 1695 1 is_stmt 0
	lw	s0,24(sp)
	.cfi_remember_state
	.cfi_restore 8
	lw	ra,28(sp)
	.cfi_restore 1
	lw	s1,20(sp)
	.cfi_restore 9
	lw	s2,16(sp)
	.cfi_restore 18
	lw	s3,12(sp)
	.cfi_restore 19
	.loc 1 1686 3
	lui	a0,%hi(.LC34)
.LVL806:
	.loc 1 1695 1
	.loc 1 1686 3
	addi	a0,a0,%lo(.LC34)
	.loc 1 1695 1
	addi	sp,sp,32
	.cfi_def_cfa_offset 0
	.loc 1 1686 3
	tail	printf
.LVL807:
.L512:
	.cfi_restore_state
	mv	s1,a0
	.loc 1 1690 2 is_stmt 1
	.loc 1 1690 7 is_stmt 0
	li	a1,3
	addi	a0,a0,8
.LVL808:
	call	net_buf_simple_add
.LVL809:
	.loc 1 1691 2 is_stmt 1
	.loc 1 1691 13 is_stmt 0
	sb	s0,0(a0)
	srli	s0,s0,8
	sb	s0,1(a0)
	.loc 1 1692 2 is_stmt 1
	.loc 1 1692 13 is_stmt 0
	sb	s3,2(a0)
	.loc 1 1694 2 is_stmt 1
	.loc 1 1695 1 is_stmt 0
	lw	s0,24(sp)
	.cfi_restore 8
	lw	ra,28(sp)
	.cfi_restore 1
	lw	s3,12(sp)
	.cfi_restore 19
	.loc 1 1694 2
	mv	a1,s1
	addi	a0,s2,33
.LVL810:
	.loc 1 1695 1
	lw	s1,20(sp)
	.cfi_restore 9
.LVL811:
	lw	s2,16(sp)
	.cfi_restore 18
	addi	sp,sp,32
	.cfi_def_cfa_offset 0
	.loc 1 1694 2
	tail	bt_hci_cmd_send
.LVL812:
	.cfi_endproc
.LFE129:
	.size	le_conn_param_neg_reply, .-le_conn_param_neg_reply
	.section	.text.le_conn_param_req,"ax",@progbits
	.align	1
	.type	le_conn_param_req, @function
le_conn_param_req:
.LFB131:
	.loc 1 1721 1 is_stmt 1
	.cfi_startproc
.LVL813:
	.loc 1 1722 2
	.loc 1 1721 1 is_stmt 0
	addi	sp,sp,-48
	.cfi_def_cfa_offset 48
	sw	ra,44(sp)
	sw	s0,40(sp)
	sw	s1,36(sp)
	sw	s2,32(sp)
	sw	s3,28(sp)
	sw	s4,24(sp)
	.cfi_offset 1, -4
	.cfi_offset 8, -8
	.cfi_offset 9, -12
	.cfi_offset 18, -16
	.cfi_offset 19, -20
	.cfi_offset 20, -24
	.loc 1 1722 39
	lw	a5,8(a0)
.LVL814:
	.loc 1 1723 2 is_stmt 1
	.loc 1 1724 2
	.loc 1 1725 2
	.loc 1 1727 2
	.loc 1 1727 9 is_stmt 0
	lbu	s0,1(a5)
	lbu	a4,0(a5)
	.loc 1 1728 27
	lbu	a3,2(a5)
	.loc 1 1727 9
	slli	s0,s0,8
	or	s0,s0,a4
.LVL815:
	.loc 1 1728 2 is_stmt 1
	.loc 1 1728 27 is_stmt 0
	lbu	a4,3(a5)
	.loc 1 1733 9
	mv	a0,s0
.LVL816:
	.loc 1 1728 27
	slli	a4,a4,8
	or	a4,a4,a3
	.loc 1 1728 21
	sh	a4,8(sp)
	.loc 1 1729 2 is_stmt 1
	.loc 1 1729 27 is_stmt 0
	lbu	a4,5(a5)
	lbu	a3,4(a5)
	slli	a4,a4,8
	or	a4,a4,a3
	.loc 1 1729 21
	sh	a4,10(sp)
	.loc 1 1730 2 is_stmt 1
	.loc 1 1730 22 is_stmt 0
	lbu	a4,7(a5)
	lbu	a3,6(a5)
	slli	a4,a4,8
	or	a4,a4,a3
	.loc 1 1730 16
	sh	a4,12(sp)
	.loc 1 1731 2 is_stmt 1
	.loc 1 1731 22 is_stmt 0
	lbu	a4,8(a5)
	lbu	a5,9(a5)
.LVL817:
	slli	a5,a5,8
	or	a5,a5,a4
	.loc 1 1731 16
	sh	a5,14(sp)
	.loc 1 1733 2 is_stmt 1
	.loc 1 1733 9 is_stmt 0
	call	bt_conn_lookup_handle
.LVL818:
	.loc 1 1734 2 is_stmt 1
	.loc 1 1734 5 is_stmt 0
	bne	a0,zero,.L515
	.loc 1 1735 3 is_stmt 1
	lui	a0,%hi(.LC2)
.LVL819:
	mv	a1,s0
	addi	a0,a0,%lo(.LC2)
	call	printf
.LVL820:
	.loc 1 1736 3
	li	a1,2
	mv	a0,s0
	call	le_conn_param_neg_reply
.LVL821:
	.loc 1 1737 3
.L514:
	.loc 1 1747 1 is_stmt 0
	lw	ra,44(sp)
	.cfi_remember_state
	.cfi_restore 1
	lw	s0,40(sp)
	.cfi_restore 8
	lw	s1,36(sp)
	.cfi_restore 9
	lw	s2,32(sp)
	.cfi_restore 18
	lw	s3,28(sp)
	.cfi_restore 19
	lw	s4,24(sp)
	.cfi_restore 20
	addi	sp,sp,48
	.cfi_def_cfa_offset 0
	jr	ra
.LVL822:
.L515:
	.cfi_restore_state
	.loc 1 1740 7
	addi	a1,sp,8
	mv	s3,a0
	.loc 1 1740 2 is_stmt 1
	.loc 1 1740 7 is_stmt 0
	call	le_param_req
.LVL823:
	.loc 1 1740 5
	bne	a0,zero,.L517
	.loc 1 1741 3 is_stmt 1
	li	a1,30
	mv	a0,s0
	call	le_conn_param_neg_reply
.LVL824:
.L518:
	.loc 1 1746 2
	mv	a0,s3
	call	bt_conn_unref
.LVL825:
	j	.L514
.LVL826:
.L517:
	.loc 1 1743 3
.LBB539:
.LBB540:
	.loc 1 1700 2
	.loc 1 1701 2
	.loc 1 1703 2
	.loc 1 1703 8 is_stmt 0
	li	s4,8192
	li	a1,14
	addi	a0,s4,32
	call	bt_hci_cmd_create
.LVL827:
	mv	s2,a0
.LVL828:
	.loc 1 1704 2 is_stmt 1
	.loc 1 1704 5 is_stmt 0
	beq	a0,zero,.L518
	.loc 1 1708 2 is_stmt 1
	.loc 1 1708 7 is_stmt 0
	li	a1,14
	addi	a0,a0,8
.LVL829:
	call	net_buf_simple_add
.LVL830:
	mv	s1,a0
.LVL831:
	.loc 1 1709 2 is_stmt 1
	.loc 1 1709 8 is_stmt 0
	li	a2,14
	li	a1,0
	call	memset
.LVL832:
	.loc 1 1711 2 is_stmt 1
	.loc 1 1711 13 is_stmt 0
	sb	s0,0(s1)
	srli	s0,s0,8
.LVL833:
	sb	s0,1(s1)
	.loc 1 1712 2 is_stmt 1
	.loc 1 1712 19 is_stmt 0
	lbu	a5,8(sp)
	.loc 1 1717 9
	mv	a1,s2
	addi	a0,s4,32
	.loc 1 1712 19
	sb	a5,2(s1)
	lbu	a5,9(sp)
	sb	a5,3(s1)
	.loc 1 1713 2 is_stmt 1
	.loc 1 1713 19 is_stmt 0
	lhu	a5,10(sp)
	sb	a5,4(s1)
	srli	a5,a5,8
	sb	a5,5(s1)
	.loc 1 1714 2 is_stmt 1
	.loc 1 1714 14 is_stmt 0
	lbu	a5,12(sp)
	sb	a5,6(s1)
	lbu	a5,13(sp)
	sb	a5,7(s1)
	.loc 1 1715 2 is_stmt 1
	.loc 1 1715 14 is_stmt 0
	lhu	a5,14(sp)
	sb	a5,8(s1)
	srli	a5,a5,8
	sb	a5,9(s1)
	.loc 1 1717 2 is_stmt 1
	.loc 1 1717 9 is_stmt 0
	call	bt_hci_cmd_send
.LVL834:
	j	.L518
.LBE540:
.LBE539:
	.cfi_endproc
.LFE131:
	.size	le_conn_param_req, .-le_conn_param_req
	.section	.text.enh_conn_complete,"ax",@progbits
	.align	1
	.type	enh_conn_complete, @function
enh_conn_complete:
.LFB124:
	.loc 1 1246 1 is_stmt 1
	.cfi_startproc
.LVL835:
	.loc 1 1247 2
	.loc 1 1246 1 is_stmt 0
	addi	sp,sp,-48
	.cfi_def_cfa_offset 48
	sw	s1,36(sp)
	sw	s2,32(sp)
	sw	s3,28(sp)
	sw	ra,44(sp)
	sw	s0,40(sp)
	sw	s4,24(sp)
	sw	s5,20(sp)
	.cfi_offset 9, -12
	.cfi_offset 18, -16
	.cfi_offset 19, -20
	.cfi_offset 1, -4
	.cfi_offset 8, -8
	.cfi_offset 20, -24
	.cfi_offset 21, -28
	.loc 1 1247 8
	lbu	s4,2(a0)
	lbu	a5,1(a0)
.LBB553:
.LBB554:
	.loc 2 352 8
	lui	s2,%hi(.LANCHOR2)
.LBE554:
.LBE553:
	.loc 1 1246 1
	mv	s1,a0
.LBB558:
.LBB555:
	.loc 2 352 8
	li	a1,-131072
	addi	a0,s2,%lo(.LANCHOR2)
.LVL836:
.LBE555:
.LBE558:
	.loc 1 1247 8
	slli	s4,s4,8
.LBB559:
.LBB556:
	.loc 2 352 8
	addi	a1,a1,-1
	addi	a0,a0,108
.LBE556:
.LBE559:
	.loc 1 1247 8
	or	s4,s4,a5
.LVL837:
	.loc 1 1248 2 is_stmt 1
	.loc 1 1249 2
	.loc 1 1250 2
	.loc 1 1253 52
	.loc 1 1256 2
.LBB560:
.LBB557:
	.loc 2 349 2
	.loc 2 350 2
	.loc 2 352 2
	.loc 2 352 8 is_stmt 0
	call	atomic_and
.LVL838:
	.loc 2 354 2 is_stmt 1
	lui	s3,%hi(.LANCHOR2+108)
.LBE557:
.LBE560:
	.loc 1 1256 5 is_stmt 0
	slli	a5,a0,14
	addi	s2,s2,%lo(.LANCHOR2)
	addi	s3,s3,%lo(.LANCHOR2+108)
	bge	a5,zero,.L524
	.loc 1 1257 3 is_stmt 1
	lui	a1,%hi(update_pending_id)
	li	a2,0
	addi	a1,a1,%lo(update_pending_id)
	li	a0,2
	call	bt_keys_foreach
.LVL839:
.L524:
	.loc 1 1261 2
	.loc 1 1261 5 is_stmt 0
	lbu	a5,0(s1)
	beq	a5,zero,.L525
	.loc 1 1269 3 is_stmt 1
	.loc 1 1269 10 is_stmt 0
	li	a0,0
	call	find_pending_connect
.LVL840:
	mv	s0,a0
.LVL841:
	.loc 1 1270 3 is_stmt 1
	.loc 1 1270 6 is_stmt 0
	beq	a0,zero,.L523
	.loc 1 1274 3 is_stmt 1
	.loc 1 1274 18 is_stmt 0
	lbu	a1,0(s1)
	.loc 1 1281 7
	li	a5,60
	.loc 1 1274 13
	sb	a1,12(a0)
	.loc 1 1276 3 is_stmt 1
	.loc 1 1281 4
	.loc 1 1281 7 is_stmt 0
	bne	a1,a5,.L527
	.loc 1 1282 5 is_stmt 1
.LVL842:
.LBB561:
.LBB562:
	.loc 2 391 2
	.loc 2 393 2
	li	a1,-65
	mv	a0,s3
	call	atomic_and
.LVL843:
.LBE562:
.LBE561:
	.loc 1 1284 5
	li	a1,0
	mv	a0,s0
.L569:
	.loc 1 1299 5 is_stmt 0
	call	bt_conn_set_state
.LVL844:
	.loc 1 1309 5 is_stmt 1
.L528:
	.loc 1 1490 2
	mv	a0,s0
	call	bt_conn_unref
.LVL845:
	.loc 1 1491 2
	.loc 1 1492 3
	li	a0,0
	call	bt_le_scan_update
.LVL846:
	j	.L523
.LVL847:
.L527:
	.loc 1 1290 3
	.loc 1 1294 4
	.loc 1 1294 7 is_stmt 0
	li	a5,2
	bne	a1,a5,.L529
	.loc 1 1299 5 is_stmt 1
	li	a1,0
	j	.L569
.L529:
	.loc 1 1313 3
	lui	a0,%hi(.LC35)
	addi	a0,a0,%lo(.LC35)
	call	printf
.LVL848:
	.loc 1 1315 3
	mv	a0,s0
	call	bt_conn_unref
.LVL849:
	.loc 1 1317 3
.L523:
	.loc 1 1494 1 is_stmt 0
	lw	ra,44(sp)
	.cfi_remember_state
	.cfi_restore 1
	lw	s0,40(sp)
	.cfi_restore 8
.LVL850:
	lw	s1,36(sp)
	.cfi_restore 9
	lw	s2,32(sp)
	.cfi_restore 18
	lw	s3,28(sp)
	.cfi_restore 19
	lw	s4,24(sp)
	.cfi_restore 20
.LVL851:
	lw	s5,20(sp)
	.cfi_restore 21
	addi	sp,sp,48
	.cfi_def_cfa_offset 0
	jr	ra
.LVL852:
.L525:
	.cfi_restore_state
	.loc 1 1320 2 is_stmt 1
	.loc 1 1320 28 is_stmt 0
	addi	s0,s1,4
	.loc 1 1320 2
	mv	a1,s0
	addi	a0,sp,8
	call	bt_addr_le_copy
.LVL853:
	.loc 1 1323 2 is_stmt 1
	.loc 1 1323 27 is_stmt 0
	lbu	a5,8(sp)
	.loc 1 1323 5
	li	s5,1
	.loc 1 1323 27
	addi	a5,a5,-2
	andi	a5,a5,0xff
	.loc 1 1323 5
	bgtu	a5,s5,.L530
	.loc 1 1325 3 is_stmt 1
.LBB563:
.LBB564:
	.loc 3 60 2 is_stmt 0
	li	a2,6
	addi	a1,s1,17
	addi	a0,sp,1
.LBE564:
.LBE563:
	.loc 1 1325 16
	sb	a5,8(sp)
	.loc 1 1326 3 is_stmt 1
.LVL854:
.LBB566:
.LBB565:
	.loc 3 60 2
	call	memcpy
.LVL855:
.LBE565:
.LBE566:
	.loc 1 1327 3
	.loc 1 1327 18 is_stmt 0
	sb	s5,0(sp)
.L531:
	.loc 1 1332 2 is_stmt 1
	.loc 1 1332 9 is_stmt 0
	addi	a0,sp,8
	call	find_pending_connect
.LVL856:
	.loc 1 1334 5
	lbu	a4,3(s1)
	li	a5,1
	.loc 1 1332 9
	mv	s0,a0
.LVL857:
	.loc 1 1334 2 is_stmt 1
	.loc 1 1334 5 is_stmt 0
	bne	a4,a5,.L532
	.loc 1 1340 3 is_stmt 1
.LVL858:
.LBB567:
.LBB568:
	.loc 2 391 2
	.loc 2 393 2
	li	a1,-65
	mv	a0,s3
	call	atomic_and
.LVL859:
.LBE568:
.LBE567:
	.loc 1 1343 3
	.loc 1 1343 6 is_stmt 0
	bne	s0,zero,.L532
	.loc 1 1344 4 is_stmt 1
	.loc 1 1344 11 is_stmt 0
	lbu	a0,8(s2)
	addi	a1,sp,8
	call	bt_conn_add_le
.LVL860:
	mv	s0,a0
.LVL861:
.L532:
	.loc 1 1348 2 is_stmt 1
	.loc 1 1348 5 is_stmt 0
	lbu	a5,3(s1)
	bne	a5,zero,.L533
	.loc 1 1352 3 is_stmt 1
	.loc 1 1352 6 is_stmt 0
	bne	s0,zero,.L534
	.loc 1 1353 4 is_stmt 1
	.loc 1 1353 11 is_stmt 0
	addi	a1,sp,8
	li	a0,0
	call	bt_conn_add_le
.LVL862:
	mv	s0,a0
.LVL863:
.L533:
	.loc 1 1357 2 is_stmt 1
	.loc 1 1357 5 is_stmt 0
	bne	s0,zero,.L534
	.loc 1 1358 3 is_stmt 1
	lui	a0,%hi(.LC36)
	mv	a1,s4
	addi	a0,a0,%lo(.LC36)
	call	printf
.LVL864:
	.loc 1 1359 3
	j	.L523
.LVL865:
.L530:
	.loc 1 1329 3
	mv	a1,s0
	mv	a0,sp
	call	bt_addr_le_copy
.LVL866:
	j	.L531
.LVL867:
.L534:
	.loc 1 1362 2
	.loc 1 1362 15 is_stmt 0
	sh	s4,0(s0)
	.loc 1 1363 2 is_stmt 1
	addi	a1,sp,8
	addi	a0,s0,112
	call	bt_addr_le_copy
.LVL868:
	.loc 1 1364 2
	.loc 1 1364 26 is_stmt 0
	lbu	a5,24(s1)
	lbu	a4,23(s1)
	slli	a5,a5,8
	or	a5,a5,a4
	.loc 1 1364 20
	sh	a5,134(s0)
	.loc 1 1365 2 is_stmt 1
	.loc 1 1365 25 is_stmt 0
	lbu	a5,26(s1)
	lbu	a4,25(s1)
	slli	a5,a5,8
	or	a5,a5,a4
	.loc 1 1365 19
	sh	a5,140(s0)
	.loc 1 1366 2 is_stmt 1
	.loc 1 1366 25 is_stmt 0
	lbu	a5,28(s1)
	lbu	a4,27(s1)
	slli	a5,a5,8
	or	a5,a5,a4
	.loc 1 1366 19
	sh	a5,142(s0)
	.loc 1 1367 2 is_stmt 1
	.loc 1 1367 18 is_stmt 0
	lbu	a5,3(s1)
	.loc 1 1375 5
	li	a4,1
	.loc 1 1368 12
	sb	zero,12(s0)
	.loc 1 1367 13
	sb	a5,3(s0)
	.loc 1 1368 2 is_stmt 1
	.loc 1 1375 2
	.loc 1 1375 5 is_stmt 0
	bne	a5,a4,.L536
	.loc 1 1377 3 is_stmt 1
	mv	a1,sp
	addi	a0,s0,119
	call	bt_addr_le_copy
.LVL869:
	.loc 1 1379 3
	.loc 1 1390 4
	.loc 1 1391 6 is_stmt 0
	lbu	a1,8(s0)
	li	a5,7
	.loc 1 1390 4
	addi	a0,s0,126
	.loc 1 1391 6
	mul	a1,a1,a5
	.loc 1 1390 4
	add	a1,s2,a1
	call	bt_addr_le_copy
.LVL870:
	.loc 1 1406 3 is_stmt 1
	.loc 1 1406 7 is_stmt 0
	li	a1,9
	mv	a0,s3
	call	atomic_test_bit
.LVL871:
	.loc 1 1406 6
	beq	a0,zero,.L536
	.loc 1 1407 25 discriminator 1
	lw	a5,124(s2)
	andi	a5,a5,64
	.loc 1 1406 62 discriminator 1
	beq	a5,zero,.L536
	.loc 1 1408 4 is_stmt 1 discriminator 1
	.loc 1 1412 4 discriminator 1
	li	a0,1
	call	set_advertise_enable
.LVL872:
.L536:
	.loc 1 1416 2
	.loc 1 1416 5 is_stmt 0
	lbu	a5,3(s0)
	bne	a5,zero,.L539
	.loc 1 1419 3 is_stmt 1
	.loc 1 1420 7 is_stmt 0
	li	a1,15
	mv	a0,s3
	call	atomic_test_bit
.LVL873:
	.loc 1 1419 6
	beq	a0,zero,.L540
	.loc 1 1421 4 is_stmt 1
.LBB569:
.LBB570:
	.loc 2 393 2 is_stmt 0
	li	a1,-32768
.LBE570:
.LBE569:
	.loc 1 1421 13
	sb	zero,8(s0)
	.loc 1 1422 4 is_stmt 1
.LVL874:
.LBB572:
.LBB571:
	.loc 2 391 2
	.loc 2 393 2
	addi	a1,a1,-1
	mv	a0,s3
	call	atomic_and
.LVL875:
.L540:
.LBE571:
.LBE572:
	.loc 1 1425 3
	mv	a1,sp
	addi	a0,s0,126
	call	bt_addr_le_copy
.LVL876:
	.loc 1 1427 3
	.loc 1 1438 4
	.loc 1 1439 6 is_stmt 0
	lbu	a1,8(s0)
	li	a5,7
	.loc 1 1438 4
	addi	a0,s0,119
	.loc 1 1439 6
	mul	a1,a1,a5
	.loc 1 1438 4
	add	a1,s2,a1
	call	bt_addr_le_copy
.LVL877:
.L539:
	.loc 1 1451 2 is_stmt 1
	li	a1,4
	mv	a0,s0
	call	bt_conn_set_state
.LVL878:
	.loc 1 1458 2
	.loc 1 1458 5 is_stmt 0
	lbu	a4,13(s0)
	li	a5,4
	bne	a4,a5,.L528
	.loc 1 1462 2 is_stmt 1
	.loc 1 1462 5 is_stmt 0
	lbu	a5,3(s1)
	beq	a5,zero,.L541
	.loc 1 1462 26 discriminator 1
	lbu	a5,112(s2)
	andi	a5,a5,8
	beq	a5,zero,.L542
.L541:
	.loc 1 1464 3 is_stmt 1
.LVL879:
.LBB573:
.LBB574:
	.loc 1 1097 2
	.loc 1 1098 2
	.loc 1 1100 2
	.loc 1 1100 8 is_stmt 0
	li	s2,8192
	li	a1,2
	addi	a0,s2,22
	call	bt_hci_cmd_create
.LVL880:
	mv	s1,a0
.LVL881:
	.loc 1 1102 2 is_stmt 1
	.loc 1 1102 5 is_stmt 0
	beq	a0,zero,.L542
	.loc 1 1106 2 is_stmt 1
	.loc 1 1106 7 is_stmt 0
	li	a1,2
	addi	a0,a0,8
	call	net_buf_simple_add
.LVL882:
	.loc 1 1107 2 is_stmt 1
	.loc 1 1107 20 is_stmt 0
	lhu	a5,0(s0)
	.loc 1 1108 2
	mv	a1,s1
	.loc 1 1107 13
	sb	a5,0(a0)
	srli	a5,a5,8
	sb	a5,1(a0)
	.loc 1 1108 2 is_stmt 1
	addi	a0,s2,22
.LVL883:
	call	bt_hci_cmd_send
.LVL884:
	.loc 1 1110 2
.LBE574:
.LBE573:
	.loc 1 1465 3
	j	.L528
.LVL885:
.L542:
	.loc 1 1470 2
	.loc 1 1479 2
	.loc 1 1484 2
	.loc 1 1484 5 is_stmt 0
	lbu	a4,3(s0)
	li	a5,1
	bne	a4,a5,.L528
	.loc 1 1486 3 is_stmt 1
	mv	a0,s0
	call	slave_update_conn_param
.LVL886:
	j	.L528
	.cfi_endproc
.LFE124:
	.size	enh_conn_complete, .-enh_conn_complete
	.section	.text.le_enh_conn_complete,"ax",@progbits
	.align	1
	.type	le_enh_conn_complete, @function
le_enh_conn_complete:
.LFB125:
	.loc 1 1497 1
	.cfi_startproc
.LVL887:
	.loc 1 1498 2
	lw	a0,8(a0)
.LVL888:
	tail	enh_conn_complete
.LVL889:
	.cfi_endproc
.LFE125:
	.size	le_enh_conn_complete, .-le_enh_conn_complete
	.section	.text.le_legacy_conn_complete,"ax",@progbits
	.align	1
	.type	le_legacy_conn_complete, @function
le_legacy_conn_complete:
.LFB126:
	.loc 1 1502 1
	.cfi_startproc
.LVL890:
	.loc 1 1503 2
	.loc 1 1502 1 is_stmt 0
	addi	sp,sp,-64
	.cfi_def_cfa_offset 64
	sw	ra,60(sp)
	sw	s1,52(sp)
	sw	s0,56(sp)
	.cfi_offset 1, -4
	.cfi_offset 9, -12
	.cfi_offset 8, -8
	.loc 1 1503 38
	lw	s0,8(a0)
.LVL891:
	.loc 1 1504 2 is_stmt 1
	.loc 1 1505 2
	.loc 1 1508 41
	.loc 1 1510 2
	.loc 1 1518 2 is_stmt 0
	addi	s1,sp,20
	mv	a0,s1
.LVL892:
	.loc 1 1510 18
	lbu	a5,0(s0)
	.loc 1 1511 18
	lbu	a4,1(s0)
	.loc 1 1518 2
	addi	a1,s0,4
	.loc 1 1510 13
	sb	a5,16(sp)
	.loc 1 1511 2 is_stmt 1
	.loc 1 1511 18 is_stmt 0
	lbu	a5,2(s0)
	slli	a5,a5,8
	or	a5,a5,a4
	.loc 1 1511 13
	sb	a5,17(sp)
	srli	a5,a5,8
	sb	a5,18(sp)
	.loc 1 1512 2 is_stmt 1
	.loc 1 1512 16 is_stmt 0
	lbu	a5,3(s0)
	.loc 1 1512 11
	sb	a5,19(sp)
	.loc 1 1513 2 is_stmt 1
	.loc 1 1513 20 is_stmt 0
	lbu	a5,12(s0)
	lbu	a4,11(s0)
	slli	a5,a5,8
	or	a5,a5,a4
	.loc 1 1513 15
	sb	a5,39(sp)
	srli	a5,a5,8
	sb	a5,40(sp)
	.loc 1 1514 2 is_stmt 1
	.loc 1 1514 19 is_stmt 0
	lbu	a5,14(s0)
	lbu	a4,13(s0)
	slli	a5,a5,8
	or	a5,a5,a4
	.loc 1 1514 14
	sb	a5,41(sp)
	srli	a5,a5,8
	sb	a5,42(sp)
	.loc 1 1515 2 is_stmt 1
	.loc 1 1515 24 is_stmt 0
	lbu	a5,16(s0)
	lbu	a4,15(s0)
	slli	a5,a5,8
	or	a5,a5,a4
	.loc 1 1515 19
	sb	a5,43(sp)
	srli	a5,a5,8
	sb	a5,44(sp)
	.loc 1 1516 2 is_stmt 1
	.loc 1 1516 26 is_stmt 0
	lbu	a5,17(s0)
	.loc 1 1516 21
	sb	a5,45(sp)
	.loc 1 1518 2 is_stmt 1
	call	bt_addr_le_copy
.LVL893:
	.loc 1 1520 2
	.loc 1 1523 3
.LBB581:
.LBB582:
	.loc 3 60 2 is_stmt 0
	mv	a1,sp
	li	a2,6
	addi	a0,sp,27
.LBE582:
.LBE581:
	.loc 1 1523 46
	sw	zero,0(sp)
	sh	zero,4(sp)
.LVL894:
.LBB584:
.LBB583:
	.loc 3 60 2 is_stmt 1
	call	memcpy
.LVL895:
.LBE583:
.LBE584:
	.loc 1 1526 2
	.loc 1 1526 5 is_stmt 0
	lbu	a4,3(s0)
	li	a5,1
	.loc 1 1527 13
	mv	a1,s1
	.loc 1 1529 13
	li	a0,0
	.loc 1 1526 5
	bne	a4,a5,.L577
	.loc 1 1527 3 is_stmt 1
	.loc 1 1527 13 is_stmt 0
	lui	a5,%hi(.LANCHOR2+8)
	lbu	a0,%lo(.LANCHOR2+8)(a5)
.L577:
	.loc 1 1529 13
	call	bt_lookup_id_addr
.LVL896:
	mv	s0,a0
.LVL897:
	.loc 1 1532 2 is_stmt 1
	.loc 1 1532 5 is_stmt 0
	beq	a0,s1,.L574
	.loc 1 1533 3 is_stmt 1
.LVL898:
.LBB585:
.LBB586:
	.loc 3 60 2
	li	a2,6
	addi	a1,sp,21
.LVL899:
	addi	a0,sp,33
.LVL900:
	call	memcpy
.LVL901:
.LBE586:
.LBE585:
	.loc 1 1534 3
	mv	a1,s0
	mv	a0,s1
	call	bt_addr_le_copy
.LVL902:
	.loc 1 1535 3
	.loc 1 1535 22 is_stmt 0
	lbu	a5,20(sp)
	addi	a5,a5,2
	sb	a5,20(sp)
.L575:
	.loc 1 1540 2 is_stmt 1
	addi	a0,sp,16
	call	enh_conn_complete
.LVL903:
	.loc 1 1541 1 is_stmt 0
	lw	ra,60(sp)
	.cfi_remember_state
	.cfi_restore 1
	lw	s0,56(sp)
	.cfi_restore 8
.LVL904:
	lw	s1,52(sp)
	.cfi_restore 9
	addi	sp,sp,64
	.cfi_def_cfa_offset 0
	jr	ra
.LVL905:
.L574:
	.cfi_restore_state
	.loc 1 1537 3 is_stmt 1
.LBB587:
.LBB588:
	.loc 3 60 2 is_stmt 0
	li	a2,6
	addi	a1,sp,8
	addi	a0,sp,33
.LBE588:
.LBE587:
	.loc 1 1537 45
	sw	zero,8(sp)
	sh	zero,12(sp)
.LVL906:
.LBB590:
.LBB589:
	.loc 3 60 2 is_stmt 1
	call	memcpy
.LVL907:
	j	.L575
.LBE589:
.LBE590:
	.cfi_endproc
.LFE126:
	.size	le_legacy_conn_complete, .-le_legacy_conn_complete
	.section	.text.hci_tx_thread,"ax",@progbits
	.align	1
	.type	hci_tx_thread, @function
hci_tx_thread:
.LFB167:
	.loc 1 4232 1
	.cfi_startproc
.LVL908:
	addi	sp,sp,-48
	.cfi_def_cfa_offset 48
	sw	s0,40(sp)
	sw	s1,36(sp)
	.cfi_offset 8, -8
	.cfi_offset 9, -12
.LBB597:
.LBB598:
.LBB599:
.LBB600:
.LBB601:
	.loc 1 4130 8 is_stmt 0
	lui	s0,%hi(.LANCHOR2)
.LBE601:
.LBE600:
.LBE599:
.LBE598:
	.loc 1 4245 19
	lui	s1,%hi(.LANCHOR10)
.LBE597:
	.loc 1 4232 1
	sw	s4,24(sp)
.LBB623:
	.loc 1 4245 19
	addi	s1,s1,%lo(.LANCHOR10)
	.cfi_offset 20, -24
	li	s4,-61440
.LBB618:
.LBB613:
.LBB607:
.LBB602:
	.loc 1 4130 8
	addi	s0,s0,%lo(.LANCHOR2)
.LBE602:
.LBE607:
.LBE613:
.LBE618:
.LBE623:
	.loc 1 4232 1
	sw	s7,12(sp)
	sw	s8,8(sp)
	sw	ra,44(sp)
	sw	s2,32(sp)
	sw	s3,28(sp)
	sw	s5,20(sp)
	sw	s6,16(sp)
	sw	s9,4(sp)
	sw	s10,0(sp)
	.cfi_offset 23, -36
	.cfi_offset 24, -40
	.cfi_offset 1, -4
	.cfi_offset 18, -16
	.cfi_offset 19, -20
	.cfi_offset 21, -28
	.cfi_offset 22, -32
	.cfi_offset 25, -44
	.cfi_offset 26, -48
.LBB624:
	.loc 1 4245 19
	addi	s4,s4,-1
	.loc 1 4249 16
	addi	s7,s1,20
.LBB619:
.LBB614:
.LBB608:
.LBB603:
	.loc 1 4130 8
	addi	s8,s0,168
.LVL909:
.L590:
.LBE603:
.LBE608:
.LBE614:
.LBE619:
.LBE624:
	.loc 1 4233 2 is_stmt 1
	.loc 1 4240 2
	.loc 1 4242 2
.LBB625:
	.loc 1 4243 3
	.loc 1 4245 3
	.loc 1 4245 19 is_stmt 0
	lw	a5,12(s1)
	.loc 1 4249 16
	mv	a0,s7
	.loc 1 4245 19
	and	a5,a5,s4
	sw	a5,12(s1)
	.loc 1 4246 3 is_stmt 1
.LVL910:
	.loc 1 4248 3
	.loc 1 4249 4
	.loc 1 4249 16 is_stmt 0
	call	bt_conn_prepare_events
.LVL911:
	.loc 1 4249 13
	addi	s3,a0,1
.LVL912:
	.loc 1 4252 3 is_stmt 1
	.loc 1 4254 3
	.loc 1 4254 9 is_stmt 0
	li	a2,-1
	mv	a1,s3
	mv	a0,s1
	call	k_poll
.LVL913:
	.loc 1 4255 3 is_stmt 1
	.loc 1 4255 5 is_stmt 0
	beq	a0,zero,.L579
	.loc 1 4255 27 is_stmt 1 discriminator 1
	call	user_vAssertCalled
.LVL914:
.L579:
	lui	s5,%hi(.LANCHOR2+152)
.LBB620:
.LBB615:
.LBB609:
.LBB604:
	.loc 1 4153 3 is_stmt 0
	lui	s6,%hi(.LANCHOR8)
.LBE604:
.LBE609:
.LBE615:
.LBE620:
.LBE625:
	.loc 1 4232 1
	mv	s2,s1
	addi	s5,s5,%lo(.LANCHOR2+152)
.LBB626:
.LBB621:
.LBB616:
.LBB610:
.LBB605:
	.loc 1 4151 3
	lui	s9,%hi(.LC30)
	.loc 1 4153 3
	addi	s6,s6,%lo(.LANCHOR8)
.LVL915:
.L580:
.LBE605:
.LBE610:
	.loc 1 4165 2
	bne	s3,zero,.L589
.LVL916:
.LBE616:
.LBE621:
	.loc 1 4262 3 is_stmt 1
	call	k_yield
.LVL917:
.LBE626:
	.loc 1 4242 12 is_stmt 0
	j	.L590
.LVL918:
.L589:
.LBB627:
.LBB622:
.LBB617:
	.loc 1 4166 3 is_stmt 1
	.loc 1 4168 3
	.loc 1 4168 13 is_stmt 0
	lw	a1,12(s2)
	.loc 1 4168 3
	li	a5,2
	.loc 1 4168 13
	srli	a1,a1,12
	andi	a1,a1,15
	.loc 1 4168 3
	beq	a1,a5,.L581
	li	a5,4
	beq	a1,a5,.L582
	bne	a1,zero,.L600
.L581:
	.loc 1 4165 18
	addi	s2,s2,20
.LVL919:
	.loc 1 4165 27
	addi	s3,s3,-1
.LVL920:
	j	.L580
.L582:
	.loc 1 4172 4 is_stmt 1
	.loc 1 4172 10 is_stmt 0
	lbu	a5,12(s2)
	.loc 1 4172 7
	bne	a5,zero,.L584
	.loc 1 4173 5 is_stmt 1
.LBB611:
.LBB606:
	.loc 1 4125 2
	.loc 1 4126 2
	.loc 1 4129 2
	.loc 1 4130 2
	.loc 1 4130 8 is_stmt 0
	li	a1,0
	mv	a0,s8
	call	net_buf_get
.LVL921:
	mv	s10,a0
.LVL922:
	.loc 1 4131 2 is_stmt 1
	.loc 1 4131 4 is_stmt 0
	bne	a0,zero,.L585
	.loc 1 4131 21 is_stmt 1
	call	user_vAssertCalled
.LVL923:
.L585:
	.loc 1 4134 2
	.loc 1 4135 2
	li	a1,-1
	addi	a0,s0,152
	call	k_sem_take
.LVL924:
	.loc 1 4138 2
	.loc 1 4138 5 is_stmt 0
	lw	a5,164(s0)
	beq	a5,zero,.L586
	.loc 1 4139 3 is_stmt 1
	lui	a0,%hi(.LC37)
	addi	a0,a0,%lo(.LC37)
	call	printf
.LVL925:
	.loc 1 4140 3
	lw	a0,164(s0)
	call	net_buf_unref
.LVL926:
	.loc 1 4141 3
	.loc 1 4141 19 is_stmt 0
	sw	zero,164(s0)
.L586:
	.loc 1 4144 2 is_stmt 1
	.loc 1 4144 20 is_stmt 0
	mv	a0,s10
	call	net_buf_ref
.LVL927:
	.loc 1 4144 18
	sw	a0,164(s0)
	.loc 1 4147 31 is_stmt 1
	.loc 1 4149 2
	.loc 1 4149 8 is_stmt 0
	mv	a0,s10
	call	bt_send
.LVL928:
	mv	a1,a0
.LVL929:
	.loc 1 4150 2 is_stmt 1
	.loc 1 4150 5 is_stmt 0
	beq	a0,zero,.L581
	.loc 1 4151 3 is_stmt 1
	addi	a0,s9,%lo(.LC30)
.LVL930:
	call	printf
.LVL931:
	.loc 1 4152 3
	mv	a0,s5
	call	k_sem_give
.LVL932:
	.loc 1 4153 3
	.loc 1 4153 27 is_stmt 0
	mv	a0,s10
	call	net_buf_id
.LVL933:
	.loc 1 4153 3
	li	a5,12
	mul	a0,a0,a5
	li	a2,0
	li	a1,31
	add	a0,s6,a0
	lhu	a0,2(a0)
	call	hci_cmd_done
.LVL934:
	.loc 1 4155 3 is_stmt 1
	lw	a0,164(s0)
	call	net_buf_unref
.LVL935:
	.loc 1 4156 3
	.loc 1 4157 3 is_stmt 0
	mv	a0,s10
	.loc 1 4156 19
	sw	zero,164(s0)
	.loc 1 4157 3 is_stmt 1
	call	net_buf_unref
.LVL936:
	j	.L581
.LVL937:
.L584:
.LBE606:
.LBE611:
	.loc 1 4174 11
.LBB612:
	.loc 1 4175 5
	.loc 1 4177 5
	.loc 1 4177 8 is_stmt 0
	li	a4,1
	bne	a5,a4,.L581
	.loc 1 4178 6 is_stmt 1
.LVL938:
	.loc 1 4181 6
	.loc 1 4178 11 is_stmt 0
	lw	a0,16(s2)
	.loc 1 4181 6
	addi	a0,a0,-52
.LVL939:
	call	bt_conn_process_tx
.LVL940:
	j	.L581
.L600:
.LBE612:
	.loc 1 4188 4 is_stmt 1
	lui	a0,%hi(.LC38)
	addi	a0,a0,%lo(.LC38)
	call	printf
.LVL941:
	.loc 1 4189 4
	j	.L581
.LBE617:
.LBE622:
.LBE627:
	.cfi_endproc
.LFE167:
	.size	hci_tx_thread, .-hci_tx_thread
	.section	.text.bt_recv,"ax",@progbits
	.align	1
	.globl	bt_recv
	.type	bt_recv, @function
bt_recv:
.LFB189:
	.loc 1 5220 1
	.cfi_startproc
.LVL942:
	.loc 1 5221 2
	.loc 1 5223 2
	.loc 1 5225 2
.LBB638:
.LBB639:
	.loc 8 112 2
.LBE639:
.LBE638:
	.loc 5 1063 2
	.loc 1 5220 1 is_stmt 0
	addi	sp,sp,-32
	.cfi_def_cfa_offset 32
	sw	s0,24(sp)
	sw	ra,28(sp)
	sw	s1,20(sp)
	sw	s2,16(sp)
	.cfi_offset 8, -8
	.cfi_offset 1, -4
	.cfi_offset 9, -12
	.cfi_offset 18, -16
.LBB641:
.LBB640:
	.loc 8 112 9
	lbu	a1,20(a0)
.LVL943:
.LBE640:
.LBE641:
	.loc 1 5225 2
	li	a5,1
	.loc 1 5220 1
	mv	s0,a0
	.loc 1 5225 2
	beq	a1,a5,.L603
	li	a5,3
	bne	a1,a5,.L604
	.loc 1 5229 3 is_stmt 1
.LVL944:
.LBB642:
.LBB643:
	.loc 1 709 2
	.loc 1 710 2
	.loc 1 711 2
	.loc 1 712 2
	.loc 1 714 2
	.loc 1 716 2
	.loc 1 716 4 is_stmt 0
	lhu	a5,12(a0)
	bgtu	a5,a1,.L605
	.loc 1 716 42 is_stmt 1
	call	user_vAssertCalled
.LVL945:
.L605:
	.loc 1 718 2
	.loc 1 718 8 is_stmt 0
	li	a1,4
	addi	a0,s0,8
	call	net_buf_simple_pull_mem
.LVL946:
	.loc 1 719 2 is_stmt 1
	.loc 1 719 6 is_stmt 0
	lbu	a2,3(a0)
	lbu	a5,2(a0)
	.loc 1 720 9
	lbu	s1,1(a0)
	.loc 1 719 6
	slli	a2,a2,8
	or	a2,a2,a5
.LVL947:
	.loc 1 720 2 is_stmt 1
	.loc 1 720 9 is_stmt 0
	lbu	a5,0(a0)
	slli	s1,s1,8
	.loc 1 728 9
	lhu	a1,12(s0)
	.loc 1 720 9
	or	s1,s1,a5
.LVL948:
	.loc 1 721 2 is_stmt 1
	.loc 1 723 2
.LBE643:
.LBE642:
	.loc 5 1063 2
.LBB650:
.LBB644:
	.loc 1 723 66 is_stmt 0
	slli	a0,s1,20
.LVL949:
	srli	a0,a0,20
	.loc 1 724 50
	li	a5,-1
	.loc 1 723 54
	sh	a0,22(s0)
	.loc 1 724 2 is_stmt 1
.LVL950:
.LBE644:
.LBE650:
	.loc 5 1063 2
.LBB651:
.LBB645:
	.loc 1 724 50 is_stmt 0
	sb	a5,21(s0)
	.loc 1 726 2 is_stmt 1
	.loc 1 728 2
	.loc 1 728 5 is_stmt 0
	beq	a2,a1,.L606
	.loc 1 729 3 is_stmt 1
	lui	a0,%hi(.LC39)
	addi	a0,a0,%lo(.LC39)
	call	printf
.LVL951:
	.loc 1 730 3
.L616:
.LBE645:
.LBE651:
.LBB652:
.LBB653:
	.loc 1 4120 2
	mv	a0,s0
	call	net_buf_unref
.LVL952:
	j	.L615
.LVL953:
.L606:
.LBE653:
.LBE652:
.LBB656:
.LBB646:
	.loc 1 734 2
.LBE646:
.LBE656:
	.loc 5 1063 2
.LBB657:
.LBB647:
	.loc 1 734 9 is_stmt 0
	call	bt_conn_lookup_handle
.LVL954:
	mv	s2,a0
.LVL955:
	.loc 1 735 2 is_stmt 1
	.loc 1 735 5 is_stmt 0
	bne	a0,zero,.L608
	.loc 1 736 3 is_stmt 1
.LVL956:
.LBE647:
.LBE657:
	.loc 5 1063 2
.LBB658:
.LBB648:
	.loc 1 736 3 is_stmt 0
	lhu	a1,22(s0)
	lui	a0,%hi(.LC40)
.LVL957:
	addi	a0,a0,%lo(.LC40)
	call	printf
.LVL958:
	.loc 1 737 3 is_stmt 1
	j	.L616
.LVL959:
.L608:
	.loc 1 741 2
.LBE648:
.LBE658:
	.loc 5 1063 2
.LBB659:
.LBB649:
	.loc 1 741 52 is_stmt 0
	call	bt_conn_index
.LVL960:
	.loc 1 741 50
	sb	a0,21(s0)
	.loc 1 743 2 is_stmt 1
	srli	a2,s1,12
	mv	a0,s2
	mv	a1,s0
	call	bt_conn_recv
.LVL961:
	.loc 1 744 2
	mv	a0,s2
	call	bt_conn_unref
.LVL962:
.L615:
.LBE649:
.LBE659:
	.loc 1 5241 10 is_stmt 0
	li	a0,0
.L602:
	.loc 1 5247 1
	lw	ra,28(sp)
	.cfi_remember_state
	.cfi_restore 1
	lw	s0,24(sp)
	.cfi_restore 8
.LVL963:
	lw	s1,20(sp)
	.cfi_restore 9
	lw	s2,16(sp)
	.cfi_restore 18
	addi	sp,sp,32
	.cfi_def_cfa_offset 0
	jr	ra
.LVL964:
.L603:
	.cfi_restore_state
	.loc 1 5237 3 is_stmt 1
.LBB660:
.LBB654:
	.loc 1 4110 2
	.loc 1 4112 2
	.loc 1 4112 4 is_stmt 0
	lhu	a5,12(a0)
	bgtu	a5,a1,.L609
	.loc 1 4112 42 is_stmt 1
	call	user_vAssertCalled
.LVL965:
.L609:
	.loc 1 4114 2
	.loc 1 4114 8 is_stmt 0
	li	a1,2
	addi	a0,s0,8
	call	net_buf_simple_pull_mem
.LVL966:
	.loc 1 4115 2 is_stmt 1
	.loc 1 4116 2
	.loc 1 4116 9 is_stmt 0
	lbu	a4,0(a0)
.LVL967:
.LBE654:
.LBE660:
	.file 9 "/b-l/bl_iot_sdk_new/components/network/ble/blestack/src/include/drivers/bluetooth/hci_driver.h"
	.loc 9 49 2 is_stmt 1
	li	a5,26
	bgtu	a4,a5,.L610
.LVL968:
	li	a5,1
	sll	a5,a5,a4
	li	a4,67682304
.LVL969:
	and	a5,a5,a4
	beq	a5,zero,.L610
	sw	a0,12(sp)
.LVL970:
.LBB661:
.LBB655:
	.loc 1 4116 47
	call	user_vAssertCalled
.LVL971:
	lw	a0,12(sp)
.LVL972:
.L610:
	.loc 1 4118 2
	lbu	a0,0(a0)
	lui	a2,%hi(.LANCHOR11)
	li	a3,5
	addi	a2,a2,%lo(.LANCHOR11)
	mv	a1,s0
	call	handle_event
.LVL973:
	j	.L616
.LVL974:
.L604:
.LBE655:
.LBE661:
	.loc 1 5243 3
	.loc 8 112 2
	.loc 5 1063 2
	.loc 1 5243 3 is_stmt 0
	lui	a0,%hi(.LC41)
	addi	a0,a0,%lo(.LC41)
	call	printf
.LVL975:
	.loc 1 5244 3 is_stmt 1
	mv	a0,s0
	call	net_buf_unref
.LVL976:
	.loc 1 5245 3
	.loc 1 5245 10 is_stmt 0
	li	a0,-22
	j	.L602
	.cfi_endproc
.LFE189:
	.size	bt_recv, .-bt_recv
	.section	.text.bt_recv_prio,"ax",@progbits
	.align	1
	.globl	bt_recv_prio
	.type	bt_recv_prio, @function
bt_recv_prio:
.LFB190:
	.loc 1 5265 1 is_stmt 1
	.cfi_startproc
.LVL977:
	.loc 1 5266 2
	.loc 1 5268 2
	.loc 1 5270 2
.LBB668:
.LBB669:
	.loc 8 112 2
.LBE669:
.LBE668:
	.loc 5 1063 2
	.loc 1 5265 1 is_stmt 0
	addi	sp,sp,-32
	.cfi_def_cfa_offset 32
	sw	s0,24(sp)
	sw	ra,28(sp)
	.cfi_offset 8, -8
	.cfi_offset 1, -4
	.loc 1 5270 4
	lbu	a4,20(a0)
	li	a5,1
	.loc 1 5265 1
	mv	s0,a0
	.loc 1 5270 4
	beq	a4,a5,.L618
	.loc 1 5270 52 is_stmt 1 discriminator 1
	call	user_vAssertCalled
.LVL978:
.L618:
	.loc 1 5271 2
	.loc 1 5271 4 is_stmt 0
	lhu	a4,12(s0)
	li	a5,1
	bgtu	a4,a5,.L619
	.loc 1 5271 42 is_stmt 1 discriminator 1
	call	user_vAssertCalled
.LVL979:
.L619:
	.loc 1 5273 2
	.loc 1 5273 8 is_stmt 0
	li	a1,2
	addi	a0,s0,8
	call	net_buf_simple_pull_mem
.LVL980:
	.loc 1 5274 2 is_stmt 1
	.loc 1 5274 8 is_stmt 0
	lbu	a4,0(a0)
.LVL981:
	.loc 9 49 2 is_stmt 1
	li	a5,26
	bgtu	a4,a5,.L620
.LVL982:
	li	a5,1
	sll	a5,a5,a4
	li	a4,67682304
.LVL983:
	and	a5,a5,a4
	bne	a5,zero,.L621
.LVL984:
.L620:
	sw	a0,12(sp)
	.loc 1 5274 46 discriminator 1
	call	user_vAssertCalled
.LVL985:
	lw	a0,12(sp)
.LVL986:
.L621:
	.loc 1 5276 2
	lbu	a0,0(a0)
	lui	a2,%hi(.LANCHOR12)
	mv	a1,s0
	li	a3,4
	addi	a2,a2,%lo(.LANCHOR12)
	call	handle_event
.LVL987:
	.loc 1 5278 2
	mv	a0,s0
	call	net_buf_unref
.LVL988:
	.loc 1 5280 2
	.loc 1 5281 1 is_stmt 0
	lw	ra,28(sp)
	.cfi_restore 1
	lw	s0,24(sp)
	.cfi_restore 8
.LVL989:
	li	a0,0
	addi	sp,sp,32
	.cfi_def_cfa_offset 0
	jr	ra
	.cfi_endproc
.LFE190:
	.size	bt_recv_prio, .-bt_recv_prio
	.section	.text.bt_hci_driver_register,"ax",@progbits
	.align	1
	.globl	bt_hci_driver_register
	.type	bt_hci_driver_register, @function
bt_hci_driver_register:
.LFB191:
	.loc 1 5284 1 is_stmt 1
	.cfi_startproc
.LVL990:
	.loc 1 5285 2
	.loc 1 5285 12 is_stmt 0
	lui	a4,%hi(.LANCHOR2)
	addi	a4,a4,%lo(.LANCHOR2)
	.loc 1 5285 5
	lw	a5,180(a4)
	bne	a5,zero,.L625
	.loc 1 5289 2 is_stmt 1
	.loc 1 5289 5 is_stmt 0
	lw	a3,12(a0)
	.loc 1 5290 10
	li	a5,-22
	.loc 1 5289 5
	beq	a3,zero,.L623
	.loc 1 5289 17 discriminator 1
	lw	a3,16(a0)
	beq	a3,zero,.L623
	.loc 1 5293 2 is_stmt 1
	.loc 1 5293 13 is_stmt 0
	sw	a0,180(a4)
	.loc 1 5295 2 is_stmt 1
	.loc 1 5298 52
	.loc 1 5300 2
	.loc 1 5300 9 is_stmt 0
	li	a5,0
.L623:
	.loc 1 5301 1
	mv	a0,a5
.LVL991:
	ret
.LVL992:
.L625:
	.loc 1 5286 10
	li	a5,-69
	j	.L623
	.cfi_endproc
.LFE191:
	.size	bt_hci_driver_register, .-bt_hci_driver_register
	.section	.text.bt_finalize_init,"ax",@progbits
	.align	1
	.globl	bt_finalize_init
	.type	bt_finalize_init, @function
bt_finalize_init:
.LFB192:
	.loc 1 5341 1 is_stmt 1
	.cfi_startproc
	.loc 1 5342 2
.LVL993:
.LBB670:
.LBB671:
	.loc 2 409 2
	.loc 2 411 2
	lui	a0,%hi(.LANCHOR2+108)
.LBE671:
.LBE670:
	.loc 1 5341 1 is_stmt 0
	addi	sp,sp,-16
	.cfi_def_cfa_offset 16
.LBB674:
.LBB672:
	.loc 2 411 2
	li	a1,2
	addi	a0,a0,%lo(.LANCHOR2+108)
.LBE672:
.LBE674:
	.loc 1 5341 1
	sw	ra,12(sp)
	.cfi_offset 1, -4
.LBB675:
.LBB673:
	.loc 2 411 2
	call	atomic_or
.LVL994:
.LBE673:
.LBE675:
	.loc 1 5344 2 is_stmt 1
	.loc 1 5345 3
	.loc 1 5349 1 is_stmt 0
	lw	ra,12(sp)
	.cfi_restore 1
	.loc 1 5345 3
	li	a0,0
	.loc 1 5349 1
	addi	sp,sp,16
	.cfi_def_cfa_offset 0
	.loc 1 5345 3
	tail	bt_le_scan_update
.LVL995:
	.cfi_endproc
.LFE192:
	.size	bt_finalize_init, .-bt_finalize_init
	.section	.text.le_check_valid_scan,"ax",@progbits
	.align	1
	.globl	le_check_valid_scan
	.type	le_check_valid_scan, @function
le_check_valid_scan:
.LFB196:
	.loc 1 5589 1 is_stmt 1
	.cfi_startproc
	.loc 1 5590 5
	.loc 1 5590 12 is_stmt 0
	lui	a0,%hi(.LANCHOR2+108)
	.loc 1 5589 1
	addi	sp,sp,-16
	.cfi_def_cfa_offset 16
	.loc 1 5590 12
	li	a1,11
	addi	a0,a0,%lo(.LANCHOR2+108)
	.loc 1 5589 1
	sw	ra,12(sp)
	.cfi_offset 1, -4
	.loc 1 5590 12
	call	atomic_test_bit
.LVL996:
	.loc 1 5591 1
	lw	ra,12(sp)
	.cfi_restore 1
	snez	a0,a0
	addi	sp,sp,16
	.cfi_def_cfa_offset 0
	jr	ra
	.cfi_endproc
.LFE196:
	.size	le_check_valid_scan, .-le_check_valid_scan
	.section	.text.bt_delete_queue,"ax",@progbits
	.align	1
	.globl	bt_delete_queue
	.type	bt_delete_queue, @function
bt_delete_queue:
.LFB197:
	.loc 1 5609 1 is_stmt 1
	.cfi_startproc
.LVL997:
	.loc 1 5610 5
	.loc 1 5611 5
	.loc 1 5609 1 is_stmt 0
	addi	sp,sp,-16
	.cfi_def_cfa_offset 16
	sw	s0,8(sp)
	sw	ra,12(sp)
	.cfi_offset 8, -8
	.cfi_offset 1, -4
	.loc 1 5609 1
	mv	s0,a0
	.loc 1 5611 11
	li	a1,0
.LVL998:
.L636:
	.loc 1 5614 15
	call	net_buf_get
.LVL999:
	.loc 1 5612 10
	bne	a0,zero,.L634
	.loc 1 5617 5 is_stmt 1
	mv	a0,s0
.LVL1000:
	.loc 1 5618 1 is_stmt 0
	lw	s0,8(sp)
	.cfi_remember_state
	.cfi_restore 8
.LVL1001:
	lw	ra,12(sp)
	.cfi_restore 1
	addi	sp,sp,16
	.cfi_def_cfa_offset 0
	.loc 1 5617 5
	tail	k_queue_free
.LVL1002:
.L634:
	.cfi_restore_state
	.loc 1 5613 9 is_stmt 1
	call	net_buf_unref
.LVL1003:
	.loc 1 5614 9
	.loc 1 5614 15 is_stmt 0
	li	a1,0
	mv	a0,s0
	j	.L636
	.cfi_endproc
.LFE197:
	.size	bt_delete_queue, .-bt_delete_queue
	.section	.text.bt_disable_action,"ax",@progbits
	.align	1
	.globl	bt_disable_action
	.type	bt_disable_action, @function
bt_disable_action:
.LFB198:
	.loc 1 5621 1 is_stmt 1
	.cfi_startproc
	.loc 1 5626 5
	.loc 1 5621 1 is_stmt 0
	addi	sp,sp,-16
	.cfi_def_cfa_offset 16
	sw	ra,12(sp)
	sw	s0,8(sp)
	.cfi_offset 1, -4
	.cfi_offset 8, -8
	.loc 1 5626 5
	call	bt_gatt_deinit
.LVL1004:
	.loc 1 5629 5 is_stmt 1
	lui	a0,%hi(.LANCHOR13)
	addi	a0,a0,%lo(.LANCHOR13)
	call	k_thread_delete
.LVL1005:
	.loc 1 5630 5
	lui	a0,%hi(recv_thread_data)
	addi	a0,a0,%lo(recv_thread_data)
	call	k_thread_delete
.LVL1006:
	.loc 1 5631 5
	lui	a0,%hi(work_q_thread)
	addi	a0,a0,%lo(work_q_thread)
	call	k_thread_delete
.LVL1007:
	.loc 1 5634 5
	lui	a0,%hi(recv_fifo)
	addi	a0,a0,%lo(recv_fifo)
	call	bt_delete_queue
.LVL1008:
	.loc 1 5635 5
	lui	a0,%hi(g_work_queue_main)
	addi	a0,a0,%lo(g_work_queue_main)
	.loc 1 5636 5 is_stmt 0
	lui	s0,%hi(.LANCHOR2)
	.loc 1 5635 5
	call	bt_delete_queue
.LVL1009:
	.loc 1 5636 5 is_stmt 1
	addi	s0,s0,%lo(.LANCHOR2)
	addi	a0,s0,168
	call	bt_delete_queue
.LVL1010:
	.loc 1 5638 5
	lui	a0,%hi(free_tx)
	addi	a0,a0,%lo(free_tx)
	call	k_queue_free
.LVL1011:
	.loc 1 5641 5
	addi	a0,s0,152
	call	k_sem_delete
.LVL1012:
	.loc 1 5642 5
	lui	a0,%hi(g_poll_sem)
	addi	a0,a0,%lo(g_poll_sem)
	call	k_sem_delete
.LVL1013:
	.loc 1 5644 5
	lui	a0,%hi(sc_local_pkey_ready)
	addi	a0,a0,%lo(sc_local_pkey_ready)
	call	k_sem_delete
.LVL1014:
	.loc 1 5646 5
	addi	a0,s0,132
	call	k_sem_delete
.LVL1015:
	.loc 1 5648 5
	.loc 1 5648 18 is_stmt 0
	lui	a5,%hi(.LANCHOR14)
	li	a4,1
.LBB676:
.LBB677:
	.loc 2 393 2
	li	a1,-2
	addi	a0,s0,108
.LBE677:
.LBE676:
	.loc 1 5648 18
	sb	a4,%lo(.LANCHOR14)(a5)
	.loc 1 5649 5 is_stmt 1
.LVL1016:
.LBB679:
.LBB678:
	.loc 2 391 2
	.loc 2 393 2
	call	atomic_and
.LVL1017:
.LBE678:
.LBE679:
	.loc 1 5652 5
	call	bl_onchiphci_interface_deinit
.LVL1018:
	.loc 1 5655 5
	.loc 1 5656 5
	call	ble_controller_deinit
.LVL1019:
	.loc 1 5658 5
	.loc 1 5659 1 is_stmt 0
	lw	ra,12(sp)
	.cfi_restore 1
	lw	s0,8(sp)
	.cfi_restore 8
	li	a0,0
	addi	sp,sp,16
	.cfi_def_cfa_offset 0
	jr	ra
	.cfi_endproc
.LFE198:
	.size	bt_disable_action, .-bt_disable_action
	.section	.text.bt_disable,"ax",@progbits
	.align	1
	.globl	bt_disable
	.type	bt_disable, @function
bt_disable:
.LFB199:
	.loc 1 5662 1 is_stmt 1
	.cfi_startproc
	.loc 1 5663 5
	.loc 1 5662 1 is_stmt 0
	addi	sp,sp,-16
	.cfi_def_cfa_offset 16
	sw	ra,12(sp)
	sw	s0,8(sp)
	.cfi_offset 1, -4
	.cfi_offset 8, -8
	.loc 1 5663 8
	call	le_check_valid_conn
.LVL1020:
	.loc 1 5663 7
	bne	a0,zero,.L641
	.loc 1 5663 33 discriminator 1
	lui	s0,%hi(.LANCHOR2+108)
	addi	s0,s0,%lo(.LANCHOR2+108)
	li	a1,11
	mv	a0,s0
	call	atomic_test_bit
.LVL1021:
	.loc 1 5663 30 discriminator 1
	bne	a0,zero,.L641
	.loc 1 5664 10
	li	a1,6
	mv	a0,s0
	call	atomic_test_bit
.LVL1022:
	.loc 1 5664 7
	bne	a0,zero,.L641
	.loc 1 5668 9 is_stmt 1
	.loc 1 5669 1 is_stmt 0
	lw	s0,8(sp)
	.cfi_remember_state
	.cfi_restore 8
	lw	ra,12(sp)
	.cfi_restore 1
	addi	sp,sp,16
	.cfi_def_cfa_offset 0
	.loc 1 5668 16
	tail	bt_disable_action
.LVL1023:
.L641:
	.cfi_restore_state
	.loc 1 5669 1
	lw	ra,12(sp)
	.cfi_restore 1
	lw	s0,8(sp)
	.cfi_restore 8
	li	a0,-1
	addi	sp,sp,16
	.cfi_def_cfa_offset 0
	jr	ra
	.cfi_endproc
.LFE199:
	.size	bt_disable, .-bt_disable
	.section	.text.bt_set_name,"ax",@progbits
	.align	1
	.globl	bt_set_name
	.type	bt_set_name, @function
bt_set_name:
.LFB201:
	.loc 1 5718 1 is_stmt 1
	.cfi_startproc
.LVL1024:
	.loc 1 5720 2
	.loc 1 5718 1 is_stmt 0
	addi	sp,sp,-32
	.cfi_def_cfa_offset 32
	sw	s1,20(sp)
	sw	ra,28(sp)
	sw	s0,24(sp)
	sw	s2,16(sp)
	.cfi_offset 9, -12
	.cfi_offset 1, -4
	.cfi_offset 8, -8
	.cfi_offset 18, -16
	.loc 1 5718 1
	mv	s1,a0
	.loc 1 5720 15
	call	strlen
.LVL1025:
	.loc 1 5724 2 is_stmt 1
	.loc 1 5724 5 is_stmt 0
	li	a5,29
	bgtu	a0,a5,.L649
	.loc 1 5728 2 is_stmt 1
	.loc 1 5728 7 is_stmt 0
	lui	s0,%hi(.LANCHOR2)
	addi	s0,s0,%lo(.LANCHOR2)
	addi	s2,s0,184
	mv	a1,s1
	mv	a0,s2
.LVL1026:
	call	strcmp
.LVL1027:
	.loc 1 5728 5
	bne	a0,zero,.L646
.L648:
.LBB683:
.LBB684:
.LBB685:
	li	a0,0
.L644:
.LBE685:
.LBE684:
.LBE683:
	.loc 1 5767 1
	lw	ra,28(sp)
	.cfi_remember_state
	.cfi_restore 1
	lw	s0,24(sp)
	.cfi_restore 8
	lw	s1,20(sp)
	.cfi_restore 9
.LVL1028:
	lw	s2,16(sp)
	.cfi_restore 18
	addi	sp,sp,32
	.cfi_def_cfa_offset 0
	jr	ra
.LVL1029:
.L646:
	.cfi_restore_state
	.loc 1 5732 2 is_stmt 1
	mv	a1,s1
	li	a2,30
	mv	a0,s2
	call	strncpy
.LVL1030:
	.loc 1 5735 2
	.loc 1 5735 6 is_stmt 0
	addi	s0,s0,108
	li	a1,7
	mv	a0,s0
	call	atomic_test_bit
.LVL1031:
	.loc 1 5735 5
	beq	a0,zero,.L648
.LVL1032:
.LBB688:
.LBB687:
.LBB686:
	.loc 1 5736 3 is_stmt 1
	.loc 1 5736 18 is_stmt 0
	li	a5,9
	.loc 1 5736 60
	mv	a0,s1
	.loc 1 5736 18
	sb	a5,0(sp)
	.loc 1 5736 60
	call	strlen
.LVL1033:
	.loc 1 5736 18
	sb	a0,1(sp)
	.loc 1 5740 3
	li	a0,8192
	.loc 1 5738 16
	li	a5,1
	.loc 1 5740 3
	addi	a1,sp,8
	li	a2,1
	addi	a0,a0,9
	.loc 1 5736 18
	sw	s1,4(sp)
	.loc 1 5738 3 is_stmt 1
	.loc 1 5738 16 is_stmt 0
	sw	sp,8(sp)
	sw	a5,12(sp)
	.loc 1 5740 3 is_stmt 1
	call	set_ad
.LVL1034:
	.loc 1 5743 3
	.loc 1 5743 7 is_stmt 0
	li	a1,6
	mv	a0,s0
	call	atomic_test_bit
.LVL1035:
	.loc 1 5743 6
	beq	a0,zero,.L648
	.loc 1 5744 4 is_stmt 1
	li	a0,0
	call	set_advertise_enable
.LVL1036:
	.loc 1 5745 4
	li	a0,1
	call	set_advertise_enable
.LVL1037:
	j	.L648
.LVL1038:
.L649:
.LBE686:
.LBE687:
.LBE688:
	.loc 1 5725 10 is_stmt 0
	li	a0,-12
.LVL1039:
	j	.L644
	.cfi_endproc
.LFE201:
	.size	bt_set_name, .-bt_set_name
	.section	.text.bt_enable,"ax",@progbits
	.align	1
	.globl	bt_enable
	.type	bt_enable, @function
bt_enable:
.LFB195:
	.loc 1 5475 1 is_stmt 1
	.cfi_startproc
.LVL1040:
	.loc 1 5476 2
	.loc 1 5478 2
	.loc 1 5475 1 is_stmt 0
	addi	sp,sp,-32
	.cfi_def_cfa_offset 32
	sw	s0,24(sp)
	.cfi_offset 8, -8
	.loc 1 5478 13
	lui	s0,%hi(.LANCHOR2)
	.loc 1 5475 1
	sw	ra,28(sp)
	sw	s1,20(sp)
	sw	s2,16(sp)
	sw	s3,12(sp)
	.cfi_offset 1, -4
	.cfi_offset 9, -12
	.cfi_offset 18, -16
	.cfi_offset 19, -20
	.loc 1 5478 13
	addi	a5,s0,%lo(.LANCHOR2)
	.loc 1 5478 5
	lw	a5,180(a5)
	bne	a5,zero,.L658
	.loc 1 5479 3 is_stmt 1
	lui	a0,%hi(.LC42)
.LVL1041:
	addi	a0,a0,%lo(.LC42)
	call	printf
.LVL1042:
	.loc 1 5480 3
	.loc 1 5480 10 is_stmt 0
	li	s1,-19
.L657:
	.loc 1 5580 1
	lw	ra,28(sp)
	.cfi_remember_state
	.cfi_restore 1
	lw	s0,24(sp)
	.cfi_restore 8
	mv	a0,s1
	lw	s2,16(sp)
	.cfi_restore 18
	lw	s1,20(sp)
	.cfi_restore 9
	lw	s3,12(sp)
	.cfi_restore 19
	addi	sp,sp,32
	.cfi_def_cfa_offset 0
	jr	ra
.LVL1043:
.L658:
	.cfi_restore_state
	addi	s0,s0,%lo(.LANCHOR2)
	.loc 1 5483 2 is_stmt 1
.LVL1044:
.LBB691:
.LBB692:
	.loc 2 370 2
	.loc 2 371 2
	.loc 2 373 2
	mv	s3,a0
	.loc 2 373 8 is_stmt 0
	li	a1,1
	addi	a0,s0,108
.LVL1045:
	call	atomic_or
.LVL1046:
	.loc 2 375 2 is_stmt 1
	.loc 2 375 14 is_stmt 0
	andi	a0,a0,1
.LBE692:
.LBE691:
	.loc 1 5484 10
	li	s1,-69
	.loc 1 5483 5
	bne	a0,zero,.L657
	.loc 1 5488 9 is_stmt 1
	lui	a1,%hi(init_work)
	addi	a1,a1,%lo(init_work)
	addi	a0,s0,96
	call	k_work_init
.LVL1047:
	.loc 1 5489 9
	call	k_work_q_start
.LVL1048:
	.loc 1 5491 9
	li	a2,1
	li	a1,1
	addi	a0,s0,152
	call	k_sem_init
.LVL1049:
	.loc 1 5495 9
	li	a1,20
	addi	a0,s0,168
	call	k_queue_init
.LVL1050:
	.loc 1 5499 9
	.loc 1 5499 11 is_stmt 0
	lui	a5,%hi(.LANCHOR14)
	lbu	a5,%lo(.LANCHOR14)(a5)
	lui	s2,%hi(.LANCHOR2+96)
	bne	a5,zero,.L660
	.loc 1 5501 13 is_stmt 1
	lui	a0,%hi(.LANCHOR7)
	li	a1,2
	addi	a0,a0,%lo(.LANCHOR7)
	call	k_queue_init
.LVL1051:
	.loc 1 5502 13
	lui	a0,%hi(.LANCHOR15)
	li	a1,5
	addi	a0,a0,%lo(.LANCHOR15)
	call	k_queue_init
.LVL1052:
.L660:
	.loc 1 5505 9
	lui	a0,%hi(g_poll_sem)
	li	a2,1
	li	a1,0
	addi	a0,a0,%lo(g_poll_sem)
	call	k_sem_init
.LVL1053:
	.loc 1 5516 5
	.loc 1 5522 3
	lui	a0,%hi(.LC43)
	addi	a0,a0,%lo(.LC43)
	call	bt_set_name
.LVL1054:
	.loc 1 5526 2
	.loc 1 5531 1 is_stmt 0
	lui	a3,%hi(hci_tx_thread)
	lui	a1,%hi(.LC44)
	lui	a0,%hi(.LANCHOR13)
	.loc 1 5526 11
	lui	a5,%hi(.LANCHOR16)
	.loc 1 5531 1
	li	a4,29
	addi	a3,a3,%lo(hci_tx_thread)
	li	a2,1536
	addi	a1,a1,%lo(.LC44)
	addi	a0,a0,%lo(.LANCHOR13)
	.loc 1 5526 11
	sw	s3,%lo(.LANCHOR16)(a5)
	.loc 1 5531 1 is_stmt 1
	call	k_thread_create
.LVL1055:
	.loc 1 5562 2
	.loc 1 5566 2
	.loc 1 5566 18 is_stmt 0
	lw	a5,180(s0)
	.loc 1 5566 8
	lw	a5,12(a5)
	jalr	a5
.LVL1056:
	mv	s1,a0
.LVL1057:
	.loc 1 5567 2 is_stmt 1
	.loc 1 5567 5 is_stmt 0
	beq	a0,zero,.L661
	.loc 1 5568 3 is_stmt 1
	mv	a1,a0
	lui	a0,%hi(.LC45)
	addi	a0,a0,%lo(.LC45)
	call	printf
.LVL1058:
	.loc 1 5569 3
	.loc 1 5569 10 is_stmt 0
	j	.L657
.L661:
	.loc 1 5572 5 is_stmt 1
	.loc 1 5578 2
	addi	a0,s2,%lo(.LANCHOR2+96)
	call	k_work_submit
.LVL1059:
	.loc 1 5579 2
	.loc 1 5579 9 is_stmt 0
	j	.L657
	.cfi_endproc
.LFE195:
	.size	bt_enable, .-bt_enable
	.section	.text.bt_get_name,"ax",@progbits
	.align	1
	.globl	bt_get_name
	.type	bt_get_name, @function
bt_get_name:
.LFB202:
	.loc 1 5770 1 is_stmt 1
	.cfi_startproc
	.loc 1 5772 2
	.loc 1 5776 1 is_stmt 0
	lui	a0,%hi(.LANCHOR2+184)
	addi	a0,a0,%lo(.LANCHOR2+184)
	ret
	.cfi_endproc
.LFE202:
	.size	bt_get_name, .-bt_get_name
	.section	.text.bt_id_get,"ax",@progbits
	.align	1
	.globl	bt_id_get
	.type	bt_id_get, @function
bt_id_get:
.LFB204:
	.loc 1 5793 1 is_stmt 1
	.cfi_startproc
.LVL1060:
	.loc 1 5794 2
	.loc 1 5793 1 is_stmt 0
	addi	sp,sp,-16
	.cfi_def_cfa_offset 16
	sw	s1,4(sp)
	.cfi_offset 9, -12
	mv	s1,a1
	.loc 1 5794 39
	lui	a1,%hi(.LANCHOR2)
.LVL1061:
	.loc 1 5793 1
	sw	ra,12(sp)
	sw	s0,8(sp)
	.cfi_offset 1, -4
	.cfi_offset 8, -8
	.loc 1 5794 39
	addi	a4,a1,%lo(.LANCHOR2)
	.loc 1 5794 9
	lw	a5,0(s1)
	lbu	s0,7(a4)
	bleu	s0,a5,.L666
	mv	s0,a5
.L666:
.LVL1062:
	.loc 1 5796 2 is_stmt 1
	li	a2,7
	mul	a2,s0,a2
	addi	a1,a1,%lo(.LANCHOR2)
	call	memcpy
.LVL1063:
	.loc 1 5797 2
	.loc 1 5798 1 is_stmt 0
	lw	ra,12(sp)
	.cfi_restore 1
	.loc 1 5797 9
	sw	s0,0(s1)
	.loc 1 5798 1
	lw	s0,8(sp)
	.cfi_restore 8
.LVL1064:
	lw	s1,4(sp)
	.cfi_restore 9
.LVL1065:
	addi	sp,sp,16
	.cfi_def_cfa_offset 0
	jr	ra
	.cfi_endproc
.LFE204:
	.size	bt_id_get, .-bt_id_get
	.section	.text.bt_id_create,"ax",@progbits
	.align	1
	.globl	bt_id_create
	.type	bt_id_create, @function
bt_id_create:
.LFB207:
	.loc 1 5857 1 is_stmt 1
	.cfi_startproc
.LVL1066:
	.loc 1 5858 2
	.loc 1 5860 2
	.loc 1 5857 1 is_stmt 0
	addi	sp,sp,-48
	.cfi_def_cfa_offset 48
	sw	s0,40(sp)
	sw	s3,28(sp)
	sw	ra,44(sp)
	sw	s1,36(sp)
	sw	s2,32(sp)
	.cfi_offset 8, -8
	.cfi_offset 19, -20
	.cfi_offset 1, -4
	.cfi_offset 9, -12
	.cfi_offset 18, -16
	.loc 1 5857 1
	mv	s3,a0
	mv	s0,a1
	.loc 1 5860 5
	bne	a0,zero,.L669
.LVL1067:
.L672:
	.loc 1 5872 2 is_stmt 1
	.loc 1 5873 10 is_stmt 0
	li	s1,-22
	.loc 1 5872 5
	beq	s0,zero,.L684
.LVL1068:
.L668:
	.loc 1 5889 1
	lw	ra,44(sp)
	.cfi_remember_state
	.cfi_restore 1
	lw	s0,40(sp)
	.cfi_restore 8
	mv	a0,s1
	lw	s2,32(sp)
	.cfi_restore 18
	lw	s1,36(sp)
	.cfi_restore 9
	lw	s3,28(sp)
	.cfi_restore 19
.LVL1069:
	addi	sp,sp,48
	.cfi_def_cfa_offset 0
	jr	ra
.LVL1070:
.L669:
	.cfi_restore_state
.LBB697:
.LBB698:
	.loc 3 55 9 discriminator 1
	li	a2,7
	addi	a1,sp,8
.LBE698:
.LBE697:
	.loc 1 5860 52 discriminator 1
	sw	zero,8(sp)
	sh	zero,12(sp)
	sb	zero,14(sp)
.LVL1071:
.LBB700:
.LBB699:
	.loc 3 55 2 is_stmt 1 discriminator 1
	.loc 3 55 9 is_stmt 0 discriminator 1
	call	memcmp
.LVL1072:
.LBE699:
.LBE700:
	.loc 1 5860 11 discriminator 1
	beq	a0,zero,.L672
	.loc 1 5861 3 is_stmt 1
	.loc 1 5861 6 is_stmt 0
	lbu	a4,0(s3)
	li	a5,1
	bne	a4,a5,.L673
	.loc 1 5861 26 discriminator 1
	lbu	a5,6(s3)
	li	a4,192
	andi	a5,a5,192
	beq	a5,a4,.L674
.L673:
	.loc 1 5863 4 is_stmt 1
	lui	a0,%hi(.LC46)
	addi	a0,a0,%lo(.LC46)
	call	printf
.LVL1073:
	.loc 1 5864 4
	.loc 1 5864 11 is_stmt 0
	li	s1,-22
	j	.L668
.L674:
	.loc 1 5867 3 is_stmt 1
	.loc 1 5867 7 is_stmt 0
	mv	a0,s3
	call	id_find
.LVL1074:
	.loc 1 5868 11
	li	s1,-69
	.loc 1 5867 6
	blt	a0,zero,.L672
	j	.L668
.L684:
	.loc 1 5876 2 is_stmt 1
	.loc 1 5876 12 is_stmt 0
	lui	a0,%hi(.LANCHOR2)
	addi	a0,a0,%lo(.LANCHOR2)
	lbu	s2,7(a0)
	.loc 1 5876 5
	li	a5,1
	.loc 1 5877 10
	li	s1,-12
	.loc 1 5876 5
	beq	s2,a5,.L668
	.loc 1 5880 2 is_stmt 1
	.loc 1 5880 26 is_stmt 0
	addi	a5,s2,1
	sb	a5,7(a0)
	.loc 1 5880 9
	mv	s1,s2
.LVL1075:
	.loc 1 5881 2 is_stmt 1
	.loc 1 5881 5 is_stmt 0
	bne	s2,zero,.L676
	.loc 1 5882 7 discriminator 1
	addi	s0,a0,108
.LVL1076:
	li	a1,1
	mv	a0,s0
	call	atomic_test_bit
.LVL1077:
	.loc 1 5881 18 discriminator 1
	bne	a0,zero,.L676
	.loc 1 5883 3 is_stmt 1
.LVL1078:
.LBB701:
.LBB702:
	.loc 2 409 2
	.loc 2 411 2
	li	a1,8
	mv	a0,s0
	call	atomic_or
.LVL1079:
.L676:
.LBE702:
.LBE701:
	.loc 1 5886 2
	mv	a1,s3
	mv	a0,s2
	call	id_create.isra.25
.LVL1080:
	.loc 1 5888 2
	.loc 1 5888 9 is_stmt 0
	j	.L668
	.cfi_endproc
.LFE207:
	.size	bt_id_create, .-bt_id_create
	.section	.text.bt_set_id_addr,"ax",@progbits
	.align	1
	.globl	bt_set_id_addr
	.type	bt_set_id_addr, @function
bt_set_id_addr:
.LFB203:
	.loc 1 5779 1 is_stmt 1
	.cfi_startproc
.LVL1081:
	.loc 1 5780 2
	.loc 1 5782 2
	.loc 1 5779 1 is_stmt 0
	addi	sp,sp,-32
	.cfi_def_cfa_offset 32
	sw	s0,24(sp)
	.cfi_offset 8, -8
	mv	s0,a0
	.loc 1 5782 6
	lui	a0,%hi(.LANCHOR2+108)
.LVL1082:
	li	a1,1
	addi	a0,a0,%lo(.LANCHOR2+108)
	.loc 1 5779 1
	sw	ra,28(sp)
	.cfi_offset 1, -4
	.loc 1 5782 6
	call	atomic_test_bit
.LVL1083:
	.loc 1 5782 5
	beq	a0,zero,.L687
	.loc 1 5783 3 is_stmt 1
	lui	a0,%hi(.LC47)
	addi	a0,a0,%lo(.LC47)
	call	printf
.LVL1084:
	.loc 1 5784 3
	.loc 1 5784 10 is_stmt 0
	li	a0,-16
.L686:
	.loc 1 5790 1
	lw	ra,28(sp)
	.cfi_remember_state
	.cfi_restore 1
	lw	s0,24(sp)
	.cfi_restore 8
.LVL1085:
	addi	sp,sp,32
	.cfi_def_cfa_offset 0
	jr	ra
.LVL1086:
.L687:
	.cfi_restore_state
	.loc 1 5787 2 is_stmt 1
	mv	a1,s0
	addi	a0,sp,8
	call	bt_addr_le_copy
.LVL1087:
	.loc 1 5789 2
	.loc 1 5789 9 is_stmt 0
	li	a1,0
	addi	a0,sp,8
	call	bt_id_create
.LVL1088:
	j	.L686
	.cfi_endproc
.LFE203:
	.size	bt_set_id_addr, .-bt_set_id_addr
	.section	.text.bt_id_reset,"ax",@progbits
	.align	1
	.globl	bt_id_reset
	.type	bt_id_reset, @function
bt_id_reset:
.LFB208:
	.loc 1 5892 1 is_stmt 1
	.cfi_startproc
.LVL1089:
	.loc 1 5893 2
	.loc 1 5892 1 is_stmt 0
	addi	sp,sp,-32
	.cfi_def_cfa_offset 32
	sw	s0,24(sp)
	sw	s1,20(sp)
	sw	s2,16(sp)
	sw	ra,28(sp)
	.cfi_offset 8, -8
	.cfi_offset 9, -12
	.cfi_offset 18, -16
	.cfi_offset 1, -4
	.loc 1 5892 1
	mv	s0,a0
	mv	s1,a1
	mv	s2,a2
	.loc 1 5893 5
	bne	a1,zero,.L691
.LVL1090:
.L694:
	.loc 1 5905 2 is_stmt 1
	.loc 1 5906 10 is_stmt 0
	li	a5,-22
	.loc 1 5905 5
	beq	s2,zero,.L712
.LVL1091:
.L690:
	.loc 1 5931 1
	lw	ra,28(sp)
	.cfi_remember_state
	.cfi_restore 1
	lw	s0,24(sp)
	.cfi_restore 8
	lw	s1,20(sp)
	.cfi_restore 9
.LVL1092:
	lw	s2,16(sp)
	.cfi_restore 18
	mv	a0,a5
	addi	sp,sp,32
	.cfi_def_cfa_offset 0
	jr	ra
.LVL1093:
.L691:
	.cfi_restore_state
.LBB708:
.LBB709:
	.loc 3 55 9 discriminator 1
	li	a2,7
.LVL1094:
	mv	a1,sp
	mv	a0,s1
.LVL1095:
.LBE709:
.LBE708:
	.loc 1 5893 52 discriminator 1
	sw	zero,0(sp)
	sh	zero,4(sp)
	sb	zero,6(sp)
.LVL1096:
.LBB711:
.LBB710:
	.loc 3 55 2 is_stmt 1 discriminator 1
	.loc 3 55 9 is_stmt 0 discriminator 1
	call	memcmp
.LVL1097:
.LBE710:
.LBE711:
	.loc 1 5893 11 discriminator 1
	beq	a0,zero,.L694
	.loc 1 5894 3 is_stmt 1
	.loc 1 5894 6 is_stmt 0
	lbu	a4,0(s1)
	li	a5,1
	bne	a4,a5,.L695
	.loc 1 5894 26 discriminator 1
	lbu	a5,6(s1)
	li	a4,192
	andi	a5,a5,192
	beq	a5,a4,.L696
.L695:
	.loc 1 5896 4 is_stmt 1
	lui	a0,%hi(.LC46)
	addi	a0,a0,%lo(.LC46)
	call	printf
.LVL1098:
	.loc 1 5897 4
	.loc 1 5897 11 is_stmt 0
	li	a5,-22
	j	.L690
.L696:
	.loc 1 5900 3 is_stmt 1
	.loc 1 5900 7 is_stmt 0
	mv	a0,s1
	call	id_find
.LVL1099:
	.loc 1 5901 11
	li	a5,-69
	.loc 1 5900 6
	blt	a0,zero,.L694
	j	.L690
.L712:
	.loc 1 5909 2 is_stmt 1
	.loc 1 5906 10 is_stmt 0
	li	a5,-22
	.loc 1 5909 5
	beq	s0,zero,.L690
	.loc 1 5909 29 discriminator 1
	lui	a5,%hi(.LANCHOR2)
	addi	a0,a5,%lo(.LANCHOR2)
	.loc 1 5909 14 discriminator 1
	lbu	a4,7(a0)
	addi	s2,a5,%lo(.LANCHOR2)
.LVL1100:
	.loc 1 5906 10 discriminator 1
	li	a5,-22
	.loc 1 5909 14 discriminator 1
	bleu	a4,s0,.L690
	.loc 1 5913 2 is_stmt 1
	.loc 1 5913 5 is_stmt 0
	lbu	a5,8(a0)
	beq	a5,s0,.L697
.L700:
	.loc 1 5918 2 is_stmt 1
	.loc 1 5919 21 is_stmt 0
	li	a0,7
	mul	a0,s0,a0
.LBB712:
.LBB713:
	.loc 3 55 9
	li	a2,7
	addi	a1,sp,8
.LBE713:
.LBE712:
	.loc 1 5919 59
	sw	zero,8(sp)
	sh	zero,12(sp)
	sb	zero,14(sp)
.LVL1101:
.LBB715:
.LBB714:
	.loc 3 55 2 is_stmt 1
	.loc 3 55 9 is_stmt 0
	add	a0,s2,a0
	call	memcmp
.LVL1102:
.LBE714:
.LBE715:
	.loc 1 5918 5
	bne	a0,zero,.L698
.L699:
	.loc 1 5928 2 is_stmt 1
	mv	a1,s1
	mv	a0,s0
	call	id_create.isra.25
.LVL1103:
	.loc 1 5930 2
	.loc 1 5930 9 is_stmt 0
	mv	a5,s0
	j	.L690
.L697:
	.loc 1 5913 29 discriminator 1
	li	a1,6
	addi	a0,a0,108
	call	atomic_test_bit
.LVL1104:
	.loc 1 5915 10 discriminator 1
	li	a5,-16
	.loc 1 5913 26 discriminator 1
	beq	a0,zero,.L700
	j	.L690
.L698:
.LBB716:
	.loc 1 5920 3 is_stmt 1
	.loc 1 5922 3
	.loc 1 5922 9 is_stmt 0
	li	a1,0
	mv	a0,s0
	call	bt_unpair
.LVL1105:
	mv	a5,a0
.LVL1106:
	.loc 1 5923 3 is_stmt 1
	.loc 1 5923 6 is_stmt 0
	beq	a0,zero,.L699
	j	.L690
.LBE716:
	.cfi_endproc
.LFE208:
	.size	bt_id_reset, .-bt_id_reset
	.section	.text.bt_id_delete,"ax",@progbits
	.align	1
	.globl	bt_id_delete
	.type	bt_id_delete, @function
bt_id_delete:
.LFB209:
	.loc 1 5934 1 is_stmt 1
	.cfi_startproc
.LVL1107:
	.loc 1 5935 2
	.loc 1 5934 1 is_stmt 0
	addi	sp,sp,-48
	.cfi_def_cfa_offset 48
	sw	s1,36(sp)
	sw	ra,44(sp)
	sw	s0,40(sp)
	sw	s2,32(sp)
	sw	s3,28(sp)
	sw	s4,24(sp)
	.cfi_offset 9, -12
	.cfi_offset 1, -4
	.cfi_offset 8, -8
	.cfi_offset 18, -16
	.cfi_offset 19, -20
	.cfi_offset 20, -24
	.loc 1 5936 10
	li	s1,-22
	.loc 1 5935 5
	beq	a0,zero,.L714
	.loc 1 5935 29 discriminator 1
	lui	s3,%hi(.LANCHOR2)
	addi	s4,s3,%lo(.LANCHOR2)
	.loc 1 5935 14 discriminator 1
	lbu	a5,7(s4)
	addi	s3,s3,%lo(.LANCHOR2)
	.loc 1 5936 10 discriminator 1
	li	s1,-22
	.loc 1 5935 14 discriminator 1
	bleu	a5,a0,.L714
	.loc 1 5939 22
	li	s2,7
	mul	s2,a0,s2
	mv	s0,a0
	.loc 1 5939 2 is_stmt 1
.LBB720:
.LBB721:
	.loc 3 55 9 is_stmt 0
	li	a2,7
	mv	a1,sp
.LBE721:
.LBE720:
	.loc 1 5939 60
	sw	zero,0(sp)
	sh	zero,4(sp)
	sb	zero,6(sp)
	.loc 1 5940 10
	li	s1,-69
	.loc 1 5939 22
	add	s2,s4,s2
.LVL1108:
.LBB723:
.LBB722:
	.loc 3 55 2 is_stmt 1
	.loc 3 55 9 is_stmt 0
	mv	a0,s2
.LVL1109:
	call	memcmp
.LVL1110:
.LBE722:
.LBE723:
	.loc 1 5939 5
	beq	a0,zero,.L714
	.loc 1 5943 2 is_stmt 1
	.loc 1 5943 5 is_stmt 0
	lbu	a5,8(s4)
	beq	a5,s0,.L716
.L718:
	.loc 1 5948 2 is_stmt 1
.LBB724:
	.loc 1 5949 3
	.loc 1 5951 3
	.loc 1 5951 9 is_stmt 0
	li	a1,0
	mv	a0,s0
	call	bt_unpair
.LVL1111:
	mv	s1,a0
.LVL1112:
	.loc 1 5952 3 is_stmt 1
	.loc 1 5952 6 is_stmt 0
	bne	a0,zero,.L714
.LBE724:
	.loc 1 5960 2 is_stmt 1
	addi	a1,sp,8
	mv	a0,s2
	.loc 1 5960 56 is_stmt 0
	sw	zero,8(sp)
	sh	zero,12(sp)
	sb	zero,14(sp)
	.loc 1 5960 2
	call	bt_addr_le_copy
.LVL1113:
	.loc 1 5962 2 is_stmt 1
	.loc 1 5962 18 is_stmt 0
	lbu	a5,7(s3)
	.loc 1 5962 28
	addi	a5,a5,-1
	.loc 1 5962 5
	bne	s0,a5,.L714
	.loc 1 5963 3 is_stmt 1
	.loc 1 5963 18 is_stmt 0
	sb	s0,7(s3)
	j	.L714
.LVL1114:
.L716:
	.loc 1 5943 29 discriminator 1
	li	a1,6
	addi	a0,s4,108
	call	atomic_test_bit
.LVL1115:
	.loc 1 5945 10 discriminator 1
	li	s1,-16
	.loc 1 5943 26 discriminator 1
	beq	a0,zero,.L718
.L714:
	.loc 1 5972 1
	lw	ra,44(sp)
	.cfi_restore 1
	lw	s0,40(sp)
	.cfi_restore 8
	mv	a0,s1
	lw	s2,32(sp)
	.cfi_restore 18
	lw	s1,36(sp)
	.cfi_restore 9
	lw	s3,28(sp)
	.cfi_restore 19
	lw	s4,24(sp)
	.cfi_restore 20
	addi	sp,sp,48
	.cfi_def_cfa_offset 0
	jr	ra
	.cfi_endproc
.LFE209:
	.size	bt_id_delete, .-bt_id_delete
	.section	.text.bt_setup_id_addr,"ax",@progbits
	.align	1
	.globl	bt_setup_id_addr
	.type	bt_setup_id_addr, @function
bt_setup_id_addr:
.LFB210:
	.loc 1 6009 1 is_stmt 1
	.cfi_startproc
	.loc 1 6029 2
	.loc 1 6029 9 is_stmt 0
	li	a1,0
	li	a0,0
	tail	bt_id_create
.LVL1116:
	.cfi_endproc
.LFE210:
	.size	bt_setup_id_addr, .-bt_setup_id_addr
	.section	.text.init_work,"ax",@progbits
	.align	1
	.type	init_work, @function
init_work:
.LFB194:
	.loc 1 5424 1 is_stmt 1
	.cfi_startproc
.LVL1117:
	.loc 1 5425 2
	.loc 1 5427 2
.LBB781:
.LBB782:
	.loc 1 5353 2
	.loc 1 5367 5
.LBE782:
.LBE781:
	.loc 1 5424 1 is_stmt 0
	addi	sp,sp,-48
	.cfi_def_cfa_offset 48
	sw	s0,40(sp)
	sw	ra,44(sp)
	sw	s1,36(sp)
	sw	s2,32(sp)
	.cfi_offset 8, -8
	.cfi_offset 1, -4
	.cfi_offset 9, -12
	.cfi_offset 18, -16
.LBB875:
.LBB871:
	.loc 1 5367 11
	call	bl_onchiphci_interface_init
.LVL1118:
	mv	s0,a0
.LVL1119:
	.loc 1 5368 5 is_stmt 1
	.loc 1 5368 8 is_stmt 0
	bne	a0,zero,.L727
	.loc 1 5373 2 is_stmt 1
.LBB783:
.LBB784:
	.loc 1 5163 2
	.loc 1 5165 2
.LBB785:
.LBB786:
	.loc 1 4423 2
	.loc 1 4424 2
	.loc 1 4426 2
	.loc 1 4426 14 is_stmt 0
	lui	s1,%hi(.LANCHOR2)
	addi	a5,s1,%lo(.LANCHOR2)
	.loc 1 4426 18
	lw	a5,180(a5)
	addi	s1,s1,%lo(.LANCHOR2)
	.loc 1 4426 27
	lw	a5,8(a5)
	andi	a5,a5,1
	.loc 1 4426 5
	bne	a5,zero,.L728
	.loc 1 4428 3 is_stmt 1
	.loc 1 4428 9 is_stmt 0
	li	a0,4096
	addi	a2,sp,12
	li	a1,0
	addi	a0,a0,-1021
	call	bt_hci_cmd_send_sync
.LVL1120:
	mv	s0,a0
.LVL1121:
	.loc 1 4429 3 is_stmt 1
	.loc 1 4429 6 is_stmt 0
	bne	a0,zero,.L727
	.loc 1 4432 3 is_stmt 1
.LVL1122:
.LBB787:
.LBB788:
	.loc 1 3565 2
	.loc 1 3566 2
	.loc 1 3568 2
	.loc 1 3570 2
.LBE788:
.LBE787:
	.loc 1 4432 3 is_stmt 0
	lw	a5,12(sp)
.LBB790:
.LBB789:
	.loc 1 3565 7
	lw	a5,8(a5)
	.loc 1 3570 5
	lbu	a5,0(a5)
	bne	a5,zero,.L730
	.loc 1 3574 2 is_stmt 1
	.loc 1 3582 11 is_stmt 0
	addi	s0,s1,108
.LVL1123:
	.loc 1 3574 20
	lui	a5,%hi(.LANCHOR9)
	.loc 1 3582 11
	mv	a0,s0
.LVL1124:
	.loc 1 3574 20
	sw	zero,%lo(.LANCHOR9)(a5)
	.loc 1 3582 2 is_stmt 1
	.loc 1 3582 11 is_stmt 0
	call	atomic_get
.LVL1125:
	.loc 1 3583 2 is_stmt 1
	andi	a1,a0,13
.LVL1126:
	mv	a0,s0
	call	atomic_set
.LVL1127:
.L730:
.LBE789:
.LBE790:
	.loc 1 4433 3
	lw	a0,12(sp)
	call	net_buf_unref
.LVL1128:
.L728:
	.loc 1 4437 2
	.loc 1 4437 8 is_stmt 0
	li	s2,4096
	addi	a2,sp,12
	li	a1,0
	addi	a0,s2,3
	call	bt_hci_cmd_send_sync
.LVL1129:
	mv	s0,a0
.LVL1130:
	.loc 1 4438 2 is_stmt 1
	.loc 1 4438 5 is_stmt 0
	bne	a0,zero,.L727
	.loc 1 4441 2 is_stmt 1
.LVL1131:
.LBB791:
.LBB792:
	.loc 1 4382 2
	.loc 1 4384 2
	.loc 1 4386 2
.LBE792:
.LBE791:
	.loc 1 4441 2 is_stmt 0
	lw	a5,12(sp)
.LBB794:
.LBB793:
	.loc 1 4386 2
	li	a2,8
	addi	a0,s1,24
	.loc 1 4386 31
	lw	a1,8(a5)
	.loc 1 4386 2
	addi	a1,a1,1
	call	memcpy
.LVL1132:
.LBE793:
.LBE794:
	.loc 1 4442 2 is_stmt 1
	lw	a0,12(sp)
	call	net_buf_unref
.LVL1133:
	.loc 1 4445 2
	.loc 1 4445 8 is_stmt 0
	addi	a2,sp,12
	li	a1,0
	addi	a0,s2,1
	call	bt_hci_cmd_send_sync
.LVL1134:
	mv	s0,a0
.LVL1135:
	.loc 1 4447 2 is_stmt 1
	.loc 1 4447 5 is_stmt 0
	bne	a0,zero,.L727
	.loc 1 4450 2 is_stmt 1
	lw	a0,12(sp)
	lw	a5,8(a0)
.LVL1136:
.LBB795:
.LBB796:
	.loc 1 4269 2
	.loc 1 4271 2
	.loc 1 4273 2
	.loc 1 4273 25 is_stmt 0
	lbu	a4,1(a5)
	.loc 1 4273 21
	sb	a4,16(s1)
	.loc 1 4274 2 is_stmt 1
	.loc 1 4274 27 is_stmt 0
	lbu	a4,3(a5)
	lbu	a3,2(a5)
	slli	a4,a4,8
	or	a4,a4,a3
	.loc 1 4274 22
	sh	a4,18(s1)
	.loc 1 4275 2 is_stmt 1
	.loc 1 4275 25 is_stmt 0
	lbu	a4,4(a5)
	.loc 1 4275 21
	sb	a4,17(s1)
	.loc 1 4276 2 is_stmt 1
	.loc 1 4276 29 is_stmt 0
	lbu	a4,8(a5)
	lbu	a3,7(a5)
	slli	a4,a4,8
	or	a4,a4,a3
	.loc 1 4276 24
	sh	a4,20(s1)
	.loc 1 4277 2 is_stmt 1
	.loc 1 4277 27 is_stmt 0
	lbu	a4,5(a5)
	lbu	a5,6(a5)
.LVL1137:
	slli	a5,a5,8
	or	a5,a5,a4
	.loc 1 4277 22
	sh	a5,22(s1)
.LBE796:
.LBE795:
	.loc 1 4451 2 is_stmt 1
	call	net_buf_unref
.LVL1138:
	.loc 1 4454 2
	.loc 1 4454 7 is_stmt 0
	li	a1,3
	addi	a0,s1,108
	call	atomic_test_bit
.LVL1139:
	.loc 1 4454 5
	bne	a0,zero,.L731
	.loc 1 4455 3 is_stmt 1
	.loc 1 4455 9 is_stmt 0
	addi	a2,sp,12
	li	a1,0
	addi	a0,s2,9
	call	bt_hci_cmd_send_sync
.LVL1140:
	mv	s0,a0
.LVL1141:
	.loc 1 4456 3 is_stmt 1
	.loc 1 4456 6 is_stmt 0
	bne	a0,zero,.L727
	.loc 1 4459 3 is_stmt 1
.LVL1142:
.LBB797:
.LBB798:
	.loc 1 4282 2
	.loc 1 4284 2
	.loc 1 4286 2
.LBE798:
.LBE797:
	.loc 1 4459 3 is_stmt 0
	lw	a5,12(sp)
.LBB810:
.LBB809:
.LBB799:
.LBB800:
	.loc 3 50 9
	li	a2,6
	addi	a1,sp,16
.LBE800:
.LBE799:
	.loc 1 4286 19
	lw	s0,8(a5)
.LVL1143:
	.loc 1 4286 46
	sw	zero,16(sp)
	sh	zero,20(sp)
	.loc 1 4286 19
	addi	s0,s0,1
.LVL1144:
.LBB802:
.LBB801:
	.loc 3 50 2 is_stmt 1
	.loc 3 50 9 is_stmt 0
	mv	a0,s0
.LVL1145:
	call	memcmp
.LVL1146:
.LBE801:
.LBE802:
	.loc 1 4286 5
	beq	a0,zero,.L733
	.loc 1 4287 46
	lui	a5,%hi(.LC0)
	addi	a5,a5,%lo(.LC0)
	lw	a4,0(a5)
	lhu	a5,4(a5)
.LBB803:
.LBB804:
	.loc 3 50 9
	li	a2,6
	addi	a1,sp,24
	mv	a0,s0
.LBE804:
.LBE803:
	.loc 1 4287 46
	sw	a4,24(sp)
	sh	a5,28(sp)
.LVL1147:
.LBB806:
.LBB805:
	.loc 3 50 2 is_stmt 1
	.loc 3 50 9 is_stmt 0
	call	memcmp
.LVL1148:
.LBE805:
.LBE806:
	.loc 1 4286 73
	beq	a0,zero,.L733
	.loc 1 4292 2 is_stmt 1
.LVL1149:
.LBB807:
.LBB808:
	.loc 3 60 2
	li	a2,6
	mv	a1,s0
	addi	a0,s1,1
	call	memcpy
.LVL1150:
.LBE808:
.LBE807:
	.loc 1 4293 2
	.loc 1 4294 18 is_stmt 0
	li	a5,1
	.loc 1 4293 25
	sb	zero,0(s1)
	.loc 1 4294 2 is_stmt 1
	.loc 1 4294 18 is_stmt 0
	sb	a5,7(s1)
.L733:
.LVL1151:
.LBE809:
.LBE810:
	.loc 1 4460 3 is_stmt 1
	lw	a0,12(sp)
	call	net_buf_unref
.LVL1152:
.L731:
	.loc 1 4464 2
	.loc 1 4464 8 is_stmt 0
	li	a0,4096
	addi	a2,sp,12
	li	a1,0
	addi	a0,a0,2
	call	bt_hci_cmd_send_sync
.LVL1153:
	mv	s0,a0
.LVL1154:
	.loc 1 4466 2 is_stmt 1
	.loc 1 4466 5 is_stmt 0
	bne	a0,zero,.L727
	.loc 1 4469 2 is_stmt 1
.LVL1155:
.LBB811:
.LBB812:
	.loc 1 4363 2
	.loc 1 4365 2
	.loc 1 4367 2
.LBE812:
.LBE811:
	.loc 1 4469 2 is_stmt 0
	lw	a5,12(sp)
.LBB814:
.LBB813:
	.loc 1 4367 2
	li	a2,64
	addi	a0,s1,32
	.loc 1 4367 38
	lw	a1,8(a5)
	.loc 1 4367 2
	addi	a1,a1,1
	call	memcpy
.LVL1156:
	.loc 1 4374 2 is_stmt 1
.LBE813:
.LBE814:
	.loc 1 4470 2
	lw	a0,12(sp)
	call	net_buf_unref
.LVL1157:
	.loc 1 4472 2
	.loc 1 4489 2
.LBE786:
.LBE785:
	.loc 1 5166 2
	.loc 1 5170 2
.LBB815:
.LBB816:
	.loc 1 4557 2
	.loc 1 4558 2
	.loc 1 4559 2
	.loc 1 4562 2
	.loc 1 4562 5 is_stmt 0
	lbu	a5,28(s1)
	andi	a5,a5,64
	bne	a5,zero,.L735
	.loc 1 4563 3 is_stmt 1
	lui	a0,%hi(.LC50)
	addi	a0,a0,%lo(.LC50)
	call	printf
.LVL1158:
	.loc 1 4564 3
.LBE816:
.LBE815:
	.loc 1 5171 2
.LBB847:
.LBB841:
	.loc 1 4564 10 is_stmt 0
	li	s0,-19
.LVL1159:
.L727:
.LBE841:
.LBE847:
.LBE784:
.LBE783:
.LBE871:
.LBE875:
	.loc 1 5428 2 is_stmt 1
	.loc 1 5428 6 is_stmt 0
	lui	a5,%hi(.LANCHOR16)
	lw	a5,%lo(.LANCHOR16)(a5)
	.loc 1 5428 5
	beq	a5,zero,.L726
	.loc 1 5429 3 is_stmt 1
	mv	a0,s0
	jalr	a5
.LVL1160:
.L726:
	.loc 1 5431 1 is_stmt 0
	lw	ra,44(sp)
	.cfi_remember_state
	.cfi_restore 1
	lw	s0,40(sp)
	.cfi_restore 8
.LVL1161:
	lw	s1,36(sp)
	.cfi_restore 9
	lw	s2,32(sp)
	.cfi_restore 18
	addi	sp,sp,48
	.cfi_def_cfa_offset 0
	jr	ra
.LVL1162:
.L735:
	.cfi_restore_state
.LBB876:
.LBB872:
.LBB868:
.LBB865:
.LBB848:
.LBB842:
	.loc 1 4568 2 is_stmt 1
	.loc 1 4568 8 is_stmt 0
	li	s2,8192
	addi	a2,sp,12
	li	a1,0
	addi	a0,s2,3
	call	bt_hci_cmd_send_sync
.LVL1163:
	mv	s0,a0
.LVL1164:
	.loc 1 4570 2 is_stmt 1
	.loc 1 4570 5 is_stmt 0
	bne	a0,zero,.L727
	.loc 1 4573 2 is_stmt 1
.LVL1165:
.LBB817:
.LBB818:
	.loc 1 4299 2
	.loc 1 4301 2
	.loc 1 4303 2
.LBE818:
.LBE817:
	.loc 1 4573 2 is_stmt 0
	lw	a5,12(sp)
.LBB820:
.LBB819:
	.loc 1 4303 2
	li	a2,8
	addi	a0,s1,112
	.loc 1 4303 31
	lw	a1,8(a5)
	.loc 1 4303 2
	addi	a1,a1,1
	call	memcpy
.LVL1166:
.LBE819:
.LBE820:
	.loc 1 4574 2 is_stmt 1
	lw	a0,12(sp)
	call	net_buf_unref
.LVL1167:
	.loc 1 4578 2
	.loc 1 4578 8 is_stmt 0
	addi	a2,sp,12
	li	a1,0
	addi	a0,s2,2
	call	bt_hci_cmd_send_sync
.LVL1168:
	mv	s0,a0
.LVL1169:
	.loc 1 4580 2 is_stmt 1
	.loc 1 4580 5 is_stmt 0
	bne	a0,zero,.L727
	.loc 1 4583 2 is_stmt 1
	lw	a5,12(sp)
	lw	a4,8(a5)
.LVL1170:
.LBB821:
.LBB822:
	.loc 1 4346 2
	.loc 1 4348 2
	.loc 1 4350 2
	.loc 1 4350 21 is_stmt 0
	lbu	a5,2(a4)
.LVL1171:
	lbu	a3,1(a4)
	slli	a5,a5,8
	or	a5,a5,a3
	.loc 1 4350 16
	sh	a5,128(s1)
	.loc 1 4351 2 is_stmt 1
	.loc 1 4351 5 is_stmt 0
	beq	a5,zero,.L737
	.loc 1 4355 2 is_stmt 1
	.loc 1 4357 2
	lbu	a2,3(a4)
	addi	a0,s1,132
	mv	a1,a2
	call	k_sem_init
.LVL1172:
.L737:
.LBE822:
.LBE821:
	.loc 1 4584 2
	lw	a0,12(sp)
	call	net_buf_unref
.LVL1173:
	.loc 1 4587 2
	.loc 1 4587 5 is_stmt 0
	lbu	a5,28(s1)
	andi	a5,a5,32
	beq	a5,zero,.L738
.L742:
	.loc 1 4607 2 is_stmt 1
	.loc 1 4607 5 is_stmt 0
	lbu	a5,60(s1)
	andi	a5,a5,8
	beq	a5,zero,.L740
	.loc 1 4608 3 is_stmt 1
	.loc 1 4608 9 is_stmt 0
	li	a0,8192
	addi	a2,sp,12
	li	a1,0
	addi	a0,a0,28
	call	bt_hci_cmd_send_sync
.LVL1174:
	mv	s0,a0
.LVL1175:
	.loc 1 4610 3 is_stmt 1
	.loc 1 4610 6 is_stmt 0
	bne	a0,zero,.L727
	.loc 1 4613 3 is_stmt 1
	lw	a0,12(sp)
.LVL1176:
.LBB823:
.LBB824:
	.loc 1 4391 2
	.loc 1 4393 2
	.loc 1 4395 2
.LBB825:
.LBB826:
	.loc 7 355 2
.LBE826:
.LBE825:
.LBE824:
.LBE823:
.LBE842:
.LBE848:
.LBE865:
.LBE868:
.LBE872:
.LBE876:
	.loc 7 340 2
	.loc 7 310 2
.LBB877:
.LBB873:
.LBB869:
.LBB866:
.LBB849:
.LBB843:
.LBB833:
.LBB831:
.LBB829:
.LBB827:
	.loc 7 355 46 is_stmt 0
	lw	a5,8(a0)
	lbu	a3,2(a5)
	lbu	a4,1(a5)
	lbu	a2,5(a5)
	slli	a3,a3,8
	or	a3,a3,a4
	lbu	a4,3(a5)
	slli	a4,a4,16
	or	a3,a4,a3
	lbu	a4,4(a5)
	slli	a4,a4,24
	or	a4,a4,a3
	lbu	a3,6(a5)
	slli	a3,a3,8
	or	a2,a3,a2
	lbu	a3,7(a5)
	lbu	a5,8(a5)
.LBE827:
.LBE829:
	.loc 1 4395 19
	sw	a4,120(s1)
.LVL1177:
.LBB830:
.LBB828:
	.loc 7 355 46
	slli	a3,a3,16
	or	a3,a3,a2
	slli	a5,a5,24
	or	a5,a5,a3
.LVL1178:
.LBE828:
.LBE830:
.LBE831:
.LBE833:
.LBE843:
.LBE849:
.LBE866:
.LBE869:
.LBE873:
.LBE877:
	.loc 7 310 2 is_stmt 1
	.loc 7 340 2
	.loc 7 310 2
	.loc 7 310 2
.LBB878:
.LBB874:
.LBB870:
.LBB867:
.LBB850:
.LBB844:
.LBB834:
.LBB832:
	.loc 1 4395 19 is_stmt 0
	sw	a5,124(s1)
.LBE832:
.LBE834:
	.loc 1 4614 3 is_stmt 1
	call	net_buf_unref
.LVL1179:
.L740:
	.loc 1 4617 2
	.loc 1 4653 2
	.loc 1 4653 5 is_stmt 0
	lbu	a5,112(s1)
	andi	a5,a5,64
	beq	a5,zero,.L743
	.loc 1 4672 3 is_stmt 1
	.loc 1 4672 9 is_stmt 0
	li	a0,8192
	addi	a2,sp,12
	li	a1,0
	addi	a0,a0,42
	call	bt_hci_cmd_send_sync
.LVL1180:
	mv	s0,a0
.LVL1181:
	.loc 1 4674 3 is_stmt 1
	.loc 1 4674 6 is_stmt 0
	bne	a0,zero,.L727
	.loc 1 4677 3 is_stmt 1
	lw	a0,12(sp)
.LVL1182:
.LBB835:
.LBB836:
	.loc 1 4401 2
	.loc 1 4403 2
	.loc 1 4405 2
	.loc 1 4405 24 is_stmt 0
	lw	a5,8(a0)
	lbu	a5,1(a5)
	.loc 1 4405 20
	sb	a5,144(s1)
.LVL1183:
.LBE836:
.LBE835:
	.loc 1 4678 3 is_stmt 1
	call	net_buf_unref
.LVL1184:
.L743:
	.loc 1 4683 2
	.loc 1 4683 8 is_stmt 0
	li	s2,8192
	addi	a2,sp,12
	li	a1,0
	addi	a0,s2,15
	call	bt_hci_cmd_send_sync
.LVL1185:
	mv	s0,a0
.LVL1186:
	.loc 1 4685 2 is_stmt 1
	.loc 1 4685 5 is_stmt 0
	bne	a0,zero,.L727
	.loc 1 4689 2 is_stmt 1
	lw	a0,12(sp)
.LVL1187:
.LBB837:
.LBB838:
	.loc 1 4412 2
	.loc 1 4415 2
	.loc 1 4417 2
	.loc 1 4417 24 is_stmt 0
	lw	a5,8(a0)
	lbu	a5,1(a5)
	.loc 1 4417 20
	sb	a5,146(s1)
.LVL1188:
.LBE838:
.LBE837:
	.loc 1 4690 2 is_stmt 1
	call	net_buf_unref
.LVL1189:
	.loc 1 4693 2
.LBB839:
.LBB840:
	.loc 1 4494 2
	.loc 1 4495 2
	.loc 1 4496 2
	.loc 1 4499 2
	.loc 1 4499 8 is_stmt 0
	li	a1,8
	addi	a0,s2,1
	call	bt_hci_cmd_create
.LVL1190:
	mv	s0,a0
.LVL1191:
	.loc 1 4500 2 is_stmt 1
	.loc 1 4500 5 is_stmt 0
	beq	a0,zero,.L744
	.loc 1 4504 2 is_stmt 1
	.loc 1 4504 12 is_stmt 0
	li	a1,8
	addi	a0,a0,8
	call	net_buf_simple_add
.LVL1192:
	.loc 1 4510 26
	lbu	a4,112(s1)
	.loc 1 4504 12
	mv	a2,a0
.LVL1193:
	.loc 1 4506 2 is_stmt 1
	.loc 1 4508 2
	.loc 1 4509 3
	.loc 1 4511 9 is_stmt 0
	li	a3,514
	.loc 1 4509 6
	andi	a5,a4,64
	bne	a5,zero,.L745
	.loc 1 4513 9
	li	a3,3
.L745:
.LVL1194:
	.loc 1 4516 3 is_stmt 1
	.loc 1 4517 3
	.loc 1 4519 3
	.loc 1 4519 6 is_stmt 0
	andi	a1,a4,2
	.loc 1 4520 9
	ori	a0,a3,44
.LVL1195:
	.loc 1 4519 6
	bne	a1,zero,.L747
	.loc 1 4517 8
	ori	a0,a3,12
.L747:
	.loc 1 4523 3 is_stmt 1
	.loc 1 4528 3
	.loc 1 4535 2
	.loc 1 4535 5 is_stmt 0
	andi	a4,a4,1
	beq	a4,zero,.L748
	.loc 1 4537 3 is_stmt 1
	.loc 1 4537 8 is_stmt 0
	ori	a0,a0,16
.L748:
	.loc 1 4544 2 is_stmt 1
	.loc 1 4544 5 is_stmt 0
	lbu	a4,66(s1)
	li	a3,6
	andi	a4,a4,6
	bne	a4,a3,.L749
	.loc 1 4547 3 is_stmt 1
	.loc 1 4548 3
	.loc 1 4548 8 is_stmt 0
	ori	a0,a0,384
.L749:
	.loc 1 4551 2 is_stmt 1
	li	a1,0
	call	sys_put_le64
.LVL1196:
	.loc 1 4552 2
	.loc 1 4552 9 is_stmt 0
	li	a0,8192
	mv	a1,s0
	li	a2,0
	addi	a0,a0,1
	call	bt_hci_cmd_send_sync
.LVL1197:
	mv	s0,a0
.LVL1198:
.LBE840:
.LBE839:
.LBE844:
.LBE850:
	.loc 1 5171 2 is_stmt 1
	.loc 1 5171 5 is_stmt 0
	bne	a0,zero,.L727
	.loc 1 5175 2 is_stmt 1
	.loc 1 5175 5 is_stmt 0
	lbu	a5,28(s1)
	andi	a5,a5,32
	bne	a5,zero,.L750
	.loc 1 5176 3 is_stmt 1
.LBB851:
.LBB852:
	.loc 1 4884 2
	.loc 1 4885 2
	.loc 1 4887 2
	.loc 1 4887 5 is_stmt 0
	lhu	a5,128(s1)
	bne	a5,zero,.L750
	.loc 1 4892 2 is_stmt 1
	.loc 1 4892 8 is_stmt 0
	li	a0,4096
	addi	a2,sp,12
	li	a1,0
	addi	a0,a0,5
	call	bt_hci_cmd_send_sync
.LVL1199:
	mv	s0,a0
.LVL1200:
	.loc 1 4893 2 is_stmt 1
	.loc 1 4893 5 is_stmt 0
	bne	a0,zero,.L727
	.loc 1 4897 2 is_stmt 1
.LVL1201:
.LBB853:
.LBB854:
	.loc 1 4324 2
	.loc 1 4325 2
	.loc 1 4327 2
	.loc 1 4330 2
	.loc 1 4330 5 is_stmt 0
	lhu	a5,128(s1)
	bne	a5,zero,.L753
.LBE854:
.LBE853:
	.loc 1 4897 2
	lw	a5,12(sp)
.LBB857:
.LBB855:
	.loc 1 4339 2
	addi	a0,s1,132
.LBE855:
.LBE857:
	.loc 1 4897 2
	lw	a4,8(a5)
.LBB858:
.LBB856:
	.loc 1 4334 2 is_stmt 1
	.loc 1 4334 21 is_stmt 0
	lbu	a5,2(a4)
	lbu	a3,1(a4)
	slli	a5,a5,8
	or	a5,a5,a3
	.loc 1 4334 16
	sh	a5,128(s1)
.LVL1202:
	.loc 1 4335 2 is_stmt 1
	.loc 1 4337 2
	.loc 1 4339 2
	.loc 1 4335 7 is_stmt 0
	lbu	a2,5(a4)
	lbu	a5,4(a4)
	slli	a2,a2,8
	.loc 1 4339 2
	or	a2,a2,a5
	mv	a1,a2
	call	k_sem_init
.LVL1203:
.L753:
.LBE856:
.LBE858:
	.loc 1 4898 2 is_stmt 1
	lw	a0,12(sp)
	call	net_buf_unref
.LVL1204:
	.loc 1 4901 2
.LBE852:
.LBE851:
	.loc 1 5177 3
.L750:
	.loc 1 5185 2
.LBB859:
.LBB860:
	.loc 1 4907 2
	.loc 1 4908 2
	.loc 1 4909 2
	.loc 1 4911 2
	.loc 1 4911 8 is_stmt 0
	li	a0,4096
	li	a1,8
	addi	a0,a0,-1023
	call	bt_hci_cmd_create
.LVL1205:
	mv	s2,a0
.LVL1206:
	.loc 1 4912 2 is_stmt 1
	.loc 1 4913 10 is_stmt 0
	li	s0,-55
	.loc 1 4912 5
	beq	a0,zero,.L727
	.loc 1 4916 2 is_stmt 1
	.loc 1 4916 7 is_stmt 0
	li	a1,8
	addi	a0,a0,8
.LVL1207:
	call	net_buf_simple_add
.LVL1208:
	.loc 1 4953 5
	lbu	a5,112(s1)
	.loc 1 4916 7
	mv	a2,a0
.LVL1209:
	.loc 1 4918 2 is_stmt 1
	.loc 1 4944 2
	.loc 1 4945 2
	.loc 1 4946 2
	.loc 1 4948 2
	.loc 1 4949 3
	.loc 1 4950 3
	.loc 1 4953 2
	.loc 1 4953 5 is_stmt 0
	andi	a5,a5,1
	beq	a5,zero,.L759
	.loc 1 4956 8
	lui	a5,%hi(.LC49)
	lw	a0,%lo(.LC49)(a5)
.LVL1210:
	lw	a1,%lo(.LC49+4)(a5)
.L754:
.LVL1211:
	.loc 1 4959 2 is_stmt 1
	call	sys_put_le64
.LVL1212:
	.loc 1 4960 2
	.loc 1 4960 9 is_stmt 0
	li	a0,4096
	li	a2,0
	mv	a1,s2
	addi	a0,a0,-1023
	call	bt_hci_cmd_send_sync
.LVL1213:
	mv	s0,a0
.LVL1214:
.LBE860:
.LBE859:
	.loc 1 5186 2 is_stmt 1
	.loc 1 5186 5 is_stmt 0
	bne	a0,zero,.L727
	.loc 1 5194 2 is_stmt 1
	.loc 1 5194 5 is_stmt 0
	lbu	a5,7(s1)
	bne	a5,zero,.L755
	.loc 1 5195 3 is_stmt 1
	.loc 1 5196 3
	.loc 1 5196 9 is_stmt 0
	call	bt_setup_id_addr
.LVL1215:
	mv	s0,a0
.LVL1216:
	.loc 1 5197 3 is_stmt 1
	.loc 1 5197 6 is_stmt 0
	beq	a0,zero,.L755
	.loc 1 5198 4 is_stmt 1
	lui	a0,%hi(.LC51)
	addi	a0,a0,%lo(.LC51)
	call	printf
.LVL1217:
	.loc 1 5199 4
	j	.L727
.LVL1218:
.L738:
.LBB862:
.LBB845:
	.loc 1 4588 3
	.loc 1 4588 9 is_stmt 0
	li	s2,4096
	li	a1,2
	addi	a0,s2,-915
	call	bt_hci_cmd_create
.LVL1219:
	mv	s0,a0
.LVL1220:
	.loc 1 4590 3 is_stmt 1
	.loc 1 4590 6 is_stmt 0
	bne	a0,zero,.L741
.LVL1221:
.L744:
.LBE845:
.LBE862:
	.loc 1 5171 2 is_stmt 1
.LBB863:
.LBB846:
	.loc 1 4591 11 is_stmt 0
	li	s0,-55
	j	.L727
.LVL1222:
.L741:
	.loc 1 4594 3 is_stmt 1
	.loc 1 4594 11 is_stmt 0
	li	a1,2
	addi	a0,a0,8
	call	net_buf_simple_add
.LVL1223:
	.loc 1 4597 3 is_stmt 1
	.loc 1 4597 13 is_stmt 0
	li	a5,1
	sb	a5,0(a0)
	.loc 1 4598 3 is_stmt 1
	.loc 1 4598 16 is_stmt 0
	sb	zero,1(a0)
	.loc 1 4599 3 is_stmt 1
	.loc 1 4599 9 is_stmt 0
	mv	a1,s0
	li	a2,0
	addi	a0,s2,-915
.LVL1224:
	call	bt_hci_cmd_send_sync
.LVL1225:
	mv	s0,a0
.LVL1226:
	.loc 1 4601 3 is_stmt 1
	.loc 1 4601 6 is_stmt 0
	beq	a0,zero,.L742
	j	.L727
.LVL1227:
.L759:
.LBE846:
.LBE863:
.LBB864:
.LBB861:
	.loc 1 4950 8
	lui	a5,%hi(.LC48)
	lw	a0,%lo(.LC48)(a5)
.LVL1228:
	lw	a1,%lo(.LC48+4)(a5)
	j	.L754
.LVL1229:
.L755:
.LBE861:
.LBE864:
.LBE867:
.LBE870:
	.loc 1 5377 2 is_stmt 1
	.loc 1 5378 3
	.loc 1 5378 9 is_stmt 0
	call	bt_conn_init
.LVL1230:
	mv	s0,a0
.LVL1231:
	.loc 1 5379 3 is_stmt 1
	.loc 1 5379 6 is_stmt 0
	bne	a0,zero,.L727
	.loc 1 5410 5 is_stmt 1
	.loc 1 5419 2
	call	bt_finalize_init
.LVL1232:
	.loc 1 5420 2
	j	.L727
.LBE874:
.LBE878:
	.cfi_endproc
.LFE194:
	.size	init_work, .-init_work
	.section	.text.bt_addr_le_is_bonded,"ax",@progbits
	.align	1
	.globl	bt_addr_le_is_bonded
	.type	bt_addr_le_is_bonded, @function
bt_addr_le_is_bonded:
.LFB211:
	.loc 1 6033 1
	.cfi_startproc
.LVL1233:
	.loc 1 6034 2
.LBB879:
	.loc 1 6035 3
.LBE879:
	.loc 1 6033 1 is_stmt 0
	addi	sp,sp,-16
	.cfi_def_cfa_offset 16
	sw	ra,12(sp)
	.cfi_offset 1, -4
.LBB880:
	.loc 1 6035 26
	call	bt_keys_find_addr
.LVL1234:
	.loc 1 6038 3 is_stmt 1
	.loc 1 6038 15 is_stmt 0
	beq	a0,zero,.L784
	.loc 1 6038 15 discriminator 1
	lhu	a0,10(a0)
.LVL1235:
	snez	a0,a0
.L783:
.LBE880:
	.loc 1 6042 1 discriminator 6
	lw	ra,12(sp)
	.cfi_remember_state
	.cfi_restore 1
	addi	sp,sp,16
	.cfi_def_cfa_offset 0
	jr	ra
.LVL1236:
.L784:
	.cfi_restore_state
.LBB881:
	.loc 1 6038 15
	li	a0,0
.LVL1237:
	j	.L783
.LBE881:
	.cfi_endproc
.LFE211:
	.size	bt_addr_le_is_bonded, .-bt_addr_le_is_bonded
	.section	.text.bt_le_adv_update_data,"ax",@progbits
	.align	1
	.globl	bt_le_adv_update_data
	.type	bt_le_adv_update_data, @function
bt_le_adv_update_data:
.LFB215:
	.loc 1 6157 1 is_stmt 1
	.cfi_startproc
.LVL1238:
	.loc 1 6158 1
	.loc 1 6160 2
	.loc 1 6157 1 is_stmt 0
	addi	sp,sp,-48
	.cfi_def_cfa_offset 48
	sw	s0,40(sp)
	.cfi_offset 8, -8
	.loc 1 6160 7
	lui	s0,%hi(.LANCHOR2+108)
	addi	s0,s0,%lo(.LANCHOR2+108)
	.loc 1 6157 1
	sw	s1,36(sp)
	sw	s2,32(sp)
	.cfi_offset 9, -12
	.cfi_offset 18, -16
	mv	s1,a0
	mv	s2,a1
	.loc 1 6160 7
	mv	a0,s0
.LVL1239:
	li	a1,6
.LVL1240:
	.loc 1 6157 1
	sw	ra,44(sp)
	sw	s3,28(sp)
	.cfi_offset 1, -4
	.cfi_offset 19, -20
	.loc 1 6157 1
	sw	a2,12(sp)
	sw	a3,8(sp)
	.loc 1 6160 7
	call	atomic_test_bit
.LVL1241:
	.loc 1 6160 5
	beq	a0,zero,.L787
	.loc 1 6164 2 is_stmt 1
	.loc 1 6164 16 is_stmt 0
	li	a1,8
	mv	a0,s0
	call	atomic_test_bit
.LVL1242:
	mv	s3,a0
.LVL1243:
	.loc 1 6166 2 is_stmt 1
	.loc 1 6166 13 is_stmt 0
	li	a1,7
	mv	a0,s0
.LVL1244:
	call	atomic_test_bit
.LVL1245:
	.loc 1 6168 2 is_stmt 1
	.loc 1 6169 1 is_stmt 0
	lw	s0,40(sp)
	.cfi_remember_state
	.cfi_restore 8
	.loc 1 6168 9
	lw	a3,8(sp)
	lw	a2,12(sp)
	.loc 1 6169 1
	lw	ra,44(sp)
	.cfi_restore 1
	.loc 1 6168 9
	snez	a5,a0
	snez	a4,s3
	mv	a1,s2
	.loc 1 6169 1
	lw	s3,28(sp)
	.cfi_restore 19
.LVL1246:
	lw	s2,32(sp)
	.cfi_restore 18
.LVL1247:
	.loc 1 6168 9
	mv	a0,s1
.LVL1248:
	.loc 1 6169 1
	lw	s1,36(sp)
	.cfi_restore 9
.LVL1249:
	addi	sp,sp,48
	.cfi_def_cfa_offset 0
.LVL1250:
	.loc 1 6168 9
	tail	le_adv_update
.LVL1251:
.L787:
	.cfi_restore_state
	.loc 1 6169 1
	lw	ra,44(sp)
	.cfi_restore 1
	lw	s0,40(sp)
	.cfi_restore 8
	lw	s1,36(sp)
	.cfi_restore 9
.LVL1252:
	lw	s2,32(sp)
	.cfi_restore 18
.LVL1253:
	lw	s3,28(sp)
	.cfi_restore 19
	li	a0,-11
	addi	sp,sp,48
	.cfi_def_cfa_offset 0
.LVL1254:
	jr	ra
	.cfi_endproc
.LFE215:
	.size	bt_le_adv_update_data, .-bt_le_adv_update_data
	.section	.text.bt_le_adv_start_internal,"ax",@progbits
	.align	1
	.globl	bt_le_adv_start_internal
	.type	bt_le_adv_start_internal, @function
bt_le_adv_start_internal:
.LFB216:
	.loc 1 6175 1 is_stmt 1
	.cfi_startproc
.LVL1255:
	.loc 1 6176 2
	.loc 1 6177 2
	.loc 1 6178 2
	.loc 1 6179 1
	.loc 1 6175 1 is_stmt 0
	addi	sp,sp,-80
	.cfi_def_cfa_offset 80
	sw	s0,72(sp)
	.cfi_offset 8, -8
	.loc 1 6182 7
	lui	s0,%hi(.LANCHOR2)
	.loc 1 6175 1
	sw	s2,64(sp)
	.cfi_offset 18, -16
	mv	s2,a0
	.loc 1 6182 7
	addi	a0,s0,%lo(.LANCHOR2)
.LVL1256:
	.loc 1 6175 1
	sw	s7,44(sp)
	.loc 1 6182 7
	addi	a0,a0,108
	.cfi_offset 23, -36
	.loc 1 6175 1
	mv	s7,a1
	.loc 1 6182 7
	li	a1,1
.LVL1257:
	.loc 1 6175 1
	sw	s1,68(sp)
	sw	s5,52(sp)
	sw	s6,48(sp)
	sw	s8,40(sp)
	sw	s9,36(sp)
	sw	ra,76(sp)
	sw	s3,60(sp)
	sw	s4,56(sp)
	sw	s10,32(sp)
	.cfi_offset 9, -12
	.cfi_offset 21, -28
	.cfi_offset 22, -32
	.cfi_offset 24, -40
	.cfi_offset 25, -44
	.cfi_offset 1, -4
	.cfi_offset 19, -20
	.cfi_offset 20, -24
	.cfi_offset 26, -48
	.loc 1 6175 1
	mv	s8,a2
	mv	s6,a3
	mv	s9,a4
	mv	s5,a5
.LVL1258:
	.loc 1 6180 2 is_stmt 1
	.loc 1 6182 2
	.loc 1 6182 7 is_stmt 0
	call	atomic_test_bit
.LVL1259:
	.loc 1 6183 10
	li	s1,-11
	.loc 1 6182 5
	beq	a0,zero,.L789
	addi	s0,s0,%lo(.LANCHOR2)
	.loc 1 6186 2 is_stmt 1
.LVL1260:
.LBB890:
.LBB891:
	.loc 1 6046 2
	.loc 1 6046 11 is_stmt 0
	lbu	a0,0(s2)
	.loc 1 6046 5
	lbu	a5,7(s0)
	bgtu	a5,a0,.L791
.L792:
.LBE891:
.LBE890:
	.loc 1 6187 10
	li	s1,-22
.LVL1261:
.L789:
	.loc 1 6372 1
	lw	ra,76(sp)
	.cfi_remember_state
	.cfi_restore 1
	lw	s0,72(sp)
	.cfi_restore 8
	mv	a0,s1
	lw	s2,64(sp)
	.cfi_restore 18
.LVL1262:
	lw	s1,68(sp)
	.cfi_restore 9
	lw	s3,60(sp)
	.cfi_restore 19
	lw	s4,56(sp)
	.cfi_restore 20
	lw	s5,52(sp)
	.cfi_restore 21
.LVL1263:
	lw	s6,48(sp)
	.cfi_restore 22
.LVL1264:
	lw	s7,44(sp)
	.cfi_restore 23
.LVL1265:
	lw	s8,40(sp)
	.cfi_restore 24
.LVL1266:
	lw	s9,36(sp)
	.cfi_restore 25
.LVL1267:
	lw	s10,32(sp)
	.cfi_restore 26
	addi	sp,sp,80
	.cfi_def_cfa_offset 0
	jr	ra
.LVL1268:
.L791:
	.cfi_restore_state
.LBB899:
.LBB898:
	.loc 1 6047 22
	li	a5,7
	mul	a0,a0,a5
.LBB892:
.LBB893:
	.loc 3 55 9
	li	a2,7
	addi	a1,sp,8
.LBE893:
.LBE892:
	.loc 1 6047 67
	sw	zero,8(sp)
	sh	zero,12(sp)
	sb	zero,14(sp)
.LVL1269:
.LBB895:
.LBB894:
	.loc 3 55 2 is_stmt 1
	.loc 3 55 9 is_stmt 0
	add	a0,s0,a0
	call	memcmp
.LVL1270:
.LBE894:
.LBE895:
	.loc 1 6046 35
	beq	a0,zero,.L792
	.loc 1 6051 13
	lbu	a5,1(s2)
	lui	s3,%hi(.LANCHOR2+108)
	addi	s3,s3,%lo(.LANCHOR2+108)
	.loc 1 6051 2 is_stmt 1
	.loc 1 6051 5 is_stmt 0
	andi	a4,a5,1
	bne	a4,zero,.L793
	.loc 1 6058 3 is_stmt 1
	.loc 1 6058 6 is_stmt 0
	lbu	a3,16(s0)
	li	a4,8
	bgtu	a3,a4,.L793
	.loc 1 6058 30
	lhu	a3,2(s2)
	li	a4,159
	bleu	a3,a4,.L792
.L793:
	.loc 1 6064 2 is_stmt 1
.LBB896:
.LBB897:
	.loc 1 248 2
.LBE897:
.LBE896:
	.loc 1 6064 5 is_stmt 0
	lbu	a4,147(s0)
	bne	a4,zero,.L794
	.loc 1 6064 20
	andi	a4,a5,64
	bne	a4,zero,.L792
	.loc 1 6065 56
	slli	a4,a5,24
	srai	a4,a4,24
	blt	a4,zero,.L792
.L794:
	.loc 1 6071 2 is_stmt 1
	.loc 1 6071 5 is_stmt 0
	andi	a5,a5,16
	bne	a5,zero,.L795
	.loc 1 6071 57
	bne	s5,zero,.L796
.L795:
	.loc 1 6072 3 is_stmt 1
	.loc 1 6072 12 is_stmt 0
	lhu	a4,2(s2)
	.loc 1 6072 34
	lhu	a5,4(s2)
	.loc 1 6072 6
	bgtu	a4,a5,.L792
	.loc 1 6072 49
	li	a3,31
	bleu	a4,a3,.L792
	.loc 1 6073 36
	li	a4,16384
	bgtu	a5,a4,.L792
.L796:
.LBE898:
.LBE899:
	.loc 1 6190 2 is_stmt 1
	.loc 1 6190 6 is_stmt 0
	li	a1,6
	mv	a0,s3
	call	atomic_test_bit
.LVL1271:
	mv	s1,a0
	.loc 1 6190 5
	bne	a0,zero,.L817
	.loc 1 6194 2 is_stmt 1
	.loc 1 6194 8 is_stmt 0
	li	a2,15
	li	a1,0
	addi	a0,sp,16
	call	memset
.LVL1272:
	.loc 1 6196 2 is_stmt 1
	.loc 1 6196 25 is_stmt 0
	lhu	a5,2(s2)
	.loc 1 6200 5
	lbu	a4,8(s0)
	.loc 1 6196 25
	sh	a5,16(sp)
	.loc 1 6197 2 is_stmt 1
	.loc 1 6197 25 is_stmt 0
	lhu	a5,4(s2)
	sh	a5,18(sp)
	.loc 1 6198 2 is_stmt 1
	.loc 1 6198 24 is_stmt 0
	lui	a5,%hi(.LANCHOR17)
	lbu	a5,%lo(.LANCHOR17)(a5)
	sb	a5,29(sp)
	.loc 1 6200 2 is_stmt 1
	.loc 1 6200 5 is_stmt 0
	lbu	a5,0(s2)
	beq	a4,a5,.L797
	.loc 1 6201 3 is_stmt 1
.LVL1273:
.LBB900:
.LBB901:
	.loc 2 391 2
	.loc 2 393 2
	li	a1,-65536
	addi	a1,a1,-1
	mv	a0,s3
	call	atomic_and
.LVL1274:
.L797:
.LBE901:
.LBE900:
	.loc 1 6205 2
	.loc 1 6205 12 is_stmt 0
	lbu	a5,1(s2)
	slli	a4,a5,24
	.loc 1 6205 5
	andi	a5,a5,64
	srai	a4,a4,24
	beq	a5,zero,.L798
	.loc 1 6207 27 discriminator 1
	li	a5,3
	.loc 1 6205 55 discriminator 1
	blt	a4,zero,.L832
	.loc 1 6208 9 is_stmt 1
	.loc 1 6209 3
	.loc 1 6209 27 is_stmt 0
	li	a5,1
.L832:
	sb	a5,30(sp)
.L800:
	.loc 1 6220 2 is_stmt 1
	.loc 1 6220 23 is_stmt 0
	lbu	s4,0(s2)
	.loc 1 6220 16
	sb	s4,8(s0)
	.loc 1 6221 2 is_stmt 1
.LVL1275:
	.loc 1 6223 2
	.loc 1 6223 11 is_stmt 0
	lbu	a5,1(s2)
	andi	s10,a5,1
	.loc 1 6223 5
	beq	s10,zero,.L802
	.loc 1 6224 3 is_stmt 1
	.loc 1 6260 4
	.loc 1 6260 15 is_stmt 0
	li	a0,7
	mul	a0,s4,a0
	add	a5,s0,a0
	.loc 1 6260 7
	lbu	a4,0(a5)
	li	a5,1
	beq	a4,a5,.L803
.LVL1276:
.L806:
	.loc 1 6267 4 is_stmt 1
	.loc 1 6267 37 is_stmt 0
	li	a5,7
	mul	s4,s4,a5
.LVL1277:
	add	s4,s0,s4
	.loc 1 6267 28
	lbu	a5,0(s4)
	sb	a5,21(sp)
	.loc 1 6270 3 is_stmt 1
	.loc 1 6270 6 is_stmt 0
	bne	s5,zero,.L804
	.loc 1 6290 4 is_stmt 1
	.loc 1 6290 19 is_stmt 0
	sb	zero,20(sp)
	j	.L808
.LVL1278:
.L798:
	.loc 1 6208 9 is_stmt 1
	.loc 1 6210 9
	.loc 1 6211 27 is_stmt 0
	li	a5,2
	.loc 1 6210 12
	blt	a4,zero,.L832
	.loc 1 6216 3 is_stmt 1
	.loc 1 6216 27 is_stmt 0
	sb	zero,30(sp)
	j	.L800
.LVL1279:
.L803:
	.loc 1 6261 5 is_stmt 1
	.loc 1 6261 11 is_stmt 0
	addi	a0,a0,1
	add	a0,s0,a0
	call	set_random_address
.LVL1280:
	mv	s1,a0
.LVL1281:
	.loc 1 6262 5 is_stmt 1
	.loc 1 6262 8 is_stmt 0
	beq	a0,zero,.L806
	j	.L789
.LVL1282:
.L804:
	.loc 1 6271 4 is_stmt 1
	.loc 1 6271 7 is_stmt 0
	lbu	a5,1(s2)
	andi	a5,a5,16
	beq	a5,zero,.L807
	.loc 1 6272 20
	li	s10,4
.L807:
	.loc 1 6277 4
	mv	a1,s5
	addi	a0,sp,22
	sb	s10,20(sp)
	.loc 1 6277 4 is_stmt 1
	call	bt_addr_le_copy
.LVL1283:
	.loc 1 6279 4
	.loc 1 6279 7 is_stmt 0
	lbu	a5,112(s0)
	andi	a5,a5,64
	beq	a5,zero,.L808
	.loc 1 6281 60
	lbu	a5,1(s2)
	andi	a5,a5,32
	beq	a5,zero,.L808
	.loc 1 6286 5 is_stmt 1
	.loc 1 6286 29 is_stmt 0
	lbu	a5,21(sp)
	ori	a5,a5,2
	sb	a5,21(sp)
.L808:
	.loc 1 6336 2 is_stmt 1
	.loc 1 6336 8 is_stmt 0
	li	s4,8192
	li	a1,15
	addi	a0,s4,6
	call	bt_hci_cmd_create
.LVL1284:
	mv	s0,a0
.LVL1285:
	.loc 1 6337 2 is_stmt 1
	.loc 1 6338 10 is_stmt 0
	li	s1,-55
	.loc 1 6337 5
	beq	a0,zero,.L789
	.loc 1 6341 2 is_stmt 1
	li	a2,15
	addi	a1,sp,16
	addi	a0,a0,8
	call	net_buf_simple_add_mem
.LVL1286:
	.loc 1 6343 2
	.loc 1 6343 8 is_stmt 0
	li	a2,0
	mv	a1,s0
	addi	a0,s4,6
	call	bt_hci_cmd_send_sync
.LVL1287:
	mv	s1,a0
.LVL1288:
	.loc 1 6344 2 is_stmt 1
	.loc 1 6344 5 is_stmt 0
	bne	a0,zero,.L789
	.loc 1 6348 2 is_stmt 1
	.loc 1 6348 5 is_stmt 0
	beq	s5,zero,.L813
.L815:
	.loc 1 6357 2 is_stmt 1
	.loc 1 6357 8 is_stmt 0
	li	a0,1
	call	set_advertise_enable
.LVL1289:
	mv	s1,a0
.LVL1290:
	.loc 1 6358 2 is_stmt 1
	.loc 1 6358 5 is_stmt 0
	bne	a0,zero,.L789
	.loc 1 6362 2 is_stmt 1
	lbu	a2,1(s2)
	mv	a0,s3
	li	a1,9
	srli	a2,a2,1
	xori	a2,a2,1
	andi	a2,a2,1
	call	atomic_set_bit_to
.LVL1291:
	.loc 1 6365 2
	lbu	a2,1(s2)
	mv	a0,s3
	li	a1,7
	srli	a2,a2,3
	andi	a2,a2,1
	call	atomic_set_bit_to
.LVL1292:
	.loc 1 6368 2
	lbu	a2,1(s2)
	li	a1,8
	mv	a0,s3
	andi	a2,a2,1
	call	atomic_set_bit_to
.LVL1293:
	.loc 1 6371 2
	.loc 1 6371 9 is_stmt 0
	j	.L789
.LVL1294:
.L802:
	.loc 1 6293 3 is_stmt 1
	.loc 1 6293 6 is_stmt 0
	andi	a5,a5,4
	beq	a5,zero,.L809
	.loc 1 6294 4 is_stmt 1
	.loc 1 6294 15 is_stmt 0
	li	a0,7
	mul	a0,s4,a0
	add	a5,s0,a0
	.loc 1 6294 7
	lbu	a4,0(a5)
	li	a5,1
	bne	a4,a5,.L810
	.loc 1 6295 5 is_stmt 1
	.loc 1 6295 11 is_stmt 0
	addi	a0,a0,1
	add	a0,s0,a0
	call	set_random_address
.LVL1295:
	mv	s1,a0
.LVL1296:
.L810:
	.loc 1 6298 4 is_stmt 1
	.loc 1 6298 37 is_stmt 0
	li	a5,7
	mul	s4,s4,a5
.LVL1297:
	add	s0,s0,s4
	.loc 1 6298 28
	lbu	a5,0(s0)
.L833:
	.loc 1 6314 32
	sb	a5,21(sp)
	.loc 1 6318 3 is_stmt 1
	.loc 1 6318 6 is_stmt 0
	bne	s1,zero,.L789
	.loc 1 6322 3 is_stmt 1
	.loc 1 6323 19 is_stmt 0
	li	a5,2
	.loc 1 6322 6
	bne	s6,zero,.L834
	.loc 1 6325 4 is_stmt 1
	.loc 1 6325 19 is_stmt 0
	li	a5,3
.L834:
	sb	a5,20(sp)
	j	.L808
.LVL1298:
.L809:
	.loc 1 6307 4 is_stmt 1
	.loc 1 6307 10 is_stmt 0
	call	le_set_private_addr.isra.19
.LVL1299:
	mv	s1,a0
.LVL1300:
	.loc 1 6314 8 is_stmt 1
	.loc 1 6314 32 is_stmt 0
	li	a5,1
	j	.L833
.LVL1301:
.L813:
	.loc 1 6349 3 is_stmt 1
	.loc 1 6350 14 is_stmt 0
	lbu	a4,1(s2)
	.loc 1 6349 9
	mv	a3,s9
	mv	a2,s6
	srli	a5,a4,3
	andi	a5,a5,1
	andi	a4,a4,1
	mv	a1,s8
	mv	a0,s7
	call	le_adv_update
.LVL1302:
	mv	s1,a0
.LVL1303:
	.loc 1 6352 3 is_stmt 1
	.loc 1 6352 6 is_stmt 0
	beq	a0,zero,.L815
	j	.L789
.LVL1304:
.L817:
	.loc 1 6191 10
	li	s1,-69
	j	.L789
	.cfi_endproc
.LFE216:
	.size	bt_le_adv_start_internal, .-bt_le_adv_start_internal
	.section	.text.bt_le_read_rssi,"ax",@progbits
	.align	1
	.globl	bt_le_read_rssi
	.type	bt_le_read_rssi, @function
bt_le_read_rssi:
.LFB217:
	.loc 1 6375 1 is_stmt 1
	.cfi_startproc
.LVL1305:
	.loc 1 6376 2
	.loc 1 6377 2
	.loc 1 6378 2
	.loc 1 6379 2
	.loc 1 6380 2
	.loc 1 6382 2
	.loc 1 6375 1 is_stmt 0
	addi	sp,sp,-48
	.cfi_def_cfa_offset 48
	sw	s2,32(sp)
	.cfi_offset 18, -16
	.loc 1 6382 8
	li	s2,4096
	.loc 1 6375 1
	sw	s0,40(sp)
	sw	s4,24(sp)
	.cfi_offset 8, -8
	.cfi_offset 20, -24
	mv	s0,a0
	mv	s4,a1
	.loc 1 6382 8
	addi	a0,s2,1029
.LVL1306:
	li	a1,2
.LVL1307:
	.loc 1 6375 1
	sw	ra,44(sp)
	sw	s1,36(sp)
	sw	s3,28(sp)
	.cfi_offset 1, -4
	.cfi_offset 9, -12
	.cfi_offset 19, -20
	.loc 1 6382 8
	call	bt_hci_cmd_create
.LVL1308:
	.loc 1 6383 2 is_stmt 1
	.loc 1 6383 5 is_stmt 0
	beq	a0,zero,.L837
	mv	s1,a0
	.loc 1 6387 2 is_stmt 1
	.loc 1 6387 12 is_stmt 0
	li	a1,2
	addi	a0,a0,8
.LVL1309:
	call	net_buf_simple_add
.LVL1310:
	mv	s3,a0
.LVL1311:
	.loc 1 6388 2 is_stmt 1
	li	a2,2
	li	a1,0
	call	memset
.LVL1312:
	.loc 1 6390 2
	.loc 1 6390 18 is_stmt 0
	sb	s0,0(s3)
	srli	s0,s0,8
	sb	s0,1(s3)
	.loc 1 6392 2 is_stmt 1
	.loc 1 6392 8 is_stmt 0
	addi	a2,sp,12
	mv	a1,s1
	addi	a0,s2,1029
	call	bt_hci_cmd_send_sync
.LVL1313:
	mv	s0,a0
.LVL1314:
	.loc 1 6394 2 is_stmt 1
	.loc 1 6394 5 is_stmt 0
	bne	a0,zero,.L835
	.loc 1 6398 2 is_stmt 1
	.loc 1 6398 47 is_stmt 0
	lw	a0,12(sp)
.LVL1315:
	.loc 1 6399 2 is_stmt 1
	.loc 1 6399 18 is_stmt 0
	lw	a5,8(a0)
	lb	a5,3(a5)
	.loc 1 6399 8
	sb	a5,0(s4)
.LVL1316:
	.loc 1 6401 2 is_stmt 1
	call	net_buf_unref
.LVL1317:
	.loc 1 6403 2
.L835:
	.loc 1 6404 1 is_stmt 0
	mv	a0,s0
	lw	ra,44(sp)
	.cfi_remember_state
	.cfi_restore 1
	lw	s0,40(sp)
	.cfi_restore 8
	lw	s1,36(sp)
	.cfi_restore 9
	lw	s2,32(sp)
	.cfi_restore 18
	lw	s3,28(sp)
	.cfi_restore 19
	lw	s4,24(sp)
	.cfi_restore 20
.LVL1318:
	addi	sp,sp,48
	.cfi_def_cfa_offset 0
	jr	ra
.LVL1319:
.L837:
	.cfi_restore_state
	.loc 1 6384 10
	li	s0,-55
	j	.L835
	.cfi_endproc
.LFE217:
	.size	bt_le_read_rssi, .-bt_le_read_rssi
	.section	.text.set_adv_enable,"ax",@progbits
	.align	1
	.globl	set_adv_enable
	.type	set_adv_enable, @function
set_adv_enable:
.LFB218:
	.loc 1 6407 1 is_stmt 1
	.cfi_startproc
.LVL1320:
	.loc 1 6408 2
	.loc 1 6409 2
	.loc 1 6409 8 is_stmt 0
	li	a0,1
.LVL1321:
	tail	set_advertise_enable
.LVL1322:
	.cfi_endproc
.LFE218:
	.size	set_adv_enable, .-set_adv_enable
	.section	.text.set_adv_param,"ax",@progbits
	.align	1
	.globl	set_adv_param
	.type	set_adv_param, @function
set_adv_param:
.LFB219:
	.loc 1 6418 1 is_stmt 1
	.cfi_startproc
.LVL1323:
	.loc 1 6419 2
	.loc 1 6420 2
	.loc 1 6421 2
	.loc 1 6422 2
	.loc 1 6424 2
	.loc 1 6418 1 is_stmt 0
	addi	sp,sp,-48
	.cfi_def_cfa_offset 48
	sw	s0,40(sp)
	.cfi_offset 8, -8
	.loc 1 6424 7
	lui	s0,%hi(.LANCHOR2)
	.loc 1 6418 1
	sw	s3,28(sp)
	.cfi_offset 19, -20
	mv	s3,a0
	.loc 1 6424 7
	addi	a0,s0,%lo(.LANCHOR2)
.LVL1324:
	li	a1,1
	addi	a0,a0,108
	.loc 1 6418 1
	sw	s1,36(sp)
	sw	ra,44(sp)
	sw	s2,32(sp)
	sw	s4,24(sp)
	.cfi_offset 9, -12
	.cfi_offset 1, -4
	.cfi_offset 18, -16
	.cfi_offset 20, -24
	.loc 1 6424 7
	call	atomic_test_bit
.LVL1325:
	.loc 1 6425 10
	li	s1,-11
	.loc 1 6424 5
	beq	a0,zero,.L840
	lui	s4,%hi(.LANCHOR2+108)
	addi	s4,s4,%lo(.LANCHOR2+108)
	.loc 1 6428 2 is_stmt 1
	.loc 1 6428 6 is_stmt 0
	li	a1,6
	mv	a0,s4
	call	atomic_test_bit
.LVL1326:
	mv	s1,a0
	.loc 1 6428 5
	bne	a0,zero,.L855
	.loc 1 6432 8
	li	a2,15
	li	a1,0
	mv	a0,sp
	call	memset
.LVL1327:
	.loc 1 6434 25
	lhu	a5,2(s3)
	addi	s0,s0,%lo(.LANCHOR2)
	.loc 1 6432 2 is_stmt 1
	.loc 1 6434 2
	.loc 1 6438 5 is_stmt 0
	lbu	a4,8(s0)
	.loc 1 6434 25
	sh	a5,0(sp)
	.loc 1 6435 2 is_stmt 1
	.loc 1 6435 25 is_stmt 0
	lhu	a5,4(s3)
	sh	a5,2(sp)
	.loc 1 6436 2 is_stmt 1
	.loc 1 6436 24 is_stmt 0
	li	a5,7
	sb	a5,13(sp)
	.loc 1 6438 2 is_stmt 1
	.loc 1 6438 5 is_stmt 0
	lbu	a5,0(s3)
	beq	a4,a5,.L842
	.loc 1 6439 3 is_stmt 1
.LVL1328:
.LBB902:
.LBB903:
	.loc 2 391 2
	.loc 2 393 2
	li	a1,-65536
	addi	a1,a1,-1
	mv	a0,s4
	call	atomic_and
.LVL1329:
.L842:
.LBE903:
.LBE902:
	.loc 1 6443 2
	.loc 1 6443 12 is_stmt 0
	lbu	a5,1(s3)
	slli	a4,a5,24
	.loc 1 6443 5
	andi	a5,a5,64
	srai	a4,a4,24
	beq	a5,zero,.L843
	.loc 1 6445 27 discriminator 1
	li	a5,3
	.loc 1 6443 55 discriminator 1
	blt	a4,zero,.L858
	.loc 1 6446 9 is_stmt 1
	.loc 1 6447 3
	.loc 1 6447 27 is_stmt 0
	li	a5,1
.L858:
	sb	a5,14(sp)
.L845:
	.loc 1 6458 2 is_stmt 1
	.loc 1 6458 23 is_stmt 0
	lbu	s2,0(s3)
	.loc 1 6458 16
	sb	s2,8(s0)
	.loc 1 6459 2 is_stmt 1
.LVL1330:
	.loc 1 6461 2
	.loc 1 6461 11 is_stmt 0
	lbu	a5,1(s3)
	.loc 1 6461 5
	andi	a4,a5,1
	beq	a4,zero,.L847
	.loc 1 6462 3 is_stmt 1
	.loc 1 6498 4
	.loc 1 6498 15 is_stmt 0
	li	a0,7
	mul	a0,s2,a0
	add	a5,s0,a0
	.loc 1 6498 7
	lbu	a4,0(a5)
	li	a5,1
	beq	a4,a5,.L848
.LVL1331:
.L850:
	.loc 1 6505 4 is_stmt 1
	.loc 1 6505 37 is_stmt 0
	li	a5,7
	mul	s2,s2,a5
.LVL1332:
	.loc 1 6508 18
	sb	zero,4(sp)
	.loc 1 6505 37
	add	s0,s0,s2
	.loc 1 6505 28
	lbu	a5,0(s0)
	sb	a5,5(sp)
	.loc 1 6508 3 is_stmt 1
.L849:
	.loc 1 6544 2
	.loc 1 6544 8 is_stmt 0
	li	s2,8192
	li	a1,15
	addi	a0,s2,6
	call	bt_hci_cmd_create
.LVL1333:
	mv	s0,a0
.LVL1334:
	.loc 1 6545 2 is_stmt 1
	.loc 1 6546 10 is_stmt 0
	li	s1,-55
	.loc 1 6545 5
	beq	a0,zero,.L840
	.loc 1 6549 2 is_stmt 1
	li	a2,15
	mv	a1,sp
	addi	a0,a0,8
	call	net_buf_simple_add_mem
.LVL1335:
	.loc 1 6551 2
	.loc 1 6551 8 is_stmt 0
	li	a2,0
	mv	a1,s0
	addi	a0,s2,6
	call	bt_hci_cmd_send_sync
.LVL1336:
	mv	s1,a0
.LVL1337:
	.loc 1 6552 2 is_stmt 1
	.loc 1 6552 5 is_stmt 0
	bne	a0,zero,.L840
	.loc 1 6556 2 is_stmt 1
	lbu	a2,1(s3)
	mv	a0,s4
	li	a1,9
	srli	a2,a2,1
	xori	a2,a2,1
	andi	a2,a2,1
	call	atomic_set_bit_to
.LVL1338:
	.loc 1 6559 2
	lbu	a2,1(s3)
	mv	a0,s4
	li	a1,7
	srli	a2,a2,3
	andi	a2,a2,1
	call	atomic_set_bit_to
.LVL1339:
	.loc 1 6562 2
	lbu	a2,1(s3)
	li	a1,8
	mv	a0,s4
	andi	a2,a2,1
	call	atomic_set_bit_to
.LVL1340:
	.loc 1 6565 2
	.loc 1 6565 9 is_stmt 0
	j	.L840
.LVL1341:
.L843:
	.loc 1 6446 9 is_stmt 1
	.loc 1 6448 9
	.loc 1 6449 27 is_stmt 0
	li	a5,2
	.loc 1 6448 12
	blt	a4,zero,.L858
	.loc 1 6454 3 is_stmt 1
	.loc 1 6454 27 is_stmt 0
	sb	zero,14(sp)
	j	.L845
.LVL1342:
.L848:
	.loc 1 6499 5 is_stmt 1
	.loc 1 6499 11 is_stmt 0
	addi	a0,a0,1
	add	a0,s0,a0
	call	set_random_address
.LVL1343:
	mv	s1,a0
.LVL1344:
	.loc 1 6500 5 is_stmt 1
	.loc 1 6500 8 is_stmt 0
	beq	a0,zero,.L850
.LVL1345:
.L840:
	.loc 1 6566 1
	lw	ra,44(sp)
	.cfi_remember_state
	.cfi_restore 1
	lw	s0,40(sp)
	.cfi_restore 8
	mv	a0,s1
	lw	s2,32(sp)
	.cfi_restore 18
	lw	s1,36(sp)
	.cfi_restore 9
	lw	s3,28(sp)
	.cfi_restore 19
.LVL1346:
	lw	s4,24(sp)
	.cfi_restore 20
	addi	sp,sp,48
	.cfi_def_cfa_offset 0
	jr	ra
.LVL1347:
.L847:
	.cfi_restore_state
	.loc 1 6511 3 is_stmt 1
	.loc 1 6511 6 is_stmt 0
	andi	a5,a5,4
	beq	a5,zero,.L851
	.loc 1 6512 4 is_stmt 1
	.loc 1 6512 15 is_stmt 0
	li	a0,7
	mul	a0,s2,a0
	add	a5,s0,a0
	.loc 1 6512 7
	lbu	a4,0(a5)
	li	a5,1
	bne	a4,a5,.L852
	.loc 1 6513 5 is_stmt 1
	.loc 1 6513 11 is_stmt 0
	addi	a0,a0,1
	add	a0,s0,a0
	call	set_random_address
.LVL1348:
	mv	s1,a0
.LVL1349:
.L852:
	.loc 1 6516 4 is_stmt 1
	.loc 1 6516 37 is_stmt 0
	li	a5,7
	mul	s2,s2,a5
.LVL1350:
	add	s2,s0,s2
	.loc 1 6516 28
	lbu	a5,0(s2)
.L859:
	.loc 1 6532 32
	sb	a5,5(sp)
	.loc 1 6536 3 is_stmt 1
	.loc 1 6536 6 is_stmt 0
	bne	s1,zero,.L840
	.loc 1 6540 3 is_stmt 1
	.loc 1 6540 18 is_stmt 0
	li	a5,3
	sb	a5,4(sp)
	j	.L849
.LVL1351:
.L851:
	.loc 1 6525 4 is_stmt 1
	.loc 1 6525 10 is_stmt 0
	call	le_set_private_addr.isra.19
.LVL1352:
	mv	s1,a0
.LVL1353:
	.loc 1 6532 8 is_stmt 1
	.loc 1 6532 32 is_stmt 0
	li	a5,1
	j	.L859
.LVL1354:
.L855:
	.loc 1 6429 10
	li	s1,-69
	j	.L840
	.cfi_endproc
.LFE219:
	.size	set_adv_param, .-set_adv_param
	.section	.text.set_ad_and_rsp_d,"ax",@progbits
	.align	1
	.globl	set_ad_and_rsp_d
	.type	set_ad_and_rsp_d, @function
set_ad_and_rsp_d:
.LFB220:
	.loc 1 6570 1 is_stmt 1
	.cfi_startproc
.LVL1355:
	.loc 1 6571 2
	.loc 1 6572 2
	.loc 1 6573 2
	.loc 1 6575 2
	.loc 1 6575 4 is_stmt 0
	li	a5,-8192
	addi	a5,a5,-8
	add	a5,a0,a5
	slli	a5,a5,16
	srli	a5,a5,16
	li	a4,1
	bgtu	a5,a4,.L864
	.loc 1 6570 1
	addi	sp,sp,-32
	.cfi_def_cfa_offset 32
	sw	s2,16(sp)
	.cfi_offset 18, -16
	mv	s2,a1
.LVL1356:
	.loc 1 6586 5 is_stmt 1
	.loc 1 6586 11 is_stmt 0
	li	a1,32
.LVL1357:
	.loc 1 6570 1
	sw	s0,24(sp)
	sw	s1,20(sp)
	sw	s3,12(sp)
	sw	ra,28(sp)
	sw	s4,8(sp)
	sw	s5,4(sp)
	.cfi_offset 8, -8
	.cfi_offset 9, -12
	.cfi_offset 19, -20
	.cfi_offset 1, -4
	.cfi_offset 20, -24
	.cfi_offset 21, -28
	mv	s0,a0
	mv	s1,a2
	.loc 1 6586 11
	call	bt_hci_cmd_create
.LVL1358:
	mv	s3,a0
.LVL1359:
	.loc 1 6587 2 is_stmt 1
	.loc 1 6587 5 is_stmt 0
	beq	a0,zero,.L865
	.loc 1 6591 2 is_stmt 1
.LBB904:
	.loc 1 6593 48 is_stmt 0
	li	a1,32
.LBE904:
	.loc 1 6607 8 is_stmt 1
.LBB905:
	.loc 1 6609 3
	addi	a0,a0,8
.LVL1360:
	.loc 1 6609 53 is_stmt 0
	call	net_buf_simple_add
.LVL1361:
	.loc 1 6610 3
	li	a2,32
	li	a1,0
	.loc 1 6609 53
	mv	s4,a0
.LVL1362:
	.loc 1 6610 3 is_stmt 1
	andi	s5,s1,255
	call	memset
.LVL1363:
	.loc 1 6612 3
	.loc 1 6622 3 is_stmt 0
	mv	a2,s5
	.loc 1 6612 17
	sb	s1,0(s4)
	.loc 1 6614 3 is_stmt 1
	.loc 1 6622 3
	mv	a1,s2
	addi	a0,s4,1
	call	memcpy
.LVL1364:
.LBE905:
	.loc 1 6627 5
	.loc 1 6627 12 is_stmt 0
	mv	a0,s0
	.loc 1 6628 1
	lw	s0,24(sp)
	.cfi_restore 8
	lw	ra,28(sp)
	.cfi_restore 1
	lw	s1,20(sp)
	.cfi_restore 9
.LVL1365:
	lw	s2,16(sp)
	.cfi_restore 18
.LVL1366:
	lw	s4,8(sp)
	.cfi_restore 20
.LVL1367:
	lw	s5,4(sp)
	.cfi_restore 21
	.loc 1 6627 12
	mv	a1,s3
	.loc 1 6628 1
	lw	s3,12(sp)
	.cfi_restore 19
.LVL1368:
	.loc 1 6627 12
	li	a2,0
	.loc 1 6628 1
	addi	sp,sp,32
	.cfi_def_cfa_offset 0
	.loc 1 6627 12
	tail	bt_hci_cmd_send_sync
.LVL1369:
.L864:
	.loc 1 6584 10
	li	a0,-35
.LVL1370:
	.loc 1 6628 1
	ret
.LVL1371:
.L865:
	.cfi_def_cfa_offset 32
	.cfi_offset 1, -4
	.cfi_offset 8, -8
	.cfi_offset 9, -12
	.cfi_offset 18, -16
	.cfi_offset 19, -20
	.cfi_offset 20, -24
	.cfi_offset 21, -28
	lw	ra,28(sp)
	.cfi_restore 1
	lw	s0,24(sp)
	.cfi_restore 8
	lw	s1,20(sp)
	.cfi_restore 9
.LVL1372:
	lw	s2,16(sp)
	.cfi_restore 18
.LVL1373:
	lw	s3,12(sp)
	.cfi_restore 19
	lw	s4,8(sp)
	.cfi_restore 20
	lw	s5,4(sp)
	.cfi_restore 21
	.loc 1 6588 10
	li	a0,-55
.LVL1374:
	.loc 1 6628 1
	addi	sp,sp,32
	.cfi_def_cfa_offset 0
	jr	ra
	.cfi_endproc
.LFE220:
	.size	set_ad_and_rsp_d, .-set_ad_and_rsp_d
	.section	.text.set_adv_channel_map,"ax",@progbits
	.align	1
	.globl	set_adv_channel_map
	.type	set_adv_channel_map, @function
set_adv_channel_map:
.LFB221:
	.loc 1 6631 1 is_stmt 1
	.cfi_startproc
.LVL1375:
	.loc 1 6632 5
	.loc 1 6634 5
	.loc 1 6634 21 is_stmt 0
	addi	a5,a0,-1
	.loc 1 6634 7
	andi	a5,a5,0xff
	li	a4,6
	bgtu	a5,a4,.L872
	.loc 1 6636 9 is_stmt 1
	.loc 1 6636 20 is_stmt 0
	lui	a5,%hi(.LANCHOR17)
	sb	a0,%lo(.LANCHOR17)(a5)
	.loc 1 6632 9
	li	a0,0
.LVL1376:
	ret
.LVL1377:
.L872:
	.loc 1 6640 13
	li	a0,-1
.LVL1378:
	.loc 1 6643 5 is_stmt 1
	.loc 1 6644 1 is_stmt 0
	ret
	.cfi_endproc
.LFE221:
	.size	set_adv_channel_map, .-set_adv_channel_map
	.section	.text.bt_get_local_public_address,"ax",@progbits
	.align	1
	.globl	bt_get_local_public_address
	.type	bt_get_local_public_address, @function
bt_get_local_public_address:
.LFB222:
	.loc 1 6647 1 is_stmt 1
	.cfi_startproc
.LVL1379:
	.loc 1 6648 2
	.loc 1 6650 2
	lui	a1,%hi(.LANCHOR2)
	.loc 1 6647 1 is_stmt 0
	addi	sp,sp,-16
	.cfi_def_cfa_offset 16
	.loc 1 6650 2
	addi	a1,a1,%lo(.LANCHOR2)
	.loc 1 6647 1
	sw	ra,12(sp)
	.cfi_offset 1, -4
	.loc 1 6650 2
	call	bt_addr_le_copy
.LVL1380:
	.loc 1 6651 2 is_stmt 1
	.loc 1 6652 1 is_stmt 0
	lw	ra,12(sp)
	.cfi_restore 1
	li	a0,0
	addi	sp,sp,16
	.cfi_def_cfa_offset 0
	jr	ra
	.cfi_endproc
.LFE222:
	.size	bt_get_local_public_address, .-bt_get_local_public_address
	.section	.text.bt_get_local_ramdon_address,"ax",@progbits
	.align	1
	.globl	bt_get_local_ramdon_address
	.type	bt_get_local_ramdon_address, @function
bt_get_local_ramdon_address:
.LFB223:
	.loc 1 6655 1 is_stmt 1
	.cfi_startproc
.LVL1381:
	.loc 1 6656 2
	.loc 1 6658 2
	lui	a1,%hi(.LANCHOR2+9)
	.loc 1 6655 1 is_stmt 0
	addi	sp,sp,-16
	.cfi_def_cfa_offset 16
	.loc 1 6658 2
	addi	a1,a1,%lo(.LANCHOR2+9)
	.loc 1 6655 1
	sw	ra,12(sp)
	.cfi_offset 1, -4
	.loc 1 6658 2
	call	bt_addr_le_copy
.LVL1382:
	.loc 1 6659 2 is_stmt 1
	.loc 1 6660 1 is_stmt 0
	lw	ra,12(sp)
	.cfi_restore 1
	li	a0,0
	addi	sp,sp,16
	.cfi_def_cfa_offset 0
	jr	ra
	.cfi_endproc
.LFE223:
	.size	bt_get_local_ramdon_address, .-bt_get_local_ramdon_address
	.section	.text.bt_le_adv_start,"ax",@progbits
	.align	1
	.globl	bt_le_adv_start
	.type	bt_le_adv_start, @function
bt_le_adv_start:
.LFB224:
	.loc 1 6666 1 is_stmt 1
	.cfi_startproc
.LVL1383:
	.loc 1 6667 2
	.loc 1 6667 5 is_stmt 0
	lbu	a5,1(a0)
	andi	a5,a5,16
	bne	a5,zero,.L878
	.loc 1 6671 2 is_stmt 1
	.loc 1 6671 9 is_stmt 0
	tail	bt_le_adv_start_internal
.LVL1384:
.L878:
	.loc 1 6672 1
	li	a0,-22
.LVL1385:
	ret
	.cfi_endproc
.LFE224:
	.size	bt_le_adv_start, .-bt_le_adv_start
	.section	.text.bt_le_adv_stop,"ax",@progbits
	.align	1
	.globl	bt_le_adv_stop
	.type	bt_le_adv_stop, @function
bt_le_adv_stop:
.LFB225:
	.loc 1 6675 1 is_stmt 1
	.cfi_startproc
	.loc 1 6676 2
	.loc 1 6681 2
.LVL1386:
.LBB906:
.LBB907:
	.loc 2 391 2
	.loc 2 393 2
.LBE907:
.LBE906:
	.loc 1 6675 1 is_stmt 0
	addi	sp,sp,-16
	.cfi_def_cfa_offset 16
	sw	s0,8(sp)
	.cfi_offset 8, -8
.LBB910:
.LBB908:
	.loc 2 393 2
	lui	s0,%hi(.LANCHOR2+108)
	addi	s0,s0,%lo(.LANCHOR2+108)
	li	a1,-513
	mv	a0,s0
.LBE908:
.LBE910:
	.loc 1 6675 1
	sw	ra,12(sp)
	sw	s1,4(sp)
	.cfi_offset 1, -4
	.cfi_offset 9, -12
.LBB911:
.LBB909:
	.loc 2 393 2
	call	atomic_and
.LVL1387:
.LBE909:
.LBE911:
	.loc 1 6683 2 is_stmt 1
	.loc 1 6683 7 is_stmt 0
	li	a1,6
	mv	a0,s0
	call	atomic_test_bit
.LVL1388:
	.loc 1 6683 5
	bne	a0,zero,.L880
.L882:
	.loc 1 6684 10
	li	s1,0
.L879:
	.loc 1 6701 1
	lw	ra,12(sp)
	.cfi_remember_state
	.cfi_restore 1
	lw	s0,8(sp)
	.cfi_restore 8
	mv	a0,s1
	lw	s1,4(sp)
	.cfi_restore 9
	addi	sp,sp,16
	.cfi_def_cfa_offset 0
	jr	ra
.L880:
	.cfi_restore_state
	.loc 1 6687 2 is_stmt 1
	.loc 1 6687 8 is_stmt 0
	li	a0,0
	call	set_advertise_enable
.LVL1389:
	mv	s1,a0
.LVL1390:
	.loc 1 6688 2 is_stmt 1
	.loc 1 6688 5 is_stmt 0
	bne	a0,zero,.L879
	.loc 1 6692 2 is_stmt 1
	.loc 1 6694 3
	.loc 1 6694 7 is_stmt 0
	li	a1,10
	mv	a0,s0
	call	atomic_test_bit
.LVL1391:
	.loc 1 6694 6
	beq	a0,zero,.L882
	.loc 1 6695 7 discriminator 1
	li	a1,12
	mv	a0,s0
	call	atomic_test_bit
.LVL1392:
	.loc 1 6694 54 discriminator 1
	beq	a0,zero,.L882
	.loc 1 6696 4 is_stmt 1
	call	le_set_private_addr.isra.19
.LVL1393:
	j	.L879
	.cfi_endproc
.LFE225:
	.size	bt_le_adv_stop, .-bt_le_adv_stop
	.section	.text.bt_le_scan_start,"ax",@progbits
	.align	1
	.globl	bt_le_scan_start
	.type	bt_le_scan_start, @function
bt_le_scan_start:
.LFB227:
	.loc 1 6921 1
	.cfi_startproc
.LVL1394:
	.loc 1 6922 2
	.loc 1 6924 2
	.loc 1 6921 1 is_stmt 0
	addi	sp,sp,-32
	.cfi_def_cfa_offset 32
	sw	s3,12(sp)
	.cfi_offset 19, -20
	.loc 1 6924 7
	lui	s3,%hi(.LANCHOR2)
	addi	s3,s3,%lo(.LANCHOR2)
	.loc 1 6921 1
	sw	s1,20(sp)
	sw	s4,8(sp)
	.cfi_offset 9, -12
	.cfi_offset 20, -24
	mv	s1,a0
	mv	s4,a1
	.loc 1 6924 7
	addi	a0,s3,108
.LVL1395:
	li	a1,1
.LVL1396:
	.loc 1 6921 1
	sw	s0,24(sp)
	sw	ra,28(sp)
	sw	s2,16(sp)
	.cfi_offset 8, -8
	.cfi_offset 1, -4
	.cfi_offset 18, -16
	.loc 1 6924 7
	call	atomic_test_bit
.LVL1397:
	.loc 1 6925 10
	li	s0,-11
	.loc 1 6924 5
	beq	a0,zero,.L890
	.loc 1 6929 2 is_stmt 1
.LVL1398:
.LBB922:
.LBB923:
	.loc 1 6841 2
	.loc 1 6841 5 is_stmt 0
	lbu	a4,0(s1)
	li	a5,1
.LBE923:
.LBE922:
	.loc 1 6930 10
	li	s0,-22
.LBB928:
.LBB926:
	.loc 1 6841 5
	bgtu	a4,a5,.L890
	.loc 1 6846 2 is_stmt 1
	.loc 1 6846 11 is_stmt 0
	lbu	a5,1(s1)
	.loc 1 6846 24
	andi	a4,a5,-4
	.loc 1 6846 5
	bne	a4,zero,.L890
	.loc 1 6851 5
	lbu	a4,147(s3)
	lui	s2,%hi(.LANCHOR2+108)
	addi	s2,s2,%lo(.LANCHOR2+108)
	.loc 1 6851 2 is_stmt 1
.LBB924:
.LBB925:
	.loc 1 248 2
.LBE925:
.LBE924:
	.loc 1 6851 5 is_stmt 0
	bne	a4,zero,.L892
	.loc 1 6851 20
	andi	a5,a5,2
	bne	a5,zero,.L890
.L892:
	.loc 1 6856 2 is_stmt 1
	.loc 1 6856 11 is_stmt 0
	lhu	a2,2(s1)
	.loc 1 6856 5
	li	a5,16384
	addi	a5,a5,-4
	.loc 1 6856 31
	addi	a4,a2,-4
	.loc 1 6856 5
	slli	a4,a4,16
	srli	a4,a4,16
.LBE926:
.LBE928:
	.loc 1 6930 10
	li	s0,-22
.LBB929:
.LBB927:
	.loc 1 6856 5
	bgtu	a4,a5,.L890
	.loc 1 6860 2 is_stmt 1
	.loc 1 6860 11 is_stmt 0
	lhu	a3,4(s1)
	.loc 1 6860 29
	addi	a4,a3,-4
	.loc 1 6860 5
	slli	a4,a4,16
	srli	a4,a4,16
	bgtu	a4,a5,.L890
	.loc 1 6864 2 is_stmt 1
	.loc 1 6864 5 is_stmt 0
	bltu	a2,a3,.L890
.LVL1399:
.LBE927:
.LBE929:
	.loc 1 6934 2 is_stmt 1
.LBB930:
.LBB931:
	.loc 2 370 2
	.loc 2 371 2
	.loc 2 373 2
	.loc 2 373 8 is_stmt 0
	li	s0,4096
	addi	a1,s0,-2048
	mv	a0,s2
	.loc 2 375 14
	addi	s0,s0,-2048
	.loc 2 373 8
	call	atomic_or
.LVL1400:
	.loc 2 375 2 is_stmt 1
	.loc 2 375 14 is_stmt 0
	and	a0,a0,s0
.LBE931:
.LBE930:
	.loc 1 6935 10
	li	s0,-69
	.loc 1 6934 5
	bne	a0,zero,.L890
	.loc 1 6938 2 is_stmt 1
	.loc 1 6938 6 is_stmt 0
	li	a1,10
	mv	a0,s2
	call	atomic_test_bit
.LVL1401:
	.loc 1 6938 5
	beq	a0,zero,.L893
	.loc 1 6939 3 is_stmt 1
	.loc 1 6939 9 is_stmt 0
	li	a0,0
	call	set_le_scan_enable
.LVL1402:
	mv	s0,a0
.LVL1403:
	.loc 1 6940 3 is_stmt 1
	.loc 1 6940 6 is_stmt 0
	beq	a0,zero,.L893
.L910:
	.loc 1 6956 3 is_stmt 1
.LVL1404:
.LBB932:
.LBB933:
	.loc 2 391 2
	.loc 2 393 2
	li	a1,-4096
	addi	a1,a1,2047
	mv	a0,s2
	call	atomic_and
.LVL1405:
.LBE933:
.LBE932:
	.loc 1 6957 3
.L890:
	.loc 1 6963 1 is_stmt 0
	mv	a0,s0
	lw	ra,28(sp)
	.cfi_remember_state
	.cfi_restore 1
	lw	s0,24(sp)
	.cfi_restore 8
	lw	s1,20(sp)
	.cfi_restore 9
.LVL1406:
	lw	s2,16(sp)
	.cfi_restore 18
	lw	s3,12(sp)
	.cfi_restore 19
	lw	s4,8(sp)
	.cfi_restore 20
.LVL1407:
	addi	sp,sp,32
	.cfi_def_cfa_offset 0
	jr	ra
.LVL1408:
.L893:
	.cfi_restore_state
	.loc 1 6946 2 is_stmt 1
	lbu	a2,1(s1)
	li	a1,13
	mv	a0,s2
	andi	a2,a2,1
	call	atomic_set_bit_to
.LVL1409:
	.loc 1 6950 2
	lbu	a2,1(s1)
	li	a1,14
	mv	a0,s2
	srli	a2,a2,1
	andi	a2,a2,1
	call	atomic_set_bit_to
.LVL1410:
	.loc 1 6954 2
	.loc 1 6954 8 is_stmt 0
	lhu	a2,4(s1)
	lhu	a1,2(s1)
	lbu	a0,0(s1)
	call	start_le_scan
.LVL1411:
	mv	s0,a0
.LVL1412:
	.loc 1 6955 2 is_stmt 1
	.loc 1 6955 5 is_stmt 0
	bne	a0,zero,.L910
	.loc 1 6960 2 is_stmt 1
	.loc 1 6960 20 is_stmt 0
	lui	a5,%hi(.LANCHOR9)
	sw	s4,%lo(.LANCHOR9)(a5)
	.loc 1 6962 2 is_stmt 1
	.loc 1 6962 9 is_stmt 0
	j	.L890
	.cfi_endproc
.LFE227:
	.size	bt_le_scan_start, .-bt_le_scan_start
	.section	.text.bt_le_scan_stop,"ax",@progbits
	.align	1
	.globl	bt_le_scan_stop
	.type	bt_le_scan_stop, @function
bt_le_scan_stop:
.LFB228:
	.loc 1 6966 1 is_stmt 1
	.cfi_startproc
	.loc 1 6968 2
.LVL1413:
.LBB936:
.LBB937:
	.loc 2 349 2
	.loc 2 350 2
	.loc 2 352 2
	.loc 2 352 8 is_stmt 0
	li	a1,-4096
	lui	a0,%hi(.LANCHOR2+108)
.LBE937:
.LBE936:
	.loc 1 6966 1
	addi	sp,sp,-16
	.cfi_def_cfa_offset 16
.LBB940:
.LBB938:
	.loc 2 352 8
	addi	a1,a1,2047
	addi	a0,a0,%lo(.LANCHOR2+108)
.LBE938:
.LBE940:
	.loc 1 6966 1
	sw	ra,12(sp)
	.cfi_offset 1, -4
.LBB941:
.LBB939:
	.loc 2 352 8
	call	atomic_and
.LVL1414:
	.loc 2 354 2 is_stmt 1
.LBE939:
.LBE941:
	.loc 1 6968 5 is_stmt 0
	slli	a5,a0,20
	bge	a5,zero,.L912
	.loc 1 6972 2 is_stmt 1
	.loc 1 6975 1 is_stmt 0
	lw	ra,12(sp)
	.cfi_remember_state
	.cfi_restore 1
	.loc 1 6972 20
	lui	a5,%hi(.LANCHOR9)
	sw	zero,%lo(.LANCHOR9)(a5)
	.loc 1 6974 2 is_stmt 1
	.loc 1 6975 1 is_stmt 0
	.loc 1 6974 9
	li	a0,0
	.loc 1 6975 1
	addi	sp,sp,16
	.cfi_def_cfa_offset 0
	.loc 1 6974 9
	tail	bt_le_scan_update
.LVL1415:
.L912:
	.cfi_restore_state
	.loc 1 6975 1
	lw	ra,12(sp)
	.cfi_restore 1
	li	a0,-69
	addi	sp,sp,16
	.cfi_def_cfa_offset 0
	jr	ra
	.cfi_endproc
.LFE228:
	.size	bt_le_scan_stop, .-bt_le_scan_stop
	.section	.text.bt_le_whitelist_add,"ax",@progbits
	.align	1
	.globl	bt_le_whitelist_add
	.type	bt_le_whitelist_add, @function
bt_le_whitelist_add:
.LFB229:
	.loc 1 6980 1 is_stmt 1
	.cfi_startproc
.LVL1416:
	.loc 1 6981 2
	.loc 1 6982 2
	.loc 1 6983 2
	.loc 1 6985 2
	.loc 1 6980 1 is_stmt 0
	addi	sp,sp,-32
	.cfi_def_cfa_offset 32
	sw	s0,24(sp)
	.cfi_offset 8, -8
	.loc 1 6985 17
	lui	s0,%hi(.LANCHOR2)
	addi	s0,s0,%lo(.LANCHOR2)
	.loc 1 6985 5
	lbu	a4,147(s0)
	lbu	a5,146(s0)
	.loc 1 6980 1
	sw	s1,20(sp)
	sw	ra,28(sp)
	sw	s2,16(sp)
	sw	s3,12(sp)
	sw	s4,8(sp)
	.cfi_offset 9, -12
	.cfi_offset 1, -4
	.cfi_offset 18, -16
	.cfi_offset 19, -20
	.cfi_offset 20, -24
	.loc 1 6986 10
	li	s1,-12
	.loc 1 6985 5
	bgeu	a4,a5,.L914
	.loc 1 6989 8
	li	s4,8192
	mv	s3,a0
	.loc 1 6989 2 is_stmt 1
	.loc 1 6989 8 is_stmt 0
	li	a1,7
	addi	a0,s4,17
.LVL1417:
	call	bt_hci_cmd_create
.LVL1418:
	mv	s2,a0
.LVL1419:
	.loc 1 6990 2 is_stmt 1
	.loc 1 6991 10 is_stmt 0
	li	s1,-55
	.loc 1 6990 5
	beq	a0,zero,.L914
	.loc 1 6994 2 is_stmt 1
	.loc 1 6994 7 is_stmt 0
	li	a1,7
	addi	a0,a0,8
.LVL1420:
	call	net_buf_simple_add
.LVL1421:
	.loc 1 6995 2 is_stmt 1
	mv	a1,s3
	call	bt_addr_le_copy
.LVL1422:
	.loc 1 6997 2
	.loc 1 6997 8 is_stmt 0
	li	a2,0
	mv	a1,s2
	addi	a0,s4,17
	call	bt_hci_cmd_send_sync
.LVL1423:
	mv	s1,a0
.LVL1424:
	.loc 1 6998 2 is_stmt 1
	.loc 1 6998 5 is_stmt 0
	beq	a0,zero,.L916
	.loc 1 6999 3 is_stmt 1
	lui	a0,%hi(.LC52)
	addi	a0,a0,%lo(.LC52)
	call	printf
.LVL1425:
	.loc 1 7001 3
.L914:
	.loc 1 7007 1 is_stmt 0
	lw	ra,28(sp)
	.cfi_remember_state
	.cfi_restore 1
	lw	s0,24(sp)
	.cfi_restore 8
	mv	a0,s1
	lw	s2,16(sp)
	.cfi_restore 18
	lw	s1,20(sp)
	.cfi_restore 9
	lw	s3,12(sp)
	.cfi_restore 19
	lw	s4,8(sp)
	.cfi_restore 20
	addi	sp,sp,32
	.cfi_def_cfa_offset 0
	jr	ra
.LVL1426:
.L916:
	.cfi_restore_state
	.loc 1 7004 2 is_stmt 1
	.loc 1 7004 22 is_stmt 0
	lbu	a5,147(s0)
	addi	a5,a5,1
	sb	a5,147(s0)
	.loc 1 7006 2 is_stmt 1
	.loc 1 7006 9 is_stmt 0
	j	.L914
	.cfi_endproc
.LFE229:
	.size	bt_le_whitelist_add, .-bt_le_whitelist_add
	.section	.text.bt_le_whitelist_rem,"ax",@progbits
	.align	1
	.globl	bt_le_whitelist_rem
	.type	bt_le_whitelist_rem, @function
bt_le_whitelist_rem:
.LFB230:
	.loc 1 7010 1 is_stmt 1
	.cfi_startproc
.LVL1427:
	.loc 1 7011 2
	.loc 1 7012 2
	.loc 1 7013 2
	.loc 1 7015 2
	.loc 1 7010 1 is_stmt 0
	addi	sp,sp,-16
	.cfi_def_cfa_offset 16
	sw	s1,4(sp)
	.cfi_offset 9, -12
	.loc 1 7015 8
	li	s1,8192
	.loc 1 7010 1
	sw	s2,0(sp)
	.loc 1 7015 8
	li	a1,7
	.cfi_offset 18, -16
	.loc 1 7010 1
	mv	s2,a0
	.loc 1 7015 8
	addi	a0,s1,18
.LVL1428:
	.loc 1 7010 1
	sw	s0,8(sp)
	sw	ra,12(sp)
	.cfi_offset 8, -8
	.cfi_offset 1, -4
	.loc 1 7015 8
	call	bt_hci_cmd_create
.LVL1429:
	.loc 1 7016 2 is_stmt 1
	.loc 1 7017 10 is_stmt 0
	li	s0,-55
	.loc 1 7016 5
	beq	a0,zero,.L920
	mv	s0,a0
	.loc 1 7020 2 is_stmt 1
	.loc 1 7020 7 is_stmt 0
	li	a1,7
	addi	a0,a0,8
.LVL1430:
	call	net_buf_simple_add
.LVL1431:
	.loc 1 7021 2 is_stmt 1
	mv	a1,s2
	call	bt_addr_le_copy
.LVL1432:
	.loc 1 7023 2
	.loc 1 7023 8 is_stmt 0
	mv	a1,s0
	li	a2,0
	addi	a0,s1,18
	call	bt_hci_cmd_send_sync
.LVL1433:
	mv	s0,a0
.LVL1434:
	.loc 1 7024 2 is_stmt 1
	.loc 1 7024 5 is_stmt 0
	beq	a0,zero,.L922
	.loc 1 7025 3 is_stmt 1
	lui	a0,%hi(.LC53)
	addi	a0,a0,%lo(.LC53)
	call	printf
.LVL1435:
	.loc 1 7026 3
.L920:
	.loc 1 7031 1 is_stmt 0
	mv	a0,s0
	lw	ra,12(sp)
	.cfi_remember_state
	.cfi_restore 1
	lw	s0,8(sp)
	.cfi_restore 8
	lw	s1,4(sp)
	.cfi_restore 9
	lw	s2,0(sp)
	.cfi_restore 18
.LVL1436:
	addi	sp,sp,16
	.cfi_def_cfa_offset 0
	jr	ra
.LVL1437:
.L922:
	.cfi_restore_state
	.loc 1 7029 2 is_stmt 1
	.loc 1 7029 22 is_stmt 0
	lui	a5,%hi(.LANCHOR2)
	addi	a5,a5,%lo(.LANCHOR2)
	lbu	a4,147(a5)
	addi	a4,a4,-1
	sb	a4,147(a5)
	.loc 1 7030 2 is_stmt 1
	.loc 1 7030 9 is_stmt 0
	j	.L920
	.cfi_endproc
.LFE230:
	.size	bt_le_whitelist_rem, .-bt_le_whitelist_rem
	.section	.text.bt_le_whitelist_clear,"ax",@progbits
	.align	1
	.globl	bt_le_whitelist_clear
	.type	bt_le_whitelist_clear, @function
bt_le_whitelist_clear:
.LFB231:
	.loc 1 7034 1 is_stmt 1
	.cfi_startproc
	.loc 1 7035 2
	.loc 1 7035 12 is_stmt 0
	li	a0,8192
	.loc 1 7034 1
	addi	sp,sp,-16
	.cfi_def_cfa_offset 16
	.loc 1 7035 12
	li	a2,0
	li	a1,0
	addi	a0,a0,16
	.loc 1 7034 1
	sw	s0,8(sp)
	sw	ra,12(sp)
	.cfi_offset 8, -8
	.cfi_offset 1, -4
	.loc 1 7035 12
	call	bt_hci_cmd_send_sync
.LVL1438:
	mv	s0,a0
.LVL1439:
	.loc 1 7037 2 is_stmt 1
	.loc 1 7037 5 is_stmt 0
	beq	a0,zero,.L926
	.loc 1 7038 3 is_stmt 1
	lui	a0,%hi(.LC54)
	addi	a0,a0,%lo(.LC54)
	call	printf
.LVL1440:
	.loc 1 7039 3
.L925:
	.loc 1 7044 1 is_stmt 0
	mv	a0,s0
	lw	ra,12(sp)
	.cfi_remember_state
	.cfi_restore 1
	lw	s0,8(sp)
	.cfi_restore 8
.LVL1441:
	addi	sp,sp,16
	.cfi_def_cfa_offset 0
	jr	ra
.LVL1442:
.L926:
	.cfi_restore_state
	.loc 1 7042 2 is_stmt 1
	.loc 1 7042 23 is_stmt 0
	lui	a5,%hi(.LANCHOR2+147)
	sb	zero,%lo(.LANCHOR2+147)(a5)
	.loc 1 7043 2 is_stmt 1
	.loc 1 7043 9 is_stmt 0
	j	.L925
	.cfi_endproc
.LFE231:
	.size	bt_le_whitelist_clear, .-bt_le_whitelist_clear
	.section	.text.bt_le_set_chan_map,"ax",@progbits
	.align	1
	.globl	bt_le_set_chan_map
	.type	bt_le_set_chan_map, @function
bt_le_set_chan_map:
.LFB232:
	.loc 1 7048 1 is_stmt 1
	.cfi_startproc
.LVL1443:
	.loc 1 7049 2
	.loc 1 7050 2
	.loc 1 7052 2
	.loc 1 7056 2
	.loc 1 7056 33 is_stmt 0
	lui	a5,%hi(.LANCHOR2+59)
	.loc 1 7056 5
	lbu	a5,%lo(.LANCHOR2+59)(a5)
	.loc 1 7048 1
	addi	sp,sp,-32
	.cfi_def_cfa_offset 32
	sw	ra,28(sp)
	sw	s0,24(sp)
	sw	s1,20(sp)
	sw	s2,16(sp)
	sw	s3,12(sp)
	.cfi_offset 1, -4
	.cfi_offset 8, -8
	.cfi_offset 9, -12
	.cfi_offset 18, -16
	.cfi_offset 19, -20
	.loc 1 7056 5
	andi	a5,a5,8
	bne	a5,zero,.L930
	.loc 1 7057 3 is_stmt 1
	lui	a0,%hi(.LC55)
.LVL1444:
	addi	a0,a0,%lo(.LC55)
	call	printf
.LVL1445:
	.loc 1 7059 3
	.loc 1 7059 10 is_stmt 0
	li	a0,-35
.L929:
	.loc 1 7075 1
	lw	ra,28(sp)
	.cfi_remember_state
	.cfi_restore 1
	lw	s0,24(sp)
	.cfi_restore 8
	lw	s1,20(sp)
	.cfi_restore 9
	lw	s2,16(sp)
	.cfi_restore 18
	lw	s3,12(sp)
	.cfi_restore 19
	addi	sp,sp,32
	.cfi_def_cfa_offset 0
	jr	ra
.LVL1446:
.L930:
	.cfi_restore_state
	.loc 1 7062 8
	li	s1,8192
	mv	s2,a0
	.loc 1 7062 2 is_stmt 1
	.loc 1 7062 8 is_stmt 0
	li	a1,5
	addi	a0,s1,20
.LVL1447:
	call	bt_hci_cmd_create
.LVL1448:
	mv	s0,a0
.LVL1449:
	.loc 1 7064 2 is_stmt 1
	.loc 1 7064 5 is_stmt 0
	beq	a0,zero,.L932
	.loc 1 7068 2 is_stmt 1
	.loc 1 7068 7 is_stmt 0
	li	a1,5
	addi	a0,a0,8
	call	net_buf_simple_add
.LVL1450:
	.loc 1 7070 2
	mv	a1,s2
	li	a2,4
	.loc 1 7068 7
	mv	s3,a0
.LVL1451:
	.loc 1 7070 2 is_stmt 1
	call	memcpy
.LVL1452:
	.loc 1 7071 2
	.loc 1 7071 30 is_stmt 0
	lbu	a5,4(s2)
	.loc 1 7073 9
	mv	a1,s0
	addi	a0,s1,20
	.loc 1 7071 30
	andi	a5,a5,31
	.loc 1 7071 16
	sb	a5,4(s3)
	.loc 1 7073 2 is_stmt 1
	.loc 1 7075 1 is_stmt 0
	lw	s0,24(sp)
	.cfi_remember_state
	.cfi_restore 8
.LVL1453:
	lw	ra,28(sp)
	.cfi_restore 1
	lw	s1,20(sp)
	.cfi_restore 9
	lw	s2,16(sp)
	.cfi_restore 18
.LVL1454:
	lw	s3,12(sp)
	.cfi_restore 19
.LVL1455:
	.loc 1 7073 9
	li	a2,0
	.loc 1 7075 1
	addi	sp,sp,32
	.cfi_def_cfa_offset 0
	.loc 1 7073 9
	tail	bt_hci_cmd_send_sync
.LVL1456:
.L932:
	.cfi_restore_state
	.loc 1 7065 10
	li	a0,-55
	j	.L929
	.cfi_endproc
.LFE232:
	.size	bt_le_set_chan_map, .-bt_le_set_chan_map
	.section	.text.bt_set_tx_pwr,"ax",@progbits
	.align	1
	.globl	bt_set_tx_pwr
	.type	bt_set_tx_pwr, @function
bt_set_tx_pwr:
.LFB233:
	.loc 1 7078 1 is_stmt 1
	.cfi_startproc
.LVL1457:
	.loc 1 7079 5
	.loc 1 7080 2
	.loc 1 7081 2
	.loc 1 7083 5
	.loc 1 7083 7 is_stmt 0
	andi	a4,a0,0xff
	li	a5,20
	bgtu	a4,a5,.L936
	.loc 1 7078 1
	addi	sp,sp,-32
	.cfi_def_cfa_offset 32
	sw	s0,24(sp)
	.loc 1 7086 2
	li	a2,1
	.cfi_offset 8, -8
	mv	s0,a0
	.loc 1 7086 2 is_stmt 1
	li	a1,0
	addi	a0,sp,12
.LVL1458:
	.loc 1 7078 1 is_stmt 0
	sw	ra,28(sp)
	sw	s1,20(sp)
	.cfi_offset 1, -4
	.cfi_offset 9, -12
	.loc 1 7086 2
	call	memset
.LVL1459:
	.loc 1 7088 2 is_stmt 1
	.loc 1 7090 8 is_stmt 0
	li	s1,65536
	li	a1,1
	addi	a0,s1,-927
	.loc 1 7088 18
	sb	s0,12(sp)
	.loc 1 7090 2 is_stmt 1
	.loc 1 7090 8 is_stmt 0
	call	bt_hci_cmd_create
.LVL1460:
	mv	s0,a0
.LVL1461:
	.loc 1 7091 2 is_stmt 1
	.loc 1 7092 10 is_stmt 0
	li	a0,-55
	.loc 1 7091 5
	beq	s0,zero,.L934
	.loc 1 7095 2 is_stmt 1
	li	a2,1
	addi	a1,sp,12
	addi	a0,s0,8
	call	net_buf_simple_add_mem
.LVL1462:
	.loc 1 7097 2
	.loc 1 7097 8 is_stmt 0
	li	a2,0
	mv	a1,s0
	addi	a0,s1,-927
	call	bt_hci_cmd_send_sync
.LVL1463:
	.loc 1 7099 2 is_stmt 1
.L934:
	.loc 1 7104 1 is_stmt 0
	lw	ra,28(sp)
	.cfi_restore 1
	lw	s0,24(sp)
	.cfi_restore 8
.LVL1464:
	lw	s1,20(sp)
	.cfi_restore 9
	addi	sp,sp,32
	.cfi_def_cfa_offset 0
	jr	ra
.LVL1465:
.L936:
	.loc 1 7084 16
	li	a0,18
.LVL1466:
	.loc 1 7104 1
	ret
	.cfi_endproc
.LFE233:
	.size	bt_set_tx_pwr, .-bt_set_tx_pwr
	.section	.text.bt_buf_get_rx_avail_cnt,"ax",@progbits
	.align	1
	.globl	bt_buf_get_rx_avail_cnt
	.type	bt_buf_get_rx_avail_cnt, @function
bt_buf_get_rx_avail_cnt:
.LFB234:
	.loc 1 7108 1 is_stmt 1
	.cfi_startproc
	.loc 1 7109 2
	.loc 1 7108 1 is_stmt 0
	addi	sp,sp,-16
	.cfi_def_cfa_offset 16
	.loc 1 7109 10
	lui	a0,%hi(.LANCHOR15)
	.loc 1 7108 1
	sw	s0,8(sp)
	.cfi_offset 8, -8
	.loc 1 7109 10
	addi	s0,a0,%lo(.LANCHOR15)
	addi	a0,a0,%lo(.LANCHOR15)
	.loc 1 7108 1
	sw	ra,12(sp)
	.cfi_offset 1, -4
	.loc 1 7109 10
	call	k_queue_get_cnt
.LVL1467:
	.loc 1 7110 16
	lhu	a5,14(s0)
	.loc 1 7111 1
	lw	ra,12(sp)
	.cfi_restore 1
	lw	s0,8(sp)
	.cfi_restore 8
	add	a0,a5,a0
	addi	sp,sp,16
	.cfi_def_cfa_offset 0
	jr	ra
	.cfi_endproc
.LFE234:
	.size	bt_buf_get_rx_avail_cnt, .-bt_buf_get_rx_avail_cnt
	.section	.text.bt_buf_get_rx,"ax",@progbits
	.align	1
	.globl	bt_buf_get_rx
	.type	bt_buf_get_rx, @function
bt_buf_get_rx:
.LFB235:
	.loc 1 7114 1 is_stmt 1
	.cfi_startproc
.LVL1468:
	.loc 1 7115 2
	.loc 1 7117 2
	.loc 1 7117 7
	.loc 1 7127 2
	.loc 1 7114 1 is_stmt 0
	addi	sp,sp,-16
	.cfi_def_cfa_offset 16
	sw	s1,4(sp)
	.cfi_offset 9, -12
	mv	s1,a0
	.loc 1 7127 8
	lui	a0,%hi(.LANCHOR15)
.LVL1469:
	addi	a0,a0,%lo(.LANCHOR15)
	.loc 1 7114 1
	sw	s0,8(sp)
	sw	ra,12(sp)
	.cfi_offset 8, -8
	.cfi_offset 1, -4
	.loc 1 7127 8
	call	net_buf_alloc_fixed
.LVL1470:
	mv	s0,a0
.LVL1471:
	.loc 1 7130 2 is_stmt 1
	.loc 1 7130 5 is_stmt 0
	beq	a0,zero,.L944
	.loc 1 7131 3 is_stmt 1
	li	a1,1
	addi	a0,a0,8
	call	net_buf_simple_reserve
.LVL1472:
	.loc 1 7132 3
.LBB942:
.LBB943:
	.loc 8 95 2
.LBE943:
.LBE942:
	.loc 5 1063 2
.LBB945:
.LBB944:
	.loc 8 95 34 is_stmt 0
	sb	s1,20(s0)
.LBE944:
.LBE945:
	.loc 1 7135 2 is_stmt 1
.LVL1473:
.L944:
	.loc 1 7136 1 is_stmt 0
	mv	a0,s0
	lw	ra,12(sp)
	.cfi_restore 1
	lw	s0,8(sp)
	.cfi_restore 8
.LVL1474:
	lw	s1,4(sp)
	.cfi_restore 9
	addi	sp,sp,16
	.cfi_def_cfa_offset 0
	jr	ra
	.cfi_endproc
.LFE235:
	.size	bt_buf_get_rx, .-bt_buf_get_rx
	.section	.text.bt_buf_get_cmd_complete,"ax",@progbits
	.align	1
	.globl	bt_buf_get_cmd_complete
	.type	bt_buf_get_cmd_complete, @function
bt_buf_get_cmd_complete:
.LFB236:
	.loc 1 7139 1 is_stmt 1
	.cfi_startproc
.LVL1475:
	.loc 1 7140 2
	.loc 1 7141 2
	.loc 1 7143 2
	.loc 1 7139 1 is_stmt 0
	addi	sp,sp,-32
	.cfi_def_cfa_offset 32
	sw	ra,28(sp)
	sw	s0,24(sp)
	.cfi_offset 1, -4
	.cfi_offset 8, -8
	.loc 1 7139 1
	sw	a0,12(sp)
	.loc 1 7143 8
	call	irq_lock
.LVL1476:
	.loc 1 7144 2 is_stmt 1
	.loc 1 7144 6 is_stmt 0
	lui	a5,%hi(.LANCHOR2)
	addi	a5,a5,%lo(.LANCHOR2)
	lw	s0,164(a5)
.LVL1477:
	.loc 1 7145 2 is_stmt 1
	.loc 1 7145 18 is_stmt 0
	sw	zero,164(a5)
	.loc 1 7146 2 is_stmt 1
	call	irq_unlock
.LVL1478:
	.loc 1 7148 2
	.loc 1 7150 2
	.loc 1 7150 5 is_stmt 0
	lw	a1,12(sp)
	bne	s0,zero,.L954
.LVL1479:
.LBB952:
.LBB953:
	.loc 1 7158 2 is_stmt 1
.LBE953:
.LBE952:
	.loc 1 7159 1 is_stmt 0
	lw	s0,24(sp)
	.cfi_remember_state
	.cfi_restore 8
.LVL1480:
	lw	ra,28(sp)
	.cfi_restore 1
.LBB956:
.LBB954:
	.loc 1 7158 9
	li	a0,1
.LBE954:
.LBE956:
	.loc 1 7159 1
	addi	sp,sp,32
	.cfi_def_cfa_offset 0
.LVL1481:
.LBB957:
.LBB955:
	.loc 1 7158 9
	tail	bt_buf_get_rx
.LVL1482:
.L954:
	.cfi_restore_state
.LBE955:
.LBE957:
	.loc 1 7151 3 is_stmt 1
.LBB958:
.LBB959:
	.loc 8 95 2
.LBE959:
.LBE958:
	.loc 5 1063 2
.LBB962:
.LBB960:
	.loc 8 95 34 is_stmt 0
	li	a5,1
.LBE960:
.LBE962:
	.loc 1 7153 3
	addi	a0,s0,8
.LBB963:
.LBB961:
	.loc 8 95 34
	sb	a5,20(s0)
.LVL1483:
.LBE961:
.LBE963:
	.loc 1 7152 3 is_stmt 1
	.loc 1 7152 12 is_stmt 0
	sh	zero,12(s0)
	.loc 1 7153 3 is_stmt 1
	li	a1,1
	call	net_buf_simple_reserve
.LVL1484:
	.loc 1 7155 3
	.loc 1 7159 1 is_stmt 0
	mv	a0,s0
	lw	ra,28(sp)
	.cfi_restore 1
	lw	s0,24(sp)
	.cfi_restore 8
.LVL1485:
	addi	sp,sp,32
	.cfi_def_cfa_offset 0
.LVL1486:
	jr	ra
	.cfi_endproc
.LFE236:
	.size	bt_buf_get_cmd_complete, .-bt_buf_get_cmd_complete
	.section	.text.bt_buf_get_evt,"ax",@progbits
	.align	1
	.globl	bt_buf_get_evt
	.type	bt_buf_get_evt, @function
bt_buf_get_evt:
.LFB237:
	.loc 1 7162 1 is_stmt 1
	.cfi_startproc
.LVL1487:
	.loc 1 7163 2
	li	a5,14
	.loc 1 7162 1 is_stmt 0
	mv	a1,a2
.LVL1488:
	.loc 1 7163 2
	bltu	a0,a5,.L957
	li	a5,15
	bleu	a0,a5,.L958
	li	a5,19
	bne	a0,a5,.L957
.LBB964:
	.loc 1 7167 4 is_stmt 1
	.loc 1 7169 4
	.loc 1 7169 10 is_stmt 0
	lui	a0,%hi(.LANCHOR18)
.LVL1489:
.LBE964:
	.loc 1 7162 1
	addi	sp,sp,-16
	.cfi_def_cfa_offset 16
.LBB969:
	.loc 1 7169 10
	addi	a0,a0,%lo(.LANCHOR18)
.LBE969:
	.loc 1 7162 1
	sw	s0,8(sp)
	sw	ra,12(sp)
	.cfi_offset 8, -8
	.cfi_offset 1, -4
.LBB970:
	.loc 1 7169 10
	call	net_buf_alloc_fixed
.LVL1490:
	mv	s0,a0
.LVL1491:
	.loc 1 7170 4 is_stmt 1
	.loc 1 7170 7 is_stmt 0
	beq	a0,zero,.L956
	.loc 1 7171 5 is_stmt 1
	li	a1,1
	addi	a0,a0,8
	call	net_buf_simple_reserve
.LVL1492:
	.loc 1 7172 5
.LBB965:
.LBB966:
	.loc 8 95 2
.LBE966:
.LBE965:
.LBE970:
	.loc 5 1063 2
.LBB971:
.LBB968:
.LBB967:
	.loc 8 95 34 is_stmt 0
	li	a5,1
	sb	a5,20(s0)
.LVL1493:
.L956:
.LBE967:
.LBE968:
.LBE971:
	.loc 1 7198 1
	mv	a0,s0
	lw	ra,12(sp)
	.cfi_restore 1
	lw	s0,8(sp)
	.cfi_restore 8
.LVL1494:
	addi	sp,sp,16
	.cfi_def_cfa_offset 0
	jr	ra
.LVL1495:
.L958:
	.loc 1 7180 3 is_stmt 1
	.loc 1 7180 10 is_stmt 0
	mv	a0,a2
.LVL1496:
	tail	bt_buf_get_cmd_complete
.LVL1497:
.L957:
	.loc 1 7196 3 is_stmt 1
	.loc 1 7196 10 is_stmt 0
	li	a0,1
.LVL1498:
	tail	bt_buf_get_rx
.LVL1499:
	.cfi_endproc
.LFE237:
	.size	bt_buf_get_evt, .-bt_buf_get_evt
	.section	.text.bt_pub_key_gen,"ax",@progbits
	.align	1
	.globl	bt_pub_key_gen
	.type	bt_pub_key_gen, @function
bt_pub_key_gen:
.LFB238:
	.loc 1 7389 1 is_stmt 1
	.cfi_startproc
.LVL1500:
	.loc 1 7390 2
	.loc 1 7398 2
	.loc 1 7389 1 is_stmt 0
	addi	sp,sp,-16
	.cfi_def_cfa_offset 16
	sw	s0,8(sp)
	.cfi_offset 8, -8
	.loc 1 7398 33
	lui	s0,%hi(.LANCHOR2)
	.loc 1 7389 1
	sw	ra,12(sp)
	sw	s1,4(sp)
	sw	s2,0(sp)
	.cfi_offset 1, -4
	.cfi_offset 9, -12
	.cfi_offset 18, -16
	.loc 1 7398 33
	addi	a5,s0,%lo(.LANCHOR2)
	.loc 1 7398 5
	lbu	a5,66(a5)
	li	a4,6
	andi	a5,a5,6
	beq	a5,a4,.L967
	.loc 1 7400 3 is_stmt 1
	lui	a0,%hi(.LC56)
.LVL1501:
	addi	a0,a0,%lo(.LC56)
	call	printf
.LVL1502:
	.loc 1 7401 3
	.loc 1 7401 10 is_stmt 0
	li	s2,-35
.L966:
	.loc 1 7448 1
	lw	ra,12(sp)
	.cfi_remember_state
	.cfi_restore 1
	lw	s0,8(sp)
	.cfi_restore 8
	mv	a0,s2
	lw	s1,4(sp)
	.cfi_restore 9
	lw	s2,0(sp)
	.cfi_restore 18
	addi	sp,sp,16
	.cfi_def_cfa_offset 0
	jr	ra
.LVL1503:
.L967:
	.cfi_restore_state
	.loc 1 7409 8
	lui	s1,%hi(.LANCHOR3)
	lw	a5,%lo(.LANCHOR3)(s1)
	addi	s0,s0,%lo(.LANCHOR2)
	.loc 1 7405 2 is_stmt 1
	.loc 1 7406 5
	.loc 1 7407 4
.LVL1504:
	.loc 1 7409 5
	addi	s1,s1,%lo(.LANCHOR3)
	.loc 1 7409 7 is_stmt 0
	beq	a5,zero,.L969
	.loc 1 7413 22
	lw	a3,0(a0)
.L971:
.LVL1505:
	.loc 1 7413 13 is_stmt 1
	.loc 1 7413 15 is_stmt 0
	lw	a4,0(a5)
	beq	a3,a4,.L970
	.loc 1 7418 13 is_stmt 1
.LVL1506:
	.loc 1 7419 13
	.loc 1 7419 16 is_stmt 0
	lw	a4,4(a5)
.LVL1507:
	.loc 1 7412 14
	bne	a4,zero,.L973
	.loc 1 7422 9 is_stmt 1
	.loc 1 7423 13
	.loc 1 7423 29 is_stmt 0
	sw	a0,4(a5)
	j	.L970
.L973:
	mv	a5,a4
.LVL1508:
	j	.L971
.LVL1509:
.L969:
	.loc 1 7426 9 is_stmt 1
	.loc 1 7426 20 is_stmt 0
	sw	a0,0(s1)
.L970:
	.loc 1 7433 2 is_stmt 1
.LVL1510:
.LBB978:
.LBB979:
	.loc 2 370 2
	.loc 2 371 2
	.loc 2 373 2
	.loc 2 373 8 is_stmt 0
	addi	s0,s0,108
	li	a1,32
	mv	a0,s0
.LVL1511:
	call	atomic_or
.LVL1512:
	.loc 2 375 2 is_stmt 1
	.loc 2 375 14 is_stmt 0
	andi	a0,a0,32
.LBE979:
.LBE978:
	.loc 1 7434 10
	li	s2,0
	.loc 1 7433 5
	bne	a0,zero,.L966
	.loc 1 7437 2 is_stmt 1
.LVL1513:
.LBB980:
.LBB981:
	.loc 2 391 2
	.loc 2 393 2
	li	a1,-17
	mv	a0,s0
	call	atomic_and
.LVL1514:
.LBE981:
.LBE980:
	.loc 1 7439 2
	.loc 1 7439 8 is_stmt 0
	li	a0,8192
	li	a2,0
	li	a1,0
	addi	a0,a0,37
	call	bt_hci_cmd_send_sync
.LVL1515:
	mv	s2,a0
.LVL1516:
	.loc 1 7440 2 is_stmt 1
	.loc 1 7440 5 is_stmt 0
	beq	a0,zero,.L966
	.loc 1 7441 3 is_stmt 1
	lui	a0,%hi(.LC57)
.LVL1517:
	addi	a0,a0,%lo(.LC57)
	call	printf
.LVL1518:
	.loc 1 7442 3
.LBB982:
.LBB983:
	.loc 2 391 2
	.loc 2 393 2
	li	a1,-33
	mv	a0,s0
	call	atomic_and
.LVL1519:
.LBE983:
.LBE982:
	.loc 1 7443 3
	.loc 1 7443 14 is_stmt 0
	sw	zero,0(s1)
	.loc 1 7444 3 is_stmt 1
	.loc 1 7444 10 is_stmt 0
	j	.L966
	.cfi_endproc
.LFE238:
	.size	bt_pub_key_gen, .-bt_pub_key_gen
	.section	.text.bt_pub_key_get,"ax",@progbits
	.align	1
	.globl	bt_pub_key_get
	.type	bt_pub_key_get, @function
bt_pub_key_get:
.LFB239:
	.loc 1 7451 1 is_stmt 1
	.cfi_startproc
	.loc 1 7452 2
	.loc 1 7452 6 is_stmt 0
	lui	a0,%hi(.LANCHOR2+108)
	.loc 1 7451 1
	addi	sp,sp,-16
	.cfi_def_cfa_offset 16
	.loc 1 7452 6
	li	a1,4
	addi	a0,a0,%lo(.LANCHOR2+108)
	.loc 1 7451 1
	sw	ra,12(sp)
	.cfi_offset 1, -4
	.loc 1 7452 6
	call	atomic_test_bit
.LVL1520:
	li	a5,0
	.loc 1 7452 5
	beq	a0,zero,.L980
	.loc 1 7453 10
	lui	a5,%hi(.LANCHOR1)
	addi	a5,a5,%lo(.LANCHOR1)
.L980:
	.loc 1 7457 1
	lw	ra,12(sp)
	.cfi_restore 1
	mv	a0,a5
	addi	sp,sp,16
	.cfi_def_cfa_offset 0
	jr	ra
	.cfi_endproc
.LFE239:
	.size	bt_pub_key_get, .-bt_pub_key_get
	.section	.text.bt_dh_key_gen,"ax",@progbits
	.align	1
	.globl	bt_dh_key_gen
	.type	bt_dh_key_gen, @function
bt_dh_key_gen:
.LFB240:
	.loc 1 7460 1 is_stmt 1
	.cfi_startproc
.LVL1521:
	.loc 1 7461 2
	.loc 1 7462 2
	.loc 1 7463 2
	.loc 1 7465 2
	.loc 1 7460 1 is_stmt 0
	addi	sp,sp,-32
	.cfi_def_cfa_offset 32
	sw	s0,24(sp)
	.cfi_offset 8, -8
	.loc 1 7465 6
	lui	s0,%hi(.LANCHOR0)
	addi	s0,s0,%lo(.LANCHOR0)
	.loc 1 7465 5
	lw	a5,0(s0)
	.loc 1 7460 1
	sw	ra,28(sp)
	sw	s1,20(sp)
	sw	s2,16(sp)
	sw	s3,12(sp)
	.cfi_offset 1, -4
	.cfi_offset 9, -12
	.cfi_offset 18, -16
	.cfi_offset 19, -20
	.loc 1 7465 5
	beq	a5,zero,.L987
.LVL1522:
.L989:
	.loc 1 7466 10
	li	a5,-16
.L986:
	.loc 1 7491 1
	lw	ra,28(sp)
	.cfi_remember_state
	.cfi_restore 1
	lw	s0,24(sp)
	.cfi_restore 8
	lw	s1,20(sp)
	.cfi_restore 9
	lw	s2,16(sp)
	.cfi_restore 18
	lw	s3,12(sp)
	.cfi_restore 19
	mv	a0,a5
	addi	sp,sp,32
	.cfi_def_cfa_offset 0
	jr	ra
.LVL1523:
.L987:
	.cfi_restore_state
	.loc 1 7465 19 discriminator 1
	lui	s1,%hi(.LANCHOR2+108)
	addi	s1,s1,%lo(.LANCHOR2+108)
	mv	s3,a1
	mv	s2,a0
	li	a1,5
.LVL1524:
	mv	a0,s1
.LVL1525:
	call	atomic_test_bit
.LVL1526:
	.loc 1 7465 16 discriminator 1
	bne	a0,zero,.L989
	.loc 1 7469 2 is_stmt 1
	.loc 1 7469 7 is_stmt 0
	li	a1,4
	mv	a0,s1
	call	atomic_test_bit
.LVL1527:
	.loc 1 7470 10
	li	a5,-49
	.loc 1 7469 5
	beq	a0,zero,.L986
	.loc 1 7473 2 is_stmt 1
	.loc 1 7473 12 is_stmt 0
	sw	s3,0(s0)
	.loc 1 7475 2 is_stmt 1
	.loc 1 7475 8 is_stmt 0
	li	s3,8192
.LVL1528:
	li	a1,64
	addi	a0,s3,38
	call	bt_hci_cmd_create
.LVL1529:
	mv	s1,a0
.LVL1530:
	.loc 1 7476 2 is_stmt 1
	.loc 1 7476 5 is_stmt 0
	bne	a0,zero,.L990
	.loc 1 7477 3 is_stmt 1
	.loc 1 7477 13 is_stmt 0
	sw	zero,0(s0)
	.loc 1 7478 3 is_stmt 1
	.loc 1 7478 10 is_stmt 0
	li	a5,-55
	j	.L986
.L990:
	.loc 1 7481 2 is_stmt 1
	.loc 1 7481 7 is_stmt 0
	li	a1,64
	addi	a0,a0,8
	call	net_buf_simple_add
.LVL1531:
	.loc 1 7482 2 is_stmt 1
	li	a2,64
	mv	a1,s2
	call	memcpy
.LVL1532:
	.loc 1 7484 2
	.loc 1 7484 8 is_stmt 0
	li	a2,0
	mv	a1,s1
	addi	a0,s3,38
	call	bt_hci_cmd_send_sync
.LVL1533:
	mv	a5,a0
.LVL1534:
	.loc 1 7485 2 is_stmt 1
	.loc 1 7485 5 is_stmt 0
	beq	a0,zero,.L986
	.loc 1 7486 3 is_stmt 1
	.loc 1 7486 13 is_stmt 0
	sw	zero,0(s0)
	.loc 1 7487 3 is_stmt 1
	.loc 1 7487 10 is_stmt 0
	j	.L986
	.cfi_endproc
.LFE240:
	.size	bt_dh_key_gen, .-bt_dh_key_gen
	.section	.text.bt_le_oob_get_local,"ax",@progbits
	.align	1
	.globl	bt_le_oob_get_local
	.type	bt_le_oob_get_local, @function
bt_le_oob_get_local:
.LFB241:
	.loc 1 7504 1 is_stmt 1
	.cfi_startproc
.LVL1535:
	.loc 1 7505 2
	.loc 1 7507 2
	.loc 1 7507 5 is_stmt 0
	bne	a0,zero,.L997
	.loc 1 7504 1
	addi	sp,sp,-16
	.cfi_def_cfa_offset 16
	sw	s0,8(sp)
	.cfi_offset 8, -8
	mv	s0,a1
	.loc 1 7511 2 is_stmt 1
	.loc 1 7522 3
	lui	a1,%hi(.LANCHOR2)
.LVL1536:
	mv	a0,s0
.LVL1537:
	addi	a1,a1,%lo(.LANCHOR2)
	.loc 1 7504 1 is_stmt 0
	sw	ra,12(sp)
	.cfi_offset 1, -4
	.loc 1 7522 3
	call	bt_addr_le_copy
.LVL1538:
	.loc 1 7526 2 is_stmt 1
	.loc 1 7527 3
	.loc 1 7527 9 is_stmt 0
	addi	a0,s0,7
	.loc 1 7534 1
	lw	s0,8(sp)
	.cfi_restore 8
.LVL1539:
	lw	ra,12(sp)
	.cfi_restore 1
	addi	sp,sp,16
	.cfi_def_cfa_offset 0
	.loc 1 7527 9
	tail	bt_smp_le_oob_generate_sc_data
.LVL1540:
.L997:
	.loc 1 7534 1
	li	a0,-22
.LVL1541:
	ret
	.cfi_endproc
.LFE241:
	.size	bt_le_oob_get_local, .-bt_le_oob_get_local
	.section	.text.bt_le_oob_set_sc_data,"ax",@progbits
	.align	1
	.globl	bt_le_oob_set_sc_data
	.type	bt_le_oob_set_sc_data, @function
bt_le_oob_set_sc_data:
.LFB242:
	.loc 1 7540 1 is_stmt 1
	.cfi_startproc
.LVL1542:
	.loc 1 7541 2
	.loc 1 7541 9 is_stmt 0
	tail	bt_smp_le_oob_set_sc_data
.LVL1543:
	.cfi_endproc
.LFE242:
	.size	bt_le_oob_set_sc_data, .-bt_le_oob_set_sc_data
	.section	.text.bt_le_oob_get_sc_data,"ax",@progbits
	.align	1
	.globl	bt_le_oob_get_sc_data
	.type	bt_le_oob_get_sc_data, @function
bt_le_oob_get_sc_data:
.LFB243:
	.loc 1 7547 1 is_stmt 1
	.cfi_startproc
.LVL1544:
	.loc 1 7548 2
	.loc 1 7548 9 is_stmt 0
	tail	bt_smp_le_oob_get_sc_data
.LVL1545:
	.cfi_endproc
.LFE243:
	.size	bt_le_oob_get_sc_data, .-bt_le_oob_get_sc_data
	.globl	queue_inited
	.globl	num_complete_pool
	.globl	hci_rx_pool
	.globl	hci_cmd_pool
	.globl	adv_ch_map
	.globl	bt_dev
	.section	._net_buf_pool.static.hci_cmd_pool,"aw"
	.align	2
	.set	.LANCHOR7,. + 0
	.type	hci_cmd_pool, @object
	.size	hci_cmd_pool, 28
hci_cmd_pool:
	.word	0
	.zero	8
	.half	2
	.half	2
	.word	0
	.word	net_buf_fixed_alloc_hci_cmd_pool
	.word	net_buf_hci_cmd_pool
	.section	._net_buf_pool.static.hci_rx_pool,"aw"
	.align	2
	.set	.LANCHOR15,. + 0
	.type	hci_rx_pool, @object
	.size	hci_rx_pool, 28
hci_rx_pool:
	.word	0
	.zero	8
	.half	5
	.half	5
	.word	0
	.word	net_buf_fixed_alloc_hci_rx_pool
	.word	net_buf_hci_rx_pool
	.section	._net_buf_pool.static.num_complete_pool,"aw"
	.align	2
	.set	.LANCHOR18,. + 0
	.type	num_complete_pool, @object
	.size	num_complete_pool, 28
num_complete_pool:
	.word	0
	.zero	8
	.half	1
	.half	1
	.word	0
	.word	net_buf_fixed_alloc_num_complete_pool
	.word	net_buf_num_complete_pool
	.section	.bss.cmd_data,"aw",@nobits
	.align	2
	.set	.LANCHOR8,. + 0
	.type	cmd_data, @object
	.size	cmd_data, 24
cmd_data:
	.zero	24
	.section	.bss.net_buf_data_hci_cmd_pool,"aw",@nobits
	.align	2
	.type	net_buf_data_hci_cmd_pool, @object
	.size	net_buf_data_hci_cmd_pool, 512
net_buf_data_hci_cmd_pool:
	.zero	512
	.section	.bss.net_buf_data_hci_rx_pool,"aw",@nobits
	.align	2
	.type	net_buf_data_hci_rx_pool, @object
	.size	net_buf_data_hci_rx_pool, 1280
net_buf_data_hci_rx_pool:
	.zero	1280
	.section	.bss.net_buf_data_num_complete_pool,"aw",@nobits
	.align	2
	.type	net_buf_data_num_complete_pool, @object
	.size	net_buf_data_num_complete_pool, 256
net_buf_data_num_complete_pool:
	.zero	256
	.section	.bss.net_buf_hci_cmd_pool,"aw",@nobits
	.align	2
	.type	net_buf_hci_cmd_pool, @object
	.size	net_buf_hci_cmd_pool, 64
net_buf_hci_cmd_pool:
	.zero	64
	.section	.bss.net_buf_hci_rx_pool,"aw",@nobits
	.align	2
	.type	net_buf_hci_rx_pool, @object
	.size	net_buf_hci_rx_pool, 160
net_buf_hci_rx_pool:
	.zero	160
	.section	.bss.net_buf_num_complete_pool,"aw",@nobits
	.align	2
	.type	net_buf_num_complete_pool, @object
	.size	net_buf_num_complete_pool, 32
net_buf_num_complete_pool:
	.zero	32
	.section	.bss.pub_key,"aw",@nobits
	.align	2
	.set	.LANCHOR1,. + 0
	.type	pub_key, @object
	.size	pub_key, 64
pub_key:
	.zero	64
	.section	.data.bt_dev,"aw"
	.align	3
	.set	.LANCHOR2,. + 0
	.type	bt_dev, @object
	.size	bt_dev, 216
bt_dev:
	.zero	96
	.word	0
	.word	init_work
	.word	0
	.zero	44
	.zero	12
	.zero	4
	.word	0
	.zero	8
	.zero	36
	.section	.data.events.10672,"aw"
	.align	2
	.set	.LANCHOR10,. + 0
	.type	events.10672, @object
	.size	events.10672, 80
events.10672:
	.zero	12
	.byte	0
	.byte	3
	.byte	0
	.byte	0
	.word	bt_dev+168
	.zero	60
	.section	.rodata.CSWTCH.71,"a"
	.align	2
	.set	.LANCHOR4,. + 0
	.type	CSWTCH.71, @object
	.size	CSWTCH.71, 42
CSWTCH.71:
	.byte	0
	.byte	8
	.byte	8
	.byte	8
	.byte	8
	.byte	1
	.byte	2
	.byte	8
	.byte	8
	.byte	8
	.byte	8
	.byte	8
	.byte	8
	.byte	8
	.byte	8
	.byte	8
	.byte	8
	.byte	8
	.byte	7
	.byte	8
	.byte	8
	.byte	8
	.byte	8
	.byte	8
	.byte	6
	.byte	8
	.byte	8
	.byte	8
	.byte	8
	.byte	8
	.byte	8
	.byte	8
	.byte	8
	.byte	8
	.byte	8
	.byte	8
	.byte	8
	.byte	8
	.byte	8
	.byte	8
	.byte	8
	.byte	5
	.section	.rodata.bt_addr_le_from_str.str1.4,"aMS",@progbits,1
	.align	2
.LC13:
	.string	"public"
	.zero	1
.LC14:
	.string	"(public)"
	.zero	3
.LC15:
	.string	"random"
	.zero	1
.LC16:
	.string	"(random)"
	.zero	3
.LC17:
	.string	"public-id"
	.zero	2
.LC18:
	.string	"(public-id)"
.LC19:
	.string	"random-id"
	.zero	2
.LC20:
	.string	"(random-id)"
	.section	.rodata.bt_data_parse.str1.4,"aMS",@progbits,1
	.align	2
.LC29:
	.string	"Malformed data\r\n"
	.section	.rodata.bt_enable.str1.4,"aMS",@progbits,1
	.align	2
.LC42:
	.string	"No HCI driver registered\r\n"
	.zero	1
.LC43:
	.string	"BL602-BLE-DEV"
	.zero	2
.LC44:
	.string	"hci_tx_thread"
	.zero	2
.LC45:
	.string	"HCI driver open failed (%d)\r\n"
	.section	.rodata.bt_hci_cmd_send.str1.4,"aMS",@progbits,1
	.align	2
.LC30:
	.string	"Unable to send to driver (err %d)\r\n"
	.section	.rodata.bt_hci_cmd_send_sync.str1.4,"aMS",@progbits,1
	.align	2
.LC11:
	.string	"k_sem_take timeout with opcode 0x%04x\r\n"
	.section	.rodata.bt_id_add.str1.4,"aMS",@progbits,1
	.align	2
.LC21:
	.string	"Failed to disable address resolution\r\n"
	.zero	1
.LC22:
	.string	"Resolving list size exceeded. Switching to host.\r\n"
	.zero	1
.LC23:
	.string	"Failed to clear resolution list\r\n"
	.zero	2
.LC24:
	.string	"Failed to add IRK to controller\r\n"
	.zero	2
.LC25:
	.string	"Set privacy mode command is not supported\r\n"
.LC26:
	.string	"Failed to set privacy mode\r\n"
	.section	.rodata.bt_id_create.str1.4,"aMS",@progbits,1
	.align	2
.LC46:
	.string	"Only static random identity address supported\r\n"
	.section	.rodata.bt_id_del.str1.4,"aMS",@progbits,1
	.align	2
.LC27:
	.string	"Disabling address resolution failed (err %d)\r\n"
	.zero	1
.LC28:
	.string	"Failed to remove IRK from controller\r\n"
	.section	.rodata.bt_le_set_chan_map.str1.4,"aMS",@progbits,1
	.align	2
.LC55:
	.string	"Set Host Channel Classification command is not supported\r\n"
	.section	.rodata.bt_le_set_data_len.str1.4,"aMS",@progbits,1
	.align	2
.LC31:
	.string	"bt_le_set_data_len, Failed to create LE Set Data Length Command\r\n"
	.section	.rodata.bt_le_whitelist_add.str1.4,"aMS",@progbits,1
	.align	2
.LC52:
	.string	"Failed to add device to whitelist\r\n"
	.section	.rodata.bt_le_whitelist_clear.str1.4,"aMS",@progbits,1
	.align	2
.LC54:
	.string	"Failed to clear whitelist\r\n"
	.section	.rodata.bt_le_whitelist_rem.str1.4,"aMS",@progbits,1
	.align	2
.LC53:
	.string	"Failed to remove device from whitelist\r\n"
	.section	.rodata.bt_pub_key_gen.str1.4,"aMS",@progbits,1
	.align	2
.LC56:
	.string	"ECC HCI commands not available\r\n"
	.zero	3
.LC57:
	.string	"Sending LE P256 Public Key command failed\r\n"
	.section	.rodata.bt_recv.str1.4,"aMS",@progbits,1
	.align	2
.LC39:
	.string	"ACL data length mismatch (%u != %u)\r\n"
	.zero	2
.LC40:
	.string	"Unable to find conn for handle %u\r\n"
.LC41:
	.string	"Invalid buf type %u\r\n"
	.section	.rodata.bt_set_id_addr.str1.4,"aMS",@progbits,1
	.align	2
.LC47:
	.string	"Setting identity not allowed after bt_enable()\r\n"
	.section	.rodata.enh_conn_complete.str1.4,"aMS",@progbits,1
	.align	2
.LC35:
	.string	"Unexpected status 0x%02x\r\n"
	.zero	1
.LC36:
	.string	"Unable to add new conn for handle %u\r\n"
	.section	.rodata.handle_event.str1.4,"aMS",@progbits,1
	.align	2
.LC7:
	.string	"Too small (%u bytes) event 0x%02x\r\n"
.LC8:
	.string	"Unhandled event 0x%02x len %u: %s\r\n"
	.section	.rodata.hci_cmd_done.str1.4,"aMS",@progbits,1
	.align	2
.LC9:
	.string	"opcode 0x%04x pool id %u pool %p != &hci_cmd_pool %p\r\n"
	.zero	1
.LC10:
	.string	"OpCode 0x%04x completed instead of expected 0x%04x\r\n"
	.section	.rodata.hci_data_buf_overflow.str1.4,"aMS",@progbits,1
	.align	2
.LC1:
	.string	"Data buffer overflow (link type 0x%02x)\r\n"
	.section	.rodata.hci_encrypt_key_refresh_complete.str1.4,"aMS",@progbits,1
	.align	2
.LC6:
	.string	"Unable to look up conn with handle %u\r\n"
	.section	.rodata.hci_num_completed_packets.str1.4,"aMS",@progbits,1
	.align	2
.LC3:
	.string	"No connection for handle %u\r\n"
	.zero	2
.LC4:
	.string	"packets count mismatch\r\n"
	.section	.rodata.hci_tx_thread.str1.4,"aMS",@progbits,1
	.align	2
.LC37:
	.string	"Uncleared pending sent_cmd\r\n"
	.zero	3
.LC38:
	.string	"Unexpected k_poll event state %u\r\n"
	.section	.rodata.init_work.cst8,"aM",@progbits,8
	.align	3
.LC48:
	.word	33589264
	.word	536870912
.LC49:
	.word	33589392
	.word	536903680
	.section	.rodata.init_work.str1.4,"aMS",@progbits,1
	.align	2
.LC50:
	.string	"Non-LE capable controller detected!\r\n"
	.zero	2
.LC51:
	.string	"Unable to set identity address\r\n"
	.section	.rodata.le_adv_report.str1.4,"aMS",@progbits,1
	.align	2
