	.file	"hci_ecc.c"
	.option nopic
	.attribute arch, "rv32i2p0_m2p0_f2p0_c2p0"
	.attribute unaligned_access, 0
	.attribute stack_align, 16
	.text
.Ltext0:
	.cfi_sections	.debug_frame
	.section	.text.send_cmd_status,"ax",@progbits
	.align	1
	.type	send_cmd_status, @function
send_cmd_status:
.LFB88:
	.file 1 "/b-l/bl_iot_sdk_new/components/network/ble/blestack/src/host/hci_ecc.c"
	.loc 1 82 1
	.cfi_startproc
.LVL0:
	.loc 1 83 2
	.loc 1 84 2
	.loc 1 85 2
	.loc 1 87 2
	.loc 1 89 2
	.loc 1 82 1 is_stmt 0
	addi	sp,sp,-32
	.cfi_def_cfa_offset 32
	sw	s0,24(sp)
	sw	s4,8(sp)
	.cfi_offset 8, -8
	.cfi_offset 20, -24
	mv	s0,a0
	mv	s4,a1
	.loc 1 89 8
	li	a2,-1
	li	a1,0
.LVL1:
	li	a0,15
.LVL2:
	.loc 1 82 1
	sw	ra,28(sp)
	sw	s1,20(sp)
	sw	s2,16(sp)
	sw	s3,12(sp)
	.cfi_offset 1, -4
	.cfi_offset 9, -12
	.cfi_offset 18, -16
	.cfi_offset 19, -20
	.loc 1 89 8
	call	bt_buf_get_evt
.LVL3:
.LBB15:
.LBB16:
	.file 2 "/b-l/bl_iot_sdk_new/components/network/ble/blestack/src/include/bluetooth/buf.h"
	.loc 2 95 34
	li	s2,1
.LBE16:
.LBE15:
	.loc 1 92 8
	addi	s3,a0,8
	.loc 1 89 8
	mv	s1,a0
.LVL4:
	.loc 1 90 2 is_stmt 1
.LBB19:
.LBB17:
	.loc 2 95 2
.LBE17:
.LBE19:
	.file 3 "/b-l/bl_iot_sdk_new/components/network/ble/blestack/src/common/include/net/buf.h"
	.loc 3 1063 2
.LBB20:
.LBB18:
	.loc 2 95 34 is_stmt 0
	sb	s2,20(a0)
.LVL5:
.LBE18:
.LBE20:
	.loc 1 92 2 is_stmt 1
	.loc 1 92 8 is_stmt 0
	li	a1,2
	mv	a0,s3
	call	net_buf_simple_add
.LVL6:
	.loc 1 93 2 is_stmt 1
	.loc 1 93 11 is_stmt 0
	li	a5,15
	sb	a5,0(a0)
	.loc 1 94 2 is_stmt 1
	.loc 1 94 11 is_stmt 0
	li	a5,4
	sb	a5,1(a0)
	.loc 1 96 2 is_stmt 1
	.loc 1 96 8 is_stmt 0
	li	a1,4
	mv	a0,s3
.LVL7:
	call	net_buf_simple_add
.LVL8:
	.loc 1 97 2 is_stmt 1
	.loc 1 98 14 is_stmt 0
	sb	s0,2(a0)
	srli	s0,s0,8
	.loc 1 97 12
	sb	s2,1(a0)
	.loc 1 98 2 is_stmt 1
	.loc 1 98 14 is_stmt 0
	sb	s0,3(a0)
	.loc 1 99 2 is_stmt 1
	.loc 1 99 14 is_stmt 0
	sb	s4,0(a0)
	.loc 1 101 2 is_stmt 1
	.loc 1 102 1 is_stmt 0
	lw	s0,24(sp)
	.cfi_restore 8
	lw	ra,28(sp)
	.cfi_restore 1
	lw	s2,16(sp)
	.cfi_restore 18
	lw	s3,12(sp)
	.cfi_restore 19
	lw	s4,8(sp)
	.cfi_restore 20
	.loc 1 101 2
	mv	a0,s1
.LVL9:
	.loc 1 102 1
	lw	s1,20(sp)
	.cfi_restore 9
.LVL10:
	addi	sp,sp,32
	.cfi_def_cfa_offset 0
	.loc 1 101 2
	tail	bt_recv_prio
.LVL11:
	.cfi_endproc
.LFE88:
	.size	send_cmd_status, .-send_cmd_status
	.section	.text.sys_memcpy_swap.constprop.1,"ax",@progbits
	.align	1
	.type	sys_memcpy_swap.constprop.1, @function
sys_memcpy_swap.constprop.1:
.LFB102:
	.file 4 "/b-l/bl_iot_sdk_new/components/network/ble/blestack/src/common/include/misc/byteorder.h"
	.loc 4 371 20 is_stmt 1
	.cfi_startproc
.LVL12:
	.loc 4 373 2
	.loc 4 373 7
	.loc 4 377 2
	.loc 4 377 6 is_stmt 0
	addi	a5,a1,31
.LVL13:
	.loc 4 379 2 is_stmt 1
	addi	a1,a1,-1
.LVL14:
.L4:
	.loc 4 380 3
	.loc 4 380 24 is_stmt 0
	addi	a5,a5,-1
.LVL15:
	.loc 4 380 22
	lbu	a4,1(a5)
	.loc 4 380 5
	addi	a0,a0,1
.LVL16:
	.loc 4 380 20
	sb	a4,-1(a0)
.LVL17:
	.loc 4 379 2
	bne	a5,a1,.L4
	.loc 4 382 1
	ret
	.cfi_endproc
.LFE102:
	.size	sys_memcpy_swap.constprop.1, .-sys_memcpy_swap.constprop.1
	.section	.text.ecc_thread,"ax",@progbits
	.align	1
	.type	ecc_thread, @function
ecc_thread:
.LFB92:
	.loc 1 214 1 is_stmt 1
	.cfi_startproc
.LVL18:
	addi	sp,sp,-48
	.cfi_def_cfa_offset 48
	sw	s0,40(sp)
	.cfi_offset 8, -8
.LBB36:
.LBB37:
.LBB38:
.LBB39:
.LBB40:
	.loc 1 110 8 is_stmt 0
	lui	s0,%hi(.LANCHOR3)
.LBE40:
.LBE39:
.LBE38:
.LBE37:
.LBE36:
	.loc 1 214 1
	sw	s2,32(sp)
	sw	s3,28(sp)
.LBB59:
.LBB55:
.LBB49:
.LBB45:
.LBB41:
	.loc 1 110 8
	addi	s0,s0,%lo(.LANCHOR3)
	.cfi_offset 18, -16
	.cfi_offset 19, -20
.LBE41:
.LBE45:
.LBE49:
.LBE55:
.LBE59:
.LBB60:
.LBB61:
	.file 5 "/b-l/bl_iot_sdk_new/components/network/ble/blestack/src/common/include/atomic.h"
	.loc 5 331 21
	lui	s3,%hi(.LANCHOR1)
	lui	s2,%hi(.LANCHOR3+32)
.LBE61:
.LBE60:
	.loc 1 214 1
	sw	s1,36(sp)
	sw	s6,16(sp)
	sw	s7,12(sp)
	sw	ra,44(sp)
	sw	s4,24(sp)
	sw	s5,20(sp)
	sw	s8,8(sp)
	.cfi_offset 9, -12
	.cfi_offset 22, -32
	.cfi_offset 23, -36
	.cfi_offset 1, -4
	.cfi_offset 20, -24
	.cfi_offset 21, -28
	.cfi_offset 24, -40
	.loc 1 216 3
	lui	s7,%hi(.LANCHOR0)
	mv	s6,s3
.LBB63:
.LBB56:
.LBB50:
.LBB46:
.LBB42:
	.loc 1 110 8
	addi	s1,s0,32
	addi	s2,s2,%lo(.LANCHOR3+32)
.LVL19:
.L7:
.LBE42:
.LBE46:
.LBE50:
.LBE56:
.LBE63:
	.loc 1 215 2 is_stmt 1
	.loc 1 216 3
	li	a1,-1
	addi	a0,s7,%lo(.LANCHOR0)
	call	k_sem_take
.LVL20:
	.loc 1 218 3
.LBB64:
.LBB62:
	.loc 5 331 2
	.loc 5 331 21 is_stmt 0
	addi	a0,s3,%lo(.LANCHOR1)
	call	atomic_get
.LVL21:
	.loc 5 333 2 is_stmt 1
	.loc 5 333 12 is_stmt 0
	andi	s4,a0,1
.LVL22:
.LBE62:
.LBE64:
	.loc 1 218 6
	beq	s4,zero,.L8
.LBB65:
.LBB57:
.LBB51:
.LBB47:
.LBB43:
	.loc 1 110 8
	lui	s5,%hi(.LANCHOR2)
.LBE43:
	.loc 1 117 11
	lui	s4,%hi(.LANCHOR4)
.L11:
	.loc 1 107 2 is_stmt 1
.LBB44:
	.loc 1 108 3
	.loc 1 110 3
	.loc 1 110 8 is_stmt 0
	addi	a2,s5,%lo(.LANCHOR2)
	mv	a1,s0
	mv	a0,s1
	call	uECC_make_key
.LVL23:
	.loc 1 111 3 is_stmt 1
	.loc 1 111 6 is_stmt 0
	bne	a0,zero,.L9
	.loc 1 112 4 is_stmt 1
	lui	a0,%hi(.LC0)
.LVL24:
	addi	a0,a0,%lo(.LC0)
	call	printf
.LVL25:
	.loc 1 113 4
	.loc 1 113 11 is_stmt 0
	li	s5,31
.L10:
.LVL26:
.LBE44:
.LBE47:
.LBE51:
	.loc 1 138 2 is_stmt 1
	.loc 1 138 8 is_stmt 0
	li	a1,-1
	li	a0,1
	call	bt_buf_get_rx
.LVL27:
	.loc 1 140 8
	addi	s4,a0,8
	li	a1,2
	.loc 1 138 8
	mv	s8,a0
.LVL28:
	.loc 1 140 2 is_stmt 1
	.loc 1 140 8 is_stmt 0
	mv	a0,s4
.LVL29:
	call	net_buf_simple_add
.LVL30:
	.loc 1 141 2 is_stmt 1
	.loc 1 141 11 is_stmt 0
	li	a5,62
	sb	a5,0(a0)
	.loc 1 142 2 is_stmt 1
	.loc 1 142 11 is_stmt 0
	li	a5,66
	sb	a5,1(a0)
	.loc 1 144 2 is_stmt 1
	.loc 1 144 9 is_stmt 0
	li	a1,1
	mv	a0,s4
.LVL31:
	call	net_buf_simple_add
.LVL32:
	.loc 1 145 2 is_stmt 1
	.loc 1 145 17 is_stmt 0
	li	a5,8
	sb	a5,0(a0)
	.loc 1 147 2 is_stmt 1
	.loc 1 147 8 is_stmt 0
	li	a1,65
	mv	a0,s4
.LVL33:
	call	net_buf_simple_add
.LVL34:
	.loc 1 148 14
	sb	s5,0(a0)
	.loc 1 147 8
	mv	s4,a0
.LVL35:
	.loc 1 148 2 is_stmt 1
	.loc 1 150 2
	addi	a0,a0,1
.LVL36:
	.loc 1 150 5 is_stmt 0
	beq	s5,zero,.L12
	.loc 1 151 3 is_stmt 1
	.loc 1 151 9 is_stmt 0
	li	a2,64
	li	a1,0
	call	memset
.LVL37:
.L13:
	.loc 1 160 2 is_stmt 1
.LBB52:
.LBB53:
	.loc 5 391 2
	.loc 5 393 2
	li	a1,-2
.LVL38:
.L25:
.LBE53:
.LBE52:
.LBE57:
.LBE65:
.LBB66:
.LBB67:
.LBB68:
.LBB69:
	addi	a0,s6,%lo(.LANCHOR1)
	call	atomic_and
.LVL39:
.LBE69:
.LBE68:
	.loc 1 206 2
	mv	a0,s8
	call	bt_recv
.LVL40:
	j	.L7
.LVL41:
.L9:
.LBE67:
.LBE66:
.LBB73:
.LBB58:
.LBB54:
.LBB48:
	.loc 1 117 11 is_stmt 0
	li	a2,32
	addi	a1,s4,%lo(.LANCHOR4)
	mv	a0,s0
.LVL42:
	call	memcmp
.LVL43:
	.loc 1 117 2
	beq	a0,zero,.L11
	.loc 1 123 9
	li	s5,0
	j	.L10
.LVL44:
.L12:
.LBE48:
.LBE54:
	.loc 1 156 3 is_stmt 1
	mv	a1,s2
	call	sys_memcpy_swap.constprop.1
.LVL45:
	.loc 1 157 3
	addi	a1,s0,64
	addi	a0,s4,33
	call	sys_memcpy_swap.constprop.1
.LVL46:
	j	.L13
.LVL47:
.L8:
.LBE58:
.LBE73:
	.loc 1 220 10
.LBB74:
.LBB75:
	.loc 5 331 2
	.loc 5 331 21 is_stmt 0
	addi	a0,s3,%lo(.LANCHOR1)
	call	atomic_get
.LVL48:
	.loc 5 333 2 is_stmt 1
.LBE75:
.LBE74:
	.loc 1 220 13 is_stmt 0
	andi	a0,a0,2
	beq	a0,zero,.L7
	.loc 1 221 4 is_stmt 1
.LBB76:
.LBB72:
	.loc 1 167 2
	.loc 1 168 2
	.loc 1 169 2
	.loc 1 170 2
	.loc 1 171 2
	.loc 1 173 2
	.loc 1 173 8 is_stmt 0
	lui	s5,%hi(.LANCHOR2)
	addi	a1,s5,%lo(.LANCHOR2)
	mv	a0,s1
	call	uECC_valid_public_key
.LVL49:
	mv	a1,a0
.LVL50:
	.loc 1 174 2 is_stmt 1
	.loc 1 174 5 is_stmt 0
	bge	a0,zero,.L15
	.loc 1 175 3 is_stmt 1
	lui	a0,%hi(.LC1)
.LVL51:
	addi	a0,a0,%lo(.LC1)
	call	printf
.LVL52:
	.loc 1 176 3
.L16:
	.loc 1 182 2
	.loc 1 182 8 is_stmt 0
	li	a1,-1
	li	a0,1
	call	bt_buf_get_rx
.LVL53:
	.loc 1 184 8
	addi	s5,a0,8
	li	a1,2
	.loc 1 182 8
	mv	s8,a0
.LVL54:
	.loc 1 184 2 is_stmt 1
	.loc 1 184 8 is_stmt 0
	mv	a0,s5
.LVL55:
	call	net_buf_simple_add
.LVL56:
	.loc 1 185 2 is_stmt 1
	.loc 1 185 11 is_stmt 0
	li	a5,62
	sb	a5,0(a0)
	.loc 1 186 2 is_stmt 1
	.loc 1 186 11 is_stmt 0
	li	a5,34
	sb	a5,1(a0)
	.loc 1 188 2 is_stmt 1
	.loc 1 188 9 is_stmt 0
	li	a1,1
	mv	a0,s5
.LVL57:
	call	net_buf_simple_add
.LVL58:
	.loc 1 189 2 is_stmt 1
	.loc 1 189 17 is_stmt 0
	li	a5,9
	sb	a5,0(a0)
	.loc 1 191 2 is_stmt 1
	.loc 1 191 8 is_stmt 0
	li	a1,33
	mv	a0,s5
.LVL59:
	call	net_buf_simple_add
.LVL60:
	mv	a5,a0
.LVL61:
	.loc 1 193 2 is_stmt 1
	addi	a0,a0,1
.LVL62:
	.loc 1 193 5 is_stmt 0
	bne	s4,zero,.L17
.LVL63:
	.loc 1 194 3 is_stmt 1
	.loc 1 194 15 is_stmt 0
	li	a4,31
	sb	a4,0(a5)
	.loc 1 195 3 is_stmt 1
	.loc 1 195 9 is_stmt 0
	li	a2,32
	li	a1,0
	call	memset
.LVL64:
.L18:
	.loc 1 204 2 is_stmt 1
.LBB71:
.LBB70:
	.loc 5 391 2
	.loc 5 393 2
	li	a1,-3
	j	.L25
.LVL65:
.L15:
.LBE70:
.LBE71:
	.loc 1 178 3
	.loc 1 178 9 is_stmt 0
	addi	a3,s5,%lo(.LANCHOR2)
	mv	a2,s1
	mv	a1,s0
	mv	a0,s1
.LVL66:
	call	uECC_shared_secret
.LVL67:
	mv	s4,a0
.LVL68:
	j	.L16
.LVL69:
.L17:
	.loc 1 197 3 is_stmt 1
	.loc 1 197 15 is_stmt 0
	sb	zero,0(a5)
	.loc 1 201 3 is_stmt 1
	mv	a1,s2
	call	sys_memcpy_swap.constprop.1
.LVL70:
	j	.L18
.LBE72:
.LBE76:
	.cfi_endproc
.LFE92:
	.size	ecc_thread, .-ecc_thread
	.section	.text.bt_hci_ecc_send,"ax",@progbits
	.align	1
	.globl	bt_hci_ecc_send
	.type	bt_hci_ecc_send, @function
bt_hci_ecc_send:
.LFB96:
	.loc 1 298 1
	.cfi_startproc
.LVL71:
	.loc 1 299 2
.LBB94:
.LBB95:
	.loc 2 112 2
.LBE95:
.LBE94:
	.loc 3 1063 2
	.loc 1 298 1 is_stmt 0
	addi	sp,sp,-32
	.cfi_def_cfa_offset 32
	sw	ra,28(sp)
	sw	s0,24(sp)
	sw	s1,20(sp)
	sw	s2,16(sp)
	sw	s3,12(sp)
	.cfi_offset 1, -4
	.cfi_offset 8, -8
	.cfi_offset 9, -12
	.cfi_offset 18, -16
	.cfi_offset 19, -20
.LBB97:
.LBB96:
	.loc 2 112 9
	lbu	s1,20(a0)
.LVL72:
.LBE96:
.LBE97:
	.loc 1 299 5
	bne	s1,zero,.L27
.LBB98:
	.loc 1 300 26
	lw	a4,8(a0)
	mv	s0,a0
	.loc 1 300 3 is_stmt 1
.LVL73:
	.loc 1 302 3
	.loc 1 302 16 is_stmt 0
	lbu	a5,1(a4)
	lbu	a3,0(a4)
	slli	a5,a5,8
	or	a5,a5,a3
	.loc 1 302 3
	li	a3,8192
	addi	a2,a3,37
	beq	a5,a2,.L28
	addi	a2,a3,38
	beq	a5,a2,.L29
	addi	a3,a3,1
	bne	a5,a3,.L27
	.loc 1 312 4 is_stmt 1
.LVL74:
.LBB99:
.LBB100:
	.loc 1 233 2
	.loc 1 235 2
	.loc 1 241 2
	.loc 1 241 17 is_stmt 0
	lbu	a5,3(a4)
	andi	a5,a5,127
	sb	a5,3(a4)
	.loc 1 242 2 is_stmt 1
	.loc 1 242 17 is_stmt 0
	lbu	a5,4(a4)
	andi	a5,a5,-2
	sb	a5,4(a4)
.LVL75:
.L27:
.LBE100:
.LBE99:
.LBE98:
	.loc 1 319 2 is_stmt 1
	.loc 1 319 15 is_stmt 0
	lui	a5,%hi(bt_dev+180)
	.loc 1 319 19
	lw	a5,%lo(bt_dev+180)(a5)
	.loc 1 320 1
	lw	s0,24(sp)
	.cfi_remember_state
	.cfi_restore 8
	lw	ra,28(sp)
	.cfi_restore 1
	lw	s1,20(sp)
	.cfi_restore 9
	lw	s2,16(sp)
	.cfi_restore 18
	lw	s3,12(sp)
	.cfi_restore 19
	.loc 1 319 9
	lw	t1,16(a5)
	.loc 1 320 1
	addi	sp,sp,32
	.cfi_def_cfa_offset 0
	.loc 1 319 9
	jr	t1
.LVL76:
.L28:
	.cfi_restore_state
.LBB117:
	.loc 1 304 4 is_stmt 1
	li	a1,3
	addi	a0,a0,8
	call	net_buf_simple_pull
.LVL77:
	.loc 1 305 4
.LBB101:
.LBB102:
	.loc 1 281 2
	.loc 1 283 2
	mv	a0,s0
	call	net_buf_unref
.LVL78:
	.loc 1 285 2
.LBB103:
.LBB104:
	.loc 5 331 2
	.loc 5 331 21 is_stmt 0
	lui	s0,%hi(.LANCHOR1)
.LVL79:
	addi	a0,s0,%lo(.LANCHOR1)
	call	atomic_get
.LVL80:
	.loc 5 333 2 is_stmt 1
	.loc 5 333 19 is_stmt 0
	srai	a0,a0,1
	.loc 5 333 12
	andi	a0,a0,1
.LBE104:
.LBE103:
	.loc 1 285 5
	beq	a0,zero,.L31
.L33:
	.loc 1 286 10
	li	s1,12
.L32:
.LVL81:
	.loc 1 294 2 is_stmt 1
	li	a0,8192
	mv	a1,s1
	addi	a0,a0,37
.LVL82:
.L40:
.LBE102:
.LBE101:
.LBB108:
.LBB109:
	.loc 1 276 2 is_stmt 0
	call	send_cmd_status
.LVL83:
.LBE109:
.LBE108:
.LBE117:
	.loc 1 320 1
	lw	ra,28(sp)
	.cfi_remember_state
	.cfi_restore 1
	lw	s0,24(sp)
	.cfi_restore 8
	lw	s1,20(sp)
	.cfi_restore 9
	lw	s2,16(sp)
	.cfi_restore 18
	lw	s3,12(sp)
	.cfi_restore 19
	li	a0,0
	addi	sp,sp,32
	.cfi_def_cfa_offset 0
	jr	ra
.LVL84:
.L31:
	.cfi_restore_state
.LBB118:
.LBB115:
.LBB107:
	.loc 1 287 9 is_stmt 1
.LBB105:
.LBB106:
	.loc 5 370 2
	.loc 5 371 2
	.loc 5 373 2
	.loc 5 373 8 is_stmt 0
	li	a1,1
	addi	a0,s0,%lo(.LANCHOR1)
	call	atomic_or
.LVL85:
	.loc 5 375 2 is_stmt 1
	.loc 5 375 14 is_stmt 0
	andi	a0,a0,1
.LBE106:
.LBE105:
	.loc 1 287 12
	bne	a0,zero,.L33
	.loc 1 290 3 is_stmt 1
	lui	a0,%hi(.LANCHOR0)
	addi	a0,a0,%lo(.LANCHOR0)
	call	k_sem_give
.LVL86:
	.loc 1 291 3
	j	.L32
.LVL87:
.L29:
.LBE107:
.LBE115:
	.loc 1 308 4
	li	a1,3
	addi	a0,a0,8
	call	net_buf_simple_pull
.LVL88:
	.loc 1 309 4
.LBB116:
.LBB114:
	.loc 1 247 2
	.loc 1 248 2
	.loc 1 250 2
.LBB110:
.LBB111:
	.loc 5 331 2
	.loc 5 331 21 is_stmt 0
	lui	s2,%hi(.LANCHOR1)
	addi	a0,s2,%lo(.LANCHOR1)
	call	atomic_get
.LVL89:
	.loc 5 333 2 is_stmt 1
	.loc 5 333 12 is_stmt 0
	andi	a0,a0,1
.LBE111:
.LBE110:
	.loc 1 250 5
	beq	a0,zero,.L35
.L37:
	.loc 1 251 10
	li	s1,12
.L36:
.LVL90:
	.loc 1 275 2 is_stmt 1
	mv	a0,s0
	call	net_buf_unref
.LVL91:
	.loc 1 276 2
	li	a0,8192
	mv	a1,s1
	addi	a0,a0,38
	j	.L40
.LVL92:
.L35:
	.loc 1 255 2
	.loc 1 255 5 is_stmt 0
	lhu	a4,12(s0)
	li	a5,63
	bleu	a4,a5,.L38
	.loc 1 260 2 is_stmt 1
.LVL93:
.LBB112:
.LBB113:
	.loc 5 370 2
	.loc 5 371 2
	.loc 5 373 2
	.loc 5 373 8 is_stmt 0
	li	a1,2
	addi	a0,s2,%lo(.LANCHOR1)
	call	atomic_or
.LVL94:
	.loc 5 375 2 is_stmt 1
	.loc 5 375 14 is_stmt 0
	andi	a0,a0,2
.LBE113:
.LBE112:
	.loc 1 260 5
	bne	a0,zero,.L37
	.loc 1 265 2 is_stmt 1
	.loc 1 265 6 is_stmt 0
	lw	s3,8(s0)
.LVL95:
	.loc 1 269 2 is_stmt 1
	lui	s2,%hi(.LANCHOR3)
	addi	s2,s2,%lo(.LANCHOR3)
	mv	a1,s3
	addi	a0,s2,32
	call	sys_memcpy_swap.constprop.1
.LVL96:
	.loc 1 270 2
	addi	a0,s2,64
	addi	a1,s3,32
	call	sys_memcpy_swap.constprop.1
.LVL97:
	.loc 1 271 2
	lui	a0,%hi(.LANCHOR0)
	addi	a0,a0,%lo(.LANCHOR0)
	call	k_sem_give
.LVL98:
	.loc 1 272 2
	j	.L36
.LVL99:
.L38:
	.loc 1 256 10 is_stmt 0
	li	s1,18
	j	.L36
.LBE114:
.LBE116:
.LBE118:
	.cfi_endproc
.LFE96:
	.size	bt_hci_ecc_send, .-bt_hci_ecc_send
	.section	.text.default_CSPRNG,"ax",@progbits
	.align	1
	.globl	default_CSPRNG
	.type	default_CSPRNG, @function
default_CSPRNG:
.LFB97:
	.loc 1 323 1 is_stmt 1
	.cfi_startproc
.LVL100:
	.loc 1 324 2
	.loc 1 323 1 is_stmt 0
	addi	sp,sp,-16
	.cfi_def_cfa_offset 16
	sw	ra,12(sp)
	.cfi_offset 1, -4
	.loc 1 324 10
	call	bt_rand
.LVL101:
	.loc 1 325 1
	lw	ra,12(sp)
	.cfi_restore 1
	seqz	a0,a0
	addi	sp,sp,16
	.cfi_def_cfa_offset 0
	jr	ra
	.cfi_endproc
.LFE97:
	.size	default_CSPRNG, .-default_CSPRNG
	.section	.text.bt_hci_ecc_init,"ax",@progbits
	.align	1
	.globl	bt_hci_ecc_init
	.type	bt_hci_ecc_init, @function
bt_hci_ecc_init:
.LFB98:
	.loc 1 328 1 is_stmt 1
	.cfi_startproc
	.loc 1 330 5
	lui	a0,%hi(.LANCHOR0)
	.loc 1 328 1 is_stmt 0
	addi	sp,sp,-16
	.cfi_def_cfa_offset 16
	.loc 1 330 5
	li	a2,1
	li	a1,0
	addi	a0,a0,%lo(.LANCHOR0)
	.loc 1 328 1
	sw	ra,12(sp)
	.cfi_offset 1, -4
	.loc 1 330 5
	call	k_sem_init
.LVL102:
	.loc 1 331 5 is_stmt 1
	.loc 1 340 1 is_stmt 0
	lw	ra,12(sp)
	.cfi_restore 1
	.loc 1 331 5
	lui	a3,%hi(ecc_thread)
	lui	a1,%hi(.LC2)
	lui	a0,%hi(.LANCHOR5)
	.loc 1 340 1
	.loc 1 331 5
	li	a4,30
	addi	a3,a3,%lo(ecc_thread)
	li	a2,384
	addi	a1,a1,%lo(.LC2)
	addi	a0,a0,%lo(.LANCHOR5)
	.loc 1 340 1
	addi	sp,sp,16
	.cfi_def_cfa_offset 0
	.loc 1 331 5
	tail	k_thread_create
.LVL103:
	.cfi_endproc
.LFE98:
	.size	bt_hci_ecc_init, .-bt_hci_ecc_init
	.section	._k_sem.static.cmd_sem,"aw"
	.align	2
	.set	.LANCHOR0,. + 0
	.type	cmd_sem, @object
	.size	cmd_sem, 12
cmd_sem:
	.zero	12
	.section	.bss.ecc,"aw",@nobits
	.align	2
	.set	.LANCHOR3,. + 0
	.type	ecc, @object
	.size	ecc, 96
ecc:
	.zero	96
	.section	.rodata.bt_hci_ecc_init.str1.4,"aMS",@progbits,1
	.align	2
.LC2:
	.string	"ecc_thread"
	.section	.rodata.curve_secp256r1,"a"
	.align	2
	.set	.LANCHOR2,. + 0
	.type	curve_secp256r1, @object
	.size	curve_secp256r1, 176
curve_secp256r1:
	.byte	8
	.byte	32
	.half	256
	.word	-1
	.word	-1
	.word	-1
	.word	0
	.word	0
	.word	0
	.word	1
	.word	-1
	.word	-60611247
	.word	-205927742
	.word	-1491624316
	.word	-1125713235
	.word	-1
	.word	-1
	.word	0
	.word	-1
	.word	-661077354
	.word	-190760635
	.word	770388896
	.word	1996717441
	.word	1671708914
	.word	-121837851
	.word	-517193145
	.word	1796723186
	.word	935285237
	.word	-877248408
	.word	1798397646
	.word	734933847
	.word	2081398294
	.word	-1897403574
	.word	-31817829
	.word	1340293858
	.word	668098635
	.word	1003371582
	.word	-866930442
	.word	1696401072
	.word	1989707452
	.word	-1276396203
	.word	-1439001625
	.word	1522939352
	.word	double_jacobian_default
	.word	x_side_default
	.word	vli_mmod_fast_secp256r1
	.section	.rodata.debug_private_key,"a"
	.align	2
	.set	.LANCHOR4,. + 0
	.type	debug_private_key, @object
	.size	debug_private_key, 32
debug_private_key:
	.word	-851699011
	.word	1486469286
	.word	-348080231
	.word	1258250363
	.word	-770687152
	.word	1959375843
	.word	-1547346120
	.word	1061811924
	.section	.rodata.ecc_thread.str1.4,"aMS",@progbits,1
	.align	2
.LC0:
	.string	"Failed to create ECC public/private pair\r\n"
	.zero	1
.LC1:
	.string	"public key is not valid (ret %d)\r\n"
	.section	.sbss.ecc_thread_data,"aw",@nobits
	.align	2
	.set	.LANCHOR5,. + 0
	.type	ecc_thread_data, @object
	.size	ecc_thread_data, 4
ecc_thread_data:
	.zero	4
	.section	.sbss.flags,"aw",@nobits
	.align	2
	.set	.LANCHOR1,. + 0
	.type	flags, @object
	.size	flags, 4
flags:
	.zero	4
	.text
.Letext0:
	.file 6 "/b-l/bl_iot_sdk_new/toolchain/riscv/Linux/lib/gcc/riscv64-unknown-elf/8.3.0/include/stdint-gcc.h"
	.file 7 "/b-l/bl_iot_sdk_new/toolchain/riscv/Linux/lib/gcc/riscv64-unknown-elf/8.3.0/include/stddef.h"
	.file 8 "/b-l/bl_iot_sdk_new/components/network/ble/blestack/src/common/include/zephyr/types.h"
	.file 9 "/b-l/bl_iot_sdk_new/components/network/ble/blestack/src/common/include/misc/slist.h"
	.file 10 "/b-l/bl_iot_sdk_new/components/network/ble/blestack/src/common/include/misc/dlist.h"
	.file 11 "/b-l/bl_iot_sdk_new/toolchain/riscv/Linux/riscv64-unknown-elf/include/sys/_types.h"
	.file 12 "/b-l/bl_iot_sdk_new/toolchain/riscv/Linux/riscv64-unknown-elf/include/sys/reent.h"
	.file 13 "/b-l/bl_iot_sdk_new/toolchain/riscv/Linux/riscv64-unknown-elf/include/sys/lock.h"
	.file 14 "/b-l/bl_iot_sdk_new/components/network/ble/blestack/src/port/include/bl_port.h"
	.file 15 "/b-l/bl_iot_sdk_new/components/network/ble/blestack/src/common/include/work_q.h"
	.file 16 "/b-l/bl_iot_sdk_new/components/network/ble/blestack/src/port/include/zephyr.h"
	.file 17 "/b-l/bl_iot_sdk_new/components/network/ble/blestack/src/common/tinycrypt/include/tinycrypt/ecc.h"
	.file 18 "/b-l/bl_iot_sdk_new/components/network/ble/blestack/src/include/bluetooth/addr.h"
	.file 19 "/b-l/bl_iot_sdk_new/components/network/ble/blestack/src/include/bluetooth/hci_host.h"
	.file 20 "/b-l/bl_iot_sdk_new/components/network/ble/blestack/src/include/bluetooth/conn.h"
	.file 21 "/b-l/bl_iot_sdk_new/components/network/ble/blestack/src/include/drivers/bluetooth/hci_driver.h"
	.file 22 "/b-l/bl_iot_sdk_new/components/bl602/freertos_riscv_ram/portable/GCC/RISC-V/portmacro.h"
	.file 23 "/b-l/bl_iot_sdk_new/components/network/ble/blestack/src/host/hci_core.h"
	.file 24 "/b-l/bl_iot_sdk_new/components/network/ble/blestack/src/common/../include/bluetooth/crypto.h"
	.file 25 "/b-l/bl_iot_sdk_new/components/network/ble/blestack/src/common/tinycrypt/include/tinycrypt/ecc_dh.h"
	.file 26 "/b-l/bl_iot_sdk_new/toolchain/riscv/Linux/riscv64-unknown-elf/include/stdio.h"
	.file 27 "/b-l/bl_iot_sdk_new/toolchain/riscv/Linux/riscv64-unknown-elf/include/string.h"