	.file	"l2cap.c"
	.option nopic
	.attribute arch, "rv32i2p0_m2p0_f2p0_c2p0"
	.attribute unaligned_access, 0
	.attribute stack_align, 16
	.text
.Ltext0:
	.cfi_sections	.debug_frame
	.section	.text.sys_slist_remove,"ax",@progbits
	.align	1
	.type	sys_slist_remove, @function
sys_slist_remove:
.LFB13:
	.file 1 "/b-l/bl_iot_sdk_new/components/network/ble/blestack/src/common/include/misc/slist.h"
	.loc 1 415 1
	.cfi_startproc
.LVL0:
	.loc 1 416 2
	lw	a5,0(a2)
	.loc 1 416 5 is_stmt 0
	bne	a1,zero,.L2
	.loc 1 417 3 is_stmt 1
	.loc 1 420 6 is_stmt 0
	lw	a4,4(a0)
	.loc 1 417 14
	sw	a5,0(a0)
	.loc 1 420 3 is_stmt 1
	.loc 1 420 6 is_stmt 0
	bne	a4,a2,.L4
	.loc 1 421 4 is_stmt 1
	.loc 1 421 15 is_stmt 0
	sw	a5,4(a0)
.L4:
	.loc 1 432 2 is_stmt 1
	.loc 1 432 13 is_stmt 0
	sw	zero,0(a2)
	.loc 1 433 1
	ret
.L2:
	.loc 1 424 3 is_stmt 1
	.loc 1 424 19 is_stmt 0
	sw	a5,0(a1)
	.loc 1 427 3 is_stmt 1
	.loc 1 427 6 is_stmt 0
	lw	a5,4(a0)
	bne	a5,a2,.L4
	.loc 1 428 4 is_stmt 1
	.loc 1 428 15 is_stmt 0
	sw	a1,4(a0)
	j	.L4
	.cfi_endproc
.LFE13:
	.size	sys_slist_remove, .-sys_slist_remove
	.section	.text.net_buf_frags_len,"ax",@progbits
	.align	1
	.type	net_buf_frags_len, @function
net_buf_frags_len:
.LFB73:
	.file 2 "/b-l/bl_iot_sdk_new/components/network/ble/blestack/src/common/include/net/buf.h"
	.loc 2 1497 1 is_stmt 1
	.cfi_startproc
.LVL1:
	.loc 2 1498 2
	.loc 2 1500 2
	.loc 2 1497 1 is_stmt 0
	mv	a5,a0
	.loc 2 1498 9
	li	a0,0
.LVL2:
.L7:
	.loc 2 1500 8
	bne	a5,zero,.L8
	.loc 2 1506 1
	ret
.L8:
	.loc 2 1501 3 is_stmt 1
	.loc 2 1501 15 is_stmt 0
	lhu	a4,12(a5)
	.loc 2 1502 7
	lw	a5,0(a5)
.LVL3:
	.loc 2 1501 9
	add	a0,a0,a4
.LVL4:
	.loc 2 1502 3 is_stmt 1
	j	.L7
	.cfi_endproc
.LFE73:
	.size	net_buf_frags_len, .-net_buf_frags_len
	.section	.text.get_ident,"ax",@progbits
	.align	1
	.type	get_ident, @function
get_ident:
.LFB87:
	.file 3 "/b-l/bl_iot_sdk_new/components/network/ble/blestack/src/host/l2cap.c"
	.loc 3 83 1
	.cfi_startproc
	.loc 3 84 2
	.loc 3 86 2
	.loc 3 86 7 is_stmt 0
	lui	a5,%hi(.LANCHOR0)
	lbu	a4,%lo(.LANCHOR0)(a5)
	addi	a5,a5,%lo(.LANCHOR0)
	addi	a4,a4,1
	andi	a4,a4,0xff
	.loc 3 88 2 is_stmt 1
	.loc 3 88 5 is_stmt 0
	beq	a4,zero,.L10
.L12:
	.loc 3 89 8
	sb	a4,0(a5)
	.loc 3 92 2 is_stmt 1
	.loc 3 93 1 is_stmt 0
	lbu	a0,0(a5)
	ret
.L10:
	.loc 3 89 3 is_stmt 1
	.loc 3 89 8 is_stmt 0
	li	a4,1
	j	.L12
	.cfi_endproc
.LFE87:
	.size	get_ident, .-get_ident
	.section	.text.__l2cap_lookup_ident,"ax",@progbits
	.align	1
	.type	__l2cap_lookup_ident, @function
__l2cap_lookup_ident:
.LFB89:
	.loc 3 131 1 is_stmt 1
	.cfi_startproc
.LVL5:
	.loc 3 132 2
	.loc 3 133 2
	.loc 3 135 2
	.loc 3 131 1 is_stmt 0
	addi	sp,sp,-16
	.cfi_def_cfa_offset 16
	sw	ra,12(sp)
	sw	s0,8(sp)
	.cfi_offset 1, -4
	.cfi_offset 8, -8
	.loc 3 135 16
	lw	s0,64(a0)
.LVL6:
	.loc 1 221 2 is_stmt 1
	.loc 3 135 4 is_stmt 0
	beq	s0,zero,.L13
.LVL7:
	.loc 1 221 2 is_stmt 1 discriminator 1
	.loc 3 135 4 is_stmt 0 discriminator 1
	addi	s0,s0,-8
	li	a5,0
.LVL8:
.L15:
	.loc 3 135 2 discriminator 14
	beq	s0,zero,.L13
	.loc 3 136 3 is_stmt 1
	.loc 3 136 6 is_stmt 0
	lbu	a4,60(s0)
	bne	a4,a1,.L16
	.loc 3 137 4 is_stmt 1
	.loc 3 137 7 is_stmt 0
	beq	a2,zero,.L13
	.loc 3 138 5 is_stmt 1
	addi	a2,s0,8
.LVL9:
	mv	a1,a5
.LVL10:
	addi	a0,a0,64
.LVL11:
	call	sys_slist_remove
.LVL12:
.L13:
	.loc 3 148 1 is_stmt 0
	mv	a0,s0
	lw	ra,12(sp)
	.cfi_remember_state
	.cfi_restore 1
	lw	s0,8(sp)
	.cfi_restore 8
	addi	sp,sp,16
	.cfi_def_cfa_offset 0
	jr	ra
.LVL13:
.L16:
	.cfi_restore_state
	.loc 3 144 3 is_stmt 1
.LBB115:
.LBB116:
	.loc 1 259 2
	.loc 1 259 16 is_stmt 0
	lw	a4,8(s0)
.LVL14:
.LBE116:
.LBE115:
	.loc 1 247 2 is_stmt 1
	.loc 3 135 4 is_stmt 0
	beq	a4,zero,.L18
	.loc 3 144 8
	addi	a5,s0,8
.LVL15:
	.loc 1 259 2 is_stmt 1
	.loc 1 247 2
	.loc 3 135 4 is_stmt 0
	addi	s0,a4,-8
.LVL16:
	j	.L15
.LVL17:
.L18:
	.loc 3 147 8
	li	s0,0
.LVL18:
	j	.L13
	.cfi_endproc
.LFE89:
	.size	__l2cap_lookup_ident, .-__l2cap_lookup_ident
	.section	.text.l2cap_server_lookup_psm,"ax",@progbits
	.align	1
	.type	l2cap_server_lookup_psm, @function
l2cap_server_lookup_psm:
.LFB112:
	.loc 3 642 1 is_stmt 1
	.cfi_startproc
.LVL19:
	.loc 3 643 2
	.loc 3 645 2
	.loc 3 645 18 is_stmt 0
	lui	a5,%hi(.LANCHOR1)
	lw	a5,%lo(.LANCHOR1)(a5)
.LVL20:
	.loc 1 221 2 is_stmt 1
.L38:
	.loc 1 247 2 discriminator 6
	.loc 3 645 4 is_stmt 0 discriminator 6
	beq	a5,zero,.L26
.LVL21:
	.loc 1 259 2 is_stmt 1
	.loc 1 247 2
	.loc 3 645 4 is_stmt 0
	addi	a5,a5,-8
.LVL22:
	.loc 3 645 2
	bne	a5,zero,.L29
.LVL23:
.L26:
	.loc 3 652 1
	mv	a0,a5
.LVL24:
	ret
.LVL25:
.L29:
	.loc 3 646 3 is_stmt 1
	.loc 3 646 6 is_stmt 0
	lhu	a4,0(a5)
	beq	a4,a0,.L26
.LVL26:
.LBB117:
.LBB118:
	.loc 1 259 2 is_stmt 1 discriminator 6
	.loc 1 259 16 is_stmt 0 discriminator 6
	lw	a5,8(a5)
.LVL27:
	j	.L38
.LBE118:
.LBE117:
	.cfi_endproc
.LFE112:
	.size	l2cap_server_lookup_psm, .-l2cap_server_lookup_psm
	.section	.text.l2cap_remove_rx_cid,"ax",@progbits
	.align	1
	.type	l2cap_remove_rx_cid, @function
l2cap_remove_rx_cid:
.LFB121:
	.loc 3 940 1 is_stmt 1
	.cfi_startproc
.LVL28:
	.loc 3 941 2
	.loc 3 942 2
	.loc 3 945 2
	.loc 3 945 6 is_stmt 0
	addi	a5,a1,-64
	.loc 3 940 1
	addi	sp,sp,-16
	.cfi_def_cfa_offset 16
	.loc 3 945 5
	slli	a5,a5,16
	.loc 3 940 1
	sw	s0,8(sp)
	sw	ra,12(sp)
	.cfi_offset 8, -8
	.cfi_offset 1, -4
	.loc 3 945 5
	srli	a5,a5,16
	li	a4,63
	.loc 3 946 9
	li	s0,0
	.loc 3 945 5
	bgtu	a5,a4,.L39
	.loc 3 949 2 is_stmt 1
	.loc 3 949 16 is_stmt 0
	lw	s0,64(a0)
.LVL29:
	.loc 1 221 2 is_stmt 1
	.loc 3 949 4 is_stmt 0
	beq	s0,zero,.L39
.LVL30:
	.loc 1 221 2 is_stmt 1 discriminator 1
	.loc 3 949 4 is_stmt 0 discriminator 1
	addi	s0,s0,-8
	li	a5,0
.LVL31:
.L41:
	.loc 3 949 2 discriminator 14
	beq	s0,zero,.L39
	.loc 3 950 3 is_stmt 1
	.loc 3 950 6 is_stmt 0
	lhu	a4,64(s0)
	addi	a2,s0,8
	bne	a4,a1,.L42
	.loc 3 951 4 is_stmt 1
	mv	a1,a5
.LVL32:
	addi	a0,a0,64
.LVL33:
	call	sys_slist_remove
.LVL34:
	.loc 3 952 4
.L39:
	.loc 3 959 1 is_stmt 0
	mv	a0,s0
	lw	ra,12(sp)
	.cfi_remember_state
	.cfi_restore 1
	lw	s0,8(sp)
	.cfi_restore 8
	addi	sp,sp,16
	.cfi_def_cfa_offset 0
	jr	ra
.LVL35:
.L42:
	.cfi_restore_state
	.loc 3 955 3 is_stmt 1
.LBB119:
.LBB120:
	.loc 1 259 2
	.loc 1 259 16 is_stmt 0
	lw	s0,8(s0)
.LVL36:
.LBE120:
.LBE119:
	.loc 1 247 2 is_stmt 1
	.loc 3 949 4 is_stmt 0
	beq	s0,zero,.L39
.LVL37:
	.loc 1 259 2 is_stmt 1
	.loc 1 247 2
	.loc 3 949 4 is_stmt 0
	addi	s0,s0,-8
	mv	a5,a2
	j	.L41
	.cfi_endproc
.LFE121:
	.size	l2cap_remove_rx_cid, .-l2cap_remove_rx_cid
	.section	.text.l2cap_chan_sdu_sent,"ax",@progbits
	.align	1
	.globl	l2cap_chan_sdu_sent
	.type	l2cap_chan_sdu_sent, @function
l2cap_chan_sdu_sent:
.LFB128:
	.loc 3 1201 1 is_stmt 1
	.cfi_startproc
.LVL38:
	.loc 3 1202 2
	.loc 3 1204 2
	.loc 3 1206 2
	.loc 3 1206 15 is_stmt 0
	lw	a5,4(a1)
	lw	t1,20(a5)
	.loc 3 1206 5
	beq	t1,zero,.L52
	.loc 3 1207 3 is_stmt 1
	mv	a0,a1
.LVL39:
	jr	t1
.LVL40:
.L52:
	.loc 3 1209 1 is_stmt 0
	ret
	.cfi_endproc
.LFE128:
	.size	l2cap_chan_sdu_sent, .-l2cap_chan_sdu_sent
	.section	.text.l2cap_alloc_frag,"ax",@progbits
	.align	1
	.type	l2cap_alloc_frag, @function
l2cap_alloc_frag:
.LFB139:
	.loc 3 1565 1 is_stmt 1
	.cfi_startproc
.LVL41:
	.loc 3 1566 2
	.loc 3 1567 2
	.loc 3 1569 2
	.loc 3 1569 23 is_stmt 0
	lw	a5,4(a1)
	.loc 3 1569 9
	mv	a0,a1
.LVL42:
	lw	t1,12(a5)
	jr	t1
.LVL43:
	.cfi_endproc
.LFE139:
	.size	l2cap_alloc_frag, .-l2cap_alloc_frag
	.section	.text.l2cap_connected,"ax",@progbits
	.align	1
	.type	l2cap_connected, @function
l2cap_connected:
.LFB146:
	.loc 3 1781 1 is_stmt 1
	.cfi_startproc
.LVL44:
	.loc 3 1783 40
	.loc 3 1784 1 is_stmt 0
	ret
	.cfi_endproc
.LFE146:
	.size	l2cap_connected, .-l2cap_connected
	.section	.text.l2cap_chan_destroy,"ax",@progbits
	.align	1
	.type	l2cap_chan_destroy, @function
l2cap_chan_destroy:
.LFB118:
	.loc 3 772 1 is_stmt 1
	.cfi_startproc
.LVL45:
	.loc 3 773 2
	.loc 3 774 2
	.loc 3 776 2
	.loc 3 779 2
	.loc 3 772 1 is_stmt 0
	addi	sp,sp,-16
	.cfi_def_cfa_offset 16
	sw	s0,8(sp)
	.cfi_offset 8, -8
	mv	s0,a0
	.loc 3 779 2
	addi	a0,a0,16
.LVL46:
	.loc 3 772 1
	sw	ra,12(sp)
	sw	s1,4(sp)
	.cfi_offset 1, -4
	.cfi_offset 9, -12
	.loc 3 779 2
	call	k_delayed_work_cancel
.LVL47:
	.loc 3 781 2 is_stmt 1
	.loc 3 781 8 is_stmt 0
	lw	a0,116(s0)
	.loc 3 781 5
	beq	a0,zero,.L57
	.loc 3 782 3 is_stmt 1
	call	net_buf_unref
.LVL48:
	.loc 3 783 3
	.loc 3 783 14 is_stmt 0
	sw	zero,116(s0)
.L57:
	.loc 3 787 16
	addi	s1,s0,104
.L58:
	li	a1,0
	mv	a0,s1
	call	net_buf_get
.LVL49:
	.loc 3 787 8
	bne	a0,zero,.L59
	.loc 3 792 16
	addi	s1,s0,140
.LVL50:
.L60:
	li	a1,0
	mv	a0,s1
	call	net_buf_get
.LVL51:
	.loc 3 792 8
	bne	a0,zero,.L61
	.loc 3 797 2 is_stmt 1
	.loc 3 797 8 is_stmt 0
	lw	a0,120(s0)
.LVL52:
	.loc 3 797 5
	beq	a0,zero,.L56
	.loc 3 798 3 is_stmt 1
	call	net_buf_unref
.LVL53:
	.loc 3 799 3
	.loc 3 799 12 is_stmt 0
	sw	zero,120(s0)
	.loc 3 800 3 is_stmt 1
	.loc 3 800 16 is_stmt 0
	sh	zero,124(s0)
.L56:
	.loc 3 802 1
	lw	ra,12(sp)
	.cfi_remember_state
	.cfi_restore 1
	lw	s0,8(sp)
	.cfi_restore 8
.LVL54:
	lw	s1,4(sp)
	.cfi_restore 9
.LVL55:
	addi	sp,sp,16
	.cfi_def_cfa_offset 0
	jr	ra
.LVL56:
.L59:
	.cfi_restore_state
	.loc 3 788 3 is_stmt 1
	call	net_buf_unref
.LVL57:
	j	.L58
.LVL58:
.L61:
	.loc 3 793 3
	call	net_buf_unref
.LVL59:
	j	.L60
	.cfi_endproc
.LFE118:
	.size	l2cap_chan_destroy, .-l2cap_chan_destroy
	.section	.text.l2cap_chan_tx_init,"ax",@progbits
	.align	1
	.type	l2cap_chan_tx_init, @function
l2cap_chan_tx_init:
.LFB115:
	.loc 3 738 1
	.cfi_startproc
.LVL60:
	.loc 3 739 2
	.loc 3 741 2
	.loc 3 738 1 is_stmt 0
	addi	sp,sp,-16
	.cfi_def_cfa_offset 16
	sw	s0,8(sp)
	.loc 3 741 8
	li	a2,20
	.cfi_offset 8, -8
	.loc 3 738 1
	mv	s0,a0
	.loc 3 741 8
	li	a1,0
	addi	a0,a0,84
.LVL61:
	.loc 3 738 1
	sw	ra,12(sp)
	.cfi_offset 1, -4
	.loc 3 741 8
	call	memset
.LVL62:
	.loc 3 742 2 is_stmt 1
	li	a1,0
	addi	a0,s0,92
	li	a2,-1
	call	k_sem_init
.LVL63:
	.loc 3 743 2
	addi	a0,s0,104
	.loc 3 744 1 is_stmt 0
	lw	s0,8(sp)
	.cfi_restore 8
.LVL64:
	lw	ra,12(sp)
	.cfi_restore 1
	.loc 3 743 2
	li	a1,20
	.loc 3 744 1
	addi	sp,sp,16
	.cfi_def_cfa_offset 0
	.loc 3 743 2
	tail	k_queue_init
.LVL65:
	.cfi_endproc
.LFE115:
	.size	l2cap_chan_tx_init, .-l2cap_chan_tx_init
	.section	.text.l2cap_chan_rx_init,"ax",@progbits
	.align	1
	.type	l2cap_chan_rx_init, @function
l2cap_chan_rx_init:
.LFB114:
	.loc 3 705 1 is_stmt 1
	.cfi_startproc
.LVL66:
	.loc 3 706 2
	.loc 3 709 2
	.loc 3 709 5 is_stmt 0
	lhu	a5,66(a0)
	bne	a5,zero,.L73
	.loc 3 710 3 is_stmt 1
	.loc 3 710 16 is_stmt 0
	li	a5,245
	sh	a5,66(a0)
.L73:
	.loc 3 714 2 is_stmt 1
	.loc 3 714 5 is_stmt 0
	lhu	a5,70(a0)
	lhu	a4,66(a0)
	bne	a5,zero,.L74
	.loc 3 715 3 is_stmt 1
	.loc 3 715 21 is_stmt 0
	lw	a5,4(a0)
	.loc 3 715 6
	lw	a5,12(a5)
	beq	a5,zero,.L75
	.loc 3 717 4 is_stmt 1
	.loc 3 717 42 is_stmt 0
	addi	a5,a4,246
	.loc 3 718 29
	li	a3,247
	div	a5,a5,a3
.L77:
	.loc 3 721 26
	sh	a5,70(a0)
.L74:
	.loc 3 728 2 is_stmt 1
	.loc 3 728 15 is_stmt 0
	li	a3,245
	mv	a5,a4
	bleu	a4,a3,.L76
	li	a5,245
.L76:
	addi	a5,a5,2
	sh	a5,68(a0)
	.loc 3 729 2 is_stmt 1
	li	a2,-1
	li	a1,0
	addi	a0,a0,72
.LVL67:
	tail	k_sem_init
.LVL68:
.L75:
	.loc 3 721 4
	.loc 3 721 26 is_stmt 0
	li	a5,4
	j	.L77
	.cfi_endproc
.LFE114:
	.size	l2cap_chan_rx_init, .-l2cap_chan_rx_init
	.section	.text.l2cap_accept,"ax",@progbits
	.align	1
	.type	l2cap_accept, @function
l2cap_accept:
.LFB148:
	.loc 3 1793 1 is_stmt 1
	.cfi_startproc
.LVL69:
	.loc 3 1794 2
	.loc 3 1795 2
	.loc 3 1801 2
	.loc 3 1803 2
.LBB124:
.LBB125:
.LBB126:
	.loc 3 1804 3
	.loc 3 1806 3
	.loc 3 1806 23 is_stmt 0
	lui	a5,%hi(.LANCHOR2)
	addi	a4,a5,%lo(.LANCHOR2)
	.loc 3 1806 6
	lw	a3,0(a4)
	addi	a5,a5,%lo(.LANCHOR2)
	beq	a3,zero,.L81
	.loc 3 1807 4 is_stmt 1
.LVL70:
	.loc 3 1804 3
	.loc 3 1806 3
	.loc 3 1806 6 is_stmt 0
	lw	a4,152(a4)
	beq	a4,zero,.L82
	mv	a1,a0
.LVL71:
	.loc 3 1807 4 is_stmt 1
.LBE126:
	.loc 3 1816 2
	lui	a0,%hi(.LC0)
.LVL72:
.LBE125:
.LBE124:
	.loc 3 1793 1 is_stmt 0
	addi	sp,sp,-16
	.cfi_def_cfa_offset 16
.LBB133:
.LBB128:
	.loc 3 1816 2
	addi	a0,a0,%lo(.LC0)
.LBE128:
.LBE133:
	.loc 3 1793 1
	sw	ra,12(sp)
	.cfi_offset 1, -4
.LBB134:
.LBB129:
	.loc 3 1816 2
	call	printf
.LVL73:
	.loc 3 1818 2 is_stmt 1
.LBE129:
.LBE134:
	.loc 3 1819 1 is_stmt 0
	lw	ra,12(sp)
	.cfi_restore 1
.LBB135:
.LBB130:
	.loc 3 1818 9
	li	a0,-12
.LBE130:
.LBE135:
	.loc 3 1819 1
	addi	sp,sp,16
	.cfi_def_cfa_offset 0
	jr	ra
.LVL74:
.L81:
.LBB136:
.LBB131:
	.loc 3 1803 9
	li	a4,0
.LVL75:
.L79:
.LBB127:
	.loc 3 1810 3 is_stmt 1
	.loc 3 1810 24 is_stmt 0
	li	a3,152
	mul	a4,a4,a3
	.loc 3 1813 10
	li	a0,0
.LVL76:
	.loc 3 1810 24
	add	a5,a5,a4
	lui	a4,%hi(.LANCHOR3)
	addi	a4,a4,%lo(.LANCHOR3)
	sw	a4,4(a5)
	.loc 3 1811 3 is_stmt 1
	.loc 3 1811 9 is_stmt 0
	sw	a5,0(a1)
	.loc 3 1813 3 is_stmt 1
.LVL77:
.LBE127:
.LBE131:
.LBE136:
	.loc 3 1819 1 is_stmt 0
	ret
.LVL78:
.L82:
.LBB137:
.LBB132:
	.loc 3 1803 222
	li	a4,1
	j	.L79
.LBE132:
.LBE137:
	.cfi_endproc
.LFE148:
	.size	l2cap_accept, .-l2cap_accept
	.section	.text.l2cap_create_le_sig_pdu.isra.7,"ax",@progbits
	.align	1
	.type	l2cap_create_le_sig_pdu.isra.7, @function
l2cap_create_le_sig_pdu.isra.7:
.LFB161:
	.loc 3 395 24 is_stmt 1
	.cfi_startproc
.LVL79:
	.loc 3 399 2
	.loc 3 402 2
.LBB138:
.LBB139:
	.loc 3 508 2
.LBE139:
.LBE138:
	.loc 3 395 24 is_stmt 0
	addi	sp,sp,-32
	.cfi_def_cfa_offset 32
	sw	s0,24(sp)
	sw	s2,16(sp)
	sw	s3,12(sp)
	.cfi_offset 8, -8
	.cfi_offset 18, -16
	.cfi_offset 19, -20
	mv	s2,a0
	mv	s3,a1
	mv	s0,a2
.LBB142:
.LBB140:
	.loc 3 508 9
	li	a1,4
.LVL80:
	li	a2,2000
.LVL81:
	li	a0,0
.LVL82:
.LBE140:
.LBE142:
	.loc 3 395 24
	sw	s1,20(sp)
	sw	ra,28(sp)
	.cfi_offset 9, -12
	.cfi_offset 1, -4
.LBB143:
.LBB141:
	.loc 3 508 9
	call	bt_conn_create_pdu_timeout
.LVL83:
	mv	s1,a0
.LVL84:
.LBE141:
.LBE143:
	.loc 3 403 2 is_stmt 1
	.loc 3 403 5 is_stmt 0
	bne	a0,zero,.L88
	.loc 3 407 3 is_stmt 1
	lui	a0,%hi(.LC1)
	mv	a1,s2
	addi	a0,a0,%lo(.LC1)
	call	printf
.LVL85:
	.loc 3 408 3
.L87:
	.loc 3 417 1 is_stmt 0
	lw	ra,28(sp)
	.cfi_remember_state
	.cfi_restore 1
	lw	s0,24(sp)
	.cfi_restore 8
	mv	a0,s1
	lw	s2,16(sp)
	.cfi_restore 18
	lw	s1,20(sp)
	.cfi_restore 9
.LVL86:
	lw	s3,12(sp)
	.cfi_restore 19
	addi	sp,sp,32
	.cfi_def_cfa_offset 0
	jr	ra
.LVL87:
.L88:
	.cfi_restore_state
	.loc 3 411 2 is_stmt 1
	.loc 3 411 8 is_stmt 0
	li	a1,4
	addi	a0,a0,8
	call	net_buf_simple_add
.LVL88:
	.loc 3 412 2 is_stmt 1
	.loc 3 414 11 is_stmt 0
	sb	s0,2(a0)
	srli	s0,s0,8
	.loc 3 412 12
	sb	s2,0(a0)
	.loc 3 413 2 is_stmt 1
	.loc 3 413 13 is_stmt 0
	sb	s3,1(a0)
	.loc 3 414 2 is_stmt 1
	.loc 3 414 11 is_stmt 0
	sb	s0,3(a0)
	.loc 3 416 2 is_stmt 1
	j	.L87
	.cfi_endproc
.LFE161:
	.size	l2cap_create_le_sig_pdu.isra.7, .-l2cap_create_le_sig_pdu.isra.7
	.section	.text.l2cap_chan_tx_give_credits,"ax",@progbits
	.align	1
	.type	l2cap_chan_tx_give_credits, @function
l2cap_chan_tx_give_credits:
.LFB116:
	.loc 3 748 1
	.cfi_startproc
.LVL89:
	.loc 3 749 2
	.loc 3 751 2
	.loc 3 748 1 is_stmt 0
	addi	sp,sp,-32
	.cfi_def_cfa_offset 32
	sw	s1,20(sp)
	.cfi_offset 9, -12
	.loc 3 751 8
	li	s1,65536
	.loc 3 748 1
	sw	s0,24(sp)
	sw	s2,16(sp)
	sw	ra,28(sp)
	.cfi_offset 8, -8
	.cfi_offset 18, -16
	.cfi_offset 1, -4
	.loc 3 748 1
	mv	s0,a0
	.loc 3 751 8
	addi	s1,s1,-1
	.loc 3 752 3
	addi	s2,a0,92
.LVL90:
.L92:
	.loc 3 751 16
	addi	a1,a1,-1
.LVL91:
	slli	a1,a1,16
	srli	a1,a1,16
.LVL92:
	.loc 3 751 8
	bne	a1,s1,.L93
	.loc 3 755 2 is_stmt 1
	.loc 3 755 40 is_stmt 0
	addi	s1,s0,52
.LVL93:
.LBB146:
.LBB147:
	.file 4 "/b-l/bl_iot_sdk_new/components/network/ble/blestack/src/common/include/atomic.h"
	.loc 4 370 2 is_stmt 1
	.loc 4 371 2
	.loc 4 373 2
	.loc 4 373 8 is_stmt 0
	li	a1,1
.LVL94:
	mv	a0,s1
	call	atomic_or
.LVL95:
	.loc 4 375 2 is_stmt 1
	.loc 4 375 14 is_stmt 0
	andi	a0,a0,1
.LBE147:
.LBE146:
	.loc 3 755 5
	beq	a0,zero,.L91
	.loc 3 756 20 discriminator 1
	lw	a5,4(s0)
	lw	t1,24(a5)
	.loc 3 755 70 discriminator 1
	beq	t1,zero,.L91
	.loc 3 757 3 is_stmt 1
	mv	a0,s0
	.loc 3 759 1 is_stmt 0
	lw	s0,24(sp)
	.cfi_remember_state
	.cfi_restore 8
.LVL96:
	lw	ra,28(sp)
	.cfi_restore 1
	lw	s2,16(sp)
	.cfi_restore 18
	.loc 3 757 3
	mv	a1,s1
	.loc 3 759 1
	lw	s1,20(sp)
	.cfi_restore 9
	addi	sp,sp,32
	.cfi_def_cfa_offset 0
	.loc 3 757 3
	jr	t1
.LVL97:
.L93:
	.cfi_restore_state
	.loc 3 752 3
	mv	a0,s2
	sw	a1,12(sp)
	.loc 3 752 3 is_stmt 1
	call	k_sem_give
.LVL98:
	lw	a1,12(sp)
	j	.L92
.LVL99:
.L91:
	.loc 3 759 1 is_stmt 0
	lw	ra,28(sp)
	.cfi_restore 1
	lw	s0,24(sp)
	.cfi_restore 8
.LVL100:
	lw	s1,20(sp)
	.cfi_restore 9
.LVL101:
	lw	s2,16(sp)
	.cfi_restore 18
.LVL102:
	addi	sp,sp,32
	.cfi_def_cfa_offset 0
	jr	ra
	.cfi_endproc
.LFE116:
	.size	l2cap_chan_tx_give_credits, .-l2cap_chan_tx_give_credits
	.section	.text.l2cap_disconnected,"ax",@progbits
	.align	1
	.type	l2cap_disconnected, @function
l2cap_disconnected:
.LFB171:
	.cfi_startproc
	ret
	.cfi_endproc
.LFE171:
	.size	l2cap_disconnected, .-l2cap_disconnected
	.section	.text.bt_l2cap_chan_remove,"ax",@progbits
	.align	1
	.globl	bt_l2cap_chan_remove
	.type	bt_l2cap_chan_remove, @function
bt_l2cap_chan_remove:
.LFB90:
	.loc 3 152 1 is_stmt 1
	.cfi_startproc
.LVL103:
	.loc 3 153 2
	.loc 3 154 2
	.loc 3 156 2
	.loc 3 156 16 is_stmt 0
	lw	a5,64(a0)
.LVL104:
	.loc 1 221 2 is_stmt 1
	.loc 3 156 4 is_stmt 0
	beq	a5,zero,.L103
.LVL105:
	.loc 1 221 2 is_stmt 1 discriminator 1
	.loc 3 156 4 is_stmt 0 discriminator 1
	addi	a5,a5,-8
	li	a4,0
.LVL106:
.L105:
	.loc 3 156 2 discriminator 14
	bne	a5,zero,.L107
.LVL107:
.L103:
	.loc 3 164 1
	ret
.LVL108:
.L107:
	.loc 3 157 3 is_stmt 1
	addi	a2,a5,8
	.loc 3 157 6 is_stmt 0
	bne	a5,a1,.L106
	.loc 3 158 4 is_stmt 1
	mv	a1,a4
.LVL109:
	addi	a0,a0,64
.LVL110:
	tail	sys_slist_remove
.LVL111:
.L106:
	.loc 3 162 3
.LBB148:
.LBB149:
	.loc 1 259 2
	.loc 1 259 16 is_stmt 0
	lw	a5,8(a5)
.LVL112:
.LBE149:
.LBE148:
	.loc 1 247 2 is_stmt 1
	.loc 3 156 4 is_stmt 0
	beq	a5,zero,.L103
.LVL113:
	.loc 1 259 2 is_stmt 1
	.loc 1 247 2
	.loc 3 156 4 is_stmt 0
	addi	a5,a5,-8
	mv	a4,a2
	j	.L105
	.cfi_endproc
.LFE90:
	.size	bt_l2cap_chan_remove, .-bt_l2cap_chan_remove
	.section	.text.bt_l2cap_chan_state_str,"ax",@progbits
	.align	1
	.globl	bt_l2cap_chan_state_str
	.type	bt_l2cap_chan_state_str, @function
bt_l2cap_chan_state_str:
.LFB91:
	.loc 3 167 1 is_stmt 1
	.cfi_startproc
.LVL114:
	.loc 3 168 2
	li	a5,4
	bgtu	a0,a5,.L116
	slli	a5,a0,2
	lui	a0,%hi(.LANCHOR4)
.LVL115:
	addi	a0,a0,%lo(.LANCHOR4)
	add	a0,a0,a5
	lw	a0,0(a0)
	ret
.LVL116:
.L116:
	.loc 3 167 1 is_stmt 0
	lui	a0,%hi(.LC2)
.LVL117:
	addi	a0,a0,%lo(.LC2)
	.loc 3 182 1
	ret
	.cfi_endproc
.LFE91:
	.size	bt_l2cap_chan_state_str, .-bt_l2cap_chan_state_str
	.section	.text.bt_l2cap_chan_set_state,"ax",@progbits
	.align	1
	.globl	bt_l2cap_chan_set_state
	.type	bt_l2cap_chan_set_state, @function
bt_l2cap_chan_set_state:
.LFB92:
	.loc 3 231 1 is_stmt 1
	.cfi_startproc
.LVL118:
	.loc 3 232 2
	.loc 3 232 14 is_stmt 0
	sb	a1,56(a0)
	.loc 3 233 1
	ret
	.cfi_endproc
.LFE92:
	.size	bt_l2cap_chan_set_state, .-bt_l2cap_chan_set_state
	.section	.text.bt_l2cap_chan_del,"ax",@progbits
	.align	1
	.globl	bt_l2cap_chan_del
	.type	bt_l2cap_chan_del, @function
bt_l2cap_chan_del:
.LFB93:
	.loc 3 238 1 is_stmt 1
	.cfi_startproc
.LVL119:
	.loc 3 239 2
	.loc 3 241 2
	.loc 3 238 1 is_stmt 0
	addi	sp,sp,-16
	.cfi_def_cfa_offset 16
	sw	s0,8(sp)
	sw	ra,12(sp)
	.cfi_offset 8, -8
	.cfi_offset 1, -4
	.loc 3 241 5
	lw	a5,0(a0)
	.loc 3 238 1
	mv	s0,a0
	.loc 3 241 5
	beq	a5,zero,.L119
	.loc 3 245 2 is_stmt 1
	.loc 3 245 15 is_stmt 0
	lw	a5,4(a0)
	lw	a5,4(a5)
	.loc 3 245 5
	beq	a5,zero,.L120
	.loc 3 246 3 is_stmt 1
	jalr	a5
.LVL120:
.L120:
	.loc 3 249 2
	.loc 3 249 13 is_stmt 0
	sw	zero,0(s0)
.L119:
	.loc 3 254 2 is_stmt 1
.LVL121:
.LBB150:
.LBB151:
	.loc 3 232 2
.LBE151:
.LBE150:
	.loc 3 258 10 is_stmt 0
	lw	a5,12(s0)
.LBB153:
.LBB152:
	.loc 3 232 14
	sb	zero,56(s0)
.LVL122:
.LBE152:
.LBE153:
	.loc 3 255 2 is_stmt 1
	.loc 3 255 12 is_stmt 0
	sh	zero,58(s0)
	.loc 3 258 2 is_stmt 1
	.loc 3 258 5 is_stmt 0
	beq	a5,zero,.L121
	.loc 3 259 3 is_stmt 1
	mv	a0,s0
	jalr	a5
.LVL123:
.L121:
	.loc 3 263 5
	.loc 3 263 7 is_stmt 0
	lw	a5,32(s0)
	beq	a5,zero,.L118
	.loc 3 264 8 is_stmt 1
	addi	a0,s0,16
	.loc 3 266 1 is_stmt 0
	lw	s0,8(sp)
	.cfi_remember_state
	.cfi_restore 8
.LVL124:
	lw	ra,12(sp)
	.cfi_restore 1
	addi	sp,sp,16
	.cfi_def_cfa_offset 0
	.loc 3 264 8
	tail	k_delayed_work_del_timer
.LVL125:
.L118:
	.cfi_restore_state
	.loc 3 266 1
	lw	ra,12(sp)
	.cfi_restore 1
	lw	s0,8(sp)
	.cfi_restore 8
.LVL126:
	addi	sp,sp,16
	.cfi_def_cfa_offset 0
	jr	ra
	.cfi_endproc
.LFE93:
	.size	bt_l2cap_chan_del, .-bt_l2cap_chan_del
	.section	.text.l2cap_rtx_timeout,"ax",@progbits
	.align	1
	.type	l2cap_rtx_timeout, @function
l2cap_rtx_timeout:
.LFB94:
	.loc 3 269 1 is_stmt 1
	.cfi_startproc
.LVL127:
	.loc 3 270 2
	.loc 3 272 2
	.loc 3 269 1 is_stmt 0
	addi	sp,sp,-16
	.cfi_def_cfa_offset 16
	sw	s0,8(sp)
	sw	s1,4(sp)
	.cfi_offset 8, -8
	.cfi_offset 9, -12
	.loc 3 270 27
	addi	s0,a0,-16
.LVL128:
	.loc 3 269 1
	mv	s1,a0
	.loc 3 272 2
	lui	a0,%hi(.LC3)
.LVL129:
	mv	a1,s0
	addi	a0,a0,%lo(.LC3)
	.loc 3 269 1
	sw	ra,12(sp)
	.cfi_offset 1, -4
	.loc 3 272 2
	call	printf
.LVL130:
	.loc 3 274 2 is_stmt 1
	lw	a0,-16(s1)
	mv	a1,s0
	call	bt_l2cap_chan_remove
.LVL131:
	.loc 3 275 2
	mv	a0,s0
	.loc 3 276 1 is_stmt 0
	lw	s0,8(sp)
	.cfi_restore 8
.LVL132:
	lw	ra,12(sp)
	.cfi_restore 1
	lw	s1,4(sp)
	.cfi_restore 9
.LVL133:
	addi	sp,sp,16
	.cfi_def_cfa_offset 0
	.loc 3 275 2
	tail	bt_l2cap_chan_del
.LVL134:
	.cfi_endproc
.LFE94:
	.size	l2cap_rtx_timeout, .-l2cap_rtx_timeout
	.section	.text.bt_l2cap_chan_add,"ax",@progbits
	.align	1
	.globl	bt_l2cap_chan_add
	.type	bt_l2cap_chan_add, @function
bt_l2cap_chan_add:
.LFB96:
	.loc 3 297 1 is_stmt 1
	.cfi_startproc
.LVL135:
	.loc 3 299 2
.LBB156:
.LBB157:
	.loc 1 292 13 is_stmt 0
	sw	zero,8(a1)
	.loc 1 294 11
	lw	a4,68(a0)
.LBE157:
.LBE156:
	.loc 3 299 2
	addi	a5,a1,8
.LVL136:
.LBB160:
.LBB158:
	.loc 1 292 2 is_stmt 1
	.loc 1 294 2
	.loc 1 294 5 is_stmt 0
	bne	a4,zero,.L136
	.loc 1 295 3 is_stmt 1
	.loc 1 295 14 is_stmt 0
	sw	a5,68(a0)
	.loc 1 296 3 is_stmt 1
	.loc 1 296 14 is_stmt 0
	sw	a5,64(a0)
.L137:
.LVL137:
.LBE158:
.LBE160:
	.loc 3 300 2 is_stmt 1
	.loc 3 300 13 is_stmt 0
	sw	a0,0(a1)
	.loc 3 301 2 is_stmt 1
	.loc 3 301 16 is_stmt 0
	sw	a2,12(a1)
	.loc 3 303 2 is_stmt 1
	.loc 3 304 1 is_stmt 0
	ret
.LVL138:
.L136:
.LBB161:
.LBB159:
	.loc 1 298 3 is_stmt 1
	.loc 1 298 20 is_stmt 0
	sw	a5,0(a4)
	.loc 1 299 3 is_stmt 1
	.loc 1 299 14 is_stmt 0
	sw	a5,68(a0)
	j	.L137
.LBE159:
.LBE161:
	.cfi_endproc
.LFE96:
	.size	bt_l2cap_chan_add, .-bt_l2cap_chan_add
	.section	.text.bt_l2cap_disconnected,"ax",@progbits
	.align	1
	.globl	bt_l2cap_disconnected
	.type	bt_l2cap_disconnected, @function
bt_l2cap_disconnected:
.LFB99:
	.loc 3 387 1 is_stmt 1
	.cfi_startproc
.LVL139:
	.loc 3 388 2
	.loc 3 390 2
	.loc 3 390 16 is_stmt 0
	lw	a5,64(a0)
.LVL140:
	.loc 1 221 2 is_stmt 1
	.loc 3 390 4 is_stmt 0
	beq	a5,zero,.L159
.LVL141:
	.loc 1 221 2 is_stmt 1 discriminator 1
	.loc 3 390 4 is_stmt 0 discriminator 1
	addi	a0,a5,-8
.LVL142:
	.loc 3 390 3 discriminator 1
	beq	a0,zero,.L159
.LVL143:
.LBB162:
.LBB163:
	.loc 1 259 2 is_stmt 1 discriminator 5
.LBE163:
.LBE162:
	.loc 3 387 1 is_stmt 0 discriminator 5
	addi	sp,sp,-16
	.cfi_def_cfa_offset 16
	sw	ra,12(sp)
	sw	s0,8(sp)
	.cfi_offset 1, -4
	.cfi_offset 8, -8
.LBB165:
.LBB164:
	.loc 1 259 16 discriminator 5
	lw	s0,0(a5)
.LVL144:
.LBE164:
.LBE165:
	.loc 1 247 2 is_stmt 1 discriminator 5
	.loc 3 390 4 is_stmt 0 discriminator 5
	beq	s0,zero,.L142
.LVL145:
	.loc 1 259 2 is_stmt 1
	.loc 1 247 2
	.loc 3 390 4 is_stmt 0
	addi	s0,s0,-8
.LVL146:
.L142:
	.loc 3 391 3 is_stmt 1 discriminator 23
	call	bt_l2cap_chan_del
.LVL147:
	.loc 3 390 3 is_stmt 0 discriminator 23
	beq	s0,zero,.L138
.LVL148:
.LBB166:
.LBB167:
	.loc 1 259 2 is_stmt 1 discriminator 14
	.loc 1 259 16 is_stmt 0 discriminator 14
	lw	a5,8(s0)
.LVL149:
.LBE167:
.LBE166:
	.loc 1 247 2 is_stmt 1 discriminator 14
	.loc 3 390 4 is_stmt 0 discriminator 14
	beq	a5,zero,.L141
.LVL150:
	.loc 1 259 2 is_stmt 1
	.loc 1 247 2
	.loc 3 390 4 is_stmt 0
	addi	a5,a5,-8
.L141:
.LVL151:
	.loc 3 387 1 discriminator 22
	mv	a0,s0
	mv	s0,a5
.LVL152:
	j	.L142
.LVL153:
.L138:
	.loc 3 393 1
	lw	ra,12(sp)
	.cfi_restore 1
	lw	s0,8(sp)
	.cfi_restore 8
.LVL154:
	addi	sp,sp,16
	.cfi_def_cfa_offset 0
	jr	ra
.LVL155:
.L159:
	ret
	.cfi_endproc
.LFE99:
	.size	bt_l2cap_disconnected, .-bt_l2cap_disconnected
	.section	.text.bt_l2cap_create_pdu_timeout,"ax",@progbits
	.align	1
	.globl	bt_l2cap_create_pdu_timeout
	.type	bt_l2cap_create_pdu_timeout, @function
bt_l2cap_create_pdu_timeout:
.LFB105:
	.loc 3 507 1 is_stmt 1
	.cfi_startproc
.LVL156:
	.loc 3 508 2
	.loc 3 508 9 is_stmt 0
	addi	a1,a1,4
.LVL157:
	tail	bt_conn_create_pdu_timeout
.LVL158:
	.cfi_endproc
.LFE105:
	.size	bt_l2cap_create_pdu_timeout, .-bt_l2cap_create_pdu_timeout
	.section	.text.bt_l2cap_send_cb,"ax",@progbits
	.align	1
	.globl	bt_l2cap_send_cb
	.type	bt_l2cap_send_cb, @function
bt_l2cap_send_cb:
.LFB106:
	.loc 3 515 1 is_stmt 1
	.cfi_startproc
.LVL159:
	.loc 3 516 2
	.loc 3 518 2
	.loc 3 520 2
	.loc 3 515 1 is_stmt 0
	addi	sp,sp,-32
	.cfi_def_cfa_offset 32
	sw	s1,20(sp)
	.cfi_offset 9, -12
	mv	s1,a2
	sw	s0,24(sp)
	sw	s2,16(sp)
	.cfi_offset 8, -8
	.cfi_offset 18, -16
	mv	s0,a1
	mv	s2,a0
	.loc 3 520 8
	li	a1,4
.LVL160:
	addi	a0,s1,8
.LVL161:
	.loc 3 515 1
	sw	ra,28(sp)
	.cfi_offset 1, -4
	.loc 3 515 1
	sw	a3,12(sp)
	sw	a4,8(sp)
	.loc 3 520 8
	call	net_buf_simple_push
.LVL162:
	.loc 3 521 2 is_stmt 1
	.loc 3 521 23 is_stmt 0
	lhu	a5,12(s1)
	.loc 3 522 11
	sb	s0,2(a0)
	srli	s0,s0,8
	.loc 3 521 23
	addi	a5,a5,-4
	.loc 3 521 11
	slli	a5,a5,16
	srli	a5,a5,16
	sb	a5,0(a0)
	srli	a5,a5,8
	sb	a5,1(a0)
	.loc 3 522 2 is_stmt 1
	.loc 3 522 11 is_stmt 0
	sb	s0,3(a0)
	.loc 3 524 2 is_stmt 1
	.loc 3 524 9 is_stmt 0
	lw	a4,8(sp)
	.loc 3 525 1
	lw	s0,24(sp)
	.cfi_restore 8
	.loc 3 524 9
	lw	a2,12(sp)
	.loc 3 525 1
	lw	ra,28(sp)
	.cfi_restore 1
	.loc 3 524 9
	mv	a1,s1
	mv	a0,s2
.LVL163:
	.loc 3 525 1
	lw	s1,20(sp)
	.cfi_restore 9
.LVL164:
	lw	s2,16(sp)
	.cfi_restore 18
.LVL165:
	.loc 3 524 9
	mv	a3,a4
	.loc 3 525 1
	addi	sp,sp,32
	.cfi_def_cfa_offset 0
.LVL166:
	.loc 3 524 9
	tail	bt_conn_send_cb
.LVL167:
	.cfi_endproc
.LFE106:
	.size	bt_l2cap_send_cb, .-bt_l2cap_send_cb
	.section	.text.bt_l2cap_send,"ax",@progbits
	.align	1
	.type	bt_l2cap_send, @function
bt_l2cap_send:
.LFB86:
	.file 5 "/b-l/bl_iot_sdk_new/components/network/ble/blestack/src/host/l2cap_internal.h"
	.loc 5 288 1 is_stmt 1
	.cfi_startproc
.LVL168:
	.loc 5 289 2
	li	a4,0
	li	a3,0
	tail	bt_l2cap_send_cb
.LVL169:
	.cfi_endproc
.LFE86:
	.size	bt_l2cap_send, .-bt_l2cap_send
	.section	.text.l2cap_chan_send_credits.isra.10,"ax",@progbits
	.align	1
	.type	l2cap_chan_send_credits.isra.10, @function
l2cap_chan_send_credits.isra.10:
.LFB164:
	.loc 3 1492 13
	.cfi_startproc
.LVL170:
	.loc 3 1495 2
	.loc 3 1498 2
	.loc 3 1492 13 is_stmt 0
	addi	sp,sp,-48
	.cfi_def_cfa_offset 48
	sw	s2,32(sp)
	sw	ra,44(sp)
	sw	s0,40(sp)
	sw	s1,36(sp)
	sw	s3,28(sp)
	sw	s4,24(sp)
	.cfi_offset 18, -16
	.cfi_offset 1, -4
	.cfi_offset 8, -8
	.cfi_offset 9, -12
	.cfi_offset 19, -20
	.cfi_offset 20, -24
	lhu	s0,70(a0)
	.loc 3 1492 13
	mv	s2,a0
	bgeu	a1,s0,.L167
	mv	s0,a1
.L167:
	slli	s0,s0,16
	srli	s0,s0,16
.LVL171:
	.loc 3 1502 2 is_stmt 1
.LBB170:
.LBB171:
	.loc 3 764 2
	.loc 3 766 2
	.loc 3 766 8 is_stmt 0
	li	s3,65536
.LBE171:
.LBE170:
	.loc 3 1498 24
	mv	s1,s0
.LBB174:
.LBB172:
	.loc 3 766 8
	addi	s3,s3,-1
	.loc 3 767 3
	addi	s4,s2,72
.LVL172:
.L168:
	.loc 3 766 16
	addi	s1,s1,-1
.LVL173:
	slli	s1,s1,16
	srli	s1,s1,16
.LVL174:
	.loc 3 766 8
	bne	s1,s3,.L169
.LVL175:
.LBE172:
.LBE174:
	.loc 3 1504 2 is_stmt 1
	.loc 3 1504 8 is_stmt 0
	call	get_ident
.LVL176:
	li	a2,4
	mv	a1,a0
	li	a0,22
	call	l2cap_create_le_sig_pdu.isra.7
.LVL177:
	mv	a2,a0
.LVL178:
	.loc 3 1506 2 is_stmt 1
	.loc 3 1506 5 is_stmt 0
	beq	a0,zero,.L166
	.loc 3 1510 2 is_stmt 1
	.loc 3 1510 7 is_stmt 0
	li	a1,4
	addi	a0,a0,8
.LVL179:
	sw	a2,12(sp)
	call	net_buf_simple_add
.LVL180:
	.loc 3 1511 2 is_stmt 1
	.loc 3 1511 21 is_stmt 0
	lhu	a5,64(s2)
	.loc 3 1512 14
	sb	s0,2(a0)
	srli	s0,s0,8
	.loc 3 1511 10
	sb	a5,0(a0)
	srli	a5,a5,8
	sb	a5,1(a0)
	.loc 3 1512 2 is_stmt 1
	.loc 3 1512 14 is_stmt 0
	sb	s0,3(a0)
	.loc 3 1514 2 is_stmt 1
	.loc 3 1517 1 is_stmt 0
	lw	s0,40(sp)
	.cfi_remember_state
	.cfi_restore 8
	.loc 3 1514 2
	lw	a2,12(sp)
	lw	a0,0(s2)
.LVL181:
	.loc 3 1517 1
	lw	ra,44(sp)
	.cfi_restore 1
	lw	s1,36(sp)
	.cfi_restore 9
	lw	s2,32(sp)
	.cfi_restore 18
.LVL182:
	lw	s3,28(sp)
	.cfi_restore 19
	lw	s4,24(sp)
	.cfi_restore 20
.LVL183:
	.loc 3 1514 2
	li	a1,5
	.loc 3 1517 1
	addi	sp,sp,48
	.cfi_def_cfa_offset 0
.LVL184:
	.loc 3 1514 2
	tail	bt_l2cap_send
.LVL185:
.L169:
	.cfi_restore_state
.LBB175:
.LBB173:
	.loc 3 767 3 is_stmt 1
	mv	a0,s4
	call	k_sem_give
.LVL186:
	j	.L168
.LVL187:
.L166:
.LBE173:
.LBE175:
	.loc 3 1517 1 is_stmt 0
	lw	ra,44(sp)
	.cfi_restore 1
	lw	s0,40(sp)
	.cfi_restore 8
	lw	s1,36(sp)
	.cfi_restore 9
	lw	s2,32(sp)
	.cfi_restore 18
.LVL188:
	lw	s3,28(sp)
	.cfi_restore 19
	lw	s4,24(sp)
	.cfi_restore 20
.LVL189:
	addi	sp,sp,48
	.cfi_def_cfa_offset 0
	jr	ra
	.cfi_endproc
.LFE164:
	.size	l2cap_chan_send_credits.isra.10, .-l2cap_chan_send_credits.isra.10
	.section	.text.l2cap_le_conn_req,"ax",@progbits
	.align	1
	.type	l2cap_le_conn_req, @function
l2cap_le_conn_req:
.LFB102:
	.loc 3 442 1 is_stmt 1
	.cfi_startproc
.LVL190:
	.loc 3 443 2
	.loc 3 444 2
	.loc 3 446 2
	.loc 3 442 1 is_stmt 0
	addi	sp,sp,-32
	.cfi_def_cfa_offset 32
	sw	s0,24(sp)
	sw	ra,28(sp)
	.cfi_offset 8, -8
	.cfi_offset 1, -4
	.loc 3 442 1
	mv	s0,a0
	.loc 3 446 19
	call	get_ident
.LVL191:
	mv	a1,a0
	.loc 3 446 17
	sb	a0,60(s0)
	.loc 3 448 2 is_stmt 1
	.loc 3 448 8 is_stmt 0
	li	a2,10
	li	a0,20
	call	l2cap_create_le_sig_pdu.isra.7
.LVL192:
	.loc 3 450 2 is_stmt 1
	.loc 3 450 5 is_stmt 0
	beq	a0,zero,.L174
	mv	a2,a0
	.loc 3 454 2 is_stmt 1
	.loc 3 454 8 is_stmt 0
	li	a1,10
	addi	a0,a0,8
.LVL193:
	sw	a2,12(sp)
	call	net_buf_simple_add
.LVL194:
	.loc 3 455 2 is_stmt 1
	.loc 3 455 22 is_stmt 0
	lhu	a5,58(s0)
.LBB178:
.LBB179:
	.loc 3 433 3
	li	a1,40960
	addi	a1,a1,-960
.LBE179:
.LBE178:
	.loc 3 455 11
	sb	a5,0(a0)
	srli	a5,a5,8
	sb	a5,1(a0)
	.loc 3 456 2 is_stmt 1
	.loc 3 456 21 is_stmt 0
	lhu	a5,64(s0)
	.loc 3 456 12
	sb	a5,2(a0)
	srli	a5,a5,8
	sb	a5,3(a0)
	.loc 3 457 2 is_stmt 1
	.loc 3 457 20 is_stmt 0
	lhu	a5,66(s0)
	.loc 3 457 11
	sb	a5,4(a0)
	srli	a5,a5,8
	sb	a5,5(a0)
	.loc 3 458 2 is_stmt 1
	.loc 3 458 20 is_stmt 0
	lhu	a5,68(s0)
	.loc 3 458 11
	sb	a5,6(a0)
	srli	a5,a5,8
	sb	a5,7(a0)
	.loc 3 459 2 is_stmt 1
	.loc 3 459 24 is_stmt 0
	lhu	a5,70(s0)
	.loc 3 459 15
	sb	a5,8(a0)
	srli	a5,a5,8
	sb	a5,9(a0)
	.loc 3 461 2 is_stmt 1
.LVL195:
.LBB181:
.LBB180:
	.loc 3 432 2
	.loc 3 433 3
	addi	a0,s0,16
.LVL196:
	call	k_delayed_work_submit
.LVL197:
	.loc 3 438 2
	lw	a0,0(s0)
	lw	a2,12(sp)
	li	a1,5
	call	bt_l2cap_send
.LVL198:
.LBE180:
.LBE181:
	.loc 3 463 9 is_stmt 0
	li	a0,0
.LVL199:
.L172:
	.loc 3 464 1
	lw	ra,28(sp)
	.cfi_remember_state
	.cfi_restore 1
	lw	s0,24(sp)
	.cfi_restore 8
.LVL200:
	addi	sp,sp,32
	.cfi_def_cfa_offset 0
	jr	ra
.LVL201:
.L174:
	.cfi_restore_state
	.loc 3 451 10
	li	a0,-12
.LVL202:
	j	.L172
	.cfi_endproc
.LFE102:
	.size	l2cap_le_conn_req, .-l2cap_le_conn_req
	.section	.text.bt_l2cap_encrypt_change,"ax",@progbits
	.align	1
	.globl	bt_l2cap_encrypt_change
	.type	bt_l2cap_encrypt_change, @function
bt_l2cap_encrypt_change:
.LFB104:
	.loc 3 485 1 is_stmt 1
	.cfi_startproc
.LVL203:
	.loc 3 486 2
	.loc 3 488 2
	.loc 3 494 2
	.loc 3 494 16 is_stmt 0
	lw	a5,64(a0)
.LVL204:
	.loc 1 221 2 is_stmt 1
	.loc 3 494 4 is_stmt 0
	bne	a5,zero,.L191
	ret
.LVL205:
.L183:
	.cfi_def_cfa_offset 16
	.cfi_offset 1, -4
	.cfi_offset 8, -8
	.cfi_offset 9, -12
	.cfi_offset 18, -16
	.loc 3 496 3 is_stmt 1
.LBB188:
.LBB189:
	.loc 3 469 2
	.loc 3 469 5 is_stmt 0
	lbu	a5,56(s0)
	bne	a5,s2,.L179
	.loc 3 469 38
	lbu	a5,60(s0)
	bne	a5,zero,.L179
	.loc 3 473 2 is_stmt 1
	.loc 3 473 5 is_stmt 0
	beq	s1,zero,.L180
	.loc 3 474 3 is_stmt 1
	lw	a0,0(s0)
	mv	a1,s0
	call	bt_l2cap_chan_remove
.LVL206:
	.loc 3 475 3
	mv	a0,s0
	call	bt_l2cap_chan_del
.LVL207:
	.loc 3 476 3
.L179:
.LBE189:
.LBE188:
	.loc 3 499 3
	.loc 3 499 16 is_stmt 0
	lw	a5,4(s0)
	lw	a5,8(a5)
	.loc 3 499 6
	beq	a5,zero,.L181
	.loc 3 500 4 is_stmt 1
	mv	a1,s1
	mv	a0,s0
	jalr	a5
.LVL208:
.L181:
.LBB191:
.LBB192:
	.loc 1 259 2
	.loc 1 259 16 is_stmt 0
	lw	s0,8(s0)
.LVL209:
.LBE192:
.LBE191:
	.loc 1 247 2 is_stmt 1
	.loc 3 494 4 is_stmt 0
	beq	s0,zero,.L176
.LVL210:
	.loc 1 259 2 is_stmt 1
	.loc 1 247 2
	.loc 3 494 4 is_stmt 0
	addi	s0,s0,-8
.LVL211:
.L178:
	.loc 3 494 2 discriminator 14
	bne	s0,zero,.L183
.LVL212:
.L176:
	.loc 3 503 1
	lw	ra,12(sp)
	.cfi_remember_state
	.cfi_restore 1
	lw	s0,8(sp)
	.cfi_restore 8
	lw	s1,4(sp)
	.cfi_restore 9
	lw	s2,0(sp)
	.cfi_restore 18
	addi	sp,sp,16
	.cfi_def_cfa_offset 0
	jr	ra
.LVL213:
.L180:
	.cfi_restore_state
.LBB193:
.LBB190:
	.loc 3 480 2 is_stmt 1
	mv	a0,s0
	call	l2cap_le_conn_req
.LVL214:
	j	.L179
.LVL215:
.L191:
	.cfi_def_cfa_offset 0
	.cfi_restore 1
	.cfi_restore 8
	.cfi_restore 9
	.cfi_restore 18
.LBE190:
.LBE193:
	.loc 3 485 1 is_stmt 0
	addi	sp,sp,-16
	.cfi_def_cfa_offset 16
	sw	s0,8(sp)
	sw	s1,4(sp)
	sw	s2,0(sp)
	sw	ra,12(sp)
	.cfi_offset 8, -8
	.cfi_offset 9, -12
	.cfi_offset 18, -16
	.cfi_offset 1, -4
	mv	s1,a1
	addi	s0,a5,-8
	li	s2,1
	j	.L178
	.cfi_endproc
.LFE104:
	.size	bt_l2cap_encrypt_change, .-bt_l2cap_encrypt_change
	.section	.text.l2cap_send_reject,"ax",@progbits
	.align	1
	.type	l2cap_send_reject, @function
l2cap_send_reject:
.LFB107:
	.loc 3 529 1 is_stmt 1
	.cfi_startproc
.LVL216:
	.loc 3 530 2
	.loc 3 531 2
	.loc 3 533 2
	.loc 3 529 1 is_stmt 0
	addi	sp,sp,-32
	.cfi_def_cfa_offset 32
	sw	s0,24(sp)
	sw	s5,4(sp)
	.cfi_offset 8, -8
	.cfi_offset 21, -28
	mv	s0,a2
	mv	s5,a0
	.loc 3 533 8
	addi	a2,a4,2
.LVL217:
	li	a0,1
.LVL218:
	.loc 3 529 1
	sw	s3,12(sp)
	sw	s4,8(sp)
	sw	ra,28(sp)
	sw	s1,20(sp)
	sw	s2,16(sp)
	.cfi_offset 19, -20
	.cfi_offset 20, -24
	.cfi_offset 1, -4
	.cfi_offset 9, -12
	.cfi_offset 18, -16
	.loc 3 529 1
	mv	s3,a3
	mv	s4,a4
	.loc 3 533 8
	call	l2cap_create_le_sig_pdu.isra.7
.LVL219:
	.loc 3 535 2 is_stmt 1
	.loc 3 535 5 is_stmt 0
	beq	a0,zero,.L195
	.loc 3 539 8
	addi	s2,a0,8
	mv	s1,a0
	.loc 3 539 2 is_stmt 1
	.loc 3 539 8 is_stmt 0
	li	a1,2
	mv	a0,s2
.LVL220:
	call	net_buf_simple_add
.LVL221:
	.loc 3 540 2 is_stmt 1
	.loc 3 540 14 is_stmt 0
	sb	s0,0(a0)
	srli	s0,s0,8
	sb	s0,1(a0)
	.loc 3 542 2 is_stmt 1
	.loc 3 542 5 is_stmt 0
	beq	s3,zero,.L197
	.loc 3 543 3 is_stmt 1
	mv	a2,s4
	mv	a1,s3
	mv	a0,s2
.LVL222:
	call	net_buf_simple_add_mem
.LVL223:
.L197:
	.loc 3 546 2
	.loc 3 547 1 is_stmt 0
	lw	s0,24(sp)
	.cfi_remember_state
	.cfi_restore 8
	lw	ra,28(sp)
	.cfi_restore 1
	lw	s2,16(sp)
	.cfi_restore 18
	lw	s3,12(sp)
	.cfi_restore 19
.LVL224:
	lw	s4,8(sp)
	.cfi_restore 20
	.loc 3 546 2
	mv	a2,s1
	mv	a0,s5
	.loc 3 547 1
	lw	s1,20(sp)
	.cfi_restore 9
.LVL225:
	lw	s5,4(sp)
	.cfi_restore 21
.LVL226:
	.loc 3 546 2
	li	a1,5
	.loc 3 547 1
	addi	sp,sp,32
	.cfi_def_cfa_offset 0
	.loc 3 546 2
	tail	bt_l2cap_send
.LVL227:
.L195:
	.cfi_restore_state
	.loc 3 547 1
	lw	ra,28(sp)
	.cfi_restore 1
	lw	s0,24(sp)
	.cfi_restore 8
	lw	s1,20(sp)
	.cfi_restore 9
	lw	s2,16(sp)
	.cfi_restore 18
	lw	s3,12(sp)
	.cfi_restore 19
.LVL228:
	lw	s4,8(sp)
	.cfi_restore 20
	lw	s5,4(sp)
	.cfi_restore 21
.LVL229:
	addi	sp,sp,32
	.cfi_def_cfa_offset 0
	jr	ra
	.cfi_endproc
.LFE107:
	.size	l2cap_send_reject, .-l2cap_send_reject
	.section	.text.l2cap_chan_le_send,"ax",@progbits
	.align	1
	.type	l2cap_chan_le_send, @function
l2cap_chan_le_send:
.LFB129:
	.loc 3 1213 1 is_stmt 1
	.cfi_startproc
.LVL230:
	.loc 3 1214 2
	.loc 3 1215 2
	.loc 3 1218 2
	.loc 3 1213 1 is_stmt 0
	addi	sp,sp,-32
	.cfi_def_cfa_offset 32
	sw	s6,0(sp)
	.cfi_offset 22, -32
	.loc 3 1218 6
	addi	s6,a0,92
	.loc 3 1213 1
	sw	s0,24(sp)
	sw	s2,16(sp)
	.cfi_offset 8, -8
	.cfi_offset 18, -16
	mv	s0,a1
	mv	s2,a0
	.loc 3 1218 6
	li	a1,0
.LVL231:
	mv	a0,s6
.LVL232:
	.loc 3 1213 1
	sw	s3,12(sp)
	sw	ra,28(sp)
	sw	s1,20(sp)
	sw	s4,8(sp)
	sw	s5,4(sp)
	.cfi_offset 19, -20
	.cfi_offset 1, -4
	.cfi_offset 9, -12
	.cfi_offset 20, -24
	.cfi_offset 21, -28
	.loc 3 1213 1
	mv	s3,a2
	.loc 3 1218 6
	call	k_sem_take
.LVL233:
	.loc 3 1218 5
	bne	a0,zero,.L218
	.loc 3 1223 2 is_stmt 1
.LVL234:
.LBB202:
.LBB203:
	.loc 3 1156 2
	.loc 3 1157 2
	.loc 3 1158 2
	.loc 3 1161 2
	.loc 3 1161 9 is_stmt 0
	lhu	a5,12(s0)
	.loc 3 1161 37
	lhu	a4,88(s2)
	.loc 3 1161 15
	add	a5,a5,s3
	.loc 3 1161 5
	bgtu	a5,a4,.L204
	.loc 3 1165 2 is_stmt 1
.LVL235:
	.loc 3 1170 2
	.loc 3 1170 6 is_stmt 0
	addi	s1,s0,8
	mv	a0,s1
	call	net_buf_simple_headroom
.LVL236:
	.loc 3 1165 11
	addi	a5,s3,9
	.loc 3 1170 41
	slli	a5,a5,16
	srli	a5,a5,16
	.loc 3 1170 5
	bltu	a0,a5,.L204
	.loc 3 1170 53
	lw	a5,0(s0)
	bne	a5,zero,.L204
	.loc 3 1171 3 is_stmt 1
	.loc 3 1171 6 is_stmt 0
	beq	s3,zero,.L205
	.loc 3 1173 4 is_stmt 1
	.loc 3 1173 40 is_stmt 0
	mv	a0,s0
	call	net_buf_frags_len
.LVL237:
	.loc 3 1173 4
	slli	a1,a0,16
	srli	a1,a1,16
	mv	a0,s1
	call	net_buf_simple_push_le16
.LVL238:
.L205:
	.loc 3 1175 3 is_stmt 1
	.loc 3 1175 10 is_stmt 0
	mv	a0,s0
	call	net_buf_ref
.LVL239:
	mv	s1,a0
.LVL240:
.LBE203:
.LBE202:
	.loc 3 1224 2 is_stmt 1
	.loc 3 1224 5 is_stmt 0
	bne	a0,zero,.L206
.LVL241:
.L209:
	.loc 3 1225 10
	li	s3,-12
.LVL242:
.L202:
	.loc 3 1260 1
	lw	ra,28(sp)
	.cfi_remember_state
	.cfi_restore 1
	lw	s0,24(sp)
	.cfi_restore 8
	mv	a0,s3
	lw	s1,20(sp)
	.cfi_restore 9
	lw	s2,16(sp)
	.cfi_restore 18
.LVL243:
	lw	s3,12(sp)
	.cfi_restore 19
	lw	s4,8(sp)
	.cfi_restore 20
	lw	s5,4(sp)
	.cfi_restore 21
	lw	s6,0(sp)
	.cfi_restore 22
.LVL244:
	addi	sp,sp,32
	.cfi_def_cfa_offset 0
	jr	ra
.LVL245:
.L204:
	.cfi_restore_state
.LDL1:
.LBB212:
.LBB210:
	.loc 3 1179 2 is_stmt 1
.LBB204:
.LBB205:
	.loc 3 1138 2
	.loc 3 1138 30 is_stmt 0
	lbu	a0,6(s0)
	call	net_buf_pool_get
.LVL246:
	.loc 3 1139 2 is_stmt 1
	.loc 3 1142 2
	.loc 3 1142 8 is_stmt 0
	li	a1,0
	call	net_buf_alloc_fixed
.LVL247:
	mv	s1,a0
.LVL248:
	.loc 3 1143 2 is_stmt 1
	.loc 3 1143 5 is_stmt 0
	beq	a0,zero,.L207
	.loc 3 1144 3 is_stmt 1
	li	a1,9
	addi	a0,a0,8
	call	net_buf_simple_reserve
.LVL249:
	.loc 3 1145 3
.LBE205:
.LBE204:
	.loc 3 1180 2
.L208:
	.loc 3 1184 2
	addi	s5,s1,8
	.loc 3 1184 5 is_stmt 0
	beq	s3,zero,.L210
	.loc 3 1185 3 is_stmt 1
	.loc 3 1185 38 is_stmt 0
	mv	a0,s0
	call	net_buf_frags_len
.LVL250:
	.loc 3 1185 3
	slli	a1,a0,16
	srli	a1,a1,16
	mv	a0,s5
	call	net_buf_simple_add_le16
.LVL251:
.L210:
	.loc 3 1189 2 is_stmt 1
	.loc 3 1189 11 is_stmt 0
	mv	a0,s5
	call	net_buf_simple_tailroom
.LVL252:
	.loc 3 1189 56
	lhu	a5,88(s2)
	.loc 3 1189 61
	sub	a5,a5,s3
	.loc 3 1189 6
	bgeu	a0,a5,.L211
	.loc 3 1189 80
	mv	a0,s5
	call	net_buf_simple_tailroom
.LVL253:
	.loc 3 1189 6
	slli	a0,a0,16
.L235:
	.loc 3 1191 6
	lhu	a1,12(s0)
	.loc 3 1189 6
	srli	a0,a0,16
.LVL254:
	.loc 3 1191 2 is_stmt 1
	.loc 3 1192 2
	.loc 3 1191 6 is_stmt 0
	bgeu	a0,a1,.L213
	mv	a1,a0
.L213:
	.loc 3 1192 2
	slli	s4,a1,16
	lw	a1,8(s0)
	srli	s4,s4,16
	mv	a2,s4
	mv	a0,s5
.LVL255:
	call	net_buf_simple_add_mem
.LVL256:
	.loc 3 1193 2 is_stmt 1
	mv	a1,s4
	addi	a0,s0,8
	call	net_buf_simple_pull
.LVL257:
	.loc 3 1195 2
	.loc 3 1197 2
.LBE210:
.LBE212:
	.loc 3 1224 2
.L206:
	.loc 3 1229 2
	.loc 3 1229 15 is_stmt 0
	lw	a0,0(s2)
	.loc 3 1229 5
	bne	a0,zero,.L214
	.loc 3 1230 3 is_stmt 1
	mv	a0,s0
	call	net_buf_unref
.LVL258:
	.loc 3 1231 3
	.loc 3 1231 10 is_stmt 0
	li	s3,-54
	j	.L202
.LVL259:
.L207:
.LBB213:
.LBB211:
.LBB209:
.LBB208:
	.loc 3 1149 2 is_stmt 1
.LBB206:
.LBB207:
	.loc 3 508 2
	.loc 3 508 9 is_stmt 0
	li	a2,-1
	li	a1,4
	call	bt_conn_create_pdu_timeout
.LVL260:
	mv	s1,a0
.LVL261:
.LBE207:
.LBE206:
.LBE208:
.LBE209:
	.loc 3 1180 2 is_stmt 1
	.loc 3 1180 5 is_stmt 0
	bne	a0,zero,.L208
	j	.L209
.L211:
	.loc 3 1189 6
	slli	a0,a5,16
	j	.L235
.LVL262:
.L214:
.LBE211:
.LBE213:
	.loc 3 1235 52 is_stmt 1
	.loc 3 1237 2
	.loc 3 1237 11 is_stmt 0
	lhu	a5,12(s1)
	lhu	a1,84(s2)
	.loc 3 1237 6
	sub	s3,a5,s3
.LVL263:
	.loc 3 1242 2 is_stmt 1
	.loc 3 1242 5 is_stmt 0
	beq	s0,s1,.L215
	.loc 3 1242 18 discriminator 2
	lhu	a5,12(s0)
	bne	a5,zero,.L216
.L215:
	.loc 3 1242 47 discriminator 3
	lw	a5,4(s2)
	.loc 3 1242 32 discriminator 3
	lw	a5,20(a5)
	beq	a5,zero,.L216
	.loc 3 1243 3 is_stmt 1
	lui	a3,%hi(l2cap_chan_sdu_sent)
	mv	a4,s2
	addi	a3,a3,%lo(l2cap_chan_sdu_sent)
	mv	a2,s1
	call	bt_l2cap_send_cb
.LVL264:
.L217:
	.loc 3 1252 2
	.loc 3 1252 7 is_stmt 0
	mv	a0,s6
	call	k_sem_count_get
.LVL265:
	.loc 3 1252 5
	bne	a0,zero,.L202
	.loc 3 1253 3 is_stmt 1
	.loc 3 1253 28 is_stmt 0
	addi	s0,s2,52
.LVL266:
.LBB214:
.LBB215:
	.loc 4 391 2 is_stmt 1
	.loc 4 393 2
	li	a1,-2
	mv	a0,s0
	call	atomic_and
.LVL267:
.LBE215:
.LBE214:
	.loc 3 1254 3
	.loc 3 1254 19 is_stmt 0
	lw	a5,4(s2)
	lw	a5,24(a5)
	.loc 3 1254 6
	beq	a5,zero,.L202
	.loc 3 1255 4 is_stmt 1
	mv	a1,s0
	mv	a0,s2
	jalr	a5
.LVL268:
	j	.L202
.LVL269:
.L216:
	.loc 3 1246 3
	mv	a2,s1
	call	bt_l2cap_send
.LVL270:
	j	.L217
.LVL271:
.L218:
	.loc 3 1220 10 is_stmt 0
	li	s3,-11
	j	.L202
	.cfi_endproc
.LFE129:
	.size	l2cap_chan_le_send, .-l2cap_chan_le_send
	.section	.text.l2cap_chan_le_send_sdu,"ax",@progbits
	.align	1
	.type	l2cap_chan_le_send_sdu, @function
l2cap_chan_le_send_sdu:
.LFB130:
	.loc 3 1264 1 is_stmt 1
	.cfi_startproc
.LVL272:
	.loc 3 1265 2
	.loc 3 1266 2
	.loc 3 1268 2
	.loc 3 1264 1 is_stmt 0
	addi	sp,sp,-48
	.cfi_def_cfa_offset 48
	sw	s1,36(sp)
	sw	s2,32(sp)
	sw	s3,28(sp)
	sw	s4,24(sp)
	sw	ra,44(sp)
	sw	s0,40(sp)
	.cfi_offset 9, -12
	.cfi_offset 18, -16
	.cfi_offset 19, -20
	.cfi_offset 20, -24
	.cfi_offset 1, -4
	.cfi_offset 8, -8
	.loc 3 1268 14
	lw	s0,0(a1)
	.loc 3 1264 1
	mv	s2,a0
	mv	s3,a1
	.loc 3 1268 14
	mv	a0,s0
.LVL273:
	.loc 3 1264 1
	sh	a2,14(sp)
	.loc 3 1268 14
	call	net_buf_frags_len
.LVL274:
	.loc 3 1268 38
	lhu	a5,14(sp)
	.loc 3 1270 24
	lhu	a4,86(s2)
	.loc 3 1271 10
	li	s1,-36
	.loc 3 1268 38
	add	s4,a5,a0
.LVL275:
	.loc 3 1270 2 is_stmt 1
	.loc 3 1270 5 is_stmt 0
	blt	a4,s4,.L236
	.loc 3 1274 2 is_stmt 1
.LVL276:
	.loc 3 1275 2
	.loc 3 1275 5 is_stmt 0
	lhu	a4,12(s0)
	bne	a4,zero,.L238
	.loc 3 1275 24 discriminator 1
	lw	a4,0(s0)
	.loc 3 1275 17 discriminator 1
	beq	a4,zero,.L238
	.loc 3 1275 17
	mv	s0,a4
.LVL277:
.L238:
	.loc 3 1279 2 is_stmt 1
	.loc 3 1279 5 is_stmt 0
	bne	a5,zero,.L239
	.loc 3 1281 3 is_stmt 1
	.loc 3 1281 9 is_stmt 0
	li	a2,2
	mv	a1,s0
	mv	a0,s2
	call	l2cap_chan_le_send
.LVL278:
	mv	s1,a0
.LVL279:
	.loc 3 1282 3 is_stmt 1
	.loc 3 1282 6 is_stmt 0
	bge	a0,zero,.L240
.L254:
	.loc 3 1303 4 is_stmt 1
	.loc 3 1303 7 is_stmt 0
	li	a5,-11
	bne	s1,a5,.L245
	.loc 3 1305 5 is_stmt 1
.LVL280:
.LBB216:
.LBB217:
	.loc 2 1063 2
.LBE217:
.LBE216:
	.loc 3 1305 5 is_stmt 0
	li	a2,2
	addi	a1,sp,14
	addi	a0,s0,20
	call	memcpy
.LVL281:
.L245:
	.loc 3 1308 4 is_stmt 1
	.loc 3 1308 9 is_stmt 0
	sw	s0,0(s3)
	.loc 3 1309 4 is_stmt 1
.LVL282:
.L236:
	.loc 3 1319 1 is_stmt 0
	lw	ra,44(sp)
	.cfi_remember_state
	.cfi_restore 1
	lw	s0,40(sp)
	.cfi_restore 8
	mv	a0,s1
	lw	s2,32(sp)
	.cfi_restore 18
.LVL283:
	lw	s1,36(sp)
	.cfi_restore 9
	lw	s3,28(sp)
	.cfi_restore 19
.LVL284:
	lw	s4,24(sp)
	.cfi_restore 20
.LVL285:
	addi	sp,sp,48
	.cfi_def_cfa_offset 0
	jr	ra
.LVL286:
.L240:
	.cfi_restore_state
	.loc 3 1291 3 is_stmt 1
	.loc 3 1291 8 is_stmt 0
	sh	a0,14(sp)
.LVL287:
.L239:
	.loc 3 1275 17 discriminator 1
	li	s1,0
.L242:
.LVL288:
	.loc 3 1295 21 discriminator 1
	lhu	a5,14(sp)
	.loc 3 1295 2 discriminator 1
	blt	a5,s4,.L246
	.loc 3 1314 19 is_stmt 1
	.loc 3 1316 2
	mv	a0,s0
	call	net_buf_unref
.LVL289:
	.loc 3 1318 2
	.loc 3 1318 9 is_stmt 0
	j	.L236
.L246:
	.loc 3 1297 3 is_stmt 1
	.loc 3 1297 6 is_stmt 0
	lhu	a5,12(s0)
	bne	a5,zero,.L243
	.loc 3 1298 4 is_stmt 1
	.loc 3 1298 11 is_stmt 0
	mv	a1,s0
	li	a0,0
	call	net_buf_frag_del
.LVL290:
	mv	s0,a0
.LVL291:
.L243:
	.loc 3 1301 3 is_stmt 1
	.loc 3 1301 9 is_stmt 0
	li	a2,0
	mv	a1,s0
	mv	a0,s2
	call	l2cap_chan_le_send
.LVL292:
	mv	s1,a0
.LVL293:
	.loc 3 1302 3 is_stmt 1
	.loc 3 1302 6 is_stmt 0
	blt	a0,zero,.L254
	.loc 3 1295 39 discriminator 2
	lhu	a5,14(sp)
	add	a5,a0,a5
	sh	a5,14(sp)
	j	.L242
	.cfi_endproc
.LFE130:
	.size	l2cap_chan_le_send_sdu, .-l2cap_chan_le_send_sdu
	.section	.text.bt_l2cap_le_lookup_tx_cid,"ax",@progbits
	.align	1
	.globl	bt_l2cap_le_lookup_tx_cid
	.type	bt_l2cap_le_lookup_tx_cid, @function
bt_l2cap_le_lookup_tx_cid:
.LFB110:
	.loc 3 614 1 is_stmt 1
	.cfi_startproc
.LVL294:
	.loc 3 615 2
	.loc 3 617 2
	.loc 3 617 16 is_stmt 0
	lw	a0,64(a0)
.LVL295:
	.loc 1 221 2 is_stmt 1
.L267:
	.loc 1 247 2 discriminator 6
	.loc 3 617 4 is_stmt 0 discriminator 6
	beq	a0,zero,.L255
.LVL296:
	.loc 1 259 2 is_stmt 1
	.loc 1 247 2
	.loc 3 617 4 is_stmt 0
	addi	a0,a0,-8
.LVL297:
	.loc 3 617 2
	bne	a0,zero,.L258
.LVL298:
.L255:
	.loc 3 624 1
	ret
.LVL299:
.L258:
	.loc 3 618 3 is_stmt 1
	.loc 3 618 6 is_stmt 0
	lhu	a5,84(a0)
	beq	a5,a1,.L255
.LVL300:
.LBB218:
.LBB219:
	.loc 1 259 2 is_stmt 1 discriminator 6
	.loc 1 259 16 is_stmt 0 discriminator 6
	lw	a0,8(a0)
.LVL301:
	j	.L267
.LBE219:
.LBE218:
	.cfi_endproc
.LFE110:
	.size	bt_l2cap_le_lookup_tx_cid, .-bt_l2cap_le_lookup_tx_cid
	.section	.text.bt_l2cap_le_lookup_rx_cid,"ax",@progbits
	.align	1
	.globl	bt_l2cap_le_lookup_rx_cid
	.type	bt_l2cap_le_lookup_rx_cid, @function
bt_l2cap_le_lookup_rx_cid:
.LFB111:
	.loc 3 628 1 is_stmt 1
	.cfi_startproc
.LVL302:
	.loc 3 629 2
	.loc 3 631 2
	.loc 3 631 16 is_stmt 0
	lw	a0,64(a0)
.LVL303:
	.loc 1 221 2 is_stmt 1
.L280:
	.loc 1 247 2 discriminator 6
	.loc 3 631 4 is_stmt 0 discriminator 6
	beq	a0,zero,.L268
.LVL304:
	.loc 1 259 2 is_stmt 1
	.loc 1 247 2
	.loc 3 631 4 is_stmt 0
	addi	a0,a0,-8
.LVL305:
	.loc 3 631 2
	bne	a0,zero,.L271
.LVL306:
.L268:
	.loc 3 638 1
	ret
.LVL307:
.L271:
	.loc 3 632 3 is_stmt 1
	.loc 3 632 6 is_stmt 0
	lhu	a5,64(a0)
	beq	a5,a1,.L268
.LVL308:
.LBB220:
.LBB221:
	.loc 1 259 2 is_stmt 1 discriminator 6
	.loc 1 259 16 is_stmt 0 discriminator 6
	lw	a0,8(a0)
.LVL309:
	j	.L280
.LBE221:
.LBE220:
	.cfi_endproc
.LFE111:
	.size	bt_l2cap_le_lookup_rx_cid, .-bt_l2cap_le_lookup_rx_cid
	.section	.text.l2cap_chan_add,"ax",@progbits
	.align	1
	.type	l2cap_chan_add, @function
l2cap_chan_add:
.LFB97:
	.loc 3 308 1 is_stmt 1
	.cfi_startproc
.LVL310:
	.loc 3 309 2
	.loc 3 312 2
	.loc 3 308 1 is_stmt 0
	addi	sp,sp,-32
	.cfi_def_cfa_offset 32
	sw	s0,24(sp)
	sw	s2,16(sp)
	sw	s3,12(sp)
	sw	ra,28(sp)
	sw	s1,20(sp)
	sw	s4,8(sp)
	.cfi_offset 8, -8
	.cfi_offset 18, -16
	.cfi_offset 19, -20
	.cfi_offset 1, -4
	.cfi_offset 9, -12
	.cfi_offset 20, -24
	.loc 3 308 1
	mv	s2,a0
.LVL311:
.LBB230:
.LBB231:
	.loc 3 108 2 is_stmt 1
	.loc 3 109 2
	.loc 3 115 2
.LBE231:
.LBE230:
	.loc 3 308 1 is_stmt 0
	mv	s0,a1
	mv	s3,a2
.LBB234:
.LBB232:
	.loc 3 115 5
	beq	a1,zero,.L291
	.loc 3 115 9
	lhu	a5,64(a1)
	bne	a5,zero,.L283
.L291:
	.loc 3 115 5
	li	s1,64
	.loc 3 119 2
	li	s4,128
.LVL312:
.L285:
	.loc 3 120 3 is_stmt 1
	.loc 3 120 6 is_stmt 0
	beq	s0,zero,.L284
	.loc 3 120 14
	mv	a1,s1
	mv	a0,s2
	call	bt_l2cap_le_lookup_rx_cid
.LVL313:
	.loc 3 120 10
	bne	a0,zero,.L284
	.loc 3 121 4 is_stmt 1
	.loc 3 121 15 is_stmt 0
	sh	s1,64(s0)
	.loc 3 122 4 is_stmt 1
.LVL314:
.L283:
.LBE232:
.LBE234:
	.loc 3 317 2
	.loc 3 322 2
	lui	a1,%hi(l2cap_rtx_timeout)
	addi	a1,a1,%lo(l2cap_rtx_timeout)
	addi	a0,s0,16
	call	k_delayed_work_init
.LVL315:
	.loc 3 324 2
.LBB235:
.LBB236:
	.loc 3 299 2
.LBB237:
.LBB238:
	.loc 1 292 13 is_stmt 0
	sw	zero,8(s0)
	.loc 1 294 11
	lw	a4,68(s2)
.LBE238:
.LBE237:
	.loc 3 299 2
	addi	a5,s0,8
.LVL316:
.LBB241:
.LBB239:
	.loc 1 292 2 is_stmt 1
	.loc 1 294 2
	.loc 1 294 5 is_stmt 0
	bne	a4,zero,.L299
	.loc 1 295 3 is_stmt 1
	.loc 1 295 14 is_stmt 0
	sw	a5,68(s2)
	.loc 1 296 3 is_stmt 1
	.loc 1 296 14 is_stmt 0
	sw	a5,64(s2)
.L287:
.LVL317:
.LBE239:
.LBE241:
	.loc 3 300 2 is_stmt 1
.LBE236:
.LBE235:
	.loc 3 327 28 is_stmt 0
	lhu	a5,64(s0)
.LBB245:
.LBB243:
	.loc 3 300 13
	sw	s2,0(s0)
	.loc 3 301 2 is_stmt 1
	.loc 3 301 16 is_stmt 0
	sw	s3,12(s0)
	.loc 3 303 2 is_stmt 1
.LVL318:
.LBE243:
.LBE245:
	.loc 3 327 2
	.loc 3 327 28 is_stmt 0
	addi	a5,a5,-64
	.loc 3 327 5
	slli	a5,a5,16
	srli	a5,a5,16
	li	a4,63
	.loc 3 334 8
	li	s1,1
	.loc 3 327 5
	bgtu	a5,a4,.L295
	.loc 3 328 3 is_stmt 1
	lui	a1,%hi(l2cap_rx_process)
	addi	a1,a1,%lo(l2cap_rx_process)
	addi	a0,s0,128
	call	k_work_init
.LVL319:
	.loc 3 329 3
	li	a1,20
	addi	a0,s0,140
	call	k_queue_init
.LVL320:
	.loc 3 330 3
.LBB246:
.LBB247:
	.loc 3 232 2
	.loc 3 232 14 is_stmt 0
	sb	s1,56(s0)
.LVL321:
.L295:
.LBE247:
.LBE246:
	.loc 3 335 1
	lw	ra,28(sp)
	.cfi_remember_state
	.cfi_restore 1
	lw	s0,24(sp)
	.cfi_restore 8
.LVL322:
	mv	a0,s1
	lw	s2,16(sp)
	.cfi_restore 18
.LVL323:
	lw	s1,20(sp)
	.cfi_restore 9
	lw	s3,12(sp)
	.cfi_restore 19
.LVL324:
	lw	s4,8(sp)
	.cfi_restore 20
	addi	sp,sp,32
	.cfi_def_cfa_offset 0
	jr	ra
.LVL325:
.L284:
	.cfi_restore_state
.LBB248:
.LBB233:
	.loc 3 119 39
	addi	s1,s1,1
.LVL326:
	slli	s1,s1,16
	srli	s1,s1,16
.LVL327:
	.loc 3 119 2
	bne	s1,s4,.L285
.LVL328:
.LBE233:
.LBE248:
	.loc 3 317 2 is_stmt 1
	.loc 3 318 3
	lui	a0,%hi(.LC4)
	addi	a0,a0,%lo(.LC4)
	call	printf
.LVL329:
	.loc 3 319 3
	.loc 3 319 9 is_stmt 0
	li	s1,0
	j	.L295
.LVL330:
.L299:
.LBB249:
.LBB244:
.LBB242:
.LBB240:
	.loc 1 298 3 is_stmt 1
	.loc 1 298 20 is_stmt 0
	sw	a5,0(a4)
	.loc 1 299 3 is_stmt 1
	.loc 1 299 14 is_stmt 0
	sw	a5,68(s2)
	j	.L287
.LBE240:
.LBE242:
.LBE244:
.LBE249:
	.cfi_endproc
.LFE97:
	.size	l2cap_chan_add, .-l2cap_chan_add
	.section	.text.bt_l2cap_connected,"ax",@progbits
	.align	1
	.globl	bt_l2cap_connected
	.type	bt_l2cap_connected, @function
bt_l2cap_connected:
.LFB98:
	.loc 3 338 1 is_stmt 1
	.cfi_startproc
.LVL331:
	.loc 3 342 2
	.loc 3 344 2
	.loc 3 353 5
	.loc 3 353 74
	.loc 3 353 141
.LBB254:
	.loc 3 353 146
.LBE254:
	.loc 3 338 1 is_stmt 0
	addi	sp,sp,-32
	.cfi_def_cfa_offset 32
	sw	s0,24(sp)
	sw	s1,20(sp)
	.cfi_offset 8, -8
	.cfi_offset 9, -12
.LBB258:
	.loc 3 353 174
	lui	s0,%hi(_bt_l2cap_fixed_chan_list_start)
	.loc 3 353 141
	lui	s1,%hi(_bt_l2cap_fixed_chan_list_end)
.LBE258:
	.loc 3 338 1
	sw	s2,16(sp)
	sw	ra,28(sp)
	.cfi_offset 18, -16
	.cfi_offset 1, -4
	.loc 3 338 1
	mv	s2,a0
.LBB259:
	.loc 3 353 174
	addi	s0,s0,%lo(_bt_l2cap_fixed_chan_list_start)
	.loc 3 353 141
	addi	s1,s1,%lo(_bt_l2cap_fixed_chan_list_end)
.LVL332:
.L302:
.LBE259:
	.loc 3 353 218 is_stmt 1 discriminator 1
	.loc 3 353 223 discriminator 1
	.loc 3 353 238 discriminator 1
.LBB260:
	.loc 3 353 141 is_stmt 0 discriminator 1
	bltu	s0,s1,.L308
.L301:
.LBE260:
	.loc 3 384 1
	lw	ra,28(sp)
	.cfi_remember_state
	.cfi_restore 1
	lw	s0,24(sp)
	.cfi_restore 8
.LVL333:
	lw	s1,20(sp)
	.cfi_restore 9
	lw	s2,16(sp)
	.cfi_restore 18
.LVL334:
	addi	sp,sp,32
	.cfi_def_cfa_offset 0
	jr	ra
.LVL335:
.L308:
	.cfi_restore_state
.LBB261:
.LBB255:
	.loc 3 355 3 is_stmt 1
	.loc 3 357 3
	.loc 3 357 7 is_stmt 0
	lw	a5,4(s0)
	addi	a1,sp,12
	mv	a0,s2
	jalr	a5
.LVL336:
	.loc 3 357 6
	blt	a0,zero,.L304
	.loc 3 361 3 is_stmt 1
	.loc 3 361 6 is_stmt 0
	lw	a1,12(sp)
.LVL337:
	.loc 3 366 3 is_stmt 1
	.loc 3 366 21 is_stmt 0
	lhu	a5,0(s0)
	.loc 3 369 8
	li	a2,0
	mv	a0,s2
	.loc 3 366 14
	sh	a5,64(a1)
	.loc 3 367 3 is_stmt 1
	.loc 3 367 14 is_stmt 0
	sh	a5,84(a1)
	.loc 3 369 3 is_stmt 1
	.loc 3 369 8 is_stmt 0
	call	l2cap_chan_add
.LVL338:
	.loc 3 369 6
	beq	a0,zero,.L301
	.loc 3 373 3 is_stmt 1
	.loc 3 373 11 is_stmt 0
	lw	a0,12(sp)
	.loc 3 373 16
	lw	a5,4(a0)
	lw	a5,0(a5)
	.loc 3 373 6
	beq	a5,zero,.L306
	.loc 3 374 4 is_stmt 1
	jalr	a5
.LVL339:
.L306:
	.loc 3 378 3
.LBB256:
.LBB257:
	.loc 4 409 2
	.loc 4 411 2
	lw	a0,12(sp)
	li	a1,1
	addi	a0,a0,52
.LVL340:
	call	atomic_or
.LVL341:
.LBE257:
.LBE256:
	.loc 3 380 3
	.loc 3 380 11 is_stmt 0
	lw	a0,12(sp)
	.loc 3 380 16
	lw	a5,4(a0)
	lw	a5,24(a5)
	.loc 3 380 6
	beq	a5,zero,.L304
	.loc 3 381 4 is_stmt 1
	addi	a1,a0,52
	jalr	a5
.LVL342:
.L304:
.LBE255:
	.loc 3 353 286 is_stmt 0 discriminator 2
	addi	s0,s0,12
.LVL343:
	j	.L302
.LBE261:
	.cfi_endproc
.LFE98:
	.size	bt_l2cap_connected, .-bt_l2cap_connected
	.section	.text.bt_l2cap_server_register,"ax",@progbits
	.align	1
	.globl	bt_l2cap_server_register
	.type	bt_l2cap_server_register, @function
bt_l2cap_server_register:
.LFB113:
	.loc 3 655 1 is_stmt 1
	.cfi_startproc
.LVL344:
	.loc 3 656 2
	.loc 3 656 5 is_stmt 0
	lw	a5,4(a0)
	bne	a5,zero,.L318
	.loc 3 657 10
	li	a5,-22
	.loc 3 702 1
	mv	a0,a5
.LVL345:
	ret
.LVL346:
.L321:
	.cfi_def_cfa_offset 16
	.cfi_offset 1, -4
	.cfi_offset 8, -8
	.cfi_offset 9, -12
	.cfi_offset 18, -16
	.loc 3 657 10
	li	a5,-22
.L317:
	.loc 3 702 1
	lw	ra,12(sp)
	.cfi_restore 1
	lw	s0,8(sp)
	.cfi_restore 8
.LVL347:
	lw	s1,4(sp)
	.cfi_restore 9
	lw	s2,0(sp)
	.cfi_restore 18
	mv	a0,a5
	addi	sp,sp,16
	.cfi_def_cfa_offset 0
	jr	ra
.LVL348:
.L318:
	.loc 3 655 1
	addi	sp,sp,-16
	.cfi_def_cfa_offset 16
	sw	s0,8(sp)
	sw	ra,12(sp)
	sw	s1,4(sp)
	sw	s2,0(sp)
	.cfi_offset 8, -8
	.cfi_offset 1, -4
	.cfi_offset 9, -12
	.cfi_offset 18, -16
	mv	s0,a0
	.loc 3 660 2 is_stmt 1
	.loc 3 660 12 is_stmt 0
	lhu	a0,0(a0)
.LVL349:
	.loc 3 660 5
	beq	a0,zero,.L327
	.loc 3 661 3 is_stmt 1
	.loc 3 661 28 is_stmt 0
	addi	a5,a0,-1
	.loc 3 661 6
	slli	a5,a5,16
	srli	a5,a5,16
	li	a4,254
	bgtu	a5,a4,.L321
	.loc 3 667 3 is_stmt 1
	.loc 3 667 7 is_stmt 0
	call	l2cap_server_lookup_psm
.LVL350:
	.loc 3 669 11
	li	a5,-48
	.loc 3 667 6
	bne	a0,zero,.L317
.L322:
	.loc 3 690 2 is_stmt 1
	.loc 3 690 12 is_stmt 0
	lbu	a5,2(s0)
	.loc 3 690 5
	li	a4,4
	bgtu	a5,a4,.L321
	.loc 3 692 9 is_stmt 1
	.loc 3 692 12 is_stmt 0
	bne	a5,zero,.L325
	.loc 3 694 3 is_stmt 1
	.loc 3 694 21 is_stmt 0
	li	a5,1
	sb	a5,2(s0)
.L325:
	.loc 3 697 2 is_stmt 1
	.loc 3 699 2
.LBB265:
.LBB266:
	.loc 1 294 11 is_stmt 0
	lui	a5,%hi(.LANCHOR1)
	addi	a5,a5,%lo(.LANCHOR1)
	lw	a3,4(a5)
	.loc 1 292 13
	sw	zero,8(s0)
.LBE266:
.LBE265:
	.loc 3 699 2
	addi	a4,s0,8
.LVL351:
.LBB269:
.LBB267:
	.loc 1 292 2 is_stmt 1
	.loc 1 294 2
	.loc 1 294 5 is_stmt 0
	bne	a3,zero,.L326
	.loc 1 295 3 is_stmt 1
	.loc 1 295 14 is_stmt 0
	sw	a4,4(a5)
	.loc 1 296 3 is_stmt 1
	.loc 1 296 14 is_stmt 0
	sw	a4,0(a5)
.L334:
.LBE267:
.LBE269:
	.loc 3 701 9
	li	a5,0
	j	.L317
.LVL352:
.L327:
.LBB270:
	.loc 3 674 12
	li	s1,128
	.loc 3 674 3
	li	s2,256
.L320:
.LVL353:
	.loc 3 676 4 is_stmt 1
	.loc 3 676 9 is_stmt 0
	mv	a0,s1
	call	l2cap_server_lookup_psm
.LVL354:
	.loc 3 676 7
	beq	a0,zero,.L323
	.loc 3 675 26
	addi	s1,s1,1
.LVL355:
	slli	s1,s1,16
	srli	s1,s1,16
.LVL356:
	.loc 3 674 3
	bne	s1,s2,.L320
	.loc 3 681 3 is_stmt 1
	.loc 3 682 4
	lui	a0,%hi(.LC5)
	addi	a0,a0,%lo(.LC5)
	call	printf
.LVL357:
	.loc 3 683 4
	.loc 3 683 11 is_stmt 0
	li	a5,-49
	j	.L317
.LVL358:
.L326:
.LBE270:
.LBB271:
.LBB268:
	.loc 1 298 3 is_stmt 1
	.loc 1 298 20 is_stmt 0
	sw	a4,0(a3)
	.loc 1 299 3 is_stmt 1
	.loc 1 299 14 is_stmt 0
	sw	a4,4(a5)
	j	.L334
.LVL359:
.L323:
.LBE268:
.LBE271:
.LBB272:
	.loc 3 681 3 is_stmt 1
	.loc 3 686 3
	.loc 3 687 3
	.loc 3 687 15 is_stmt 0
	sh	s1,0(s0)
	j	.L322
.LBE272:
	.cfi_endproc
.LFE113:
	.size	bt_l2cap_server_register, .-bt_l2cap_server_register
	.section	.text.bt_l2cap_chan_recv_complete,"ax",@progbits
	.align	1
	.globl	bt_l2cap_chan_recv_complete
	.type	bt_l2cap_chan_recv_complete, @function
bt_l2cap_chan_recv_complete:
.LFB138:
	.loc 3 1536 1 is_stmt 1
	.cfi_startproc
.LVL360:
	.loc 3 1537 2
	.loc 3 1538 2
	.loc 3 1538 18 is_stmt 0
	lw	a5,0(a0)
.LVL361:
	.loc 3 1539 2 is_stmt 1
	.loc 3 1541 2
	.loc 3 1541 7
	.loc 3 1542 2
	.loc 3 1542 7
	.loc 3 1544 2
	.loc 3 1544 5 is_stmt 0
	beq	a5,zero,.L337
	.loc 3 1548 2 is_stmt 1
	.loc 3 1548 5 is_stmt 0
	lbu	a3,2(a5)
	li	a4,1
	.loc 3 1549 10
	li	a5,-35
.LVL362:
	.loc 3 1548 5
	bne	a3,a4,.L340
	.loc 3 1536 1
	addi	sp,sp,-32
	.cfi_def_cfa_offset 32
	sw	s0,24(sp)
.LVL363:
	sw	s1,20(sp)
	.cfi_offset 8, -8
	.cfi_offset 9, -12
	mv	s0,a1
	mv	s1,a0
	.loc 3 1552 2 is_stmt 1
	.loc 3 1555 2
.LVL364:
.LBB273:
.LBB274:
	.loc 2 1063 2
.LBE274:
.LBE273:
	.loc 3 1555 2 is_stmt 0
	li	a2,2
	addi	a1,a1,20
.LVL365:
	addi	a0,sp,14
.LVL366:
	.loc 3 1536 1
	sw	ra,28(sp)
	.cfi_offset 1, -4
	.loc 3 1555 2
	call	memcpy
.LVL367:
	.loc 3 1557 2 is_stmt 1
	lhu	a1,14(sp)
	mv	a0,s1
	call	l2cap_chan_send_credits.isra.10
.LVL368:
	.loc 3 1559 2
	mv	a0,s0
	call	net_buf_unref
.LVL369:
	.loc 3 1561 2
	.loc 3 1562 1 is_stmt 0
	lw	ra,28(sp)
	.cfi_restore 1
	lw	s0,24(sp)
	.cfi_restore 8
.LVL370:
	.loc 3 1561 9
	li	a5,0
	.loc 3 1562 1
	lw	s1,20(sp)
	.cfi_restore 9
.LVL371:
	mv	a0,a5
	addi	sp,sp,32
	.cfi_def_cfa_offset 0
	jr	ra
.LVL372:
.L337:
	.loc 3 1545 10
	li	a5,-57
.LVL373:
.L340:
	.loc 3 1562 1
	mv	a0,a5
.LVL374:
	ret
	.cfi_endproc
.LFE138:
	.size	bt_l2cap_chan_recv_complete, .-bt_l2cap_chan_recv_complete
	.section	.text.bt_l2cap_recv,"ax",@progbits
	.align	1
	.globl	bt_l2cap_recv
	.type	bt_l2cap_recv, @function
bt_l2cap_recv:
.LFB144:
	.loc 3 1725 1 is_stmt 1
	.cfi_startproc
.LVL375:
	.loc 3 1726 2
	.loc 3 1727 2
	.loc 3 1728 2
	.loc 3 1730 2
	.loc 3 1736 2
	.loc 3 1725 1 is_stmt 0
	addi	sp,sp,-16
	.cfi_def_cfa_offset 16
	sw	s0,8(sp)
	sw	ra,12(sp)
	sw	s1,4(sp)
	sw	s2,0(sp)
	.cfi_offset 8, -8
	.cfi_offset 1, -4
	.cfi_offset 9, -12
	.cfi_offset 18, -16
	.loc 3 1736 5
	lhu	a4,12(a1)
	li	a5,3
	.loc 3 1725 1
	mv	s0,a1
	.loc 3 1736 5
	bgtu	a4,a5,.L344
	.loc 3 1737 3 is_stmt 1
	lui	a0,%hi(.LC6)
.LVL376:
	addi	a0,a0,%lo(.LC6)
	call	printf
.LVL377:
	.loc 3 1738 3
.L348:
.LBB277:
.LBB278:
	.loc 3 1721 2
	mv	a0,s0
.LBE278:
.LBE277:
	.loc 3 1755 1 is_stmt 0
	lw	s0,8(sp)
	.cfi_remember_state
	.cfi_restore 8
.LVL378:
	lw	ra,12(sp)
	.cfi_restore 1
	lw	s1,4(sp)
	.cfi_restore 9
	lw	s2,0(sp)
	.cfi_restore 18
	addi	sp,sp,16
	.cfi_def_cfa_offset 0
.LBB283:
.LBB279:
	.loc 3 1721 2
	tail	net_buf_unref
.LVL379:
.L344:
	.cfi_restore_state
	mv	s2,a0
.LBE279:
.LBE283:
	.loc 3 1742 2 is_stmt 1
	.loc 3 1742 8 is_stmt 0
	li	a1,4
	addi	a0,s0,8
.LVL380:
	call	net_buf_simple_pull_mem
.LVL381:
	.loc 3 1743 2 is_stmt 1
	.loc 3 1743 6 is_stmt 0
	lbu	s1,3(a0)
	lbu	a5,2(a0)
	.loc 3 1747 9
	mv	a0,s2
.LVL382:
	.loc 3 1743 6
	slli	s1,s1,8
	or	s1,s1,a5
.LVL383:
	.loc 3 1745 2 is_stmt 1
	.loc 3 1747 2
	.loc 3 1747 9 is_stmt 0
	mv	a1,s1
	call	bt_l2cap_le_lookup_rx_cid
.LVL384:
	mv	s2,a0
.LVL385:
	.loc 3 1748 2 is_stmt 1
	.loc 3 1748 5 is_stmt 0
	bne	a0,zero,.L345
	.loc 3 1749 3 is_stmt 1
	lui	a0,%hi(.LC7)
.LVL386:
	mv	a1,s1
	addi	a0,a0,%lo(.LC7)
	call	printf
.LVL387:
	.loc 3 1750 3
	j	.L348
.LVL388:
.L345:
	.loc 3 1754 2
.LBB284:
.LBB280:
	.loc 3 1709 2
	.loc 3 1711 2
	.loc 3 1711 28 is_stmt 0
	lhu	a5,64(a0)
	.loc 3 1711 5
	li	a4,63
	.loc 3 1711 28
	addi	a5,a5,-64
	.loc 3 1711 5
	slli	a5,a5,16
	srli	a5,a5,16
	bgtu	a5,a4,.L346
	.loc 3 1712 3 is_stmt 1
	mv	a0,s0
.LVL389:
	call	net_buf_ref
.LVL390:
	mv	a1,a0
	addi	a0,s2,140
	call	net_buf_put
.LVL391:
	.loc 3 1713 3
.LBE280:
.LBE284:
	.loc 3 1755 1 is_stmt 0
	lw	s0,8(sp)
	.cfi_remember_state
	.cfi_restore 8
.LVL392:
	lw	ra,12(sp)
	.cfi_restore 1
	lw	s1,4(sp)
	.cfi_restore 9
.LVL393:
.LBB285:
.LBB281:
	.loc 3 1713 3
	addi	a0,s2,128
.LBE281:
.LBE285:
	.loc 3 1755 1
	lw	s2,0(sp)
	.cfi_restore 18
.LVL394:
	addi	sp,sp,16
	.cfi_def_cfa_offset 0
.LBB286:
.LBB282:
	.loc 3 1713 3
	tail	k_work_submit
.LVL395:
.L346:
	.cfi_restore_state
	.loc 3 1718 2 is_stmt 1
	.loc 3 1720 2
	.loc 3 1720 11 is_stmt 0
	lw	a5,4(a0)
	.loc 3 1720 2
	mv	a1,s0
	lw	a5,16(a5)
	jalr	a5
.LVL396:
	j	.L348
.LBE282:
.LBE286:
	.cfi_endproc
.LFE144:
	.size	bt_l2cap_recv, .-bt_l2cap_recv
	.section	.text.bt_l2cap_update_conn_param,"ax",@progbits
	.align	1
	.globl	bt_l2cap_update_conn_param
	.type	bt_l2cap_update_conn_param, @function
bt_l2cap_update_conn_param:
.LFB145:
	.loc 3 1759 1 is_stmt 1
	.cfi_startproc
.LVL397:
	.loc 3 1760 2
	.loc 3 1761 2
	.loc 3 1763 2
	.loc 3 1759 1 is_stmt 0
	addi	sp,sp,-32
	.cfi_def_cfa_offset 32
	sw	s0,24(sp)
	sw	s1,20(sp)
	sw	ra,28(sp)
	.cfi_offset 8, -8
	.cfi_offset 9, -12
	.cfi_offset 1, -4
	.loc 3 1759 1
	mv	s0,a1
	mv	s1,a0
	.loc 3 1763 8
	call	get_ident
.LVL398:
	mv	a1,a0
	li	a2,8
	li	a0,18
	call	l2cap_create_le_sig_pdu.isra.7
.LVL399:
	.loc 3 1765 2 is_stmt 1
	.loc 3 1765 5 is_stmt 0
	beq	a0,zero,.L351
	mv	a2,a0
	.loc 3 1769 2 is_stmt 1
	.loc 3 1769 8 is_stmt 0
	li	a1,8
	addi	a0,a0,8
.LVL400:
	sw	a2,12(sp)
	call	net_buf_simple_add
.LVL401:
	.loc 3 1770 2 is_stmt 1
	.loc 3 1770 28 is_stmt 0
	lhu	a5,0(s0)
	.loc 3 1775 2
	lw	a2,12(sp)
	li	a1,5
	.loc 3 1770 20
	sb	a5,0(a0)
	srli	a5,a5,8
	sb	a5,1(a0)
	.loc 3 1771 2 is_stmt 1
	.loc 3 1771 28 is_stmt 0
	lhu	a5,2(s0)
	.loc 3 1771 20
	sb	a5,2(a0)
	srli	a5,a5,8
	sb	a5,3(a0)
	.loc 3 1772 2 is_stmt 1
	.loc 3 1772 23 is_stmt 0
	lhu	a5,4(s0)
	.loc 3 1772 15
	sb	a5,4(a0)
	srli	a5,a5,8
	sb	a5,5(a0)
	.loc 3 1773 2 is_stmt 1
	.loc 3 1773 23 is_stmt 0
	lhu	a5,6(s0)
	.loc 3 1773 15
	sb	a5,6(a0)
	srli	a5,a5,8
	sb	a5,7(a0)
	.loc 3 1775 2 is_stmt 1
	mv	a0,s1
.LVL402:
	call	bt_l2cap_send
.LVL403:
	.loc 3 1777 2
	.loc 3 1777 9 is_stmt 0
	li	a0,0
.LVL404:
.L349:
	.loc 3 1778 1
	lw	ra,28(sp)
	.cfi_remember_state
	.cfi_restore 1
	lw	s0,24(sp)
	.cfi_restore 8
.LVL405:
	lw	s1,20(sp)
	.cfi_restore 9
.LVL406:
	addi	sp,sp,32
	.cfi_def_cfa_offset 0
	jr	ra
.LVL407:
.L351:
	.cfi_restore_state
	.loc 3 1766 10
	li	a0,-12
.LVL408:
	j	.L349
	.cfi_endproc
.LFE145:
	.size	bt_l2cap_update_conn_param, .-bt_l2cap_update_conn_param
	.section	.text.bt_l2cap_init,"ax",@progbits
	.align	1
	.globl	bt_l2cap_init
	.type	bt_l2cap_init, @function
bt_l2cap_init:
.LFB149:
	.loc 3 1824 1 is_stmt 1
	.cfi_startproc
	.loc 3 1833 2
	.loc 3 1836 1 is_stmt 0
	ret
	.cfi_endproc
.LFE149:
	.size	bt_l2cap_init, .-bt_l2cap_init
	.section	.text.bt_l2cap_chan_connect,"ax",@progbits
	.align	1
	.globl	bt_l2cap_chan_connect
	.type	bt_l2cap_chan_connect, @function
bt_l2cap_chan_connect:
.LFB151:
	.loc 3 1860 1 is_stmt 1
	.cfi_startproc
.LVL409:
	.loc 3 1861 2
	.loc 3 1863 2
	.loc 3 1863 5 is_stmt 0
	beq	a0,zero,.L360
	.loc 3 1863 12 discriminator 1
	lbu	a4,13(a0)
	li	a5,4
	bne	a4,a5,.L360
	.loc 3 1867 2 is_stmt 1
	.loc 3 1867 5 is_stmt 0
	bne	a1,zero,.L356
.L357:
	.loc 3 1868 10
	li	a0,-22
.LVL410:
	ret
.LVL411:
.L356:
	.loc 3 1871 2 is_stmt 1
	.loc 3 1876 2
	.loc 3 1876 10 is_stmt 0
	lbu	a5,61(a1)
	.loc 3 1876 5
	bgtu	a5,a4,.L357
	.loc 3 1878 9 is_stmt 1
	.loc 3 1878 12 is_stmt 0
	bne	a5,zero,.L358
	.loc 3 1879 3 is_stmt 1
	.loc 3 1879 28 is_stmt 0
	li	a5,1
	sb	a5,61(a1)
.L358:
	.loc 3 1882 2 is_stmt 1
.LVL412:
.LBB289:
.LBB290:
	.loc 3 1842 2
	.loc 3 1842 19 is_stmt 0
	addi	a5,a2,-1
	.loc 3 1842 5
	slli	a5,a5,16
	srli	a5,a5,16
	li	a4,254
	bgtu	a5,a4,.L357
.LBE290:
.LBE289:
	.loc 3 1860 1
	addi	sp,sp,-16
	.cfi_def_cfa_offset 16
	sw	s1,4(sp)
	.cfi_offset 9, -12
	mv	s1,a0
.LBB295:
.LBB291:
	.loc 3 1846 2 is_stmt 1
	mv	a0,a1
.LVL413:
.LBE291:
.LBE295:
	.loc 3 1860 1 is_stmt 0
	sw	ra,12(sp)
	sw	s0,8(sp)
	sw	s2,0(sp)
	.cfi_offset 1, -4
	.cfi_offset 8, -8
	.cfi_offset 18, -16
	mv	s0,a1
	mv	s2,a2
.LBB296:
.LBB292:
	.loc 3 1846 2
	call	l2cap_chan_tx_init
.LVL414:
	.loc 3 1847 2 is_stmt 1
	mv	a0,s0
	call	l2cap_chan_rx_init
.LVL415:
	.loc 3 1849 2
	.loc 3 1849 7 is_stmt 0
	lui	a2,%hi(l2cap_chan_destroy)
	addi	a2,a2,%lo(l2cap_chan_destroy)
	mv	a1,s0
	mv	a0,s1
	call	l2cap_chan_add
.LVL416:
	.loc 3 1849 5
	beq	a0,zero,.L361
	.loc 3 1853 2 is_stmt 1
	.loc 3 1853 15 is_stmt 0
	sh	s2,58(s0)
	.loc 3 1855 2 is_stmt 1
	.loc 3 1855 9 is_stmt 0
	mv	a0,s0
.LBE292:
.LBE296:
	.loc 3 1883 1
	lw	s0,8(sp)
	.cfi_restore 8
.LVL417:
	lw	ra,12(sp)
	.cfi_restore 1
	lw	s1,4(sp)
	.cfi_restore 9
.LVL418:
	lw	s2,0(sp)
	.cfi_restore 18
	addi	sp,sp,16
	.cfi_def_cfa_offset 0
.LBB297:
.LBB293:
	.loc 3 1855 9
	tail	l2cap_le_conn_req
.LVL419:
.L360:
.LBE293:
.LBE297:
	.loc 3 1864 10
	li	a0,-57
.LVL420:
	.loc 3 1883 1
	ret
.LVL421:
.L361:
	.cfi_def_cfa_offset 16
	.cfi_offset 1, -4
	.cfi_offset 8, -8
	.cfi_offset 9, -12
	.cfi_offset 18, -16
	lw	ra,12(sp)
	.cfi_restore 1
	lw	s0,8(sp)
	.cfi_restore 8
.LVL422:
	lw	s1,4(sp)
	.cfi_restore 9
.LVL423:
	lw	s2,0(sp)
	.cfi_restore 18
.LBB298:
.LBB294:
	.loc 3 1850 10
	li	a0,-12
.LBE294:
.LBE298:
	.loc 3 1883 1
	addi	sp,sp,16
	.cfi_def_cfa_offset 0
	jr	ra
	.cfi_endproc
.LFE151:
	.size	bt_l2cap_chan_connect, .-bt_l2cap_chan_connect
	.section	.text.bt_l2cap_chan_disconnect,"ax",@progbits
	.align	1
	.globl	bt_l2cap_chan_disconnect
	.type	bt_l2cap_chan_disconnect, @function
bt_l2cap_chan_disconnect:
.LFB152:
	.loc 3 1886 1 is_stmt 1
	.cfi_startproc
.LVL424:
	.loc 3 1887 2
	.loc 3 1888 2
	.loc 3 1889 2
	.loc 3 1890 2
	.loc 3 1892 2
	.loc 3 1892 5 is_stmt 0
	lw	a5,0(a0)
	beq	a5,zero,.L368
	.loc 3 1886 1
	addi	sp,sp,-32
	.cfi_def_cfa_offset 32
	sw	ra,28(sp)
.LVL425:
	sw	s0,24(sp)
	.cfi_offset 1, -4
	.cfi_offset 8, -8
	mv	s0,a0
	.loc 3 1896 2 is_stmt 1
	.loc 3 1901 2
.LVL426:
	.loc 3 1904 20
	.loc 3 1906 2
	.loc 3 1906 19 is_stmt 0
	call	get_ident
.LVL427:
	mv	a1,a0
	.loc 3 1906 17
	sb	a0,60(s0)
	.loc 3 1908 2 is_stmt 1
	.loc 3 1908 8 is_stmt 0
	li	a2,4
	li	a0,6
	call	l2cap_create_le_sig_pdu.isra.7
.LVL428:
	mv	a2,a0
.LVL429:
	.loc 3 1910 2 is_stmt 1
	.loc 3 1911 10 is_stmt 0
	li	a0,-12
.LVL430:
	.loc 3 1910 5
	beq	a2,zero,.L366
	.loc 3 1914 2 is_stmt 1
	.loc 3 1914 8 is_stmt 0
	addi	a0,a2,8
	li	a1,4
	sw	a2,12(sp)
	call	net_buf_simple_add
.LVL431:
	.loc 3 1915 2 is_stmt 1
	.loc 3 1915 21 is_stmt 0
	lhu	a5,64(s0)
.LBB303:
.LBB304:
	.loc 3 433 3
	li	a1,2000
.LBE304:
.LBE303:
	.loc 3 1915 12
	sb	a5,0(a0)
	srli	a5,a5,8
	sb	a5,1(a0)
	.loc 3 1916 2 is_stmt 1
	.loc 3 1916 21 is_stmt 0
	lhu	a5,84(s0)
	.loc 3 1916 12
	sb	a5,2(a0)
	srli	a5,a5,8
	sb	a5,3(a0)
	.loc 3 1918 2 is_stmt 1
.LVL432:
.LBB306:
.LBB305:
	.loc 3 432 2
	.loc 3 433 3
	addi	a0,s0,16
.LVL433:
	call	k_delayed_work_submit
.LVL434:
	.loc 3 438 2
	lw	a0,0(s0)
	lw	a2,12(sp)
	li	a1,5
	call	bt_l2cap_send
.LVL435:
.LBE305:
.LBE306:
	.loc 3 1919 2
.LBB307:
.LBB308:
	.loc 3 232 2
	.loc 3 232 14 is_stmt 0
	li	a5,4
	sb	a5,56(s0)
.LVL436:
.LBE308:
.LBE307:
	.loc 3 1921 2 is_stmt 1
	.loc 3 1921 9 is_stmt 0
	li	a0,0
.LVL437:
.L366:
	.loc 3 1922 1
	lw	ra,28(sp)
	.cfi_restore 1
	lw	s0,24(sp)
	.cfi_restore 8
.LVL438:
	addi	sp,sp,32
	.cfi_def_cfa_offset 0
	jr	ra
.LVL439:
.L368:
	.loc 3 1893 10
	li	a0,-57
.LVL440:
	.loc 3 1922 1
	ret
	.cfi_endproc
.LFE152:
	.size	bt_l2cap_chan_disconnect, .-bt_l2cap_chan_disconnect
	.section	.text.l2cap_chan_le_recv_seg,"ax",@progbits
	.align	1
	.type	l2cap_chan_le_recv_seg, @function
l2cap_chan_le_recv_seg:
.LFB141:
	.loc 3 1603 1 is_stmt 1
	.cfi_startproc
.LVL441:
	addi	sp,sp,-48
	.cfi_def_cfa_offset 48
	sw	s0,40(sp)
	sw	s1,36(sp)
	sw	s2,32(sp)
	sw	ra,44(sp)
	sw	s3,28(sp)
	.cfi_offset 8, -8
	.cfi_offset 9, -12
	.cfi_offset 18, -16
	.cfi_offset 1, -4
	.cfi_offset 19, -20
	.loc 3 1607 8 is_stmt 0
	lw	s3,120(a0)
	.loc 3 1603 1
	mv	s0,a0
	.loc 3 1604 2 is_stmt 1
	.loc 3 1605 2
	.loc 3 1603 1 is_stmt 0
	mv	s2,a1
	.loc 3 1607 8
	mv	a0,s3
.LVL442:
	.loc 3 1605 8
	sh	zero,14(sp)
	.loc 3 1607 2 is_stmt 1
	.loc 3 1607 8 is_stmt 0
	call	net_buf_frags_len
.LVL443:
	.loc 3 1608 5
	slli	a5,a0,16
	srli	a5,a5,16
	.loc 3 1607 8
	mv	s1,a0
.LVL444:
	.loc 3 1608 2 is_stmt 1
	.loc 3 1608 5 is_stmt 0
	beq	a5,zero,.L375
	.loc 3 1609 3 is_stmt 1
.LVL445:
.LBB317:
.LBB318:
	.loc 2 1063 2
.LBE318:
.LBE317:
	.loc 3 1609 3 is_stmt 0
	li	a2,2
	addi	a1,s3,20
	addi	a0,sp,14
.LVL446:
	call	memcpy
.LVL447:
.L375:
	.loc 3 1612 2 is_stmt 1
	.loc 3 1612 15 is_stmt 0
	lhu	a5,12(s2)
	.loc 3 1612 10
	slli	s1,s1,16
	srli	s1,s1,16
	add	s1,s1,a5
	.loc 3 1612 27
	lhu	a5,124(s0)
	.loc 3 1612 5
	ble	s1,a5,.L376
	.loc 3 1613 3 is_stmt 1
	lui	a0,%hi(.LC8)
	addi	a0,a0,%lo(.LC8)
.L386:
	.loc 3 1628 3 is_stmt 0
	call	printf
.LVL448:
	.loc 3 1629 3 is_stmt 1
	mv	a0,s0
	call	bt_l2cap_chan_disconnect
.LVL449:
	.loc 3 1630 3
.L374:
	.loc 3 1650 1 is_stmt 0
	lw	ra,44(sp)
	.cfi_remember_state
	.cfi_restore 1
	lw	s0,40(sp)
	.cfi_restore 8
.LVL450:
	lw	s1,36(sp)
	.cfi_restore 9
	lw	s2,32(sp)
	.cfi_restore 18
	lw	s3,28(sp)
	.cfi_restore 19
	addi	sp,sp,48
	.cfi_def_cfa_offset 0
	jr	ra
.LVL451:
.L376:
	.cfi_restore_state
	.loc 3 1618 2 is_stmt 1
	.loc 3 1618 5 is_stmt 0
	lhu	a5,14(sp)
.LBB319:
.LBB320:
	.loc 2 1063 9
	lw	a0,120(s0)
.LBE320:
.LBE319:
	.loc 3 1620 2
	li	a2,2
	.loc 3 1618 5
	addi	a5,a5,1
	.loc 3 1620 2
	addi	a1,sp,14
	addi	a0,a0,20
	.loc 3 1618 5
	sh	a5,14(sp)
	.loc 3 1620 2 is_stmt 1
.LVL452:
.LBB322:
.LBB321:
	.loc 2 1063 2
.LBE321:
.LBE322:
	.loc 3 1620 2 is_stmt 0
	call	memcpy
.LVL453:
	.loc 3 1622 2 is_stmt 1
	.loc 3 1625 2
	.loc 3 1625 8 is_stmt 0
	lw	a2,8(s2)
	lhu	a1,12(s2)
	lw	a0,120(s0)
	lui	a4,%hi(l2cap_alloc_frag)
	mv	a5,s0
	addi	a4,a4,%lo(l2cap_alloc_frag)
	li	a3,0
	call	net_buf_append_bytes
.LVL454:
	.loc 3 1627 2 is_stmt 1
	.loc 3 1627 5 is_stmt 0
	lhu	a5,12(s2)
	slli	a0,a0,16
.LVL455:
	srli	a0,a0,16
	beq	a5,a0,.L378
	.loc 3 1628 3 is_stmt 1
	lui	a0,%hi(.LC9)
	addi	a0,a0,%lo(.LC9)
	j	.L386
.L378:
	.loc 3 1633 2
	.loc 3 1633 6 is_stmt 0
	lw	s1,120(s0)
	mv	a0,s1
	call	net_buf_frags_len
.LVL456:
	.loc 3 1633 42
	lhu	a5,124(s0)
	.loc 3 1633 5
	bgeu	a0,a5,.L379
	.loc 3 1638 3 is_stmt 1
	.loc 3 1638 8 is_stmt 0
	addi	s3,s0,72
	mv	a0,s3
	call	k_sem_count_get
.LVL457:
	.loc 3 1638 6
	bne	a0,zero,.L374
	.loc 3 1638 43 discriminator 1
	lhu	a4,70(s0)
	lhu	a5,14(sp)
	bne	a4,a5,.L374
	.loc 3 1640 4 is_stmt 1
.LVL458:
.LBB323:
.LBB324:
	.loc 3 1522 2
	.loc 3 1525 2
	.loc 3 1525 31 is_stmt 0
	mv	a0,s2
	call	net_buf_frags_len
.LVL459:
	.loc 3 1525 55
	lhu	a1,68(s0)
	.loc 3 1525 18
	lhu	s1,124(s0)
	.loc 3 1525 55
	add	s1,s1,a1
	addi	s1,s1,-1
	sub	s1,s1,a0
	.loc 3 1526 26
	divu	s1,s1,a1
.LVL460:
	.loc 3 1527 2 is_stmt 1
	.loc 3 1527 13 is_stmt 0
	mv	a0,s3
	call	k_sem_count_get
.LVL461:
	.loc 3 1527 10
	sub	a0,s1,a0
	slli	a1,a0,16
	srli	a1,a1,16
.LVL462:
	.loc 3 1528 2 is_stmt 1
	.loc 3 1528 5 is_stmt 0
	slli	a5,a1,16
	srai	a5,a5,16
	ble	a5,zero,.L374
	.loc 3 1532 2 is_stmt 1
	mv	a0,s0
	call	l2cap_chan_send_credits.isra.10
.LVL463:
	j	.L374
.LVL464:
.L379:
.LBE324:
.LBE323:
	.loc 3 1645 2
	.loc 3 1646 2
.LBB325:
.LBB326:
	.loc 3 1587 22 is_stmt 0
	lw	a5,4(s0)
.LBE326:
.LBE325:
	.loc 3 1646 13
	sw	zero,120(s0)
	.loc 3 1647 2 is_stmt 1
	.loc 3 1647 17 is_stmt 0
	sh	zero,124(s0)
	.loc 3 1649 2 is_stmt 1
.LBB329:
.LBB327:
	.loc 3 1587 8 is_stmt 0
	lw	a5,16(a5)
	mv	a1,s1
	mv	a0,s0
.LBE327:
.LBE329:
	.loc 3 1649 2
	lhu	s2,14(sp)
.LVL465:
.LBB330:
.LBB328:
	.loc 3 1582 2 is_stmt 1
	.loc 3 1584 2
	.loc 3 1587 2
	.loc 3 1587 8 is_stmt 0
	jalr	a5
.LVL466:
	mv	a1,a0
.LVL467:
	.loc 3 1588 2 is_stmt 1
	.loc 3 1588 5 is_stmt 0
	bge	a0,zero,.L381
	.loc 3 1589 3 is_stmt 1
	.loc 3 1589 6 is_stmt 0
	li	a5,-68
	beq	a0,a5,.L374
	.loc 3 1590 4 is_stmt 1
	lui	a0,%hi(.LC10)
.LVL468:
	addi	a0,a0,%lo(.LC10)
	call	printf
.LVL469:
	.loc 3 1591 4
	mv	a0,s0
	call	bt_l2cap_chan_disconnect
.LVL470:
	.loc 3 1592 4
.L387:
	.loc 3 1598 2
	mv	a0,s1
	call	net_buf_unref
.LVL471:
	j	.L374
.LVL472:
.L381:
	.loc 3 1597 2
	mv	a1,s2
	mv	a0,s0
.LVL473:
	call	l2cap_chan_send_credits.isra.10
.LVL474:
	j	.L387
.LBE328:
.LBE330:
	.cfi_endproc
.LFE141:
	.size	l2cap_chan_le_recv_seg, .-l2cap_chan_le_recv_seg
	.section	.text.l2cap_rx_process,"ax",@progbits
	.align	1
	.type	l2cap_rx_process, @function
l2cap_rx_process:
.LFB95:
	.loc 3 283 1
	.cfi_startproc
.LVL475:
	.loc 3 284 2
	.loc 3 283 1 is_stmt 0
	addi	sp,sp,-48
	.cfi_def_cfa_offset 48
	sw	s0,40(sp)
	sw	s1,36(sp)
	sw	s3,28(sp)
	sw	s4,24(sp)
	sw	s5,20(sp)
	sw	s6,16(sp)
	sw	s7,12(sp)
	sw	s8,8(sp)
	sw	s9,4(sp)
	sw	ra,44(sp)
	sw	s2,32(sp)
	sw	s10,0(sp)
	.cfi_offset 8, -8
	.cfi_offset 9, -12
	.cfi_offset 19, -20
	.cfi_offset 20, -24
	.cfi_offset 21, -28
	.cfi_offset 22, -32
	.cfi_offset 23, -36
	.cfi_offset 24, -40
	.cfi_offset 25, -44
	.cfi_offset 1, -4
	.cfi_offset 18, -16
	.cfi_offset 26, -48
	.loc 3 283 1
	mv	s1,a0
	.loc 3 284 27
	addi	s0,a0,-128
.LVL476:
	.loc 3 285 2 is_stmt 1
	.loc 3 287 2
	.loc 3 287 16 is_stmt 0
	addi	s3,a0,12
.LBB333:
.LBB334:
	.loc 3 1658 6
	addi	s4,a0,-56
	.loc 3 1695 6
	li	s5,-68
	.loc 3 1696 4
	lui	s6,%hi(.LC10)
	.loc 3 1684 4
	lui	s7,%hi(.LC13)
	.loc 3 1675 3
	lui	s8,%hi(.LC12)
	.loc 3 1659 3
	lui	s9,%hi(.LC11)
.LVL477:
.L389:
.LBE334:
.LBE333:
	.loc 3 287 16
	li	a1,0
	mv	a0,s3
	call	net_buf_get
.LVL478:
	mv	s2,a0
.LVL479:
	.loc 3 287 8
	bne	a0,zero,.L397
	.loc 3 292 1
	lw	ra,44(sp)
	.cfi_remember_state
	.cfi_restore 1
	lw	s0,40(sp)
	.cfi_restore 8
.LVL480:
	lw	s1,36(sp)
	.cfi_restore 9
.LVL481:
	lw	s2,32(sp)
	.cfi_restore 18
	lw	s3,28(sp)
	.cfi_restore 19
	lw	s4,24(sp)
	.cfi_restore 20
.LVL482:
	lw	s5,20(sp)
	.cfi_restore 21
	lw	s6,16(sp)
	.cfi_restore 22
	lw	s7,12(sp)
	.cfi_restore 23
	lw	s8,8(sp)
	.cfi_restore 24
	lw	s9,4(sp)
	.cfi_restore 25
	lw	s10,0(sp)
	.cfi_restore 26
	addi	sp,sp,48
	.cfi_def_cfa_offset 0
	jr	ra
.LVL483:
.L397:
	.cfi_restore_state
	.loc 3 288 3 is_stmt 1
	.loc 3 289 3
.LBB337:
.LBB335:
	.loc 3 1655 2
	.loc 3 1656 2
	.loc 3 1658 2
	.loc 3 1658 6 is_stmt 0
	li	a1,0
	mv	a0,s4
.LVL484:
	call	k_sem_take
.LVL485:
	.loc 3 1658 5
	beq	a0,zero,.L390
	.loc 3 1659 3 is_stmt 1
	addi	a0,s9,%lo(.LC11)
.L399:
	.loc 3 1684 4 is_stmt 0
	call	printf
.LVL486:
.L400:
	.loc 3 1685 4 is_stmt 1
	mv	a0,s0
	call	bt_l2cap_chan_disconnect
.LVL487:
	.loc 3 1686 4
.L391:
.LBE335:
.LBE337:
	.loc 3 290 3
	mv	a0,s2
	call	net_buf_unref
.LVL488:
	j	.L389
.LVL489:
.L390:
.LBB338:
.LBB336:
	.loc 3 1665 2
	.loc 3 1665 5 is_stmt 0
	lw	a5,-8(s1)
	beq	a5,zero,.L392
.L401:
	.loc 3 1689 3 is_stmt 1
	mv	a1,s2
	mv	a0,s0
	call	l2cap_chan_le_recv_seg
.LVL490:
	.loc 3 1690 3
	j	.L391
.L392:
	.loc 3 1670 2
	.loc 3 1670 12 is_stmt 0
	addi	a0,s2,8
	call	net_buf_simple_pull_le16
.LVL491:
	.loc 3 1674 5
	lhu	a5,-62(s1)
	.loc 3 1670 12
	mv	s10,a0
.LVL492:
	.loc 3 1672 2 is_stmt 1
	.loc 3 1674 2
	.loc 3 1675 3 is_stmt 0
	addi	a0,s8,%lo(.LC12)
	.loc 3 1674 5
	bltu	a5,s10,.L399
	.loc 3 1681 2 is_stmt 1
	.loc 3 1681 16 is_stmt 0
	lw	a5,-124(s1)
	.loc 3 1681 20
	lw	a4,12(a5)
	.loc 3 1681 5
	beq	a4,zero,.L394
	.loc 3 1682 3 is_stmt 1
	.loc 3 1682 16 is_stmt 0
	mv	a0,s0
	jalr	a4
.LVL493:
	.loc 3 1682 14
	sw	a0,-8(s1)
	.loc 3 1683 3 is_stmt 1
	.loc 3 1683 6 is_stmt 0
	bne	a0,zero,.L395
	.loc 3 1684 4 is_stmt 1
	addi	a0,s7,%lo(.LC13)
	j	.L399
.L395:
	.loc 3 1688 3
	.loc 3 1688 18 is_stmt 0
	sh	s10,-4(s1)
	j	.L401
.L394:
	.loc 3 1693 2 is_stmt 1
	.loc 3 1693 8 is_stmt 0
	lw	a5,16(a5)
	mv	a1,s2
	mv	a0,s0
	jalr	a5
.LVL494:
	mv	a1,a0
.LVL495:
	.loc 3 1694 2 is_stmt 1
	.loc 3 1694 5 is_stmt 0
	beq	a0,zero,.L396
	.loc 3 1695 3 is_stmt 1
	.loc 3 1695 6 is_stmt 0
	beq	a0,s5,.L391
	.loc 3 1696 4 is_stmt 1
	addi	a0,s6,%lo(.LC10)
.LVL496:
	call	printf
.LVL497:
	.loc 3 1697 4
	j	.L400
.LVL498:
.L396:
	.loc 3 1702 2
	li	a1,1
	mv	a0,s0
.LVL499:
	call	l2cap_chan_send_credits.isra.10
.LVL500:
	j	.L391
.LBE336:
.LBE338:
	.cfi_endproc
.LFE95:
	.size	l2cap_rx_process, .-l2cap_rx_process
	.section	.text.l2cap_recv,"ax",@progbits
	.align	1
	.type	l2cap_recv, @function
l2cap_recv:
.LFB135:
	.loc 3 1417 1
	.cfi_startproc
.LVL501:
	.loc 3 1418 2
	.loc 3 1419 2
	.loc 3 1420 2
	.loc 3 1422 2
	.loc 3 1417 1 is_stmt 0
	addi	sp,sp,-80
	.cfi_def_cfa_offset 80
	sw	ra,76(sp)
	sw	s0,72(sp)
	sw	s1,68(sp)
	sw	s2,64(sp)
	sw	s3,60(sp)
	sw	s4,56(sp)
	sw	s5,52(sp)
	sw	s6,48(sp)
	sw	s7,44(sp)
	sw	s8,40(sp)
	sw	s9,36(sp)
	.cfi_offset 1, -4
	.cfi_offset 8, -8
	.cfi_offset 9, -12
	.cfi_offset 18, -16
	.cfi_offset 19, -20
	.cfi_offset 20, -24
	.cfi_offset 21, -28
	.cfi_offset 22, -32
	.cfi_offset 23, -36
	.cfi_offset 24, -40
	.cfi_offset 25, -44
	.loc 3 1422 5
	lhu	a4,12(a1)
	li	a5,3
	bgtu	a4,a5,.L403
	.loc 3 1423 3 is_stmt 1
	lui	a0,%hi(.LC14)
.LVL502:
	addi	a0,a0,%lo(.LC14)
.LVL503:
.L509:
.LBB376:
.LBB377:
.LBB378:
.LBB379:
	.loc 3 1120 3 is_stmt 0
	call	printf
.LVL504:
	.loc 3 1121 3 is_stmt 1
	j	.L404
.LVL505:
.L403:
	mv	s0,a1
.LVL506:
.LBE379:
.LBE378:
	.loc 3 1427 2
	mv	s2,a0
	.loc 3 1427 8 is_stmt 0
	li	a1,4
.LVL507:
	addi	a0,s0,8
.LVL508:
	call	net_buf_simple_pull_mem
.LVL509:
	.loc 3 1428 6
	lbu	a2,3(a0)
	lbu	a5,2(a0)
	.loc 3 1427 8
	mv	s3,a0
.LVL510:
	.loc 3 1428 2 is_stmt 1
	.loc 3 1428 6 is_stmt 0
	slli	a2,a2,8
	or	a2,a2,a5
.LVL511:
	.loc 3 1431 25 is_stmt 1
	.loc 3 1433 2
	.loc 3 1433 9 is_stmt 0
	lhu	a5,12(s0)
	.loc 3 1433 5
	beq	a2,a5,.L405
	.loc 3 1434 3 is_stmt 1
	lui	a0,%hi(.LC15)
.LVL512:
	mv	a1,a5
	addi	a0,a0,%lo(.LC15)
	call	printf
.LVL513:
	.loc 3 1435 3
.L404:
.LBE377:
.LBE376:
	.loc 3 1489 1 is_stmt 0
	lw	ra,76(sp)
	.cfi_remember_state
	.cfi_restore 1
	lw	s0,72(sp)
	.cfi_restore 8
	lw	s1,68(sp)
	.cfi_restore 9
	lw	s2,64(sp)
	.cfi_restore 18
	lw	s3,60(sp)
	.cfi_restore 19
	lw	s4,56(sp)
	.cfi_restore 20
	lw	s5,52(sp)
	.cfi_restore 21
	lw	s6,48(sp)
	.cfi_restore 22
	lw	s7,44(sp)
	.cfi_restore 23
	lw	s8,40(sp)
	.cfi_restore 24
	lw	s9,36(sp)
	.cfi_restore 25
	li	a0,0
	addi	sp,sp,80
	.cfi_def_cfa_offset 0
	jr	ra
.LVL514:
.L405:
	.cfi_restore_state
.LBB458:
.LBB456:
	.loc 3 1438 2 is_stmt 1
	.loc 3 1438 10 is_stmt 0
	lbu	s1,1(a0)
	.loc 3 1438 5
	bne	s1,zero,.L406
	.loc 3 1439 3 is_stmt 1
	lui	a0,%hi(.LC16)
.LVL515:
	addi	a0,a0,%lo(.LC16)
	j	.L509
.LVL516:
.L406:
	.loc 3 1443 2
	.loc 3 1443 13 is_stmt 0
	lbu	a1,0(a0)
	.loc 3 1443 2
	li	a3,21
	addi	a4,a1,-1
	andi	a4,a4,0xff
	bgtu	a4,a3,.L407
	lui	a3,%hi(.L409)
	slli	a4,a4,2
	addi	a3,a3,%lo(.L409)
	add	a4,a4,a3
	lw	a4,0(a4)
	jr	a4
	.section	.rodata.l2cap_recv,"a",@progbits
	.align	2
	.align	2
.L409:
	.word	.L416
	.word	.L407
	.word	.L407
	.word	.L407
	.word	.L407
	.word	.L415
	.word	.L414
	.word	.L407
	.word	.L407
	.word	.L407
	.word	.L407
	.word	.L407
	.word	.L407
	.word	.L407
	.word	.L407
	.word	.L407
	.word	.L407
	.word	.L413
	.word	.L412
	.word	.L411
	.word	.L410
	.word	.L408
	.section	.text.l2cap_recv
.L412:
	.loc 3 1445 3 is_stmt 1
.LVL517:
.LBB381:
.LBB382:
	.loc 3 551 2
	.loc 3 553 2
	.loc 3 553 5 is_stmt 0
	li	a4,1
	bgtu	a5,a4,.L404
	.loc 3 554 3 is_stmt 1
	lui	a0,%hi(.LC17)
.LVL518:
	addi	a0,a0,%lo(.LC17)
	j	.L509
.LVL519:
.L411:
.LBE382:
.LBE381:
	.loc 3 1449 3
.LBB383:
.LBB384:
	.loc 3 827 2
	.loc 3 828 2
	.loc 3 829 2
	.loc 3 830 2
	.loc 3 831 2
	.loc 3 832 2
	.loc 3 833 2
	.loc 3 835 2
	.loc 3 835 5 is_stmt 0
	li	s7,9
	bgtu	a5,s7,.L418
.LVL520:
.L517:
.LBE384:
.LBE383:
.LBB397:
.LBB398:
	.loc 3 971 3 is_stmt 1
	lui	a0,%hi(.LC18)
.LVL521:
	addi	a0,a0,%lo(.LC18)
	j	.L509
.LVL522:
.L418:
.LBE398:
.LBE397:
.LBB404:
.LBB394:
	.loc 3 830 31 is_stmt 0
	lw	a5,8(s0)
	.loc 3 840 2 is_stmt 1
.LVL523:
	.loc 3 841 2
	.loc 3 842 2
	.loc 3 842 6 is_stmt 0
	lbu	s4,5(a5)
	lbu	a4,4(a5)
	slli	s4,s4,8
	or	s4,s4,a4
.LVL524:
	.loc 3 843 2 is_stmt 1
	.loc 3 844 2
	.loc 3 847 27
	.loc 3 849 2
	.loc 3 849 5 is_stmt 0
	li	a4,22
	bleu	s4,a4,.L420
	.loc 3 843 6
	lbu	s5,7(a5)
	lbu	a3,6(a5)
	slli	s5,s5,8
	or	s5,s5,a3
	.loc 3 849 15
	bgtu	s5,a4,.L421
.L420:
	.loc 3 850 3 is_stmt 1
	lui	a0,%hi(.LC19)
.LVL525:
	addi	a0,a0,%lo(.LC19)
	j	.L509
.LVL526:
.L421:
	.loc 3 840 6 is_stmt 0
	lbu	s0,1(a5)
.LVL527:
	lbu	a4,0(a5)
.LBE394:
.LBE404:
	.loc 3 1449 3
	lw	s6,0(s2)
.LBB405:
.LBB395:
	.loc 3 840 6
	slli	s0,s0,8
	.loc 3 841 7
	lbu	s2,3(a5)
.LVL528:
	.loc 3 840 6
	or	s0,s0,a4
	.loc 3 841 7
	lbu	a4,2(a5)
	.loc 3 844 10
	lbu	s3,9(a5)
	.loc 3 841 7
	slli	s2,s2,8
	or	s2,s2,a4
	.loc 3 844 10
	lbu	a4,8(a5)
	slli	s3,s3,8
	.loc 3 854 8
	li	a2,10
.LVL529:
	mv	a1,s1
	li	a0,21
.LVL530:
	.loc 3 844 10
	or	s3,s3,a4
	.loc 3 854 2 is_stmt 1
	.loc 3 854 8 is_stmt 0
	call	l2cap_create_le_sig_pdu.isra.7
.LVL531:
	mv	s9,a0
.LVL532:
	.loc 3 856 2 is_stmt 1
	.loc 3 856 5 is_stmt 0
	beq	a0,zero,.L404
	.loc 3 860 2 is_stmt 1
	.loc 3 860 8 is_stmt 0
	li	a1,10
	addi	a0,a0,8
.LVL533:
	call	net_buf_simple_add
.LVL534:
	.loc 3 861 8
	li	a2,10
	li	a1,0
	.loc 3 860 8
	mv	s1,a0
.LVL535:
	.loc 3 861 2 is_stmt 1
	.loc 3 861 8 is_stmt 0
	call	memset
.LVL536:
	.loc 3 864 2 is_stmt 1
	.loc 3 864 11 is_stmt 0
	mv	a0,s0
	call	l2cap_server_lookup_psm
.LVL537:
	mv	s8,a0
.LVL538:
	.loc 3 865 2 is_stmt 1
	.loc 3 866 15 is_stmt 0
	li	a5,2
	.loc 3 865 5
	beq	a0,zero,.L506
	.loc 3 872 2 is_stmt 1
	.loc 3 872 5 is_stmt 0
	lbu	a4,9(s6)
	lbu	a5,2(a0)
	bgeu	a4,a5,.L424
	.loc 3 873 3 is_stmt 1
	.loc 3 873 15 is_stmt 0
	li	a5,5
.LVL539:
.L506:
	.loc 3 932 15
	sh	a5,8(s1)
	j	.L423
.LVL540:
.L424:
	.loc 3 878 2 is_stmt 1
	.loc 3 878 6 is_stmt 0
	addi	a5,s2,-64
	.loc 3 878 5
	slli	a5,a5,16
	srli	a5,a5,16
	li	a4,63
	bleu	a5,a4,.L425
	.loc 3 879 3 is_stmt 1
	.loc 3 879 15 is_stmt 0
	sh	s7,8(s1)
	.loc 3 880 3 is_stmt 1
.LVL541:
.L423:
	.loc 3 935 2
	mv	a2,s9
	li	a1,5
	mv	a0,s6
.LVL542:
.L511:
.LBE395:
.LBE405:
.LBB406:
.LBB400:
	.loc 3 1003 2 is_stmt 0
	call	bt_l2cap_send
.LVL543:
	j	.L404
.LVL544:
.L425:
.LBE400:
.LBE406:
.LBB407:
.LBB396:
	.loc 3 883 2 is_stmt 1
	.loc 3 883 9 is_stmt 0
	mv	a1,s2
	mv	a0,s6
.LVL545:
	call	bt_l2cap_le_lookup_tx_cid
.LVL546:
	.loc 3 883 7
	sw	a0,24(sp)
	.loc 3 884 2 is_stmt 1
	.loc 3 885 15 is_stmt 0
	li	a5,10
	.loc 3 884 5
	bne	a0,zero,.L506
	.loc 3 892 2 is_stmt 1
	.loc 3 892 8 is_stmt 0
	lw	a5,4(s8)
	addi	a1,sp,24
	mv	a0,s6
	jalr	a5
.LVL547:
	.loc 3 893 2 is_stmt 1
	.loc 3 893 5 is_stmt 0
	bge	a0,zero,.L427
	.loc 3 894 3 is_stmt 1
.LVL548:
.LBB385:
.LBB386:
	.loc 3 806 2
	li	a4,-13
	.loc 3 810 10 is_stmt 0
	li	a5,6
	.loc 3 806 2
	beq	a0,a4,.L506
	li	a5,-13
	bgt	a0,a5,.L429
	li	a4,-35
	.loc 3 818 10
	li	a5,2
.L515:
	.loc 3 806 2
	beq	a0,a4,.L506
	.loc 3 820 10
	li	a5,11
.LVL549:
	j	.L506
.LVL550:
.L429:
	.loc 3 806 2
	li	a4,-12
	.loc 3 808 10
	li	a5,4
	.loc 3 806 2
	beq	a0,a4,.L506
	li	a4,-1
	.loc 3 812 10
	li	a5,7
	j	.L515
.LVL551:
.L427:
.LBE386:
.LBE385:
	.loc 3 898 2 is_stmt 1
	.loc 3 898 35 is_stmt 0
	lbu	a5,2(s8)
	.loc 3 898 6
	lw	a1,24(sp)
	.loc 3 900 6
	lui	a2,%hi(l2cap_chan_destroy)
	addi	a2,a2,%lo(l2cap_chan_destroy)
	.loc 3 898 27
	sb	a5,61(a1)
	.loc 3 900 2 is_stmt 1
	.loc 3 900 6 is_stmt 0
	mv	a0,s6
.LVL552:
	call	l2cap_chan_add
.LVL553:
	.loc 3 932 15
	li	a5,4
	.loc 3 900 5
	beq	a0,zero,.L506
.LBB387:
	.loc 3 901 3 is_stmt 1
	.loc 3 901 28 is_stmt 0
	lw	s0,24(sp)
.LVL554:
	.loc 3 904 3 is_stmt 1
	mv	a0,s0
	call	l2cap_chan_tx_init
.LVL555:
	.loc 3 905 3
	.loc 3 909 3 is_stmt 0
	mv	a1,s3
	.loc 3 905 14
	sh	s2,84(s0)
	.loc 3 906 3 is_stmt 1
	.loc 3 907 14 is_stmt 0
	sh	s4,86(s0)
	.loc 3 908 23
	sh	s3,90(s0)
	.loc 3 909 3
	mv	a0,s0
	.loc 3 906 14
	sh	s5,88(s0)
	.loc 3 907 3 is_stmt 1
	.loc 3 908 3
	.loc 3 909 3
	call	l2cap_chan_tx_give_credits
.LVL556:
	.loc 3 912 3
	mv	a0,s0
	call	l2cap_chan_rx_init
.LVL557:
	.loc 3 913 3
	lhu	s2,70(s0)
.LVL558:
.LBB388:
.LBB389:
	.loc 3 764 2
	.loc 3 766 2
	.loc 3 766 8 is_stmt 0
	li	s3,65536
	addi	s3,s3,-1
	.loc 3 767 3
	addi	s4,s0,72
.LVL559:
.L431:
	.loc 3 766 16
	addi	s2,s2,-1
.LVL560:
	slli	s2,s2,16
	srli	s2,s2,16
.LVL561:
	.loc 3 766 8
	bne	s2,s3,.L432
.LVL562:
.LBE389:
.LBE388:
	.loc 3 916 3 is_stmt 1
	.loc 3 916 7 is_stmt 0
	lw	a0,24(sp)
	.loc 3 916 21
	lhu	a5,0(s8)
	.loc 3 916 13
	sh	a5,58(a0)
	.loc 3 919 3 is_stmt 1
.LVL563:
.LBB391:
.LBB392:
	.loc 3 232 2
	.loc 3 232 14 is_stmt 0
	li	a5,3
	sb	a5,56(a0)
.LVL564:
.LBE392:
.LBE391:
	.loc 3 921 3 is_stmt 1
	.loc 3 921 16 is_stmt 0
	lw	a5,4(a0)
	lw	a5,0(a5)
	.loc 3 921 6
	beq	a5,zero,.L433
	.loc 3 922 4 is_stmt 1
	jalr	a5
.LVL565:
.L433:
	.loc 3 926 3
	.loc 3 926 22 is_stmt 0
	lhu	a5,64(s0)
	.loc 3 926 13
	sh	a5,0(s1)
	.loc 3 927 3 is_stmt 1
	.loc 3 927 21 is_stmt 0
	lhu	a5,68(s0)
	.loc 3 927 12
	sh	a5,4(s1)
	.loc 3 928 3 is_stmt 1
	.loc 3 928 21 is_stmt 0
	lhu	a5,66(s0)
	.loc 3 928 12
	sh	a5,2(s1)
	.loc 3 929 3 is_stmt 1
	.loc 3 929 25 is_stmt 0
	lhu	a5,70(s0)
	.loc 3 930 15
	sh	zero,8(s1)
	.loc 3 929 16
	sh	a5,6(s1)
	.loc 3 930 3 is_stmt 1
	j	.L423
.LVL566:
.L432:
.LBB393:
.LBB390:
	.loc 3 767 3
	mv	a0,s4
	call	k_sem_give
.LVL567:
	j	.L431
.LVL568:
.L410:
.LBE390:
.LBE393:
.LBE387:
.LBE396:
.LBE407:
	.loc 3 1452 3
.LBB408:
.LBB409:
	.loc 3 1039 2
	.loc 3 1040 2
	.loc 3 1041 2
	.loc 3 1042 2
	.loc 3 1044 2
	.loc 3 1044 5 is_stmt 0
	li	a4,9
	bgtu	a5,a4,.L434
	.loc 3 1045 3 is_stmt 1
	lui	a0,%hi(.LC20)
.LVL569:
	addi	a0,a0,%lo(.LC20)
	j	.L509
.LVL570:
.L434:
	.loc 3 1041 31 is_stmt 0
	lw	a5,8(s0)
	.loc 3 1049 2 is_stmt 1
.LBE409:
.LBE408:
	.loc 3 1452 3 is_stmt 0
	lw	s3,0(s2)
	slli	a1,s1,16
.LBB426:
.LBB424:
	.loc 3 1053 9
	lhu	s2,8(a5)
.LVL571:
	.loc 3 1049 7
	lhu	s7,0(a5)
.LVL572:
	.loc 3 1050 2 is_stmt 1
	.loc 3 1050 6 is_stmt 0
	lhu	s6,2(a5)
.LVL573:
	.loc 3 1051 2 is_stmt 1
	.loc 3 1051 6 is_stmt 0
	lhu	s5,4(a5)
.LVL574:
	.loc 3 1052 2 is_stmt 1
	.loc 3 1052 10 is_stmt 0
	lhu	s4,6(a5)
.LVL575:
	.loc 3 1053 2 is_stmt 1
	.loc 3 1056 35
	.loc 3 1059 2
	.loc 3 1059 5 is_stmt 0
	andi	a5,s2,-9
	srli	a1,a1,16
	beq	a5,zero,.L435
	.loc 3 1059 23
	li	a5,5
	.loc 3 1064 10
	li	a2,1
.LVL576:
	.loc 3 1059 23
	bne	s2,a5,.L507
.L435:
	.loc 3 1062 3 is_stmt 1
	.loc 3 1062 10 is_stmt 0
	li	a2,0
.L507:
	.loc 3 1064 10
	mv	a0,s3
.LVL577:
	call	__l2cap_lookup_ident
.LVL578:
	mv	s0,a0
.LVL579:
	.loc 3 1067 2 is_stmt 1
	.loc 3 1067 5 is_stmt 0
	bne	a0,zero,.L438
	.loc 3 1068 3 is_stmt 1
	lui	a0,%hi(.LC21)
	mv	a1,s1
	addi	a0,a0,%lo(.LC21)
	call	printf
.LVL580:
	.loc 3 1069 3
	j	.L404
.L438:
	.loc 3 1073 2
	addi	a0,a0,16
	call	k_delayed_work_cancel
.LVL581:
	.loc 3 1076 2
	.loc 3 1078 2 is_stmt 0
	li	a5,5
	.loc 3 1076 19
	sb	zero,60(s0)
	.loc 3 1078 2 is_stmt 1
	beq	s2,a5,.L439
	li	a5,8
	beq	s2,a5,.L439
	bne	s2,zero,.L440
	.loc 3 1080 3
.LBB410:
.LBB411:
	.loc 3 232 14 is_stmt 0
	li	a5,3
	sb	a5,56(s0)
.LBE411:
.LBE410:
	.loc 3 1087 21
	lw	a5,4(s0)
	.loc 3 1080 16
	sh	s7,84(s0)
	.loc 3 1081 3 is_stmt 1
	.loc 3 1081 16 is_stmt 0
	sh	s6,86(s0)
	.loc 3 1082 3 is_stmt 1
	.loc 3 1082 16 is_stmt 0
	sh	s5,88(s0)
	.loc 3 1085 3 is_stmt 1
.LVL582:
.LBB413:
.LBB412:
	.loc 3 232 2
.LBE412:
.LBE413:
	.loc 3 1087 3
	.loc 3 1087 21 is_stmt 0
	lw	a5,0(a5)
	.loc 3 1087 6
	beq	a5,zero,.L441
	.loc 3 1088 4 is_stmt 1
	mv	a0,s0
	jalr	a5
.LVL583:
.L441:
	.loc 3 1092 3
	mv	a0,s0
	mv	a1,s4
.LBB414:
.LBB415:
	.loc 3 766 8 is_stmt 0
	li	s2,65536
.LVL584:
.LBE415:
.LBE414:
	.loc 3 1092 3
	call	l2cap_chan_tx_give_credits
.LVL585:
	.loc 3 1093 3 is_stmt 1
.LBB418:
.LBB416:
	.loc 3 766 8 is_stmt 0
	addi	s2,s2,-1
.LBE416:
.LBE418:
	.loc 3 1093 3
	lhu	s1,70(s0)
.LVL586:
.LBB419:
.LBB417:
	.loc 3 764 2 is_stmt 1
	.loc 3 766 2
	.loc 3 767 3 is_stmt 0
	addi	s0,s0,72
.LVL587:
.L442:
	.loc 3 766 16
	addi	s1,s1,-1
.LVL588:
	slli	s1,s1,16
	srli	s1,s1,16
.LVL589:
	.loc 3 766 8
	beq	s1,s2,.L404
	.loc 3 767 3 is_stmt 1
	mv	a0,s0
	call	k_sem_give
.LVL590:
	j	.L442
.LVL591:
.L439:
.LBE417:
.LBE419:
	.loc 3 1100 3
.LBB420:
.LBB421:
	.loc 3 1009 2
	li	a5,5
	beq	s2,a5,.L445
	li	a5,8
	bne	s2,a5,.L446
	.loc 3 1011 3
	.loc 3 1011 6 is_stmt 0
	lbu	a4,61(s0)
	li	a5,1
	bgtu	a4,a5,.L446
.L516:
	.loc 3 1018 4 is_stmt 1
	.loc 3 1018 34 is_stmt 0
	li	a5,2
.L508:
	.loc 3 1022 34
	sb	a5,61(s0)
	.loc 3 1031 2 is_stmt 1
	.loc 3 1031 9 is_stmt 0
	lbu	a1,61(s0)
	lw	a0,0(s0)
	call	bt_conn_set_security
.LVL592:
.LBE421:
.LBE420:
	.loc 3 1100 6
	beq	a0,zero,.L404
.L446:
	.loc 3 1104 3 is_stmt 1
	mv	a1,s0
	mv	a0,s3
	call	bt_l2cap_chan_remove
.LVL593:
.L440:
	.loc 3 1105 9
	.loc 3 1107 3
	mv	a0,s0
.LVL594:
.L512:
.LBE424:
.LBE426:
.LBB427:
.LBB428:
	.loc 3 1412 2
	call	bt_l2cap_chan_del
.LVL595:
	j	.L404
.LVL596:
.L445:
.LBE428:
.LBE427:
.LBB431:
.LBB425:
.LBB423:
.LBB422:
	.loc 3 1017 3
	.loc 3 1017 17 is_stmt 0
	lbu	a5,61(s0)
	.loc 3 1017 6
	li	a4,1
	bleu	a5,a4,.L516
	.loc 3 1019 10 is_stmt 1
	.loc 3 1019 13 is_stmt 0
	li	a4,2
	bne	a5,a4,.L450
	.loc 3 1020 4 is_stmt 1
	.loc 3 1020 34 is_stmt 0
	li	a5,3
	j	.L508
.L450:
	.loc 3 1021 10 is_stmt 1
	.loc 3 1021 13 is_stmt 0
	li	a4,3
	bne	a5,a4,.L446
	.loc 3 1022 4 is_stmt 1
	.loc 3 1022 34 is_stmt 0
	li	a5,4
	j	.L508
.LVL597:
.L415:
.LBE422:
.LBE423:
.LBE425:
.LBE431:
	.loc 3 1455 3 is_stmt 1
.LBB432:
.LBB401:
	.loc 3 964 2
	.loc 3 965 2
	.loc 3 966 2
	.loc 3 967 2
	.loc 3 968 2
	.loc 3 970 2
	.loc 3 970 5 is_stmt 0
	li	a4,3
	bleu	a5,a4,.L517
	.loc 3 966 31
	lw	s0,8(s0)
.LVL598:
	.loc 3 975 2 is_stmt 1
	.loc 3 977 2
	.loc 3 979 2
.LBE401:
.LBE432:
	.loc 3 1455 3 is_stmt 0
	lw	s3,0(s2)
.LBB433:
.LBB402:
	.loc 3 975 7
	lbu	a5,1(s0)
	lbu	a1,0(s0)
	.loc 3 979 9
	mv	a0,s3
.LVL599:
	.loc 3 975 7
	slli	a5,a5,8
	.loc 3 979 9
	or	a1,a5,a1
	call	l2cap_remove_rx_cid
.LVL600:
	mv	s2,a0
.LVL601:
	.loc 3 980 2 is_stmt 1
	.loc 3 980 5 is_stmt 0
	bne	a0,zero,.L453
.LBB399:
	.loc 3 981 3 is_stmt 1
	.loc 3 983 3
	.loc 3 983 18 is_stmt 0
	lbu	a5,3(s0)
	lbu	a4,2(s0)
	.loc 3 986 3
	addi	a3,sp,24
	.loc 3 983 18
	slli	a5,a5,8
	or	a5,a5,a4
	.loc 3 983 13
	sh	a5,24(sp)
	.loc 3 984 3 is_stmt 1
	.loc 3 984 18 is_stmt 0
	lbu	a5,1(s0)
	lbu	a4,0(s0)
	.loc 3 986 3
	li	a2,2
	.loc 3 984 18
	slli	a5,a5,8
	or	a5,a5,a4
	.loc 3 984 13
	sh	a5,26(sp)
	.loc 3 986 3 is_stmt 1
	li	a4,4
	mv	a1,s1
	mv	a0,s3
.LVL602:
.L510:
.LBE399:
.LBE402:
.LBE433:
	.loc 3 1483 3 is_stmt 0
	call	l2cap_send_reject
.LVL603:
	.loc 3 1485 3 is_stmt 1
	j	.L404
.LVL604:
.L453:
.LBB434:
.LBB403:
	.loc 3 991 2
	.loc 3 991 8 is_stmt 0
	li	a2,4
	mv	a1,s1
	li	a0,7
.LVL605:
	call	l2cap_create_le_sig_pdu.isra.7
.LVL606:
	mv	a2,a0
.LVL607:
	.loc 3 993 2 is_stmt 1
	.loc 3 993 5 is_stmt 0
	beq	a0,zero,.L404
	.loc 3 997 2 is_stmt 1
	.loc 3 997 8 is_stmt 0
	li	a1,4
	addi	a0,a0,8
.LVL608:
	sw	a2,12(sp)
	call	net_buf_simple_add
.LVL609:
	.loc 3 998 2 is_stmt 1
	.loc 3 998 23 is_stmt 0
	lhu	a5,64(s2)
	.loc 3 998 12
	sb	a5,0(a0)
	srli	a5,a5,8
	sb	a5,1(a0)
	.loc 3 999 2 is_stmt 1
	.loc 3 999 23 is_stmt 0
	lhu	a5,84(s2)
	.loc 3 999 12
	sb	a5,2(a0)
	srli	a5,a5,8
	sb	a5,3(a0)
	.loc 3 1001 2 is_stmt 1
	mv	a0,s2
.LVL610:
	call	bt_l2cap_chan_del
.LVL611:
	.loc 3 1003 2
	lw	a2,12(sp)
	li	a1,5
	mv	a0,s3
	j	.L511
.LVL612:
.L414:
.LBE403:
.LBE434:
	.loc 3 1458 3
.LBB435:
.LBB380:
	.loc 3 1114 2
	.loc 3 1115 2
	.loc 3 1116 2
	.loc 3 1117 2
	.loc 3 1119 2
	.loc 3 1119 5 is_stmt 0
	li	a4,3
	bgtu	a5,a4,.L454
	.loc 3 1120 3 is_stmt 1
	lui	a0,%hi(.LC22)
.LVL613:
	addi	a0,a0,%lo(.LC22)
	j	.L509
.LVL614:
.L454:
	.loc 3 1124 2
	.loc 3 1126 2
	.loc 3 1128 2
	.loc 3 1124 7 is_stmt 0
	lw	a5,8(s0)
	.loc 3 1128 9
	lw	a0,0(s2)
.LVL615:
	.loc 3 1124 7
	lbu	a1,2(a5)
	lbu	a5,3(a5)
	slli	a5,a5,8
	.loc 3 1128 9
	or	a1,a5,a1
	call	l2cap_remove_rx_cid
.LVL616:
.L513:
.LBE380:
.LBE435:
.LBB436:
.LBB429:
	.loc 3 1408 2 is_stmt 1
	.loc 3 1408 5 is_stmt 0
	bne	a0,zero,.L512
	j	.L404
.LVL617:
.L408:
.LBE429:
.LBE436:
	.loc 3 1461 3 is_stmt 1
.LBB437:
.LBB438:
	.loc 3 1362 2
	.loc 3 1363 2
	.loc 3 1364 2
	.loc 3 1365 2
	.loc 3 1366 2
	.loc 3 1368 2
	.loc 3 1368 5 is_stmt 0
	li	a4,3
	bgtu	a5,a4,.L455
	.loc 3 1369 3 is_stmt 1
	lui	a0,%hi(.LC23)
.LVL618:
	addi	a0,a0,%lo(.LC23)
	j	.L509
.LVL619:
.L455:
	.loc 3 1364 30 is_stmt 0
	lw	s1,8(s0)
.LVL620:
	.loc 3 1373 2 is_stmt 1
	.loc 3 1374 2
	.loc 3 1376 2
	.loc 3 1378 2
	.loc 3 1378 9 is_stmt 0
	lw	a0,0(s2)
.LVL621:
	.loc 3 1373 6
	lbu	a5,1(s1)
	lbu	a1,0(s1)
	slli	a5,a5,8
	.loc 3 1378 9
	or	a1,a5,a1
	call	bt_l2cap_le_lookup_tx_cid
.LVL622:
	mv	s0,a0
.LVL623:
	.loc 3 1379 2 is_stmt 1
	.loc 3 1379 5 is_stmt 0
	bne	a0,zero,.L456
	.loc 3 1380 3 is_stmt 1
	lui	a0,%hi(.LC24)
	addi	a0,a0,%lo(.LC24)
	j	.L509
.L456:
	.loc 3 1374 10 is_stmt 0
	lbu	a1,3(s1)
	lbu	a5,2(s1)
	.loc 3 1386 6
	addi	a0,a0,92
	.loc 3 1374 10
	slli	a1,a1,8
	or	a1,a1,a5
	sw	a1,12(sp)
	.loc 3 1384 2 is_stmt 1
	.loc 3 1386 2
	.loc 3 1386 6 is_stmt 0
	call	k_sem_count_get
.LVL624:
	.loc 3 1386 39
	lw	a1,12(sp)
	.loc 3 1386 5
	li	a5,65536
	.loc 3 1386 39
	add	a0,a1,a0
	.loc 3 1386 5
	bltu	a0,a5,.L457
	.loc 3 1387 3 is_stmt 1
	lui	a0,%hi(.LC25)
	addi	a0,a0,%lo(.LC25)
	call	printf
.LVL625:
	.loc 3 1388 3
	mv	a0,s0
	call	bt_l2cap_chan_disconnect
.LVL626:
	.loc 3 1389 3
	j	.L404
.L457:
	.loc 3 1392 2
	mv	a0,s0
	call	l2cap_chan_tx_give_credits
.LVL627:
	.loc 3 1395 42
	.loc 3 1397 2
.LBB439:
.LBB440:
	.loc 3 1337 2
	.loc 3 1340 2
.LBB441:
.LBB442:
	.loc 3 1332 9 is_stmt 0
	addi	s1,s0,104
.L458:
.LVL628:
	.loc 3 1323 2 is_stmt 1
	.loc 3 1326 2
	.loc 3 1326 8 is_stmt 0
	lw	a0,116(s0)
	.loc 3 1326 5
	beq	a0,zero,.L461
	.loc 3 1327 3 is_stmt 1
.LVL629:
	.loc 3 1328 3
	.loc 3 1328 14 is_stmt 0
	sw	zero,116(s0)
	.loc 3 1329 3 is_stmt 1
.LVL630:
.L462:
.LBE442:
.LBE441:
	.loc 3 1340 14 is_stmt 0
	sw	a0,24(sp)
	.loc 3 1340 8
	beq	a0,zero,.L404
.LBB444:
	.loc 3 1342 3 is_stmt 1
.LVL631:
.LBE444:
.LBE440:
.LBE439:
.LBE438:
.LBE437:
.LBE456:
.LBE458:
	.loc 2 1063 2
.LBB459:
.LBB457:
.LBB450:
.LBB449:
.LBB448:
.LBB447:
.LBB445:
	.loc 3 1347 3
	.loc 3 1349 3
	.loc 3 1349 10 is_stmt 0
	lhu	a2,20(a0)
	addi	a1,sp,24
	mv	a0,s0
.LVL632:
	call	l2cap_chan_le_send_sdu
.LVL633:
	.loc 3 1350 3 is_stmt 1
	.loc 3 1350 6 is_stmt 0
	bge	a0,zero,.L458
	.loc 3 1351 4 is_stmt 1
	.loc 3 1351 7 is_stmt 0
	li	a5,-11
	bne	a0,a5,.L404
	.loc 3 1352 5 is_stmt 1
	.loc 3 1352 16 is_stmt 0
	lw	a5,24(sp)
	sw	a5,116(s0)
	j	.L404
.LVL634:
.L461:
.LBE445:
.LBB446:
.LBB443:
	.loc 3 1332 2 is_stmt 1
	.loc 3 1332 9 is_stmt 0
	li	a1,0
	mv	a0,s1
	call	net_buf_get
.LVL635:
	j	.L462
.LVL636:
.L416:
.LBE443:
.LBE446:
.LBE447:
.LBE448:
.LBE449:
.LBE450:
	.loc 3 1464 3 is_stmt 1
.LBB451:
.LBB430:
	.loc 3 1403 2
	.loc 3 1404 2
	.loc 3 1407 2
	.loc 3 1407 9 is_stmt 0
	lw	a0,0(s2)
.LVL637:
	li	a2,1
.LVL638:
	mv	a1,s1
	call	__l2cap_lookup_ident
.LVL639:
	j	.L513
.LVL640:
.L413:
.LBE430:
.LBE451:
	.loc 3 1472 3 is_stmt 1
	.loc 3 1473 4
.LBB452:
.LBB453:
	.loc 3 564 2
	.loc 3 565 2
	.loc 3 566 2
	.loc 3 567 2
	.loc 3 568 1
	.loc 3 570 2
	.loc 3 570 5 is_stmt 0
	li	a4,7
	bgtu	a5,a4,.L465
	.loc 3 571 3 is_stmt 1
	lui	a0,%hi(.LC26)
.LVL641:
	addi	a0,a0,%lo(.LC26)
	j	.L509
.LVL642:
.L465:
.LBE453:
.LBE452:
	.loc 3 1473 4 is_stmt 0
	lw	s2,0(s2)
.LVL643:
.LBB455:
.LBB454:
	.loc 3 575 2 is_stmt 1
	.loc 3 575 5 is_stmt 0
	lbu	a5,3(s2)
	beq	a5,zero,.L467
	.loc 3 576 3 is_stmt 1
	li	a4,0
	li	a3,0
	li	a2,0
.LVL644:
	mv	a1,s1
	mv	a0,s2
.LVL645:
	j	.L510
.LVL646:
.L467:
	.loc 3 567 34 is_stmt 0
	lw	a5,8(s0)
	.loc 3 581 2 is_stmt 1
	.loc 3 590 8 is_stmt 0
	li	a2,2
.LVL647:
	mv	a1,s1
	.loc 3 581 27
	lbu	a4,1(a5)
	lbu	a3,0(a5)
	.loc 3 590 8
	li	a0,19
.LVL648:
	.loc 3 581 27
	slli	a4,a4,8
	or	a4,a4,a3
	.loc 3 581 21
	sh	a4,24(sp)
.LVL649:
	.loc 3 582 2 is_stmt 1
	.loc 3 582 27 is_stmt 0
	lbu	a4,3(a5)
	lbu	a3,2(a5)
	slli	a4,a4,8
	or	a4,a4,a3
	.loc 3 582 21
	sh	a4,26(sp)
	.loc 3 583 2 is_stmt 1
	.loc 3 583 22 is_stmt 0
	lbu	a4,5(a5)
	lbu	a3,4(a5)
	slli	a4,a4,8
	or	a4,a4,a3
	.loc 3 583 16
	sh	a4,28(sp)
	.loc 3 584 2 is_stmt 1
	.loc 3 584 22 is_stmt 0
	lbu	a4,6(a5)
	lbu	a5,7(a5)
	slli	a5,a5,8
	or	a5,a5,a4
	.loc 3 584 16
	sh	a5,30(sp)
	.loc 3 588 23 is_stmt 1
	.loc 3 590 2
	.loc 3 590 8 is_stmt 0
	call	l2cap_create_le_sig_pdu.isra.7
.LVL650:
	mv	s0,a0
.LVL651:
	.loc 3 592 2 is_stmt 1
	.loc 3 592 5 is_stmt 0
	beq	a0,zero,.L404
	.loc 3 596 2 is_stmt 1
	.loc 3 596 13 is_stmt 0
	addi	a1,sp,24
	mv	a0,s2
	call	le_param_req
.LVL652:
	mv	s1,a0
.LVL653:
	.loc 3 598 2 is_stmt 1
	.loc 3 598 8 is_stmt 0
	li	a1,2
	addi	a0,s0,8
	call	net_buf_simple_add
.LVL654:
	.loc 3 599 2 is_stmt 1
	.loc 3 599 5 is_stmt 0
	xori	a5,s1,1
	sb	a5,0(a0)
	sb	zero,1(a0)
	.loc 3 605 2 is_stmt 1
	mv	a2,s0
	li	a1,5
	mv	a0,s2
.LVL655:
	call	bt_l2cap_send
.LVL656:
	.loc 3 607 2
	.loc 3 607 5 is_stmt 0
	beq	s1,zero,.L404
	.loc 3 608 3 is_stmt 1
	addi	a1,sp,24
	mv	a0,s2
	call	bt_conn_le_conn_update
.LVL657:
	j	.L404
.LVL658:
.L407:
.LBE454:
.LBE455:
	.loc 3 1477 3
	.loc 3 1482 3
	lui	a0,%hi(.LC27)
.LVL659:
	addi	a0,a0,%lo(.LC27)
	call	printf
.LVL660:
	.loc 3 1483 3
	li	a4,0
	li	a3,0
	li	a2,0
	lbu	a1,1(s3)
	lw	a0,0(s2)
	j	.L510
.LBE457:
.LBE459:
	.cfi_endproc
.LFE135:
	.size	l2cap_recv, .-l2cap_recv
	.section	.text.bt_l2cap_chan_send,"ax",@progbits
	.align	1
	.globl	bt_l2cap_chan_send
	.type	bt_l2cap_chan_send, @function
bt_l2cap_chan_send:
.LFB153:
	.loc 3 1925 1
	.cfi_startproc
.LVL661:
	.loc 3 1926 2
	.loc 3 1928 2
	.loc 3 1925 1 is_stmt 0
	addi	sp,sp,-32
	.cfi_def_cfa_offset 32
	sw	s0,24(sp)
	sw	ra,28(sp)
	sw	s1,20(sp)
	.cfi_offset 8, -8
	.cfi_offset 1, -4
	.cfi_offset 9, -12
	.loc 3 1925 1
	sw	a1,12(sp)
	.loc 3 1929 10
	li	s0,-22
	.loc 3 1928 5
	beq	a1,zero,.L518
	.loc 3 1934 11
	lw	a4,0(a0)
	mv	s1,a0
	.loc 3 1932 2 is_stmt 1
	.loc 3 1934 2
	.loc 3 1935 10 is_stmt 0
	li	s0,-57
	.loc 3 1934 5
	beq	a4,zero,.L518
	.loc 3 1934 18 discriminator 1
	lbu	a3,13(a4)
	li	a4,4
	bne	a3,a4,.L518
	.loc 3 1938 2 is_stmt 1
	.loc 3 1943 2
	.loc 3 1943 8 is_stmt 0
	li	a2,0
	addi	a1,sp,12
.LVL662:
	call	l2cap_chan_le_send_sdu
.LVL663:
	mv	s0,a0
.LVL664:
	.loc 3 1944 2 is_stmt 1
	.loc 3 1944 5 is_stmt 0
	bge	a0,zero,.L518
	.loc 3 1945 3 is_stmt 1
	.loc 3 1945 6 is_stmt 0
	li	a5,-11
	bne	a0,a5,.L520
	.loc 3 1947 4 is_stmt 1
	lw	a1,12(sp)
	addi	a0,s1,104
	call	net_buf_put
.LVL665:
	.loc 3 1948 4
	.loc 2 1063 2
	.loc 3 1948 11 is_stmt 0
	lw	a5,12(sp)
	lhu	s0,20(a5)
.LVL666:
.L518:
	.loc 3 1954 1
	mv	a0,s0
	lw	ra,28(sp)
	.cfi_remember_state
	.cfi_restore 1
	lw	s0,24(sp)
	.cfi_restore 8
	lw	s1,20(sp)
	.cfi_restore 9
	addi	sp,sp,32
	.cfi_def_cfa_offset 0
	jr	ra
.LVL667:
.L520:
	.cfi_restore_state
	.loc 3 1950 3 is_stmt 1
	mv	a1,a0
	lui	a0,%hi(.LC28)
	addi	a0,a0,%lo(.LC28)
	call	printf
.LVL668:
	j	.L518
	.cfi_endproc
.LFE153:
	.size	bt_l2cap_chan_send, .-bt_l2cap_chan_send
	.globl	le_fixed_chan
	.section	._bt_l2cap_fixed_chan.static.le_fixed_chan,"a"
	.align	2
	.type	le_fixed_chan, @object
	.size	le_fixed_chan, 12
le_fixed_chan:
	.half	5
	.zero	2
	.word	l2cap_accept
	.zero	4
	.section	.bss.bt_l2cap_pool,"aw",@nobits
	.align	2
	.set	.LANCHOR2,. + 0
	.type	bt_l2cap_pool, @object
	.size	bt_l2cap_pool, 304
bt_l2cap_pool:
	.zero	304
	.section	.data.ops.5646,"aw"
	.align	2
	.set	.LANCHOR3,. + 0
	.type	ops.5646, @object
	.size	ops.5646, 28
ops.5646:
	.word	l2cap_connected
	.word	l2cap_disconnected
	.zero	8
	.word	l2cap_recv
	.zero	8
	.section	.rodata.CSWTCH.83,"a"
	.align	2
	.set	.LANCHOR4,. + 0
	.type	CSWTCH.83, @object
	.size	CSWTCH.83, 20
CSWTCH.83:
	.word	.LC29
	.word	.LC30
	.word	.LC31
	.word	.LC32
	.word	.LC33
	.section	.rodata.bt_l2cap_chan_send.str1.4,"aMS",@progbits,1
	.align	2
.LC28:
	.string	"failed to send message %d\r\n"
	.section	.rodata.bt_l2cap_chan_state_str.str1.4,"aMS",@progbits,1
	.align	2
.LC2:
	.string	"unknown"
	.section	.rodata.bt_l2cap_recv.str1.4,"aMS",@progbits,1
	.align	2
.LC6:
	.string	"Too small L2CAP PDU received\r\n"
	.zero	1
.LC7:
	.string	"Ignoring data for unknown CID 0x%04x\r\n"
	.section	.rodata.bt_l2cap_server_register.str1.4,"aMS",@progbits,1
	.align	2
.LC5:
	.string	"No free dynamic PSMs available\r\n"
	.section	.rodata.l2cap_accept.str1.4,"aMS",@progbits,1
	.align	2
.LC0:
	.string	"No available L2CAP context for conn %p\r\n"
	.section	.rodata.l2cap_chan_add.str1.4,"aMS",@progbits,1
	.align	2
.LC4:
	.string	"Unable to allocate L2CAP CID\r\n"
	.section	.rodata.l2cap_chan_le_recv_seg.str1.4,"aMS",@progbits,1
	.align	2
.LC8:
	.string	"SDU length mismatch\r\n"
	.zero	2
.LC9:
	.string	"Unable to store SDU\r\n"
	.zero	2
.LC10:
	.string	"err %d\r\n"
	.section	.rodata.l2cap_create_le_sig_pdu.isra.7.str1.4,"aMS",@progbits,1
	.align	2
.LC1:
	.string	"Unable to allocate buffer for op 0x%02x\r\n"
	.section	.rodata.l2cap_recv.str1.4,"aMS",@progbits,1
	.align	2
.LC14:
	.string	"Too small L2CAP signaling PDU\r\n"
.LC15:
	.string	"L2CAP length mismatch (%u != %u)\r\n"
	.zero	1
.LC16:
	.string	"Invalid ident value in L2CAP PDU\r\n"
	.zero	1
.LC17:
	.string	"Too small LE conn param rsp\r\n"
	.zero	2
.LC18:
	.string	"Too small LE conn req packet size\r\n"
.LC19:
	.string	"Invalid LE-Conn Req params\r\n"
	.zero	3
.LC20:
	.string	"Too small LE conn rsp packet size\r\n"
.LC21:
	.string	"Cannot find channel for ident %u\r\n"
	.zero	1
.LC22:
	.string	"Too small LE disconn rsp packet size\r\n"
	.zero	1
.LC23:
	.string	"Too small LE Credits packet size\r\n"
	.zero	1
.LC24:
	.string	"Unable to find channel of LE Credits packet\r\n"
	.zero	2
.LC25:
	.string	"Credits overflow\r\n"
	.zero	1
.LC26:
	.string	"Too small LE conn update param req\r\n"
	.zero	3
.LC27:
	.string	"Unknown L2CAP PDU code 0x%02x\r\n"
	.section	.rodata.l2cap_rtx_timeout.str1.4,"aMS",@progbits,1
	.align	2
.LC3:
	.string	"chan %p timeout\r\n"
	.section	.rodata.l2cap_rx_process.str1.4,"aMS",@progbits,1
	.align	2
.LC11:
	.string	"No credits to receive packet\r\n"
	.zero	1
.LC12:
	.string	"Invalid SDU length\r\n"
	.zero	3
.LC13:
	.string	"Unable to allocate buffer for SDU\r\n"
	.section	.rodata.str1.4,"aMS",@progbits,1
	.align	2
.LC29:
	.string	"disconnected"
	.zero	3
.LC30:
	.string	"connect"
.LC31:
	.string	"config"
	.zero	1
.LC32:
	.string	"connected"
	.zero	2
.LC33:
	.string	"disconnect"
	.section	.sbss.ident.5188,"aw",@nobits
	.set	.LANCHOR0,. + 0
	.type	ident.5188, @object
	.size	ident.5188, 1
ident.5188:
	.zero	1
	.section	.sbss.servers,"aw",@nobits
	.align	2
	.set	.LANCHOR1,. + 0
	.type	servers, @object
	.size	servers, 8
servers:
	.zero	8
	.text
.Letext0:
	.file 6 "/b-l/bl_iot_sdk_new/toolchain/riscv/Linux/lib/gcc/riscv64-unknown-elf/8.3.0/include/stdint-gcc.h"
	.file 7 "/b-l/bl_iot_sdk_new/toolchain/riscv/Linux/lib/gcc/riscv64-unknown-elf/8.3.0/include/stddef.h"
	.file 8 "/b-l/bl_iot_sdk_new/components/network/ble/blestack/src/common/include/zephyr/types.h"
	.file 9 "/b-l/bl_iot_sdk_new/components/network/ble/blestack/src/common/include/misc/dlist.h"
	.file 10 "/b-l/bl_iot_sdk_new/toolchain/riscv/Linux/riscv64-unknown-elf/include/sys/_types.h"
	.file 11 "/b-l/bl_iot_sdk_new/toolchain/riscv/Linux/riscv64-unknown-elf/include/sys/reent.h"
	.file 12 "/b-l/bl_iot_sdk_new/toolchain/riscv/Linux/riscv64-unknown-elf/include/sys/lock.h"
	.file 13 "/b-l/bl_iot_sdk_new/components/network/ble/blestack/src/port/include/bl_port.h"
	.file 14 "/b-l/bl_iot_sdk_new/components/network/ble/blestack/src/common/include/work_q.h"
	.file 15 "/b-l/bl_iot_sdk_new/components/network/ble/blestack/src/port/include/zephyr.h"
	.file 16 "/b-l/bl_iot_sdk_new/components/network/ble/blestack/src/include/bluetooth/addr.h"
	.file 17 "/b-l/bl_iot_sdk_new/components/network/ble/blestack/src/include/bluetooth/conn.h"
	.file 18 "/b-l/bl_iot_sdk_new/components/network/ble/blestack/src/host/conn_internal.h"
	.file 19 "/b-l/bl_iot_sdk_new/components/network/ble/blestack/src/include/drivers/bluetooth/hci_driver.h"
	.file 20 "/b-l/bl_iot_sdk_new/components/bl602/freertos_riscv_ram/portable/GCC/RISC-V/portmacro.h"
	.file 21 "/b-l/bl_iot_sdk_new/components/network/ble/blestack/src/host/hci_core.h"
	.file 22 "/b-l/bl_iot_sdk_new/components/network/ble/blestack/src/include/bluetooth/l2cap.h"
	.file 23 "/b-l/bl_iot_sdk_new/toolchain/riscv/Linux/riscv64-unknown-elf/include/stdio.h"
	.file 24 "/b-l/bl_iot_sdk_new/toolchain/riscv/Linux/riscv64-unknown-elf/include/string.h"