	.file	"iperf.c"
	.option nopic
	.attribute arch, "rv32i2p0_m2p0_f2p0_c2p0"
	.attribute unaligned_access, 0
	.attribute stack_align, 16
	.text
.Ltext0:
	.cfi_sections	.debug_frame
	.section	.text.iperf_server_udp_entry,"ax",@progbits
	.align	1
	.type	iperf_server_udp_entry, @function
iperf_server_udp_entry:
.LFB11:
	.file 1 "/b-l/bl_iot_sdk_new/components/network/netutils/iperf/iperf.c"
	.loc 1 515 1
	.cfi_startproc
.LVL0:
	.loc 1 516 5
	.loc 1 517 5
	.loc 1 519 5
	.loc 1 515 1 is_stmt 0
	addi	sp,sp,-32
	.cfi_def_cfa_offset 32
	sw	ra,28(sp)
	.cfi_offset 1, -4
	.loc 1 515 1
	sw	a0,12(sp)
	.loc 1 519 16
	call	strlen
.LVL1:
	.loc 1 520 5 is_stmt 1
	.loc 1 520 12 is_stmt 0
	addi	a0,a0,1
.LVL2:
	call	pvPortMalloc
.LVL3:
	.loc 1 521 5
	lw	a1,12(sp)
	.loc 1 520 12
	sw	a0,8(sp)
.LVL4:
	.loc 1 521 5 is_stmt 1
	call	strcpy
.LVL5:
	.loc 1 522 5
	lw	a2,8(sp)
	.loc 1 523 1 is_stmt 0
	lw	ra,28(sp)
	.cfi_restore 1
	.loc 1 522 5
	lui	a1,%hi(iperf_server_udp)
	lui	a0,%hi(.LC0)
	.loc 1 523 1
	.loc 1 522 5
	li	a3,4096
	addi	a1,a1,%lo(iperf_server_udp)
	addi	a0,a0,%lo(.LC0)
	.loc 1 523 1
	addi	sp,sp,32
	.cfi_def_cfa_offset 0
.LVL6:
	.loc 1 522 5
	tail	aos_task_new
.LVL7:
	.cfi_endproc
.LFE11:
	.size	iperf_server_udp_entry, .-iperf_server_udp_entry
	.section	.text.iperf_client_udp_entry,"ax",@progbits
	.align	1
	.type	iperf_client_udp_entry, @function
iperf_client_udp_entry:
.LFB10:
	.loc 1 504 1 is_stmt 1
	.cfi_startproc
.LVL8:
	.loc 1 505 5
	.loc 1 506 5
	.loc 1 508 5
	.loc 1 504 1 is_stmt 0
	addi	sp,sp,-32
	.cfi_def_cfa_offset 32
	sw	ra,28(sp)
	.cfi_offset 1, -4
	.loc 1 504 1
	sw	a0,12(sp)
	.loc 1 508 16
	call	strlen
.LVL9:
	.loc 1 509 5 is_stmt 1
	.loc 1 509 12 is_stmt 0
	addi	a0,a0,4
.LVL10:
	call	pvPortMalloc
.LVL11:
	.loc 1 510 5
	lw	a1,12(sp)
	.loc 1 509 12
	sw	a0,8(sp)
.LVL12:
	.loc 1 510 5 is_stmt 1
	call	strcpy
.LVL13:
	.loc 1 511 5
	lw	a2,8(sp)
	.loc 1 512 1 is_stmt 0
	lw	ra,28(sp)
	.cfi_restore 1
	.loc 1 511 5
	lui	a1,%hi(iperf_client_udp)
	lui	a0,%hi(.LC1)
	.loc 1 512 1
	.loc 1 511 5
	li	a3,4096
	addi	a1,a1,%lo(iperf_client_udp)
	addi	a0,a0,%lo(.LC1)
	.loc 1 512 1
	addi	sp,sp,32
	.cfi_def_cfa_offset 0
.LVL14:
	.loc 1 511 5
	tail	aos_task_new
.LVL15:
	.cfi_endproc
.LFE10:
	.size	iperf_client_udp_entry, .-iperf_client_udp_entry
	.section	.text.iperf_server_entry,"ax",@progbits
	.align	1
	.type	iperf_server_entry, @function
iperf_server_entry:
.LFB13:
	.loc 1 633 1 is_stmt 1
	.cfi_startproc
.LVL16:
	.loc 1 634 5
	.loc 1 635 5
	.loc 1 637 5
	.loc 1 633 1 is_stmt 0
	addi	sp,sp,-32
	.cfi_def_cfa_offset 32
	sw	ra,28(sp)
	.cfi_offset 1, -4
	.loc 1 633 1
	sw	a0,12(sp)
	.loc 1 637 16
	call	strlen
.LVL17:
	.loc 1 638 5 is_stmt 1
	.loc 1 638 12 is_stmt 0
	addi	a0,a0,4
.LVL18:
	call	pvPortMalloc
.LVL19:
	.loc 1 639 5
	lw	a1,12(sp)
	.loc 1 638 12
	sw	a0,8(sp)
.LVL20:
	.loc 1 639 5 is_stmt 1
	call	strcpy
.LVL21:
	.loc 1 640 5
	lw	a2,8(sp)
	.loc 1 641 1 is_stmt 0
	lw	ra,28(sp)
	.cfi_restore 1
	.loc 1 640 5
	lui	a1,%hi(iperf_server)
	lui	a0,%hi(.LC2)
	.loc 1 641 1
	.loc 1 640 5
	li	a3,4096
	addi	a1,a1,%lo(iperf_server)
	addi	a0,a0,%lo(.LC2)
	.loc 1 641 1
	addi	sp,sp,32
	.cfi_def_cfa_offset 0
.LVL22:
	.loc 1 640 5
	tail	aos_task_new
.LVL23:
	.cfi_endproc
.LFE13:
	.size	iperf_server_entry, .-iperf_server_entry
	.section	.text.iperf_client_tcp_entry,"ax",@progbits
	.align	1
	.type	iperf_client_tcp_entry, @function
iperf_client_tcp_entry:
.LFB6:
	.loc 1 204 1 is_stmt 1
	.cfi_startproc
.LVL24:
	.loc 1 205 5
	.loc 1 206 5
	.loc 1 208 5
	.loc 1 204 1 is_stmt 0
	addi	sp,sp,-32
	.cfi_def_cfa_offset 32
	sw	ra,28(sp)
	.cfi_offset 1, -4
	.loc 1 204 1
	sw	a0,12(sp)
	.loc 1 208 16
	call	strlen
.LVL25:
	.loc 1 209 5 is_stmt 1
	.loc 1 209 12 is_stmt 0
	addi	a0,a0,4
.LVL26:
	call	pvPortMalloc
.LVL27:
	.loc 1 210 5
	lw	a1,12(sp)
	.loc 1 209 12
	sw	a0,8(sp)
.LVL28:
	.loc 1 210 5 is_stmt 1
	call	strcpy
.LVL29:
	.loc 1 211 5
	lw	a2,8(sp)
	.loc 1 212 1 is_stmt 0
	lw	ra,28(sp)
	.cfi_restore 1
	.loc 1 211 5
	lui	a1,%hi(iperf_client_tcp)
	lui	a0,%hi(.LC3)
	.loc 1 212 1
	.loc 1 211 5
	li	a3,4096
	addi	a1,a1,%lo(iperf_client_tcp)
	addi	a0,a0,%lo(.LC3)
	.loc 1 212 1
	addi	sp,sp,32
	.cfi_def_cfa_offset 0
.LVL30:
	.loc 1 211 5
	tail	aos_task_new
.LVL31:
	.cfi_endproc
.LFE6:
	.size	iperf_client_tcp_entry, .-iperf_client_tcp_entry
	.section	.text.iperf_server_udp,"ax",@progbits
	.align	1
	.type	iperf_server_udp, @function
iperf_server_udp:
.LFB9:
	.loc 1 456 1 is_stmt 1
	.cfi_startproc
.LVL32:
	.loc 1 457 5
	.loc 1 458 5
	.loc 1 459 5
	.loc 1 460 5
	.loc 1 462 5
	.loc 1 464 5
	.loc 1 456 1 is_stmt 0
	addi	sp,sp,-96
	.cfi_def_cfa_offset 96
	sw	s1,84(sp)
	sw	ra,92(sp)
	sw	s0,88(sp)
	.cfi_offset 9, -12
	.cfi_offset 1, -4
	.cfi_offset 8, -8
	.loc 1 456 1
	mv	s1,a0
	.loc 1 464 7
	bne	a0,zero,.L10
	.loc 1 464 13 is_stmt 1 discriminator 1
	call	vAssertCalled
.LVL33:
.L10:
	.loc 1 469 5
	.loc 1 469 14 is_stmt 0
	call	udp_new
.LVL34:
	mv	s0,a0
.LVL35:
	.loc 1 470 5 is_stmt 1
	.loc 1 470 8 is_stmt 0
	bne	a0,zero,.L11
	.loc 1 471 9 is_stmt 1
	lui	a0,%hi(.LC4)
	addi	a0,a0,%lo(.LC4)
	call	printf
.LVL36:
	.loc 1 472 9
.L12:
	.loc 1 500 5
	mv	a0,s1
	call	vPortFree
.LVL37:
	.loc 1 501 1 is_stmt 0
	lw	ra,92(sp)
	.cfi_remember_state
	.cfi_restore 1
	lw	s0,88(sp)
	.cfi_restore 8
.LVL38:
	lw	s1,84(sp)
	.cfi_restore 9
.LVL39:
	addi	sp,sp,96
	.cfi_def_cfa_offset 0
	jr	ra
.LVL40:
.L11:
	.cfi_restore_state
	.loc 1 475 5 is_stmt 1
	.loc 1 475 22 is_stmt 0
	mv	a0,s1
	call	ipaddr_addr
.LVL41:
	.loc 1 476 11
	li	a2,4096
	.loc 1 475 20
	sw	a0,12(sp)
	.loc 1 476 5 is_stmt 1
	.loc 1 476 11 is_stmt 0
	addi	a2,a2,905
	addi	a1,sp,12
	mv	a0,s0
	call	udp_bind
.LVL42:
	.loc 1 477 5 is_stmt 1
	.loc 1 477 8 is_stmt 0
	beq	a0,zero,.L13
	.loc 1 478 9 is_stmt 1
	lui	a0,%hi(.LC5)
.LVL43:
	addi	a0,a0,%lo(.LC5)
.L18:
.L14:
	.loc 1 495 5 is_stmt 0
	call	printf
.LVL44:
	.loc 1 498 5 is_stmt 1
	mv	a0,s0
	call	udp_remove
.LVL45:
	j	.L12
.LVL46:
.L13:
	.loc 1 482 5
	lui	a0,%hi(.LC6)
.LVL47:
	addi	a0,a0,%lo(.LC6)
	call	printf
.LVL48:
	.loc 1 484 5
	li	a2,64
	li	a1,0
	addi	a0,sp,16
	call	memset
.LVL49:
	.loc 1 485 5
	.loc 1 485 19 is_stmt 0
	lui	a5,%hi(.LC7)
	flw	fa5,%lo(.LC7)(a5)
	.loc 1 487 5
	lui	a1,%hi(iperf_server_udp_recv_fn)
	.loc 1 486 23
	li	a5,-1
	.loc 1 487 5
	addi	a2,sp,16
	addi	a1,a1,%lo(iperf_server_udp_recv_fn)
	mv	a0,s0
	.loc 1 485 19
	fsw	fa5,72(sp)
	.loc 1 486 5 is_stmt 1
	.loc 1 486 23 is_stmt 0
	sw	a5,24(sp)
	.loc 1 487 5 is_stmt 1
	call	udp_recv
.LVL50:
	.loc 1 491 5
.L15:
	.loc 1 491 20 is_stmt 0
	lw	a5,16(sp)
	.loc 1 491 11
	beq	a5,zero,.L16
	.loc 1 495 5 is_stmt 1
	lui	a0,%hi(.LC8)
	addi	a0,a0,%lo(.LC8)
	j	.L18
.L16:
	.loc 1 492 9
	li	a0,1000
	call	vTaskDelay
.LVL51:
	j	.L15
	.cfi_endproc
.LFE9:
	.size	iperf_server_udp, .-iperf_server_udp
	.globl	__floatundisf
	.globl	__extendsfdf2
	.section	.text.iperf_server_udp_recv_fn,"ax",@progbits
	.align	1
	.type	iperf_server_udp_recv_fn, @function
iperf_server_udp_recv_fn:
.LFB8:
	.loc 1 368 1
	.cfi_startproc
.LVL52:
	.loc 1 369 5
	.loc 1 368 1 is_stmt 0
	addi	sp,sp,-144
	.cfi_def_cfa_offset 144
	sw	s0,136(sp)
	sw	s5,116(sp)
	sw	s6,112(sp)
	.cfi_offset 8, -8
	.cfi_offset 21, -28
	.cfi_offset 22, -32
	mv	s5,a2
	mv	s0,a0
.LVL53:
	.loc 1 370 5 is_stmt 1
	.loc 1 368 1 is_stmt 0
	mv	s6,a1
	.loc 1 370 10
	li	a2,32
.LVL54:
	li	a1,0
.LVL55:
	addi	a0,sp,48
.LVL56:
	.loc 1 368 1
	sw	s7,108(sp)
	sw	s8,104(sp)
	sw	ra,140(sp)
	sw	s1,132(sp)
	sw	s2,128(sp)
	sw	s3,124(sp)
	sw	s4,120(sp)
	sw	s9,100(sp)
	fsw	fs0,92(sp)
	fsw	fs1,88(sp)
	fsw	fs2,84(sp)
	.cfi_offset 23, -36
	.cfi_offset 24, -40
	.cfi_offset 1, -4
	.cfi_offset 9, -12
	.cfi_offset 18, -16
	.cfi_offset 19, -20
	.cfi_offset 20, -24
	.cfi_offset 25, -44
	.cfi_offset 40, -52
	.cfi_offset 41, -56
	.cfi_offset 50, -60
	.loc 1 368 1
	mv	s7,a3
	mv	s8,a4
	.loc 1 370 10
	call	memset
.LVL57:
	.loc 1 371 5 is_stmt 1
	.loc 1 374 5
	.loc 1 374 8 is_stmt 0
	beq	s5,zero,.L19
	.loc 1 377 5 is_stmt 1
	.loc 1 377 20 is_stmt 0
	call	bl_timer_now_us
.LVL58:
	.loc 1 378 29
	lw	s9,24(s0)
	.loc 1 377 18
	sw	a0,32(s0)
	.loc 1 378 5 is_stmt 1
	.loc 1 377 20 is_stmt 0
	mv	s4,a0
	.loc 1 378 47
	bne	s9,zero,.L22
	mv	s9,a0
.L22:
	.loc 1 379 28 discriminator 4
	lw	a4,28(s0)
	.loc 1 378 24 discriminator 4
	sw	s9,24(s0)
	.loc 1 379 5 is_stmt 1 discriminator 4
	.loc 1 379 45 is_stmt 0 discriminator 4
	bne	a4,zero,.L23
	.loc 1 379 45
	mv	a4,s4
.L23:
	.loc 1 379 23 discriminator 4
	sw	a4,28(s0)
	.loc 1 382 5 is_stmt 1 discriminator 4
	.loc 1 382 23 is_stmt 0 discriminator 4
	lhu	s2,8(s5)
	.loc 1 382 19 discriminator 4
	lw	s1,48(s0)
	lw	a1,52(s0)
	.loc 1 382 49 discriminator 4
	addi	s2,s2,54
	.loc 1 384 23 discriminator 4
	lw	a5,4(s0)
	.loc 1 382 19 discriminator 4
	add	s1,s2,s1
	sltu	s2,s1,s2
	.loc 1 384 23 discriminator 4
	addi	a5,a5,1
	.loc 1 382 19 discriminator 4
	add	s2,s2,a1
	sw	s1,48(s0)
	sw	s2,52(s0)
	.loc 1 384 5 is_stmt 1 discriminator 4
	.loc 1 384 23 is_stmt 0 discriminator 4
	sw	a5,4(s0)
	.loc 1 387 5 is_stmt 1 discriminator 4
.LBB2:
	.loc 1 387 24 discriminator 4
.LVL59:
	.loc 1 387 43 discriminator 4
	.loc 1 387 66 is_stmt 0 discriminator 4
	lw	a5,4(s5)
.LVL60:
	.loc 1 387 89 is_stmt 1 discriminator 4
	.loc 1 387 135 discriminator 4
	.loc 1 387 180 discriminator 4
	.loc 1 387 51 is_stmt 0 discriminator 4
	lbu	s3,0(a5)
	.loc 1 387 97 discriminator 4
	lbu	a3,1(a5)
	.loc 1 387 82 discriminator 4
	slli	s3,s3,24
	.loc 1 387 128 discriminator 4
	slli	a3,a3,16
	.loc 1 387 94 discriminator 4
	or	s3,s3,a3
	.loc 1 387 219 discriminator 4
	lbu	a3,3(a5)
	or	a3,s3,a3
.LVL61:
.LBE2:
	.loc 1 388 5 is_stmt 1 discriminator 4
.LBB3:
	.loc 1 387 143 is_stmt 0 discriminator 4
	lbu	s3,2(a5)
	.loc 1 387 174 discriminator 4
	slli	s3,s3,8
	.loc 1 387 185 discriminator 4
	or	s3,s3,a3
.LBE3:
	.loc 1 388 8 discriminator 4
	bge	s3,zero,.L24
.LBB4:
	.loc 1 389 9 is_stmt 1
.LVL62:
.LBB5:
	.loc 1 390 11
	.loc 1 390 52
	.loc 1 390 84 is_stmt 0
	li	a4,-128
	sb	a4,12(a5)
.LVL63:
	.loc 1 390 107 is_stmt 1
	.loc 1 390 139 is_stmt 0
	sb	zero,13(a5)
	.loc 1 390 162 is_stmt 1
	.loc 1 390 194 is_stmt 0
	sb	zero,14(a5)
	.loc 1 390 216 is_stmt 1
	.loc 1 390 248 is_stmt 0
	sb	zero,15(a5)
.LBE5:
	.loc 1 390 271 is_stmt 1
.LBB6:
	.loc 1 391 11
.LVL64:
	.loc 1 391 42
	.loc 1 391 79 is_stmt 0
	sb	zero,16(a5)
	.loc 1 391 102 is_stmt 1
	.loc 1 391 139 is_stmt 0
	sb	zero,17(a5)
	.loc 1 391 162 is_stmt 1
	.loc 1 391 199 is_stmt 0
	sb	zero,18(a5)
	.loc 1 391 221 is_stmt 1
	.loc 1 391 258 is_stmt 0
	sb	zero,19(a5)
.LBE6:
	.loc 1 391 281 is_stmt 1
.LBB7:
	.loc 1 392 11
	.loc 1 392 41 is_stmt 0
	lw	a4,40(s0)
.LVL65:
	.loc 1 392 60 is_stmt 1
.LBE7:
.LBB8:
	.loc 1 393 77 is_stmt 0
	sb	zero,24(a5)
	.loc 1 393 135
	sb	zero,25(a5)
.LBE8:
.LBB9:
	.loc 1 392 105
	srli	a3,a4,24
	.loc 1 392 97
	sb	a3,20(a5)
	.loc 1 392 120 is_stmt 1
	.loc 1 392 165 is_stmt 0
	srli	a3,a4,16
	.loc 1 392 157
	sb	a3,21(a5)
	.loc 1 392 180 is_stmt 1
	.loc 1 392 225 is_stmt 0
	srli	a3,a4,8
	.loc 1 392 217
	sb	a3,22(a5)
	.loc 1 392 239 is_stmt 1
	.loc 1 392 276 is_stmt 0
	sb	a4,23(a5)
.LBE9:
	.loc 1 392 299 is_stmt 1
.LBB10:
	.loc 1 393 11
.LVL66:
	.loc 1 393 42
	.loc 1 393 100
	.loc 1 393 158
	.loc 1 393 193 is_stmt 0
	sb	zero,26(a5)
	.loc 1 393 215 is_stmt 1
	.loc 1 393 250 is_stmt 0
	sb	zero,27(a5)
.LBE10:
	.loc 1 393 273 is_stmt 1
.LBB11:
	.loc 1 394 11
.LVL67:
	.loc 1 394 42
	.loc 1 394 78 is_stmt 0
	sb	zero,28(a5)
	.loc 1 394 101 is_stmt 1
	.loc 1 394 137 is_stmt 0
	sb	zero,29(a5)
	.loc 1 394 160 is_stmt 1
	.loc 1 394 196 is_stmt 0
	sb	zero,30(a5)
	.loc 1 394 218 is_stmt 1
	.loc 1 394 254 is_stmt 0
	sb	zero,31(a5)
.LBE11:
	.loc 1 394 277 is_stmt 1
.LBB12:
	.loc 1 395 11
	.loc 1 395 20 is_stmt 0
	lw	a4,16(s0)
.LVL68:
	.loc 1 395 55 is_stmt 1
.LBE12:
	.loc 1 399 9 is_stmt 0
	lui	a0,%hi(.LC9)
	addi	a0,a0,%lo(.LC9)
.LBB13:
	.loc 1 395 99
	srli	a3,a4,24
	.loc 1 395 91
	sb	a3,32(a5)
	.loc 1 395 114 is_stmt 1
	.loc 1 395 158 is_stmt 0
	srli	a3,a4,16
	.loc 1 395 150
	sb	a3,33(a5)
	.loc 1 395 173 is_stmt 1
	.loc 1 395 217 is_stmt 0
	srli	a3,a4,8
	.loc 1 395 209
	sb	a3,34(a5)
	.loc 1 395 231 is_stmt 1
	.loc 1 395 267 is_stmt 0
	sb	a4,35(a5)
.LBE13:
	.loc 1 395 290 is_stmt 1
.LBB14:
	.loc 1 396 11
	.loc 1 396 20 is_stmt 0
	lw	a4,12(s0)
.LVL69:
	.loc 1 396 62 is_stmt 1
	.loc 1 396 109 is_stmt 0
	srli	a3,a4,24
	.loc 1 396 101
	sb	a3,36(a5)
	.loc 1 396 124 is_stmt 1
	.loc 1 396 171 is_stmt 0
	srli	a3,a4,16
	.loc 1 396 163
	sb	a3,37(a5)
	.loc 1 396 186 is_stmt 1
	.loc 1 396 233 is_stmt 0
	srli	a3,a4,8
	.loc 1 396 225
	sb	a3,38(a5)
	.loc 1 396 247 is_stmt 1
	.loc 1 396 286 is_stmt 0
	sb	a4,39(a5)
.LBE14:
	.loc 1 396 309 is_stmt 1
.LBB15:
	.loc 1 397 11
	.loc 1 397 20 is_stmt 0
	lw	a4,4(s0)
.LVL70:
	.loc 1 397 58 is_stmt 1
	.loc 1 397 102 is_stmt 0
	srli	a3,a4,24
	.loc 1 397 94
	sb	a3,40(a5)
	.loc 1 397 117 is_stmt 1
	.loc 1 397 161 is_stmt 0
	srli	a3,a4,16
	.loc 1 397 153
	sb	a3,41(a5)
	.loc 1 397 176 is_stmt 1
	.loc 1 397 220 is_stmt 0
	srli	a3,a4,8
	.loc 1 397 212
	sb	a3,42(a5)
	.loc 1 397 234 is_stmt 1
	.loc 1 397 270 is_stmt 0
	sb	a4,43(a5)
.LBE15:
	.loc 1 397 293 is_stmt 1
	.loc 1 399 9
	lw	a2,12(s0)
	lw	a1,4(s0)
	call	printf
.LVL71:
	.loc 1 401 9
	mv	a3,s8
	mv	a2,s7
	mv	a1,s5
	mv	a0,s6
	call	udp_sendto
.LVL72:
	.loc 1 404 9
	.loc 1 404 24 is_stmt 0
	li	a5,1
	sw	a5,0(s0)
.LVL73:
.L25:
.LBE4:
	.loc 1 440 5 is_stmt 1
	.loc 1 440 37 is_stmt 0
	lw	a5,8(s0)
	.loc 1 440 49
	addi	a4,a5,1
	.loc 1 440 8
	beq	s3,a4,.L30
	.loc 1 441 7 is_stmt 1
	.loc 1 441 10 is_stmt 0
	bgt	s3,a5,.L31
	.loc 1 442 9 is_stmt 1
	.loc 1 442 31 is_stmt 0
	lw	a5,20(s0)
	addi	a5,a5,1
	sw	a5,20(s0)
	.loc 1 448 5 is_stmt 1
.L32:
	.loc 1 452 2
	mv	a0,s5
	call	pbuf_free
.LVL74:
.L19:
	.loc 1 453 1 is_stmt 0
	lw	ra,140(sp)
	.cfi_remember_state
	.cfi_restore 1
	lw	s0,136(sp)
	.cfi_restore 8
.LVL75:
	lw	s1,132(sp)
	.cfi_restore 9
	lw	s2,128(sp)
	.cfi_restore 18
	lw	s3,124(sp)
	.cfi_restore 19
	lw	s4,120(sp)
	.cfi_restore 20
	lw	s5,116(sp)
	.cfi_restore 21
.LVL76:
	lw	s6,112(sp)
	.cfi_restore 22
	lw	s7,108(sp)
	.cfi_restore 23
.LVL77:
	lw	s8,104(sp)
	.cfi_restore 24
	lw	s9,100(sp)
	.cfi_restore 25
	flw	fs0,92(sp)
	.cfi_restore 40
	flw	fs1,88(sp)
	.cfi_restore 41
	flw	fs2,84(sp)
	.cfi_restore 50
	addi	sp,sp,144
	.cfi_def_cfa_offset 0
	jr	ra
.LVL78:
.L24:
	.cfi_restore_state
	.loc 1 405 12 is_stmt 1
	.loc 1 405 15 is_stmt 0
	li	a5,499712
.LVL79:
	.loc 1 405 29
	sub	s6,s4,a4
.LVL80:
	.loc 1 405 15
	addi	a5,a5,287
	bleu	s6,a5,.L25
.LBB16:
	.loc 1 406 9 is_stmt 1
	.loc 1 410 9
	.loc 1 410 17 is_stmt 0
	mv	a0,s1
	mv	a1,s2
	call	__floatundisf
.LVL81:
	.loc 1 410 40
	lui	a5,%hi(.LC10)
	flw	fs1,%lo(.LC10)(a5)
	.loc 1 412 29
	lw	a0,40(s0)
	lw	a1,44(s0)
	.loc 1 410 40
	fmul.s	fs0,fa0,fs1
	.loc 1 412 29
	add	a0,s1,a0
	.loc 1 410 50
	fcvt.s.w	fa0,s6
	.loc 1 412 29
	sltu	s1,a0,s1
	add	a1,s2,a1
	add	a1,s1,a1
	.loc 1 410 15
	lui	a5,%hi(.LC11)
	.loc 1 412 29
	sw	a0,40(s0)
	sw	a1,44(s0)
	.loc 1 410 15
	flw	fs2,%lo(.LC11)(a5)
	.loc 1 410 50
	fdiv.s	fs0,fs0,fa0
	.loc 1 415 17
	call	__floatundisf
.LVL82:
	.loc 1 415 46
	fmul.s	fs1,fa0,fs1
	.loc 1 415 81
	sub	s4,s4,s9
	.loc 1 415 56
	fcvt.s.w	fa5,s4
	fdiv.s	fa5,fs1,fa5
	.loc 1 410 15
	fmul.s	fs0,fs0,fs2
.LVL83:
	.loc 1 412 9 is_stmt 1
	.loc 1 415 9
	.loc 1 415 15 is_stmt 0
	fmul.s	fs2,fa5,fs2
.LVL84:
	.loc 1 417 9 is_stmt 1
	.loc 1 417 12 is_stmt 0
	flw	fa5,56(s0)
	fgt.s	a5,fa5,fs0
	beq	a5,zero,.L26
	.loc 1 418 13 is_stmt 1
	.loc 1 418 24 is_stmt 0
	fsw	fs0,56(s0)
.L26:
	.loc 1 420 9 is_stmt 1
	.loc 1 420 12 is_stmt 0
	flw	fa5,60(s0)
	flt.s	a5,fa5,fs0
	beq	a5,zero,.L28
	.loc 1 421 13 is_stmt 1
	.loc 1 421 24 is_stmt 0
	fsw	fs0,60(s0)
.L28:
	.loc 1 423 9 is_stmt 1
	flw	fa0,56(s0)
	call	__extendsfdf2
.LVL85:
	fmv.s	fa0,fs0
	sw	a0,40(sp)
	sw	a1,44(sp)
	call	__extendsfdf2
.LVL86:
	lw	a3,20(s0)
	flw	fa0,60(s0)
	sw	a0,32(sp)
	sw	a3,16(sp)
	sw	a1,36(sp)
	call	__extendsfdf2
.LVL87:
	fmv.s	fa0,fs2
	sw	a0,8(sp)
	sw	a1,12(sp)
	call	__extendsfdf2
.LVL88:
	lw	a6,40(sp)
	lw	a4,32(sp)
	lw	a5,36(sp)
	lw	a7,44(sp)
	lui	a2,%hi(.LC12)
	sw	a0,0(sp)
	sw	a1,4(sp)
	addi	a2,a2,%lo(.LC12)
	li	a1,32
	addi	a0,sp,48
	call	snprintf
.LVL89:
	.loc 1 430 9
	lui	a0,%hi(.LC13)
	addi	a1,sp,48
	addi	a0,a0,%lo(.LC13)
	call	printf
.LVL90:
	.loc 1 432 9
	.loc 1 432 27 is_stmt 0
	lw	a5,32(s0)
	.loc 1 435 31
	lw	a4,20(s0)
	.loc 1 433 23
	li	a6,0
	.loc 1 432 27
	sw	a5,28(s0)
	.loc 1 433 9 is_stmt 1
	.loc 1 433 23 is_stmt 0
	li	a5,0
	sw	a5,48(s0)
	.loc 1 435 31
	lw	a5,12(s0)
	.loc 1 433 23
	sw	a6,52(s0)
	.loc 1 435 9 is_stmt 1
	.loc 1 436 32 is_stmt 0
	sw	zero,20(s0)
	.loc 1 435 31
	add	a5,a5,a4
	sw	a5,12(s0)
	.loc 1 436 9 is_stmt 1
	j	.L25
.LVL91:
.L31:
.LBE16:
	.loc 1 444 9
	.loc 1 444 24 is_stmt 0
	lw	a4,16(s0)
	.loc 1 444 49
	sub	a5,s3,a5
	.loc 1 444 24
	addi	a4,a4,-1
	add	a5,a4,a5
	sw	a5,16(s0)
	.loc 1 448 5 is_stmt 1
.L33:
	.loc 1 449 7
	.loc 1 449 22 is_stmt 0
	sw	s3,8(s0)
	j	.L32
.L30:
	.loc 1 448 5 is_stmt 1
	.loc 1 448 8 is_stmt 0
	bgt	s3,a5,.L33
	j	.L32
	.cfi_endproc
.LFE8:
	.size	iperf_server_udp_recv_fn, .-iperf_server_udp_recv_fn
	.section	.text.iperf_client_udp,"ax",@progbits
	.align	1
	.type	iperf_client_udp, @function
iperf_client_udp:
.LFB7:
	.loc 1 215 1 is_stmt 1
	.cfi_startproc
.LVL92:
	.loc 1 216 5
	.loc 1 217 5
	.loc 1 218 5
	.loc 1 220 5
	.loc 1 221 5
	.loc 1 222 5
	.loc 1 223 5
	.loc 1 224 5
	.loc 1 225 5
	.loc 1 226 5
	.loc 1 215 1 is_stmt 0
	addi	sp,sp,-224
	.cfi_def_cfa_offset 224
	sw	s3,204(sp)
	.loc 1 228 10
	li	a2,64
	.cfi_offset 19, -20
	.loc 1 215 1
	mv	s3,a0
.LVL93:
	.loc 1 228 5 is_stmt 1
	.loc 1 228 10 is_stmt 0
	li	a1,0
	addi	a0,sp,64
.LVL94:
	.loc 1 215 1
	sw	ra,220(sp)
	sw	s0,216(sp)
	sw	s1,212(sp)
	sw	s2,208(sp)
	sw	s4,200(sp)
	sw	s5,196(sp)
	sw	s6,192(sp)
	sw	s7,188(sp)
	sw	s8,184(sp)
	sw	s9,180(sp)
	sw	s10,176(sp)
	sw	s11,172(sp)
	fsw	fs0,156(sp)
	fsw	fs1,152(sp)
	fsw	fs2,148(sp)
	fsw	fs3,144(sp)
	fsw	fs4,140(sp)
	fsw	fs5,136(sp)
	.cfi_offset 1, -4
	.cfi_offset 8, -8
	.cfi_offset 9, -12
	.cfi_offset 18, -16
	.cfi_offset 20, -24
	.cfi_offset 21, -28
	.cfi_offset 22, -32
	.cfi_offset 23, -36
	.cfi_offset 24, -40
	.cfi_offset 25, -44
	.cfi_offset 26, -48
	.cfi_offset 27, -52
	.cfi_offset 40, -68
	.cfi_offset 41, -72
	.cfi_offset 50, -76
	.cfi_offset 51, -80
	.cfi_offset 52, -84
	.cfi_offset 53, -88
	.loc 1 228 10
	call	memset
.LVL95:
	.loc 1 229 5 is_stmt 1
	.loc 1 231 5
	.loc 1 231 28 is_stmt 0
	li	a0,1300
	call	pvPortMalloc
.LVL96:
	.loc 1 232 5 is_stmt 1
	.loc 1 232 8 is_stmt 0
	bne	a0,zero,.L61
.LVL97:
.L64:
	.loc 1 262 13 is_stmt 1
	mv	a0,s3
	call	vPortFree
.LVL98:
	.loc 1 263 13
.L37:
	.loc 1 333 1 is_stmt 0
	lw	ra,220(sp)
	.cfi_remember_state
	.cfi_restore 1
	lw	s0,216(sp)
	.cfi_restore 8
	lw	s1,212(sp)
	.cfi_restore 9
	lw	s2,208(sp)
	.cfi_restore 18
	lw	s3,204(sp)
	.cfi_restore 19
	lw	s4,200(sp)
	.cfi_restore 20
	lw	s5,196(sp)
	.cfi_restore 21
	lw	s6,192(sp)
	.cfi_restore 22
	lw	s7,188(sp)
	.cfi_restore 23
	lw	s8,184(sp)
	.cfi_restore 24
	lw	s9,180(sp)
	.cfi_restore 25
	lw	s10,176(sp)
	.cfi_restore 26
	lw	s11,172(sp)
	.cfi_restore 27
	flw	fs0,156(sp)
	.cfi_restore 40
	flw	fs1,152(sp)
	.cfi_restore 41
	flw	fs2,148(sp)
	.cfi_restore 50
	flw	fs3,144(sp)
	.cfi_restore 51
	flw	fs4,140(sp)
	.cfi_restore 52
	flw	fs5,136(sp)
	.cfi_restore 53
	addi	sp,sp,224
	.cfi_def_cfa_offset 0
	jr	ra
.LVL99:
.L61:
	.cfi_restore_state
	mv	s0,a0
	li	a5,0
	li	a4,1300
.LVL100:
.L38:
	.loc 1 238 9 is_stmt 1 discriminator 3
	.loc 1 238 21 is_stmt 0 discriminator 3
	add	a3,s0,a5
	sb	a5,0(a3)
	.loc 1 237 35 discriminator 3
	addi	a5,a5,1
.LVL101:
	.loc 1 237 5 discriminator 3
	bne	a5,a4,.L38
	.loc 1 241 9 is_stmt 1
	.loc 1 241 16 is_stmt 0
	li	a2,17
	li	a1,2
	li	a0,2
	call	lwip_socket
.LVL102:
	mv	s1,a0
.LVL103:
	.loc 1 242 9 is_stmt 1
	.loc 1 242 12 is_stmt 0
	bge	a0,zero,.L40
	.loc 1 244 13 is_stmt 1
	lui	a0,%hi(.LC14)
	addi	a0,a0,%lo(.LC14)
	call	printf
.LVL104:
	.loc 1 245 13
.L63:
	.loc 1 261 13
	li	a0,1000
	call	vTaskDelay
.LVL105:
	j	.L64
.L40:
	.loc 1 250 9
	li	a2,16
	li	a1,0
	addi	a0,sp,32
	call	memset
.LVL106:
	.loc 1 251 9
	.loc 1 252 26 is_stmt 0
	li	s2,4096
	.loc 1 251 26
	li	s4,2
	.loc 1 252 26
	addi	a0,s2,906
	.loc 1 251 26
	sb	s4,33(sp)
	.loc 1 252 9 is_stmt 1
	.loc 1 252 26 is_stmt 0
	call	lwip_htons
.LVL107:
	.loc 1 252 24
	sh	a0,34(sp)
	.loc 1 253 9 is_stmt 1
	.loc 1 253 33 is_stmt 0
	lui	a0,%hi(.LC15)
	addi	a0,a0,%lo(.LC15)
	call	ipaddr_addr
.LVL108:
	.loc 1 253 31
	sw	a0,36(sp)
	.loc 1 255 9 is_stmt 1
	.loc 1 255 15 is_stmt 0
	li	a2,16
	addi	a1,sp,32
	mv	a0,s1
	call	lwip_bind
.LVL109:
	.loc 1 256 9 is_stmt 1
	.loc 1 256 12 is_stmt 0
	li	a5,-1
	bne	a0,a5,.L41
	.loc 1 258 13 is_stmt 1
	lui	a0,%hi(.LC5)
.LVL110:
	addi	a0,a0,%lo(.LC5)
	call	printf
.LVL111:
	.loc 1 259 13
	mv	a0,s1
	call	lwip_close
.LVL112:
	j	.L63
.LVL113:
.L41:
	.loc 1 266 9
	lui	a0,%hi(.LC6)
.LVL114:
	addi	a0,a0,%lo(.LC6)
	call	printf
.LVL115:
	.loc 1 268 9
	li	a2,16
	li	a1,0
	addi	a0,sp,48
	call	memset
.LVL116:
	.loc 1 269 9
	.loc 1 270 26 is_stmt 0
	addi	a0,s2,905
	.loc 1 269 26
	sb	s4,49(sp)
	.loc 1 270 9 is_stmt 1
	.loc 1 270 26 is_stmt 0
	call	lwip_htons
.LVL117:
	.loc 1 270 24
	sh	a0,50(sp)
	.loc 1 271 9 is_stmt 1
	.loc 1 271 33 is_stmt 0
	mv	a0,s3
	call	ipaddr_addr
.LVL118:
	.loc 1 271 31
	sw	a0,52(sp)
	.loc 1 273 9 is_stmt 1
.LVL119:
	.loc 1 275 9
	.loc 1 276 9
	.loc 1 277 9
	.loc 1 278 9
	.loc 1 279 9
	.loc 1 279 17 is_stmt 0
	call	xTaskGetTickCount
.LVL120:
	.loc 1 229 11
	lui	a5,%hi(.LC7)
	flw	fs3,%lo(.LC7)(a5)
.LBB17:
	.loc 1 287 42
	lui	a5,%hi(.LC16)
	flw	fs5,%lo(.LC16)(a5)
	.loc 1 287 23
	lui	a5,%hi(.LC17)
.LBE17:
	.loc 1 229 27
	fmv.s.x	fs4,zero
.LBB18:
	.loc 1 287 23
	flw	fs2,%lo(.LC17)(a5)
.LBE18:
	.loc 1 279 17
	mv	s6,a0
.LVL121:
	.loc 1 280 9 is_stmt 1
	.loc 1 280 15 is_stmt 0
	mv	s11,a0
	.loc 1 279 17
	li	s4,1
	.loc 1 222 14
	li	s3,0
.LVL122:
	li	s5,0
	.loc 1 273 17
	li	s10,0
	.loc 1 283 16
	addi	s2,s2,903
.LBB19:
	.loc 1 299 17
	lui	s8,%hi(.LC18)
	.loc 1 305 17
	lui	s9,%hi(.LC13)
.LVL123:
.L42:
.LBE19:
	.loc 1 281 9 is_stmt 1
	.loc 1 282 13
	.loc 1 282 21 is_stmt 0
	call	xTaskGetTickCount
.LVL124:
	.loc 1 283 23
	sub	a5,a0,s11
	.loc 1 282 21
	mv	s7,a0
.LVL125:
	.loc 1 283 13 is_stmt 1
	.loc 1 283 16 is_stmt 0
	bleu	a5,s2,.L43
.LBB20:
	.loc 1 285 17 is_stmt 1
	.loc 1 287 17
	.loc 1 287 25 is_stmt 0
	fcvt.s.w	fs0,s10
	.loc 1 287 48
	fcvt.s.w	fa5,a5
	.loc 1 289 34
	srai	a5,s10,31
	.loc 1 287 42
	fdiv.s	fs0,fs0,fs5
	.loc 1 289 34
	add	s10,s3,s10
.LVL126:
	sltu	a4,s10,s3
	add	s5,s5,a5
.LVL127:
	add	s5,a4,s5
	.loc 1 290 25
	mv	a0,s10
.LVL128:
	mv	a1,s5
	.loc 1 289 34
	mv	s3,s10
	.loc 1 287 48
	fdiv.s	fs0,fs0,fa5
	.loc 1 290 25
	call	__floatundisf
.LVL129:
	.loc 1 290 76
	sub	a5,s7,s6
	.loc 1 290 51
	fdiv.s	fs1,fa0,fs5
	.loc 1 287 23
	fmul.s	fs0,fs0,fs2
.LVL130:
	.loc 1 288 17 is_stmt 1
	.loc 1 290 57 is_stmt 0
	fcvt.s.w	fa0,a5
	fdiv.s	fs1,fs1,fa0
	.loc 1 288 23
	fdiv.s	fs0,fs0,fs2
.LVL131:
	.loc 1 289 17 is_stmt 1
	.loc 1 290 17
	.loc 1 290 23 is_stmt 0
	fmul.s	fs1,fs1,fs2
.LVL132:
	.loc 1 291 17 is_stmt 1
	.loc 1 293 20 is_stmt 0
	fgt.s	a5,fs3,fs0
	.loc 1 291 23
	fdiv.s	fs1,fs1,fs2
.LVL133:
	.loc 1 293 17 is_stmt 1
	.loc 1 293 20 is_stmt 0
	beq	a5,zero,.L44
	.loc 1 294 27
	fmv.s	fs3,fs0
.LVL134:
.L44:
	.loc 1 296 17 is_stmt 1
	.loc 1 296 20 is_stmt 0
	flt.s	a5,fs4,fs0
	beq	a5,zero,.L46
	.loc 1 297 27
	fmv.s	fs4,fs0
.LVL135:
.L46:
	.loc 1 299 17 is_stmt 1
	fmv.s	fa0,fs3
	.loc 1 306 23 is_stmt 0
	mv	s11,s7
.LVL136:
	.loc 1 307 25
	li	s10,0
	.loc 1 299 17
	call	__extendsfdf2
.LVL137:
	fmv.s	fa0,fs0
	sw	a0,24(sp)
	sw	a1,28(sp)
	call	__extendsfdf2
.LVL138:
	fmv.s	fa0,fs4
	sw	a0,16(sp)
	sw	a1,20(sp)
	call	__extendsfdf2
.LVL139:
	fmv.s	fa0,fs1
	sw	a0,8(sp)
	sw	a1,12(sp)
	call	__extendsfdf2
.LVL140:
	lw	a6,24(sp)
	lw	a7,28(sp)
	lw	a4,16(sp)
	lw	a5,20(sp)
	sw	a0,0(sp)
	sw	a1,4(sp)
	addi	a2,s8,%lo(.LC18)
	li	a1,64
	addi	a0,sp,64
	call	snprintf
.LVL141:
	.loc 1 305 17 is_stmt 1
	addi	a1,sp,64
	addi	a0,s9,%lo(.LC13)
	call	printf
.LVL142:
	.loc 1 306 17
	.loc 1 307 17
.L43:
.LBE20:
	.loc 1 310 13
	.loc 1 311 13
	.loc 1 311 34 is_stmt 0
	mv	a0,s4
	call	lwip_htonl
.LVL143:
	.loc 1 311 32
	sw	a0,0(s0)
	.loc 1 312 13 is_stmt 1
	.loc 1 312 36 is_stmt 0
	sw	zero,4(s0)
	.loc 1 313 13 is_stmt 1
	.loc 1 313 37 is_stmt 0
	sw	zero,8(s0)
.L48:
	.loc 1 315 13 is_stmt 1
	.loc 1 315 19 is_stmt 0
	li	a5,16
	addi	a4,sp,48
	li	a3,0
	li	a2,1300
	mv	a1,s0
	mv	a0,s1
	call	lwip_sendto
.LVL144:
	.loc 1 316 13 is_stmt 1
	.loc 1 316 16 is_stmt 0
	ble	a0,zero,.L49
	.loc 1 317 17 is_stmt 1
	.loc 1 317 25 is_stmt 0
	add	s10,s10,a0
.LVL145:
	.loc 1 320 13 is_stmt 1
.L50:
	addi	s4,s4,1
.LVL146:
	j	.L42
.LVL147:
.L49:
	.loc 1 320 13
	.loc 1 320 16 is_stmt 0
	beq	a0,zero,.L50
	.loc 1 321 17 is_stmt 1
	.loc 1 321 20 is_stmt 0
	li	a5,-1
	beq	a0,a5,.L48
	sw	a0,16(sp)
	.loc 1 324 17 is_stmt 1 discriminator 1
	.loc 1 328 9 discriminator 1
	mv	a0,s1
.LVL148:
	call	lwip_close
.LVL149:
	.loc 1 330 9 discriminator 1
	li	a0,2000
	call	vTaskDelay
.LVL150:
	.loc 1 331 9 discriminator 1
	lw	a1,16(sp)
	lui	a0,%hi(.LC19)
	addi	a0,a0,%lo(.LC19)
	call	printf
.LVL151:
	.loc 1 332 9 discriminator 1
	li	a0,0
	call	vTaskDelete
.LVL152:
	j	.L37
	.cfi_endproc
.LFE7:
	.size	iperf_client_udp, .-iperf_client_udp
	.section	.text.iperf_server,"ax",@progbits
	.align	1
	.type	iperf_server, @function
iperf_server:
.LFB12:
	.loc 1 526 1
	.cfi_startproc
.LVL153:
	.loc 1 527 5
	.loc 1 528 5
	.loc 1 529 5
	.loc 1 530 5
	.loc 1 531 5
	.loc 1 532 5
	.loc 1 526 1 is_stmt 0
	addi	sp,sp,-208
	.cfi_def_cfa_offset 208
	sw	s1,196(sp)
	.loc 1 532 10
	li	a2,32
	.cfi_offset 9, -12
	.loc 1 526 1
	mv	s1,a0
	.loc 1 532 10
	li	a1,0
	addi	a0,sp,80
.LVL154:
	.loc 1 526 1
	sw	s2,192(sp)
	sw	ra,204(sp)
	sw	s0,200(sp)
	sw	s3,188(sp)
	sw	s4,184(sp)
	sw	s5,180(sp)
	sw	s6,176(sp)
	sw	s7,172(sp)
	sw	s8,168(sp)
	sw	s9,164(sp)
	sw	s10,160(sp)
	sw	s11,156(sp)
	fsw	fs0,140(sp)
	fsw	fs1,136(sp)
	fsw	fs2,132(sp)
	fsw	fs3,128(sp)
	fsw	fs4,124(sp)
	fsw	fs5,120(sp)
	.cfi_offset 18, -16
	.cfi_offset 1, -4
	.cfi_offset 8, -8
	.cfi_offset 19, -20
	.cfi_offset 20, -24
	.cfi_offset 21, -28
	.cfi_offset 22, -32
	.cfi_offset 23, -36
	.cfi_offset 24, -40
	.cfi_offset 25, -44
	.cfi_offset 26, -48
	.cfi_offset 27, -52
	.cfi_offset 40, -68
	.cfi_offset 41, -72
	.cfi_offset 50, -76
	.cfi_offset 51, -80
	.cfi_offset 52, -84
	.cfi_offset 53, -88
	.loc 1 537 28
	li	s2,4096
	.loc 1 532 10
	call	memset
.LVL155:
	.loc 1 533 5 is_stmt 1
	.loc 1 534 5
	.loc 1 535 5
	.loc 1 537 5
	.loc 1 537 28 is_stmt 0
	addi	a0,s2,1104
	call	pvPortMalloc
.LVL156:
	.loc 1 538 5 is_stmt 1
	.loc 1 538 8 is_stmt 0
	bne	a0,zero,.L66
	.loc 1 540 9 is_stmt 1
	lui	a0,%hi(.LC20)
.LVL157:
	addi	a0,a0,%lo(.LC20)
	call	printf
.LVL158:
	.loc 1 541 9
	.loc 1 627 5
	.loc 1 628 5
.L67:
	.loc 1 629 5
	.loc 1 629 8 is_stmt 0
	beq	s1,zero,.L65
	.loc 1 629 14 is_stmt 1 discriminator 1
	mv	a0,s1
	call	vPortFree
.LVL159:
.L65:
	.loc 1 630 1 is_stmt 0
	lw	ra,204(sp)
	.cfi_remember_state
	.cfi_restore 1
	lw	s0,200(sp)
	.cfi_restore 8
	lw	s1,196(sp)
	.cfi_restore 9
.LVL160:
	lw	s2,192(sp)
	.cfi_restore 18
	lw	s3,188(sp)
	.cfi_restore 19
	lw	s4,184(sp)
	.cfi_restore 20
	lw	s5,180(sp)
	.cfi_restore 21
	lw	s6,176(sp)
	.cfi_restore 22
	lw	s7,172(sp)
	.cfi_restore 23
	lw	s8,168(sp)
	.cfi_restore 24
	lw	s9,164(sp)
	.cfi_restore 25
	lw	s10,160(sp)
	.cfi_restore 26
	lw	s11,156(sp)
	.cfi_restore 27
	flw	fs0,140(sp)
	.cfi_restore 40
	flw	fs1,136(sp)
	.cfi_restore 41
	flw	fs2,132(sp)
	.cfi_restore 50
	flw	fs3,128(sp)
	.cfi_restore 51
	flw	fs4,124(sp)
	.cfi_restore 52
	flw	fs5,120(sp)
	.cfi_restore 53
	addi	sp,sp,208
	.cfi_def_cfa_offset 0
	jr	ra
.LVL161:
.L66:
	.cfi_restore_state
	mv	s3,a0
	.loc 1 544 5 is_stmt 1
	.loc 1 545 5
	.loc 1 545 12 is_stmt 0
	li	a2,0
	li	a1,1
	li	a0,2
.LVL162:
	call	lwip_socket
.LVL163:
	mv	s0,a0
.LVL164:
	.loc 1 546 5 is_stmt 1
	.loc 1 546 8 is_stmt 0
	bge	a0,zero,.L68
	.loc 1 547 9 is_stmt 1
	lui	a0,%hi(.LC21)
	addi	a0,a0,%lo(.LC21)
	call	printf
.LVL165:
	.loc 1 548 9
	.loc 1 627 5
.L69:
	.loc 1 628 5
	.loc 1 628 20
	mv	a0,s3
	call	vPortFree
.LVL166:
	j	.L67
.L68:
	.loc 1 551 5
	.loc 1 551 28 is_stmt 0
	li	a5,2
	.loc 1 552 28
	addi	a0,s2,905
	.loc 1 551 28
	sb	a5,49(sp)
	.loc 1 552 5 is_stmt 1
	.loc 1 552 28 is_stmt 0
	call	lwip_htons
.LVL167:
	.loc 1 552 26
	sh	a0,50(sp)
	.loc 1 553 5 is_stmt 1
	.loc 1 554 5 is_stmt 0
	li	a2,8
	li	a1,0
	addi	a0,sp,56
	.loc 1 553 33
	sw	zero,52(sp)
	.loc 1 554 5 is_stmt 1
	call	memset
.LVL168:
	.loc 1 556 5
	.loc 1 556 9 is_stmt 0
	li	a2,16
	addi	a1,sp,48
	mv	a0,s0
	call	lwip_bind
.LVL169:
	.loc 1 556 8
	li	s2,-1
	bne	a0,s2,.L70
	.loc 1 557 9 is_stmt 1
	lui	a0,%hi(.LC22)
	addi	a0,a0,%lo(.LC22)
.L90:
	.loc 1 562 9 is_stmt 0
	call	printf
.LVL170:
	.loc 1 563 9 is_stmt 1
	.loc 1 627 5
	.loc 1 627 20
	mv	a0,s0
	call	lwip_close
.LVL171:
	j	.L69
.L70:
	.loc 1 561 5
	.loc 1 561 9 is_stmt 0
	li	a1,5
	mv	a0,s0
	call	lwip_listen
.LVL172:
	.loc 1 561 8
	bne	a0,s2,.L82
	.loc 1 562 9 is_stmt 1
	lui	a0,%hi(.LC23)
	addi	a0,a0,%lo(.LC23)
	j	.L90
.L82:
	.loc 1 535 11 is_stmt 0
	lui	a5,%hi(.LC7)
	flw	fs3,%lo(.LC7)(a5)
.LBB21:
	.loc 1 598 42
	lui	a5,%hi(.LC16)
	flw	fs5,%lo(.LC16)(a5)
	.loc 1 598 23
	lui	a5,%hi(.LC17)
.LBE21:
	.loc 1 535 27
	fmv.s.x	fs4,zero
.LBB22:
	.loc 1 598 23
	flw	fs2,%lo(.LC17)(a5)
.LBE22:
	.loc 1 534 14
	li	s2,0
	li	s4,0
.LVL173:
.L72:
	.loc 1 566 5 is_stmt 1
	.loc 1 567 9
	.loc 1 567 18 is_stmt 0
	li	a5,16
	.loc 1 569 21
	addi	a2,sp,40
	addi	a1,sp,64
	mv	a0,s0
	.loc 1 567 18
	sw	a5,40(sp)
	.loc 1 569 9 is_stmt 1
	.loc 1 569 21 is_stmt 0
	call	lwip_accept
.LVL174:
	mv	s1,a0
.LVL175:
	.loc 1 571 9 is_stmt 1
	addi	a0,sp,68
	call	ip4addr_ntoa
.LVL176:
	sw	a0,16(sp)
	.loc 1 572 76 is_stmt 0
	lhu	a0,66(sp)
	.loc 1 588 30
	li	s6,4096
	.loc 1 594 16
	addi	s8,s6,903
	.loc 1 572 76
	call	lwip_htons
.LVL177:
	.loc 1 571 9
	lw	a1,16(sp)
	mv	a2,a0
	lui	a0,%hi(.LC24)
	addi	a0,a0,%lo(.LC24)
	call	printf
.LVL178:
.LBB23:
	.loc 1 575 13 is_stmt 1
	.loc 1 575 17 is_stmt 0
	li	a5,1
	.loc 1 577 13
	li	a4,4
	addi	a3,sp,44
	li	a2,1
	li	a1,6
	mv	a0,s1
	.loc 1 575 17
	sw	a5,44(sp)
	.loc 1 577 13 is_stmt 1
	call	lwip_setsockopt
.LVL179:
.LBE23:
	.loc 1 584 9
	.loc 1 585 9
	.loc 1 585 17 is_stmt 0
	call	xTaskGetTickCount
.LVL180:
	mv	s5,a0
.LVL181:
	.loc 1 586 9 is_stmt 1
	.loc 1 586 15 is_stmt 0
	mv	s10,a0
.LVL182:
.L79:
	.loc 1 593 21
	li	s9,0
	.loc 1 588 30
	addi	s11,s6,1104
.LVL183:
.L74:
	.loc 1 587 9 is_stmt 1
	.loc 1 588 13
	.loc 1 588 30 is_stmt 0
	li	a3,0
	mv	a2,s11
	mv	a1,s3
	mv	a0,s1
	call	lwip_recv
.LVL184:
	.loc 1 589 13 is_stmt 1
	.loc 1 589 16 is_stmt 0
	ble	a0,zero,.L73
	.loc 1 591 13 is_stmt 1
	.loc 1 591 21 is_stmt 0
	add	s9,s9,a0
.LVL185:
	.loc 1 593 13 is_stmt 1
	.loc 1 593 21 is_stmt 0
	call	xTaskGetTickCount
.LVL186:
	.loc 1 594 23
	sub	a5,a0,s10
	.loc 1 593 21
	mv	s7,a0
.LVL187:
	.loc 1 594 13 is_stmt 1
	.loc 1 594 16 is_stmt 0
	bleu	a5,s8,.L74
.LBB24:
	.loc 1 596 17 is_stmt 1
	.loc 1 598 17
	.loc 1 598 25 is_stmt 0
	fcvt.s.w	fs0,s9
	.loc 1 598 48
	fcvt.s.w	fa5,a5
	.loc 1 600 34
	srai	a5,s9,31
	.loc 1 598 42
	fdiv.s	fs0,fs0,fs5
	.loc 1 600 34
	add	s9,s2,s9
.LVL188:
	sltu	a4,s9,s2
	add	s4,s4,a5
.LVL189:
	add	s4,a4,s4
	.loc 1 601 25
	mv	a0,s9
.LVL190:
	mv	a1,s4
	.loc 1 600 34
	mv	s2,s9
	.loc 1 598 48
	fdiv.s	fs0,fs0,fa5
	.loc 1 601 25
	call	__floatundisf
.LVL191:
	.loc 1 601 76
	sub	a5,s7,s5
	.loc 1 601 51
	fdiv.s	fs1,fa0,fs5
	.loc 1 598 23
	fmul.s	fs0,fs0,fs2
.LVL192:
	.loc 1 599 17 is_stmt 1
	.loc 1 601 57 is_stmt 0
	fcvt.s.w	fa0,a5
	fdiv.s	fs1,fs1,fa0
	.loc 1 599 23
	fdiv.s	fs0,fs0,fs2
.LVL193:
	.loc 1 600 17 is_stmt 1
	.loc 1 601 17
	.loc 1 601 23 is_stmt 0
	fmul.s	fs1,fs1,fs2
.LVL194:
	.loc 1 602 17 is_stmt 1
	.loc 1 604 20 is_stmt 0
	fgt.s	a5,fs3,fs0
	.loc 1 602 23
	fdiv.s	fs1,fs1,fs2
.LVL195:
	.loc 1 604 17 is_stmt 1
	.loc 1 604 20 is_stmt 0
	beq	a5,zero,.L75
	.loc 1 605 27
	fmv.s	fs3,fs0
.LVL196:
.L75:
	.loc 1 607 17 is_stmt 1
	.loc 1 607 20 is_stmt 0
	flt.s	a5,fs4,fs0
	beq	a5,zero,.L77
	.loc 1 608 27
	fmv.s	fs4,fs0
.LVL197:
.L77:
	.loc 1 610 17 is_stmt 1
	fmv.s	fa0,fs3
.LBE24:
	.loc 1 593 21 is_stmt 0
	mv	s10,s7
.LVL198:
.LBB25:
	.loc 1 610 17
	call	__extendsfdf2
.LVL199:
	fmv.s	fa0,fs0
	sw	a0,24(sp)
	sw	a1,28(sp)
	call	__extendsfdf2
.LVL200:
	fmv.s	fa0,fs4
	sw	a0,16(sp)
	sw	a1,20(sp)
	call	__extendsfdf2
.LVL201:
	fmv.s	fa0,fs1
	sw	a0,8(sp)
	sw	a1,12(sp)
	call	__extendsfdf2
.LVL202:
	lw	a6,24(sp)
	lw	a7,28(sp)
	lw	a4,16(sp)
	lw	a5,20(sp)
	lui	a3,%hi(.LC18)
	sw	a0,0(sp)
	sw	a1,4(sp)
	addi	a2,a3,%lo(.LC18)
	li	a1,32
	addi	a0,sp,80
	call	snprintf
.LVL203:
	.loc 1 616 17 is_stmt 1
	lui	a0,%hi(.LC13)
	addi	a1,sp,80
	addi	a0,a0,%lo(.LC13)
	call	printf
.LVL204:
	.loc 1 617 17
	.loc 1 618 17
	j	.L79
.LVL205:
.L73:
.LBE25:
	.loc 1 622 9
	.loc 1 622 12 is_stmt 0
	blt	s1,zero,.L72
	.loc 1 622 29 is_stmt 1 discriminator 1
	mv	a0,s1
.LVL206:
	call	lwip_close
.LVL207:
	j	.L72
	.cfi_endproc
.LFE12:
	.size	iperf_server, .-iperf_server
	.section	.text.iperf_client_tcp,"ax",@progbits
	.align	1
	.type	iperf_client_tcp, @function
iperf_client_tcp:
.LFB5:
	.loc 1 92 1
	.cfi_startproc
.LVL208:
	.loc 1 93 5
	.loc 1 94 5
	.loc 1 95 5
	.loc 1 97 5
	.loc 1 98 5
	.loc 1 99 5
	.loc 1 100 5
	.loc 1 101 5
	.loc 1 92 1 is_stmt 0
	addi	sp,sp,-192
	.cfi_def_cfa_offset 192
	sw	s5,164(sp)
	.loc 1 104 10
	li	a2,32
	.cfi_offset 21, -28
	.loc 1 92 1
	mv	s5,a0
.LVL209:
	.loc 1 102 5 is_stmt 1
	.loc 1 104 5
	.loc 1 104 10 is_stmt 0
	li	a1,0
	addi	a0,sp,64
.LVL210:
	.loc 1 92 1
	sw	s0,184(sp)
	sw	ra,188(sp)
	sw	s1,180(sp)
	sw	s2,176(sp)
	sw	s3,172(sp)
	sw	s4,168(sp)
	sw	s6,160(sp)
	sw	s7,156(sp)
	sw	s8,152(sp)
	sw	s9,148(sp)
	sw	s10,144(sp)
	sw	s11,140(sp)
	fsw	fs0,124(sp)
	fsw	fs1,120(sp)
	fsw	fs2,116(sp)
	fsw	fs3,112(sp)
	fsw	fs4,108(sp)
	fsw	fs5,104(sp)
	.cfi_offset 8, -8
	.cfi_offset 1, -4
	.cfi_offset 9, -12
	.cfi_offset 18, -16
	.cfi_offset 19, -20
	.cfi_offset 20, -24
	.cfi_offset 22, -32
	.cfi_offset 23, -36
	.cfi_offset 24, -40
	.cfi_offset 25, -44
	.cfi_offset 26, -48
	.cfi_offset 27, -52
	.cfi_offset 40, -68
	.cfi_offset 41, -72
	.cfi_offset 50, -76
	.cfi_offset 51, -80
	.cfi_offset 52, -84
	.cfi_offset 53, -88
	.loc 1 107 28
	li	s0,4096
	.loc 1 104 10
	call	memset
.LVL211:
	.loc 1 105 5 is_stmt 1
	.loc 1 107 5
	.loc 1 107 28 is_stmt 0
	addi	a0,s0,1104
	call	pvPortMalloc
.LVL212:
	.loc 1 108 5 is_stmt 1
	.loc 1 108 8 is_stmt 0
	bne	a0,zero,.L114
	.loc 1 109 9 is_stmt 1
	mv	a0,s5
.LVL213:
	call	vPortFree
.LVL214:
	.loc 1 110 9
	.loc 1 201 1 is_stmt 0
	lw	ra,188(sp)
	.cfi_remember_state
	.cfi_restore 1
	lw	s0,184(sp)
	.cfi_restore 8
	lw	s1,180(sp)
	.cfi_restore 9
	lw	s2,176(sp)
	.cfi_restore 18
	lw	s3,172(sp)
	.cfi_restore 19
	lw	s4,168(sp)
	.cfi_restore 20
	lw	s5,164(sp)
	.cfi_restore 21
.LVL215:
	lw	s6,160(sp)
	.cfi_restore 22
	lw	s7,156(sp)
	.cfi_restore 23
	lw	s8,152(sp)
	.cfi_restore 24
	lw	s9,148(sp)
	.cfi_restore 25
	lw	s10,144(sp)
	.cfi_restore 26
	lw	s11,140(sp)
	.cfi_restore 27
	flw	fs0,124(sp)
	.cfi_restore 40
	flw	fs1,120(sp)
	.cfi_restore 41
	flw	fs2,116(sp)
	.cfi_restore 50
	flw	fs3,112(sp)
	.cfi_restore 51
	flw	fs4,108(sp)
	.cfi_restore 52
	flw	fs5,104(sp)
	.cfi_restore 53
	addi	sp,sp,192
	.cfi_def_cfa_offset 0
	jr	ra
.LVL216:
.L114:
	.cfi_restore_state
	mv	s3,a0
	li	a5,0
	addi	s0,s0,1104
.L92:
.LVL217:
	.loc 1 114 9 is_stmt 1 discriminator 3
	.loc 1 114 21 is_stmt 0 discriminator 3
	add	a4,s3,a5
	sb	a5,0(a4)
	.loc 1 113 35 discriminator 3
	addi	a5,a5,1
.LVL218:
	.loc 1 113 5 discriminator 3
	bne	a5,s0,.L92
	.loc 1 105 11
	lui	a5,%hi(.LC7)
.LVL219:
	flw	fs3,%lo(.LC7)(a5)
.LBB26:
	.loc 1 162 42
	lui	a5,%hi(.LC16)
	flw	fs5,%lo(.LC16)(a5)
	.loc 1 162 23
	lui	a5,%hi(.LC17)
.LBE26:
	.loc 1 105 27
	fmv.s.x	fs4,zero
.LBB27:
	.loc 1 162 23
	flw	fs2,%lo(.LC17)(a5)
.LBE27:
	.loc 1 102 14
	li	s2,0
	li	s4,0
.LVL220:
.L93:
	.loc 1 117 5 is_stmt 1
	.loc 1 118 9
	.loc 1 118 16 is_stmt 0
	li	a2,6
	li	a1,1
	li	a0,2
	call	lwip_socket
.LVL221:
	mv	s0,a0
.LVL222:
	.loc 1 119 9 is_stmt 1
	.loc 1 119 12 is_stmt 0
	bge	a0,zero,.L94
	.loc 1 121 13 is_stmt 1
	lui	a0,%hi(.LC14)
	addi	a0,a0,%lo(.LC14)
	call	printf
.LVL223:
	.loc 1 122 13
.L116:
	.loc 1 136 13
	li	a0,1000
	call	vTaskDelay
.LVL224:
	.loc 1 137 13
	j	.L93
.L94:
	.loc 1 126 9
	.loc 1 127 25 is_stmt 0
	li	s1,4096
	.loc 1 126 25
	li	a5,2
	.loc 1 127 25
	addi	a0,s1,905
	.loc 1 126 25
	sb	a5,49(sp)
	.loc 1 127 9 is_stmt 1
	.loc 1 127 25 is_stmt 0
	call	lwip_htons
.LVL225:
	.loc 1 127 23
	sh	a0,50(sp)
	.loc 1 128 9 is_stmt 1
	.loc 1 128 32 is_stmt 0
	mv	a0,s5
	call	ipaddr_addr
.LVL226:
	.loc 1 128 30
	sw	a0,52(sp)
	.loc 1 130 9 is_stmt 1
	.loc 1 130 15 is_stmt 0
	li	a2,16
	addi	a1,sp,48
	mv	a0,s0
	call	lwip_connect
.LVL227:
	.loc 1 131 9 is_stmt 1
	.loc 1 131 12 is_stmt 0
	li	a5,-1
	bne	a0,a5,.L96
	.loc 1 133 13 is_stmt 1
	lui	a0,%hi(.LC25)
.LVL228:
	addi	a0,a0,%lo(.LC25)
	call	printf
.LVL229:
	.loc 1 134 13
	mv	a0,s0
	call	lwip_close
.LVL230:
	j	.L116
.LVL231:
.L96:
	.loc 1 140 9
	lui	a0,%hi(.LC26)
.LVL232:
	addi	a0,a0,%lo(.LC26)
	call	printf
.LVL233:
.LBB28:
	.loc 1 143 13
	.loc 1 143 17 is_stmt 0
	li	a5,1
	.loc 1 145 13
	li	a4,4
	addi	a3,sp,44
	li	a2,1
	li	a1,6
	mv	a0,s0
	.loc 1 143 17
	sw	a5,44(sp)
	.loc 1 145 13 is_stmt 1
	call	lwip_setsockopt
.LVL234:
.LBE28:
	.loc 1 152 9
	.loc 1 154 9
	.loc 1 154 17 is_stmt 0
	call	xTaskGetTickCount
.LVL235:
	.loc 1 158 16
	addi	s8,s1,903
	.loc 1 154 17
	mv	s6,a0
.LVL236:
	.loc 1 155 9 is_stmt 1
	.loc 1 155 15 is_stmt 0
	mv	s11,a0
	.loc 1 152 17
	li	s10,0
.LBB29:
	.loc 1 180 17
	lui	s9,%hi(.LC13)
.LBE29:
	.loc 1 185 19
	addi	s1,s1,1104
.LVL237:
.L97:
	.loc 1 156 9 is_stmt 1
	.loc 1 157 13
	.loc 1 157 21 is_stmt 0
	call	xTaskGetTickCount
.LVL238:
	.loc 1 158 23
	sub	a5,a0,s11
	.loc 1 157 21
	mv	s7,a0
.LVL239:
	.loc 1 158 13 is_stmt 1
	.loc 1 158 16 is_stmt 0
	bleu	a5,s8,.L98
.LBB30:
	.loc 1 160 17 is_stmt 1
	.loc 1 162 17
	.loc 1 162 25 is_stmt 0
	fcvt.s.w	fs0,s10
	.loc 1 162 48
	fcvt.s.w	fa5,a5
	.loc 1 164 34
	srai	a5,s10,31
	.loc 1 162 42
	fdiv.s	fs0,fs0,fs5
	.loc 1 164 34
	add	s10,s2,s10
.LVL240:
	sltu	a4,s10,s2
	add	s4,s4,a5
.LVL241:
	add	s4,a4,s4
	.loc 1 165 25
	mv	a0,s10
.LVL242:
	mv	a1,s4
	.loc 1 164 34
	mv	s2,s10
	.loc 1 162 48
	fdiv.s	fs0,fs0,fa5
	.loc 1 165 25
	call	__floatundisf
.LVL243:
	.loc 1 165 76
	sub	a5,s7,s6
	.loc 1 165 51
	fdiv.s	fs1,fa0,fs5
	.loc 1 162 23
	fmul.s	fs0,fs0,fs2
.LVL244:
	.loc 1 163 17 is_stmt 1
	.loc 1 165 57 is_stmt 0
	fcvt.s.w	fa0,a5
	fdiv.s	fs1,fs1,fa0
	.loc 1 163 23
	fdiv.s	fs0,fs0,fs2
.LVL245:
	.loc 1 164 17 is_stmt 1
	.loc 1 165 17
	.loc 1 165 23 is_stmt 0
	fmul.s	fs1,fs1,fs2
.LVL246:
	.loc 1 166 17 is_stmt 1
	.loc 1 168 20 is_stmt 0
	fgt.s	a5,fs3,fs0
	.loc 1 166 23
	fdiv.s	fs1,fs1,fs2
.LVL247:
	.loc 1 168 17 is_stmt 1
	.loc 1 168 20 is_stmt 0
	beq	a5,zero,.L99
	.loc 1 169 27
	fmv.s	fs3,fs0
.LVL248:
.L99:
	.loc 1 171 17 is_stmt 1
	.loc 1 171 20 is_stmt 0
	flt.s	a5,fs4,fs0
	beq	a5,zero,.L101
	.loc 1 172 27
	fmv.s	fs4,fs0
.LVL249:
.L101:
	.loc 1 174 17 is_stmt 1
	fmv.s	fa0,fs3
	.loc 1 181 23 is_stmt 0
	mv	s11,s7
.LVL250:
	.loc 1 182 25
	li	s10,0
	.loc 1 174 17
	call	__extendsfdf2
.LVL251:
	fmv.s	fa0,fs0
	sw	a0,24(sp)
	sw	a1,28(sp)
	call	__extendsfdf2
.LVL252:
	fmv.s	fa0,fs4
	sw	a0,16(sp)
	sw	a1,20(sp)
	call	__extendsfdf2
.LVL253:
	fmv.s	fa0,fs1
	sw	a0,8(sp)
	sw	a1,12(sp)
	call	__extendsfdf2
.LVL254:
	lw	a6,24(sp)
	lw	a7,28(sp)
	lw	a4,16(sp)
	lw	a5,20(sp)
	lui	a3,%hi(.LC18)
	sw	a0,0(sp)
	sw	a1,4(sp)
	addi	a2,a3,%lo(.LC18)
	li	a1,32
	addi	a0,sp,64
	call	snprintf
.LVL255:
	.loc 1 180 17 is_stmt 1
	addi	a1,sp,64
	addi	a0,s9,%lo(.LC13)
	call	printf
.LVL256:
	.loc 1 181 17
	.loc 1 182 17
.L98:
.LBE30:
	.loc 1 185 13
	.loc 1 185 19 is_stmt 0
	li	a3,0
	mv	a2,s1
	mv	a1,s3
	mv	a0,s0
	call	lwip_send
.LVL257:
	.loc 1 186 13 is_stmt 1
	.loc 1 186 16 is_stmt 0
	ble	a0,zero,.L103
	.loc 1 188 17 is_stmt 1
	.loc 1 188 25 is_stmt 0
	add	s10,s10,a0
.LVL258:
	.loc 1 191 13 is_stmt 1
	j	.L97
.L103:
	.loc 1 191 13
	.loc 1 191 16 is_stmt 0
	beq	a0,zero,.L97
	.loc 1 194 9 is_stmt 1
	mv	a0,s0
.LVL259:
	call	lwip_close
.LVL260:
	.loc 1 196 9
	li	a0,2000
	call	vTaskDelay
.LVL261:
	.loc 1 197 9
	lui	a0,%hi(.LC27)
	addi	a0,a0,%lo(.LC27)
	call	printf
.LVL262:
	j	.L93
	.cfi_endproc
.LFE5:
	.size	iperf_client_tcp, .-iperf_client_tcp
	.section	.text.ipus_test_cmd,"ax",@progbits
	.align	1
	.type	ipus_test_cmd, @function
ipus_test_cmd:
.LFB17:
	.loc 1 681 1
	.cfi_startproc
.LVL263:
	.loc 1 682 5
	.loc 1 682 8 is_stmt 0
	li	a5,1
	bne	a2,a5,.L118
.LVL264:
.LBB33:
.LBB34:
	.loc 1 683 9 is_stmt 1
	lui	a0,%hi(.LC28)
.LVL265:
.LBE34:
.LBE33:
	.loc 1 681 1 is_stmt 0
	addi	sp,sp,-16
	.cfi_def_cfa_offset 16
.LBB38:
.LBB35:
	.loc 1 683 9
	addi	a0,a0,%lo(.LC28)
.LBE35:
.LBE38:
	.loc 1 681 1
	sw	ra,12(sp)
	.cfi_offset 1, -4
.LBB39:
.LBB36:
	.loc 1 683 9
	call	printf
.LVL266:
	.loc 1 684 9 is_stmt 1
	lui	a0,%hi(.LC15)
.LBE36:
.LBE39:
	.loc 1 690 1 is_stmt 0
	lw	ra,12(sp)
	.cfi_restore 1
.LBB40:
.LBB37:
	.loc 1 684 9
	addi	a0,a0,%lo(.LC15)
.LBE37:
.LBE40:
	.loc 1 690 1
	addi	sp,sp,16
	.cfi_def_cfa_offset 0
.LVL267:
.L123:
	.loc 1 686 9
	tail	iperf_server_udp_entry
.LVL268:
.L118:
	.loc 1 685 12 is_stmt 1
	.loc 1 685 15 is_stmt 0
	li	a5,2
	bne	a2,a5,.L119
	.loc 1 686 9 is_stmt 1
	lw	a0,4(a3)
.LVL269:
	j	.L123
.LVL270:
.L119:
	.loc 1 688 9
	lui	a0,%hi(.LC29)
.LVL271:
	addi	a0,a0,%lo(.LC29)
	tail	printf
.LVL272:
	.cfi_endproc
.LFE17:
	.size	ipus_test_cmd, .-ipus_test_cmd
	.section	.text.ipu_test_cmd,"ax",@progbits
	.align	1
	.type	ipu_test_cmd, @function
ipu_test_cmd:
.LFB16:
	.loc 1 668 1
	.cfi_startproc
.LVL273:
	.loc 1 669 5
	.loc 1 669 8 is_stmt 0
	li	a5,1
	bne	a2,a5,.L125
.LVL274:
.LBB43:
.LBB44:
	.loc 1 670 9 is_stmt 1
	lui	a0,%hi(.LC30)
.LVL275:
.LBE44:
.LBE43:
	.loc 1 668 1 is_stmt 0
	addi	sp,sp,-16
	.cfi_def_cfa_offset 16
.LBB48:
.LBB45:
	.loc 1 670 9
	addi	a0,a0,%lo(.LC30)
.LBE45:
.LBE48:
	.loc 1 668 1
	sw	ra,12(sp)
	.cfi_offset 1, -4
.LBB49:
.LBB46:
	.loc 1 670 9
	call	printf
.LVL276:
	.loc 1 671 9 is_stmt 1
	lui	a0,%hi(.LC31)
.LBE46:
.LBE49:
	.loc 1 677 1 is_stmt 0
	lw	ra,12(sp)
	.cfi_restore 1
.LBB50:
.LBB47:
	.loc 1 671 9
	addi	a0,a0,%lo(.LC31)
.LBE47:
.LBE50:
	.loc 1 677 1
	addi	sp,sp,16
	.cfi_def_cfa_offset 0
.LVL277:
.L130:
	.loc 1 673 9
	tail	iperf_client_udp_entry
.LVL278:
.L125:
	.loc 1 672 12 is_stmt 1
	.loc 1 672 15 is_stmt 0
	li	a5,2
	bne	a2,a5,.L126
	.loc 1 673 9 is_stmt 1
	lw	a0,4(a3)
.LVL279:
	j	.L130
.LVL280:
.L126:
	.loc 1 675 9
	lui	a0,%hi(.LC32)
.LVL281:
	addi	a0,a0,%lo(.LC32)
	tail	printf
.LVL282:
	.cfi_endproc
.LFE16:
	.size	ipu_test_cmd, .-ipu_test_cmd
	.section	.text.ipc_test_cmd,"ax",@progbits
	.align	1
	.type	ipc_test_cmd, @function
ipc_test_cmd:
.LFB14:
	.loc 1 644 1
	.cfi_startproc
.LVL283:
	.loc 1 645 5
	.loc 1 645 8 is_stmt 0
	li	a5,1
	bne	a2,a5,.L132
.LVL284:
.LBB53:
.LBB54:
	.loc 1 646 9 is_stmt 1
	lui	a0,%hi(.LC33)
.LVL285:
.LBE54:
.LBE53:
	.loc 1 644 1 is_stmt 0
	addi	sp,sp,-16
	.cfi_def_cfa_offset 16
.LBB58:
.LBB55:
	.loc 1 646 9
	addi	a0,a0,%lo(.LC33)
.LBE55:
.LBE58:
	.loc 1 644 1
	sw	ra,12(sp)
	.cfi_offset 1, -4
.LBB59:
.LBB56:
	.loc 1 646 9
	call	printf
.LVL286:
	.loc 1 647 9 is_stmt 1
	lui	a0,%hi(.LC31)
.LBE56:
.LBE59:
	.loc 1 653 1 is_stmt 0
	lw	ra,12(sp)
	.cfi_restore 1
.LBB60:
.LBB57:
	.loc 1 647 9
	addi	a0,a0,%lo(.LC31)
.LBE57:
.LBE60:
	.loc 1 653 1
	addi	sp,sp,16
	.cfi_def_cfa_offset 0
.LVL287:
.L137:
	.loc 1 649 9
	tail	iperf_client_tcp_entry
.LVL288:
.L132:
	.loc 1 648 12 is_stmt 1
	.loc 1 648 15 is_stmt 0
	li	a5,2
	bne	a2,a5,.L133
	.loc 1 649 9 is_stmt 1
	lw	a0,4(a3)
.LVL289:
	j	.L137
.LVL290:
.L133:
	.loc 1 651 9
	lui	a0,%hi(.LC34)
.LVL291:
	addi	a0,a0,%lo(.LC34)
	tail	printf
.LVL292:
	.cfi_endproc
.LFE14:
	.size	ipc_test_cmd, .-ipc_test_cmd
	.section	.text.ips_test_cmd,"ax",@progbits
	.align	1
	.type	ips_test_cmd, @function
ips_test_cmd:
.LFB15:
	.loc 1 656 1
	.cfi_startproc
.LVL293:
	.loc 1 657 5
	.loc 1 657 8 is_stmt 0
	li	a5,1
	bne	a2,a5,.L139
.LVL294:
.LBB63:
.LBB64:
	.loc 1 658 9 is_stmt 1
	lui	a0,%hi(.LC35)
.LVL295:
.LBE64:
.LBE63:
	.loc 1 656 1 is_stmt 0
	addi	sp,sp,-16
	.cfi_def_cfa_offset 16
.LBB68:
.LBB65:
	.loc 1 658 9
	addi	a0,a0,%lo(.LC35)
.LBE65:
.LBE68:
	.loc 1 656 1
	sw	ra,12(sp)
	.cfi_offset 1, -4
.LBB69:
.LBB66:
	.loc 1 658 9
	call	puts
.LVL296:
	.loc 1 659 9 is_stmt 1
	lui	a0,%hi(.LC31)
.LBE66:
.LBE69:
	.loc 1 665 1 is_stmt 0
	lw	ra,12(sp)
	.cfi_restore 1
.LBB70:
.LBB67:
	.loc 1 659 9
	addi	a0,a0,%lo(.LC31)
.LBE67:
.LBE70:
	.loc 1 665 1
	addi	sp,sp,16
	.cfi_def_cfa_offset 0
.LVL297:
.L144:
	.loc 1 661 9
	tail	iperf_server_entry
.LVL298:
.L139:
	.loc 1 660 12 is_stmt 1
	.loc 1 660 15 is_stmt 0
	li	a5,2
	bne	a2,a5,.L140
	.loc 1 661 9 is_stmt 1
	lw	a0,4(a3)
.LVL299:
	j	.L144
.LVL300:
.L140:
	.loc 1 663 9
	lui	a0,%hi(.LC36)
.LVL301:
	addi	a0,a0,%lo(.LC36)
	tail	printf
.LVL302:
	.cfi_endproc
.LFE15:
	.size	ips_test_cmd, .-ips_test_cmd
	.section	.text.network_netutils_iperf_cli_register,"ax",@progbits
	.align	1
	.globl	network_netutils_iperf_cli_register
	.type	network_netutils_iperf_cli_register, @function
network_netutils_iperf_cli_register:
.LFB18:
	.loc 1 701 1
	.cfi_startproc
	.loc 1 706 5
	.loc 1 707 1 is_stmt 0
	li	a0,0
	ret
	.cfi_endproc
.LFE18:
	.size	network_netutils_iperf_cli_register, .-network_netutils_iperf_cli_register
	.section	.rodata.ipc_test_cmd.str1.4,"aMS",@progbits,1
	.align	2
.LC33:
	.string	"[NET] [IPC] [IPC] Connecting with default address 192.168.11.1\r\n"
	.zero	3
.LC34:
	.string	"[NET] [IPC] [IPC] illegal address\r\n"
	.section	.rodata.iperf_client_tcp.str1.4,"aMS",@progbits,1
	.align	2
.LC25:
	.string	"Connect failed!\r\n"
	.zero	2
.LC26:
	.string	"Connect to iperf server successful!\r\n"
	.zero	2
.LC27:
	.string	"disconnected!\r\n"
	.section	.rodata.iperf_client_tcp_entry.str1.4,"aMS",@progbits,1
	.align	2
.LC3:
	.string	"ipc"
	.section	.rodata.iperf_client_udp.cst4,"aM",@progbits,4
	.align	2
.LC16:
	.word	1123680256
.LC17:
	.word	1148846080
	.section	.rodata.iperf_client_udp.str1.4,"aMS",@progbits,1
	.align	2
.LC14:
	.string	"create socket failed!\r\n"
.LC15:
	.string	"0.0.0.0"
.LC18:
	.string	"%.4f(%.4f %.4f %.4f) Mbps!\r\n"
	.zero	3
.LC19:
	.string	"disconnected! ret %d\r\n"
	.section	.rodata.iperf_client_udp_entry.str1.4,"aMS",@progbits,1
	.align	2
.LC1:
	.string	"ipu"
	.section	.rodata.iperf_server.str1.4,"aMS",@progbits,1
	.align	2
.LC20:
	.string	"No memory\r\n"
.LC21:
	.string	"Socket error\r\n"
	.zero	1
.LC22:
	.string	"Unable to bind\r\n"
	.zero	3
.LC23:
	.string	"Listen error\r\n"
	.zero	1
.LC24:
	.string	"new client connected from (%s, %d)\r\n"
	.section	.rodata.iperf_server_entry.str1.4,"aMS",@progbits,1
	.align	2
.LC2:
	.string	"ips"
	.section	.rodata.iperf_server_udp.cst4,"aM",@progbits,4
	.align	2
.LC7:
	.word	1174011904
	.section	.rodata.iperf_server_udp.str1.4,"aMS",@progbits,1
	.align	2
.LC4:
	.string	"Create UDP Control block failed!\r\n"
	.zero	1
.LC5:
	.string	"Bind failed!\r\n"
	.zero	1
.LC6:
	.string	"bind UDP socket successfully!\r\n"
.LC8:
	.string	"ipus exit..\r\n"
	.section	.rodata.iperf_server_udp_entry.str1.4,"aMS",@progbits,1
	.align	2
.LC0:
	.string	"ipus"
	.section	.rodata.iperf_server_udp_recv_fn.cst4,"aM",@progbits,4
	.align	2
.LC10:
	.word	1232348160
.LC11:
	.word	922746880
	.section	.rodata.iperf_server_udp_recv_fn.str1.4,"aMS",@progbits,1
	.align	2
.LC9:
	.string	"iperf finish...\r\nreceive:%ld,out of order:%ld\r\n"
.LC12:
	.string	"%.4f(%.4f %.4f %.4f) Mbps, out of order: %lu.\r\n"
.LC13:
	.string	"%s"
	.section	.rodata.ips_test_cmd.str1.4,"aMS",@progbits,1
	.align	2
.LC35:
	.string	"[NET] [IPC] [IPS] Starting iperf server on 0.0.0.0\r\n"
	.zero	3
.LC36:
	.string	"[NET] [IPC] [IPS] illegal address\r\n"
	.section	.rodata.ipu_test_cmd.str1.4,"aMS",@progbits,1
	.align	2
.LC30:
	.string	"[NET] [IPC] [IPU] Connecting with default address 192.168.11.1\r\n"
	.zero	3
.LC31:
	.string	"192.168.11.1"
	.zero	3
.LC32:
	.string	"[NET] [IPC] [IPU] illegal address\r\n"
	.section	.rodata.ipus_test_cmd.str1.4,"aMS",@progbits,1
	.align	2
.LC28:
	.string	"[NET] [IPC] [IPUS] Connecting with default address 0.0.0.0\r\n"
	.zero	3
.LC29:
	.string	"[NET] [IPC] [IPUS] illegal address\r\n"
	.section	.rodata.str1.4,"aMS",@progbits,1
	.align	2
.LC37:
	.string	"iperf TCP client"
	.zero	3
.LC38:
	.string	"iperf TCP server"
	.zero	3
.LC39:
	.string	"iperf UDP client"
	.zero	3
.LC40:
	.string	"iperf UDP server"
	.section	.static_cli_cmds,"a"
	.align	2
	.type	cmds_user, @object
	.size	cmds_user, 48
cmds_user:
	.word	.LC3
	.word	.LC37
	.word	ipc_test_cmd
	.word	.LC2
	.word	.LC38
	.word	ips_test_cmd
	.word	.LC1
	.word	.LC39
	.word	ipu_test_cmd
	.word	.LC0
	.word	.LC40
	.word	ipus_test_cmd
	.text
.Letext0:
	.file 2 "/b-l/bl_iot_sdk_new/toolchain/riscv/Linux/lib/gcc/riscv64-unknown-elf/8.3.0/include/stdint-gcc.h"
	.file 3 "/b-l/bl_iot_sdk_new/toolchain/riscv/Linux/lib/gcc/riscv64-unknown-elf/8.3.0/include/stddef.h"
	.file 4 "/b-l/bl_iot_sdk_new/toolchain/riscv/Linux/riscv64-unknown-elf/include/machine/_default_types.h"
	.file 5 "/b-l/bl_iot_sdk_new/toolchain/riscv/Linux/riscv64-unknown-elf/include/sys/_types.h"
	.file 6 "/b-l/bl_iot_sdk_new/toolchain/riscv/Linux/riscv64-unknown-elf/include/sys/reent.h"
	.file 7 "/b-l/bl_iot_sdk_new/toolchain/riscv/Linux/riscv64-unknown-elf/include/sys/lock.h"
	.file 8 "/b-l/bl_iot_sdk_new/toolchain/riscv/Linux/riscv64-unknown-elf/include/sys/types.h"
	.file 9 "/b-l/bl_iot_sdk_new/components/bl602/freertos_riscv_ram/portable/GCC/RISC-V/portmacro.h"
	.file 10 "/b-l/bl_iot_sdk_new/toolchain/riscv/Linux/riscv64-unknown-elf/include/stdlib.h"
	.file 11 "/b-l/bl_iot_sdk_new/components/network/lwip/src/include/lwip/arch.h"
	.file 12 "/b-l/bl_iot_sdk_new/toolchain/riscv/Linux/riscv64-unknown-elf/include/ctype.h"
	.file 13 "/b-l/bl_iot_sdk_new/components/network/lwip/src/include/lwip/ip4_addr.h"
	.file 14 "/b-l/bl_iot_sdk_new/components/network/lwip/src/include/lwip/ip_addr.h"
	.file 15 "/b-l/bl_iot_sdk_new/components/network/lwip/src/include/lwip/err.h"
	.file 16 "/b-l/bl_iot_sdk_new/components/network/lwip/src/include/lwip/pbuf.h"
	.file 17 "/b-l/bl_iot_sdk_new/components/network/lwip/src/include/lwip/mem.h"
	.file 18 "/b-l/bl_iot_sdk_new/components/network/lwip/src/include/lwip/memp.h"
	.file 19 "/b-l/bl_iot_sdk_new/components/network/lwip/src/include/lwip/priv/memp_priv.h"
	.file 20 "/b-l/bl_iot_sdk_new/components/network/lwip/src/include/lwip/stats.h"
	.file 21 "/b-l/bl_iot_sdk_new/components/network/lwip/src/include/lwip/netif.h"
	.file 22 "/b-l/bl_iot_sdk_new/components/network/lwip/src/include/lwip/inet.h"
	.file 23 "/b-l/bl_iot_sdk_new/components/network/lwip/src/include/lwip/errno.h"
	.file 24 "/b-l/bl_iot_sdk_new/components/network/lwip/src/include/lwip/sockets.h"
	.file 25 "/b-l/bl_iot_sdk_new/components/network/lwip/src/include/lwip/prot/ip4.h"
	.file 26 "/b-l/bl_iot_sdk_new/components/network/lwip/src/include/lwip/ip.h"
	.file 27 "/b-l/bl_iot_sdk_new/components/network/lwip/src/include/lwip/udp.h"
	.file 28 "/b-l/bl_iot_sdk_new/components/stage/cli/cli/include/cli.h"
	.file 29 "/b-l/bl_iot_sdk_new/toolchain/riscv/Linux/riscv64-unknown-elf/include/string.h"
	.file 30 "/b-l/bl_iot_sdk_new/components/bl602/freertos_riscv_ram/config/portable.h"
	.file 31 "/b-l/bl_iot_sdk_new/components/stage/yloop/include/aos/kernel.h"
	.file 32 "/b-l/bl_iot_sdk_new/toolchain/riscv/Linux/riscv64-unknown-elf/include/stdio.h"
	.file 33 "/b-l/bl_iot_sdk_new/components/network/lwip/src/include/lwip/def.h"
	.file 34 "/b-l/bl_iot_sdk_new/components/bl602/freertos_riscv_ram/config/task.h"
	.file 35 "/b-l/bl_iot_sdk_new/components/bl602/freertos_riscv_ram/config/FreeRTOSConfig.h"
	.file 36 "/b-l/bl_iot_sdk_new/components/hal_drv/bl602_hal/bl_timer.h"
	.file 37 "<built-in>"