	.file	"sntp.c"
	.option nopic
	.attribute arch, "rv32i2p0_m2p0_f2p0_c2p0"
	.attribute unaligned_access, 0
	.attribute stack_align, 16
	.text
.Ltext0:
	.cfi_sections	.debug_frame
	.section	.text.sntp_retry,"ax",@progbits
	.align	1
	.type	sntp_retry, @function
sntp_retry:
.LFB11:
	.file 1 "/b-l/bl_iot_sdk/components/network/sntp/sntp.c"
	.loc 1 380 1
	.cfi_startproc
.LVL0:
	.loc 1 381 3
	.loc 1 384 54
	.loc 1 387 3
	.loc 1 380 1 is_stmt 0
	addi	sp,sp,-16
	.cfi_def_cfa_offset 16
	sw	s0,8(sp)
	.cfi_offset 8, -8
	.loc 1 387 3
	lui	s0,%hi(.LANCHOR0)
	addi	s0,s0,%lo(.LANCHOR0)
	lw	a0,0(s0)
.LVL1:
	lui	a1,%hi(sntp_request)
	li	a2,0
	addi	a1,a1,%lo(sntp_request)
	.loc 1 380 1
	sw	ra,12(sp)
	.cfi_offset 1, -4
	.loc 1 387 3
	call	sys_timeout
.LVL2:
.LBB3:
	.loc 1 391 5 is_stmt 1
	.loc 1 393 5
	.loc 1 393 44 is_stmt 0
	lw	a3,0(s0)
	.loc 1 395 8
	li	a4,151552
	addi	a4,a4,-1552
	.loc 1 393 23
	slli	a5,a3,1
.LVL3:
	.loc 1 395 5 is_stmt 1
	.loc 1 395 8 is_stmt 0
	bgtu	a5,a4,.L1
	.loc 1 395 45 discriminator 1
	bgeu	a3,a5,.L1
	.loc 1 397 7 is_stmt 1
	.loc 1 397 26 is_stmt 0
	sw	a5,0(s0)
.L1:
.LBE3:
	.loc 1 401 1
	lw	ra,12(sp)
	.cfi_restore 1
	lw	s0,8(sp)
	.cfi_restore 8
	addi	sp,sp,16
	.cfi_def_cfa_offset 0
	jr	ra
	.cfi_endproc
.LFE11:
	.size	sntp_retry, .-sntp_retry
	.section	.text.sntp_recv,"ax",@progbits
	.align	1
	.type	sntp_recv, @function
sntp_recv:
.LFB12:
	.loc 1 450 1 is_stmt 1
	.cfi_startproc
.LVL4:
	.loc 1 451 3
	.loc 1 452 3
	.loc 1 453 3
	.loc 1 454 3
	.loc 1 456 3
	lui	a0,%hi(.LC0)
.LVL5:
	.loc 1 450 1 is_stmt 0
	addi	sp,sp,-48
	.cfi_def_cfa_offset 48
	.loc 1 456 3
	addi	a0,a0,%lo(.LC0)
	.loc 1 450 1
	sw	s0,40(sp)
	sw	s1,36(sp)
	sw	ra,44(sp)
	.cfi_offset 8, -8
	.cfi_offset 9, -12
	.cfi_offset 1, -4
	mv	s1,a2
	sw	s2,32(sp)
	sw	s3,28(sp)
	.cfi_offset 18, -16
	.cfi_offset 19, -20
	.loc 1 456 3
	call	printf
.LVL6:
	.loc 1 458 3 is_stmt 1
	.loc 1 459 3
	.loc 1 461 3
	.loc 1 467 3
	.loc 1 468 3
	.loc 1 472 5
	.loc 1 472 8 is_stmt 0
	lhu	a4,8(s1)
	li	a5,48
	.loc 1 461 7
	li	s0,-16
	.loc 1 472 8
	bne	a4,a5,.L5
	.loc 1 473 7 is_stmt 1
	.loc 1 473 14 is_stmt 0
	li	a1,0
	mv	a0,s1
	call	pbuf_get_at
.LVL7:
	.loc 1 475 25
	lui	a5,%hi(.LANCHOR1)
	lbu	a5,%lo(.LANCHOR1)(a5)
	.loc 1 473 12
	andi	a0,a0,7
.LVL8:
	.loc 1 475 7 is_stmt 1
	.loc 1 475 10 is_stmt 0
	bne	a5,zero,.L6
	.loc 1 475 31 discriminator 1
	li	a5,4
	.loc 1 502 13 discriminator 1
	li	s0,-3
	.loc 1 475 31 discriminator 1
	bne	a0,a5,.L5
.L7:
	.loc 1 477 9 is_stmt 1
	.loc 1 477 19 is_stmt 0
	li	a1,1
	mv	a0,s1
.LVL9:
	call	pbuf_get_at
.LVL10:
	.loc 1 479 9 is_stmt 1
	.loc 1 479 12 is_stmt 0
	bne	a0,zero,.L8
	.loc 1 481 11 is_stmt 1
.LVL11:
	.loc 1 482 11
	lui	a0,%hi(.LC1)
.LVL12:
	addi	a0,a0,%lo(.LC1)
	call	printf
.LVL13:
	.loc 1 481 15 is_stmt 0
	li	s0,1
	j	.L5
.LVL14:
.L6:
	.loc 1 475 50 discriminator 3
	li	a4,1
	.loc 1 502 13 discriminator 3
	li	s0,-3
	.loc 1 475 50 discriminator 3
	bne	a5,a4,.L5
	.loc 1 476 31
	li	a5,5
	beq	a0,a5,.L7
.LVL15:
.L5:
	.loc 1 505 7 is_stmt 1
	.loc 1 515 3
	mv	a0,s1
	call	pbuf_free
.LVL16:
	.loc 1 517 3
	lui	a0,%hi(.LC2)
	addi	a0,a0,%lo(.LC2)
	call	printf
.LVL17:
	.loc 1 518 3
	.loc 1 518 6 is_stmt 0
	bne	s0,zero,.L9
.LVL18:
	.loc 1 520 5 is_stmt 1
.LBB7:
.LBB8:
	.loc 1 293 3
	.loc 1 294 3
	.loc 1 296 3
	.loc 1 296 16 is_stmt 0
	lw	a0,8(sp)
	.loc 1 335 11
	lui	s3,%hi(.LANCHOR2)
	.loc 1 336 12
	lui	s2,%hi(.LANCHOR3)
	.loc 1 296 16
	call	lwip_htonl
.LVL19:
	mv	s0,a0
.LVL20:
	.loc 1 297 3 is_stmt 1
	.loc 1 297 10 is_stmt 0
	lw	a0,12(sp)
	.loc 1 335 11
	addi	s3,s3,%lo(.LANCHOR2)
	.loc 1 336 12
	addi	s2,s2,%lo(.LANCHOR3)
	.loc 1 297 10
	call	lwip_htonl
.LVL21:
	mv	s1,a0
.LVL22:
	.loc 1 299 3 is_stmt 1
	lui	a0,%hi(.LC3)
	addi	a0,a0,%lo(.LC3)
	call	printf
.LVL23:
	.loc 1 332 3
	.loc 1 334 3
	call	vTaskEnterCritical
.LVL24:
	.loc 1 335 3
	.loc 1 335 17 is_stmt 0
	li	a5,2085978112
	addi	a5,a5,384
	add	s0,s0,a5
.LVL25:
	.loc 1 335 11
	sw	s0,0(s3)
	.loc 1 336 3 is_stmt 1
	.loc 1 336 12 is_stmt 0
	sw	s1,0(s2)
	.loc 1 337 3 is_stmt 1
	.loc 1 337 19 is_stmt 0
	call	xTaskGetTickCount
.LVL26:
	.loc 1 337 17
	lui	a5,%hi(.LANCHOR4)
	sw	a0,%lo(.LANCHOR4)(a5)
	.loc 1 338 3 is_stmt 1
	.loc 1 338 60 is_stmt 0
	lw	a0,0(s2)
	.loc 1 338 42
	li	a4,1000
	lw	a1,0(s3)
	.loc 1 338 60
	divu	a0,a0,a4
	.loc 1 338 42
	mul	a5,a4,a1
	mulhu	a1,a4,a1
	.loc 1 338 3
	add	a0,a5,a0
	sltu	a5,a0,a5
	add	a1,a5,a1
	call	bl_sys_time_update
.LVL27:
	.loc 1 339 3 is_stmt 1
	call	vTaskExitCritical
.LVL28:
	.loc 1 341 3
	.loc 1 342 3
	.loc 1 342 101 is_stmt 0
	li	a2,999424
	addi	a2,a2,576
	mulhu	a2,s1,a2
	.loc 1 342 3
	lui	a0,%hi(.LC4)
	mv	a1,s0
	addi	a0,a0,%lo(.LC4)
	call	printf
.LVL29:
.LBE8:
.LBE7:
	.loc 1 524 5 is_stmt 1
	.loc 1 524 34 is_stmt 0
	lui	a5,%hi(.LANCHOR5)
	addi	a5,a5,%lo(.LANCHOR5)
	lbu	a4,8(a5)
	ori	a4,a4,1
	sb	a4,8(a5)
	.loc 1 527 5 is_stmt 1
	.loc 1 527 8 is_stmt 0
	lui	a5,%hi(.LANCHOR1)
	lbu	a5,%lo(.LANCHOR1)(a5)
	bne	a5,zero,.L4
.LBB9:
	.loc 1 528 7 is_stmt 1
	.loc 1 529 7
	lui	a0,%hi(sntp_retry)
	li	a1,0
	addi	a0,a0,%lo(sntp_retry)
	call	sys_untimeout
.LVL30:
	.loc 1 530 7
	lui	s0,%hi(sntp_request)
.LVL31:
	li	a1,0
	addi	a0,s0,%lo(sntp_request)
	call	sys_untimeout
.LVL32:
	.loc 1 533 7
	.loc 1 533 26 is_stmt 0
	li	a5,16384
	.loc 1 536 7
	li	a0,3600384
	.loc 1 533 26
	lui	a4,%hi(.LANCHOR0)
	addi	a5,a5,-1384
	.loc 1 536 7
	li	a2,0
	addi	a1,s0,%lo(sntp_request)
	addi	a0,a0,-384
	.loc 1 533 26
	sw	a5,%lo(.LANCHOR0)(a4)
	.loc 1 535 7 is_stmt 1
.LVL33:
	.loc 1 536 7
	call	sys_timeout
.LVL34:
.L4:
.LBE9:
	.loc 1 549 1 is_stmt 0
	lw	ra,44(sp)
	.cfi_remember_state
	.cfi_restore 1
	lw	s0,40(sp)
	.cfi_restore 8
	lw	s1,36(sp)
	.cfi_restore 9
	lw	s2,32(sp)
	.cfi_restore 18
	lw	s3,28(sp)
	.cfi_restore 19
	addi	sp,sp,48
	.cfi_def_cfa_offset 0
	jr	ra
.LVL35:
.L8:
	.cfi_restore_state
	.loc 1 484 11 is_stmt 1
	li	a3,40
	li	a2,8
	addi	a1,sp,8
	mv	a0,s1
.LVL36:
	call	pbuf_copy_partial
.LVL37:
	.loc 1 496 13
	.loc 1 496 17 is_stmt 0
	li	s0,0
	j	.L5
.LVL38:
.L9:
	.loc 1 540 10 is_stmt 1
	.loc 1 540 13 is_stmt 0
	li	a5,1
	bne	s0,a5,.L4
.LVL39:
	.loc 1 542 5 is_stmt 1
	.loc 1 542 8 is_stmt 0
	lui	a5,%hi(.LANCHOR1)
	lbu	a5,%lo(.LANCHOR1)(a5)
	bne	a5,zero,.L4
	.loc 1 544 7 is_stmt 1
	li	a0,0
	call	sntp_retry
.LVL40:
	.loc 1 548 3
	.loc 1 549 1 is_stmt 0
	j	.L4
	.cfi_endproc
.LFE12:
	.size	sntp_recv, .-sntp_recv
	.section	.text.sntp_send_request,"ax",@progbits
	.align	1
	.type	sntp_send_request, @function
sntp_send_request:
.LFB13:
	.loc 1 557 1 is_stmt 1
	.cfi_startproc
.LVL41:
	.loc 1 558 3
	.loc 1 560 3
	.loc 1 560 8
	.loc 1 560 7
	.loc 1 562 3
	.loc 1 557 1 is_stmt 0
	addi	sp,sp,-16
	.cfi_def_cfa_offset 16
	sw	s2,0(sp)
	.loc 1 562 7
	li	a2,640
	.cfi_offset 18, -16
	.loc 1 557 1
	mv	s2,a0
	.loc 1 562 7
	li	a1,48
	li	a0,182
.LVL42:
	.loc 1 557 1
	sw	ra,12(sp)
	sw	s0,8(sp)
	sw	s1,4(sp)
	.cfi_offset 1, -4
	.cfi_offset 8, -8
	.cfi_offset 9, -12
	.loc 1 562 7
	call	pbuf_alloc
.LVL43:
	.loc 1 563 3 is_stmt 1
	.loc 1 563 6 is_stmt 0
	beq	a0,zero,.L18
.LBB16:
	.loc 1 564 22
	lw	s1,4(a0)
	mv	s0,a0
	.loc 1 564 5 is_stmt 1
.LVL44:
	.loc 1 565 5
	.loc 1 567 5
.LBB17:
.LBB18:
	.loc 1 351 3
	li	a2,48
	li	a1,0
	mv	a0,s1
.LVL45:
	call	memset
.LVL46:
	.loc 1 352 3
	.loc 1 352 19 is_stmt 0
	li	a5,35
	sb	a5,0(s1)
.LVL47:
.LBE18:
.LBE17:
	.loc 1 569 5 is_stmt 1
	lui	a5,%hi(.LANCHOR6)
	lw	a0,%lo(.LANCHOR6)(a5)
	mv	a2,s2
	mv	a1,s0
	li	a3,123
	call	udp_sendto
.LVL48:
	.loc 1 571 5
	mv	a0,s0
	call	pbuf_free
.LVL49:
	.loc 1 574 5
	.loc 1 574 34 is_stmt 0
	lui	a5,%hi(.LANCHOR5)
	addi	a5,a5,%lo(.LANCHOR5)
	lbu	a4,8(a5)
	.loc 1 577 5
	lui	a1,%hi(sntp_retry)
	li	a2,0
	.loc 1 574 34
	slli	a4,a4,1
	sb	a4,8(a5)
	.loc 1 577 5 is_stmt 1
	addi	a1,a1,%lo(sntp_retry)
.LVL50:
.L20:
.LBE16:
	.loc 1 588 1 is_stmt 0
	lw	s0,8(sp)
	.cfi_remember_state
	.cfi_restore 8
	lw	ra,12(sp)
	.cfi_restore 1
	lw	s1,4(sp)
	.cfi_restore 9
	lw	s2,0(sp)
	.cfi_restore 18
.LVL51:
.LBB19:
.LBB20:
	.loc 1 586 5
	li	a0,16384
.LBE20:
.LBE19:
	.loc 1 588 1
.LBB23:
.LBB21:
	.loc 1 586 5
	addi	a0,a0,-1384
.LBE21:
.LBE23:
	.loc 1 588 1
	addi	sp,sp,16
	.cfi_def_cfa_offset 0
.LBB24:
.LBB22:
	.loc 1 586 5
	tail	sys_timeout
.LVL52:
.L18:
	.cfi_restore_state
	.loc 1 584 65 is_stmt 1
	.loc 1 586 5
	lui	a1,%hi(sntp_request)
	li	a2,0
	addi	a1,a1,%lo(sntp_request)
	j	.L20
.LBE22:
.LBE24:
	.cfi_endproc
.LFE13:
	.size	sntp_send_request, .-sntp_send_request
	.section	.text.sntp_request,"ax",@progbits
	.align	1
	.type	sntp_request, @function
sntp_request:
.LFB15:
	.loc 1 620 1
	.cfi_startproc
.LVL53:
	.loc 1 621 3
	.loc 1 622 3
	.loc 1 624 3
	.loc 1 628 3
	.loc 1 620 1 is_stmt 0
	addi	sp,sp,-32
	.cfi_def_cfa_offset 32
	sw	s0,24(sp)
	.cfi_offset 8, -8
	.loc 1 628 22
	lui	s0,%hi(.LANCHOR5)
	addi	s0,s0,%lo(.LANCHOR5)
	lw	a0,0(s0)
.LVL54:
	.loc 1 620 1
	sw	ra,28(sp)
	.cfi_offset 1, -4
	.loc 1 628 6
	beq	a0,zero,.L22
	.loc 1 630 5 is_stmt 1
	.loc 1 631 11 is_stmt 0
	lui	a2,%hi(sntp_dns_found)
	li	a3,0
	addi	a2,a2,%lo(sntp_dns_found)
	addi	a1,sp,12
	.loc 1 630 36
	sw	zero,4(s0)
	.loc 1 631 5 is_stmt 1
	.loc 1 631 11 is_stmt 0
	call	dns_gethostbyname
.LVL55:
	.loc 1 633 5 is_stmt 1
	.loc 1 633 8 is_stmt 0
	li	a5,-5
	beq	a0,a5,.L21
	.loc 1 637 12 is_stmt 1
	.loc 1 637 15 is_stmt 0
	bne	a0,zero,.L24
	.loc 1 638 7 is_stmt 1
	.loc 1 638 28 is_stmt 0
	lw	a5,12(sp)
	sw	a5,4(s0)
.LVL56:
	.loc 1 647 3 is_stmt 1
.L25:
	.loc 1 649 71
	.loc 1 650 5
	addi	a0,sp,12
	call	sntp_send_request
.LVL57:
.L21:
	.loc 1 656 1 is_stmt 0
	lw	ra,28(sp)
	.cfi_remember_state
	.cfi_restore 1
	lw	s0,24(sp)
	.cfi_restore 8
	addi	sp,sp,32
	.cfi_def_cfa_offset 0
	jr	ra
.L22:
	.cfi_restore_state
	.loc 1 643 5 is_stmt 1
	.loc 1 643 25 is_stmt 0
	lw	a5,4(s0)
	sw	a5,12(sp)
	.loc 1 644 5 is_stmt 1
	.loc 1 644 9 is_stmt 0
	bne	a5,zero,.L25
.L24:
	.loc 1 653 5 is_stmt 1
	.loc 1 654 5
	lui	a1,%hi(sntp_retry)
	li	a0,16384
	li	a2,0
	addi	a1,a1,%lo(sntp_retry)
	addi	a0,a0,-1384
	call	sys_timeout
.LVL58:
	j	.L21
	.cfi_endproc
.LFE15:
	.size	sntp_request, .-sntp_request
	.section	.text.sntp_dns_found,"ax",@progbits
	.align	1
	.type	sntp_dns_found, @function
sntp_dns_found:
.LFB14:
	.loc 1 596 1
	.cfi_startproc
.LVL59:
	.loc 1 597 3
	.loc 1 598 3
	.loc 1 600 3
	.loc 1 600 6 is_stmt 0
	beq	a1,zero,.L32
	.loc 1 602 5 is_stmt 1
	.loc 1 603 5
	.loc 1 603 26 is_stmt 0
	lw	a4,0(a1)
	lui	a5,%hi(.LANCHOR5+4)
	.loc 1 604 5
	mv	a0,a1
.LVL60:
	.loc 1 603 26
	sw	a4,%lo(.LANCHOR5+4)(a5)
	.loc 1 604 5 is_stmt 1
	tail	sntp_send_request
.LVL61:
.L32:
	.loc 1 607 5
	.loc 1 608 5
	li	a0,0
.LVL62:
	tail	sntp_retry
.LVL63:
	.cfi_endproc
.LFE14:
	.size	sntp_dns_found, .-sntp_dns_found
	.section	.text.sntp_init,"ax",@progbits
	.align	1
	.globl	sntp_init
	.type	sntp_init, @function
sntp_init:
.LFB16:
	.loc 1 665 1
	.cfi_startproc
	.loc 1 676 3
	.loc 1 665 1 is_stmt 0
	addi	sp,sp,-16
	.cfi_def_cfa_offset 16
	sw	s0,8(sp)
	.cfi_offset 8, -8
	.loc 1 676 16
	lui	s0,%hi(.LANCHOR6)
	addi	s0,s0,%lo(.LANCHOR6)
	.loc 1 676 6
	lw	a5,0(s0)
	.loc 1 665 1
	sw	ra,12(sp)
	.cfi_offset 1, -4
	.loc 1 676 6
	bne	a5,zero,.L33
	.loc 1 677 5 is_stmt 1
	.loc 1 677 16 is_stmt 0
	li	a0,46
	call	udp_new_ip_type
.LVL64:
	mv	a1,a0
	.loc 1 677 14
	sw	a0,0(s0)
	.loc 1 678 5 is_stmt 1
	lui	a0,%hi(.LC5)
	addi	a0,a0,%lo(.LC5)
	call	printf
.LVL65:
	.loc 1 679 5
	.loc 1 679 10
	.loc 1 679 14 is_stmt 0
	lw	a0,0(s0)
	.loc 1 679 9 is_stmt 1
	.loc 1 680 5
	.loc 1 680 8 is_stmt 0
	beq	a0,zero,.L33
	.loc 1 681 7 is_stmt 1
	lui	a1,%hi(sntp_recv)
	li	a2,0
	addi	a1,a1,%lo(sntp_recv)
	call	udp_recv
.LVL66:
	.loc 1 683 7
	.loc 1 683 23 is_stmt 0
	lui	a5,%hi(.LANCHOR1)
	lbu	a5,%lo(.LANCHOR1)(a5)
	.loc 1 683 10
	bne	a5,zero,.L37
	.loc 1 684 9 is_stmt 1
	.loc 1 684 28 is_stmt 0
	li	a5,16384
	addi	a5,a5,-1384
	lui	a4,%hi(.LANCHOR0)
	sw	a5,%lo(.LANCHOR0)(a4)
	.loc 1 686 9 is_stmt 1
	.loc 1 686 37 is_stmt 0
	call	bl_rand
.LVL67:
	.loc 1 686 9
	li	a5,4096
	addi	a5,a5,904
	remu	a0,a0,a5
	.loc 1 696 1
	lw	s0,8(sp)
	.cfi_remember_state
	.cfi_restore 8
	lw	ra,12(sp)
	.cfi_restore 1
	.loc 1 686 9
	lui	a1,%hi(sntp_request)
	.loc 1 696 1
	.loc 1 686 9
	li	a2,0
	addi	a1,a1,%lo(sntp_request)
	.loc 1 696 1
	addi	sp,sp,16
	.cfi_def_cfa_offset 0
	.loc 1 686 9
	tail	sys_timeout
.LVL68:
.L37:
	.cfi_restore_state
	.loc 1 690 14 is_stmt 1
	.loc 1 690 17 is_stmt 0
	li	a4,1
	bne	a5,a4,.L33
	.loc 1 691 9 is_stmt 1
	.loc 1 691 52 is_stmt 0
	lw	a0,0(s0)
	.loc 1 692 9
	lui	a1,%hi(ip_addr_any)
	li	a2,123
	.loc 1 691 35
	lbu	a5,9(a0)
	.loc 1 692 9
	addi	a1,a1,%lo(ip_addr_any)
	.loc 1 691 35
	ori	a5,a5,32
	.loc 1 691 33
	sb	a5,9(a0)
	.loc 1 692 9 is_stmt 1
	.loc 1 696 1 is_stmt 0
	lw	s0,8(sp)
	.cfi_remember_state
	.cfi_restore 8
	lw	ra,12(sp)
	.cfi_restore 1
	addi	sp,sp,16
	.cfi_def_cfa_offset 0
	.loc 1 692 9
	tail	udp_bind
.LVL69:
.L33:
	.cfi_restore_state
	.loc 1 696 1
	lw	ra,12(sp)
	.cfi_restore 1
	lw	s0,8(sp)
	.cfi_restore 8
	addi	sp,sp,16
	.cfi_def_cfa_offset 0
	jr	ra
	.cfi_endproc
.LFE16:
	.size	sntp_init, .-sntp_init
	.section	.text.sntp_stop,"ax",@progbits
	.align	1
	.globl	sntp_stop
	.type	sntp_stop, @function
sntp_stop:
.LFB17:
	.loc 1 704 1 is_stmt 1
	.cfi_startproc
	.loc 1 705 3
	.loc 1 706 3
	.loc 1 704 1 is_stmt 0
	addi	sp,sp,-16
	.cfi_def_cfa_offset 16
	sw	s0,8(sp)
	.cfi_offset 8, -8
	.loc 1 706 16
	lui	s0,%hi(.LANCHOR6)
	addi	s0,s0,%lo(.LANCHOR6)
	.loc 1 706 6
	lw	a5,0(s0)
	.loc 1 704 1
	sw	ra,12(sp)
	.cfi_offset 1, -4
	.loc 1 706 6
	beq	a5,zero,.L42
.LVL70:
.LBB25:
	.loc 1 710 7 is_stmt 1 discriminator 1
	.loc 1 713 5 is_stmt 0 discriminator 1
	lui	a0,%hi(sntp_request)
	.loc 1 710 36 discriminator 1
	lui	a5,%hi(.LANCHOR5+8)
	.loc 1 713 5 discriminator 1
	li	a1,0
	addi	a0,a0,%lo(sntp_request)
	.loc 1 710 36 discriminator 1
	sb	zero,%lo(.LANCHOR5+8)(a5)
.LVL71:
	.loc 1 713 5 is_stmt 1 discriminator 1
	call	sys_untimeout
.LVL72:
	.loc 1 714 5 discriminator 1
	lui	a0,%hi(sntp_retry)
	li	a1,0
	addi	a0,a0,%lo(sntp_retry)
	call	sys_untimeout
.LVL73:
	.loc 1 715 5 discriminator 1
	lw	a0,0(s0)
	call	udp_remove
.LVL74:
	.loc 1 716 5 discriminator 1
	.loc 1 716 14 is_stmt 0 discriminator 1
	sw	zero,0(s0)
.LVL75:
.L42:
.LBE25:
	.loc 1 718 1
	lw	ra,12(sp)
	.cfi_restore 1
	lw	s0,8(sp)
	.cfi_restore 8
	addi	sp,sp,16
	.cfi_def_cfa_offset 0
	jr	ra
	.cfi_endproc
.LFE17:
	.size	sntp_stop, .-sntp_stop
	.section	.text.sntp_enabled,"ax",@progbits
	.align	1
	.globl	sntp_enabled
	.type	sntp_enabled, @function
sntp_enabled:
.LFB18:
	.loc 1 725 1 is_stmt 1
	.cfi_startproc
	.loc 1 726 3
	.loc 1 726 32 is_stmt 0
	lui	a5,%hi(.LANCHOR6)
	lw	a0,%lo(.LANCHOR6)(a5)
	.loc 1 727 1
	snez	a0,a0
	ret
	.cfi_endproc
.LFE18:
	.size	sntp_enabled, .-sntp_enabled
	.section	.text.sntp_setoperatingmode,"ax",@progbits
	.align	1
	.globl	sntp_setoperatingmode
	.type	sntp_setoperatingmode, @function
sntp_setoperatingmode:
.LFB19:
	.loc 1 736 1 is_stmt 1
	.cfi_startproc
.LVL76:
	.loc 1 737 3
	.loc 1 738 3
	.loc 1 738 8
	.loc 1 738 38
	.loc 1 739 3
	.loc 1 739 8
	.loc 1 739 7
	.loc 1 740 3
	.loc 1 740 15 is_stmt 0
	lui	a5,%hi(.LANCHOR1)
	sb	a0,%lo(.LANCHOR1)(a5)
	.loc 1 741 1
	ret
	.cfi_endproc
.LFE19:
	.size	sntp_setoperatingmode, .-sntp_setoperatingmode
	.section	.text.sntp_getoperatingmode,"ax",@progbits
	.align	1
	.globl	sntp_getoperatingmode
	.type	sntp_getoperatingmode, @function
sntp_getoperatingmode:
.LFB20:
	.loc 1 749 1 is_stmt 1
	.cfi_startproc
	.loc 1 750 3
	.loc 1 751 1 is_stmt 0
	lui	a5,%hi(.LANCHOR1)
	lbu	a0,%lo(.LANCHOR1)(a5)
	ret
	.cfi_endproc
.LFE20:
	.size	sntp_getoperatingmode, .-sntp_getoperatingmode
	.section	.text.sntp_getreachability,"ax",@progbits
	.align	1
	.globl	sntp_getreachability
	.type	sntp_getreachability, @function
sntp_getreachability:
.LFB21:
	.loc 1 762 1 is_stmt 1
	.cfi_startproc
.LVL77:
	.loc 1 763 3
	.loc 1 763 6 is_stmt 0
	bne	a0,zero,.L53
	.loc 1 764 5 is_stmt 1
	.loc 1 764 29 is_stmt 0
	lui	a5,%hi(.LANCHOR5+8)
	lbu	a0,%lo(.LANCHOR5+8)(a5)
.LVL78:
	ret
.LVL79:
.L53:
	.loc 1 766 10
	li	a0,0
.LVL80:
	.loc 1 767 1
	ret
	.cfi_endproc
.LFE21:
	.size	sntp_getreachability, .-sntp_getreachability
	.section	.text.sntp_setserver,"ax",@progbits
	.align	1
	.globl	sntp_setserver
	.type	sntp_setserver, @function
sntp_setserver:
.LFB22:
	.loc 1 795 1 is_stmt 1
	.cfi_startproc
.LVL81:
	.loc 1 796 3
	.loc 1 797 3
	.loc 1 797 6 is_stmt 0
	bne	a0,zero,.L54
	.loc 1 798 5 is_stmt 1
	lui	a5,%hi(.LANCHOR5)
	addi	a5,a5,%lo(.LANCHOR5)
	.loc 1 798 8 is_stmt 0
	beq	a1,zero,.L56
	.loc 1 799 7 is_stmt 1
	.loc 1 799 30 is_stmt 0
	lw	a4,0(a1)
	sw	a4,4(a5)
.L57:
	.loc 1 804 5 is_stmt 1
	.loc 1 804 28 is_stmt 0
	sw	zero,0(a5)
.L54:
	.loc 1 807 1
	ret
.L56:
	.loc 1 801 7 is_stmt 1
	.loc 1 801 40 is_stmt 0
	sw	zero,4(a5)
	j	.L57
	.cfi_endproc
.LFE22:
	.size	sntp_setserver, .-sntp_setserver
	.section	.text.sntp_getserver,"ax",@progbits
	.align	1
	.globl	sntp_getserver
	.type	sntp_getserver, @function
sntp_getserver:
.LFB23:
	.loc 1 846 1 is_stmt 1
	.cfi_startproc
.LVL82:
	.loc 1 847 3
	.loc 1 847 6 is_stmt 0
	bne	a0,zero,.L60
	.loc 1 848 12
	lui	a0,%hi(.LANCHOR5+4)
.LVL83:
	addi	a0,a0,%lo(.LANCHOR5+4)
	ret
.LVL84:
.L60:
	.loc 1 850 11
	lui	a0,%hi(ip_addr_any)
.LVL85:
	addi	a0,a0,%lo(ip_addr_any)
	.loc 1 851 1
	ret
	.cfi_endproc
.LFE23:
	.size	sntp_getserver, .-sntp_getserver
	.section	.text.sntp_get_time,"ax",@progbits
	.align	1
	.globl	sntp_get_time
	.type	sntp_get_time, @function
sntp_get_time:
.LFB24:
	.loc 1 854 1 is_stmt 1
	.cfi_startproc
.LVL86:
	.loc 1 855 5
	.loc 1 856 5
	.loc 1 858 5
	.loc 1 854 1 is_stmt 0
	addi	sp,sp,-16
	.cfi_def_cfa_offset 16
	sw	s0,8(sp)
	.cfi_offset 8, -8
	.loc 1 860 11
	lui	s0,%hi(.LANCHOR2)
	.loc 1 854 1
	sw	s1,4(sp)
	sw	s2,0(sp)
	sw	ra,12(sp)
	.cfi_offset 9, -12
	.cfi_offset 18, -16
	.cfi_offset 1, -4
	.loc 1 854 1
	mv	s2,a0
	mv	s1,a1
	.loc 1 860 11
	addi	s0,s0,%lo(.LANCHOR2)
	.loc 1 858 5
	call	vTaskEnterCritical
.LVL87:
	.loc 1 860 5 is_stmt 1
	.loc 1 860 8 is_stmt 0
	lw	a5,0(s0)
	bne	a5,zero,.L62
	.loc 1 861 9 is_stmt 1
	.loc 1 861 18 is_stmt 0
	sw	zero,0(s2)
	.loc 1 862 9 is_stmt 1
	.loc 1 862 16 is_stmt 0
	sw	zero,0(s1)
.L63:
	.loc 1 876 5 is_stmt 1
	call	vTaskExitCritical
.LVL88:
	.loc 1 877 5
	.loc 1 878 1 is_stmt 0
	lw	ra,12(sp)
	.cfi_remember_state
	.cfi_restore 1
	lw	s0,8(sp)
	.cfi_restore 8
	lw	s1,4(sp)
	.cfi_restore 9
.LVL89:
	lw	s2,0(sp)
	.cfi_restore 18
.LVL90:
	li	a0,0
	addi	sp,sp,16
	.cfi_def_cfa_offset 0
	jr	ra
.LVL91:
.L62:
	.cfi_restore_state
	.loc 1 864 9 is_stmt 1
	.loc 1 864 29 is_stmt 0
	call	xTaskGetTickCount
.LVL92:
	.loc 1 864 17
	lui	a5,%hi(.LANCHOR4)
	lw	a5,%lo(.LANCHOR4)(a5)
	.loc 1 867 19
	li	a4,1000
	.loc 1 866 21
	lw	a2,0(s0)
	.loc 1 864 17
	sub	a0,a0,a5
.LVL93:
	.loc 1 866 9 is_stmt 1
	.loc 1 867 9
	.loc 1 867 19 is_stmt 0
	lui	a5,%hi(.LANCHOR3)
	lw	a5,%lo(.LANCHOR3)(a5)
	.loc 1 869 33
	div	a3,a0,a4
	.loc 1 867 19
	divu	a5,a5,a4
.LVL94:
	.loc 1 869 9 is_stmt 1
	.loc 1 870 9
	.loc 1 872 9
	.loc 1 869 21 is_stmt 0
	add	a3,a3,a2
.LVL95:
	.loc 1 872 18
	sw	a3,0(s2)
	.loc 1 873 9 is_stmt 1
	.loc 1 870 31 is_stmt 0
	rem	a0,a0,a4
.LVL96:
	.loc 1 870 19
	add	a0,a0,a5
.LVL97:
	.loc 1 873 16
	sw	a0,0(s1)
	j	.L63
	.cfi_endproc
.LFE24:
	.size	sntp_get_time, .-sntp_get_time
	.section	.text.sntp_setservername,"ax",@progbits
	.align	1
	.globl	sntp_setservername
	.type	sntp_setservername, @function
sntp_setservername:
.LFB25:
	.loc 1 889 1 is_stmt 1
	.cfi_startproc
.LVL98:
	.loc 1 890 3
	.loc 1 891 3
	.loc 1 891 6 is_stmt 0
	bne	a0,zero,.L65
	.loc 1 892 5 is_stmt 1
	.loc 1 892 28 is_stmt 0
	lui	a5,%hi(.LANCHOR5)
	sw	a1,%lo(.LANCHOR5)(a5)
.L65:
	.loc 1 894 1
	ret
	.cfi_endproc
.LFE25:
	.size	sntp_setservername, .-sntp_setservername
	.section	.text.sntp_getservername,"ax",@progbits
	.align	1
	.globl	sntp_getservername
	.type	sntp_getservername, @function
sntp_getservername:
.LFB26:
	.loc 1 905 1 is_stmt 1
	.cfi_startproc
.LVL99:
	.loc 1 906 3
	.loc 1 906 6 is_stmt 0
	bne	a0,zero,.L69
	.loc 1 907 5 is_stmt 1
	.loc 1 907 29 is_stmt 0
	lui	a5,%hi(.LANCHOR5)
	lw	a0,%lo(.LANCHOR5)(a5)
.LVL100:
	ret
.LVL101:
.L69:
	.loc 1 909 9
	li	a0,0
.LVL102:
	.loc 1 910 1
	ret
	.cfi_endproc
.LFE26:
	.size	sntp_getservername, .-sntp_getservername
	.section	.bss.sntp_servers,"aw",@nobits
	.align	2
	.set	.LANCHOR5,. + 0
	.type	sntp_servers, @object
	.size	sntp_servers, 12
sntp_servers:
	.zero	12
	.section	.rodata.sntp_init.str1.4,"aMS",@progbits,1
	.align	2
.LC5:
	.string	"[SNTP] pcb isready, %p\r\n"
	.section	.rodata.sntp_recv.str1.4,"aMS",@progbits,1
	.align	2
.LC0:
	.string	"SNTP time now\r\n"
.LC1:
	.string	"sntp_recv: Received Kiss-of-Death\r\n"
.LC2:
	.string	"Try process\r\n"
	.zero	2
.LC3:
	.string	"Processing...\r\n"
.LC4:
	.string	"sntp_process: %ld, %lu us\r\n"
	.section	.sbss.ntp_frag,"aw",@nobits
	.align	2
	.set	.LANCHOR3,. + 0
	.type	ntp_frag, @object
	.size	ntp_frag, 4
ntp_frag:
	.zero	4
	.section	.sbss.ntp_sec,"aw",@nobits
	.align	2
	.set	.LANCHOR2,. + 0
	.type	ntp_sec, @object
	.size	ntp_sec, 4
ntp_sec:
	.zero	4
	.section	.sbss.sntp_opmode,"aw",@nobits
	.set	.LANCHOR1,. + 0
	.type	sntp_opmode, @object
	.size	sntp_opmode, 1
sntp_opmode:
	.zero	1
	.section	.sbss.sntp_pcb,"aw",@nobits
	.align	2
	.set	.LANCHOR6,. + 0
	.type	sntp_pcb, @object
	.size	sntp_pcb, 4
sntp_pcb:
	.zero	4
	.section	.sbss.sntp_retry_timeout,"aw",@nobits
	.align	2
	.set	.LANCHOR0,. + 0
	.type	sntp_retry_timeout, @object
	.size	sntp_retry_timeout, 4
sntp_retry_timeout:
	.zero	4
	.section	.sbss.time_obtained,"aw",@nobits
	.align	2
	.set	.LANCHOR4,. + 0
	.type	time_obtained, @object
	.size	time_obtained, 4
time_obtained:
	.zero	4
	.text
.Letext0:
	.file 2 "/b-l/bl_iot_sdk/toolchain/riscv/Linux/lib/gcc/riscv64-unknown-elf/8.3.0/include/stdint-gcc.h"
	.file 3 "/b-l/bl_iot_sdk/components/bl602/freertos_riscv_ram/portable/GCC/RISC-V/portmacro.h"
	.file 4 "/b-l/bl_iot_sdk/components/network/lwip/lwip-port/arch/cc.h"
	.file 5 "/b-l/bl_iot_sdk/toolchain/riscv/Linux/lib/gcc/riscv64-unknown-elf/8.3.0/include/stddef.h"
	.file 6 "/b-l/bl_iot_sdk/toolchain/riscv/Linux/riscv64-unknown-elf/include/sys/_types.h"
	.file 7 "/b-l/bl_iot_sdk/toolchain/riscv/Linux/riscv64-unknown-elf/include/sys/reent.h"
	.file 8 "/b-l/bl_iot_sdk/toolchain/riscv/Linux/riscv64-unknown-elf/include/sys/lock.h"
	.file 9 "/b-l/bl_iot_sdk/toolchain/riscv/Linux/riscv64-unknown-elf/include/stdlib.h"
	.file 10 "/b-l/bl_iot_sdk/components/network/lwip/src/include/lwip/arch.h"
	.file 11 "/b-l/bl_iot_sdk/toolchain/riscv/Linux/riscv64-unknown-elf/include/ctype.h"
	.file 12 "/b-l/bl_iot_sdk/components/network/lwip/src/include/lwip/ip4_addr.h"
	.file 13 "/b-l/bl_iot_sdk/components/network/lwip/src/include/lwip/prot/iana.h"
	.file 14 "/b-l/bl_iot_sdk/components/network/lwip/src/include/lwip/ip_addr.h"
	.file 15 "/b-l/bl_iot_sdk/components/network/lwip/src/include/lwip/err.h"
	.file 16 "/b-l/bl_iot_sdk/components/network/lwip/src/include/lwip/timeouts.h"
	.file 17 "/b-l/bl_iot_sdk/components/network/lwip/src/include/lwip/pbuf.h"
	.file 18 "/b-l/bl_iot_sdk/components/network/lwip/src/include/lwip/mem.h"
	.file 19 "/b-l/bl_iot_sdk/components/network/lwip/src/include/lwip/memp.h"
	.file 20 "/b-l/bl_iot_sdk/components/network/lwip/src/include/lwip/priv/memp_priv.h"
	.file 21 "/b-l/bl_iot_sdk/components/network/lwip/src/include/lwip/stats.h"
	.file 22 "/b-l/bl_iot_sdk/components/network/lwip/src/include/lwip/netif.h"
	.file 23 "/b-l/bl_iot_sdk/components/network/lwip/src/include/lwip/prot/ip4.h"
	.file 24 "/b-l/bl_iot_sdk/components/network/lwip/src/include/lwip/ip.h"
	.file 25 "/b-l/bl_iot_sdk/components/network/lwip/src/include/lwip/udp.h"
	.file 26 "/b-l/bl_iot_sdk/components/network/lwip/src/include/lwip/dns.h"
	.file 27 "/b-l/bl_iot_sdk/toolchain/riscv/Linux/riscv64-unknown-elf/include/time.h"
	.file 28 "/b-l/bl_iot_sdk/components/bl602/bl602_std/bl602_std/RISCV/Device/Bouffalo/BL602/Startup/system_bl602.h"
	.file 29 "/b-l/bl_iot_sdk/components/bl602/bl602_std/bl602_std/StdDriver/Inc/bl602_common.h"
	.file 30 "/b-l/bl_iot_sdk/components/bl602/freertos_riscv_ram/config/task.h"
	.file 31 "/b-l/bl_iot_sdk/toolchain/riscv/Linux/riscv64-unknown-elf/include/stdio.h"
	.file 32 "/b-l/bl_iot_sdk/components/network/lwip/lwip-port/config/lwipopts.h"
	.file 33 "/b-l/bl_iot_sdk/components/network/lwip/src/include/lwip/def.h"
	.file 34 "/b-l/bl_iot_sdk/components/sys/bltime/include/bl_sys_time.h"
	.file 35 "/b-l/bl_iot_sdk/toolchain/riscv/Linux/riscv64-unknown-elf/include/string.h"