	.file	"tasks.c"
	.option nopic
	.attribute arch, "rv32i2p0_m2p0_f2p0_c2p0"
	.attribute unaligned_access, 0
	.attribute stack_align, 16
	.text
.Ltext0:
	.cfi_sections	.debug_frame
	.section	.text.prvResetNextTaskUnblockTime.part.0,"ax",@progbits
	.align	1
	.type	prvResetNextTaskUnblockTime.part.0, @function
prvResetNextTaskUnblockTime.part.0:
.LFB71:
	.file 1 "/b-l/bl_iot_sdk/components/bl602/freertos_riscv_ram/tasks.c"
	.loc 1 3958 13
	.cfi_startproc
	.loc 1 3976 3
	.loc 1 3976 42 is_stmt 0
	lui	a5,%hi(.LANCHOR0)
	lw	a4,%lo(.LANCHOR0)(a5)
.LVL0:
	.loc 1 3977 3 is_stmt 1
	.loc 1 3977 24 is_stmt 0
	lui	a5,%hi(.LANCHOR1)
	.loc 1 3976 13
	lw	a4,12(a4)
.LVL1:
	.loc 1 3977 62
	lw	a4,12(a4)
.LVL2:
	lw	a4,4(a4)
.LVL3:
	.loc 1 3977 24
	sw	a4,%lo(.LANCHOR1)(a5)
	.loc 1 3979 1
	ret
	.cfi_endproc
.LFE71:
	.size	prvResetNextTaskUnblockTime.part.0, .-prvResetNextTaskUnblockTime.part.0
	.section	.text.prvInitialiseNewTask.isra.2,"ax",@progbits
	.align	1
	.type	prvInitialiseNewTask.isra.2, @function
prvInitialiseNewTask.isra.2:
.LFB73:
	.loc 1 821 13 is_stmt 1
	.cfi_startproc
.LVL4:
	addi	sp,sp,-48
	.cfi_def_cfa_offset 48
	sw	s5,20(sp)
	.cfi_offset 21, -28
	mv	s5,a0
.LVL5:
	.loc 1 830 1
	.loc 1 831 1
	.loc 1 851 3
	.loc 1 851 12 is_stmt 0
	lw	a0,48(a6)
.LVL6:
	.loc 1 821 13
	sw	s7,12(sp)
	.cfi_offset 23, -36
	.loc 1 851 12
	slli	s7,a2,2
	.loc 1 821 13
	sw	s0,40(sp)
	sw	s1,36(sp)
	.loc 1 851 12
	mv	a2,s7
.LVL7:
	.cfi_offset 8, -8
	.cfi_offset 9, -12
	.loc 1 821 13
	mv	s1,a6
	mv	s0,a1
	.loc 1 851 12
	li	a1,165
.LVL8:
	.loc 1 821 13
	sw	s2,32(sp)
	sw	s3,28(sp)
	sw	s4,24(sp)
	sw	s6,16(sp)
	sw	ra,44(sp)
	.cfi_offset 18, -16
	.cfi_offset 19, -20
	.cfi_offset 20, -24
	.cfi_offset 22, -32
	.cfi_offset 1, -4
	.loc 1 821 13
	mv	s6,a3
	mv	s2,a4
	mv	s4,a5
	.loc 1 851 12
	call	memset
.LVL9:
	.loc 1 861 3 is_stmt 1
	.loc 1 862 3
	.loc 1 861 16 is_stmt 0
	lw	s3,48(s1)
	.loc 1 861 18
	addi	s7,s7,-4
.LVL10:
	.loc 1 861 16
	add	s3,s3,s7
	.loc 1 862 68
	andi	s3,s3,-8
.LVL11:
	.loc 1 865 3 is_stmt 1
	.loc 1 889 2
	.loc 1 889 4 is_stmt 0
	beq	s0,zero,.L4
	mv	a1,s0
	addi	a5,s1,52
	addi	a4,s0,16
.L6:
.LVL12:
	.loc 1 893 4 is_stmt 1
	.loc 1 904 5
	.loc 1 893 38 is_stmt 0
	lbu	a3,0(a1)
	addi	a5,a5,1
	addi	a1,a1,1
.LVL13:
	.loc 1 893 30
	sb	a3,-1(a5)
	.loc 1 898 4 is_stmt 1
	.loc 1 898 6 is_stmt 0
	beq	a3,zero,.L5
	.loc 1 891 3
	bne	a1,a4,.L6
.L5:
	.loc 1 910 3 is_stmt 1
	.loc 1 910 38 is_stmt 0
	sb	zero,67(s1)
.LVL14:
.L7:
	.loc 1 921 2 is_stmt 1
	li	a5,31
	bleu	s2,a5,.L8
	li	s2,31
.LVL15:
.L8:
	.loc 1 927 3
	.loc 1 930 2
	.loc 1 938 2 is_stmt 0
	addi	a0,s1,4
	.loc 1 930 23
	sw	s2,44(s1)
	.loc 1 933 3 is_stmt 1
	.loc 1 933 28 is_stmt 0
	sw	s2,80(s1)
	.loc 1 934 3 is_stmt 1
	.loc 1 934 27 is_stmt 0
	sw	zero,84(s1)
	.loc 1 938 2 is_stmt 1
	call	vListInitialiseItem
.LVL16:
	.loc 1 939 2
	addi	a0,s1,24
	call	vListInitialiseItem
.LVL17:
	.loc 1 943 2
	.loc 1 946 76 is_stmt 0
	li	a4,32
	sub	s0,a4,s2
.LVL18:
	.loc 1 989 29
	sw	zero,88(s1)
	.loc 1 943 47
	sw	s1,16(s1)
	.loc 1 946 2 is_stmt 1
	.loc 1 946 50 is_stmt 0
	sw	s0,24(s1)
	.loc 1 947 2 is_stmt 1
	.loc 1 947 47 is_stmt 0
	sw	s1,36(s1)
	.loc 1 951 3 is_stmt 1
	.loc 1 951 31 is_stmt 0
	sw	zero,68(s1)
	.loc 1 974 3 is_stmt 1
	.loc 1 989 3
	.loc 1 990 3
	.loc 1 990 27 is_stmt 0
	sb	zero,92(s1)
	.loc 1 1053 4 is_stmt 1
	.loc 1 1053 29 is_stmt 0
	mv	a2,s6
	mv	a1,s5
	mv	a0,s3
	call	pxPortInitialiseStack
.LVL19:
	.loc 1 1053 27
	sw	a0,0(s1)
	.loc 1 1059 2 is_stmt 1
	.loc 1 1059 4 is_stmt 0
	beq	s4,zero,.L3
	.loc 1 1063 3 is_stmt 1
	.loc 1 1063 18 is_stmt 0
	sw	s1,0(s4)
	.loc 1 1067 3 is_stmt 1
.L3:
	.loc 1 1069 1 is_stmt 0
	lw	ra,44(sp)
	.cfi_remember_state
	.cfi_restore 1
	lw	s0,40(sp)
	.cfi_restore 8
	lw	s1,36(sp)
	.cfi_restore 9
.LVL20:
	lw	s2,32(sp)
	.cfi_restore 18
.LVL21:
	lw	s3,28(sp)
	.cfi_restore 19
.LVL22:
	lw	s4,24(sp)
	.cfi_restore 20
.LVL23:
	lw	s5,20(sp)
	.cfi_restore 21
.LVL24:
	lw	s6,16(sp)
	.cfi_restore 22
.LVL25:
	lw	s7,12(sp)
	.cfi_restore 23
	addi	sp,sp,48
	.cfi_def_cfa_offset 0
	jr	ra
.LVL26:
.L4:
	.cfi_restore_state
	.loc 1 916 3 is_stmt 1
	.loc 1 916 29 is_stmt 0
	sb	zero,52(s1)
	j	.L7
	.cfi_endproc
.LFE73:
	.size	prvInitialiseNewTask.isra.2, .-prvInitialiseNewTask.isra.2
	.section	.text.prvDeleteTCB,"ax",@progbits
	.align	1
	.type	prvDeleteTCB, @function
prvDeleteTCB:
.LFB51:
	.loc 1 3905 2 is_stmt 1
	.cfi_startproc
.LVL27:
	.loc 1 3909 3
	.loc 1 3931 4
	.loc 1 3931 13 is_stmt 0
	lbu	a4,93(a0)
	.loc 1 3931 6
	beq	a4,zero,.L25
	.loc 1 3938 9 is_stmt 1
	.loc 1 3938 11 is_stmt 0
	li	a5,1
	beq	a4,a5,.L26
	.loc 1 3948 5 is_stmt 1
	.loc 1 3948 7 is_stmt 0
	li	a5,2
	bne	a4,a5,.L27
	ret
.L27:
	.loc 1 3948 70 is_stmt 1 discriminator 1
	tail	vAssertCalled
.LVL28:
.L25:
.LBB131:
.LBB132:
	.loc 1 3935 5
.LBE132:
.LBE131:
	.loc 1 3905 2 is_stmt 0
	addi	sp,sp,-16
	.cfi_def_cfa_offset 16
	sw	s0,8(sp)
	sw	ra,12(sp)
	.cfi_offset 8, -8
	.cfi_offset 1, -4
	mv	s0,a0
.LBB135:
.LBB133:
	.loc 1 3935 5
	lw	a0,48(a0)
.LVL29:
	call	vPortFree
.LVL30:
	.loc 1 3936 5 is_stmt 1
	mv	a0,s0
.LBE133:
.LBE135:
	.loc 1 3953 2 is_stmt 0
	lw	s0,8(sp)
	.cfi_restore 8
.LVL31:
	lw	ra,12(sp)
	.cfi_restore 1
	addi	sp,sp,16
	.cfi_def_cfa_offset 0
.LBB136:
.LBB134:
	.loc 1 3936 5
	tail	vPortFree
.LVL32:
.L26:
.LBE134:
.LBE136:
	.loc 1 3942 5 is_stmt 1
	tail	vPortFree
.LVL33:
	.cfi_endproc
.LFE51:
	.size	prvDeleteTCB, .-prvDeleteTCB
	.section	.text.prvAddCurrentTaskToDelayedList,"ax",@progbits
	.align	1
	.type	prvAddCurrentTaskToDelayedList, @function
prvAddCurrentTaskToDelayedList:
.LFB70:
	.loc 1 5162 1
	.cfi_startproc
.LVL34:
	addi	sp,sp,-32
	.cfi_def_cfa_offset 32
	sw	s0,24(sp)
	.cfi_offset 8, -8
	.loc 1 5177 35 is_stmt 0
	lui	s0,%hi(.LANCHOR3)
	.loc 1 5164 18
	lui	a5,%hi(.LANCHOR2)
	.loc 1 5177 35
	addi	s0,s0,%lo(.LANCHOR3)
	.loc 1 5162 1
	sw	s2,16(sp)
	.cfi_offset 18, -16
	.loc 1 5164 18
	lw	s2,%lo(.LANCHOR2)(a5)
	.loc 1 5177 35
	lw	a5,0(s0)
	.loc 1 5162 1
	sw	s1,20(sp)
	.cfi_offset 9, -12
	mv	s1,a0
	.loc 1 5163 1 is_stmt 1
	.loc 1 5164 1
.LVL35:
	.loc 1 5177 2
	.loc 1 5177 6 is_stmt 0
	addi	a0,a5,4
.LVL36:
	.loc 1 5162 1
	sw	s3,12(sp)
	sw	ra,28(sp)
	.cfi_offset 19, -20
	.cfi_offset 1, -4
	.loc 1 5162 1
	mv	s3,a1
	.loc 1 5177 6
	call	uxListRemove
.LVL37:
	.loc 1 5177 4
	bne	a0,zero,.L29
	.loc 1 5181 3 is_stmt 1
	.loc 1 5181 53 is_stmt 0
	lw	a5,0(s0)
	.loc 1 5181 26
	lui	a4,%hi(.LANCHOR4)
	addi	a4,a4,%lo(.LANCHOR4)
	.loc 1 5181 36
	lw	a2,44(a5)
	.loc 1 5181 26
	lw	a3,0(a4)
	.loc 1 5181 36
	li	a5,1
	sll	a5,a5,a2
	.loc 1 5181 29
	not	a5,a5
	.loc 1 5181 26
	and	a5,a5,a3
	sw	a5,0(a4)
.L29:
	.loc 1 5185 3 is_stmt 1
	.loc 1 5190 3
	.loc 1 5190 5 is_stmt 0
	li	a5,-1
	beq	s1,a5,.L37
.L30:
	.loc 1 5202 4 is_stmt 1
	.loc 1 5205 23 is_stmt 0
	lw	a5,0(s0)
	.loc 1 5202 16
	add	s1,s2,s1
.LVL38:
	.loc 1 5205 4 is_stmt 1
	.loc 1 5205 56 is_stmt 0
	sw	s1,4(a5)
	.loc 1 5207 4 is_stmt 1
	.loc 1 5207 6 is_stmt 0
	bgtu	s2,s1,.L38
	.loc 1 5217 5 is_stmt 1
	lui	a5,%hi(.LANCHOR0)
	lw	a0,%lo(.LANCHOR0)(a5)
	.loc 1 5217 52 is_stmt 0
	lw	a1,0(s0)
	.loc 1 5217 5
	addi	a1,a1,4
	call	vListInsert
.LVL39:
	.loc 1 5222 5 is_stmt 1
	.loc 1 5222 21 is_stmt 0
	lui	a5,%hi(.LANCHOR1)
	addi	a5,a5,%lo(.LANCHOR1)
	lw	a4,0(a5)
	.loc 1 5222 7
	bleu	a4,s1,.L28
	.loc 1 5224 6 is_stmt 1
	.loc 1 5224 27 is_stmt 0
	sw	s1,0(a5)
	.loc 1 5228 6 is_stmt 1
.L28:
	.loc 1 5270 1 is_stmt 0
	lw	ra,28(sp)
	.cfi_remember_state
	.cfi_restore 1
	lw	s0,24(sp)
	.cfi_restore 8
	lw	s1,20(sp)
	.cfi_restore 9
.LVL40:
	lw	s2,16(sp)
	.cfi_restore 18
.LVL41:
	lw	s3,12(sp)
	.cfi_restore 19
.LVL42:
	addi	sp,sp,32
	.cfi_def_cfa_offset 0
	jr	ra
.LVL43:
.L38:
	.cfi_restore_state
.LBB139:
.LBB140:
	.loc 1 5211 5 is_stmt 1
	lui	a5,%hi(.LANCHOR6)
	lw	a0,%lo(.LANCHOR6)(a5)
	.loc 1 5211 60 is_stmt 0
	lw	a1,0(s0)
.LBE140:
.LBE139:
	.loc 1 5270 1
	lw	s0,24(sp)
	.cfi_remember_state
	.cfi_restore 8
	lw	ra,28(sp)
	.cfi_restore 1
	lw	s1,20(sp)
	.cfi_restore 9
.LVL44:
	lw	s2,16(sp)
	.cfi_restore 18
.LVL45:
	lw	s3,12(sp)
	.cfi_restore 19
.LVL46:
.LBB143:
.LBB141:
	.loc 1 5211 5
	addi	a1,a1,4
.LBE141:
.LBE143:
	.loc 1 5270 1
	addi	sp,sp,32
	.cfi_def_cfa_offset 0
.LBB144:
.LBB142:
	.loc 1 5211 5
	tail	vListInsert
.LVL47:
.L37:
	.cfi_restore_state
.LBE142:
.LBE144:
	.loc 1 5190 55 discriminator 1
	beq	s3,zero,.L30
	.loc 1 5195 4 is_stmt 1
	.loc 1 5195 56 is_stmt 0
	lw	a1,0(s0)
	.loc 1 5270 1
	lw	s0,24(sp)
	.cfi_restore 8
	lw	ra,28(sp)
	.cfi_restore 1
	lw	s1,20(sp)
	.cfi_restore 9
.LVL48:
	lw	s2,16(sp)
	.cfi_restore 18
.LVL49:
	lw	s3,12(sp)
	.cfi_restore 19
.LVL50:
	.loc 1 5195 4
	lui	a0,%hi(.LANCHOR5)
	.loc 1 5270 1
	.loc 1 5195 4
	addi	a0,a0,%lo(.LANCHOR5)
	addi	a1,a1,4
	.loc 1 5270 1
	addi	sp,sp,32
	.cfi_def_cfa_offset 0
	.loc 1 5195 4
	tail	vListInsertEnd
.LVL51:
	.cfi_endproc
.LFE70:
	.size	prvAddCurrentTaskToDelayedList, .-prvAddCurrentTaskToDelayedList
	.section	.text.vTaskEnterCritical.part.7,"ax",@progbits
	.align	1
	.type	vTaskEnterCritical.part.7, @function
vTaskEnterCritical.part.7:
.LFB78:
	.loc 1 4298 7 is_stmt 1
	.cfi_startproc
	.loc 1 4304 4
	.loc 1 4304 18 is_stmt 0
	lui	a5,%hi(.LANCHOR3)
	addi	a5,a5,%lo(.LANCHOR3)
	lw	a4,0(a5)
	.loc 1 4312 20
	lw	a5,0(a5)
	.loc 1 4304 39
	lw	a5,68(a4)
	addi	a5,a5,1
	sw	a5,68(a4)
	.loc 1 4312 4 is_stmt 1
	.loc 1 4314 5
	.loc 1 4319 4
	.loc 1 4321 2 is_stmt 0
	ret
	.cfi_endproc
.LFE78:
	.size	vTaskEnterCritical.part.7, .-vTaskEnterCritical.part.7
	.section	.text.vTaskExitCritical.part.8,"ax",@progbits
	.align	1
	.type	vTaskExitCritical.part.8, @function
vTaskExitCritical.part.8:
.LFB79:
	.loc 1 4328 7 is_stmt 1
	.cfi_startproc
	.loc 1 4334 5
	.loc 1 4334 19 is_stmt 0
	lui	a5,%hi(.LANCHOR3)
	addi	a5,a5,%lo(.LANCHOR3)
	lw	a4,0(a5)
	.loc 1 4336 21
	lw	a3,0(a5)
	.loc 1 4334 40
	lw	a5,68(a4)
	addi	a5,a5,-1
	sw	a5,68(a4)
	.loc 1 4336 5 is_stmt 1
	.loc 1 4336 7 is_stmt 0
	lw	a5,68(a3)
	bne	a5,zero,.L40
	.loc 1 4338 6 is_stmt 1
 #APP
# 4338 "/b-l/bl_iot_sdk/components/bl602/freertos_riscv_ram/tasks.c" 1
	csrs mstatus, 8
# 0 "" 2
	.loc 1 4352 4
 #NO_APP
.L40:
	.loc 1 4354 2 is_stmt 0
	ret
	.cfi_endproc
.LFE79:
	.size	vTaskExitCritical.part.8, .-vTaskExitCritical.part.8
	.section	.text.prvAddNewTaskToReadyList,"ax",@progbits
	.align	1
	.type	prvAddNewTaskToReadyList, @function
prvAddNewTaskToReadyList:
.LFB8:
	.loc 1 1073 1 is_stmt 1
	.cfi_startproc
.LVL52:
	.loc 1 1076 2
.LBB151:
.LBB152:
	.loc 1 4300 3
.LBE152:
.LBE151:
	.loc 1 1073 1 is_stmt 0
	addi	sp,sp,-32
	.cfi_def_cfa_offset 32
	sw	s2,16(sp)
	sw	ra,28(sp)
	sw	s0,24(sp)
	sw	s1,20(sp)
	sw	s3,12(sp)
	sw	s4,8(sp)
	sw	s5,4(sp)
	.cfi_offset 18, -16
	.cfi_offset 1, -4
	.cfi_offset 8, -8
	.cfi_offset 9, -12
	.cfi_offset 19, -20
	.cfi_offset 20, -24
	.cfi_offset 21, -28
	.loc 1 1073 1
	mv	s2,a0
.LBB154:
.LBB153:
	.loc 1 4300 3
 #APP
# 4300 "/b-l/bl_iot_sdk/components/bl602/freertos_riscv_ram/tasks.c" 1
	csrc mstatus, 8
# 0 "" 2
	.loc 1 4302 3 is_stmt 1
	.loc 1 4302 25 is_stmt 0
 #NO_APP
	lui	s0,%hi(.LANCHOR7)
	addi	s0,s0,%lo(.LANCHOR7)
	lw	a5,0(s0)
	.loc 1 4302 5
	beq	a5,zero,.L43
	call	vTaskEnterCritical.part.7
.LVL53:
.L43:
	.loc 1 4319 4 is_stmt 1
.LBE153:
.LBE154:
	.loc 1 1078 3
	.loc 1 1078 25 is_stmt 0
	lui	a5,%hi(.LANCHOR8)
	addi	a5,a5,%lo(.LANCHOR8)
	lw	a4,0(a5)
	.loc 1 1079 20
	lui	s1,%hi(.LANCHOR3)
	addi	s1,s1,%lo(.LANCHOR3)
	.loc 1 1078 25
	addi	a4,a4,1
	sw	a4,0(a5)
	.loc 1 1079 3 is_stmt 1
	.loc 1 1079 20 is_stmt 0
	lw	a4,0(s1)
	.loc 1 1079 5
	beq	a4,zero,.L69
	.loc 1 1102 4 is_stmt 1
	.loc 1 1102 26 is_stmt 0
	lw	a5,0(s0)
	lw	a1,44(s2)
	.loc 1 1102 6
	beq	a5,zero,.L65
.L68:
	lui	s3,%hi(.LANCHOR9)
	addi	s3,s3,%lo(.LANCHOR9)
.L46:
	.loc 1 1115 5 is_stmt 1
	.loc 1 1119 3
	.loc 1 1119 15 is_stmt 0
	lui	a3,%hi(.LANCHOR14)
	addi	a3,a3,%lo(.LANCHOR14)
	.loc 1 1129 28
	lui	a4,%hi(.LANCHOR4)
	.loc 1 1119 15
	lw	a2,0(a3)
	.loc 1 1129 28
	addi	a4,a4,%lo(.LANCHOR4)
	lw	a6,0(a4)
	.loc 1 1129 72
	slli	a0,a1,2
	add	a0,a0,a1
	.loc 1 1129 37
	li	a5,1
	.loc 1 1119 15
	addi	a2,a2,1
	.loc 1 1129 37
	sll	a5,a5,a1
	.loc 1 1129 72
	slli	a0,a0,2
	.loc 1 1129 28
	or	a5,a5,a6
	.loc 1 1124 26
	sw	a2,72(s2)
	.loc 1 1129 72
	addi	a1,s2,4
	add	a0,s3,a0
	.loc 1 1129 28
	sw	a5,0(a4)
	.loc 1 1119 15
	sw	a2,0(a3)
	.loc 1 1124 4 is_stmt 1
	.loc 1 1127 3
	.loc 1 1129 3
	.loc 1 1129 5
	.loc 1 1129 72
	call	vListInsertEnd
.LVL54:
	.loc 1 1129 177
	.loc 1 1131 3
	.loc 1 1133 2
.LBB155:
.LBB156:
	.loc 1 4330 3
	.loc 1 4330 25 is_stmt 0
	lw	a5,0(s0)
	.loc 1 4330 5
	beq	a5,zero,.L48
	.loc 1 4332 4 is_stmt 1
	.loc 1 4332 20 is_stmt 0
	lw	a5,0(s1)
	.loc 1 4332 6
	lw	a5,68(a5)
	bne	a5,zero,.L70
.L48:
	.loc 1 4352 4 is_stmt 1
.LBE156:
.LBE155:
	.loc 1 1135 2
	.loc 1 1135 24 is_stmt 0
	lw	a5,0(s0)
	.loc 1 1135 4
	beq	a5,zero,.L42
	.loc 1 1139 3 is_stmt 1
	.loc 1 1139 19 is_stmt 0
	lw	a4,0(s1)
	.loc 1 1139 5
	lw	a5,44(s2)
	lw	a4,44(a4)
	bgeu	a4,a5,.L42
	.loc 1 1141 4 is_stmt 1
 #APP
# 1141 "/b-l/bl_iot_sdk/components/bl602/freertos_riscv_ram/tasks.c" 1
	ecall
# 0 "" 2
	.loc 1 1141 30
	.loc 1 1150 3
 #NO_APP
.L42:
	.loc 1 1152 1 is_stmt 0
	lw	ra,28(sp)
	.cfi_remember_state
	.cfi_restore 1
	lw	s0,24(sp)
	.cfi_restore 8
	lw	s1,20(sp)
	.cfi_restore 9
	lw	s2,16(sp)
	.cfi_restore 18
.LVL55:
	lw	s3,12(sp)
	.cfi_restore 19
	lw	s4,8(sp)
	.cfi_restore 20
	lw	s5,4(sp)
	.cfi_restore 21
	addi	sp,sp,32
	.cfi_def_cfa_offset 0
	jr	ra
.LVL56:
.L65:
	.cfi_restore_state
	.loc 1 1104 5 is_stmt 1
	.loc 1 1104 21 is_stmt 0
	lw	a5,0(s1)
	.loc 1 1104 7
	lw	a5,44(a5)
	bgtu	a5,a1,.L68
	.loc 1 1106 6 is_stmt 1
	.loc 1 1106 19 is_stmt 0
	sw	s2,0(s1)
	j	.L68
.L70:
.LBB158:
.LBB157:
	call	vTaskExitCritical.part.8
.LVL57:
	j	.L48
.L69:
.LBE157:
.LBE158:
	.loc 1 1083 4 is_stmt 1
	.loc 1 1083 17 is_stmt 0
	sw	s2,0(s1)
	.loc 1 1085 4 is_stmt 1
	.loc 1 1085 31 is_stmt 0
	lw	a4,0(a5)
	.loc 1 1085 6
	li	a5,1
	beq	a4,a5,.L45
	lui	s3,%hi(.LANCHOR9)
	lw	a1,44(s2)
	addi	s3,s3,%lo(.LANCHOR9)
	j	.L46
.L45:
	lui	s4,%hi(.LANCHOR9)
	addi	s3,s4,%lo(.LANCHOR9)
	addi	s5,s3,640
	addi	s4,s4,%lo(.LANCHOR9)
.L47:
.LBB159:
.LBB160:
	.loc 1 3630 3 is_stmt 1
	mv	a0,s4
	addi	s4,s4,20
	call	vListInitialise
.LVL58:
	.loc 1 3628 2 is_stmt 0
	bne	s5,s4,.L47
	.loc 1 3633 2 is_stmt 1
	lui	a5,%hi(.LANCHOR10)
	addi	a0,a5,%lo(.LANCHOR10)
	addi	s5,a5,%lo(.LANCHOR10)
	call	vListInitialise
.LVL59:
	.loc 1 3634 2
	lui	a5,%hi(.LANCHOR11)
	addi	a0,a5,%lo(.LANCHOR11)
	addi	s4,a5,%lo(.LANCHOR11)
	call	vListInitialise
.LVL60:
	.loc 1 3635 2
	lui	a0,%hi(.LANCHOR12)
	addi	a0,a0,%lo(.LANCHOR12)
	call	vListInitialise
.LVL61:
	.loc 1 3639 3
	lui	a0,%hi(.LANCHOR13)
	addi	a0,a0,%lo(.LANCHOR13)
	call	vListInitialise
.LVL62:
	.loc 1 3645 3
	lui	a0,%hi(.LANCHOR5)
	addi	a0,a0,%lo(.LANCHOR5)
	call	vListInitialise
.LVL63:
	.loc 1 3651 2
	.loc 1 3651 20 is_stmt 0
	lui	a4,%hi(.LANCHOR0)
	.loc 1 3652 28
	lui	a5,%hi(.LANCHOR6)
	.loc 1 3651 20
	sw	s5,%lo(.LANCHOR0)(a4)
	.loc 1 3652 2 is_stmt 1
	.loc 1 3652 28 is_stmt 0
	sw	s4,%lo(.LANCHOR6)(a5)
	lw	a1,44(s2)
	j	.L46
.LBE160:
.LBE159:
	.cfi_endproc
.LFE8:
	.size	prvAddNewTaskToReadyList, .-prvAddNewTaskToReadyList
	.section	.text.prvIdleTask,"ax",@progbits
	.align	1
	.type	prvIdleTask, @function
prvIdleTask:
.LFB44:
	.loc 1 3413 1 is_stmt 1
	.cfi_startproc
.LVL64:
	addi	sp,sp,-48
	.cfi_def_cfa_offset 48
	sw	s0,40(sp)
	sw	s2,32(sp)
	sw	s3,28(sp)
	sw	s4,24(sp)
	sw	s5,20(sp)
	sw	s6,16(sp)
	.cfi_offset 8, -8
	.cfi_offset 18, -16
	.cfi_offset 19, -20
	.cfi_offset 20, -24
	.cfi_offset 21, -28
	.cfi_offset 22, -32
	lui	s0,%hi(.LANCHOR15)
	lui	s3,%hi(.LANCHOR7)
	lui	s6,%hi(.LANCHOR13)
	lui	s2,%hi(.LANCHOR8)
	lui	s5,%hi(.LANCHOR3)
	lui	s4,%hi(.LANCHOR9)
	sw	s7,12(sp)
	sw	ra,44(sp)
	sw	s1,36(sp)
	.cfi_offset 23, -36
	.cfi_offset 1, -4
	.cfi_offset 9, -12
	addi	s0,s0,%lo(.LANCHOR15)
	addi	s3,s3,%lo(.LANCHOR7)
	addi	s6,s6,%lo(.LANCHOR13)
	addi	s2,s2,%lo(.LANCHOR8)
	addi	s5,s5,%lo(.LANCHOR3)
	addi	s4,s4,%lo(.LANCHOR9)
	.loc 1 3452 6 is_stmt 0
	li	s7,1
	.loc 1 3415 2 is_stmt 1
	.loc 1 3423 2
	.loc 1 3425 2
	.loc 1 3429 3
.LBB169:
.LBB170:
	.loc 1 3663 3
	.loc 1 3667 3
	j	.L92
.LVL65:
.L75:
	.loc 1 3669 4
.LBB171:
.LBB172:
	.loc 1 4300 3
 #APP
# 4300 "/b-l/bl_iot_sdk/components/bl602/freertos_riscv_ram/tasks.c" 1
	csrc mstatus, 8
# 0 "" 2
	.loc 1 4302 3
	.loc 1 4302 25 is_stmt 0
 #NO_APP
	lw	a5,0(s3)
	.loc 1 4302 5
	beq	a5,zero,.L73
	call	vTaskEnterCritical.part.7
.LVL66:
.L73:
	.loc 1 4319 4 is_stmt 1
.LBE172:
.LBE171:
	.loc 1 3671 5
	.loc 1 3671 11 is_stmt 0
	lw	a5,12(s6)
	lw	s1,12(a5)
.LVL67:
	.loc 1 3672 5 is_stmt 1
	.loc 1 3672 14 is_stmt 0
	addi	a0,s1,4
	call	uxListRemove
.LVL68:
	.loc 1 3673 5 is_stmt 1
.LBB173:
.LBB174:
	.loc 1 4332 4
.LBE174:
.LBE173:
	.loc 1 3673 5 is_stmt 0
	lw	a5,0(s2)
	addi	a5,a5,-1
	sw	a5,0(s2)
	.loc 1 3674 5 is_stmt 1
	lw	a5,0(s0)
	addi	a5,a5,-1
	sw	a5,0(s0)
	.loc 1 3676 4
.LBB176:
.LBB175:
	.loc 1 4330 3
	.loc 1 4330 25 is_stmt 0
	lw	a5,0(s3)
	.loc 1 4330 5
	beq	a5,zero,.L74
	.loc 1 4332 20
	lw	a5,0(s5)
	.loc 1 4332 6
	lw	a5,68(a5)
	beq	a5,zero,.L74
	call	vTaskExitCritical.part.8
.LVL69:
.L74:
	.loc 1 4352 4 is_stmt 1
.LBE175:
.LBE176:
	.loc 1 3678 4
	mv	a0,s1
	call	prvDeleteTCB
.LVL70:
.L92:
	.loc 1 3667 39 is_stmt 0
	lw	a5,0(s0)
	.loc 1 3667 8
	bne	a5,zero,.L75
.LBE170:
.LBE169:
	.loc 1 3452 4 is_stmt 1
	.loc 1 3452 62 is_stmt 0
	lw	a5,0(s4)
	.loc 1 3452 6
	bleu	a5,s7,.L76
	.loc 1 3454 5 is_stmt 1
 #APP
# 3454 "/b-l/bl_iot_sdk/components/bl602/freertos_riscv_ram/tasks.c" 1
	ecall
# 0 "" 2
	.loc 1 3454 31
 #NO_APP
.L76:
	.loc 1 3458 5
.LBB177:
	.loc 1 3465 4
	.loc 1 3472 4
	call	vApplicationIdleHook
.LVL71:
.LBE177:
	.loc 1 3429 3 is_stmt 0
	j	.L92
	.cfi_endproc
.LFE44:
	.size	prvIdleTask, .-prvIdleTask
	.section	.text.xTaskCreateStatic,"ax",@progbits
	.align	1
	.globl	xTaskCreateStatic
	.type	xTaskCreateStatic, @function
xTaskCreateStatic:
.LFB5:
	.loc 1 585 2 is_stmt 1
	.cfi_startproc
.LVL72:
	.loc 1 586 2
	.loc 1 587 2
	.loc 1 589 3
	.loc 1 585 2 is_stmt 0
	addi	sp,sp,-64
	.cfi_def_cfa_offset 64
	sw	s0,56(sp)
	sw	s1,52(sp)
	sw	ra,60(sp)
	.cfi_offset 8, -8
	.cfi_offset 9, -12
	.cfi_offset 1, -4
	.loc 1 585 2
	mv	s1,a5
	mv	s0,a6
	.loc 1 589 5
	beq	a5,zero,.L108
	.loc 1 590 3 is_stmt 1
	.loc 1 590 5 is_stmt 0
	beq	s0,zero,.L109
.LVL73:
.L95:
.LBB182:
	.loc 1 597 4 is_stmt 1
	.loc 1 597 20 is_stmt 0
	li	a5,96
	sw	a5,40(sp)
	.loc 1 598 4 is_stmt 1
	.loc 1 598 37 is_stmt 0
	lw	a6,40(sp)
	.loc 1 598 6
	bne	a6,a5,.L110
	.loc 1 599 4 is_stmt 1
	lw	a5,40(sp)
.LBE182:
	.loc 1 604 3
.L99:
	.loc 1 624 12 is_stmt 0 discriminator 1
	li	a5,0
	.loc 1 604 31 discriminator 1
	beq	s1,zero,.L93
.LVL74:
.LBB183:
.LBB184:
	.loc 1 608 4 is_stmt 1
	.loc 1 609 4
	.loc 1 615 37 is_stmt 0
	li	a7,2
	.loc 1 619 4
	addi	a5,sp,44
	mv	a6,s0
	.loc 1 615 37
	sb	a7,93(s0)
	.loc 1 609 22
	sw	s1,48(s0)
	.loc 1 615 5 is_stmt 1
	.loc 1 619 4
	call	prvInitialiseNewTask.isra.2
.LVL75:
	.loc 1 620 4
	mv	a0,s0
	call	prvAddNewTaskToReadyList
.LVL76:
	.loc 1 627 3
	.loc 1 627 10 is_stmt 0
	lw	a5,44(sp)
.LVL77:
.L93:
.LBE184:
.LBE183:
	.loc 1 628 2
	lw	ra,60(sp)
	.cfi_remember_state
	.cfi_restore 1
	lw	s0,56(sp)
	.cfi_restore 8
.LVL78:
	lw	s1,52(sp)
	.cfi_restore 9
.LVL79:
	mv	a0,a5
	addi	sp,sp,64
	.cfi_def_cfa_offset 0
	jr	ra
.LVL80:
.L110:
	.cfi_restore_state
	sw	a4,28(sp)
	sw	a3,24(sp)
	sw	a2,20(sp)
	sw	a1,16(sp)
	sw	a0,12(sp)
.LBB185:
	.loc 1 598 44 is_stmt 1
	call	vAssertCalled
.LVL81:
	.loc 1 599 4
	lw	a5,40(sp)
.LBE185:
	.loc 1 604 3
	lw	a0,12(sp)
	lw	a1,16(sp)
	lw	a2,20(sp)
	lw	a3,24(sp)
	lw	a4,28(sp)
	j	.L99
.LVL82:
.L108:
	sw	a4,28(sp)
	sw	a3,24(sp)
	sw	a2,20(sp)
	sw	a1,16(sp)
	sw	a0,12(sp)
	.loc 1 589 11 discriminator 1
	call	vAssertCalled
.LVL83:
	lw	a4,28(sp)
	lw	a3,24(sp)
	lw	a2,20(sp)
	lw	a1,16(sp)
	lw	a0,12(sp)
	.loc 1 590 3 discriminator 1
	.loc 1 590 5 is_stmt 0 discriminator 1
	bne	s0,zero,.L95
.LVL84:
.L109:
	.loc 1 590 11 is_stmt 1 discriminator 1
	call	vAssertCalled
.LVL85:
.LBB186:
	.loc 1 597 4 discriminator 1
	.loc 1 597 20 is_stmt 0 discriminator 1
	li	a5,96
	sw	a5,40(sp)
	.loc 1 598 4 is_stmt 1 discriminator 1
	.loc 1 598 37 is_stmt 0 discriminator 1
	lw	a4,40(sp)
	.loc 1 598 6 discriminator 1
	beq	a4,a5,.L107
	.loc 1 598 44 is_stmt 1
	call	vAssertCalled
.LVL86:
.L107:
	.loc 1 599 4
	lw	a5,40(sp)
.LBE186:
	.loc 1 604 3
	.loc 1 628 2 is_stmt 0
	lw	ra,60(sp)
	.cfi_restore 1
	lw	s0,56(sp)
	.cfi_restore 8
.LVL87:
	.loc 1 624 12
	li	a5,0
	.loc 1 628 2
	lw	s1,52(sp)
	.cfi_restore 9
.LVL88:
	mv	a0,a5
	addi	sp,sp,64
	.cfi_def_cfa_offset 0
	jr	ra
	.cfi_endproc
.LFE5:
	.size	xTaskCreateStatic, .-xTaskCreateStatic
	.section	.text.xTaskCreate,"ax",@progbits
	.align	1
	.globl	xTaskCreate
	.type	xTaskCreate, @function
xTaskCreate:
.LFB6:
	.loc 1 736 2 is_stmt 1
	.cfi_startproc
.LVL89:
	.loc 1 737 2
	.loc 1 738 2
.LBB187:
	.loc 1 767 3
	.loc 1 770 4
.LBE187:
	.loc 1 736 2 is_stmt 0
	addi	sp,sp,-48
	.cfi_def_cfa_offset 48
	sw	s3,28(sp)
	.cfi_offset 19, -20
	mv	s3,a0
.LBB188:
	.loc 1 770 14
	slli	a0,a2,2
.LVL90:
.LBE188:
	.loc 1 736 2
	sw	s2,32(sp)
	sw	s4,24(sp)
	sw	s5,20(sp)
	sw	s6,16(sp)
	sw	s7,12(sp)
	sw	ra,44(sp)
	sw	s0,40(sp)
	sw	s1,36(sp)
	.cfi_offset 18, -16
	.cfi_offset 20, -24
	.cfi_offset 21, -28
	.cfi_offset 22, -32
	.cfi_offset 23, -36
	.cfi_offset 1, -4
	.cfi_offset 8, -8
	.cfi_offset 9, -12
	.loc 1 736 2
	mv	s2,a2
	mv	s4,a1
	mv	s5,a3
	mv	s6,a4
	mv	s7,a5
.LBB189:
	.loc 1 770 14
	call	pvPortMalloc
.LVL91:
	.loc 1 772 4 is_stmt 1
	.loc 1 772 6 is_stmt 0
	beq	a0,zero,.L114
	mv	s1,a0
	.loc 1 775 5 is_stmt 1
	.loc 1 775 28 is_stmt 0
	li	a0,96
.LVL92:
	call	pvPortMalloc
.LVL93:
	mv	s0,a0
.LVL94:
	.loc 1 777 5 is_stmt 1
	.loc 1 777 7 is_stmt 0
	beq	a0,zero,.L113
	.loc 1 780 6 is_stmt 1
.LBE189:
	.loc 1 806 4 is_stmt 0
	mv	a6,a0
	mv	a5,s7
	mv	a4,s6
	mv	a3,s5
	mv	a2,s2
	mv	a1,s4
.LBB190:
	.loc 1 780 24
	sw	s1,48(a0)
.LBE190:
	.loc 1 796 3 is_stmt 1
	.loc 1 802 5
	.loc 1 802 37 is_stmt 0
	sb	zero,93(a0)
	.loc 1 806 4 is_stmt 1
	mv	a0,s3
	call	prvInitialiseNewTask.isra.2
.LVL95:
	.loc 1 807 4
	mv	a0,s0
	call	prvAddNewTaskToReadyList
.LVL96:
	.loc 1 808 4
	.loc 1 808 12 is_stmt 0
	li	a0,1
.LVL97:
.L111:
	.loc 1 816 2
	lw	ra,44(sp)
	.cfi_remember_state
	.cfi_restore 1
	lw	s0,40(sp)
	.cfi_restore 8
	lw	s1,36(sp)
	.cfi_restore 9
	lw	s2,32(sp)
	.cfi_restore 18
	lw	s3,28(sp)
	.cfi_restore 19
.LVL98:
	lw	s4,24(sp)
	.cfi_restore 20
.LVL99:
	lw	s5,20(sp)
	.cfi_restore 21
.LVL100:
	lw	s6,16(sp)
	.cfi_restore 22
.LVL101:
	lw	s7,12(sp)
	.cfi_restore 23
.LVL102:
	addi	sp,sp,48
	.cfi_def_cfa_offset 0
	jr	ra
.LVL103:
.L114:
	.cfi_restore_state
	.loc 1 812 12
	li	a0,-1
.LVL104:
	.loc 1 815 3 is_stmt 1
	.loc 1 815 10 is_stmt 0
	j	.L111
.LVL105:
.L113:
.LBB191:
	.loc 1 786 6 is_stmt 1
	mv	a0,s1
	call	vPortFree
.LVL106:
.LBE191:
	.loc 1 796 3
	.loc 1 812 12 is_stmt 0
	li	a0,-1
	j	.L111
	.cfi_endproc
.LFE6:
	.size	xTaskCreate, .-xTaskCreate
	.section	.text.vTaskDelete,"ax",@progbits
	.align	1
	.globl	vTaskDelete
	.type	vTaskDelete, @function
vTaskDelete:
.LFB9:
	.loc 1 1158 2 is_stmt 1
	.cfi_startproc
.LVL107:
	.loc 1 1159 2
	.loc 1 1161 3
.LBB192:
.LBB193:
	.loc 1 4300 3
.LBE193:
.LBE192:
	.loc 1 1158 2 is_stmt 0
	addi	sp,sp,-32
	.cfi_def_cfa_offset 32
	sw	s0,24(sp)
	sw	ra,28(sp)
	sw	s1,20(sp)
	sw	s2,16(sp)
	sw	s3,12(sp)
	.cfi_offset 8, -8
	.cfi_offset 1, -4
	.cfi_offset 9, -12
	.cfi_offset 18, -16
	.cfi_offset 19, -20
	.loc 1 1158 2
	mv	s0,a0
.LBB195:
.LBB194:
	.loc 1 4300 3
 #APP
# 4300 "/b-l/bl_iot_sdk/components/bl602/freertos_riscv_ram/tasks.c" 1
	csrc mstatus, 8
# 0 "" 2
	.loc 1 4302 3 is_stmt 1
	.loc 1 4302 25 is_stmt 0
 #NO_APP
	lui	s1,%hi(.LANCHOR7)
	addi	s1,s1,%lo(.LANCHOR7)
	lw	a5,0(s1)
	.loc 1 4302 5
	beq	a5,zero,.L117
	call	vTaskEnterCritical.part.7
.LVL108:
.L117:
	.loc 1 4319 4 is_stmt 1
.LBE194:
.LBE195:
	.loc 1 1165 4
	.loc 1 1165 28 is_stmt 0
	lui	s2,%hi(.LANCHOR3)
	addi	s2,s2,%lo(.LANCHOR3)
	beq	s0,zero,.L146
.LVL109:
.L118:
	.loc 1 1168 4 is_stmt 1 discriminator 4
	.loc 1 1168 8 is_stmt 0 discriminator 4
	addi	s3,s0,4
	mv	a0,s3
	call	uxListRemove
.LVL110:
	.loc 1 1168 6 discriminator 4
	bne	a0,zero,.L119
	.loc 1 1170 7 is_stmt 1
	.loc 1 1170 44 is_stmt 0
	lw	a3,44(s0)
	.loc 1 1170 64
	slli	a5,a3,2
	add	a5,a5,a3
	slli	a4,a5,2
	lui	a5,%hi(.LANCHOR9)
	addi	a5,a5,%lo(.LANCHOR9)
	add	a5,a5,a4
	lw	a5,0(a5)
	.loc 1 1170 9
	beq	a5,zero,.L148
.L119:
	.loc 1 1174 5 is_stmt 1
	.loc 1 1178 4
	.loc 1 1178 6 is_stmt 0
	lw	a5,40(s0)
	beq	a5,zero,.L120
	.loc 1 1180 5 is_stmt 1
	.loc 1 1180 14 is_stmt 0
	addi	a0,s0,24
	call	uxListRemove
.LVL111:
.L120:
	.loc 1 1184 5 is_stmt 1
	.loc 1 1191 4
	.loc 1 1191 16 is_stmt 0
	lui	a5,%hi(.LANCHOR14)
	addi	a5,a5,%lo(.LANCHOR14)
	lw	a4,0(a5)
	.loc 1 1193 14
	lw	a3,0(s2)
	.loc 1 1191 16
	addi	a4,a4,1
	sw	a4,0(a5)
	.loc 1 1193 4 is_stmt 1
	.loc 1 1193 6 is_stmt 0
	beq	a3,s0,.L149
	.loc 1 1216 5 is_stmt 1
	lui	a5,%hi(.LANCHOR8)
	addi	a5,a5,%lo(.LANCHOR8)
	lw	a4,0(a5)
	.loc 1 1217 5 is_stmt 0
	mv	a0,s0
	.loc 1 1216 5
	addi	a4,a4,-1
	sw	a4,0(a5)
	.loc 1 1217 5 is_stmt 1
	call	prvDeleteTCB
.LVL112:
	.loc 1 1221 5
.LBB196:
.LBB197:
	.loc 1 3960 1
	.loc 1 3962 2
	.loc 1 3962 31 is_stmt 0
	lui	a5,%hi(.LANCHOR0)
	lw	a5,%lo(.LANCHOR0)(a5)
	lw	a5,0(a5)
	.loc 1 3962 4
	beq	a5,zero,.L150
	call	prvResetNextTaskUnblockTime.part.0
.LVL113:
.L122:
.LBE197:
.LBE196:
	.loc 1 1224 4 is_stmt 1
	.loc 1 1226 3
.LBB199:
.LBB200:
	.loc 1 4330 3
	.loc 1 4330 25 is_stmt 0
	lw	a5,0(s1)
	.loc 1 4330 5
	beq	a5,zero,.L124
	.loc 1 4332 4 is_stmt 1
	.loc 1 4332 20 is_stmt 0
	lw	a5,0(s2)
	.loc 1 4332 6
	lw	a5,68(a5)
	beq	a5,zero,.L124
	call	vTaskExitCritical.part.8
.LVL114:
.L124:
	.loc 1 4352 4 is_stmt 1
.LBE200:
.LBE199:
	.loc 1 1230 3
	.loc 1 1230 25 is_stmt 0
	lw	a5,0(s1)
	.loc 1 1230 5
	beq	a5,zero,.L116
	.loc 1 1232 4 is_stmt 1
	.loc 1 1232 14 is_stmt 0
	lw	a5,0(s2)
	.loc 1 1232 6
	beq	a5,s0,.L151
.L116:
	.loc 1 1242 2
	lw	ra,28(sp)
	.cfi_remember_state
	.cfi_restore 1
	lw	s0,24(sp)
	.cfi_restore 8
.LVL115:
	lw	s1,20(sp)
	.cfi_restore 9
	lw	s2,16(sp)
	.cfi_restore 18
	lw	s3,12(sp)
	.cfi_restore 19
.LVL116:
	addi	sp,sp,32
	.cfi_def_cfa_offset 0
	jr	ra
.LVL117:
.L150:
	.cfi_restore_state
.LBB201:
.LBB198:
	.loc 1 3968 3 is_stmt 1
	.loc 1 3968 24 is_stmt 0
	lui	a5,%hi(.LANCHOR1)
	li	a4,-1
	sw	a4,%lo(.LANCHOR1)(a5)
	j	.L122
.L148:
.LBE198:
.LBE201:
	.loc 1 1170 109 is_stmt 1 discriminator 1
	.loc 1 1170 136 is_stmt 0 discriminator 1
	lui	a4,%hi(.LANCHOR4)
	addi	a4,a4,%lo(.LANCHOR4)
	lw	a2,0(a4)
	.loc 1 1170 146 discriminator 1
	li	a5,1
	sll	a5,a5,a3
	.loc 1 1170 139 discriminator 1
	not	a5,a5
	.loc 1 1170 136 discriminator 1
	and	a5,a5,a2
	sw	a5,0(a4)
	j	.L119
.L149:
	.loc 1 1200 5 is_stmt 1
	lui	a0,%hi(.LANCHOR13)
	mv	a1,s3
	addi	a0,a0,%lo(.LANCHOR13)
	call	vListInsertEnd
.LVL118:
	.loc 1 1205 5
	lui	a5,%hi(.LANCHOR15)
	addi	a5,a5,%lo(.LANCHOR15)
	lw	a4,0(a5)
	addi	a4,a4,1
	sw	a4,0(a5)
	.loc 1 1212 5
	j	.L122
.LVL119:
.L146:
	.loc 1 1165 28 is_stmt 0 discriminator 1
	lw	s0,0(s2)
.LVL120:
	j	.L118
.LVL121:
.L151:
	.loc 1 1234 5 is_stmt 1
	.loc 1 1234 39 is_stmt 0
	lui	a5,%hi(.LANCHOR16)
	lw	a5,%lo(.LANCHOR16)(a5)
	.loc 1 1234 7
	bne	a5,zero,.L152
	.loc 1 1235 5 is_stmt 1
 #APP
# 1235 "/b-l/bl_iot_sdk/components/bl602/freertos_riscv_ram/tasks.c" 1
	ecall
# 0 "" 2
	.loc 1 1235 31
	.loc 1 1239 5
 #NO_APP
.L153:
	.loc 1 1242 2 is_stmt 0
	lw	ra,28(sp)
	.cfi_remember_state
	.cfi_restore 1
	lw	s0,24(sp)
	.cfi_restore 8
.LVL122:
	lw	s1,20(sp)
	.cfi_restore 9
	lw	s2,16(sp)
	.cfi_restore 18
	lw	s3,12(sp)
	.cfi_restore 19
.LVL123:
	addi	sp,sp,32
	.cfi_def_cfa_offset 0
	jr	ra
.LVL124:
.L152:
	.cfi_restore_state
	.loc 1 1234 46 is_stmt 1 discriminator 1
	call	vAssertCalled
.LVL125:
	.loc 1 1235 5 discriminator 1
 #APP
# 1235 "/b-l/bl_iot_sdk/components/bl602/freertos_riscv_ram/tasks.c" 1
	ecall
# 0 "" 2
	.loc 1 1235 31 discriminator 1
	.loc 1 1239 5 discriminator 1
 #NO_APP
	j	.L153
	.cfi_endproc
.LFE9:
	.size	vTaskDelete, .-vTaskDelete
	.section	.text.eTaskGetState,"ax",@progbits
	.align	1
	.globl	eTaskGetState
	.type	eTaskGetState, @function
eTaskGetState:
.LFB12:
	.loc 1 1379 2
	.cfi_startproc
.LVL126:
	.loc 1 1380 2
	.loc 1 1381 2
	.loc 1 1382 2
	.loc 1 1379 2 is_stmt 0
	addi	sp,sp,-32
	.cfi_def_cfa_offset 32
	sw	s2,16(sp)
	sw	ra,28(sp)
	sw	s0,24(sp)
	sw	s1,20(sp)
	sw	s3,12(sp)
	sw	s4,8(sp)
	.cfi_offset 18, -16
	.cfi_offset 1, -4
	.cfi_offset 8, -8
	.cfi_offset 9, -12
	.cfi_offset 19, -20
	.cfi_offset 20, -24
	.loc 1 1379 2
	mv	s2,a0
.LVL127:
	.loc 1 1384 3 is_stmt 1
	.loc 1 1384 5 is_stmt 0
	beq	a0,zero,.L177
.LVL128:
.L155:
	.loc 1 1386 3 is_stmt 1
	.loc 1 1386 13 is_stmt 0
	lui	s1,%hi(.LANCHOR3)
	addi	s1,s1,%lo(.LANCHOR3)
	lw	a4,0(s1)
	.loc 1 1389 12
	li	a0,0
	.loc 1 1386 5
	beq	a4,s2,.L156
	.loc 1 1393 4 is_stmt 1
.LBB212:
.LBB213:
	.loc 1 4300 3
 #APP
# 4300 "/b-l/bl_iot_sdk/components/bl602/freertos_riscv_ram/tasks.c" 1
	csrc mstatus, 8
# 0 "" 2
	.loc 1 4302 3
	.loc 1 4302 25 is_stmt 0
 #NO_APP
	lui	s0,%hi(.LANCHOR7)
	addi	s0,s0,%lo(.LANCHOR7)
	lw	a5,0(s0)
	.loc 1 4302 5
	beq	a5,zero,.L157
	call	vTaskEnterCritical.part.7
.LVL129:
.L157:
	.loc 1 4319 4 is_stmt 1
.LBE213:
.LBE212:
	.loc 1 1395 5
	.loc 1 1397 29 is_stmt 0
	lui	a5,%hi(.LANCHOR6)
	.loc 1 1396 19
	lui	a4,%hi(.LANCHOR0)
	lw	s3,%lo(.LANCHOR0)(a4)
	.loc 1 1397 29
	lw	s4,%lo(.LANCHOR6)(a5)
.LBB214:
.LBB215:
	.loc 1 4330 25
	lw	a5,0(s0)
.LBE215:
.LBE214:
	.loc 1 1395 17
	lw	s0,20(s2)
.LVL130:
	.loc 1 1396 5 is_stmt 1
	.loc 1 1397 5
	.loc 1 1399 4
.LBB218:
.LBB216:
	.loc 1 4330 3
	.loc 1 4330 5 is_stmt 0
	bne	a5,zero,.L178
.L158:
	.loc 1 4352 4 is_stmt 1
.LBE216:
.LBE218:
	.loc 1 1401 4
	.loc 1 1401 6 is_stmt 0
	beq	s0,s3,.L162
.L180:
	.loc 1 1401 41 discriminator 1
	beq	s0,s4,.L162
	.loc 1 1409 10 is_stmt 1
	.loc 1 1409 12 is_stmt 0
	lui	a5,%hi(.LANCHOR5)
	addi	a5,a5,%lo(.LANCHOR5)
	beq	s0,a5,.L179
	.loc 1 1445 10 is_stmt 1
	.loc 1 1445 12 is_stmt 0
	lui	a5,%hi(.LANCHOR13)
	addi	a5,a5,%lo(.LANCHOR13)
	beq	s0,a5,.L165
	.loc 1 1458 13 discriminator 1
	seqz	a5,s0
	neg	a5,a5
	andi	a0,a5,3
	addi	a0,a0,1
.LVL131:
.L156:
	.loc 1 1462 3 is_stmt 1
	.loc 1 1463 2 is_stmt 0
	lw	ra,28(sp)
	.cfi_remember_state
	.cfi_restore 1
	lw	s0,24(sp)
	.cfi_restore 8
	lw	s1,20(sp)
	.cfi_restore 9
	lw	s2,16(sp)
	.cfi_restore 18
.LVL132:
	lw	s3,12(sp)
	.cfi_restore 19
	lw	s4,8(sp)
	.cfi_restore 20
	addi	sp,sp,32
	.cfi_def_cfa_offset 0
	jr	ra
.LVL133:
.L178:
	.cfi_restore_state
.LBB219:
.LBB217:
	.loc 1 4332 4 is_stmt 1
	.loc 1 4332 20 is_stmt 0
	lw	a5,0(s1)
	.loc 1 4332 6
	lw	a5,68(a5)
	beq	a5,zero,.L158
	call	vTaskExitCritical.part.8
.LVL134:
	.loc 1 4352 4 is_stmt 1
.LBE217:
.LBE219:
	.loc 1 1401 4
	.loc 1 1401 6 is_stmt 0
	bne	s0,s3,.L180
.L162:
	.loc 1 1463 2
	lw	ra,28(sp)
	.cfi_remember_state
	.cfi_restore 1
	lw	s0,24(sp)
	.cfi_restore 8
.LVL135:
	lw	s1,20(sp)
	.cfi_restore 9
	lw	s2,16(sp)
	.cfi_restore 18
.LVL136:
	lw	s3,12(sp)
	.cfi_restore 19
.LVL137:
	lw	s4,8(sp)
	.cfi_restore 20
.LVL138:
	.loc 1 1405 13
	li	a0,2
.LVL139:
	.loc 1 1462 3 is_stmt 1
	.loc 1 1463 2 is_stmt 0
	addi	sp,sp,32
	.cfi_def_cfa_offset 0
	jr	ra
.LVL140:
.L177:
	.cfi_restore_state
	.loc 1 1384 24 is_stmt 1 discriminator 1
	call	vAssertCalled
.LVL141:
	j	.L155
.LVL142:
.L179:
.LBB220:
.LBB221:
	.loc 1 1414 6
	.loc 1 1414 8 is_stmt 0
	lw	a4,40(s2)
.LBE221:
.LBE220:
	.loc 1 1405 13
	li	a0,2
.LBB223:
.LBB222:
	.loc 1 1414 8
	bne	a4,zero,.L156
	.loc 1 1422 8 is_stmt 1
	.loc 1 1422 17 is_stmt 0
	lbu	a5,92(s2)
	.loc 1 1428 17
	addi	a5,a5,-1
	snez	a5,a5
	addi	a0,a5,2
	j	.L156
.LVL143:
.L165:
.LBE222:
.LBE223:
	.loc 1 1450 14
	li	a0,4
	j	.L156
	.cfi_endproc
.LFE12:
	.size	eTaskGetState, .-eTaskGetState
	.section	.text.uxTaskPriorityGet,"ax",@progbits
	.align	1
	.globl	uxTaskPriorityGet
	.type	uxTaskPriorityGet, @function
uxTaskPriorityGet:
.LFB13:
	.loc 1 1471 2 is_stmt 1
	.cfi_startproc
.LVL144:
	.loc 1 1472 2
	.loc 1 1473 2
	.loc 1 1475 3
.LBB224:
.LBB225:
	.loc 1 4300 3
.LBE225:
.LBE224:
	.loc 1 1471 2 is_stmt 0
	addi	sp,sp,-32
	.cfi_def_cfa_offset 32
	sw	s1,20(sp)
	sw	ra,28(sp)
	sw	s0,24(sp)
	.cfi_offset 9, -12
	.cfi_offset 1, -4
	.cfi_offset 8, -8
	.loc 1 1471 2
	mv	s1,a0
.LBB227:
.LBB226:
	.loc 1 4300 3
 #APP
# 4300 "/b-l/bl_iot_sdk/components/bl602/freertos_riscv_ram/tasks.c" 1
	csrc mstatus, 8
# 0 "" 2
	.loc 1 4302 3 is_stmt 1
	.loc 1 4302 25 is_stmt 0
 #NO_APP
	lui	s0,%hi(.LANCHOR7)
	addi	s0,s0,%lo(.LANCHOR7)
	lw	a5,0(s0)
	.loc 1 4302 5
	beq	a5,zero,.L182
	call	vTaskEnterCritical.part.7
.LVL145:
.L182:
	.loc 1 4319 4 is_stmt 1
.LBE226:
.LBE227:
	.loc 1 1479 4
	.loc 1 1479 28 is_stmt 0
	beq	s1,zero,.L195
.LVL146:
.L183:
	.loc 1 1480 4 is_stmt 1 discriminator 4
.LBB228:
.LBB229:
	.loc 1 4330 25 is_stmt 0 discriminator 4
	lw	a5,0(s0)
.LBE229:
.LBE228:
	.loc 1 1480 13 discriminator 4
	lw	a0,44(s1)
.LVL147:
	.loc 1 1482 3 is_stmt 1 discriminator 4
.LBB231:
.LBB230:
	.loc 1 4330 3 discriminator 4
	.loc 1 4330 5 is_stmt 0 discriminator 4
	beq	a5,zero,.L181
	.loc 1 4332 4 is_stmt 1
	.loc 1 4332 20 is_stmt 0
	lui	a5,%hi(.LANCHOR3)
	lw	a5,%lo(.LANCHOR3)(a5)
	.loc 1 4332 6
	lw	a5,68(a5)
	beq	a5,zero,.L181
	sw	a0,12(sp)
	call	vTaskExitCritical.part.8
.LVL148:
	lw	a0,12(sp)
	.loc 1 4352 4 is_stmt 1
.LBE230:
.LBE231:
	.loc 1 1484 3
.LVL149:
.L181:
	.loc 1 1485 2 is_stmt 0
	lw	ra,28(sp)
	.cfi_remember_state
	.cfi_restore 1
	lw	s0,24(sp)
	.cfi_restore 8
	lw	s1,20(sp)
	.cfi_restore 9
.LVL150:
	addi	sp,sp,32
	.cfi_def_cfa_offset 0
	jr	ra
.LVL151:
.L195:
	.cfi_restore_state
	.loc 1 1479 28 discriminator 1
	lui	a5,%hi(.LANCHOR3)
	lw	s1,%lo(.LANCHOR3)(a5)
.LVL152:
	j	.L183
	.cfi_endproc
.LFE13:
	.size	uxTaskPriorityGet, .-uxTaskPriorityGet
	.section	.text.uxTaskPriorityGetFromISR,"ax",@progbits
	.align	1
	.globl	uxTaskPriorityGetFromISR
	.type	uxTaskPriorityGetFromISR, @function
uxTaskPriorityGetFromISR:
.LFB14:
	.loc 1 1493 2 is_stmt 1
	.cfi_startproc
.LVL153:
	.loc 1 1494 2
	.loc 1 1495 2
	.loc 1 1513 3
	.loc 1 1515 3
	.loc 1 1519 4
	.loc 1 1519 28 is_stmt 0
	beq	a0,zero,.L198
.LVL154:
	.loc 1 1520 4 is_stmt 1 discriminator 4
	.loc 1 1522 3 discriminator 4
	.loc 1 1524 3 discriminator 4
	.loc 1 1525 2 is_stmt 0 discriminator 4
	lw	a0,44(a0)
.LVL155:
	ret
.LVL156:
.L198:
	.loc 1 1519 28 discriminator 1
	lui	a5,%hi(.LANCHOR3)
	lw	a0,%lo(.LANCHOR3)(a5)
.LVL157:
	.loc 1 1520 4 is_stmt 1 discriminator 1
	.loc 1 1522 3 discriminator 1
	.loc 1 1524 3 discriminator 1
	.loc 1 1525 2 is_stmt 0 discriminator 1
	lw	a0,44(a0)
.LVL158:
	ret
	.cfi_endproc
.LFE14:
	.size	uxTaskPriorityGetFromISR, .-uxTaskPriorityGetFromISR
	.section	.text.vTaskPrioritySet,"ax",@progbits
	.align	1
	.globl	vTaskPrioritySet
	.type	vTaskPrioritySet, @function
vTaskPrioritySet:
.LFB15:
	.loc 1 1533 2 is_stmt 1
	.cfi_startproc
.LVL159:
	.loc 1 1534 2
	.loc 1 1535 2
	.loc 1 1536 2
	.loc 1 1538 3
	.loc 1 1533 2 is_stmt 0
	addi	sp,sp,-32
	.cfi_def_cfa_offset 32
	sw	s0,24(sp)
	sw	s1,20(sp)
	sw	ra,28(sp)
	sw	s2,16(sp)
	sw	s3,12(sp)
	sw	s4,8(sp)
	sw	s5,4(sp)
	.cfi_offset 8, -8
	.cfi_offset 9, -12
	.cfi_offset 1, -4
	.cfi_offset 18, -16
	.cfi_offset 19, -20
	.cfi_offset 20, -24
	.cfi_offset 21, -28
	.loc 1 1538 5
	li	a5,31
	.loc 1 1533 2
	mv	s0,a0
	mv	s1,a1
	.loc 1 1538 5
	bgtu	a1,a5,.L230
.LVL160:
.L200:
	.loc 1 1547 4 is_stmt 1
	.loc 1 1550 3
.LBB232:
.LBB233:
	.loc 1 4300 3
 #APP
# 4300 "/b-l/bl_iot_sdk/components/bl602/freertos_riscv_ram/tasks.c" 1
	csrc mstatus, 8
# 0 "" 2
	.loc 1 4302 3
	.loc 1 4302 25 is_stmt 0
 #NO_APP
	lui	s2,%hi(.LANCHOR7)
	addi	s2,s2,%lo(.LANCHOR7)
	lw	a5,0(s2)
	.loc 1 4302 5
	beq	a5,zero,.L201
	call	vTaskEnterCritical.part.7
.LVL161:
.L201:
	.loc 1 4319 4 is_stmt 1
.LBE233:
.LBE232:
	.loc 1 1554 4
	.loc 1 1554 28 is_stmt 0
	beq	s0,zero,.L231
.LVL162:
.L202:
	.loc 1 1556 4 is_stmt 1 discriminator 4
	.loc 1 1560 5 discriminator 4
	.loc 1 1560 27 is_stmt 0 discriminator 4
	lw	a5,80(s0)
.LVL163:
	.loc 1 1568 4 is_stmt 1 discriminator 4
	.loc 1 1568 6 is_stmt 0 discriminator 4
	beq	s1,a5,.L204
	.loc 1 1572 5 is_stmt 1
	.loc 1 1574 16 is_stmt 0
	lui	a4,%hi(.LANCHOR3)
	.loc 1 1572 7
	bgtu	s1,a5,.L232
	.loc 1 1595 10 is_stmt 1
	.loc 1 1595 20 is_stmt 0
	lw	s3,%lo(.LANCHOR3)(a4)
	.loc 1 1595 12
	sub	s3,s3,s0
	seqz	s3,s3
.L206:
.LVL164:
	.loc 1 1607 5 is_stmt 1
	.loc 1 1612 5
	.loc 1 1612 27 is_stmt 0
	lw	s4,44(s0)
.LVL165:
	.loc 1 1618 6 is_stmt 1
	.loc 1 1618 8 is_stmt 0
	bne	a5,s4,.L207
	.loc 1 1620 7 is_stmt 1
	.loc 1 1620 25 is_stmt 0
	sw	s1,44(s0)
.L207:
	.loc 1 1624 7 is_stmt 1
	.loc 1 1628 6
	.loc 1 1638 7 is_stmt 0
	lw	a5,24(s0)
.LVL166:
	.loc 1 1628 28
	sw	s1,80(s0)
.LVL167:
	.loc 1 1638 5 is_stmt 1
	.loc 1 1638 7 is_stmt 0
	blt	a5,zero,.L208
	.loc 1 1640 6 is_stmt 1
	.loc 1 1640 79 is_stmt 0
	li	a1,32
	sub	a1,a1,s1
	.loc 1 1640 51
	sw	a1,24(s0)
.L208:
	.loc 1 1644 6 is_stmt 1
	.loc 1 1651 5
	.loc 1 1651 62 is_stmt 0
	slli	a5,s4,2
	add	a5,a5,s4
	lui	s1,%hi(.LANCHOR9)
.LVL168:
	.loc 1 1651 7
	lw	a4,20(s0)
	.loc 1 1651 62
	addi	s1,s1,%lo(.LANCHOR9)
	slli	a5,a5,2
	add	a5,s1,a5
	.loc 1 1651 7
	beq	a4,a5,.L233
.LVL169:
.L209:
	.loc 1 1671 6 is_stmt 1
	.loc 1 1674 5
	.loc 1 1674 7 is_stmt 0
	beq	s3,zero,.L204
	.loc 1 1676 6 is_stmt 1
 #APP
# 1676 "/b-l/bl_iot_sdk/components/bl602/freertos_riscv_ram/tasks.c" 1
	ecall
# 0 "" 2
	.loc 1 1676 32
.LVL170:
 #NO_APP
.L204:
	.loc 1 1680 6
	.loc 1 1685 5
	.loc 1 1688 3
.LBB234:
.LBB235:
	.loc 1 4330 3
	.loc 1 4330 25 is_stmt 0
	lw	a5,0(s2)
	.loc 1 4330 5
	beq	a5,zero,.L199
	.loc 1 4332 4 is_stmt 1
	.loc 1 4332 20 is_stmt 0
	lui	a5,%hi(.LANCHOR3)
	lw	a5,%lo(.LANCHOR3)(a5)
	.loc 1 4332 6
	lw	a5,68(a5)
	beq	a5,zero,.L199
.LBE235:
.LBE234:
	.loc 1 1689 2
	lw	s0,24(sp)
	.cfi_remember_state
	.cfi_restore 8
.LVL171:
	lw	ra,28(sp)
	.cfi_restore 1
	lw	s1,20(sp)
	.cfi_restore 9
	lw	s2,16(sp)
	.cfi_restore 18
	lw	s3,12(sp)
	.cfi_restore 19
	lw	s4,8(sp)
	.cfi_restore 20
	lw	s5,4(sp)
	.cfi_restore 21
	addi	sp,sp,32
	.cfi_def_cfa_offset 0
.LBB237:
.LBB236:
	tail	vTaskExitCritical.part.8
.LVL172:
.L199:
	.cfi_restore_state
.LBE236:
.LBE237:
	lw	ra,28(sp)
	.cfi_remember_state
	.cfi_restore 1
	lw	s0,24(sp)
	.cfi_restore 8
.LVL173:
	lw	s1,20(sp)
	.cfi_restore 9
	lw	s2,16(sp)
	.cfi_restore 18
	lw	s3,12(sp)
	.cfi_restore 19
	lw	s4,8(sp)
	.cfi_restore 20
	lw	s5,4(sp)
	.cfi_restore 21
	addi	sp,sp,32
	.cfi_def_cfa_offset 0
	jr	ra
.LVL174:
.L232:
	.cfi_restore_state
	.loc 1 1574 6 is_stmt 1
	.loc 1 1574 16 is_stmt 0
	addi	a4,a4,%lo(.LANCHOR3)
	lw	a3,0(a4)
	.loc 1 1536 13
	li	s3,0
	.loc 1 1574 8
	beq	a3,s0,.L206
	.loc 1 1579 7 is_stmt 1
	.loc 1 1579 40 is_stmt 0
	lw	a4,0(a4)
	.loc 1 1579 9
	lw	s3,44(a4)
	sgtu	s3,s3,s1
	xori	s3,s3,1
	j	.L206
.LVL175:
.L230:
	.loc 1 1538 45 is_stmt 1 discriminator 1
	call	vAssertCalled
.LVL176:
	.loc 1 1541 3 discriminator 1
	.loc 1 1543 18 is_stmt 0 discriminator 1
	li	s1,31
.LVL177:
	j	.L200
.LVL178:
.L231:
	.loc 1 1554 28 discriminator 1
	lui	a5,%hi(.LANCHOR3)
	lw	s0,%lo(.LANCHOR3)(a5)
.LVL179:
	j	.L202
.LVL180:
.L233:
	.loc 1 1656 6 is_stmt 1
	.loc 1 1656 10 is_stmt 0
	addi	s5,s0,4
	mv	a0,s5
	call	uxListRemove
.LVL181:
	.loc 1 1661 30
	lui	a4,%hi(.LANCHOR4)
	addi	a4,a4,%lo(.LANCHOR4)
	.loc 1 1656 8
	bne	a0,zero,.L210
	.loc 1 1661 7 is_stmt 1
	.loc 1 1661 30 is_stmt 0
	lw	a3,0(a4)
	.loc 1 1661 40
	li	a5,1
	sll	a5,a5,s4
	.loc 1 1661 33
	not	a5,a5
	.loc 1 1661 30
	and	a5,a5,a3
	sw	a5,0(a4)
.L210:
	.loc 1 1665 7 is_stmt 1
	.loc 1 1667 6
	.loc 1 1667 8
	.loc 1 1667 54 is_stmt 0
	lw	a3,44(s0)
	.loc 1 1667 31
	lw	a2,0(a4)
	.loc 1 1667 40
	li	a5,1
	.loc 1 1667 72
	slli	a0,a3,2
	add	a0,a0,a3
	.loc 1 1667 40
	sll	a5,a5,a3
	.loc 1 1667 72
	slli	a0,a0,2
	.loc 1 1667 31
	or	a5,a5,a2
	.loc 1 1667 72
	mv	a1,s5
	add	a0,s1,a0
	.loc 1 1667 31
	sw	a5,0(a4)
	.loc 1 1667 72 is_stmt 1
	call	vListInsertEnd
.LVL182:
	.loc 1 1667 171
	j	.L209
	.cfi_endproc
.LFE15:
	.size	vTaskPrioritySet, .-vTaskPrioritySet
	.section	.text.vTaskResume,"ax",@progbits
	.align	1
	.globl	vTaskResume
	.type	vTaskResume, @function
vTaskResume:
.LFB18:
	.loc 1 1844 2
	.cfi_startproc
.LVL183:
	.loc 1 1845 2
	.loc 1 1848 3
	.loc 1 1844 2 is_stmt 0
	addi	sp,sp,-32
	.cfi_def_cfa_offset 32
	sw	ra,28(sp)
	sw	s0,24(sp)
	sw	s1,20(sp)
	sw	s2,16(sp)
	sw	s3,12(sp)
	.cfi_offset 1, -4
	.cfi_offset 8, -8
	.cfi_offset 9, -12
	.cfi_offset 18, -16
	.cfi_offset 19, -20
	.loc 1 1848 5
	beq	a0,zero,.L251
	.loc 1 1852 15
	lui	s1,%hi(.LANCHOR3)
	addi	s1,s1,%lo(.LANCHOR3)
	lw	a5,0(s1)
	mv	s0,a0
	.loc 1 1852 3 is_stmt 1
	.loc 1 1852 5 is_stmt 0
	beq	a0,a5,.L234
	.loc 1 1854 4 is_stmt 1
.LBB246:
.LBB247:
	.loc 1 4300 3
 #APP
# 4300 "/b-l/bl_iot_sdk/components/bl602/freertos_riscv_ram/tasks.c" 1
	csrc mstatus, 8
# 0 "" 2
	.loc 1 4302 3
	.loc 1 4302 25 is_stmt 0
 #NO_APP
	lui	s2,%hi(.LANCHOR7)
	addi	s2,s2,%lo(.LANCHOR7)
	lw	a5,0(s2)
	.loc 1 4302 5
	beq	a5,zero,.L237
	call	vTaskEnterCritical.part.7
.LVL184:
.L237:
	.loc 1 4319 4 is_stmt 1
.LBE247:
.LBE246:
	.loc 1 1856 5
.LBB248:
.LBB249:
	.loc 1 1799 2
	.loc 1 1800 2
	.loc 1 1806 3
	.loc 1 1809 3
	.loc 1 1809 5 is_stmt 0
	lw	a4,20(s0)
	lui	a5,%hi(.LANCHOR5)
	addi	a5,a5,%lo(.LANCHOR5)
	beq	a4,a5,.L252
.LVL185:
.L239:
.LBE249:
.LBE248:
	.loc 1 1880 6 is_stmt 1
	.loc 1 1883 4
.LBB253:
.LBB254:
	.loc 1 4330 3
	.loc 1 4330 25 is_stmt 0
	lw	a5,0(s2)
	.loc 1 4330 5
	beq	a5,zero,.L234
	.loc 1 4332 4 is_stmt 1
	.loc 1 4332 20 is_stmt 0
	lw	a5,0(s1)
	.loc 1 4332 6
	lw	a5,68(a5)
	beq	a5,zero,.L234
.LBE254:
.LBE253:
	.loc 1 1889 2
	lw	s0,24(sp)
	.cfi_remember_state
	.cfi_restore 8
.LVL186:
	lw	ra,28(sp)
	.cfi_restore 1
	lw	s1,20(sp)
	.cfi_restore 9
	lw	s2,16(sp)
	.cfi_restore 18
	lw	s3,12(sp)
	.cfi_restore 19
	addi	sp,sp,32
	.cfi_def_cfa_offset 0
.LBB256:
.LBB255:
	tail	vTaskExitCritical.part.8
.LVL187:
.L251:
	.cfi_restore_state
.LBE255:
.LBE256:
	.loc 1 1848 32 is_stmt 1 discriminator 1
	call	vAssertCalled
.LVL188:
	.loc 1 1852 3 discriminator 1
	.loc 1 1852 15 is_stmt 0 discriminator 1
	lui	a5,%hi(.LANCHOR3)
	lw	a5,%lo(.LANCHOR3)(a5)
.L234:
	.loc 1 1889 2
	lw	ra,28(sp)
	.cfi_remember_state
	.cfi_restore 1
	lw	s0,24(sp)
	.cfi_restore 8
	lw	s1,20(sp)
	.cfi_restore 9
	lw	s2,16(sp)
	.cfi_restore 18
	lw	s3,12(sp)
	.cfi_restore 19
	addi	sp,sp,32
	.cfi_def_cfa_offset 0
	jr	ra
.LVL189:
.L252:
	.cfi_restore_state
.LBB257:
.LBB252:
.LBB250:
.LBB251:
	.loc 1 1812 4 is_stmt 1
	.loc 1 1812 42 is_stmt 0
	lw	a4,40(s0)
	.loc 1 1812 6
	lui	a5,%hi(.LANCHOR12)
	addi	a5,a5,%lo(.LANCHOR12)
	beq	a4,a5,.L239
	.loc 1 1816 5 is_stmt 1
	.loc 1 1816 7 is_stmt 0
	bne	a4,zero,.L239
	.loc 1 1818 6 is_stmt 1
.LVL190:
.LBE251:
.LBE250:
	.loc 1 1832 4
	.loc 1 1835 3
.LBE252:
.LBE257:
	.loc 1 1858 6
	.loc 1 1862 6
	.loc 1 1862 15 is_stmt 0
	addi	s3,s0,4
	mv	a0,s3
	call	uxListRemove
.LVL191:
	.loc 1 1863 6 is_stmt 1
	.loc 1 1863 8
	.loc 1 1863 54 is_stmt 0
	lw	a2,44(s0)
	.loc 1 1863 31
	lui	a3,%hi(.LANCHOR4)
	addi	a3,a3,%lo(.LANCHOR4)
	lw	a1,0(a3)
	.loc 1 1863 72
	slli	a4,a2,2
	add	a4,a4,a2
	.loc 1 1863 40
	li	a5,1
	.loc 1 1863 72
	lui	a0,%hi(.LANCHOR9)
	slli	a4,a4,2
	.loc 1 1863 40
	sll	a5,a5,a2
	.loc 1 1863 72
	addi	a0,a0,%lo(.LANCHOR9)
	.loc 1 1863 31
	or	a5,a5,a1
	.loc 1 1863 72
	add	a0,a0,a4
	mv	a1,s3
	.loc 1 1863 31
	sw	a5,0(a3)
	.loc 1 1863 72 is_stmt 1
	call	vListInsertEnd
.LVL192:
	.loc 1 1863 171
	.loc 1 1866 6
	.loc 1 1866 43 is_stmt 0
	lw	a5,0(s1)
	.loc 1 1866 8
	lw	a4,44(s0)
	lw	a5,44(a5)
	bltu	a4,a5,.L239
	.loc 1 1871 7 is_stmt 1
 #APP
# 1871 "/b-l/bl_iot_sdk/components/bl602/freertos_riscv_ram/tasks.c" 1
	ecall
# 0 "" 2
	.loc 1 1871 33
 #NO_APP
	j	.L239
	.cfi_endproc
.LFE18:
	.size	vTaskResume, .-vTaskResume
	.section	.text.xTaskResumeFromISR,"ax",@progbits
	.align	1
	.globl	xTaskResumeFromISR
	.type	xTaskResumeFromISR, @function
xTaskResumeFromISR:
.LFB19:
	.loc 1 1898 2
	.cfi_startproc
.LVL193:
	.loc 1 1899 2
	.loc 1 1900 2
	.loc 1 1898 2 is_stmt 0
	addi	sp,sp,-16
	.cfi_def_cfa_offset 16
	sw	s0,8(sp)
	sw	ra,12(sp)
	sw	s1,4(sp)
	sw	s2,0(sp)
	.cfi_offset 8, -8
	.cfi_offset 1, -4
	.cfi_offset 9, -12
	.cfi_offset 18, -16
	.loc 1 1898 2
	mv	s0,a0
.LVL194:
	.loc 1 1901 2 is_stmt 1
	.loc 1 1903 3
	.loc 1 1903 5 is_stmt 0
	beq	a0,zero,.L261
.LVL195:
.L254:
.LBB262:
.LBB263:
	.loc 1 1809 3 is_stmt 1
	.loc 1 1809 5 is_stmt 0
	lw	a4,20(s0)
	lui	a5,%hi(.LANCHOR5)
	addi	a5,a5,%lo(.LANCHOR5)
.LBE263:
.LBE262:
	.loc 1 1899 13
	li	s1,0
.LBB269:
.LBB266:
	.loc 1 1809 5
	beq	a4,a5,.L262
.L253:
.LBE266:
.LBE269:
	.loc 1 1962 2
	lw	ra,12(sp)
	.cfi_remember_state
	.cfi_restore 1
	lw	s0,8(sp)
	.cfi_restore 8
.LVL196:
	mv	a0,s1
	lw	s2,0(sp)
	.cfi_restore 18
	lw	s1,4(sp)
	.cfi_restore 9
	addi	sp,sp,16
	.cfi_def_cfa_offset 0
	jr	ra
.LVL197:
.L262:
	.cfi_restore_state
.LBB270:
.LBB267:
.LBB264:
.LBB265:
	.loc 1 1812 4 is_stmt 1
	.loc 1 1812 42 is_stmt 0
	lw	a5,40(s0)
	.loc 1 1812 6
	lui	a0,%hi(.LANCHOR12)
	addi	a4,a0,%lo(.LANCHOR12)
	beq	a5,a4,.L253
	.loc 1 1816 5 is_stmt 1
	.loc 1 1816 7 is_stmt 0
	bne	a5,zero,.L253
	.loc 1 1818 6 is_stmt 1
.LVL198:
.LBE265:
.LBE264:
	.loc 1 1832 4
	.loc 1 1835 3
.LBE267:
.LBE270:
	.loc 1 1927 5
	.loc 1 1930 5
	.loc 1 1930 30 is_stmt 0
	lui	a5,%hi(.LANCHOR16)
	lw	a5,%lo(.LANCHOR16)(a5)
	.loc 1 1930 7
	bne	a5,zero,.L256
	.loc 1 1934 6 is_stmt 1
	.loc 1 1934 43 is_stmt 0
	lui	a5,%hi(.LANCHOR3)
	lw	a5,%lo(.LANCHOR3)(a5)
	.loc 1 1934 8
	lw	s1,44(s0)
	.loc 1 1943 15
	addi	s2,s0,4
	.loc 1 1934 8
	lw	a5,44(a5)
	.loc 1 1943 15
	mv	a0,s2
	.loc 1 1934 8
	sltu	s1,s1,a5
	.loc 1 1943 15
	call	uxListRemove
.LVL199:
	.loc 1 1944 54
	lw	a2,44(s0)
	.loc 1 1944 31
	lui	a3,%hi(.LANCHOR4)
	addi	a3,a3,%lo(.LANCHOR4)
	lw	a1,0(a3)
	.loc 1 1944 72
	slli	a4,a2,2
	add	a4,a4,a2
	.loc 1 1944 40
	li	a5,1
	.loc 1 1944 72
	lui	a0,%hi(.LANCHOR9)
	.loc 1 1944 40
	sll	a5,a5,a2
	.loc 1 1944 72
	slli	a4,a4,2
	addi	a0,a0,%lo(.LANCHOR9)
	.loc 1 1944 31
	or	a5,a5,a1
	.loc 1 1944 72
	add	a0,a0,a4
	mv	a1,s2
	.loc 1 1944 31
	sw	a5,0(a3)
	.loc 1 1944 72
	call	vListInsertEnd
.LVL200:
	.loc 1 1962 2
	lw	ra,12(sp)
	.cfi_remember_state
	.cfi_restore 1
	lw	s0,8(sp)
	.cfi_restore 8
.LVL201:
	.loc 1 1934 8
	xori	s1,s1,1
.LVL202:
	.loc 1 1940 7 is_stmt 1
	.loc 1 1943 6
	.loc 1 1944 6
	.loc 1 1944 8
	.loc 1 1944 72
	.loc 1 1944 171
	.loc 1 1962 2 is_stmt 0
	mv	a0,s1
	lw	s2,0(sp)
	.cfi_restore 18
.LVL203:
	lw	s1,4(sp)
	.cfi_restore 9
.LVL204:
	addi	sp,sp,16
	.cfi_def_cfa_offset 0
	jr	ra
.LVL205:
.L261:
	.cfi_restore_state
	.loc 1 1903 32 is_stmt 1 discriminator 1
	call	vAssertCalled
.LVL206:
	.loc 1 1921 3 discriminator 1
	.loc 1 1923 3 discriminator 1
	.loc 1 1925 4 discriminator 1
.LBB271:
.LBB268:
	.loc 1 1799 2 discriminator 1
	.loc 1 1800 2 discriminator 1
	.loc 1 1806 3 discriminator 1
	.loc 1 1806 24 discriminator 1
	call	vAssertCalled
.LVL207:
	j	.L254
.LVL208:
.L256:
.LBE268:
.LBE271:
	.loc 1 1951 6
	addi	a1,s0,24
	addi	a0,a0,%lo(.LANCHOR12)
	call	vListInsertEnd
.LVL209:
	.loc 1 1962 2 is_stmt 0
	lw	ra,12(sp)
	.cfi_restore 1
	lw	s0,8(sp)
	.cfi_restore 8
.LVL210:
	mv	a0,s1
	lw	s2,0(sp)
	.cfi_restore 18
	lw	s1,4(sp)
	.cfi_restore 9
	addi	sp,sp,16
	.cfi_def_cfa_offset 0
	jr	ra
	.cfi_endproc
.LFE19:
	.size	xTaskResumeFromISR, .-xTaskResumeFromISR
	.section	.text.vTaskStartScheduler,"ax",@progbits
	.align	1
	.globl	vTaskStartScheduler
	.type	vTaskStartScheduler, @function
vTaskStartScheduler:
.LFB20:
	.loc 1 1968 1 is_stmt 1
	.cfi_startproc
	.loc 1 1969 1
.LBB272:
	.loc 1 1974 3
.LBE272:
	.loc 1 1968 1 is_stmt 0
	addi	sp,sp,-32
	.cfi_def_cfa_offset 32
.LBB273:
	.loc 1 1980 3
	addi	a2,sp,12
	addi	a1,sp,8
	addi	a0,sp,4
.LBE273:
	.loc 1 1968 1
	sw	ra,28(sp)
	.cfi_offset 1, -4
.LBB274:
	.loc 1 1974 17
	sw	zero,4(sp)
	.loc 1 1975 3 is_stmt 1
	.loc 1 1975 16 is_stmt 0
	sw	zero,8(sp)
	.loc 1 1976 3 is_stmt 1
	.loc 1 1980 3
	call	vApplicationGetIdleTaskMemory
.LVL211:
	.loc 1 1981 3
	.loc 1 1981 21 is_stmt 0
	lw	a6,4(sp)
	lw	a5,8(sp)
	lw	a2,12(sp)
	lui	a1,%hi(.LC0)
	lui	a0,%hi(prvIdleTask)
	li	a4,0
	li	a3,0
	addi	a1,a1,%lo(.LC0)
	addi	a0,a0,%lo(prvIdleTask)
	call	xTaskCreateStatic
.LVL212:
	.loc 1 1989 3 is_stmt 1
	.loc 1 1989 5 is_stmt 0
	beq	a0,zero,.L263
.LVL213:
.LBE274:
	.loc 1 2012 3 is_stmt 1
	.loc 1 2014 4
	.loc 1 2014 14 is_stmt 0
	call	xTimerCreateTimerTask
.LVL214:
	.loc 1 2018 4 is_stmt 1
	.loc 1 2023 2
	.loc 1 2023 4 is_stmt 0
	li	a5,1
	bne	a0,a5,.L271
	.loc 1 2039 3 is_stmt 1
 #APP
# 2039 "/b-l/bl_iot_sdk/components/bl602/freertos_riscv_ram/tasks.c" 1
	csrc mstatus, 8
# 0 "" 2
	.loc 1 2049 3
	.loc 1 2049 24 is_stmt 0
 #NO_APP
	lui	a5,%hi(.LANCHOR1)
	li	a3,-1
	sw	a3,%lo(.LANCHOR1)(a5)
	.loc 1 2050 3 is_stmt 1
	.loc 1 2050 21 is_stmt 0
	lui	a4,%hi(.LANCHOR7)
	.loc 1 2051 14
	lui	a5,%hi(.LANCHOR2)
	.loc 1 2050 21
	sw	a0,%lo(.LANCHOR7)(a4)
	.loc 1 2051 3 is_stmt 1
	.loc 1 2051 14 is_stmt 0
	sw	zero,%lo(.LANCHOR2)(a5)
	.loc 1 2059 3 is_stmt 1
	.loc 1 2061 3
	.loc 1 2065 3
	.loc 1 2065 7 is_stmt 0
	call	xPortStartScheduler
.LVL215:
.L263:
	.loc 1 2086 1
	lw	ra,28(sp)
	.cfi_remember_state
	.cfi_restore 1
	addi	sp,sp,32
	.cfi_def_cfa_offset 0
	jr	ra
.LVL216:
.L271:
	.cfi_restore_state
	.loc 1 2080 3 is_stmt 1
	.loc 1 2080 5 is_stmt 0
	li	a5,-1
	bne	a0,a5,.L263
	.loc 1 2080 36 is_stmt 1 discriminator 1
	call	vAssertCalled
.LVL217:
	.loc 1 2085 2 discriminator 1
	.loc 1 2086 1 is_stmt 0 discriminator 1
	lw	ra,28(sp)
	.cfi_restore 1
	addi	sp,sp,32
	.cfi_def_cfa_offset 0
	jr	ra
	.cfi_endproc
.LFE20:
	.size	vTaskStartScheduler, .-vTaskStartScheduler
	.section	.text.vTaskEndScheduler,"ax",@progbits
	.align	1
	.globl	vTaskEndScheduler
	.type	vTaskEndScheduler, @function
vTaskEndScheduler:
.LFB21:
	.loc 1 2090 1 is_stmt 1
	.cfi_startproc
	.loc 1 2094 2
 #APP
# 2094 "/b-l/bl_iot_sdk/components/bl602/freertos_riscv_ram/tasks.c" 1
	csrc mstatus, 8
# 0 "" 2
	.loc 1 2095 2
	.loc 1 2095 20 is_stmt 0
 #NO_APP
	lui	a5,%hi(.LANCHOR7)
	sw	zero,%lo(.LANCHOR7)(a5)
	.loc 1 2096 2 is_stmt 1
	tail	vPortEndScheduler
.LVL218:
	.cfi_endproc
.LFE21:
	.size	vTaskEndScheduler, .-vTaskEndScheduler
	.section	.text.vTaskSuspendAll,"ax",@progbits
	.align	1
	.globl	vTaskSuspendAll
	.type	vTaskSuspendAll, @function
vTaskSuspendAll:
.LFB22:
	.loc 1 2101 1
	.cfi_startproc
	.loc 1 2106 2
	lui	a5,%hi(.LANCHOR16)
	addi	a5,a5,%lo(.LANCHOR16)
	lw	a4,0(a5)
	addi	a4,a4,1
	sw	a4,0(a5)
	.loc 1 2107 2
	.loc 1 2108 1 is_stmt 0
	ret
	.cfi_endproc
.LFE22:
	.size	vTaskSuspendAll, .-vTaskSuspendAll
	.section	.text.xTaskGetTickCount,"ax",@progbits
	.align	1
	.globl	xTaskGetTickCount
	.type	xTaskGetTickCount, @function
xTaskGetTickCount:
.LFB24:
	.loc 1 2285 1 is_stmt 1
	.cfi_startproc
	.loc 1 2286 1
	.loc 1 2289 2
	.loc 1 2291 3
	.loc 1 2291 10 is_stmt 0
	lui	a5,%hi(.LANCHOR2)
	lw	a0,%lo(.LANCHOR2)(a5)
.LVL219:
	.loc 1 2293 2 is_stmt 1
	.loc 1 2295 2
	.loc 1 2296 1 is_stmt 0
	ret
	.cfi_endproc
.LFE24:
	.size	xTaskGetTickCount, .-xTaskGetTickCount
	.section	.text.xTaskGetTickCount2,"ax",@progbits
	.align	1
	.globl	xTaskGetTickCount2
	.type	xTaskGetTickCount2, @function
xTaskGetTickCount2:
.LFB25:
	.loc 1 2299 1 is_stmt 1
	.cfi_startproc
.LVL220:
	.loc 1 2301 2
	.loc 1 2303 3
	.loc 1 2303 10 is_stmt 0
	lui	a4,%hi(.LANCHOR2)
	lw	a4,%lo(.LANCHOR2)(a4)
	.loc 1 2304 19
	lui	a5,%hi(.LANCHOR17)
	lw	a5,%lo(.LANCHOR17)(a5)
	.loc 1 2303 10
	sw	a4,0(a0)
	.loc 1 2304 9 is_stmt 1
	.loc 1 2309 1 is_stmt 0
	li	a0,1
.LVL221:
	.loc 1 2304 19
	sw	a5,0(a1)
	.loc 1 2306 2 is_stmt 1
	.loc 1 2308 2
	.loc 1 2309 1 is_stmt 0
	ret
	.cfi_endproc
.LFE25:
	.size	xTaskGetTickCount2, .-xTaskGetTickCount2
	.section	.text.xTaskGetTickCountFromISR,"ax",@progbits
	.align	1
	.globl	xTaskGetTickCountFromISR
	.type	xTaskGetTickCountFromISR, @function
xTaskGetTickCountFromISR:
.LFB84:
	.cfi_startproc
	lui	a5,%hi(.LANCHOR2)
	lw	a0,%lo(.LANCHOR2)(a5)
	ret
	.cfi_endproc
.LFE84:
	.size	xTaskGetTickCountFromISR, .-xTaskGetTickCountFromISR
	.section	.text.uxTaskGetNumberOfTasks,"ax",@progbits
	.align	1
	.globl	uxTaskGetNumberOfTasks
	.type	uxTaskGetNumberOfTasks, @function
uxTaskGetNumberOfTasks:
.LFB27:
	.loc 1 2344 1 is_stmt 1
	.cfi_startproc
	.loc 1 2347 2
	.loc 1 2347 9 is_stmt 0
	lui	a5,%hi(.LANCHOR8)
	lw	a0,%lo(.LANCHOR8)(a5)
	.loc 1 2348 1
	ret
	.cfi_endproc
.LFE27:
	.size	uxTaskGetNumberOfTasks, .-uxTaskGetNumberOfTasks
	.section	.text.pcTaskGetName,"ax",@progbits
	.align	1
	.globl	pcTaskGetName
	.type	pcTaskGetName, @function
pcTaskGetName:
.LFB28:
	.loc 1 2352 1 is_stmt 1
	.cfi_startproc
.LVL222:
	.loc 1 2353 1
	.loc 1 2357 2
	.loc 1 2357 26 is_stmt 0
	beq	a0,zero,.L285
.LVL223:
.L282:
	.loc 1 2359 2 is_stmt 1
	.loc 1 2360 1 is_stmt 0
	addi	a0,a0,52
	ret
.LVL224:
.L285:
	.loc 1 2357 26 discriminator 1
	lui	a5,%hi(.LANCHOR3)
	lw	a0,%lo(.LANCHOR3)(a5)
.LVL225:
	.loc 1 2358 2 is_stmt 1 discriminator 1
	.loc 1 2358 4 is_stmt 0 discriminator 1
	bne	a0,zero,.L282
	.loc 1 2352 1 discriminator 1
	addi	sp,sp,-32
	.cfi_def_cfa_offset 32
	sw	ra,28(sp)
	.cfi_offset 1, -4
	sw	a0,12(sp)
	.loc 1 2358 23 is_stmt 1 discriminator 1
	call	vAssertCalled
.LVL226:
	.loc 1 2359 2 discriminator 1
	.loc 1 2358 23 is_stmt 0 discriminator 1
	lw	a0,12(sp)
	.loc 1 2360 1 discriminator 1
	lw	ra,28(sp)
	.cfi_restore 1
	addi	a0,a0,52
	addi	sp,sp,32
	.cfi_def_cfa_offset 0
.LVL227:
	jr	ra
	.cfi_endproc
.LFE28:
	.size	pcTaskGetName, .-pcTaskGetName
	.section	.text.vTaskStepTickSafe,"ax",@progbits
	.align	1
	.globl	vTaskStepTickSafe
	.type	vTaskStepTickSafe, @function
vTaskStepTickSafe:
.LFB30:
	.loc 1 2603 1 is_stmt 1
	.cfi_startproc
.LVL228:
	.loc 1 2604 2
	.loc 1 2605 2
	.loc 1 2603 1 is_stmt 0
	addi	sp,sp,-48
	.cfi_def_cfa_offset 48
	sw	s2,32(sp)
	.cfi_offset 18, -16
	.loc 1 2605 43
	lui	s2,%hi(.LANCHOR2)
	addi	s2,s2,%lo(.LANCHOR2)
	lw	a5,0(s2)
.LVL229:
	.loc 1 2607 2 is_stmt 1
	.loc 1 2603 1 is_stmt 0
	sw	s5,20(sp)
	sw	ra,44(sp)
	sw	s0,40(sp)
	sw	s1,36(sp)
	sw	s3,28(sp)
	sw	s4,24(sp)
	sw	s6,16(sp)
	sw	s7,12(sp)
	.cfi_offset 21, -28
	.cfi_offset 1, -4
	.cfi_offset 8, -8
	.cfi_offset 9, -12
	.cfi_offset 19, -20
	.cfi_offset 20, -24
	.cfi_offset 22, -32
	.cfi_offset 23, -36
	.loc 1 2605 13
	neg	a5,a5
.LVL230:
	.loc 1 2603 1
	mv	s5,a0
	.loc 1 2607 4
	bgtu	a5,a0,.L287
	.loc 1 2609 3 is_stmt 1
	.loc 1 2611 4
	.loc 1 2611 33 is_stmt 0
	lui	s0,%hi(.LANCHOR0)
	addi	s0,s0,%lo(.LANCHOR0)
	lw	a5,0(s0)
.LVL231:
	lw	a5,0(a5)
	.loc 1 2611 6
	beq	a5,zero,.L288
	lui	s1,%hi(.LANCHOR4)
	lui	s3,%hi(.LANCHOR9)
	addi	s1,s1,%lo(.LANCHOR4)
	addi	s3,s3,%lo(.LANCHOR9)
	.loc 1 2640 39
	li	s4,1
.LVL232:
.L290:
	.loc 1 2622 5 is_stmt 1
	.loc 1 2622 40 is_stmt 0
	lw	a5,0(s0)
	.loc 1 2622 11
	lw	a5,12(a5)
	lw	s6,12(a5)
.LVL233:
	.loc 1 2625 5 is_stmt 1
	.loc 1 2625 14 is_stmt 0
	addi	s7,s6,4
	mv	a0,s7
	call	uxListRemove
.LVL234:
	.loc 1 2629 5 is_stmt 1
	.loc 1 2631 6
	.loc 1 2629 7 is_stmt 0
	lw	a5,40(s6)
	.loc 1 2631 15
	addi	a0,s6,24
	.loc 1 2629 7
	beq	a5,zero,.L289
	.loc 1 2631 15
	call	uxListRemove
.LVL235:
.L289:
	.loc 1 2635 6 is_stmt 1
	.loc 1 2640 5
	.loc 1 2640 7
	.loc 1 2640 53 is_stmt 0
	lw	a5,44(s6)
	.loc 1 2640 30
	lw	a4,0(s1)
	.loc 1 2640 71
	mv	a1,s7
	slli	a0,a5,2
	add	a0,a0,a5
	slli	a0,a0,2
	.loc 1 2640 39
	sll	a5,s4,a5
	.loc 1 2640 30
	or	a5,a5,a4
	.loc 1 2640 71
	add	a0,s3,a0
	.loc 1 2640 30
	sw	a5,0(s1)
	.loc 1 2640 71 is_stmt 1
	call	vListInsertEnd
.LVL236:
	.loc 1 2640 170
	.loc 1 2609 3
	.loc 1 2611 4
	.loc 1 2611 33 is_stmt 0
	lw	a5,0(s0)
	lw	a5,0(a5)
	.loc 1 2611 6
	bne	a5,zero,.L290
.LVL237:
.L288:
.LBB275:
	.loc 1 2644 5 is_stmt 1
	.loc 1 2644 21
	.loc 1 2644 54 is_stmt 0
	lw	a5,0(s0)
	lw	a5,0(a5)
	.loc 1 2644 23
	bne	a5,zero,.L304
.L291:
	.loc 1 2644 171 is_stmt 1 discriminator 3
	.loc 1 2644 217 is_stmt 0 discriminator 3
	lui	a4,%hi(.LANCHOR6)
	addi	a4,a4,%lo(.LANCHOR6)
	.loc 1 2644 178 discriminator 3
	lw	a3,0(s0)
.LVL238:
	.loc 1 2644 199 is_stmt 1 discriminator 3
	.loc 1 2644 217 is_stmt 0 discriminator 3
	lw	a2,0(a4)
	.loc 1 2644 297 discriminator 3
	lui	a5,%hi(.LANCHOR17)
	addi	a5,a5,%lo(.LANCHOR17)
	.loc 1 2644 217 discriminator 3
	sw	a2,0(s0)
	.loc 1 2644 246 is_stmt 1 discriminator 3
	.loc 1 2644 272 is_stmt 0 discriminator 3
	sw	a3,0(a4)
	.loc 1 2644 282 is_stmt 1 discriminator 3
	.loc 1 2644 297 is_stmt 0 discriminator 3
	lw	a4,0(a5)
	addi	a4,a4,1
	sw	a4,0(a5)
	.loc 1 2644 301 is_stmt 1 discriminator 3
.LBB276:
.LBB277:
	.loc 1 3960 1 discriminator 3
	.loc 1 3962 2 discriminator 3
	.loc 1 3962 31 is_stmt 0 discriminator 3
	lw	a5,0(s0)
	lw	a5,0(a5)
	.loc 1 3962 4 discriminator 3
	bne	a5,zero,.L292
	.loc 1 3968 3 is_stmt 1
	.loc 1 3968 24 is_stmt 0
	lui	a5,%hi(.LANCHOR1)
	li	a4,-1
	sw	a4,%lo(.LANCHOR1)(a5)
.LVL239:
.L287:
.LBE277:
.LBE276:
.LBE275:
	.loc 1 2648 3 is_stmt 1
	.loc 1 2651 2
	.loc 1 2651 13 is_stmt 0
	lw	a5,0(s2)
	.loc 1 2653 1
	lw	ra,44(sp)
	.cfi_remember_state
	.cfi_restore 1
	lw	s0,40(sp)
	.cfi_restore 8
	.loc 1 2651 13
	add	s5,a5,s5
.LVL240:
	sw	s5,0(s2)
	.loc 1 2652 2 is_stmt 1
	.loc 1 2653 1 is_stmt 0
	lw	s1,36(sp)
	.cfi_restore 9
	lw	s2,32(sp)
	.cfi_restore 18
	lw	s3,28(sp)
	.cfi_restore 19
	lw	s4,24(sp)
	.cfi_restore 20
	lw	s5,20(sp)
	.cfi_restore 21
	lw	s6,16(sp)
	.cfi_restore 22
	lw	s7,12(sp)
	.cfi_restore 23
	addi	sp,sp,48
	.cfi_def_cfa_offset 0
	jr	ra
.LVL241:
.L292:
	.cfi_restore_state
.LBB280:
.LBB279:
.LBB278:
	call	prvResetNextTaskUnblockTime.part.0
.LVL242:
	j	.L287
.L304:
.LBE278:
.LBE279:
	.loc 1 2644 154 is_stmt 1 discriminator 1
	call	vAssertCalled
.LVL243:
	j	.L291
.LBE280:
	.cfi_endproc
.LFE30:
	.size	vTaskStepTickSafe, .-vTaskStepTickSafe
	.section	.text.xTaskIncrementTick,"ax",@progbits
	.align	1
	.globl	xTaskIncrementTick
	.type	xTaskIncrementTick, @function
xTaskIncrementTick:
.LFB31:
	.loc 1 2733 1
	.cfi_startproc
	.loc 1 2734 1
	.loc 1 2735 1
	.loc 1 2736 1
.LVL244:
	.loc 1 2739 2
	.loc 1 2742 2
	.loc 1 2743 2
	.loc 1 2733 1 is_stmt 0
	addi	sp,sp,-64
	.cfi_def_cfa_offset 64
	.loc 1 2743 6
	addi	a0,sp,12
	.loc 1 2733 1
	sw	s1,52(sp)
	sw	ra,60(sp)
	sw	s0,56(sp)
	sw	s2,48(sp)
	sw	s3,44(sp)
	sw	s4,40(sp)
	sw	s5,36(sp)
	sw	s6,32(sp)
	sw	s7,28(sp)
	sw	s8,24(sp)
	sw	s9,20(sp)
	.cfi_offset 9, -12
	.cfi_offset 1, -4
	.cfi_offset 8, -8
	.cfi_offset 18, -16
	.cfi_offset 19, -20
	.cfi_offset 20, -24
	.cfi_offset 21, -28
	.cfi_offset 22, -32
	.cfi_offset 23, -36
	.cfi_offset 24, -40
	.cfi_offset 25, -44
	.loc 1 2743 6
	call	bl_sys_time_sync_state
.LVL245:
	mv	s1,a0
	.loc 1 2743 4
	beq	a0,zero,.L305
.LBB287:
.LBB288:
	.loc 1 2752 2 is_stmt 1
	.loc 1 2753 2
	.loc 1 2753 27 is_stmt 0
	lui	a5,%hi(.LANCHOR16)
	lw	a5,%lo(.LANCHOR16)(a5)
	.loc 1 2753 4
	beq	a5,zero,.L335
	.loc 1 2887 3 is_stmt 1
	lui	a5,%hi(.LANCHOR18)
	addi	a5,a5,%lo(.LANCHOR18)
	lw	a4,0(a5)
	.loc 1 2736 12 is_stmt 0
	li	s1,0
	.loc 1 2887 3
	addi	a4,a4,1
	sw	a4,0(a5)
.L317:
.LVL246:
	.loc 1 2900 3 is_stmt 1
	.loc 1 2900 21 is_stmt 0
	lui	a5,%hi(.LANCHOR19)
	lw	a5,%lo(.LANCHOR19)(a5)
	.loc 1 2900 5
	beq	a5,zero,.L305
	.loc 1 2902 20
	li	s1,1
.LVL247:
.L305:
.LBE288:
.LBE287:
	.loc 1 2912 1
	lw	ra,60(sp)
	.cfi_remember_state
	.cfi_restore 1
	lw	s0,56(sp)
	.cfi_restore 8
	mv	a0,s1
	lw	s2,48(sp)
	.cfi_restore 18
	lw	s1,52(sp)
	.cfi_restore 9
	lw	s3,44(sp)
	.cfi_restore 19
	lw	s4,40(sp)
	.cfi_restore 20
	lw	s5,36(sp)
	.cfi_restore 21
	lw	s6,32(sp)
	.cfi_restore 22
	lw	s7,28(sp)
	.cfi_restore 23
	lw	s8,24(sp)
	.cfi_restore 24
	lw	s9,20(sp)
	.cfi_restore 25
	addi	sp,sp,64
	.cfi_def_cfa_offset 0
	jr	ra
.L335:
	.cfi_restore_state
.LBB297:
.LBB296:
.LBB289:
	.loc 1 2757 3 is_stmt 1
	.loc 1 2757 49 is_stmt 0
	lui	a5,%hi(.LANCHOR2)
	addi	a5,a5,%lo(.LANCHOR2)
	lw	s3,0(a5)
	.loc 1 2757 20
	addi	s3,s3,1
.LVL248:
	.loc 1 2761 3 is_stmt 1
	.loc 1 2761 14 is_stmt 0
	sw	s3,0(a5)
	.loc 1 2763 3 is_stmt 1
	.loc 1 2763 5 is_stmt 0
	bne	s3,zero,.L334
.LBB290:
	.loc 1 2765 6 is_stmt 1
	.loc 1 2765 22
	.loc 1 2765 55 is_stmt 0
	lui	s2,%hi(.LANCHOR0)
	addi	s2,s2,%lo(.LANCHOR0)
	lw	a5,0(s2)
	lw	a5,0(a5)
	.loc 1 2765 24
	bne	a5,zero,.L336
.L309:
	.loc 1 2765 172 is_stmt 1
	.loc 1 2765 218 is_stmt 0
	lui	a4,%hi(.LANCHOR6)
	addi	a4,a4,%lo(.LANCHOR6)
	.loc 1 2765 179
	lw	a3,0(s2)
.LVL249:
	.loc 1 2765 200 is_stmt 1
	.loc 1 2765 218 is_stmt 0
	lw	a2,0(a4)
	.loc 1 2765 298
	lui	a5,%hi(.LANCHOR17)
	addi	a5,a5,%lo(.LANCHOR17)
	.loc 1 2765 218
	sw	a2,0(s2)
	.loc 1 2765 247 is_stmt 1
	.loc 1 2765 273 is_stmt 0
	sw	a3,0(a4)
	.loc 1 2765 283 is_stmt 1
	.loc 1 2765 298 is_stmt 0
	lw	a4,0(a5)
	addi	a4,a4,1
	sw	a4,0(a5)
	.loc 1 2765 302 is_stmt 1
.LBB291:
.LBB292:
	.loc 1 3960 1
	.loc 1 3962 2
	.loc 1 3962 31 is_stmt 0
	lw	a5,0(s2)
	lw	a5,0(a5)
	.loc 1 3962 4
	bne	a5,zero,.L310
	.loc 1 3968 3 is_stmt 1
	.loc 1 3968 24 is_stmt 0
	lui	s6,%hi(.LANCHOR1)
	addi	s6,s6,%lo(.LANCHOR1)
	li	a5,-1
	sw	a5,0(s6)
	j	.L308
.L310:
	call	prvResetNextTaskUnblockTime.part.0
.LVL250:
.L334:
	lui	s6,%hi(.LANCHOR1)
	addi	s6,s6,%lo(.LANCHOR1)
.L308:
.LBE292:
.LBE291:
.LBE290:
	.loc 1 2769 4 is_stmt 1
	.loc 1 2776 3
	.loc 1 2776 23 is_stmt 0
	lw	a5,0(s6)
	.loc 1 2776 5
	bltu	s3,a5,.L337
	lui	s2,%hi(.LANCHOR0)
	lui	s4,%hi(.LANCHOR9)
	lui	s5,%hi(.LANCHOR3)
.LBE289:
	.loc 1 2736 12
	li	s1,0
	addi	s2,s2,%lo(.LANCHOR0)
	addi	s4,s4,%lo(.LANCHOR9)
	addi	s5,s5,%lo(.LANCHOR3)
.LBB294:
	.loc 1 2830 31
	lui	s8,%hi(.LANCHOR4)
	.loc 1 2830 40
	li	s7,1
.L311:
.LVL251:
	.loc 1 2778 4 is_stmt 1
	.loc 1 2780 5
	.loc 1 2796 6
	.loc 1 2811 7
	.loc 1 2815 6
	.loc 1 2780 34 is_stmt 0
	lw	a5,0(s2)
	lw	a5,0(a5)
	.loc 1 2780 7
	beq	a5,zero,.L338
.L313:
	.loc 1 2796 41
	lw	a5,0(s2)
	.loc 1 2796 12
	lw	a5,12(a5)
	lw	s0,12(a5)
.LVL252:
	.loc 1 2797 6 is_stmt 1
	.loc 1 2797 17 is_stmt 0
	lw	a5,4(s0)
.LVL253:
	.loc 1 2799 6 is_stmt 1
	.loc 1 2815 15 is_stmt 0
	addi	s9,s0,4
	mv	a0,s9
	.loc 1 2799 8
	bltu	s3,a5,.L339
	.loc 1 2815 15
	call	uxListRemove
.LVL254:
	.loc 1 2819 6 is_stmt 1
	.loc 1 2821 7
	.loc 1 2819 8 is_stmt 0
	lw	a5,40(s0)
	.loc 1 2821 16
	addi	a0,s0,24
	.loc 1 2819 8
	beq	a5,zero,.L315
	.loc 1 2821 16
	call	uxListRemove
.LVL255:
.L315:
	.loc 1 2825 7 is_stmt 1
	.loc 1 2830 6
	.loc 1 2830 8
	.loc 1 2830 54 is_stmt 0
	lw	a5,44(s0)
	.loc 1 2830 31
	addi	a4,s8,%lo(.LANCHOR4)
	lw	a3,0(a4)
	.loc 1 2830 72
	slli	a0,a5,2
	add	a0,a0,a5
	slli	a0,a0,2
	.loc 1 2830 40
	sll	a5,s7,a5
	.loc 1 2830 31
	or	a5,a5,a3
	.loc 1 2830 72
	mv	a1,s9
	add	a0,s4,a0
	.loc 1 2830 31
	sw	a5,0(a4)
	.loc 1 2830 72 is_stmt 1
	call	vListInsertEnd
.LVL256:
	.loc 1 2830 171
	.loc 1 2840 7
	.loc 1 2840 44 is_stmt 0
	lw	a5,0(s5)
	.loc 1 2840 9
	lw	a4,44(s0)
	lw	a5,44(a5)
	bltu	a4,a5,.L311
	.loc 1 2780 34
	lw	a5,0(s2)
	.loc 1 2842 24
	li	s1,1
.LVL257:
	.loc 1 2778 4 is_stmt 1
	.loc 1 2780 5
	.loc 1 2796 6
	.loc 1 2811 7
	.loc 1 2815 6
	.loc 1 2780 34 is_stmt 0
	lw	a5,0(a5)
	.loc 1 2780 7
	bne	a5,zero,.L313
.LVL258:
.L338:
	.loc 1 2787 6 is_stmt 1
	.loc 1 2787 27 is_stmt 0
	li	a5,-1
	sw	a5,0(s6)
	.loc 1 2788 6 is_stmt 1
	j	.L312
.LVL259:
.L337:
	lui	s4,%hi(.LANCHOR9)
	lui	s5,%hi(.LANCHOR3)
.LBE294:
	.loc 1 2736 12 is_stmt 0
	li	s1,0
	addi	s4,s4,%lo(.LANCHOR9)
	addi	s5,s5,%lo(.LANCHOR3)
.L312:
.LVL260:
.LBB295:
	.loc 1 2859 4 is_stmt 1
	.loc 1 2859 46 is_stmt 0
	lw	a5,0(s5)
	.loc 1 2859 6
	li	a3,1
	.loc 1 2859 46
	lw	a4,44(a5)
	.loc 1 2859 64
	slli	a5,a4,2
	add	a5,a5,a4
	slli	a5,a5,2
	add	s4,s4,a5
	lw	a5,0(s4)
	.loc 1 2859 6
	bleu	a5,a3,.L317
	.loc 1 2861 21
	li	s1,1
.LVL261:
	j	.L317
.LVL262:
.L339:
	.loc 1 2806 7 is_stmt 1
	.loc 1 2806 28 is_stmt 0
	sw	a5,0(s6)
	.loc 1 2807 7 is_stmt 1
	j	.L312
.LVL263:
.L336:
.LBB293:
	.loc 1 2765 155
	call	vAssertCalled
.LVL264:
	j	.L309
.LBE293:
.LBE295:
.LBE296:
.LBE297:
	.cfi_endproc
.LFE31:
	.size	xTaskIncrementTick, .-xTaskIncrementTick
	.section	.text.xTaskResumeAll,"ax",@progbits
	.align	1
	.globl	xTaskResumeAll
	.type	xTaskResumeAll, @function
xTaskResumeAll:
.LFB23:
	.loc 1 2175 1
	.cfi_startproc
	.loc 1 2176 1
.LVL265:
	.loc 1 2177 1
	.loc 1 2181 2
	.loc 1 2175 1 is_stmt 0
	addi	sp,sp,-64
	.cfi_def_cfa_offset 64
	sw	s1,52(sp)
	.cfi_offset 9, -12
	.loc 1 2181 31
	lui	s1,%hi(.LANCHOR16)
	.loc 1 2175 1
	sw	ra,60(sp)
	sw	s0,56(sp)
	sw	s2,48(sp)
	sw	s3,44(sp)
	sw	s4,40(sp)
	sw	s5,36(sp)
	sw	s6,32(sp)
	sw	s7,28(sp)
	sw	s8,24(sp)
	.cfi_offset 1, -4
	.cfi_offset 8, -8
	.cfi_offset 18, -16
	.cfi_offset 19, -20
	.cfi_offset 20, -24
	.cfi_offset 21, -28
	.cfi_offset 22, -32
	.cfi_offset 23, -36
	.cfi_offset 24, -40
	.loc 1 2181 31
	addi	s1,s1,%lo(.LANCHOR16)
	lw	a5,0(s1)
	.loc 1 2181 4
	beq	a5,zero,.L379
.L341:
	.loc 1 2188 2 is_stmt 1
.LBB298:
.LBB299:
	.loc 1 4300 3
 #APP
# 4300 "/b-l/bl_iot_sdk/components/bl602/freertos_riscv_ram/tasks.c" 1
	csrc mstatus, 8
# 0 "" 2
	.loc 1 4302 3
	.loc 1 4302 25 is_stmt 0
 #NO_APP
	lui	s0,%hi(.LANCHOR7)
	addi	s0,s0,%lo(.LANCHOR7)
	lw	a5,0(s0)
	.loc 1 4302 5
	beq	a5,zero,.L342
	call	vTaskEnterCritical.part.7
.LVL266:
.L342:
	.loc 1 4319 4 is_stmt 1
.LBE299:
.LBE298:
	.loc 1 2190 3
	lw	a5,0(s1)
	addi	a5,a5,-1
	sw	a5,0(s1)
	.loc 1 2192 3
	.loc 1 2192 28 is_stmt 0
	lw	a5,0(s1)
	.loc 1 2192 5
	bne	a5,zero,.L346
	.loc 1 2194 4 is_stmt 1
	.loc 1 2194 31 is_stmt 0
	lui	a5,%hi(.LANCHOR8)
	lw	a5,%lo(.LANCHOR8)(a5)
	.loc 1 2194 6
	beq	a5,zero,.L346
	lui	s3,%hi(.LANCHOR19)
	lui	s8,%hi(.LANCHOR12)
	.loc 1 2203 72
	lui	s2,%hi(.LANCHOR9)
	.loc 1 2176 8
	li	s6,0
	addi	s3,s3,%lo(.LANCHOR19)
	addi	s8,s8,%lo(.LANCHOR12)
	.loc 1 2203 31
	lui	s5,%hi(.LANCHOR4)
	.loc 1 2203 40
	li	s1,1
	.loc 1 2203 72
	addi	s2,s2,%lo(.LANCHOR9)
	.loc 1 2207 43
	lui	s4,%hi(.LANCHOR3)
.LVL267:
.L345:
	.loc 1 2200 6 is_stmt 1
	.loc 1 2213 7
	.loc 1 2198 38 is_stmt 0
	lw	a5,0(s8)
	.loc 1 2198 10
	beq	a5,zero,.L380
.L348:
	.loc 1 2200 12
	lw	a5,12(s8)
	lw	s6,12(a5)
.LVL268:
	.loc 1 2201 6 is_stmt 1
	.loc 1 2201 15 is_stmt 0
	addi	a0,s6,24
	call	uxListRemove
.LVL269:
	.loc 1 2202 6 is_stmt 1
	.loc 1 2202 15 is_stmt 0
	addi	s7,s6,4
	mv	a0,s7
	call	uxListRemove
.LVL270:
	.loc 1 2203 6 is_stmt 1
	.loc 1 2203 8
	.loc 1 2203 54 is_stmt 0
	lw	a5,44(s6)
	.loc 1 2203 31
	addi	a4,s5,%lo(.LANCHOR4)
	lw	a3,0(a4)
	.loc 1 2203 72
	slli	a0,a5,2
	add	a0,a0,a5
	slli	a0,a0,2
	.loc 1 2203 40
	sll	a5,s1,a5
	.loc 1 2203 31
	or	a5,a5,a3
	.loc 1 2203 72
	mv	a1,s7
	add	a0,s2,a0
	.loc 1 2203 31
	sw	a5,0(a4)
	.loc 1 2203 72 is_stmt 1
	call	vListInsertEnd
.LVL271:
	.loc 1 2203 171
	.loc 1 2207 6
	.loc 1 2209 7
	.loc 1 2207 43 is_stmt 0
	addi	a5,s4,%lo(.LANCHOR3)
	lw	a5,0(a5)
	.loc 1 2207 8
	lw	a4,44(s6)
	lw	a5,44(a5)
	bltu	a4,a5,.L345
	.loc 1 2209 21
	sw	s1,0(s3)
	.loc 1 2200 6 is_stmt 1
	.loc 1 2213 7
	.loc 1 2198 38 is_stmt 0
	lw	a5,0(s8)
	.loc 1 2198 10
	bne	a5,zero,.L348
.L380:
	.loc 1 2217 5 is_stmt 1
	.loc 1 2217 7 is_stmt 0
	beq	s6,zero,.L349
	.loc 1 2225 6 is_stmt 1
.LBB300:
.LBB301:
	.loc 1 3960 1
	.loc 1 3962 2
	.loc 1 3962 31 is_stmt 0
	lui	a5,%hi(.LANCHOR0)
	lw	a5,%lo(.LANCHOR0)(a5)
	lw	a5,0(a5)
	.loc 1 3962 4
	bne	a5,zero,.L350
	.loc 1 3968 3 is_stmt 1
	.loc 1 3968 24 is_stmt 0
	lui	a5,%hi(.LANCHOR1)
	li	a4,-1
	sw	a4,%lo(.LANCHOR1)(a5)
.L349:
.LBE301:
.LBE300:
.LBB303:
	.loc 1 2233 6 is_stmt 1
	.loc 1 2233 18 is_stmt 0
	lui	s2,%hi(.LANCHOR18)
	addi	s2,s2,%lo(.LANCHOR18)
	lw	s1,0(s2)
.LVL272:
	.loc 1 2235 6 is_stmt 1
	.loc 1 2235 8 is_stmt 0
	beq	s1,zero,.L351
	.loc 1 2241 23
	li	s4,1
.L353:
	.loc 1 2237 7 is_stmt 1
	.loc 1 2239 8
	.loc 1 2239 12 is_stmt 0
	call	xTaskIncrementTick
.LVL273:
	.loc 1 2241 9 is_stmt 1
	.loc 1 2245 9
	.loc 1 2247 8
	addi	s1,s1,-1
.LVL274:
	.loc 1 2239 10 is_stmt 0
	beq	a0,zero,.L352
	.loc 1 2241 23
	sw	s4,0(s3)
.L352:
	.loc 1 2248 7
	bne	s1,zero,.L353
	.loc 1 2250 7 is_stmt 1
	.loc 1 2250 21 is_stmt 0
	sw	zero,0(s2)
.L351:
	.loc 1 2254 7 is_stmt 1
.LBE303:
	.loc 1 2258 5
	.loc 1 2258 23 is_stmt 0
	lw	a5,0(s3)
	.loc 1 2258 7
	bne	a5,zero,.L381
.LVL275:
.L346:
	.loc 1 2177 12
	li	a0,0
.LVL276:
.L344:
	.loc 1 2275 4 is_stmt 1
	.loc 1 2278 2
.LBB304:
.LBB305:
	.loc 1 4330 3
	.loc 1 4330 25 is_stmt 0
	lw	a5,0(s0)
	.loc 1 4330 5
	beq	a5,zero,.L340
	.loc 1 4332 4 is_stmt 1
	.loc 1 4332 20 is_stmt 0
	lui	a5,%hi(.LANCHOR3)
	lw	a5,%lo(.LANCHOR3)(a5)
	.loc 1 4332 6
	lw	a5,68(a5)
	beq	a5,zero,.L340
	sw	a0,12(sp)
	call	vTaskExitCritical.part.8
.LVL277:
	lw	a0,12(sp)
	.loc 1 4352 4 is_stmt 1
.LBE305:
.LBE304:
	.loc 1 2280 2
.LVL278:
.L340:
	.loc 1 2281 1 is_stmt 0
	lw	ra,60(sp)
	.cfi_remember_state
	.cfi_restore 1
	lw	s0,56(sp)
	.cfi_restore 8
	lw	s1,52(sp)
	.cfi_restore 9
	lw	s2,48(sp)
	.cfi_restore 18
	lw	s3,44(sp)
	.cfi_restore 19
	lw	s4,40(sp)
	.cfi_restore 20
	lw	s5,36(sp)
	.cfi_restore 21
	lw	s6,32(sp)
	.cfi_restore 22
	lw	s7,28(sp)
	.cfi_restore 23
	lw	s8,24(sp)
	.cfi_restore 24
	addi	sp,sp,64
	.cfi_def_cfa_offset 0
	jr	ra
.LVL279:
.L379:
	.cfi_restore_state
	.loc 1 2181 38 is_stmt 1 discriminator 1
	call	vAssertCalled
.LVL280:
	j	.L341
.LVL281:
.L381:
	.loc 1 2262 7
	.loc 1 2265 6
 #APP
# 2265 "/b-l/bl_iot_sdk/components/bl602/freertos_riscv_ram/tasks.c" 1
	ecall
# 0 "" 2
	.loc 1 2265 32
	.loc 1 2262 23 is_stmt 0
 #NO_APP
	li	a0,1
	j	.L344
.LVL282:
.L350:
.LBB306:
.LBB302:
	call	prvResetNextTaskUnblockTime.part.0
.LVL283:
	j	.L349
.LBE302:
.LBE306:
	.cfi_endproc
.LFE23:
	.size	xTaskResumeAll, .-xTaskResumeAll
	.section	.text.vTaskDelayUntil,"ax",@progbits
	.align	1
	.globl	vTaskDelayUntil
	.type	vTaskDelayUntil, @function
vTaskDelayUntil:
.LFB10:
	.loc 1 1250 2 is_stmt 1
	.cfi_startproc
.LVL284:
	.loc 1 1251 2
	.loc 1 1252 2
	.loc 1 1254 3
	.loc 1 1250 2 is_stmt 0
	addi	sp,sp,-16
	.cfi_def_cfa_offset 16
	sw	s0,8(sp)
	sw	s2,0(sp)
	sw	ra,12(sp)
	sw	s1,4(sp)
	.cfi_offset 8, -8
	.cfi_offset 18, -16
	.cfi_offset 1, -4
	.cfi_offset 9, -12
	.loc 1 1250 2
	mv	s2,a0
	mv	s0,a1
	.loc 1 1254 5
	beq	a0,zero,.L399
.LVL285:
.L383:
	.loc 1 1255 3 is_stmt 1
	.loc 1 1255 5 is_stmt 0
	beq	s0,zero,.L400
.L384:
	.loc 1 1256 3 is_stmt 1
	.loc 1 1256 37 is_stmt 0
	lui	s1,%hi(.LANCHOR16)
	addi	s1,s1,%lo(.LANCHOR16)
	lw	a5,0(s1)
	.loc 1 1256 5
	bne	a5,zero,.L401
.L385:
	.loc 1 1258 3 is_stmt 1
.LBB307:
.LBB308:
	.loc 1 2106 2
	lw	a5,0(s1)
	addi	a5,a5,1
	sw	a5,0(s1)
	.loc 1 2107 2
.LBE308:
.LBE307:
.LBB309:
	.loc 1 1262 4
	.loc 1 1265 18 is_stmt 0
	lw	a4,0(s2)
	.loc 1 1262 21
	lui	a5,%hi(.LANCHOR2)
	lw	a0,%lo(.LANCHOR2)(a5)
.LVL286:
	.loc 1 1265 4 is_stmt 1
	.loc 1 1265 16 is_stmt 0
	add	s0,a4,s0
.LVL287:
	.loc 1 1267 4 is_stmt 1
	.loc 1 1299 24 is_stmt 0
	sw	s0,0(s2)
	.loc 1 1267 6
	bleu	a4,a0,.L386
	.loc 1 1274 5 is_stmt 1
	.loc 1 1274 7 is_stmt 0
	bgtu	a4,s0,.L398
.LVL288:
.L388:
	.loc 1 1311 5 is_stmt 1
.LBE309:
	.loc 1 1314 3
	.loc 1 1314 21 is_stmt 0
	call	xTaskResumeAll
.LVL289:
	.loc 1 1318 3 is_stmt 1
	.loc 1 1318 5 is_stmt 0
	bne	a0,zero,.L382
	.loc 1 1320 4 is_stmt 1
 #APP
# 1320 "/b-l/bl_iot_sdk/components/bl602/freertos_riscv_ram/tasks.c" 1
	ecall
# 0 "" 2
	.loc 1 1320 30
	.loc 1 1324 4
 #NO_APP
.L382:
	.loc 1 1326 2 is_stmt 0
	lw	ra,12(sp)
	.cfi_remember_state
	.cfi_restore 1
	lw	s0,8(sp)
	.cfi_restore 8
.LVL290:
	lw	s1,4(sp)
	.cfi_restore 9
	lw	s2,0(sp)
	.cfi_restore 18
.LVL291:
	addi	sp,sp,16
	.cfi_def_cfa_offset 0
	jr	ra
.LVL292:
.L386:
	.cfi_restore_state
.LBB310:
	.loc 1 1288 5 is_stmt 1
	.loc 1 1288 7 is_stmt 0
	bgtu	a4,s0,.L390
.L398:
	.loc 1 1288 47 discriminator 1
	bgeu	a0,s0,.L388
.L390:
	.loc 1 1303 5 is_stmt 1
	.loc 1 1307 5
	li	a1,0
	sub	a0,s0,a0
.LVL293:
	call	prvAddCurrentTaskToDelayedList
.LVL294:
	j	.L388
.LVL295:
.L401:
.LBE310:
	.loc 1 1256 44 discriminator 1
	call	vAssertCalled
.LVL296:
	j	.L385
.L400:
	.loc 1 1255 42 discriminator 1
	call	vAssertCalled
.LVL297:
	j	.L384
.LVL298:
.L399:
	.loc 1 1254 37 discriminator 1
	call	vAssertCalled
.LVL299:
	j	.L383
	.cfi_endproc
.LFE10:
	.size	vTaskDelayUntil, .-vTaskDelayUntil
	.section	.text.vTaskDelay,"ax",@progbits
	.align	1
	.globl	vTaskDelay
	.type	vTaskDelay, @function
vTaskDelay:
.LFB11:
	.loc 1 1334 2
	.cfi_startproc
.LVL300:
	.loc 1 1335 2
	.loc 1 1338 3
	.loc 1 1338 5 is_stmt 0
	bne	a0,zero,.L403
	.loc 1 1365 4 is_stmt 1
 #APP
# 1365 "/b-l/bl_iot_sdk/components/bl602/freertos_riscv_ram/tasks.c" 1
	ecall
# 0 "" 2
	.loc 1 1365 30
 #NO_APP
	ret
.L403:
	.loc 1 1340 4
	.loc 1 1334 2 is_stmt 0
	addi	sp,sp,-32
	.cfi_def_cfa_offset 32
	sw	s0,24(sp)
	.cfi_offset 8, -8
	.loc 1 1340 38
	lui	s0,%hi(.LANCHOR16)
	addi	s0,s0,%lo(.LANCHOR16)
	lw	a5,0(s0)
	.loc 1 1334 2
	sw	ra,28(sp)
	.cfi_offset 1, -4
	.loc 1 1340 6
	bne	a5,zero,.L416
.LVL301:
.L405:
	.loc 1 1341 4 is_stmt 1
.LBB311:
.LBB312:
	.loc 1 2106 2
	lw	a5,0(s0)
	addi	a5,a5,1
	sw	a5,0(s0)
	.loc 1 2107 2
.LBE312:
.LBE311:
	.loc 1 1343 5
	.loc 1 1352 5
	li	a1,0
	call	prvAddCurrentTaskToDelayedList
.LVL302:
	.loc 1 1354 4
	.loc 1 1354 22 is_stmt 0
	call	xTaskResumeAll
.LVL303:
	.loc 1 1358 4 is_stmt 1
	.loc 1 1363 3
	.loc 1 1363 5 is_stmt 0
	bne	a0,zero,.L402
	.loc 1 1365 4 is_stmt 1
 #APP
# 1365 "/b-l/bl_iot_sdk/components/bl602/freertos_riscv_ram/tasks.c" 1
	ecall
# 0 "" 2
	.loc 1 1365 30
 #NO_APP
.L402:
	.loc 1 1371 2 is_stmt 0
	lw	ra,28(sp)
	.cfi_remember_state
	.cfi_restore 1
	lw	s0,24(sp)
	.cfi_restore 8
	addi	sp,sp,32
	.cfi_def_cfa_offset 0
	jr	ra
.LVL304:
.L416:
	.cfi_restore_state
	sw	a0,12(sp)
	.loc 1 1340 45 is_stmt 1 discriminator 1
	call	vAssertCalled
.LVL305:
	lw	a0,12(sp)
	j	.L405
	.cfi_endproc
.LFE11:
	.size	vTaskDelay, .-vTaskDelay
	.globl	__clzsi2
	.section	.text.vTaskSwitchContext,"ax",@progbits
	.align	1
	.globl	vTaskSwitchContext
	.type	vTaskSwitchContext, @function
vTaskSwitchContext:
.LFB32:
	.loc 1 3026 1
	.cfi_startproc
	.loc 1 3027 2
	.loc 1 3027 27 is_stmt 0
	lui	a5,%hi(.LANCHOR16)
	lw	a5,%lo(.LANCHOR16)(a5)
	.loc 1 3027 4
	beq	a5,zero,.L418
	.loc 1 3031 3 is_stmt 1
	.loc 1 3031 17 is_stmt 0
	lui	a5,%hi(.LANCHOR19)
	li	a4,1
	sw	a4,%lo(.LANCHOR19)(a5)
	ret
.L418:
	.loc 1 3035 3 is_stmt 1
	.loc 1 3026 1 is_stmt 0
	addi	sp,sp,-32
	.cfi_def_cfa_offset 32
	sw	s2,16(sp)
	.loc 1 3035 17
	lui	a5,%hi(.LANCHOR19)
	.cfi_offset 18, -16
.LBB319:
	.loc 1 3066 66
	lui	s2,%hi(.LANCHOR3)
.LBE319:
	.loc 1 3035 17
	sw	zero,%lo(.LANCHOR19)(a5)
	.loc 1 3036 3 is_stmt 1
.LBB320:
	.loc 1 3066 5
	.loc 1 3066 66 is_stmt 0
	addi	s2,s2,%lo(.LANCHOR3)
	lw	a4,0(s2)
.LBE320:
	.loc 1 3026 1
	sw	ra,28(sp)
	sw	s0,24(sp)
	sw	s1,20(sp)
	sw	s3,12(sp)
	.cfi_offset 1, -4
	.cfi_offset 8, -8
	.cfi_offset 9, -12
	.cfi_offset 19, -20
.LBB321:
	.loc 1 3066 28
	lw	a4,48(a4)
.LVL306:
	.loc 1 3066 77 is_stmt 1
	.loc 1 3066 132
	.loc 1 3066 134 is_stmt 0
	li	a5,-1515872256
	addi	a5,a5,1445
	lw	a3,0(a4)
	bne	a3,a5,.L420
	.loc 1 3066 170 discriminator 2
	lw	a5,4(a4)
	beq	a5,a3,.L427
.L420:
	.loc 1 3066 285 is_stmt 1 discriminator 7
	lw	a0,0(s2)
	.loc 1 3066 359 is_stmt 0 discriminator 7
	lw	a1,0(s2)
	.loc 1 3066 285 discriminator 7
	addi	a1,a1,52
	call	vApplicationStackOverflowHook
.LVL307:
.L421:
.LBE321:
	.loc 1 3066 378 is_stmt 1 discriminator 9
.LBB322:
.LBB323:
	.loc 1 3077 5 discriminator 9
	.loc 1 3077 32 discriminator 9
	.loc 1 3077 57 is_stmt 0 discriminator 9
	lui	a5,%hi(.LANCHOR4)
	lw	a0,%lo(.LANCHOR4)(a5)
	.loc 1 3077 46 discriminator 9
	li	s0,31
	.loc 1 3077 147 discriminator 9
	lui	s1,%hi(.LANCHOR9)
	.loc 1 3077 57 discriminator 9
	call	__clzsi2
.LVL308:
	.loc 1 3077 46 discriminator 9
	sub	s3,s0,a0
.LVL309:
	.loc 1 3077 96 is_stmt 1 discriminator 9
	.loc 1 3077 147 is_stmt 0 discriminator 9
	slli	s0,s3,2
	add	a5,s0,s3
	addi	s1,s1,%lo(.LANCHOR9)
	slli	a5,a5,2
	add	a5,s1,a5
	lw	a5,0(a5)
	.loc 1 3077 98 discriminator 9
	beq	a5,zero,.L428
.L422:
.LBB324:
	.loc 1 3077 199 is_stmt 1
.LVL310:
	.loc 1 3077 273
	.loc 1 3077 315 is_stmt 0
	add	s0,s0,s3
	slli	s0,s0,2
	add	a4,s1,s0
	.loc 1 3077 324
	lw	a5,4(a4)
	.loc 1 3077 388
	addi	s0,s0,8
	add	s0,s1,s0
	.loc 1 3077 324
	lw	a5,4(a5)
	.loc 1 3077 298
	sw	a5,4(a4)
	.loc 1 3077 334 is_stmt 1
	.loc 1 3077 336 is_stmt 0
	beq	a5,s0,.L429
.L423:
	.loc 1 3077 486 is_stmt 1
	.loc 1 3077 529 is_stmt 0
	lw	a5,12(a5)
.LBE324:
.LBE323:
.LBE322:
	.loc 1 3095 1
	lw	ra,28(sp)
	.cfi_remember_state
	.cfi_restore 1
	lw	s0,24(sp)
	.cfi_restore 8
.LBB329:
.LBB327:
.LBB325:
	.loc 1 3077 503
	sw	a5,0(s2)
.LBE325:
	.loc 1 3077 541 is_stmt 1
.LBE327:
.LBE329:
	.loc 1 3077 544
	.loc 1 3078 3
	.loc 1 3077 541
	.loc 1 3077 544
	.loc 1 3078 3
	.loc 1 3095 1 is_stmt 0
	lw	s1,20(sp)
	.cfi_restore 9
	lw	s2,16(sp)
	.cfi_restore 18
	lw	s3,12(sp)
	.cfi_restore 19
.LVL311:
	addi	sp,sp,32
	.cfi_def_cfa_offset 0
	jr	ra
.LVL312:
.L427:
	.cfi_restore_state
.LBB330:
	.loc 1 3066 207 discriminator 4
	lw	a3,8(a4)
	bne	a3,a5,.L420
	.loc 1 3066 244 discriminator 6
	lw	a5,12(a4)
	bne	a5,a3,.L420
	j	.L421
.LVL313:
.L428:
.LBE330:
.LBB331:
.LBB328:
	.loc 1 3077 180 is_stmt 1
	call	vAssertCalled
.LVL314:
	j	.L422
.LVL315:
.L429:
.LBB326:
	.loc 1 3077 423
	.loc 1 3077 474 is_stmt 0
	lw	a5,4(a5)
	.loc 1 3077 448
	sw	a5,4(a4)
	j	.L423
.LBE326:
.LBE328:
.LBE331:
	.cfi_endproc
.LFE32:
	.size	vTaskSwitchContext, .-vTaskSwitchContext
	.section	.text.vTaskSuspend,"ax",@progbits
	.align	1
	.globl	vTaskSuspend
	.type	vTaskSuspend, @function
vTaskSuspend:
.LFB16:
	.loc 1 1697 2 is_stmt 1
	.cfi_startproc
.LVL316:
	.loc 1 1698 2
	.loc 1 1700 3
.LBB332:
.LBB333:
	.loc 1 4300 3
.LBE333:
.LBE332:
	.loc 1 1697 2 is_stmt 0
	addi	sp,sp,-32
	.cfi_def_cfa_offset 32
	sw	s0,24(sp)
	sw	ra,28(sp)
	sw	s1,20(sp)
	sw	s2,16(sp)
	sw	s3,12(sp)
	sw	s4,8(sp)
	.cfi_offset 8, -8
	.cfi_offset 1, -4
	.cfi_offset 9, -12
	.cfi_offset 18, -16
	.cfi_offset 19, -20
	.cfi_offset 20, -24
	.loc 1 1697 2
	mv	s0,a0
.LBB335:
.LBB334:
	.loc 1 4300 3
 #APP
# 4300 "/b-l/bl_iot_sdk/components/bl602/freertos_riscv_ram/tasks.c" 1
	csrc mstatus, 8
# 0 "" 2
	.loc 1 4302 3 is_stmt 1
	.loc 1 4302 25 is_stmt 0
 #NO_APP
	lui	s1,%hi(.LANCHOR7)
	addi	s1,s1,%lo(.LANCHOR7)
	lw	a5,0(s1)
	.loc 1 4302 5
	beq	a5,zero,.L431
	call	vTaskEnterCritical.part.7
.LVL317:
.L431:
	.loc 1 4319 4 is_stmt 1
.LBE334:
.LBE335:
	.loc 1 1704 4
	.loc 1 1704 28 is_stmt 0
	lui	s2,%hi(.LANCHOR3)
	addi	s2,s2,%lo(.LANCHOR3)
	beq	s0,zero,.L472
.LVL318:
.L432:
	.loc 1 1706 4 is_stmt 1 discriminator 4
	.loc 1 1710 4 discriminator 4
	.loc 1 1710 8 is_stmt 0 discriminator 4
	addi	s3,s0,4
	mv	a0,s3
	call	uxListRemove
.LVL319:
	.loc 1 1710 6 discriminator 4
	bne	a0,zero,.L433
	.loc 1 1712 7 is_stmt 1
	.loc 1 1712 44 is_stmt 0
	lw	a3,44(s0)
	.loc 1 1712 64
	slli	a5,a3,2
	add	a5,a5,a3
	slli	a4,a5,2
	lui	a5,%hi(.LANCHOR9)
	addi	a5,a5,%lo(.LANCHOR9)
	add	a5,a5,a4
	lw	a5,0(a5)
	.loc 1 1712 9
	beq	a5,zero,.L474
.L433:
	.loc 1 1716 5 is_stmt 1
	.loc 1 1720 4
	.loc 1 1720 6 is_stmt 0
	lw	a5,40(s0)
	beq	a5,zero,.L434
	.loc 1 1722 5 is_stmt 1
	.loc 1 1722 14 is_stmt 0
	addi	a0,s0,24
	call	uxListRemove
.LVL320:
.L434:
	.loc 1 1726 5 is_stmt 1
	.loc 1 1729 4
	lui	s4,%hi(.LANCHOR5)
	mv	a1,s3
	addi	a0,s4,%lo(.LANCHOR5)
	call	vListInsertEnd
.LVL321:
	.loc 1 1733 5
	.loc 1 1733 14 is_stmt 0
	lbu	a5,92(s0)
	.loc 1 1733 7
	li	a4,1
	bne	a4,a5,.L435
	.loc 1 1737 6 is_stmt 1
	.loc 1 1737 27 is_stmt 0
	sb	zero,92(s0)
.L435:
	.loc 1 1742 3 is_stmt 1
.LBB336:
.LBB337:
	.loc 1 4330 3
	.loc 1 4330 25 is_stmt 0
	lw	a5,0(s1)
	.loc 1 4330 5
	beq	a5,zero,.L436
	.loc 1 4332 4 is_stmt 1
	.loc 1 4332 20 is_stmt 0
	lw	a5,0(s2)
	.loc 1 4332 6
	lw	a5,68(a5)
	bne	a5,zero,.L475
.L436:
	.loc 1 4352 4 is_stmt 1
.LBE337:
.LBE336:
	.loc 1 1744 3
	.loc 1 1744 25 is_stmt 0
	lw	a5,0(s1)
	.loc 1 1744 5
	beq	a5,zero,.L438
	.loc 1 1748 4 is_stmt 1
.LBB339:
.LBB340:
	.loc 1 4300 3
 #APP
# 4300 "/b-l/bl_iot_sdk/components/bl602/freertos_riscv_ram/tasks.c" 1
	csrc mstatus, 8
# 0 "" 2
	.loc 1 4302 3
	.loc 1 4302 25 is_stmt 0
 #NO_APP
	lw	a5,0(s1)
	.loc 1 4302 5
	bne	a5,zero,.L476
	.loc 1 4319 4 is_stmt 1
.LBE340:
.LBE339:
	.loc 1 1750 5
.LBB342:
.LBB343:
	.loc 1 3960 1
	.loc 1 3962 2
	.loc 1 3962 31 is_stmt 0
	lui	a5,%hi(.LANCHOR0)
	lw	a5,%lo(.LANCHOR0)(a5)
	lw	a5,0(a5)
	.loc 1 3962 4
	bne	a5,zero,.L440
.L479:
	.loc 1 3968 3 is_stmt 1
	.loc 1 3968 24 is_stmt 0
	lui	a5,%hi(.LANCHOR1)
	li	a4,-1
	sw	a4,%lo(.LANCHOR1)(a5)
.L441:
.LBE343:
.LBE342:
	.loc 1 1752 4 is_stmt 1
.LBB345:
.LBB346:
	.loc 1 4330 3
	.loc 1 4330 25 is_stmt 0
	lw	a5,0(s1)
	.loc 1 4330 5
	beq	a5,zero,.L438
	.loc 1 4332 4 is_stmt 1
	.loc 1 4332 20 is_stmt 0
	lw	a5,0(s2)
	.loc 1 4332 6
	lw	a5,68(a5)
	bne	a5,zero,.L477
.L438:
.LBE346:
.LBE345:
	.loc 1 1756 4 is_stmt 1
	.loc 1 1759 3
	.loc 1 1759 13 is_stmt 0
	lw	a5,0(s2)
	.loc 1 1759 5
	beq	a5,s0,.L478
.L430:
	.loc 1 1790 2
	lw	ra,28(sp)
	.cfi_remember_state
	.cfi_restore 1
	lw	s0,24(sp)
	.cfi_restore 8
.LVL322:
	lw	s1,20(sp)
	.cfi_restore 9
	lw	s2,16(sp)
	.cfi_restore 18
	lw	s3,12(sp)
	.cfi_restore 19
.LVL323:
	lw	s4,8(sp)
	.cfi_restore 20
	addi	sp,sp,32
	.cfi_def_cfa_offset 0
	jr	ra
.LVL324:
.L476:
	.cfi_restore_state
.LBB348:
.LBB341:
	call	vTaskEnterCritical.part.7
.LVL325:
	.loc 1 4319 4 is_stmt 1
.LBE341:
.LBE348:
	.loc 1 1750 5
.LBB349:
.LBB344:
	.loc 1 3960 1
	.loc 1 3962 2
	.loc 1 3962 31 is_stmt 0
	lui	a5,%hi(.LANCHOR0)
	lw	a5,%lo(.LANCHOR0)(a5)
	lw	a5,0(a5)
	.loc 1 3962 4
	beq	a5,zero,.L479
.L440:
	call	prvResetNextTaskUnblockTime.part.0
.LVL326:
	j	.L441
.L475:
.LBE344:
.LBE349:
.LBB350:
.LBB338:
	call	vTaskExitCritical.part.8
.LVL327:
	j	.L436
.L474:
.LBE338:
.LBE350:
	.loc 1 1712 109 is_stmt 1 discriminator 1
	.loc 1 1712 136 is_stmt 0 discriminator 1
	lui	a4,%hi(.LANCHOR4)
	addi	a4,a4,%lo(.LANCHOR4)
	lw	a2,0(a4)
	.loc 1 1712 146 discriminator 1
	li	a5,1
	sll	a5,a5,a3
	.loc 1 1712 139 discriminator 1
	not	a5,a5
	.loc 1 1712 136 discriminator 1
	and	a5,a5,a2
	sw	a5,0(a4)
	j	.L433
.LVL328:
.L472:
	.loc 1 1704 28 discriminator 1
	lw	s0,0(s2)
.LVL329:
	j	.L432
.LVL330:
.L478:
	.loc 1 1761 4 is_stmt 1
	.loc 1 1761 26 is_stmt 0
	lw	a5,0(s1)
	.loc 1 1761 6
	bne	a5,zero,.L480
	.loc 1 1772 5 is_stmt 1
	.loc 1 1772 54 is_stmt 0
	lui	a5,%hi(.LANCHOR8)
	.loc 1 1772 34
	addi	s4,s4,%lo(.LANCHOR5)
	lw	a4,0(s4)
	.loc 1 1772 54
	lw	a5,%lo(.LANCHOR8)(a5)
	.loc 1 1772 7
	bne	a4,a5,.L446
	.loc 1 1778 6 is_stmt 1
	.loc 1 1778 19 is_stmt 0
	sw	zero,0(s2)
	j	.L430
.L480:
	.loc 1 1764 5 is_stmt 1
	.loc 1 1764 39 is_stmt 0
	lui	a5,%hi(.LANCHOR16)
	lw	a5,%lo(.LANCHOR16)(a5)
	.loc 1 1764 7
	bne	a5,zero,.L481
	.loc 1 1765 5 is_stmt 1
 #APP
# 1765 "/b-l/bl_iot_sdk/components/bl602/freertos_riscv_ram/tasks.c" 1
	ecall
# 0 "" 2
	.loc 1 1765 31
 #NO_APP
.L482:
	.loc 1 1790 2 is_stmt 0
	lw	ra,28(sp)
	.cfi_remember_state
	.cfi_restore 1
	lw	s0,24(sp)
	.cfi_restore 8
.LVL331:
	lw	s1,20(sp)
	.cfi_restore 9
	lw	s2,16(sp)
	.cfi_restore 18
	lw	s3,12(sp)
	.cfi_restore 19
.LVL332:
	lw	s4,8(sp)
	.cfi_restore 20
	addi	sp,sp,32
	.cfi_def_cfa_offset 0
	jr	ra
.LVL333:
.L477:
	.cfi_restore_state
.LBB351:
.LBB347:
	call	vTaskExitCritical.part.8
.LVL334:
	j	.L438
.L446:
.LBE347:
.LBE351:
	.loc 1 1782 6 is_stmt 1
	.loc 1 1790 2 is_stmt 0
	lw	s0,24(sp)
	.cfi_remember_state
	.cfi_restore 8
.LVL335:
	lw	ra,28(sp)
	.cfi_restore 1
	lw	s1,20(sp)
	.cfi_restore 9
	lw	s2,16(sp)
	.cfi_restore 18
	lw	s3,12(sp)
	.cfi_restore 19
.LVL336:
	lw	s4,8(sp)
	.cfi_restore 20
	addi	sp,sp,32
	.cfi_def_cfa_offset 0
	.loc 1 1782 6
	tail	vTaskSwitchContext
.LVL337:
.L481:
	.cfi_restore_state
	.loc 1 1764 46 is_stmt 1 discriminator 1
	call	vAssertCalled
.LVL338:
	.loc 1 1765 5 discriminator 1
 #APP
# 1765 "/b-l/bl_iot_sdk/components/bl602/freertos_riscv_ram/tasks.c" 1
	ecall
# 0 "" 2
	.loc 1 1765 31 discriminator 1
 #NO_APP
	j	.L482
	.cfi_endproc
.LFE16:
	.size	vTaskSuspend, .-vTaskSuspend
	.section	.text.vTaskPlaceOnEventList,"ax",@progbits
	.align	1
	.globl	vTaskPlaceOnEventList
	.type	vTaskPlaceOnEventList, @function
vTaskPlaceOnEventList:
.LFB33:
	.loc 1 3099 1
	.cfi_startproc
.LVL339:
	.loc 1 3100 2
	.loc 1 3099 1 is_stmt 0
	addi	sp,sp,-32
	.cfi_def_cfa_offset 32
	sw	s0,24(sp)
	sw	ra,28(sp)
	.cfi_offset 8, -8
	.cfi_offset 1, -4
	.loc 1 3099 1
	mv	s0,a1
	.loc 1 3100 4
	beq	a0,zero,.L486
.LVL340:
.L484:
	.loc 1 3109 2 is_stmt 1
	.loc 1 3109 43 is_stmt 0
	lui	a5,%hi(.LANCHOR3)
	lw	a1,%lo(.LANCHOR3)(a5)
	.loc 1 3109 2
	addi	a1,a1,24
	call	vListInsert
.LVL341:
	.loc 1 3111 2 is_stmt 1
	mv	a0,s0
	.loc 1 3112 1 is_stmt 0
	lw	s0,24(sp)
	.cfi_remember_state
	.cfi_restore 8
.LVL342:
	lw	ra,28(sp)
	.cfi_restore 1
	.loc 1 3111 2
	li	a1,1
	.loc 1 3112 1
	addi	sp,sp,32
	.cfi_def_cfa_offset 0
	.loc 1 3111 2
	tail	prvAddCurrentTaskToDelayedList
.LVL343:
.L486:
	.cfi_restore_state
	sw	a0,12(sp)
	.loc 1 3100 29 is_stmt 1 discriminator 1
	call	vAssertCalled
.LVL344:
	lw	a0,12(sp)
	j	.L484
	.cfi_endproc
.LFE33:
	.size	vTaskPlaceOnEventList, .-vTaskPlaceOnEventList
	.section	.text.vTaskPlaceOnUnorderedEventList,"ax",@progbits
	.align	1
	.globl	vTaskPlaceOnUnorderedEventList
	.type	vTaskPlaceOnUnorderedEventList, @function
vTaskPlaceOnUnorderedEventList:
.LFB34:
	.loc 1 3116 1
	.cfi_startproc
.LVL345:
	.loc 1 3117 2
	.loc 1 3116 1 is_stmt 0
	addi	sp,sp,-32
	.cfi_def_cfa_offset 32
	sw	s0,24(sp)
	sw	s1,20(sp)
	sw	ra,28(sp)
	.cfi_offset 8, -8
	.cfi_offset 9, -12
	.cfi_offset 1, -4
	.loc 1 3116 1
	mv	s0,a1
	mv	s1,a2
	.loc 1 3117 4
	beq	a0,zero,.L491
.LVL346:
.L488:
	.loc 1 3121 2 is_stmt 1
	.loc 1 3121 36 is_stmt 0
	lui	a5,%hi(.LANCHOR16)
	lw	a5,%lo(.LANCHOR16)(a5)
	.loc 1 3121 4
	beq	a5,zero,.L492
.L489:
	.loc 1 3126 2 is_stmt 1
	.loc 1 3126 21 is_stmt 0
	lui	a5,%hi(.LANCHOR3)
	addi	a5,a5,%lo(.LANCHOR3)
	lw	a4,0(a5)
	.loc 1 3133 46
	lw	a1,0(a5)
	.loc 1 3126 69
	li	a5,-2147483648
	or	a5,s0,a5
	.loc 1 3133 2
	addi	a1,a1,24
	.loc 1 3126 54
	sw	a5,24(a4)
	.loc 1 3133 2 is_stmt 1
	call	vListInsertEnd
.LVL347:
	.loc 1 3135 2
	.loc 1 3136 1 is_stmt 0
	lw	s0,24(sp)
	.cfi_remember_state
	.cfi_restore 8
.LVL348:
	lw	ra,28(sp)
	.cfi_restore 1
	.loc 1 3135 2
	mv	a0,s1
	.loc 1 3136 1
	lw	s1,20(sp)
	.cfi_restore 9
.LVL349:
	.loc 1 3135 2
	li	a1,1
	.loc 1 3136 1
	addi	sp,sp,32
	.cfi_def_cfa_offset 0
	.loc 1 3135 2
	tail	prvAddCurrentTaskToDelayedList
.LVL350:
.L492:
	.cfi_restore_state
	sw	a0,12(sp)
	.loc 1 3121 43 is_stmt 1 discriminator 1
	call	vAssertCalled
.LVL351:
	lw	a0,12(sp)
	j	.L489
.LVL352:
.L491:
	sw	a0,12(sp)
	.loc 1 3117 29 discriminator 1
	call	vAssertCalled
.LVL353:
	lw	a0,12(sp)
	j	.L488
	.cfi_endproc
.LFE34:
	.size	vTaskPlaceOnUnorderedEventList, .-vTaskPlaceOnUnorderedEventList
	.section	.text.vTaskPlaceOnEventListRestricted,"ax",@progbits
	.align	1
	.globl	vTaskPlaceOnEventListRestricted
	.type	vTaskPlaceOnEventListRestricted, @function
vTaskPlaceOnEventListRestricted:
.LFB35:
	.loc 1 3142 2
	.cfi_startproc
.LVL354:
	.loc 1 3143 3
	.loc 1 3142 2 is_stmt 0
	addi	sp,sp,-32
	.cfi_def_cfa_offset 32
	sw	s0,24(sp)
	sw	s1,20(sp)
	sw	ra,28(sp)
	.cfi_offset 8, -8
	.cfi_offset 9, -12
	.cfi_offset 1, -4
	.loc 1 3142 2
	mv	s1,a1
	mv	s0,a2
	.loc 1 3143 5
	beq	a0,zero,.L500
.LVL355:
.L494:
	.loc 1 3155 3 is_stmt 1
	.loc 1 3155 47 is_stmt 0
	lui	a5,%hi(.LANCHOR3)
	lw	a1,%lo(.LANCHOR3)(a5)
	.loc 1 3155 3
	addi	a1,a1,24
	call	vListInsertEnd
.LVL356:
	.loc 1 3160 3 is_stmt 1
	.loc 1 3160 5 is_stmt 0
	beq	s0,zero,.L495
	.loc 1 3162 17
	li	s1,-1
.LVL357:
.L495:
	.loc 1 3165 3 is_stmt 1
	.loc 1 3166 3
	mv	a1,s0
	.loc 1 3167 2 is_stmt 0
	lw	s0,24(sp)
	.cfi_remember_state
	.cfi_restore 8
.LVL358:
	lw	ra,28(sp)
	.cfi_restore 1
	.loc 1 3166 3
	mv	a0,s1
	.loc 1 3167 2
	lw	s1,20(sp)
	.cfi_restore 9
.LVL359:
	addi	sp,sp,32
	.cfi_def_cfa_offset 0
	.loc 1 3166 3
	tail	prvAddCurrentTaskToDelayedList
.LVL360:
.L500:
	.cfi_restore_state
	sw	a0,12(sp)
	.loc 1 3143 30 is_stmt 1 discriminator 1
	call	vAssertCalled
.LVL361:
	lw	a0,12(sp)
	j	.L494
	.cfi_endproc
.LFE35:
	.size	vTaskPlaceOnEventListRestricted, .-vTaskPlaceOnEventListRestricted
	.section	.text.xTaskRemoveFromEventList,"ax",@progbits
	.align	1
	.globl	xTaskRemoveFromEventList
	.type	xTaskRemoveFromEventList, @function
xTaskRemoveFromEventList:
.LFB36:
	.loc 1 3173 1
	.cfi_startproc
.LVL362:
	.loc 1 3174 1
	.loc 1 3175 1
	.loc 1 3190 2
	.loc 1 3173 1 is_stmt 0
	addi	sp,sp,-16
	.cfi_def_cfa_offset 16
	sw	ra,12(sp)
	sw	s0,8(sp)
	sw	s1,4(sp)
	.cfi_offset 1, -4
	.cfi_offset 8, -8
	.cfi_offset 9, -12
	.loc 1 3190 17
	lw	a5,12(a0)
	lw	s0,12(a5)
.LVL363:
	.loc 1 3191 2 is_stmt 1
	.loc 1 3191 4 is_stmt 0
	beq	s0,zero,.L508
.LVL364:
.L502:
	.loc 1 3192 2 is_stmt 1
	.loc 1 3192 11 is_stmt 0
	addi	s1,s0,24
	mv	a0,s1
	call	uxListRemove
.LVL365:
	.loc 1 3194 2 is_stmt 1
	.loc 1 3194 27 is_stmt 0
	lui	a5,%hi(.LANCHOR16)
	lw	a5,%lo(.LANCHOR16)(a5)
	.loc 1 3194 4
	beq	a5,zero,.L509
	.loc 1 3217 3 is_stmt 1
	lui	a0,%hi(.LANCHOR12)
	mv	a1,s1
	addi	a0,a0,%lo(.LANCHOR12)
	call	vListInsertEnd
.LVL366:
.L504:
	.loc 1 3220 2
	.loc 1 3220 47 is_stmt 0
	lui	a5,%hi(.LANCHOR3)
	lw	a5,%lo(.LANCHOR3)(a5)
	.loc 1 3220 4
	lw	a4,44(s0)
	.loc 1 3233 11
	li	a0,0
	.loc 1 3220 4
	lw	a5,44(a5)
	bleu	a4,a5,.L501
	.loc 1 3225 3 is_stmt 1
.LVL367:
	.loc 1 3229 3
	.loc 1 3229 17 is_stmt 0
	lui	a5,%hi(.LANCHOR19)
	li	a4,1
	sw	a4,%lo(.LANCHOR19)(a5)
	.loc 1 3225 11
	li	a0,1
.LVL368:
.L501:
	.loc 1 3237 1
	lw	ra,12(sp)
	.cfi_remember_state
	.cfi_restore 1
	lw	s0,8(sp)
	.cfi_restore 8
.LVL369:
	lw	s1,4(sp)
	.cfi_restore 9
	addi	sp,sp,16
	.cfi_def_cfa_offset 0
	jr	ra
.LVL370:
.L509:
	.cfi_restore_state
	.loc 1 3196 3 is_stmt 1
	.loc 1 3196 12 is_stmt 0
	addi	s1,s0,4
	mv	a0,s1
	call	uxListRemove
.LVL371:
	.loc 1 3197 3 is_stmt 1
	.loc 1 3197 5
	.loc 1 3197 60 is_stmt 0
	lw	a2,44(s0)
	.loc 1 3197 28
	lui	a3,%hi(.LANCHOR4)
	addi	a3,a3,%lo(.LANCHOR4)
	lw	a1,0(a3)
	.loc 1 3197 78
	slli	a4,a2,2
	add	a4,a4,a2
	.loc 1 3197 37
	li	a5,1
	.loc 1 3197 78
	lui	a0,%hi(.LANCHOR9)
	.loc 1 3197 37
	sll	a5,a5,a2
	.loc 1 3197 78
	slli	a4,a4,2
	addi	a0,a0,%lo(.LANCHOR9)
	.loc 1 3197 28
	or	a5,a5,a1
	.loc 1 3197 78
	add	a0,a0,a4
	mv	a1,s1
	.loc 1 3197 28
	sw	a5,0(a3)
	.loc 1 3197 78 is_stmt 1
	call	vListInsertEnd
.LVL372:
	.loc 1 3197 195
	j	.L504
.LVL373:
.L508:
	.loc 1 3191 32 discriminator 1
	call	vAssertCalled
.LVL374:
	j	.L502
	.cfi_endproc
.LFE36:
	.size	xTaskRemoveFromEventList, .-xTaskRemoveFromEventList
	.section	.text.vTaskRemoveFromUnorderedEventList,"ax",@progbits
	.align	1
	.globl	vTaskRemoveFromUnorderedEventList
	.type	vTaskRemoveFromUnorderedEventList, @function
vTaskRemoveFromUnorderedEventList:
.LFB37:
	.loc 1 3241 1
	.cfi_startproc
.LVL375:
	.loc 1 3242 1
	.loc 1 3246 2
	.loc 1 3246 55 is_stmt 0
	lui	a5,%hi(.LANCHOR16)
	lw	a5,%lo(.LANCHOR16)(a5)
	.loc 1 3241 1
	addi	sp,sp,-32
	.cfi_def_cfa_offset 32
	sw	ra,28(sp)
	sw	s0,24(sp)
	sw	s1,20(sp)
	sw	s2,16(sp)
	.cfi_offset 1, -4
	.cfi_offset 8, -8
	.cfi_offset 9, -12
	.cfi_offset 18, -16
	.loc 1 3246 4
	beq	a5,zero,.L515
	.loc 1 3249 2 is_stmt 1
	.loc 1 3249 51 is_stmt 0
	li	a5,-2147483648
	.loc 1 3253 17
	lw	s0,12(a0)
	.loc 1 3249 51
	or	a1,a1,a5
.LVL376:
	.loc 1 3249 36
	sw	a1,0(a0)
	.loc 1 3253 2 is_stmt 1
.LVL377:
	.loc 1 3254 2
	.loc 1 3254 4 is_stmt 0
	beq	s0,zero,.L516
.LVL378:
.L512:
	.loc 1 3255 2 is_stmt 1
	.loc 1 3255 11 is_stmt 0
	call	uxListRemove
.LVL379:
	.loc 1 3260 2 is_stmt 1
	.loc 1 3260 11 is_stmt 0
	addi	s1,s0,4
	mv	a0,s1
	call	uxListRemove
.LVL380:
	.loc 1 3261 2 is_stmt 1
	.loc 1 3261 4
	.loc 1 3261 59 is_stmt 0
	lw	a5,44(s0)
	.loc 1 3261 27
	lui	a3,%hi(.LANCHOR4)
	addi	a3,a3,%lo(.LANCHOR4)
	lw	a2,0(a3)
	.loc 1 3261 77
	slli	a4,a5,2
	add	a4,a4,a5
	.loc 1 3261 36
	li	s2,1
	.loc 1 3261 77
	lui	a0,%hi(.LANCHOR9)
	slli	a4,a4,2
	.loc 1 3261 36
	sll	a5,s2,a5
	.loc 1 3261 77
	addi	a0,a0,%lo(.LANCHOR9)
	.loc 1 3261 27
	or	a5,a5,a2
	.loc 1 3261 77
	add	a0,a0,a4
	mv	a1,s1
	.loc 1 3261 27
	sw	a5,0(a3)
	.loc 1 3261 77 is_stmt 1
	call	vListInsertEnd
.LVL381:
	.loc 1 3261 194
	.loc 1 3263 2
	.loc 1 3263 47 is_stmt 0
	lui	a5,%hi(.LANCHOR3)
	lw	a5,%lo(.LANCHOR3)(a5)
	.loc 1 3263 4
	lw	a4,44(s0)
	lw	a5,44(a5)
	bleu	a4,a5,.L510
	.loc 1 3269 3 is_stmt 1
	.loc 1 3269 17 is_stmt 0
	lui	a5,%hi(.LANCHOR19)
	sw	s2,%lo(.LANCHOR19)(a5)
.L510:
	.loc 1 3271 1
	lw	ra,28(sp)
	.cfi_remember_state
	.cfi_restore 1
	lw	s0,24(sp)
	.cfi_restore 8
.LVL382:
	lw	s1,20(sp)
	.cfi_restore 9
.LVL383:
	lw	s2,16(sp)
	.cfi_restore 18
	addi	sp,sp,32
	.cfi_def_cfa_offset 0
	jr	ra
.LVL384:
.L515:
	.cfi_restore_state
	sw	a1,12(sp)
	sw	a0,8(sp)
	.loc 1 3246 62 is_stmt 1 discriminator 1
	call	vAssertCalled
.LVL385:
	lw	a0,8(sp)
	.loc 1 3249 2 discriminator 1
	.loc 1 3246 62 is_stmt 0 discriminator 1
	lw	a1,12(sp)
	.loc 1 3249 51 discriminator 1
	li	a5,-2147483648
	.loc 1 3253 17 discriminator 1
	lw	s0,12(a0)
	.loc 1 3249 51 discriminator 1
	or	a1,a1,a5
	.loc 1 3249 36 discriminator 1
	sw	a1,0(a0)
	.loc 1 3253 2 is_stmt 1 discriminator 1
.LVL386:
	.loc 1 3254 2 discriminator 1
	.loc 1 3254 4 is_stmt 0 discriminator 1
	bne	s0,zero,.L512
.LVL387:
.L516:
	sw	a0,8(sp)
	.loc 1 3254 32 is_stmt 1 discriminator 1
	call	vAssertCalled
.LVL388:
	lw	a0,8(sp)
	j	.L512
	.cfi_endproc
.LFE37:
	.size	vTaskRemoveFromUnorderedEventList, .-vTaskRemoveFromUnorderedEventList
	.section	.text.vTaskSetTimeOutState,"ax",@progbits
	.align	1
	.globl	vTaskSetTimeOutState
	.type	vTaskSetTimeOutState, @function
vTaskSetTimeOutState:
.LFB38:
	.loc 1 3275 1
	.cfi_startproc
.LVL389:
	.loc 1 3276 2
	.loc 1 3275 1 is_stmt 0
	addi	sp,sp,-16
	.cfi_def_cfa_offset 16
	sw	s1,4(sp)
	sw	ra,12(sp)
	sw	s0,8(sp)
	.cfi_offset 9, -12
	.cfi_offset 1, -4
	.cfi_offset 8, -8
	.loc 1 3275 1
	mv	s1,a0
	.loc 1 3276 4
	beq	a0,zero,.L531
.LVL390:
.L518:
	.loc 1 3277 2 is_stmt 1
.LBB352:
.LBB353:
	.loc 1 4300 3
 #APP
# 4300 "/b-l/bl_iot_sdk/components/bl602/freertos_riscv_ram/tasks.c" 1
	csrc mstatus, 8
# 0 "" 2
	.loc 1 4302 3
	.loc 1 4302 25 is_stmt 0
 #NO_APP
	lui	s0,%hi(.LANCHOR7)
	addi	s0,s0,%lo(.LANCHOR7)
	lw	a5,0(s0)
	.loc 1 4302 5
	beq	a5,zero,.L519
	call	vTaskEnterCritical.part.7
.LVL391:
.L519:
	.loc 1 4319 4 is_stmt 1
.LBE353:
.LBE352:
	.loc 1 3279 3
	.loc 1 3279 29 is_stmt 0
	lui	a4,%hi(.LANCHOR17)
	.loc 1 3280 30
	lui	a5,%hi(.LANCHOR2)
	.loc 1 3279 29
	lw	a3,%lo(.LANCHOR17)(a4)
	.loc 1 3280 30
	lw	a4,%lo(.LANCHOR2)(a5)
.LBB354:
.LBB355:
	.loc 1 4330 25
	lw	a5,0(s0)
.LBE355:
.LBE354:
	.loc 1 3279 29
	sw	a3,0(s1)
	.loc 1 3280 3 is_stmt 1
	.loc 1 3280 30 is_stmt 0
	sw	a4,4(s1)
	.loc 1 3282 2 is_stmt 1
.LBB358:
.LBB356:
	.loc 1 4330 3
	.loc 1 4330 5 is_stmt 0
	beq	a5,zero,.L517
	.loc 1 4332 4 is_stmt 1
	.loc 1 4332 20 is_stmt 0
	lui	a5,%hi(.LANCHOR3)
	lw	a5,%lo(.LANCHOR3)(a5)
	.loc 1 4332 6
	lw	a5,68(a5)
	beq	a5,zero,.L517
.LBE356:
.LBE358:
	.loc 1 3283 1
	lw	s0,8(sp)
	.cfi_remember_state
	.cfi_restore 8
	lw	ra,12(sp)
	.cfi_restore 1
	lw	s1,4(sp)
	.cfi_restore 9
.LVL392:
	addi	sp,sp,16
	.cfi_def_cfa_offset 0
.LBB359:
.LBB357:
	tail	vTaskExitCritical.part.8
.LVL393:
.L517:
	.cfi_restore_state
.LBE357:
.LBE359:
	lw	ra,12(sp)
	.cfi_remember_state
	.cfi_restore 1
	lw	s0,8(sp)
	.cfi_restore 8
	lw	s1,4(sp)
	.cfi_restore 9
.LVL394:
	addi	sp,sp,16
	.cfi_def_cfa_offset 0
	jr	ra
.LVL395:
.L531:
	.cfi_restore_state
	.loc 1 3276 27 is_stmt 1 discriminator 1
	call	vAssertCalled
.LVL396:
	j	.L518
	.cfi_endproc
.LFE38:
	.size	vTaskSetTimeOutState, .-vTaskSetTimeOutState
	.section	.text.vTaskInternalSetTimeOutState,"ax",@progbits
	.align	1
	.globl	vTaskInternalSetTimeOutState
	.type	vTaskInternalSetTimeOutState, @function
vTaskInternalSetTimeOutState:
.LFB39:
	.loc 1 3287 1
	.cfi_startproc
.LVL397:
	.loc 1 3289 2
	.loc 1 3289 28 is_stmt 0
	lui	a4,%hi(.LANCHOR17)
	.loc 1 3290 29
	lui	a5,%hi(.LANCHOR2)
	.loc 1 3289 28
	lw	a4,%lo(.LANCHOR17)(a4)
	.loc 1 3290 29
	lw	a5,%lo(.LANCHOR2)(a5)
	.loc 1 3289 28
	sw	a4,0(a0)
	.loc 1 3290 2 is_stmt 1
	.loc 1 3290 29 is_stmt 0
	sw	a5,4(a0)
	.loc 1 3291 1
	ret
	.cfi_endproc
.LFE39:
	.size	vTaskInternalSetTimeOutState, .-vTaskInternalSetTimeOutState
	.section	.text.xTaskCheckForTimeOut,"ax",@progbits
	.align	1
	.globl	xTaskCheckForTimeOut
	.type	xTaskCheckForTimeOut, @function
xTaskCheckForTimeOut:
.LFB40:
	.loc 1 3295 1 is_stmt 1
	.cfi_startproc
.LVL398:
	.loc 1 3296 1
	.loc 1 3298 2
	.loc 1 3295 1 is_stmt 0
	addi	sp,sp,-32
	.cfi_def_cfa_offset 32
	sw	s1,20(sp)
	sw	s2,16(sp)
	sw	ra,28(sp)
	sw	s0,24(sp)
	.cfi_offset 9, -12
	.cfi_offset 18, -16
	.cfi_offset 1, -4
	.cfi_offset 8, -8
	.loc 1 3295 1
	mv	s1,a0
	mv	s2,a1
	.loc 1 3298 4
	beq	a0,zero,.L553
	.loc 1 3299 2 is_stmt 1
	.loc 1 3299 4 is_stmt 0
	beq	s2,zero,.L554
.LVL399:
.L535:
	.loc 1 3301 2 is_stmt 1
.LBB360:
.LBB361:
	.loc 1 4300 3
 #APP
# 4300 "/b-l/bl_iot_sdk/components/bl602/freertos_riscv_ram/tasks.c" 1
	csrc mstatus, 8
# 0 "" 2
	.loc 1 4302 3
	.loc 1 4302 25 is_stmt 0
 #NO_APP
	lui	s0,%hi(.LANCHOR7)
	addi	s0,s0,%lo(.LANCHOR7)
	lw	a5,0(s0)
	.loc 1 4302 5
	bne	a5,zero,.L555
.L536:
	.loc 1 4319 4 is_stmt 1
.LBE361:
.LBE360:
.LBB363:
	.loc 1 3304 3
	.loc 1 3304 20 is_stmt 0
	lui	a5,%hi(.LANCHOR2)
	addi	a5,a5,%lo(.LANCHOR2)
	.loc 1 3319 8
	lw	a4,0(s2)
	.loc 1 3304 20
	lw	a2,0(a5)
.LVL400:
	.loc 1 3305 3 is_stmt 1
	.loc 1 3319 4
	.loc 1 3319 6 is_stmt 0
	li	a3,-1
	.loc 1 3324 13
	li	a0,0
	.loc 1 3319 6
	beq	a4,a3,.L537
	.loc 1 3329 25
	lui	a3,%hi(.LANCHOR17)
	addi	a3,a3,%lo(.LANCHOR17)
	lw	a0,0(a3)
	.loc 1 3329 5
	lw	a6,0(s1)
	.loc 1 3305 62
	lw	a1,4(s1)
	.loc 1 3329 3 is_stmt 1
	.loc 1 3329 5 is_stmt 0
	beq	a6,a0,.L538
	.loc 1 3336 12 discriminator 1
	li	a0,1
	.loc 1 3329 56 discriminator 1
	bleu	a1,a2,.L537
.L538:
	.loc 1 3338 8 is_stmt 1
	.loc 1 3305 20 is_stmt 0
	sub	a0,a2,a1
	.loc 1 3338 10
	bleu	a4,a0,.L539
	.loc 1 3341 4 is_stmt 1
.LBB364:
.LBB365:
	.loc 1 3289 28 is_stmt 0
	lw	a3,0(a3)
.LBE365:
.LBE364:
	.loc 1 3341 19
	sub	a4,a4,a2
.LBB368:
.LBB366:
	.loc 1 3290 29
	lw	a5,0(a5)
.LBE366:
.LBE368:
	.loc 1 3341 19
	add	a4,a4,a1
	sw	a4,0(s2)
.LVL401:
	.loc 1 3342 4 is_stmt 1
.LBB369:
.LBB367:
	.loc 1 3289 2
	.loc 1 3289 28 is_stmt 0
	sw	a3,0(s1)
	.loc 1 3290 2 is_stmt 1
	.loc 1 3290 29 is_stmt 0
	sw	a5,4(s1)
.LVL402:
.LBE367:
.LBE369:
	.loc 1 3343 4 is_stmt 1
	.loc 1 3343 12 is_stmt 0
	li	a0,0
.LVL403:
.L537:
.LBE363:
	.loc 1 3351 2 is_stmt 1
.LBB370:
.LBB371:
	.loc 1 4330 3
	.loc 1 4330 25 is_stmt 0
	lw	a5,0(s0)
	.loc 1 4330 5
	beq	a5,zero,.L533
.L556:
	.loc 1 4332 4 is_stmt 1
	.loc 1 4332 20 is_stmt 0
	lui	a5,%hi(.LANCHOR3)
	lw	a5,%lo(.LANCHOR3)(a5)
	.loc 1 4332 6
	lw	a5,68(a5)
	beq	a5,zero,.L533
	sw	a0,12(sp)
	call	vTaskExitCritical.part.8
.LVL404:
	lw	a0,12(sp)
	.loc 1 4352 4 is_stmt 1
.LBE371:
.LBE370:
	.loc 1 3353 2
.LVL405:
.L533:
	.loc 1 3354 1 is_stmt 0
	lw	ra,28(sp)
	.cfi_remember_state
	.cfi_restore 1
	lw	s0,24(sp)
	.cfi_restore 8
	lw	s1,20(sp)
	.cfi_restore 9
.LVL406:
	lw	s2,16(sp)
	.cfi_restore 18
.LVL407:
	addi	sp,sp,32
	.cfi_def_cfa_offset 0
	jr	ra
.LVL408:
.L555:
	.cfi_restore_state
.LBB374:
.LBB362:
	call	vTaskEnterCritical.part.7
.LVL409:
	j	.L536
.LVL410:
.L539:
.LBE362:
.LBE374:
.LBB375:
	.loc 1 3347 4 is_stmt 1
.LBE375:
.LBB376:
.LBB372:
	.loc 1 4330 25 is_stmt 0
	lw	a5,0(s0)
.LBE372:
.LBE376:
.LBB377:
	.loc 1 3347 19
	sw	zero,0(s2)
	.loc 1 3348 4 is_stmt 1
.LVL411:
	.loc 1 3348 12 is_stmt 0
	li	a0,1
.LVL412:
.LBE377:
	.loc 1 3351 2 is_stmt 1
.LBB378:
.LBB373:
	.loc 1 4330 3
	.loc 1 4330 5 is_stmt 0
	beq	a5,zero,.L533
	j	.L556
.LVL413:
.L553:
.LBE373:
.LBE378:
	.loc 1 3298 27 is_stmt 1 discriminator 1
	call	vAssertCalled
.LVL414:
	.loc 1 3299 2 discriminator 1
	.loc 1 3299 4 is_stmt 0 discriminator 1
	bne	s2,zero,.L535
.L554:
	.loc 1 3299 31 is_stmt 1 discriminator 1
	call	vAssertCalled
.LVL415:
	j	.L535
	.cfi_endproc
.LFE40:
	.size	xTaskCheckForTimeOut, .-xTaskCheckForTimeOut
	.section	.text.vTaskMissedYield,"ax",@progbits
	.align	1
	.globl	vTaskMissedYield
	.type	vTaskMissedYield, @function
vTaskMissedYield:
.LFB41:
	.loc 1 3358 1
	.cfi_startproc
	.loc 1 3359 2
	.loc 1 3359 16 is_stmt 0
	lui	a5,%hi(.LANCHOR19)
	li	a4,1
	sw	a4,%lo(.LANCHOR19)(a5)
	.loc 1 3360 1
	ret
	.cfi_endproc
.LFE41:
	.size	vTaskMissedYield, .-vTaskMissedYield
	.section	.text.uxTaskGetTaskNumber,"ax",@progbits
	.align	1
	.globl	uxTaskGetTaskNumber
	.type	uxTaskGetTaskNumber, @function
uxTaskGetTaskNumber:
.LFB42:
	.loc 1 3366 2 is_stmt 1
	.cfi_startproc
.LVL416:
	.loc 1 3367 2
	.loc 1 3368 2
	.loc 1 3370 3
	.loc 1 3370 5 is_stmt 0
	beq	a0,zero,.L560
	.loc 1 3372 4 is_stmt 1
.LVL417:
	.loc 1 3373 4
	.loc 1 3373 13 is_stmt 0
	lw	a0,76(a0)
.LVL418:
	ret
.LVL419:
.L560:
	.loc 1 3377 13
	li	a0,0
.LVL420:
	.loc 1 3380 3 is_stmt 1
	.loc 1 3381 2 is_stmt 0
	ret
	.cfi_endproc
.LFE42:
	.size	uxTaskGetTaskNumber, .-uxTaskGetTaskNumber
	.section	.text.vTaskSetTaskNumber,"ax",@progbits
	.align	1
	.globl	vTaskSetTaskNumber
	.type	vTaskSetTaskNumber, @function
vTaskSetTaskNumber:
.LFB43:
	.loc 1 3389 2 is_stmt 1
	.cfi_startproc
.LVL421:
	.loc 1 3390 2
	.loc 1 3392 3
	.loc 1 3392 5 is_stmt 0
	beq	a0,zero,.L561
	.loc 1 3394 4 is_stmt 1
.LVL422:
	.loc 1 3395 4
	.loc 1 3395 24 is_stmt 0
	sw	a1,76(a0)
.LVL423:
.L561:
	.loc 1 3397 2
	ret
	.cfi_endproc
.LFE43:
	.size	vTaskSetTaskNumber, .-vTaskSetTaskNumber
	.section	.text.vTaskGetInfo,"ax",@progbits
	.align	1
	.globl	vTaskGetInfo
	.type	vTaskGetInfo, @function
vTaskGetInfo:
.LFB47:
	.loc 1 3688 2 is_stmt 1
	.cfi_startproc
.LVL424:
	.loc 1 3689 2
	.loc 1 3692 3
	.loc 1 3688 2 is_stmt 0
	addi	sp,sp,-32
	.cfi_def_cfa_offset 32
	sw	s0,24(sp)
	sw	ra,28(sp)
	.cfi_offset 8, -8
	.cfi_offset 1, -4
	mv	s0,a0
	.loc 1 3692 27
	beq	a0,zero,.L583
.LVL425:
.L567:
	.loc 1 3694 3 is_stmt 1 discriminator 4
	.loc 1 3695 47 is_stmt 0 discriminator 4
	addi	a5,s0,52
	.loc 1 3695 28 discriminator 4
	sw	a5,4(a1)
	.loc 1 3694 25 discriminator 4
	sw	s0,0(a1)
	.loc 1 3695 3 is_stmt 1 discriminator 4
	.loc 1 3696 3 discriminator 4
	.loc 1 3696 42 is_stmt 0 discriminator 4
	lw	a4,44(s0)
	.loc 1 3723 5 discriminator 4
	li	a5,5
	.loc 1 3696 35 discriminator 4
	sw	a4,16(a1)
	.loc 1 3697 3 is_stmt 1 discriminator 4
	.loc 1 3697 36 is_stmt 0 discriminator 4
	lw	a4,48(s0)
	.loc 1 3697 29 discriminator 4
	sw	a4,28(a1)
	.loc 1 3698 3 is_stmt 1 discriminator 4
	.loc 1 3698 36 is_stmt 0 discriminator 4
	lw	a4,72(s0)
	.loc 1 3698 29 discriminator 4
	sw	a4,8(a1)
	.loc 1 3702 4 is_stmt 1 discriminator 4
	.loc 1 3702 40 is_stmt 0 discriminator 4
	lw	a4,80(s0)
	.loc 1 3716 35 discriminator 4
	sw	zero,24(a1)
	.loc 1 3702 33 discriminator 4
	sw	a4,20(a1)
	.loc 1 3716 4 is_stmt 1 discriminator 4
	.loc 1 3723 3 discriminator 4
	.loc 1 3723 5 is_stmt 0 discriminator 4
	beq	a3,a5,.L568
	.loc 1 3725 4 is_stmt 1
	.loc 1 3725 14 is_stmt 0
	lui	a5,%hi(.LANCHOR3)
	lw	a5,%lo(.LANCHOR3)(a5)
	.loc 1 3725 6
	beq	a5,s0,.L584
	.loc 1 3731 5 is_stmt 1
	.loc 1 3731 33 is_stmt 0
	sb	a3,12(a1)
	.loc 1 3738 6 is_stmt 1
	.loc 1 3738 8 is_stmt 0
	li	a5,3
	beq	a3,a5,.L585
.LVL426:
.L570:
	.loc 1 3760 3 is_stmt 1
	.loc 1 3760 5 is_stmt 0
	beq	a2,zero,.L572
	.loc 1 3768 5 is_stmt 1
	.loc 1 3768 89 is_stmt 0
	lw	a3,48(s0)
.LVL427:
.LBB379:
.LBB380:
	.loc 1 3818 2 is_stmt 1
	.loc 1 3820 3
	.loc 1 3820 8 is_stmt 0
	li	a5,165
	lbu	a4,0(a3)
	bne	a4,a5,.L576
	.loc 1 3818 11
	li	a5,0
	.loc 1 3820 8
	li	a2,165
.LVL428:
.L574:
	.loc 1 3822 4 is_stmt 1
	.loc 1 3823 4
	.loc 1 3823 11 is_stmt 0
	addi	a5,a5,1
.LVL429:
	.loc 1 3820 10
	add	a4,a3,a5
	.loc 1 3820 8
	lbu	a4,0(a4)
	beq	a4,a2,.L574
	srli	a5,a5,2
.LVL430:
	slli	a5,a5,16
	srli	a5,a5,16
	.loc 1 3826 3 is_stmt 1
	.loc 1 3828 3
.LBE380:
.LBE379:
	.loc 1 3768 40 is_stmt 0
	sh	a5,32(a1)
.L586:
	.loc 1 3776 2
	lw	ra,28(sp)
	.cfi_remember_state
	.cfi_restore 1
	lw	s0,24(sp)
	.cfi_restore 8
.LVL431:
	addi	sp,sp,32
	.cfi_def_cfa_offset 0
	jr	ra
.LVL432:
.L572:
	.cfi_restore_state
	.loc 1 3774 4 is_stmt 1
	.loc 1 3774 39 is_stmt 0
	sh	zero,32(a1)
	.loc 1 3776 2
	lw	ra,28(sp)
	.cfi_remember_state
	.cfi_restore 1
	lw	s0,24(sp)
	.cfi_restore 8
.LVL433:
	addi	sp,sp,32
	.cfi_def_cfa_offset 0
	jr	ra
.LVL434:
.L583:
	.cfi_restore_state
	.loc 1 3692 27 discriminator 1
	lui	a5,%hi(.LANCHOR3)
	lw	s0,%lo(.LANCHOR3)(a5)
.LVL435:
	j	.L567
.LVL436:
.L584:
	.loc 1 3727 5 is_stmt 1
	.loc 1 3727 33 is_stmt 0
	sb	zero,12(a1)
	j	.L570
.L568:
	.loc 1 3755 4 is_stmt 1
	.loc 1 3755 34 is_stmt 0
	mv	a0,s0
	sw	a2,12(sp)
	sw	a1,8(sp)
	call	eTaskGetState
.LVL437:
	.loc 1 3755 32
	lw	a1,8(sp)
	lw	a2,12(sp)
	sb	a0,12(a1)
	j	.L570
.LVL438:
.L585:
	.loc 1 3740 7 is_stmt 1
.LBB382:
.LBB383:
	.loc 1 2106 2
	lui	a5,%hi(.LANCHOR16)
	addi	a5,a5,%lo(.LANCHOR16)
	lw	a4,0(a5)
	addi	a4,a4,1
	sw	a4,0(a5)
	.loc 1 2107 2
.LBE383:
.LBE382:
	.loc 1 3742 8
	.loc 1 3742 10 is_stmt 0
	lw	a5,40(s0)
	beq	a5,zero,.L571
	.loc 1 3744 9 is_stmt 1
	.loc 1 3744 37 is_stmt 0
	li	a5,2
	sb	a5,12(a1)
.L571:
	sw	a2,12(sp)
	sw	a1,8(sp)
	.loc 1 3747 7 is_stmt 1
	.loc 1 3747 16 is_stmt 0
	call	xTaskResumeAll
.LVL439:
	lw	a1,8(sp)
	lw	a2,12(sp)
	j	.L570
.LVL440:
.L576:
.LBB384:
.LBB381:
	.loc 1 3820 8
	li	a5,0
	.loc 1 3826 3 is_stmt 1
.LVL441:
	.loc 1 3828 3
.LBE381:
.LBE384:
	.loc 1 3768 40 is_stmt 0
	sh	a5,32(a1)
	j	.L586
	.cfi_endproc
.LFE47:
	.size	vTaskGetInfo, .-vTaskGetInfo
	.section	.text.prvListTasksWithinSingleList.part.11,"ax",@progbits
	.align	1
	.type	prvListTasksWithinSingleList.part.11, @function
prvListTasksWithinSingleList.part.11:
.LFB82:
	.loc 1 3783 21 is_stmt 1
	.cfi_startproc
.LVL442:
.LBB385:
	.loc 1 3790 6
.LBE385:
	.loc 1 3783 21 is_stmt 0
	addi	sp,sp,-32
	.cfi_def_cfa_offset 32
	sw	s2,16(sp)
	sw	s4,8(sp)
	sw	s6,0(sp)
	sw	ra,28(sp)
	sw	s0,24(sp)
	sw	s1,20(sp)
	sw	s3,12(sp)
	sw	s5,4(sp)
	.cfi_offset 18, -16
	.cfi_offset 20, -24
	.cfi_offset 22, -32
	.cfi_offset 1, -4
	.cfi_offset 8, -8
	.cfi_offset 9, -12
	.cfi_offset 19, -20
	.cfi_offset 21, -28
.LBB386:
	.loc 1 3790 98
	lw	a5,4(a1)
	.loc 1 3790 162
	addi	s4,a1,8
.LBE386:
	.loc 1 3783 21
	mv	s2,a1
.LVL443:
.LBB387:
	.loc 1 3790 47 is_stmt 1
	.loc 1 3790 98 is_stmt 0
	lw	a5,4(a5)
.LBE387:
	.loc 1 3783 21
	mv	s6,a2
.LBB388:
	.loc 1 3790 72
	sw	a5,4(a1)
	.loc 1 3790 108 is_stmt 1
	.loc 1 3790 110 is_stmt 0
	beq	a5,s4,.L593
.L588:
	.loc 1 3790 260 is_stmt 1
	.loc 1 3790 275 is_stmt 0
	lw	s5,12(a5)
.LVL444:
	mv	s0,a0
.LBE388:
	.loc 1 3786 14
	li	s3,0
	j	.L591
.LVL445:
.L589:
.LBB389:
	.loc 1 3798 275
	lw	s1,12(a5)
.LVL446:
.LBE389:
	.loc 1 3798 313 is_stmt 1
	.loc 1 3799 5
	.loc 1 3800 11 is_stmt 0
	addi	s3,s3,1
.LVL447:
	addi	s0,s0,36
	.loc 1 3799 5
	mv	a0,s1
	call	vTaskGetInfo
.LVL448:
	.loc 1 3800 5 is_stmt 1
	.loc 1 3801 4 is_stmt 0
	beq	s5,s1,.L587
.L594:
	lw	a5,4(s2)
.LVL449:
.L591:
	.loc 1 3790 313 is_stmt 1
	.loc 1 3796 4
.LBB390:
	.loc 1 3798 7
	.loc 1 3798 48
	.loc 1 3798 261
	.loc 1 3798 99 is_stmt 0
	lw	a5,4(a5)
.LBE390:
	.loc 1 3799 5
	mv	a1,s0
	mv	a3,s6
.LBB391:
	.loc 1 3798 73
	sw	a5,4(s2)
	.loc 1 3798 109 is_stmt 1
.LBE391:
	.loc 1 3799 5 is_stmt 0
	li	a2,1
.LBB392:
	.loc 1 3798 111
	bne	s4,a5,.L589
	.loc 1 3798 198 is_stmt 1
	.loc 1 3798 249 is_stmt 0
	lw	a5,4(s4)
.LBE392:
	.loc 1 3800 11
	addi	s3,s3,1
.LVL450:
	addi	s0,s0,36
.LBB393:
	.loc 1 3798 223
	sw	a5,4(s2)
	.loc 1 3798 275
	lw	s1,12(a5)
.LVL451:
.LBE393:
	.loc 1 3798 313 is_stmt 1
	.loc 1 3799 5
	mv	a0,s1
	call	vTaskGetInfo
.LVL452:
	.loc 1 3800 5
	.loc 1 3801 4 is_stmt 0
	bne	s5,s1,.L594
.L587:
	.loc 1 3809 2
	lw	ra,28(sp)
	.cfi_remember_state
	.cfi_restore 1
	lw	s0,24(sp)
	.cfi_restore 8
	mv	a0,s3
	lw	s1,20(sp)
	.cfi_restore 9
.LVL453:
	lw	s2,16(sp)
	.cfi_restore 18
.LVL454:
	lw	s3,12(sp)
	.cfi_restore 19
.LVL455:
	lw	s4,8(sp)
	.cfi_restore 20
.LVL456:
	lw	s5,4(sp)
	.cfi_restore 21
.LVL457:
	lw	s6,0(sp)
	.cfi_restore 22
	addi	sp,sp,32
	.cfi_def_cfa_offset 0
	jr	ra
.LVL458:
.L593:
	.cfi_restore_state
.LBB394:
	.loc 1 3790 197 is_stmt 1
	.loc 1 3790 248 is_stmt 0
	lw	a5,12(a1)
	.loc 1 3790 222
	sw	a5,4(a1)
	j	.L588
.LBE394:
	.cfi_endproc
.LFE82:
	.size	prvListTasksWithinSingleList.part.11, .-prvListTasksWithinSingleList.part.11
	.section	.text.uxTaskGetSystemState,"ax",@progbits
	.align	1
	.globl	uxTaskGetSystemState
	.type	uxTaskGetSystemState, @function
uxTaskGetSystemState:
.LFB29:
	.loc 1 2499 2 is_stmt 1
	.cfi_startproc
.LVL459:
	.loc 1 2500 2
	.loc 1 2502 3
.LBB395:
.LBB396:
	.loc 1 2106 2
.LBE396:
.LBE395:
	.loc 1 2499 2 is_stmt 0
	addi	sp,sp,-32
	.cfi_def_cfa_offset 32
.LBB399:
.LBB397:
	.loc 1 2106 2
	lui	a5,%hi(.LANCHOR16)
.LBE397:
.LBE399:
	.loc 1 2499 2
	sw	ra,28(sp)
	sw	s0,24(sp)
	sw	s1,20(sp)
	sw	s2,16(sp)
	sw	s3,12(sp)
	sw	s4,8(sp)
	sw	s5,4(sp)
	.cfi_offset 1, -4
	.cfi_offset 8, -8
	.cfi_offset 9, -12
	.cfi_offset 18, -16
	.cfi_offset 19, -20
	.cfi_offset 20, -24
	.cfi_offset 21, -28
.LBB400:
.LBB398:
	.loc 1 2106 2
	addi	a5,a5,%lo(.LANCHOR16)
	lw	a4,0(a5)
	addi	a4,a4,1
	sw	a4,0(a5)
	.loc 1 2107 2 is_stmt 1
.LBE398:
.LBE400:
	.loc 1 2505 4
	.loc 1 2505 20 is_stmt 0
	lui	a5,%hi(.LANCHOR8)
	lw	a5,%lo(.LANCHOR8)(a5)
	.loc 1 2500 14
	li	s2,0
	.loc 1 2505 6
	bgtu	a5,a1,.L596
	lui	s5,%hi(.LANCHOR9)
	addi	s5,s5,%lo(.LANCHOR9)
	mv	s4,a0
	mv	s0,a2
	addi	s3,s5,620
	.loc 1 2500 26
	li	s1,32
	.loc 1 2500 14
	li	s2,0
	li	a4,0
.LVL460:
.L598:
	.loc 1 2509 5 is_stmt 1 discriminator 1
	.loc 1 2511 6 discriminator 1
	.loc 1 2511 13 is_stmt 0 discriminator 1
	addi	s1,s1,-1
.LVL461:
	.loc 1 2512 6 is_stmt 1 discriminator 1
.LBB401:
.LBB402:
	.loc 1 3788 19 is_stmt 0 discriminator 1
	slli	a5,s1,2
	add	a5,a5,s1
	slli	a5,a5,2
	add	a5,s5,a5
	lw	a3,0(a5)
.LBE402:
.LBE401:
	.loc 1 2512 66 discriminator 1
	add	a5,a4,s2
	slli	a5,a5,2
	.loc 1 2512 16 discriminator 1
	add	a5,s4,a5
.LVL462:
.LBB404:
.LBB403:
	.loc 1 3785 2 is_stmt 1 discriminator 1
	.loc 1 3786 2 discriminator 1
	.loc 1 3788 3 discriminator 1
	mv	a1,s3
	li	a2,1
	mv	a0,a5
	.loc 1 3788 5 is_stmt 0 discriminator 1
	beq	a3,zero,.L597
	call	prvListTasksWithinSingleList.part.11
.LVL463:
	add	s2,s2,a0
.LVL464:
	slli	a4,s2,3
	add	a5,a4,s2
	slli	a5,a5,2
	add	a5,s4,a5
.L597:
.LVL465:
	.loc 1 3805 4 is_stmt 1
	.loc 1 3808 3
	addi	s3,s3,-20
.LBE403:
.LBE404:
	.loc 1 2514 5 is_stmt 0
	bne	s1,zero,.L598
	.loc 1 2518 5 is_stmt 1
	.loc 1 2518 15 is_stmt 0
	lui	a4,%hi(.LANCHOR0)
	lw	a1,%lo(.LANCHOR0)(a4)
.LVL466:
.LBB405:
.LBB406:
	.loc 1 3785 2 is_stmt 1
	.loc 1 3786 2
	.loc 1 3788 3
	.loc 1 3788 19 is_stmt 0
	lw	a4,0(a1)
	.loc 1 3788 5
	beq	a4,zero,.L599
	mv	a0,a5
	li	a2,2
	call	prvListTasksWithinSingleList.part.11
.LVL467:
	add	s2,s2,a0
	slli	a5,s2,3
	add	a5,a5,s2
	slli	a5,a5,2
	add	a5,s4,a5
.L599:
.LVL468:
	.loc 1 3805 4 is_stmt 1
	.loc 1 3808 3
.LBE406:
.LBE405:
	.loc 1 2519 5
	.loc 1 2519 15 is_stmt 0
	lui	a4,%hi(.LANCHOR6)
	lw	a1,%lo(.LANCHOR6)(a4)
.LVL469:
.LBB407:
.LBB408:
	.loc 1 3785 2 is_stmt 1
	.loc 1 3786 2
	.loc 1 3788 3
	.loc 1 3788 19 is_stmt 0
	lw	a4,0(a1)
	.loc 1 3788 5
	beq	a4,zero,.L600
	mv	a0,a5
	li	a2,2
	call	prvListTasksWithinSingleList.part.11
.LVL470:
	add	s2,s2,a0
	slli	a5,s2,3
	add	a5,a5,s2
	slli	a5,a5,2
	add	a5,s4,a5
.L600:
.LVL471:
	.loc 1 3805 4 is_stmt 1
	.loc 1 3808 3
.LBE408:
.LBE407:
	.loc 1 2525 6
.LBB409:
.LBB410:
	.loc 1 3785 2
	.loc 1 3786 2
	.loc 1 3788 3
	.loc 1 3788 19 is_stmt 0
	lui	a1,%hi(.LANCHOR13)
	addi	a4,a1,%lo(.LANCHOR13)
	lw	a4,0(a4)
	.loc 1 3788 5
	beq	a4,zero,.L601
	mv	a0,a5
	li	a2,4
	addi	a1,a1,%lo(.LANCHOR13)
	call	prvListTasksWithinSingleList.part.11
.LVL472:
	add	s2,s2,a0
	slli	a5,s2,3
	add	a5,a5,s2
	slli	a5,a5,2
	add	a5,s4,a5
.L601:
.LVL473:
	.loc 1 3805 4 is_stmt 1
	.loc 1 3808 3
.LBE410:
.LBE409:
	.loc 1 2533 6
.LBB411:
.LBB412:
	.loc 1 3785 2
	.loc 1 3786 2
	.loc 1 3788 3
	.loc 1 3788 19 is_stmt 0
	lui	a1,%hi(.LANCHOR5)
	addi	a4,a1,%lo(.LANCHOR5)
	lw	a4,0(a4)
	.loc 1 3788 5
	beq	a4,zero,.L602
	li	a2,3
	addi	a1,a1,%lo(.LANCHOR5)
	mv	a0,a5
	call	prvListTasksWithinSingleList.part.11
.LVL474:
	add	s2,s2,a0
.L602:
.LVL475:
	.loc 1 3805 4 is_stmt 1
	.loc 1 3808 3
.LBE412:
.LBE411:
	.loc 1 2550 6
	.loc 1 2550 8 is_stmt 0
	beq	s0,zero,.L596
	.loc 1 2552 7 is_stmt 1
	.loc 1 2552 24 is_stmt 0
	sw	zero,0(s0)
.LVL476:
.L596:
	.loc 1 2559 5 is_stmt 1
	.loc 1 2562 3
	.loc 1 2562 12 is_stmt 0
	call	xTaskResumeAll
.LVL477:
	.loc 1 2564 3 is_stmt 1
	.loc 1 2565 2 is_stmt 0
	lw	ra,28(sp)
	.cfi_restore 1
	lw	s0,24(sp)
	.cfi_restore 8
	mv	a0,s2
	lw	s1,20(sp)
	.cfi_restore 9
	lw	s2,16(sp)
	.cfi_restore 18
.LVL478:
	lw	s3,12(sp)
	.cfi_restore 19
	lw	s4,8(sp)
	.cfi_restore 20
	lw	s5,4(sp)
	.cfi_restore 21
	addi	sp,sp,32
	.cfi_def_cfa_offset 0
	jr	ra
	.cfi_endproc
.LFE29:
	.size	uxTaskGetSystemState, .-uxTaskGetSystemState
	.section	.text.uxTaskGetStackHighWaterMark,"ax",@progbits
	.align	1
	.globl	uxTaskGetStackHighWaterMark
	.type	uxTaskGetStackHighWaterMark, @function
uxTaskGetStackHighWaterMark:
.LFB50:
	.loc 1 3877 2 is_stmt 1
	.cfi_startproc
.LVL479:
	.loc 1 3878 2
	.loc 1 3879 2
	.loc 1 3880 2
	.loc 1 3882 3
	.loc 1 3882 27 is_stmt 0
	beq	a0,zero,.L630
.LVL480:
	.loc 1 3886 4 is_stmt 1 discriminator 4
	.loc 1 3886 18 is_stmt 0 discriminator 4
	lw	a4,48(a0)
.LVL481:
	.loc 1 3894 3 is_stmt 1 discriminator 4
.LBB413:
.LBB414:
	.loc 1 3818 2 discriminator 4
	.loc 1 3820 3 discriminator 4
	.loc 1 3820 8 is_stmt 0 discriminator 4
	li	a5,165
	.loc 1 3818 11 discriminator 4
	li	a0,0
.LVL482:
	.loc 1 3820 8 discriminator 4
	lbu	a3,0(a4)
	bne	a3,a5,.L628
.LVL483:
.L631:
	.loc 1 3820 8
	li	a3,165
.LVL484:
.L627:
	.loc 1 3822 4 is_stmt 1
	.loc 1 3823 4
	.loc 1 3823 11 is_stmt 0
	addi	a0,a0,1
.LVL485:
	.loc 1 3820 10
	add	a5,a4,a0
	.loc 1 3820 8
	lbu	a5,0(a5)
	beq	a5,a3,.L627
	srli	a0,a0,2
.LVL486:
	slli	a0,a0,16
	srli	a0,a0,16
	ret
.LVL487:
.L630:
.LBE414:
.LBE413:
	.loc 1 3882 27 discriminator 1
	lui	a5,%hi(.LANCHOR3)
	lw	a0,%lo(.LANCHOR3)(a5)
.LVL488:
	.loc 1 3886 4 is_stmt 1 discriminator 1
.LBB417:
.LBB415:
	.loc 1 3820 8 is_stmt 0 discriminator 1
	li	a5,165
.LBE415:
.LBE417:
	.loc 1 3886 18 discriminator 1
	lw	a4,48(a0)
.LVL489:
	.loc 1 3894 3 is_stmt 1 discriminator 1
.LBB418:
.LBB416:
	.loc 1 3818 2 discriminator 1
	.loc 1 3820 3 discriminator 1
	.loc 1 3818 11 is_stmt 0 discriminator 1
	li	a0,0
.LVL490:
	.loc 1 3820 8 discriminator 1
	lbu	a3,0(a4)
	beq	a3,a5,.L631
.L628:
	.loc 1 3826 3 is_stmt 1
.LVL491:
	.loc 1 3828 3
.LBE416:
.LBE418:
	.loc 1 3896 3
	.loc 1 3897 2 is_stmt 0
	ret
	.cfi_endproc
.LFE50:
	.size	uxTaskGetStackHighWaterMark, .-uxTaskGetStackHighWaterMark
	.section	.text.xTaskGetCurrentTaskHandle,"ax",@progbits
	.align	1
	.globl	xTaskGetCurrentTaskHandle
	.type	xTaskGetCurrentTaskHandle, @function
xTaskGetCurrentTaskHandle:
.LFB53:
	.loc 1 3985 2 is_stmt 1
	.cfi_startproc
	.loc 1 3986 2
	.loc 1 3991 3
	.loc 1 3991 11 is_stmt 0
	lui	a5,%hi(.LANCHOR3)
	lw	a0,%lo(.LANCHOR3)(a5)
.LVL492:
	.loc 1 3993 3 is_stmt 1
	.loc 1 3994 2 is_stmt 0
	ret
	.cfi_endproc
.LFE53:
	.size	xTaskGetCurrentTaskHandle, .-xTaskGetCurrentTaskHandle
	.section	.text.xTaskGetSchedulerState,"ax",@progbits
	.align	1
	.globl	xTaskGetSchedulerState
	.type	xTaskGetSchedulerState, @function
xTaskGetSchedulerState:
.LFB54:
	.loc 1 4002 2 is_stmt 1
	.cfi_startproc
	.loc 1 4003 2
	.loc 1 4005 3
	.loc 1 4005 25 is_stmt 0
	lui	a5,%hi(.LANCHOR7)
	lw	a5,%lo(.LANCHOR7)(a5)
	.loc 1 4007 12
	li	a0,1
	.loc 1 4005 5
	beq	a5,zero,.L633
	.loc 1 4011 4 is_stmt 1
	.loc 1 4011 29 is_stmt 0
	lui	a5,%hi(.LANCHOR16)
	lw	a0,%lo(.LANCHOR16)(a5)
	.loc 1 4017 13
	seqz	a0,a0
	slli	a0,a0,1
.L633:
	.loc 1 4022 2
	ret
	.cfi_endproc
.LFE54:
	.size	xTaskGetSchedulerState, .-xTaskGetSchedulerState
	.section	.text.xTaskPriorityInherit,"ax",@progbits
	.align	1
	.globl	xTaskPriorityInherit
	.type	xTaskPriorityInherit, @function
xTaskPriorityInherit:
.LFB55:
	.loc 1 4030 2 is_stmt 1
	.cfi_startproc
.LVL493:
	.loc 1 4031 2
	.loc 1 4032 2
	.loc 1 4037 3
	.loc 1 4037 5 is_stmt 0
	beq	a0,zero,.L644
	.loc 1 4030 2
	addi	sp,sp,-32
	.cfi_def_cfa_offset 32
	sw	s1,20(sp)
	.cfi_offset 9, -12
	.loc 1 4042 51
	lui	s1,%hi(.LANCHOR3)
	addi	s1,s1,%lo(.LANCHOR3)
	lw	a4,0(s1)
	.loc 1 4030 2
	sw	s0,24(sp)
	sw	ra,28(sp)
	sw	s2,16(sp)
	sw	s3,12(sp)
	.cfi_offset 8, -8
	.cfi_offset 1, -4
	.cfi_offset 18, -16
	.cfi_offset 19, -20
	.loc 1 4042 24
	lw	a3,44(a0)
	.loc 1 4042 6
	lw	a4,44(a4)
	mv	s0,a0
	.loc 1 4042 4 is_stmt 1
	.loc 1 4042 6 is_stmt 0
	bgeu	a3,a4,.L640
	.loc 1 4047 5 is_stmt 1
	.loc 1 4047 7 is_stmt 0
	lw	a4,24(a0)
	blt	a4,zero,.L641
	.loc 1 4049 6 is_stmt 1
	.loc 1 4049 117 is_stmt 0
	lw	a4,0(s1)
	.loc 1 4049 88
	lw	a2,44(a4)
	li	a4,32
	sub	a4,a4,a2
	.loc 1 4049 62
	sw	a4,24(a0)
.L641:
	.loc 1 4053 6 is_stmt 1
	.loc 1 4058 5
	.loc 1 4058 73 is_stmt 0
	slli	a4,a3,2
	add	a4,a4,a3
	lui	s2,%hi(.LANCHOR9)
	.loc 1 4058 7
	lw	a3,20(s0)
	.loc 1 4058 73
	addi	s2,s2,%lo(.LANCHOR9)
	slli	a4,a4,2
	add	a4,s2,a4
	.loc 1 4058 7
	beq	a3,a4,.L653
	.loc 1 4076 6 is_stmt 1
	.loc 1 4076 49 is_stmt 0
	lw	a4,0(s1)
	.loc 1 4082 13
	li	a0,1
.LVL494:
	.loc 1 4076 49
	lw	a4,44(a4)
	.loc 1 4076 35
	sw	a4,44(s0)
	.loc 1 4109 2
	lw	ra,28(sp)
	.cfi_remember_state
	.cfi_restore 1
	lw	s0,24(sp)
	.cfi_restore 8
.LVL495:
	lw	s1,20(sp)
	.cfi_restore 9
	lw	s2,16(sp)
	.cfi_restore 18
	lw	s3,12(sp)
	.cfi_restore 19
	addi	sp,sp,32
	.cfi_def_cfa_offset 0
	jr	ra
.LVL496:
.L640:
	.cfi_restore_state
	.loc 1 4086 5 is_stmt 1
	.loc 1 4086 56 is_stmt 0
	lw	a4,0(s1)
	.loc 1 4086 7
	lw	a0,80(a0)
	lw	a5,44(a4)
	sltu	a0,a0,a5
.L638:
	.loc 1 4109 2
	lw	ra,28(sp)
	.cfi_restore 1
	lw	s0,24(sp)
	.cfi_restore 8
.LVL497:
	lw	s1,20(sp)
	.cfi_restore 9
	lw	s2,16(sp)
	.cfi_restore 18
	lw	s3,12(sp)
	.cfi_restore 19
	addi	sp,sp,32
	.cfi_def_cfa_offset 0
	jr	ra
.LVL498:
.L644:
	.loc 1 4032 13
	li	a0,0
.LVL499:
	.loc 1 4105 4 is_stmt 1
	.loc 1 4108 3
	.loc 1 4109 2 is_stmt 0
	ret
.LVL500:
.L653:
	.cfi_def_cfa_offset 32
	.cfi_offset 1, -4
	.cfi_offset 8, -8
	.cfi_offset 9, -12
	.cfi_offset 18, -16
	.cfi_offset 19, -20
	.loc 1 4060 6 is_stmt 1
	.loc 1 4060 10 is_stmt 0
	addi	s3,s0,4
	mv	a0,s3
	call	uxListRemove
.LVL501:
	.loc 1 4060 8
	bne	a0,zero,.L654
	.loc 1 4062 9 is_stmt 1
	.loc 1 4062 57 is_stmt 0
	lw	a3,44(s0)
	.loc 1 4062 149
	lui	a4,%hi(.LANCHOR4)
	addi	a4,a4,%lo(.LANCHOR4)
	.loc 1 4062 77
	slli	a5,a3,2
	add	a5,a5,a3
	slli	a5,a5,2
	add	a5,s2,a5
	lw	a5,0(a5)
	.loc 1 4062 11
	bne	a5,zero,.L643
	.loc 1 4062 122 is_stmt 1 discriminator 1
	.loc 1 4062 149 is_stmt 0 discriminator 1
	lw	a2,0(a4)
	.loc 1 4062 159 discriminator 1
	li	a5,1
	sll	a5,a5,a3
	.loc 1 4062 152 discriminator 1
	not	a5,a5
	.loc 1 4062 149 discriminator 1
	and	a5,a5,a2
	sw	a5,0(a4)
	j	.L643
.L654:
	lui	a4,%hi(.LANCHOR4)
	addi	a4,a4,%lo(.LANCHOR4)
.L643:
	.loc 1 4066 7 is_stmt 1
	.loc 1 4070 6
	.loc 1 4070 49 is_stmt 0
	lw	a5,0(s1)
	.loc 1 4071 31
	lw	a2,0(a4)
	.loc 1 4071 83
	mv	a1,s3
	.loc 1 4070 49
	lw	a3,44(a5)
	.loc 1 4071 40
	li	a5,1
	.loc 1 4071 83
	slli	a0,a3,2
	add	a0,a0,a3
	.loc 1 4071 40
	sll	a5,a5,a3
	.loc 1 4071 83
	slli	a0,a0,2
	.loc 1 4071 31
	or	a5,a5,a2
	.loc 1 4071 83
	add	a0,s2,a0
	.loc 1 4070 35
	sw	a3,44(s0)
	.loc 1 4071 6 is_stmt 1
	.loc 1 4071 8
	.loc 1 4071 31 is_stmt 0
	sw	a5,0(a4)
	.loc 1 4071 83 is_stmt 1
	call	vListInsertEnd
.LVL502:
	.loc 1 4071 204
	.loc 1 4082 13 is_stmt 0
	li	a0,1
	j	.L638
	.cfi_endproc
.LFE55:
	.size	xTaskPriorityInherit, .-xTaskPriorityInherit
	.section	.text.xTaskPriorityDisinherit,"ax",@progbits
	.align	1
	.globl	xTaskPriorityDisinherit
	.type	xTaskPriorityDisinherit, @function
xTaskPriorityDisinherit:
.LFB56:
	.loc 1 4117 2 is_stmt 1
	.cfi_startproc
.LVL503:
	.loc 1 4118 2
	.loc 1 4119 2
	.loc 1 4121 3
	.loc 1 4121 5 is_stmt 0
	beq	a0,zero,.L669
	.loc 1 4127 34
	lui	a5,%hi(.LANCHOR3)
	lw	a5,%lo(.LANCHOR3)(a5)
	.loc 1 4117 2
	addi	sp,sp,-16
	.cfi_def_cfa_offset 16
	sw	s0,8(sp)
	sw	ra,12(sp)
	sw	s1,4(sp)
	.cfi_offset 8, -8
	.cfi_offset 1, -4
	.cfi_offset 9, -12
	mv	s0,a0
	.loc 1 4127 4 is_stmt 1
	.loc 1 4127 6 is_stmt 0
	beq	a5,a0,.L658
	.loc 1 4127 41 is_stmt 1 discriminator 1
	call	vAssertCalled
.LVL504:
.L658:
	.loc 1 4128 4
	.loc 1 4128 15 is_stmt 0
	lw	a5,84(s0)
	.loc 1 4128 6
	beq	a5,zero,.L670
	.loc 1 4129 4 is_stmt 1
	.loc 1 4133 6 is_stmt 0
	lw	a3,44(s0)
	lw	a4,80(s0)
	.loc 1 4129 28
	addi	a5,a5,-1
	sw	a5,84(s0)
	.loc 1 4133 4 is_stmt 1
	.loc 1 4133 6 is_stmt 0
	beq	a3,a4,.L660
.L672:
	.loc 1 4136 5 is_stmt 1
	.loc 1 4136 7 is_stmt 0
	beq	a5,zero,.L671
.L660:
	.loc 1 4189 2
	lw	ra,12(sp)
	.cfi_remember_state
	.cfi_restore 1
	lw	s0,8(sp)
	.cfi_restore 8
.LVL505:
	lw	s1,4(sp)
	.cfi_restore 9
	.loc 1 4119 13
	li	a0,0
	.loc 1 4189 2
	addi	sp,sp,16
	.cfi_def_cfa_offset 0
	jr	ra
.LVL506:
.L670:
	.cfi_restore_state
	.loc 1 4128 40 is_stmt 1 discriminator 1
	call	vAssertCalled
.LVL507:
	lw	a5,84(s0)
	.loc 1 4129 4 discriminator 1
	.loc 1 4133 6 is_stmt 0 discriminator 1
	lw	a3,44(s0)
	lw	a4,80(s0)
	.loc 1 4129 28 discriminator 1
	addi	a5,a5,-1
	sw	a5,84(s0)
	.loc 1 4133 4 is_stmt 1 discriminator 1
	.loc 1 4133 6 is_stmt 0 discriminator 1
	bne	a3,a4,.L672
	j	.L660
.LVL508:
.L669:
	.cfi_def_cfa_offset 0
	.cfi_restore 1
	.cfi_restore 8
	.cfi_restore 9
	.loc 1 4119 13
	li	a0,0
.LVL509:
	.loc 1 4189 2
	ret
.LVL510:
.L671:
	.cfi_def_cfa_offset 16
	.cfi_offset 1, -4
	.cfi_offset 8, -8
	.cfi_offset 9, -12
	.loc 1 4143 6 is_stmt 1
	.loc 1 4143 10 is_stmt 0
	addi	s1,s0,4
	mv	a0,s1
	call	uxListRemove
.LVL511:
	.loc 1 4143 8
	beq	a0,zero,.L664
	lui	a0,%hi(.LANCHOR9)
	lui	a2,%hi(.LANCHOR4)
	addi	a0,a0,%lo(.LANCHOR9)
	addi	a2,a2,%lo(.LANCHOR4)
.L661:
	.loc 1 4149 7 is_stmt 1
	.loc 1 4154 6
	.loc 1 4155 6
	.loc 1 4155 31 is_stmt 0
	lw	a3,80(s0)
	.loc 1 4161 31
	lw	a1,0(a2)
	.loc 1 4160 77
	li	a6,32
	.loc 1 4161 72
	slli	a4,a3,2
	add	a4,a4,a3
	.loc 1 4161 40
	li	a5,1
	.loc 1 4160 77
	sub	a6,a6,a3
	.loc 1 4161 40
	sll	a5,a5,a3
	.loc 1 4161 72
	slli	a4,a4,2
	.loc 1 4161 31
	or	a5,a5,a1
	.loc 1 4155 24
	sw	a3,44(s0)
	.loc 1 4160 6 is_stmt 1
	.loc 1 4160 51 is_stmt 0
	sw	a6,24(s0)
	.loc 1 4161 6 is_stmt 1
	.loc 1 4161 8
	.loc 1 4161 72 is_stmt 0
	mv	a1,s1
	add	a0,a0,a4
	.loc 1 4161 31
	sw	a5,0(a2)
	.loc 1 4161 72 is_stmt 1
	call	vListInsertEnd
.LVL512:
	.loc 1 4161 171
	.loc 1 4171 6
	.loc 1 4189 2 is_stmt 0
	lw	ra,12(sp)
	.cfi_remember_state
	.cfi_restore 1
	lw	s0,8(sp)
	.cfi_restore 8
.LVL513:
	lw	s1,4(sp)
	.cfi_restore 9
.LVL514:
	.loc 1 4171 14
	li	a0,1
	.loc 1 4185 4 is_stmt 1
	.loc 1 4188 3
	.loc 1 4189 2 is_stmt 0
	addi	sp,sp,16
	.cfi_def_cfa_offset 0
	jr	ra
.LVL515:
.L664:
	.cfi_restore_state
	.loc 1 4145 9 is_stmt 1
	.loc 1 4145 46 is_stmt 0
	lw	a4,44(s0)
	.loc 1 4145 66
	lui	a0,%hi(.LANCHOR9)
	addi	a0,a0,%lo(.LANCHOR9)
	slli	a5,a4,2
	add	a5,a5,a4
	slli	a5,a5,2
	add	a5,a0,a5
	lw	a5,0(a5)
	.loc 1 4145 138
	lui	a2,%hi(.LANCHOR4)
	addi	a2,a2,%lo(.LANCHOR4)
	.loc 1 4145 11
	bne	a5,zero,.L661
	.loc 1 4145 111 is_stmt 1 discriminator 1
	.loc 1 4145 138 is_stmt 0 discriminator 1
	lw	a3,0(a2)
	.loc 1 4145 148 discriminator 1
	li	a5,1
	sll	a5,a5,a4
	.loc 1 4145 141 discriminator 1
	not	a5,a5
	.loc 1 4145 138 discriminator 1
	and	a5,a5,a3
	sw	a5,0(a2)
	j	.L661
	.cfi_endproc
.LFE56:
	.size	xTaskPriorityDisinherit, .-xTaskPriorityDisinherit
	.section	.text.vTaskPriorityDisinheritAfterTimeout,"ax",@progbits
	.align	1
	.globl	vTaskPriorityDisinheritAfterTimeout
	.type	vTaskPriorityDisinheritAfterTimeout, @function
vTaskPriorityDisinheritAfterTimeout:
.LFB57:
	.loc 1 4197 2 is_stmt 1
	.cfi_startproc
.LVL516:
	.loc 1 4198 2
	.loc 1 4199 2
	.loc 1 4200 2
	.loc 1 4202 3
	.loc 1 4202 5 is_stmt 0
	beq	a0,zero,.L686
	.loc 1 4197 2
	addi	sp,sp,-16
	.cfi_def_cfa_offset 16
	sw	s0,8(sp)
	sw	s1,4(sp)
	sw	ra,12(sp)
	sw	s2,0(sp)
	.cfi_offset 8, -8
	.cfi_offset 9, -12
	.cfi_offset 1, -4
	.cfi_offset 18, -16
	.loc 1 4206 6
	lw	a5,84(a0)
	mv	s1,a1
	mv	s0,a0
	.loc 1 4206 4 is_stmt 1
	.loc 1 4206 6 is_stmt 0
	beq	a5,zero,.L689
	.loc 1 4212 4 is_stmt 1
	lw	s2,80(s0)
	bltu	s2,s1,.L690
.LVL517:
.L677:
	.loc 1 4222 4
	.loc 1 4222 13 is_stmt 0
	lw	a5,44(s0)
	.loc 1 4222 6
	beq	a5,s2,.L673
.L692:
	.loc 1 4228 5 is_stmt 1
	.loc 1 4228 7 is_stmt 0
	lw	a3,84(s0)
	li	a4,1
	beq	a3,a4,.L691
.LVL518:
.L673:
	.loc 1 4291 2
	lw	ra,12(sp)
	.cfi_remember_state
	.cfi_restore 1
	lw	s0,8(sp)
	.cfi_restore 8
.LVL519:
	lw	s1,4(sp)
	.cfi_restore 9
	lw	s2,0(sp)
	.cfi_restore 18
	addi	sp,sp,16
	.cfi_def_cfa_offset 0
	jr	ra
.LVL520:
.L690:
	.cfi_restore_state
	.loc 1 4222 13
	lw	a5,44(s0)
	mv	s2,s1
.LVL521:
	.loc 1 4222 4 is_stmt 1
	.loc 1 4222 6 is_stmt 0
	bne	a5,s2,.L692
.LVL522:
	j	.L673
.LVL523:
.L689:
	.loc 1 4206 40 is_stmt 1 discriminator 1
	call	vAssertCalled
.LVL524:
	.loc 1 4212 4 discriminator 1
	lw	s2,80(s0)
	bgeu	s2,s1,.L677
	j	.L690
.LVL525:
.L686:
	.cfi_def_cfa_offset 0
	.cfi_restore 1
	.cfi_restore 8
	.cfi_restore 9
	.cfi_restore 18
	ret
.LVL526:
.L691:
	.cfi_def_cfa_offset 16
	.cfi_offset 1, -4
	.cfi_offset 8, -8
	.cfi_offset 9, -12
	.cfi_offset 18, -16
	.loc 1 4233 6
	.loc 1 4233 36 is_stmt 0
	lui	a4,%hi(.LANCHOR3)
	lw	a4,%lo(.LANCHOR3)(a4)
	.loc 1 4233 8
	beq	a4,s0,.L693
.L679:
	.loc 1 4238 6 is_stmt 1
	.loc 1 4239 6
.LVL527:
	.loc 1 4240 6
	.loc 1 4244 8 is_stmt 0
	lw	a4,24(s0)
	.loc 1 4240 24
	sw	s2,44(s0)
.LVL528:
	.loc 1 4244 6 is_stmt 1
	.loc 1 4244 8 is_stmt 0
	blt	a4,zero,.L680
	.loc 1 4246 7 is_stmt 1
	.loc 1 4246 78 is_stmt 0
	li	a4,32
	sub	s2,a4,s2
.LVL529:
	.loc 1 4246 52
	sw	s2,24(s0)
.L680:
	.loc 1 4250 7 is_stmt 1
	.loc 1 4259 6
	.loc 1 4259 63 is_stmt 0
	slli	a4,a5,2
	add	a5,a4,a5
	lui	s1,%hi(.LANCHOR9)
.LVL530:
	.loc 1 4259 8
	lw	a4,20(s0)
	.loc 1 4259 63
	addi	s1,s1,%lo(.LANCHOR9)
	slli	a5,a5,2
	add	a5,s1,a5
	.loc 1 4259 8
	bne	a4,a5,.L673
	.loc 1 4261 7 is_stmt 1
	.loc 1 4261 11 is_stmt 0
	addi	s2,s0,4
	mv	a0,s2
	call	uxListRemove
.LVL531:
	.loc 1 4261 9
	beq	a0,zero,.L681
	lw	a0,44(s0)
	li	a3,1
	lui	a4,%hi(.LANCHOR4)
	sll	a3,a3,a0
	slli	a5,a0,2
	addi	a4,a4,%lo(.LANCHOR4)
.L682:
	.loc 1 4267 8 is_stmt 1
	.loc 1 4270 7
	.loc 1 4270 9
	.loc 1 4270 32 is_stmt 0
	lw	a2,0(a4)
	.loc 1 4270 73
	add	a5,a5,a0
	slli	a0,a5,2
	.loc 1 4270 32
	or	a3,a2,a3
	sw	a3,0(a4)
	.loc 1 4270 73 is_stmt 1
	.loc 1 4291 2 is_stmt 0
	lw	s0,8(sp)
	.cfi_remember_state
	.cfi_restore 8
.LVL532:
	lw	ra,12(sp)
	.cfi_restore 1
	.loc 1 4270 73
	mv	a1,s2
	add	a0,s1,a0
	.loc 1 4291 2
	lw	s2,0(sp)
	.cfi_restore 18
.LVL533:
	lw	s1,4(sp)
	.cfi_restore 9
	addi	sp,sp,16
	.cfi_def_cfa_offset 0
	.loc 1 4270 73
	tail	vListInsertEnd
.LVL534:
.L693:
	.cfi_restore_state
	.loc 1 4233 43 is_stmt 1 discriminator 1
	call	vAssertCalled
.LVL535:
	lw	a5,44(s0)
	j	.L679
.LVL536:
.L681:
	.loc 1 4263 10
	.loc 1 4263 47 is_stmt 0
	lw	a0,44(s0)
	li	a3,1
	.loc 1 4263 67
	slli	a5,a0,2
	add	a4,a5,a0
	slli	a4,a4,2
	add	a4,s1,a4
	lw	a4,0(a4)
	sll	a3,a3,a0
	.loc 1 4263 12
	beq	a4,zero,.L684
	lui	a4,%hi(.LANCHOR4)
	addi	a4,a4,%lo(.LANCHOR4)
	j	.L682
.L684:
	.loc 1 4263 112 is_stmt 1 discriminator 1
	.loc 1 4263 139 is_stmt 0 discriminator 1
	lui	a4,%hi(.LANCHOR4)
	addi	a4,a4,%lo(.LANCHOR4)
	lw	a1,0(a4)
	.loc 1 4263 142 discriminator 1
	not	a2,a3
	.loc 1 4263 139 discriminator 1
	and	a2,a2,a1
	sw	a2,0(a4)
	j	.L682
	.cfi_endproc
.LFE57:
	.size	vTaskPriorityDisinheritAfterTimeout, .-vTaskPriorityDisinheritAfterTimeout
	.section	.text.vTaskEnterCritical,"ax",@progbits
	.align	1
	.globl	vTaskEnterCritical
	.type	vTaskEnterCritical, @function
vTaskEnterCritical:
.LFB58:
	.loc 1 4299 2 is_stmt 1
	.cfi_startproc
	.loc 1 4300 3
 #APP
# 4300 "/b-l/bl_iot_sdk/components/bl602/freertos_riscv_ram/tasks.c" 1
	csrc mstatus, 8
# 0 "" 2
	.loc 1 4302 3
	.loc 1 4302 25 is_stmt 0
 #NO_APP
	lui	a5,%hi(.LANCHOR7)
	lw	a5,%lo(.LANCHOR7)(a5)
	.loc 1 4302 5
	beq	a5,zero,.L694
	tail	vTaskEnterCritical.part.7
.LVL537:
.L694:
	.loc 1 4321 2
	ret
	.cfi_endproc
.LFE58:
	.size	vTaskEnterCritical, .-vTaskEnterCritical
	.section	.text.vTaskExitCritical,"ax",@progbits
	.align	1
	.globl	vTaskExitCritical
	.type	vTaskExitCritical, @function
vTaskExitCritical:
.LFB59:
	.loc 1 4329 2 is_stmt 1
	.cfi_startproc
	.loc 1 4330 3
	.loc 1 4330 25 is_stmt 0
	lui	a5,%hi(.LANCHOR7)
	lw	a5,%lo(.LANCHOR7)(a5)
	.loc 1 4330 5
	beq	a5,zero,.L696
	.loc 1 4332 4 is_stmt 1
	.loc 1 4332 20 is_stmt 0
	lui	a5,%hi(.LANCHOR3)
	lw	a5,%lo(.LANCHOR3)(a5)
	.loc 1 4332 6
	lw	a5,68(a5)
	beq	a5,zero,.L696
	tail	vTaskExitCritical.part.8
.LVL538:
.L696:
	.loc 1 4354 2
	ret
	.cfi_endproc
.LFE59:
	.size	vTaskExitCritical, .-vTaskExitCritical
	.section	.text.vTaskList,"ax",@progbits
	.align	1
	.globl	vTaskList
	.type	vTaskList, @function
vTaskList:
.LFB61:
	.loc 1 4388 2 is_stmt 1
	.cfi_startproc
.LVL539:
	.loc 1 4389 2
	.loc 1 4390 2
	.loc 1 4391 2
	.loc 1 4419 3
	.loc 1 4388 2 is_stmt 0
	addi	sp,sp,-48
	.cfi_def_cfa_offset 48
	.loc 1 4423 15
	lui	a5,%hi(.LANCHOR8)
	.loc 1 4388 2
	sw	s0,40(sp)
	sw	ra,44(sp)
	sw	s1,36(sp)
	sw	s2,32(sp)
	sw	s3,28(sp)
	sw	s4,24(sp)
	sw	s5,20(sp)
	sw	s6,16(sp)
	sw	s7,12(sp)
	sw	s8,8(sp)
	sw	s9,4(sp)
	.cfi_offset 8, -8
	.cfi_offset 1, -4
	.cfi_offset 9, -12
	.cfi_offset 18, -16
	.cfi_offset 19, -20
	.cfi_offset 20, -24
	.cfi_offset 21, -28
	.cfi_offset 22, -32
	.cfi_offset 23, -36
	.cfi_offset 24, -40
	.cfi_offset 25, -44
	.loc 1 4423 15
	addi	a5,a5,%lo(.LANCHOR8)
	lw	s1,0(a5)
	.loc 1 4428 23
	lw	a5,0(a5)
	.loc 1 4388 2
	mv	s0,a0
	.loc 1 4419 18
	sb	zero,0(a0)
	.loc 1 4423 3 is_stmt 1
.LVL540:
	.loc 1 4428 3
	.loc 1 4428 60 is_stmt 0
	slli	a0,a5,3
.LVL541:
	add	a0,a0,a5
	.loc 1 4428 23
	slli	a0,a0,2
	call	pvPortMalloc
.LVL542:
	.loc 1 4430 3 is_stmt 1
	.loc 1 4430 5 is_stmt 0
	beq	a0,zero,.L704
	.loc 1 4433 18
	li	a2,0
	mv	a1,s1
	mv	s8,a0
	.loc 1 4433 4 is_stmt 1
	.loc 1 4433 18 is_stmt 0
	call	uxTaskGetSystemState
.LVL543:
	.loc 1 4436 4 is_stmt 1
	beq	a0,zero,.L711
	slli	s2,a0,3
	add	s2,s2,a0
	slli	s2,s2,2
	lui	s7,%hi(.LANCHOR20)
	mv	s1,s8
	add	s2,s2,s8
	lui	s6,%hi(.LC1)
	li	s5,4
	addi	s7,s7,%lo(.LANCHOR20)
.LBB421:
.LBB422:
	.loc 1 4370 3 is_stmt 0
	li	s4,14
	.loc 1 4372 18
	li	s3,32
.LVL544:
.L710:
.LBE422:
.LBE421:
	.loc 1 4438 5 is_stmt 1
	.loc 1 4438 35 is_stmt 0
	lbu	a5,12(s1)
	li	s9,0
	bgtu	a5,s5,.L707
	add	a5,s7,a5
	lbu	s9,0(a5)
.L707:
	.loc 1 4464 5 is_stmt 1 discriminator 2
.LVL545:
.LBB424:
.LBB423:
	.loc 1 4363 2 discriminator 2
	.loc 1 4366 3 discriminator 2
	lw	a1,4(s1)
	mv	a0,s0
	call	strcpy
.LVL546:
	.loc 1 4370 3 discriminator 2
	.loc 1 4370 12 is_stmt 0 discriminator 2
	mv	a0,s0
	call	strlen
.LVL547:
	.loc 1 4370 3 discriminator 2
	bgtu	a0,s4,.L708
	add	a0,s0,a0
.LVL548:
	addi	a5,s0,15
.L709:
.LVL549:
	.loc 1 4372 4 is_stmt 1
	.loc 1 4372 18 is_stmt 0
	sb	s3,0(a0)
.LVL550:
	addi	a0,a0,1
.LVL551:
	.loc 1 4370 3
	bne	a5,a0,.L709
	.loc 1 4370 64
	li	a0,15
.LVL552:
.L708:
	.loc 1 4376 3 is_stmt 1
	.loc 1 4376 11 is_stmt 0
	add	s0,s0,a0
.LVL553:
	.loc 1 4376 17
	sb	zero,0(s0)
	.loc 1 4379 3 is_stmt 1
.LVL554:
.LBE423:
.LBE424:
	.loc 1 4467 5
	lw	a6,28(s1)
	lw	a5,8(s1)
	lhu	a4,32(s1)
	lw	a3,16(s1)
	mv	a2,s9
	addi	a1,s6,%lo(.LC1)
	mv	a0,s0
	call	sprintf
.LVL555:
	.loc 1 4470 5
	.loc 1 4470 22 is_stmt 0
	mv	a0,s0
	call	strlen
.LVL556:
	addi	s1,s1,36
	.loc 1 4470 19
	add	s0,s0,a0
.LVL557:
	.loc 1 4436 4
	bne	s1,s2,.L710
.L711:
	.loc 1 4475 4 is_stmt 1
	.loc 1 4481 2 is_stmt 0
	lw	s0,40(sp)
	.cfi_remember_state
	.cfi_restore 8
.LVL558:
	lw	ra,44(sp)
	.cfi_restore 1
	lw	s1,36(sp)
	.cfi_restore 9
	lw	s2,32(sp)
	.cfi_restore 18
	lw	s3,28(sp)
	.cfi_restore 19
	lw	s4,24(sp)
	.cfi_restore 20
	lw	s5,20(sp)
	.cfi_restore 21
	lw	s6,16(sp)
	.cfi_restore 22
	lw	s7,12(sp)
	.cfi_restore 23
	lw	s9,4(sp)
	.cfi_restore 25
	.loc 1 4475 4
	mv	a0,s8
	.loc 1 4481 2
	lw	s8,8(sp)
	.cfi_restore 24
.LVL559:
	addi	sp,sp,48
	.cfi_def_cfa_offset 0
	.loc 1 4475 4
	tail	vPortFree
.LVL560:
.L704:
	.cfi_restore_state
	.loc 1 4481 2
	lw	ra,44(sp)
	.cfi_restore 1
	lw	s0,40(sp)
	.cfi_restore 8
.LVL561:
	lw	s1,36(sp)
	.cfi_restore 9
.LVL562:
	lw	s2,32(sp)
	.cfi_restore 18
	lw	s3,28(sp)
	.cfi_restore 19
	lw	s4,24(sp)
	.cfi_restore 20
	lw	s5,20(sp)
	.cfi_restore 21
	lw	s6,16(sp)
	.cfi_restore 22
	lw	s7,12(sp)
	.cfi_restore 23
	lw	s8,8(sp)
	.cfi_restore 24
	lw	s9,4(sp)
	.cfi_restore 25
	addi	sp,sp,48
	.cfi_def_cfa_offset 0
	jr	ra
	.cfi_endproc
.LFE61:
	.size	vTaskList, .-vTaskList
	.section	.text.uxTaskResetEventItemValue,"ax",@progbits
	.align	1
	.globl	uxTaskResetEventItemValue
	.type	uxTaskResetEventItemValue, @function
uxTaskResetEventItemValue:
.LFB62:
	.loc 1 4614 1 is_stmt 1
	.cfi_startproc
	.loc 1 4615 1
	.loc 1 4617 2
	.loc 1 4617 32 is_stmt 0
	lui	a5,%hi(.LANCHOR3)
	addi	a5,a5,%lo(.LANCHOR3)
	lw	a2,0(a5)
	.loc 1 4621 111
	lw	a3,0(a5)
	.loc 1 4621 21
	lw	a4,0(a5)
	.loc 1 4621 82
	li	a5,32
	lw	a3,44(a3)
	.loc 1 4617 11
	lw	a0,24(a2)
.LVL563:
	.loc 1 4621 2 is_stmt 1
	.loc 1 4621 82 is_stmt 0
	sub	a5,a5,a3
	.loc 1 4621 54
	sw	a5,24(a4)
	.loc 1 4623 2 is_stmt 1
	.loc 1 4624 1 is_stmt 0
	ret
	.cfi_endproc
.LFE62:
	.size	uxTaskResetEventItemValue, .-uxTaskResetEventItemValue
	.section	.text.pvTaskIncrementMutexHeldCount,"ax",@progbits
	.align	1
	.globl	pvTaskIncrementMutexHeldCount
	.type	pvTaskIncrementMutexHeldCount, @function
pvTaskIncrementMutexHeldCount:
.LFB63:
	.loc 1 4630 2 is_stmt 1
	.cfi_startproc
	.loc 1 4633 3
	.loc 1 4633 20 is_stmt 0
	lui	a5,%hi(.LANCHOR3)
	addi	a5,a5,%lo(.LANCHOR3)
	lw	a4,0(a5)
	.loc 1 4633 5
	beq	a4,zero,.L718
	.loc 1 4635 4 is_stmt 1
	.loc 1 4635 18 is_stmt 0
	lw	a3,0(a5)
	.loc 1 4635 35
	lw	a4,84(a3)
	addi	a4,a4,1
	sw	a4,84(a3)
.L718:
	.loc 1 4638 3 is_stmt 1
	.loc 1 4638 10 is_stmt 0
	lw	a0,0(a5)
	.loc 1 4639 2
	ret
	.cfi_endproc
.LFE63:
	.size	pvTaskIncrementMutexHeldCount, .-pvTaskIncrementMutexHeldCount
	.section	.text.ulTaskNotifyTake,"ax",@progbits
	.align	1
	.globl	ulTaskNotifyTake
	.type	ulTaskNotifyTake, @function
ulTaskNotifyTake:
.LFB64:
	.loc 1 4647 2 is_stmt 1
	.cfi_startproc
.LVL564:
	.loc 1 4648 2
	.loc 1 4650 3
.LBB425:
.LBB426:
	.loc 1 4300 3
.LBE426:
.LBE425:
	.loc 1 4647 2 is_stmt 0
	addi	sp,sp,-48
	.cfi_def_cfa_offset 48
	sw	s2,32(sp)
	sw	s3,28(sp)
	sw	ra,44(sp)
	sw	s0,40(sp)
	sw	s1,36(sp)
	.cfi_offset 18, -16
	.cfi_offset 19, -20
	.cfi_offset 1, -4
	.cfi_offset 8, -8
	.cfi_offset 9, -12
	.loc 1 4647 2
	mv	s2,a0
	mv	s3,a1
.LBB428:
.LBB427:
	.loc 1 4300 3
 #APP
# 4300 "/b-l/bl_iot_sdk/components/bl602/freertos_riscv_ram/tasks.c" 1
	csrc mstatus, 8
# 0 "" 2
	.loc 1 4302 3 is_stmt 1
	.loc 1 4302 25 is_stmt 0
 #NO_APP
	lui	s1,%hi(.LANCHOR7)
	addi	s1,s1,%lo(.LANCHOR7)
	lw	a5,0(s1)
	.loc 1 4302 5
	beq	a5,zero,.L723
	call	vTaskEnterCritical.part.7
.LVL565:
.L723:
	.loc 1 4319 4 is_stmt 1
.LBE427:
.LBE428:
	.loc 1 4653 4
	.loc 1 4653 20 is_stmt 0
	lui	s0,%hi(.LANCHOR3)
	addi	s0,s0,%lo(.LANCHOR3)
	lw	a5,0(s0)
	lw	a5,88(a5)
	.loc 1 4653 6
	bne	a5,zero,.L725
	.loc 1 4656 5 is_stmt 1
	.loc 1 4656 17 is_stmt 0
	lw	a5,0(s0)
	.loc 1 4656 33
	li	a4,1
	sb	a4,92(a5)
	.loc 1 4658 5 is_stmt 1
	.loc 1 4658 7 is_stmt 0
	bne	s3,zero,.L757
.L725:
	.loc 1 4676 5 is_stmt 1
	.loc 1 4679 3
.LBB429:
.LBB430:
	.loc 1 4330 3
	.loc 1 4330 25 is_stmt 0
	lw	a5,0(s1)
	.loc 1 4330 5
	beq	a5,zero,.L727
	.loc 1 4332 4 is_stmt 1
	.loc 1 4332 20 is_stmt 0
	lw	a5,0(s0)
	.loc 1 4332 6
	lw	a5,68(a5)
	bne	a5,zero,.L758
.L727:
	.loc 1 4352 4 is_stmt 1
.LBE430:
.LBE429:
	.loc 1 4681 3
.LBB432:
.LBB433:
	.loc 1 4300 3
 #APP
# 4300 "/b-l/bl_iot_sdk/components/bl602/freertos_riscv_ram/tasks.c" 1
	csrc mstatus, 8
# 0 "" 2
	.loc 1 4302 3
	.loc 1 4302 25 is_stmt 0
 #NO_APP
	lw	a5,0(s1)
	.loc 1 4302 5
	beq	a5,zero,.L728
	call	vTaskEnterCritical.part.7
.LVL566:
.L728:
	.loc 1 4319 4 is_stmt 1
.LBE433:
.LBE432:
	.loc 1 4683 4
	.loc 1 4684 4
	.loc 1 4684 27 is_stmt 0
	lw	a5,0(s0)
	.loc 1 4684 13
	lw	a0,88(a5)
.LVL567:
	.loc 1 4686 4 is_stmt 1
	.loc 1 4686 6 is_stmt 0
	beq	a0,zero,.L729
	.loc 1 4688 5 is_stmt 1
	.loc 1 4690 18 is_stmt 0
	lw	a5,0(s0)
	.loc 1 4688 7
	beq	s2,zero,.L730
	.loc 1 4690 6 is_stmt 1
	.loc 1 4690 36 is_stmt 0
	sw	zero,88(a5)
.L729:
	.loc 1 4699 5 is_stmt 1
	.loc 1 4702 4
	.loc 1 4702 16 is_stmt 0
	lw	a5,0(s0)
	.loc 1 4702 32
	sb	zero,92(a5)
	.loc 1 4704 3 is_stmt 1
.LBB434:
.LBB435:
	.loc 1 4330 3
	.loc 1 4330 25 is_stmt 0
	lw	a5,0(s1)
	.loc 1 4330 5
	beq	a5,zero,.L722
	.loc 1 4332 4 is_stmt 1
	.loc 1 4332 20 is_stmt 0
	lw	a5,0(s0)
	.loc 1 4332 6
	lw	a5,68(a5)
	beq	a5,zero,.L722
	sw	a0,12(sp)
	call	vTaskExitCritical.part.8
.LVL568:
	lw	a0,12(sp)
	.loc 1 4352 4 is_stmt 1
.LBE435:
.LBE434:
	.loc 1 4706 3
.LVL569:
.L722:
	.loc 1 4707 2 is_stmt 0
	lw	ra,44(sp)
	.cfi_remember_state
	.cfi_restore 1
	lw	s0,40(sp)
	.cfi_restore 8
	lw	s1,36(sp)
	.cfi_restore 9
	lw	s2,32(sp)
	.cfi_restore 18
.LVL570:
	lw	s3,28(sp)
	.cfi_restore 19
.LVL571:
	addi	sp,sp,48
	.cfi_def_cfa_offset 0
	jr	ra
.LVL572:
.L730:
	.cfi_restore_state
	.loc 1 4694 6 is_stmt 1
	.loc 1 4694 47 is_stmt 0
	addi	a4,a0,-1
	.loc 1 4694 36
	sw	a4,88(a5)
	j	.L729
.LVL573:
.L758:
.LBB436:
.LBB431:
	call	vTaskExitCritical.part.8
.LVL574:
	j	.L727
.L757:
.LBE431:
.LBE436:
	.loc 1 4660 6 is_stmt 1
	li	a1,1
	mv	a0,s3
	call	prvAddCurrentTaskToDelayedList
.LVL575:
	.loc 1 4661 6
	.loc 1 4667 6
 #APP
# 4667 "/b-l/bl_iot_sdk/components/bl602/freertos_riscv_ram/tasks.c" 1
	ecall
# 0 "" 2
	.loc 1 4667 32
 #NO_APP
	j	.L725
	.cfi_endproc
.LFE64:
	.size	ulTaskNotifyTake, .-ulTaskNotifyTake
	.section	.text.xTaskNotifyWait,"ax",@progbits
	.align	1
	.globl	xTaskNotifyWait
	.type	xTaskNotifyWait, @function
xTaskNotifyWait:
.LFB65:
	.loc 1 4715 2
	.cfi_startproc
.LVL576:
	.loc 1 4716 2
	.loc 1 4718 3
.LBB437:
.LBB438:
	.loc 1 4300 3
.LBE438:
.LBE437:
	.loc 1 4715 2 is_stmt 0
	addi	sp,sp,-48
	.cfi_def_cfa_offset 48
	sw	s1,36(sp)
	sw	s2,32(sp)
	sw	s4,24(sp)
	sw	s5,20(sp)
	sw	ra,44(sp)
	sw	s0,40(sp)
	sw	s3,28(sp)
	.cfi_offset 9, -12
	.cfi_offset 18, -16
	.cfi_offset 20, -24
	.cfi_offset 21, -28
	.cfi_offset 1, -4
	.cfi_offset 8, -8
	.cfi_offset 19, -20
	.loc 1 4715 2
	mv	s1,a0
	mv	s2,a1
	mv	s4,a2
	mv	s5,a3
.LBB440:
.LBB439:
	.loc 1 4300 3
 #APP
# 4300 "/b-l/bl_iot_sdk/components/bl602/freertos_riscv_ram/tasks.c" 1
	csrc mstatus, 8
# 0 "" 2
	.loc 1 4302 3 is_stmt 1
	.loc 1 4302 25 is_stmt 0
 #NO_APP
	lui	s3,%hi(.LANCHOR7)
	addi	s3,s3,%lo(.LANCHOR7)
	lw	a5,0(s3)
	.loc 1 4302 5
	beq	a5,zero,.L760
	call	vTaskEnterCritical.part.7
.LVL577:
.L760:
	.loc 1 4319 4 is_stmt 1
.LBE439:
.LBE440:
	.loc 1 4721 4
	.loc 1 4721 20 is_stmt 0
	lui	s0,%hi(.LANCHOR3)
	addi	s0,s0,%lo(.LANCHOR3)
	lw	a5,0(s0)
	.loc 1 4721 6
	li	a4,2
	.loc 1 4721 20
	lbu	a5,92(a5)
	.loc 1 4721 6
	beq	a4,a5,.L762
	.loc 1 4726 5 is_stmt 1
	.loc 1 4726 35 is_stmt 0
	lw	a5,0(s0)
	.loc 1 4726 38
	not	s1,s1
.LVL578:
	.loc 1 4729 33
	li	a4,1
	.loc 1 4726 35
	lw	a0,88(a5)
	and	s1,s1,a0
.LVL579:
	sw	s1,88(a5)
	.loc 1 4729 5 is_stmt 1
	.loc 1 4729 17 is_stmt 0
	lw	a5,0(s0)
	.loc 1 4729 33
	sb	a4,92(a5)
	.loc 1 4731 5 is_stmt 1
	.loc 1 4731 7 is_stmt 0
	bne	s5,zero,.L795
.L762:
	.loc 1 4749 5 is_stmt 1
	.loc 1 4752 3
.LBB441:
.LBB442:
	.loc 1 4330 3
	.loc 1 4330 25 is_stmt 0
	lw	a5,0(s3)
	.loc 1 4330 5
	beq	a5,zero,.L764
	.loc 1 4332 4 is_stmt 1
	.loc 1 4332 20 is_stmt 0
	lw	a5,0(s0)
	.loc 1 4332 6
	lw	a5,68(a5)
	bne	a5,zero,.L796
.L764:
	.loc 1 4352 4 is_stmt 1
.LBE442:
.LBE441:
	.loc 1 4754 3
.LBB444:
.LBB445:
	.loc 1 4300 3
 #APP
# 4300 "/b-l/bl_iot_sdk/components/bl602/freertos_riscv_ram/tasks.c" 1
	csrc mstatus, 8
# 0 "" 2
	.loc 1 4302 3
	.loc 1 4302 25 is_stmt 0
 #NO_APP
	lw	a5,0(s3)
	.loc 1 4302 5
	beq	a5,zero,.L765
	call	vTaskEnterCritical.part.7
.LVL580:
.L765:
	.loc 1 4319 4 is_stmt 1
.LBE445:
.LBE444:
	.loc 1 4756 4
	.loc 1 4758 4
	.loc 1 4758 6 is_stmt 0
	beq	s4,zero,.L766
	.loc 1 4762 5 is_stmt 1
	.loc 1 4762 41 is_stmt 0
	lw	a5,0(s0)
	lw	a5,88(a5)
	.loc 1 4762 27
	sw	a5,0(s4)
.L766:
	.loc 1 4769 4 is_stmt 1
	.loc 1 4769 20 is_stmt 0
	lw	a5,0(s0)
	.loc 1 4769 6
	li	a4,2
	.loc 1 4772 13
	li	a0,0
	.loc 1 4769 20
	lbu	a5,92(a5)
	.loc 1 4769 6
	bne	a4,a5,.L767
	.loc 1 4778 5 is_stmt 1
	.loc 1 4778 35 is_stmt 0
	lw	a5,0(s0)
	.loc 1 4778 38
	not	s2,s2
.LVL581:
	.loc 1 4779 13
	li	a0,1
	.loc 1 4778 35
	lw	a4,88(a5)
	and	s2,s2,a4
.LVL582:
	sw	s2,88(a5)
	.loc 1 4779 5 is_stmt 1
.LVL583:
.L767:
	.loc 1 4782 4
	.loc 1 4782 16 is_stmt 0
	lw	a5,0(s0)
	.loc 1 4782 32
	sb	zero,92(a5)
	.loc 1 4784 3 is_stmt 1
.LBB446:
.LBB447:
	.loc 1 4330 3
	.loc 1 4330 25 is_stmt 0
	lw	a5,0(s3)
	.loc 1 4330 5
	beq	a5,zero,.L759
	.loc 1 4332 4 is_stmt 1
	.loc 1 4332 20 is_stmt 0
	lw	a5,0(s0)
	.loc 1 4332 6
	lw	a5,68(a5)
	beq	a5,zero,.L759
	sw	a0,12(sp)
	call	vTaskExitCritical.part.8
.LVL584:
	lw	a0,12(sp)
	.loc 1 4352 4 is_stmt 1
.LBE447:
.LBE446:
	.loc 1 4786 3
.LVL585:
.L759:
	.loc 1 4787 2 is_stmt 0
	lw	ra,44(sp)
	.cfi_remember_state
	.cfi_restore 1
	lw	s0,40(sp)
	.cfi_restore 8
	lw	s1,36(sp)
	.cfi_restore 9
	lw	s2,32(sp)
	.cfi_restore 18
	lw	s3,28(sp)
	.cfi_restore 19
	lw	s4,24(sp)
	.cfi_restore 20
.LVL586:
	lw	s5,20(sp)
	.cfi_restore 21
.LVL587:
	addi	sp,sp,48
	.cfi_def_cfa_offset 0
	jr	ra
.LVL588:
.L796:
	.cfi_restore_state
.LBB448:
.LBB443:
	call	vTaskExitCritical.part.8
.LVL589:
	j	.L764
.L795:
.LBE443:
.LBE448:
	.loc 1 4733 6 is_stmt 1
	li	a1,1
	mv	a0,s5
	call	prvAddCurrentTaskToDelayedList
.LVL590:
	.loc 1 4734 6
	.loc 1 4740 6
 #APP
# 4740 "/b-l/bl_iot_sdk/components/bl602/freertos_riscv_ram/tasks.c" 1
	ecall
# 0 "" 2
	.loc 1 4740 32
 #NO_APP
	j	.L762
	.cfi_endproc
.LFE65:
	.size	xTaskNotifyWait, .-xTaskNotifyWait
	.section	.text.xTaskGenericNotify,"ax",@progbits
	.align	1
	.globl	xTaskGenericNotify
	.type	xTaskGenericNotify, @function
xTaskGenericNotify:
.LFB66:
	.loc 1 4795 2
	.cfi_startproc
.LVL591:
	.loc 1 4796 2
	.loc 1 4797 2
	.loc 1 4798 2
	.loc 1 4800 3
	.loc 1 4795 2 is_stmt 0
	addi	sp,sp,-48
	.cfi_def_cfa_offset 48
	sw	s0,40(sp)
	sw	s1,36(sp)
	sw	s2,32(sp)
	sw	s4,24(sp)
	sw	ra,44(sp)
	sw	s3,28(sp)
	.cfi_offset 8, -8
	.cfi_offset 9, -12
	.cfi_offset 18, -16
	.cfi_offset 20, -24
	.cfi_offset 1, -4
	.cfi_offset 19, -20
	.loc 1 4795 2
	mv	s0,a0
	mv	s4,a1
	mv	s1,a2
	mv	s2,a3
	.loc 1 4800 5
	beq	a0,zero,.L832
.LVL592:
.L798:
	.loc 1 4801 3 is_stmt 1
	.loc 1 4803 3
.LBB449:
.LBB450:
	.loc 1 4300 3
 #APP
# 4300 "/b-l/bl_iot_sdk/components/bl602/freertos_riscv_ram/tasks.c" 1
	csrc mstatus, 8
# 0 "" 2
	.loc 1 4302 3
	.loc 1 4302 25 is_stmt 0
 #NO_APP
	lui	s3,%hi(.LANCHOR7)
	addi	s3,s3,%lo(.LANCHOR7)
	lw	a5,0(s3)
	.loc 1 4302 5
	bne	a5,zero,.L833
.L799:
	.loc 1 4319 4 is_stmt 1
.LBE450:
.LBE449:
	.loc 1 4805 4
	.loc 1 4805 6 is_stmt 0
	beq	s2,zero,.L800
	.loc 1 4807 5 is_stmt 1
	.loc 1 4807 42 is_stmt 0
	lw	a5,88(s0)
	.loc 1 4807 35
	sw	a5,0(s2)
.L800:
	.loc 1 4810 4 is_stmt 1
	.loc 1 4810 26 is_stmt 0
	lbu	s2,92(s0)
.LVL593:
	.loc 1 4812 25
	li	a5,2
	sb	a5,92(s0)
	.loc 1 4814 4
	li	a5,4
	.loc 1 4810 26
	andi	s2,s2,0xff
.LVL594:
	.loc 1 4812 4 is_stmt 1
	.loc 1 4814 4
	bgtu	s1,a5,.L801
	lui	a2,%hi(.L803)
	slli	s1,s1,2
	addi	a2,a2,%lo(.L803)
	add	s1,s1,a2
	lw	a5,0(s1)
	jr	a5
	.section	.rodata.xTaskGenericNotify,"a",@progbits
	.align	2
	.align	2
.L803:
	.word	.L807
	.word	.L806
	.word	.L805
	.word	.L830
	.word	.L802
	.section	.text.xTaskGenericNotify
.L801:
	.loc 1 4849 6
	.loc 1 4849 17 is_stmt 0
	lw	a4,88(s0)
	.loc 1 4849 8
	li	a5,-1
	beq	a4,a5,.L807
	.loc 1 4849 52 is_stmt 1 discriminator 1
	call	vAssertCalled
.LVL595:
.L807:
	.loc 1 4854 4
	.loc 1 4858 4
	.loc 1 4858 6 is_stmt 0
	li	a5,1
	beq	s2,a5,.L809
.LVL596:
.L831:
	.loc 1 4886 32 is_stmt 1
	li	a0,1
.L808:
	.loc 1 4895 5
	.loc 1 4898 3
.LBB452:
.LBB453:
	.loc 1 4330 3
	.loc 1 4330 25 is_stmt 0
	lw	a5,0(s3)
	.loc 1 4330 5
	beq	a5,zero,.L797
	.loc 1 4332 4 is_stmt 1
	.loc 1 4332 20 is_stmt 0
	lui	a5,%hi(.LANCHOR3)
	lw	a5,%lo(.LANCHOR3)(a5)
	.loc 1 4332 6
	lw	a5,68(a5)
	beq	a5,zero,.L797
	sw	a0,12(sp)
	call	vTaskExitCritical.part.8
.LVL597:
	lw	a0,12(sp)
	.loc 1 4352 4 is_stmt 1
.LBE453:
.LBE452:
	.loc 1 4900 3
.L797:
	.loc 1 4901 2 is_stmt 0
	lw	ra,44(sp)
	.cfi_remember_state
	.cfi_restore 1
	lw	s0,40(sp)
	.cfi_restore 8
.LVL598:
	lw	s1,36(sp)
	.cfi_restore 9
	lw	s2,32(sp)
	.cfi_restore 18
	lw	s3,28(sp)
	.cfi_restore 19
	lw	s4,24(sp)
	.cfi_restore 20
.LVL599:
	addi	sp,sp,48
	.cfi_def_cfa_offset 0
	jr	ra
.LVL600:
.L833:
	.cfi_restore_state
.LBB454:
.LBB451:
	call	vTaskEnterCritical.part.7
.LVL601:
	j	.L799
.LVL602:
.L809:
.LBE451:
.LBE454:
	.loc 1 4860 5 is_stmt 1
	.loc 1 4860 14 is_stmt 0
	addi	s1,s0,4
	mv	a0,s1
	call	uxListRemove
.LVL603:
	.loc 1 4861 5 is_stmt 1
	.loc 1 4861 7
	.loc 1 4861 53 is_stmt 0
	lw	a3,44(s0)
	.loc 1 4861 30
	lui	a4,%hi(.LANCHOR4)
	addi	a4,a4,%lo(.LANCHOR4)
	lw	a2,0(a4)
	.loc 1 4861 71
	slli	a5,a3,2
	add	a5,a5,a3
	lui	a0,%hi(.LANCHOR9)
	slli	a5,a5,2
	.loc 1 4861 39
	sll	s2,s2,a3
.LVL604:
	.loc 1 4861 71
	addi	a0,a0,%lo(.LANCHOR9)
	.loc 1 4861 30
	or	s2,s2,a2
	.loc 1 4861 71
	add	a0,a0,a5
	mv	a1,s1
	.loc 1 4861 30
	sw	s2,0(a4)
	.loc 1 4861 71 is_stmt 1
	call	vListInsertEnd
.LVL605:
	.loc 1 4861 170
	.loc 1 4864 5
	.loc 1 4864 7 is_stmt 0
	lw	a5,40(s0)
	beq	a5,zero,.L810
	.loc 1 4864 13 is_stmt 1 discriminator 1
	call	vAssertCalled
.LVL606:
.L810:
	.loc 1 4882 5
	.loc 1 4882 41 is_stmt 0
	lui	a5,%hi(.LANCHOR3)
	lw	a5,%lo(.LANCHOR3)(a5)
	.loc 1 4882 7
	lw	a4,44(s0)
	lw	a5,44(a5)
	bleu	a4,a5,.L831
	.loc 1 4886 6 is_stmt 1
 #APP
# 4886 "/b-l/bl_iot_sdk/components/bl602/freertos_riscv_ram/tasks.c" 1
	ecall
# 0 "" 2
 #NO_APP
	j	.L831
.LVL607:
.L802:
	.loc 1 4829 6
	.loc 1 4829 8 is_stmt 0
	li	a5,2
	.loc 1 4836 15
	li	a0,0
	.loc 1 4829 8
	beq	s2,a5,.L808
.L830:
	.loc 1 4831 7 is_stmt 1
	.loc 1 4831 30 is_stmt 0
	sw	s4,88(s0)
	.loc 1 4854 4 is_stmt 1
	.loc 1 4858 4
	.loc 1 4858 6 is_stmt 0
	li	a5,1
	bne	s2,a5,.L831
	j	.L809
.L805:
	.loc 1 4821 6 is_stmt 1
	.loc 1 4821 13 is_stmt 0
	lw	a5,88(s0)
	.loc 1 4821 32
	addi	a5,a5,1
	sw	a5,88(s0)
	.loc 1 4822 6 is_stmt 1
	.loc 1 4854 4
	.loc 1 4858 4
	.loc 1 4858 6 is_stmt 0
	li	a5,1
	bne	s2,a5,.L831
	j	.L809
.L806:
	.loc 1 4817 6 is_stmt 1
	.loc 1 4817 29 is_stmt 0
	lw	a1,88(s0)
	.loc 1 4858 6
	li	a5,1
	.loc 1 4817 29
	or	a1,a1,s4
	sw	a1,88(s0)
	.loc 1 4818 6 is_stmt 1
	.loc 1 4854 4
	.loc 1 4858 4
	.loc 1 4858 6 is_stmt 0
	bne	s2,a5,.L831
	j	.L809
.LVL608:
.L832:
	.loc 1 4800 32 is_stmt 1 discriminator 1
	call	vAssertCalled
.LVL609:
	j	.L798
	.cfi_endproc
.LFE66:
	.size	xTaskGenericNotify, .-xTaskGenericNotify
	.section	.text.xTaskGenericNotifyFromISR,"ax",@progbits
	.align	1
	.globl	xTaskGenericNotifyFromISR
	.type	xTaskGenericNotifyFromISR, @function
xTaskGenericNotifyFromISR:
.LFB67:
	.loc 1 4909 2
	.cfi_startproc
.LVL610:
	.loc 1 4910 2
	.loc 1 4911 2
	.loc 1 4912 2
	.loc 1 4913 2
	.loc 1 4915 3
	.loc 1 4909 2 is_stmt 0
	addi	sp,sp,-32
	.cfi_def_cfa_offset 32
	sw	s0,24(sp)
	sw	s2,16(sp)
	sw	ra,28(sp)
	sw	s1,20(sp)
	.cfi_offset 8, -8
	.cfi_offset 18, -16
	.cfi_offset 1, -4
	.cfi_offset 9, -12
	.loc 1 4909 2
	mv	s0,a0
	mv	s2,a4
	.loc 1 4915 5
	beq	a0,zero,.L864
.LVL611:
.L835:
	.loc 1 4933 3 is_stmt 1
	.loc 1 4935 3
	.loc 1 4937 3
	.loc 1 4939 4
	.loc 1 4939 6 is_stmt 0
	beq	a3,zero,.L836
	.loc 1 4941 5 is_stmt 1
	.loc 1 4941 42 is_stmt 0
	lw	a5,88(s0)
	.loc 1 4941 35
	sw	a5,0(a3)
.L836:
	.loc 1 4944 4 is_stmt 1
	.loc 1 4944 26 is_stmt 0
	lbu	s1,92(s0)
	.loc 1 4945 25
	li	a5,2
	sb	a5,92(s0)
	.loc 1 4947 4
	li	a5,4
	.loc 1 4944 26
	andi	s1,s1,0xff
.LVL612:
	.loc 1 4945 4 is_stmt 1
	.loc 1 4947 4
	bgtu	a2,a5,.L837
	lui	a5,%hi(.L839)
	addi	a5,a5,%lo(.L839)
	slli	a2,a2,2
	add	a2,a2,a5
	lw	a5,0(a2)
	jr	a5
	.section	.rodata.xTaskGenericNotifyFromISR,"a",@progbits
	.align	2
	.align	2
.L839:
	.word	.L843
	.word	.L842
	.word	.L841
	.word	.L862
	.word	.L838
	.section	.text.xTaskGenericNotifyFromISR
.L837:
	.loc 1 4982 6
	.loc 1 4982 17 is_stmt 0
	lw	a4,88(s0)
	.loc 1 4982 8
	li	a5,-1
	beq	a4,a5,.L843
	.loc 1 4982 52 is_stmt 1 discriminator 1
	call	vAssertCalled
.LVL613:
.L843:
	.loc 1 4986 4
	.loc 1 4990 4
	.loc 1 4990 6 is_stmt 0
	li	a5,1
	beq	s1,a5,.L845
.LVL614:
.L863:
	li	a0,1
.L834:
	.loc 1 5030 2
	lw	ra,28(sp)
	.cfi_remember_state
	.cfi_restore 1
	lw	s0,24(sp)
	.cfi_restore 8
.LVL615:
	lw	s1,20(sp)
	.cfi_restore 9
	lw	s2,16(sp)
	.cfi_restore 18
.LVL616:
	addi	sp,sp,32
	.cfi_def_cfa_offset 0
	jr	ra
.LVL617:
.L845:
	.cfi_restore_state
	.loc 1 4993 5 is_stmt 1
	.loc 1 4993 7 is_stmt 0
	lw	a5,40(s0)
	beq	a5,zero,.L846
	.loc 1 4993 13 is_stmt 1 discriminator 1
	call	vAssertCalled
.LVL618:
.L846:
	.loc 1 4995 5
	.loc 1 4995 30 is_stmt 0
	lui	a5,%hi(.LANCHOR16)
	lw	a5,%lo(.LANCHOR16)(a5)
	.loc 1 4995 7
	beq	a5,zero,.L865
	.loc 1 5004 6 is_stmt 1
	lui	a0,%hi(.LANCHOR12)
	addi	a1,s0,24
	addi	a0,a0,%lo(.LANCHOR12)
	call	vListInsertEnd
.LVL619:
.L848:
	.loc 1 5007 5
	.loc 1 5007 41 is_stmt 0
	lui	a5,%hi(.LANCHOR3)
	lw	a5,%lo(.LANCHOR3)(a5)
	.loc 1 5007 7
	lw	a4,44(s0)
	lw	a5,44(a5)
	bleu	a4,a5,.L863
	.loc 1 5011 6 is_stmt 1
	.loc 1 5011 8 is_stmt 0
	beq	s2,zero,.L850
	.loc 1 5013 7 is_stmt 1
	.loc 1 5013 34 is_stmt 0
	li	a5,1
	sw	a5,0(s2)
.L850:
	.loc 1 5019 6 is_stmt 1
	.loc 1 5019 20 is_stmt 0
	lui	a5,%hi(.LANCHOR19)
	li	a4,1
	sw	a4,%lo(.LANCHOR19)(a5)
	j	.L863
.LVL620:
.L838:
	.loc 1 4962 6 is_stmt 1
	.loc 1 4962 8 is_stmt 0
	li	a5,2
	.loc 1 4969 15
	li	a0,0
	.loc 1 4962 8
	beq	s1,a5,.L834
.L862:
	.loc 1 4964 7 is_stmt 1
	.loc 1 4964 30 is_stmt 0
	sw	a1,88(s0)
	.loc 1 4986 4 is_stmt 1
	.loc 1 4990 4
	.loc 1 4990 6 is_stmt 0
	li	a5,1
	bne	s1,a5,.L863
	j	.L845
.LVL621:
.L864:
	sw	a3,12(sp)
	sw	a2,8(sp)
	sw	a1,4(sp)
	.loc 1 4915 32 is_stmt 1 discriminator 1
	call	vAssertCalled
.LVL622:
	lw	a3,12(sp)
	lw	a2,8(sp)
	lw	a1,4(sp)
	j	.L835
.LVL623:
.L865:
	.loc 1 4997 6
	.loc 1 4997 15 is_stmt 0
	addi	s1,s0,4
.LVL624:
	mv	a0,s1
	call	uxListRemove
.LVL625:
	.loc 1 4998 6 is_stmt 1
	.loc 1 4998 8
	.loc 1 4998 54 is_stmt 0
	lw	a2,44(s0)
	.loc 1 4998 31
	lui	a3,%hi(.LANCHOR4)
	addi	a3,a3,%lo(.LANCHOR4)
	lw	a1,0(a3)
	.loc 1 4998 72
	slli	a4,a2,2
	add	a4,a4,a2
	.loc 1 4998 40
	li	a5,1
	.loc 1 4998 72
	lui	a0,%hi(.LANCHOR9)
	.loc 1 4998 40
	sll	a5,a5,a2
	.loc 1 4998 72
	slli	a4,a4,2
	addi	a0,a0,%lo(.LANCHOR9)
	.loc 1 4998 31
	or	a5,a5,a1
	.loc 1 4998 72
	add	a0,a0,a4
	mv	a1,s1
	.loc 1 4998 31
	sw	a5,0(a3)
	.loc 1 4998 72 is_stmt 1
	call	vListInsertEnd
.LVL626:
	.loc 1 4998 171
	j	.L848
.LVL627:
.L841:
	.loc 1 4954 6
	.loc 1 4954 13 is_stmt 0
	lw	a5,88(s0)
	.loc 1 4954 32
	addi	a5,a5,1
	sw	a5,88(s0)
	.loc 1 4955 6 is_stmt 1
	.loc 1 4986 4
	.loc 1 4990 4
	.loc 1 4990 6 is_stmt 0
	li	a5,1
	bne	s1,a5,.L863
	j	.L845
.L842:
	.loc 1 4950 6 is_stmt 1
	.loc 1 4950 29 is_stmt 0
	lw	a5,88(s0)
	or	a1,a5,a1
	sw	a1,88(s0)
	.loc 1 4951 6 is_stmt 1
	.loc 1 4986 4
	.loc 1 4990 4
	.loc 1 4990 6 is_stmt 0
	li	a5,1
	bne	s1,a5,.L863
	j	.L845
	.cfi_endproc
.LFE67:
	.size	xTaskGenericNotifyFromISR, .-xTaskGenericNotifyFromISR
	.section	.text.vTaskNotifyGiveFromISR,"ax",@progbits
	.align	1
	.globl	vTaskNotifyGiveFromISR
	.type	vTaskNotifyGiveFromISR, @function
vTaskNotifyGiveFromISR:
.LFB68:
	.loc 1 5038 2 is_stmt 1
	.cfi_startproc
.LVL628:
	.loc 1 5039 2
	.loc 1 5040 2
	.loc 1 5041 2
	.loc 1 5043 3
	.loc 1 5038 2 is_stmt 0
	addi	sp,sp,-16
	.cfi_def_cfa_offset 16
	sw	s0,8(sp)
	sw	s1,4(sp)
	sw	ra,12(sp)
	sw	s2,0(sp)
	.cfi_offset 8, -8
	.cfi_offset 9, -12
	.cfi_offset 1, -4
	.cfi_offset 18, -16
	.loc 1 5038 2
	mv	s0,a0
	mv	s1,a1
	.loc 1 5043 5
	beq	a0,zero,.L882
.LVL629:
.L867:
	.loc 1 5061 3 is_stmt 1
	.loc 1 5063 3
	.loc 1 5065 3
	.loc 1 5067 4
	.loc 1 5068 25 is_stmt 0
	li	a5,2
	.loc 1 5067 26
	lbu	a4,92(s0)
.LVL630:
	.loc 1 5068 4 is_stmt 1
	.loc 1 5068 25 is_stmt 0
	sb	a5,92(s0)
	.loc 1 5072 4 is_stmt 1
	.loc 1 5072 11 is_stmt 0
	lw	a5,88(s0)
	.loc 1 5078 6
	li	a3,1
	.loc 1 5072 30
	addi	a5,a5,1
	sw	a5,88(s0)
	.loc 1 5074 4 is_stmt 1
	.loc 1 5078 4
	.loc 1 5078 6 is_stmt 0
	beq	a3,a4,.L883
.LVL631:
.L866:
	.loc 1 5116 2
	lw	ra,12(sp)
	.cfi_remember_state
	.cfi_restore 1
	lw	s0,8(sp)
	.cfi_restore 8
.LVL632:
	lw	s1,4(sp)
	.cfi_restore 9
.LVL633:
	lw	s2,0(sp)
	.cfi_restore 18
	addi	sp,sp,16
	.cfi_def_cfa_offset 0
	jr	ra
.LVL634:
.L883:
	.cfi_restore_state
	.loc 1 5081 5 is_stmt 1
	.loc 1 5081 7 is_stmt 0
	lw	a5,40(s0)
	beq	a5,zero,.L870
	.loc 1 5081 13 is_stmt 1 discriminator 1
	call	vAssertCalled
.LVL635:
.L870:
	.loc 1 5083 5
	.loc 1 5083 30 is_stmt 0
	lui	a5,%hi(.LANCHOR16)
	lw	a5,%lo(.LANCHOR16)(a5)
	.loc 1 5083 7
	beq	a5,zero,.L884
	.loc 1 5092 6 is_stmt 1
	lui	a0,%hi(.LANCHOR12)
	addi	a1,s0,24
	addi	a0,a0,%lo(.LANCHOR12)
	call	vListInsertEnd
.LVL636:
.L872:
	.loc 1 5095 5
	.loc 1 5095 41 is_stmt 0
	lui	a5,%hi(.LANCHOR3)
	lw	a5,%lo(.LANCHOR3)(a5)
	.loc 1 5095 7
	lw	a4,44(s0)
	lw	a5,44(a5)
	bleu	a4,a5,.L866
	.loc 1 5099 6 is_stmt 1
	.loc 1 5099 8 is_stmt 0
	beq	s1,zero,.L874
	.loc 1 5101 7 is_stmt 1
	.loc 1 5101 34 is_stmt 0
	li	a5,1
	sw	a5,0(s1)
.L874:
	.loc 1 5107 6 is_stmt 1
	.loc 1 5116 2 is_stmt 0
	lw	ra,12(sp)
	.cfi_remember_state
	.cfi_restore 1
	lw	s0,8(sp)
	.cfi_restore 8
.LVL637:
	.loc 1 5107 20
	lui	a5,%hi(.LANCHOR19)
	li	a4,1
	sw	a4,%lo(.LANCHOR19)(a5)
	.loc 1 5111 6 is_stmt 1
	.loc 1 5115 3
	.loc 1 5116 2 is_stmt 0
	lw	s1,4(sp)
	.cfi_restore 9
.LVL638:
	lw	s2,0(sp)
	.cfi_restore 18
	addi	sp,sp,16
	.cfi_def_cfa_offset 0
	jr	ra
.LVL639:
.L884:
	.cfi_restore_state
	.loc 1 5085 6 is_stmt 1
	.loc 1 5085 15 is_stmt 0
	addi	s2,s0,4
	mv	a0,s2
	call	uxListRemove
.LVL640:
	.loc 1 5086 6 is_stmt 1
	.loc 1 5086 8
	.loc 1 5086 54 is_stmt 0
	lw	a2,44(s0)
	.loc 1 5086 31
	lui	a3,%hi(.LANCHOR4)
	addi	a3,a3,%lo(.LANCHOR4)
	lw	a1,0(a3)
	.loc 1 5086 72
	slli	a4,a2,2
	add	a4,a4,a2
	.loc 1 5086 40
	li	a5,1
	.loc 1 5086 72
	lui	a0,%hi(.LANCHOR9)
	.loc 1 5086 40
	sll	a5,a5,a2
	.loc 1 5086 72
	slli	a4,a4,2
	addi	a0,a0,%lo(.LANCHOR9)
	.loc 1 5086 31
	or	a5,a5,a1
	.loc 1 5086 72
	add	a0,a0,a4
	mv	a1,s2
	.loc 1 5086 31
	sw	a5,0(a3)
	.loc 1 5086 72 is_stmt 1
	call	vListInsertEnd
.LVL641:
	.loc 1 5086 171
	j	.L872
.LVL642:
.L882:
	.loc 1 5043 32 discriminator 1
	call	vAssertCalled
.LVL643:
	j	.L867
	.cfi_endproc
.LFE68:
	.size	vTaskNotifyGiveFromISR, .-vTaskNotifyGiveFromISR
	.section	.text.xTaskNotifyStateClear,"ax",@progbits
	.align	1
	.globl	xTaskNotifyStateClear
	.type	xTaskNotifyStateClear, @function
xTaskNotifyStateClear:
.LFB69:
	.loc 1 5125 2
	.cfi_startproc
.LVL644:
	.loc 1 5126 2
	.loc 1 5127 2
	.loc 1 5131 3
	.loc 1 5125 2 is_stmt 0
	addi	sp,sp,-32
	.cfi_def_cfa_offset 32
	sw	s1,20(sp)
	sw	ra,28(sp)
	sw	s0,24(sp)
	.cfi_offset 9, -12
	.cfi_offset 1, -4
	.cfi_offset 8, -8
	mv	s1,a0
	.loc 1 5131 27
	beq	a0,zero,.L902
.LVL645:
.L886:
	.loc 1 5133 3 is_stmt 1 discriminator 4
.LBB455:
.LBB456:
	.loc 1 4300 3 discriminator 4
 #APP
# 4300 "/b-l/bl_iot_sdk/components/bl602/freertos_riscv_ram/tasks.c" 1
	csrc mstatus, 8
# 0 "" 2
	.loc 1 4302 3 discriminator 4
	.loc 1 4302 25 is_stmt 0 discriminator 4
 #NO_APP
	lui	s0,%hi(.LANCHOR7)
	addi	s0,s0,%lo(.LANCHOR7)
	lw	a5,0(s0)
	.loc 1 4302 5 discriminator 4
	beq	a5,zero,.L887
	call	vTaskEnterCritical.part.7
.LVL646:
.L887:
	.loc 1 4319 4 is_stmt 1 discriminator 4
.LBE456:
.LBE455:
	.loc 1 5135 4 discriminator 4
	.loc 1 5135 13 is_stmt 0 discriminator 4
	lbu	a5,92(s1)
	.loc 1 5135 6 discriminator 4
	li	a4,2
	.loc 1 5142 13 discriminator 4
	li	a0,0
	.loc 1 5135 6 discriminator 4
	bne	a4,a5,.L888
	.loc 1 5137 5 is_stmt 1
	.loc 1 5137 26 is_stmt 0
	sb	zero,92(s1)
	.loc 1 5138 5 is_stmt 1
.LVL647:
	.loc 1 5138 13 is_stmt 0
	li	a0,1
.LVL648:
.L888:
	.loc 1 5145 3 is_stmt 1
.LBB457:
.LBB458:
	.loc 1 4330 3
	.loc 1 4330 25 is_stmt 0
	lw	a5,0(s0)
	.loc 1 4330 5
	beq	a5,zero,.L885
	.loc 1 4332 4 is_stmt 1
	.loc 1 4332 20 is_stmt 0
	lui	a5,%hi(.LANCHOR3)
	lw	a5,%lo(.LANCHOR3)(a5)
	.loc 1 4332 6
	lw	a5,68(a5)
	beq	a5,zero,.L885
	sw	a0,12(sp)
	call	vTaskExitCritical.part.8
.LVL649:
	lw	a0,12(sp)
	.loc 1 4352 4 is_stmt 1
.LBE458:
.LBE457:
	.loc 1 5147 3
.LVL650:
.L885:
	.loc 1 5148 2 is_stmt 0
	lw	ra,28(sp)
	.cfi_remember_state
	.cfi_restore 1
	lw	s0,24(sp)
	.cfi_restore 8
	lw	s1,20(sp)
	.cfi_restore 9
.LVL651:
	addi	sp,sp,32
	.cfi_def_cfa_offset 0
	jr	ra
.LVL652:
.L902:
	.cfi_restore_state
	.loc 1 5131 27 discriminator 1
	lui	a5,%hi(.LANCHOR3)
	lw	s1,%lo(.LANCHOR3)(a5)
.LVL653:
	j	.L886
	.cfi_endproc
.LFE69:
	.size	xTaskNotifyStateClear, .-xTaskNotifyStateClear
	.globl	pxCurrentTCB
	.section	.bss.pxReadyTasksLists,"aw",@nobits
	.align	2
	.set	.LANCHOR9,. + 0
	.type	pxReadyTasksLists, @object
	.size	pxReadyTasksLists, 640
pxReadyTasksLists:
	.zero	640
	.section	.bss.xDelayedTaskList1,"aw",@nobits
	.align	2
	.set	.LANCHOR10,. + 0
	.type	xDelayedTaskList1, @object
	.size	xDelayedTaskList1, 20
xDelayedTaskList1:
	.zero	20
	.section	.bss.xDelayedTaskList2,"aw",@nobits
	.align	2
	.set	.LANCHOR11,. + 0
	.type	xDelayedTaskList2, @object
	.size	xDelayedTaskList2, 20
xDelayedTaskList2:
	.zero	20
	.section	.bss.xPendingReadyList,"aw",@nobits
	.align	2
	.set	.LANCHOR12,. + 0
	.type	xPendingReadyList, @object
	.size	xPendingReadyList, 20
xPendingReadyList:
	.zero	20
	.section	.bss.xSuspendedTaskList,"aw",@nobits
	.align	2
	.set	.LANCHOR5,. + 0
	.type	xSuspendedTaskList, @object
	.size	xSuspendedTaskList, 20
xSuspendedTaskList:
	.zero	20
	.section	.bss.xTasksWaitingTermination,"aw",@nobits
	.align	2
	.set	.LANCHOR13,. + 0
	.type	xTasksWaitingTermination, @object
	.size	xTasksWaitingTermination, 20
xTasksWaitingTermination:
	.zero	20
	.section	.rodata.vTaskList.str1.4,"aMS",@progbits,1
	.align	2
.LC1:
	.string	"\t%c\t%u\t%u\t%u\t%p\r\n"
	.section	.rodata.vTaskStartScheduler.str1.4,"aMS",@progbits,1
	.align	2
.LC0:
	.string	"IDLE"
	.section	.sbss.pxCurrentTCB,"aw",@nobits
	.align	2
	.set	.LANCHOR3,. + 0
	.type	pxCurrentTCB, @object
	.size	pxCurrentTCB, 4
pxCurrentTCB:
	.zero	4
	.section	.sbss.pxDelayedTaskList,"aw",@nobits
	.align	2
	.set	.LANCHOR0,. + 0
	.type	pxDelayedTaskList, @object
	.size	pxDelayedTaskList, 4
pxDelayedTaskList:
	.zero	4
	.section	.sbss.pxOverflowDelayedTaskList,"aw",@nobits
	.align	2
	.set	.LANCHOR6,. + 0
	.type	pxOverflowDelayedTaskList, @object
	.size	pxOverflowDelayedTaskList, 4
pxOverflowDelayedTaskList:
	.zero	4
	.section	.sbss.uxCurrentNumberOfTasks,"aw",@nobits
	.align	2
	.set	.LANCHOR8,. + 0
	.type	uxCurrentNumberOfTasks, @object
	.size	uxCurrentNumberOfTasks, 4
uxCurrentNumberOfTasks:
	.zero	4
	.section	.sbss.uxDeletedTasksWaitingCleanUp,"aw",@nobits
	.align	2
	.set	.LANCHOR15,. + 0
	.type	uxDeletedTasksWaitingCleanUp, @object
	.size	uxDeletedTasksWaitingCleanUp, 4
uxDeletedTasksWaitingCleanUp:
	.zero	4
	.section	.sbss.uxPendedTicks,"aw",@nobits
	.align	2
	.set	.LANCHOR18,. + 0
	.type	uxPendedTicks, @object
	.size	uxPendedTicks, 4
uxPendedTicks:
	.zero	4
	.section	.sbss.uxSchedulerSuspended,"aw",@nobits
	.align	2
	.set	.LANCHOR16,. + 0
	.type	uxSchedulerSuspended, @object
	.size	uxSchedulerSuspended, 4
uxSchedulerSuspended:
	.zero	4
	.section	.sbss.uxTaskNumber,"aw",@nobits
	.align	2
	.set	.LANCHOR14,. + 0
	.type	uxTaskNumber, @object
	.size	uxTaskNumber, 4
uxTaskNumber:
	.zero	4
	.section	.sbss.uxTopReadyPriority,"aw",@nobits
	.align	2
	.set	.LANCHOR4,. + 0
	.type	uxTopReadyPriority, @object
	.size	uxTopReadyPriority, 4
uxTopReadyPriority:
	.zero	4
	.section	.sbss.xNextTaskUnblockTime,"aw",@nobits
	.align	2
	.set	.LANCHOR1,. + 0
	.type	xNextTaskUnblockTime, @object
	.size	xNextTaskUnblockTime, 4
xNextTaskUnblockTime:
	.zero	4
	.section	.sbss.xNumOfOverflows,"aw",@nobits
	.align	2
	.set	.LANCHOR17,. + 0
	.type	xNumOfOverflows, @object
	.size	xNumOfOverflows, 4
xNumOfOverflows:
	.zero	4
	.section	.sbss.xSchedulerRunning,"aw",@nobits
	.align	2
	.set	.LANCHOR7,. + 0
	.type	xSchedulerRunning, @object
	.size	xSchedulerRunning, 4
xSchedulerRunning:
	.zero	4
	.section	.sbss.xTickCount,"aw",@nobits
	.align	2
	.set	.LANCHOR2,. + 0
	.type	xTickCount, @object
	.size	xTickCount, 4
xTickCount:
	.zero	4
	.section	.sbss.xYieldPending,"aw",@nobits
	.align	2
	.set	.LANCHOR19,. + 0
	.type	xYieldPending, @object
	.size	xYieldPending, 4
xYieldPending:
	.zero	4
	.section	.sdata2.CSWTCH.175,"a"
	.align	2
	.set	.LANCHOR20,. + 0
	.type	CSWTCH.175, @object
	.size	CSWTCH.175, 5
CSWTCH.175:
	.byte	88
	.byte	82
	.byte	66
	.byte	83
	.byte	68
	.text
.Letext0:
	.file 2 "/b-l/bl_iot_sdk/toolchain/riscv/Linux/lib/gcc/riscv64-unknown-elf/8.3.0/include/stddef.h"
	.file 3 "/b-l/bl_iot_sdk/toolchain/riscv/Linux/riscv64-unknown-elf/include/sys/_types.h"
	.file 4 "/b-l/bl_iot_sdk/toolchain/riscv/Linux/riscv64-unknown-elf/include/sys/reent.h"
	.file 5 "/b-l/bl_iot_sdk/toolchain/riscv/Linux/riscv64-unknown-elf/include/sys/lock.h"
	.file 6 "/b-l/bl_iot_sdk/toolchain/riscv/Linux/riscv64-unknown-elf/include/stdlib.h"
	.file 7 "/b-l/bl_iot_sdk/toolchain/riscv/Linux/lib/gcc/riscv64-unknown-elf/8.3.0/include/stdint-gcc.h"
	.file 8 "/b-l/bl_iot_sdk/components/bl602/freertos_riscv_ram/config/projdefs.h"
	.file 9 "/b-l/bl_iot_sdk/components/bl602/freertos_riscv_ram/portable/GCC/RISC-V/portmacro.h"
	.file 10 "/b-l/bl_iot_sdk/components/bl602/freertos_riscv_ram/config/FreeRTOS.h"
	.file 11 "/b-l/bl_iot_sdk/components/bl602/freertos_riscv_ram/config/list.h"
	.file 12 "/b-l/bl_iot_sdk/components/bl602/freertos_riscv_ram/config/task.h"
	.file 13 "/b-l/bl_iot_sdk/components/bl602/freertos_riscv_ram/config/FreeRTOSConfig.h"
	.file 14 "/b-l/bl_iot_sdk/toolchain/riscv/Linux/riscv64-unknown-elf/include/string.h"
	.file 15 "/b-l/bl_iot_sdk/components/bl602/freertos_riscv_ram/config/portable.h"
	.file 16 "/b-l/bl_iot_sdk/toolchain/riscv/Linux/riscv64-unknown-elf/include/stdio.h"
	.file 17 "/b-l/bl_iot_sdk/components/bl602/freertos_riscv_ram/config/timers.h"