	.file	"timers.c"
	.option nopic
	.attribute arch, "rv32i2p0_m2p0_f2p0_c2p0"
	.attribute unaligned_access, 0
	.attribute stack_align, 16
	.text
.Ltext0:
	.cfi_sections	.debug_frame
	.section	.text.prvCheckForValidListAndQueue,"ax",@progbits
	.align	1
	.type	prvCheckForValidListAndQueue, @function
prvCheckForValidListAndQueue:
.LFB19:
	.file 1 "/home/hogc/build-tools/sdk/bl/bl_iot_sdk/components/bl602/freertos_riscv_ram/timers.c"
	.loc 1 917 1
	.cfi_startproc
	.loc 1 921 2
	.loc 1 917 1 is_stmt 0
	addi	sp,sp,-16
	.cfi_def_cfa_offset 16
	sw	s0,8(sp)
	.cfi_offset 8, -8
	.loc 1 923 19
	lui	s0,%hi(.LANCHOR0)
	.loc 1 917 1
	sw	ra,12(sp)
	sw	s1,4(sp)
	sw	s2,0(sp)
	.cfi_offset 1, -4
	.cfi_offset 9, -12
	.cfi_offset 18, -16
	.loc 1 923 19
	addi	s0,s0,%lo(.LANCHOR0)
	.loc 1 921 2
	call	vTaskEnterCritical
.LVL0:
	.loc 1 923 3 is_stmt 1
	.loc 1 923 5 is_stmt 0
	lw	a5,0(s0)
	beq	a5,zero,.L10
.L3:
	.loc 1 960 4 is_stmt 1
	.loc 1 963 2
	.loc 1 964 1 is_stmt 0
	lw	s0,8(sp)
	.cfi_remember_state
	.cfi_restore 8
	lw	ra,12(sp)
	.cfi_restore 1
	lw	s1,4(sp)
	.cfi_restore 9
	lw	s2,0(sp)
	.cfi_restore 18
	addi	sp,sp,16
	.cfi_def_cfa_offset 0
	.loc 1 963 2
	tail	vTaskExitCritical
.LVL1:
.L10:
	.cfi_restore_state
	.loc 1 925 4 is_stmt 1
	lui	a5,%hi(.LANCHOR1)
	addi	a0,a5,%lo(.LANCHOR1)
	addi	s2,a5,%lo(.LANCHOR1)
	call	vListInitialise
.LVL2:
	.loc 1 926 4
	lui	a5,%hi(.LANCHOR2)
	addi	a0,a5,%lo(.LANCHOR2)
	addi	s1,a5,%lo(.LANCHOR2)
	call	vListInitialise
.LVL3:
	.loc 1 927 4
	.loc 1 927 23 is_stmt 0
	lui	a5,%hi(.LANCHOR3)
.LBB4:
	.loc 1 937 19
	lui	a3,%hi(.LANCHOR5)
	lui	a2,%hi(.LANCHOR6)
.LBE4:
	.loc 1 927 23
	sw	s2,%lo(.LANCHOR3)(a5)
	.loc 1 928 4 is_stmt 1
.LBB5:
	.loc 1 937 19 is_stmt 0
	li	a4,0
.LBE5:
	.loc 1 928 24
	lui	a5,%hi(.LANCHOR4)
.LBB6:
	.loc 1 937 19
	addi	a3,a3,%lo(.LANCHOR5)
	addi	a2,a2,%lo(.LANCHOR6)
	li	a1,16
	li	a0,4
.LBE6:
	.loc 1 928 24
	sw	s1,%lo(.LANCHOR4)(a5)
.LBB7:
	.loc 1 934 5 is_stmt 1
	.loc 1 935 5
	.loc 1 937 5
	.loc 1 937 19 is_stmt 0
	call	xQueueGenericCreateStatic
.LVL4:
	.loc 1 937 17
	sw	a0,0(s0)
.LBE7:
	.loc 1 947 5 is_stmt 1
	.loc 1 947 7 is_stmt 0
	beq	a0,zero,.L3
	.loc 1 949 6 is_stmt 1
	lui	a1,%hi(.LC0)
	addi	a1,a1,%lo(.LC0)
	call	vQueueAddToRegistry
.LVL5:
	j	.L3
	.cfi_endproc
.LFE19:
	.size	prvCheckForValidListAndQueue, .-prvCheckForValidListAndQueue
	.section	.text.prvInsertTimerInActiveList,"ax",@progbits
	.align	1
	.type	prvInsertTimerInActiveList, @function
prvInsertTimerInActiveList:
.LFB16:
	.loc 1 669 1
	.cfi_startproc
.LVL6:
	addi	sp,sp,-16
	.cfi_def_cfa_offset 16
	sw	ra,12(sp)
	.cfi_offset 1, -4
	.loc 1 672 49 is_stmt 0
	sw	a1,4(a0)
	.loc 1 673 46
	sw	a0,16(a0)
	.loc 1 669 1
	mv	a5,a0
	.loc 1 670 1 is_stmt 1
.LVL7:
	.loc 1 672 2
	.loc 1 673 2
	.loc 1 675 2
	.loc 1 675 4 is_stmt 0
	bgtu	a1,a2,.L12
	.loc 1 679 3 is_stmt 1
	.loc 1 679 5 is_stmt 0
	lw	a4,24(a0)
	.loc 1 679 9
	sub	a2,a2,a3
.LVL8:
	.loc 1 683 21
	li	a0,1
.LVL9:
	.loc 1 679 5
	bltu	a2,a4,.L18
.L11:
	.loc 1 706 1
	lw	ra,12(sp)
	.cfi_remember_state
	.cfi_restore 1
	addi	sp,sp,16
	.cfi_def_cfa_offset 0
	jr	ra
.LVL10:
.L12:
	.cfi_restore_state
	.loc 1 692 3 is_stmt 1
	.loc 1 692 5 is_stmt 0
	bgeu	a2,a3,.L14
	.loc 1 683 21 discriminator 1
	li	a0,1
.LVL11:
	.loc 1 692 35 discriminator 1
	bgeu	a1,a3,.L11
.L14:
	.loc 1 701 4 is_stmt 1
	lui	a4,%hi(.LANCHOR3)
	lw	a0,%lo(.LANCHOR3)(a4)
	addi	a1,a5,4
.LVL12:
	call	vListInsert
.LVL13:
	.loc 1 706 1 is_stmt 0
	lw	ra,12(sp)
	.cfi_remember_state
	.cfi_restore 1
	.loc 1 670 12
	li	a0,0
	.loc 1 706 1
	addi	sp,sp,16
	.cfi_def_cfa_offset 0
	jr	ra
.LVL14:
.L18:
	.cfi_restore_state
.LBB10:
.LBB11:
	.loc 1 687 4 is_stmt 1
	lui	a4,%hi(.LANCHOR4)
	lw	a0,%lo(.LANCHOR4)(a4)
	addi	a1,a5,4
.LVL15:
	call	vListInsert
.LVL16:
	.loc 1 705 2
.LBE11:
.LBE10:
	.loc 1 706 1 is_stmt 0
	lw	ra,12(sp)
	.cfi_restore 1
.LBB13:
.LBB12:
	.loc 1 687 4
	li	a0,0
.LBE12:
.LBE13:
	.loc 1 706 1
	addi	sp,sp,16
	.cfi_def_cfa_offset 0
	jr	ra
	.cfi_endproc
.LFE16:
	.size	prvInsertTimerInActiveList, .-prvInsertTimerInActiveList
	.section	.text.xTimerCreateTimerTask,"ax",@progbits
	.align	1
	.globl	xTimerCreateTimerTask
	.type	xTimerCreateTimerTask, @function
xTimerCreateTimerTask:
.LFB1:
	.loc 1 228 1 is_stmt 1
	.cfi_startproc
	.loc 1 229 1
.LVL17:
	.loc 1 235 2
	.loc 1 228 1 is_stmt 0
	addi	sp,sp,-32
	.cfi_def_cfa_offset 32
	sw	ra,28(sp)
	.cfi_offset 1, -4
	.loc 1 235 2
	call	prvCheckForValidListAndQueue
.LVL18:
	.loc 1 237 2 is_stmt 1
	.loc 1 237 18 is_stmt 0
	lui	a5,%hi(.LANCHOR0)
	.loc 1 237 4
	lw	a5,%lo(.LANCHOR0)(a5)
	beq	a5,zero,.L20
.LBB14:
	.loc 1 241 4 is_stmt 1
	.loc 1 245 4 is_stmt 0
	addi	a2,sp,12
	addi	a1,sp,8
	addi	a0,sp,4
	.loc 1 241 18
	sw	zero,4(sp)
	.loc 1 242 4 is_stmt 1
	.loc 1 242 17 is_stmt 0
	sw	zero,8(sp)
	.loc 1 243 4 is_stmt 1
	.loc 1 245 4
	call	vApplicationGetTimerTaskMemory
.LVL19:
	.loc 1 246 4
	.loc 1 246 23 is_stmt 0
	lw	a5,8(sp)
	lw	a6,4(sp)
	lw	a2,12(sp)
	lui	a1,%hi(.LC1)
	lui	a0,%hi(prvTimerTask)
	li	a4,31
	li	a3,0
	addi	a1,a1,%lo(.LC1)
	addi	a0,a0,%lo(prvTimerTask)
	call	xTaskCreateStatic
.LVL20:
	.loc 1 246 21
	lui	a5,%hi(.LANCHOR7)
	sw	a0,%lo(.LANCHOR7)(a5)
	.loc 1 254 4 is_stmt 1
	.loc 1 254 6 is_stmt 0
	beq	a0,zero,.L20
	.loc 1 256 5 is_stmt 1
.LVL21:
.LBE14:
	.loc 1 272 3
	.loc 1 275 2
	.loc 1 277 1 is_stmt 0
	lw	ra,28(sp)
	.cfi_remember_state
	.cfi_restore 1
.LBB15:
	.loc 1 256 13
	li	a0,1
.LBE15:
	.loc 1 277 1
	addi	sp,sp,32
	.cfi_def_cfa_offset 0
	jr	ra
.LVL22:
.L20:
	.cfi_restore_state
	.loc 1 275 25 is_stmt 1 discriminator 1
	call	vAssertCalled
.LVL23:
	.loc 1 277 1 is_stmt 0 discriminator 1
	lw	ra,28(sp)
	.cfi_restore 1
	.loc 1 275 25 discriminator 1
	li	a0,0
	.loc 1 276 2 is_stmt 1 discriminator 1
	.loc 1 277 1 is_stmt 0 discriminator 1
	addi	sp,sp,32
	.cfi_def_cfa_offset 0
	jr	ra
	.cfi_endproc
.LFE1:
	.size	xTimerCreateTimerTask, .-xTimerCreateTimerTask
	.section	.text.xTimerCreate,"ax",@progbits
	.align	1
	.globl	xTimerCreate
	.type	xTimerCreate, @function
xTimerCreate:
.LFB2:
	.loc 1 287 2 is_stmt 1
	.cfi_startproc
.LVL24:
	.loc 1 288 2
	.loc 1 290 3
	.loc 1 287 2 is_stmt 0
	addi	sp,sp,-32
	.cfi_def_cfa_offset 32
	sw	s5,4(sp)
	.cfi_offset 21, -28
	mv	s5,a0
	.loc 1 290 30
	li	a0,44
.LVL25:
	.loc 1 287 2
	sw	s0,24(sp)
	sw	s1,20(sp)
	sw	s2,16(sp)
	sw	s3,12(sp)
	sw	s4,8(sp)
	sw	ra,28(sp)
	.cfi_offset 8, -8
	.cfi_offset 9, -12
	.cfi_offset 18, -16
	.cfi_offset 19, -20
	.cfi_offset 20, -24
	.cfi_offset 1, -4
	.loc 1 287 2
	mv	s1,a1
	mv	s2,a2
	mv	s4,a3
	mv	s3,a4
	.loc 1 290 30
	call	pvPortMalloc
.LVL26:
	mv	s0,a0
.LVL27:
	.loc 1 292 3 is_stmt 1
	.loc 1 292 5 is_stmt 0
	beq	a0,zero,.L30
	.loc 1 297 4 is_stmt 1
	.loc 1 297 25 is_stmt 0
	sb	zero,40(a0)
	.loc 1 298 4 is_stmt 1
.LVL28:
.LBB20:
.LBB21:
	.loc 1 357 2
	.loc 1 357 4 is_stmt 0
	beq	s1,zero,.L39
.L33:
	.loc 1 359 2 is_stmt 1
.LVL29:
.LBB22:
.LBB23:
	.loc 1 363 3
	call	prvCheckForValidListAndQueue
.LVL30:
	.loc 1 367 3
	.loc 1 371 3 is_stmt 0
	addi	a0,s0,4
	.loc 1 367 27
	sw	s5,0(s0)
	.loc 1 368 3 is_stmt 1
	.loc 1 368 35 is_stmt 0
	sw	s1,24(s0)
	.loc 1 369 3 is_stmt 1
	.loc 1 369 25 is_stmt 0
	sw	s4,28(s0)
	.loc 1 370 3 is_stmt 1
	.loc 1 370 34 is_stmt 0
	sw	s3,32(s0)
	.loc 1 371 3 is_stmt 1
	call	vListInitialiseItem
.LVL31:
	.loc 1 372 3
	.loc 1 372 5 is_stmt 0
	beq	s2,zero,.L30
	.loc 1 374 4 is_stmt 1
	.loc 1 374 25 is_stmt 0
	lbu	a5,40(s0)
	ori	a5,a5,4
	sb	a5,40(s0)
.LBE23:
.LBE22:
.LBE21:
.LBE20:
	.loc 1 301 3 is_stmt 1
.LVL32:
.L30:
	.loc 1 302 2 is_stmt 0
	mv	a0,s0
	lw	ra,28(sp)
	.cfi_remember_state
	.cfi_restore 1
	lw	s0,24(sp)
	.cfi_restore 8
.LVL33:
	lw	s1,20(sp)
	.cfi_restore 9
.LVL34:
	lw	s2,16(sp)
	.cfi_restore 18
.LVL35:
	lw	s3,12(sp)
	.cfi_restore 19
.LVL36:
	lw	s4,8(sp)
	.cfi_restore 20
.LVL37:
	lw	s5,4(sp)
	.cfi_restore 21
.LVL38:
	addi	sp,sp,32
	.cfi_def_cfa_offset 0
	jr	ra
.LVL39:
.L39:
	.cfi_restore_state
.LBB25:
.LBB24:
	.loc 1 357 45 is_stmt 1
	call	vAssertCalled
.LVL40:
	j	.L33
.LBE24:
.LBE25:
	.cfi_endproc
.LFE2:
	.size	xTimerCreate, .-xTimerCreate
	.section	.text.xTimerCreateStatic,"ax",@progbits
	.align	1
	.globl	xTimerCreateStatic
	.type	xTimerCreateStatic, @function
xTimerCreateStatic:
.LFB3:
	.loc 1 315 2
	.cfi_startproc
.LVL41:
	.loc 1 316 2
.LBB31:
	.loc 1 323 4
.LBE31:
	.loc 1 315 2 is_stmt 0
	addi	sp,sp,-48
	.cfi_def_cfa_offset 48
.LBB32:
	.loc 1 323 20
	li	a6,44
	sw	a6,12(sp)
	.loc 1 324 4 is_stmt 1
	.loc 1 324 39 is_stmt 0
	lw	a7,12(sp)
.LBE32:
	.loc 1 315 2
	sw	s0,40(sp)
	sw	s1,36(sp)
	sw	s2,32(sp)
	sw	s3,28(sp)
	sw	s4,24(sp)
	sw	s5,20(sp)
	sw	ra,44(sp)
	.cfi_offset 8, -8
	.cfi_offset 9, -12
	.cfi_offset 18, -16
	.cfi_offset 19, -20
	.cfi_offset 20, -24
	.cfi_offset 21, -28
	.cfi_offset 1, -4
	.loc 1 315 2
	mv	s2,a0
	mv	s1,a1
	mv	s3,a2
	mv	s4,a3
	mv	s5,a4
	mv	s0,a5
.LBB33:
	.loc 1 324 6
	beq	a7,a6,.L41
	.loc 1 324 46 is_stmt 1 discriminator 1
	call	vAssertCalled
.LVL42:
.L41:
	.loc 1 325 4
	lw	a5,12(sp)
.LBE33:
	.loc 1 330 3
	.loc 1 330 5 is_stmt 0
	beq	s0,zero,.L51
	.loc 1 331 3 is_stmt 1
.LVL43:
	.loc 1 333 3
	.loc 1 338 4
	.loc 1 338 25 is_stmt 0
	li	a5,2
	sb	a5,40(s0)
	.loc 1 340 4 is_stmt 1
.LVL44:
.LBB34:
.LBB35:
	.loc 1 357 2
	.loc 1 357 4 is_stmt 0
	beq	s1,zero,.L52
.L45:
	.loc 1 359 2 is_stmt 1
.LVL45:
.LBB36:
.LBB37:
	.loc 1 363 3
	call	prvCheckForValidListAndQueue
.LVL46:
	.loc 1 367 3
	.loc 1 371 3 is_stmt 0
	addi	a0,s0,4
	.loc 1 367 27
	sw	s2,0(s0)
	.loc 1 368 3 is_stmt 1
	.loc 1 368 35 is_stmt 0
	sw	s1,24(s0)
	.loc 1 369 3 is_stmt 1
	.loc 1 369 25 is_stmt 0
	sw	s4,28(s0)
	.loc 1 370 3 is_stmt 1
	.loc 1 370 34 is_stmt 0
	sw	s5,32(s0)
	.loc 1 371 3 is_stmt 1
	call	vListInitialiseItem
.LVL47:
	.loc 1 372 3
	.loc 1 372 5 is_stmt 0
	beq	s3,zero,.L47
	.loc 1 374 4 is_stmt 1
	.loc 1 374 25 is_stmt 0
	lbu	a5,40(s0)
	ori	a5,a5,4
	sb	a5,40(s0)
.LBE37:
.LBE36:
.LBE35:
.LBE34:
	.loc 1 343 3 is_stmt 1
.LVL48:
.L47:
	.loc 1 344 2 is_stmt 0
	mv	a0,s0
	lw	ra,44(sp)
	.cfi_remember_state
	.cfi_restore 1
	lw	s0,40(sp)
	.cfi_restore 8
.LVL49:
	lw	s1,36(sp)
	.cfi_restore 9
.LVL50:
	lw	s2,32(sp)
	.cfi_restore 18
.LVL51:
	lw	s3,28(sp)
	.cfi_restore 19
.LVL52:
	lw	s4,24(sp)
	.cfi_restore 20
.LVL53:
	lw	s5,20(sp)
	.cfi_restore 21
.LVL54:
	addi	sp,sp,48
	.cfi_def_cfa_offset 0
	jr	ra
.LVL55:
.L52:
	.cfi_restore_state
.LBB39:
.LBB38:
	.loc 1 357 45 is_stmt 1
	call	vAssertCalled
.LVL56:
	j	.L45
.LVL57:
.L51:
.LBE38:
.LBE39:
	.loc 1 330 32 discriminator 1
	call	vAssertCalled
.LVL58:
	.loc 1 331 3 discriminator 1
	.loc 1 333 3 discriminator 1
	j	.L47
	.cfi_endproc
.LFE3:
	.size	xTimerCreateStatic, .-xTimerCreateStatic
	.section	.text.xTimerGenericCommand,"ax",@progbits
	.align	1
	.globl	xTimerGenericCommand
	.type	xTimerGenericCommand, @function
xTimerGenericCommand:
.LFB5:
	.loc 1 382 1
	.cfi_startproc
.LVL59:
	.loc 1 383 1
	.loc 1 384 1
	.loc 1 386 2
	.loc 1 382 1 is_stmt 0
	addi	sp,sp,-64
	.cfi_def_cfa_offset 64
	sw	s1,52(sp)
	sw	s2,48(sp)
	sw	s3,44(sp)
	sw	ra,60(sp)
	sw	s0,56(sp)
	.cfi_offset 9, -12
	.cfi_offset 18, -16
	.cfi_offset 19, -20
	.cfi_offset 1, -4
	.cfi_offset 8, -8
	.loc 1 382 1
	mv	s1,a0
	mv	s2,a3
	mv	s3,a4
	.loc 1 386 4
	beq	a0,zero,.L61
.LVL60:
.L54:
	.loc 1 390 2 is_stmt 1
	.loc 1 390 18 is_stmt 0
	lui	s0,%hi(.LANCHOR0)
	addi	s0,s0,%lo(.LANCHOR0)
	lw	a5,0(s0)
	.loc 1 383 12
	li	a0,0
	.loc 1 390 4
	beq	a5,zero,.L53
	.loc 1 393 3 is_stmt 1
	.loc 1 393 23 is_stmt 0
	sw	a1,16(sp)
	.loc 1 394 3 is_stmt 1
	.loc 1 394 45 is_stmt 0
	sw	a2,20(sp)
	.loc 1 395 3 is_stmt 1
	.loc 1 395 39 is_stmt 0
	sw	s1,24(sp)
	.loc 1 397 3 is_stmt 1
	.loc 1 397 5 is_stmt 0
	li	a3,5
	bgt	a1,a3,.L56
	.loc 1 399 4 is_stmt 1
	.loc 1 399 8 is_stmt 0
	call	xTaskGetSchedulerState
.LVL61:
	.loc 1 399 6
	li	a5,2
	beq	a0,a5,.L62
	.loc 1 405 5 is_stmt 1
	.loc 1 405 15 is_stmt 0
	lw	a0,0(s0)
	li	a3,0
	li	a2,0
	addi	a1,sp,16
	call	xQueueGenericSend
.LVL62:
.L53:
	.loc 1 421 1
	lw	ra,60(sp)
	.cfi_remember_state
	.cfi_restore 1
	lw	s0,56(sp)
	.cfi_restore 8
	lw	s1,52(sp)
	.cfi_restore 9
.LVL63:
	lw	s2,48(sp)
	.cfi_restore 18
.LVL64:
	lw	s3,44(sp)
	.cfi_restore 19
.LVL65:
	addi	sp,sp,64
	.cfi_def_cfa_offset 0
	jr	ra
.LVL66:
.L56:
	.cfi_restore_state
	.loc 1 410 4 is_stmt 1
	.loc 1 410 14 is_stmt 0
	mv	a2,s2
	addi	a1,sp,16
	li	a3,0
	mv	a0,a5
	call	xQueueGenericSendFromISR
.LVL67:
	.loc 1 421 1
	lw	ra,60(sp)
	.cfi_remember_state
	.cfi_restore 1
	lw	s0,56(sp)
	.cfi_restore 8
	lw	s1,52(sp)
	.cfi_restore 9
.LVL68:
	lw	s2,48(sp)
	.cfi_restore 18
.LVL69:
	lw	s3,44(sp)
	.cfi_restore 19
.LVL70:
	addi	sp,sp,64
	.cfi_def_cfa_offset 0
	jr	ra
.LVL71:
.L61:
	.cfi_restore_state
	sw	a2,12(sp)
	sw	a1,8(sp)
	.loc 1 386 24 is_stmt 1 discriminator 1
	call	vAssertCalled
.LVL72:
	lw	a2,12(sp)
	lw	a1,8(sp)
	j	.L54
.LVL73:
.L62:
	.loc 1 401 5
	.loc 1 401 15 is_stmt 0
	lw	a0,0(s0)
	mv	a2,s3
	addi	a1,sp,16
	li	a3,0
	call	xQueueGenericSend
.LVL74:
	.loc 1 421 1
	lw	ra,60(sp)
	.cfi_restore 1
	lw	s0,56(sp)
	.cfi_restore 8
	lw	s1,52(sp)
	.cfi_restore 9
.LVL75:
	lw	s2,48(sp)
	.cfi_restore 18
.LVL76:
	lw	s3,44(sp)
	.cfi_restore 19
.LVL77:
	addi	sp,sp,64
	.cfi_def_cfa_offset 0
	jr	ra
	.cfi_endproc
.LFE5:
	.size	xTimerGenericCommand, .-xTimerGenericCommand
	.section	.text.prvSwitchTimerLists,"ax",@progbits
	.align	1
	.type	prvSwitchTimerLists, @function
prvSwitchTimerLists:
.LFB18:
	.loc 1 858 1 is_stmt 1
	.cfi_startproc
	.loc 1 859 1
	.loc 1 860 1
	.loc 1 861 1
	.loc 1 862 1
	.loc 1 868 2
	.loc 1 858 1 is_stmt 0
	addi	sp,sp,-32
	.cfi_def_cfa_offset 32
	sw	s2,16(sp)
	.cfi_offset 18, -16
	lui	s2,%hi(.LANCHOR3)
	sw	ra,28(sp)
	sw	s0,24(sp)
	sw	s1,20(sp)
	sw	s3,12(sp)
	.cfi_offset 1, -4
	.cfi_offset 8, -8
	.cfi_offset 9, -12
	.cfi_offset 19, -20
	addi	s2,s2,%lo(.LANCHOR3)
	.loc 1 868 7
	j	.L65
.L68:
	.loc 1 870 59
	lw	a5,12(a5)
	.loc 1 873 11
	lw	s0,12(a5)
	.loc 1 870 19
	lw	s3,0(a5)
.LVL78:
	.loc 1 873 3 is_stmt 1
	.loc 1 874 3
	.loc 1 874 12 is_stmt 0
	addi	s1,s0,4
	mv	a0,s1
	call	uxListRemove
.LVL79:
	.loc 1 875 3 is_stmt 1
	.loc 1 880 3
	lw	a5,32(s0)
	mv	a0,s0
	jalr	a5
.LVL80:
	.loc 1 882 3
	.loc 1 882 5 is_stmt 0
	lbu	a5,40(s0)
	andi	a5,a5,4
	bne	a5,zero,.L72
.LVL81:
.L65:
	.loc 1 870 3 is_stmt 1
	.loc 1 906 4
	.loc 1 868 35 is_stmt 0
	lw	a5,0(s2)
	lw	a4,0(a5)
	.loc 1 868 7
	bne	a4,zero,.L68
	.loc 1 910 2 is_stmt 1
.LVL82:
	.loc 1 911 2
	.loc 1 911 21 is_stmt 0
	lui	a4,%hi(.LANCHOR4)
	addi	a4,a4,%lo(.LANCHOR4)
	lw	a3,0(a4)
	.loc 1 912 22
	sw	a5,0(a4)
	.loc 1 913 1
	lw	ra,28(sp)
	.cfi_remember_state
	.cfi_restore 1
	lw	s0,24(sp)
	.cfi_restore 8
	.loc 1 911 21
	sw	a3,0(s2)
	.loc 1 912 2 is_stmt 1
	.loc 1 913 1 is_stmt 0
	lw	s1,20(sp)
	.cfi_restore 9
	lw	s2,16(sp)
	.cfi_restore 18
	lw	s3,12(sp)
	.cfi_restore 19
	addi	sp,sp,32
	.cfi_def_cfa_offset 0
	jr	ra
.LVL83:
.L72:
	.cfi_restore_state
	.loc 1 890 4 is_stmt 1
	.loc 1 893 5
	.loc 1 899 5
	.loc 1 890 16 is_stmt 0
	lw	a5,24(s0)
	.loc 1 899 15
	li	a4,0
	li	a3,0
	.loc 1 890 16
	add	a5,s3,a5
.LVL84:
	.loc 1 891 4 is_stmt 1
	.loc 1 899 15 is_stmt 0
	mv	a2,s3
	li	a1,0
	mv	a0,s0
	.loc 1 891 6
	bgeu	s3,a5,.L66
.LVL85:
	.loc 1 895 5
	lw	a0,0(s2)
	.loc 1 893 52
	sw	a5,4(s0)
	.loc 1 894 5 is_stmt 1
	.loc 1 894 49 is_stmt 0
	sw	s0,16(s0)
	.loc 1 895 5 is_stmt 1
	mv	a1,s1
	call	vListInsert
.LVL86:
	j	.L65
.LVL87:
.L66:
	.loc 1 899 15 is_stmt 0
	call	xTimerGenericCommand
.LVL88:
	.loc 1 900 5 is_stmt 1
	.loc 1 900 7 is_stmt 0
	bne	a0,zero,.L65
	.loc 1 900 28 is_stmt 1 discriminator 1
	call	vAssertCalled
.LVL89:
	j	.L65
	.cfi_endproc
.LFE18:
	.size	prvSwitchTimerLists, .-prvSwitchTimerLists
	.section	.text.prvTimerTask,"ax",@progbits
	.align	1
	.type	prvTimerTask, @function
prvTimerTask:
.LFB12:
	.loc 1 524 1
	.cfi_startproc
.LVL90:
	addi	sp,sp,-80
	.cfi_def_cfa_offset 80
	sw	s1,68(sp)
	sw	s3,60(sp)
	sw	s4,56(sp)
	sw	s6,48(sp)
	sw	s7,44(sp)
	.cfi_offset 9, -12
	.cfi_offset 19, -20
	.cfi_offset 20, -24
	.cfi_offset 22, -32
	.cfi_offset 23, -36
	lui	s4,%hi(.LANCHOR3)
	lui	s1,%hi(.LANCHOR8)
	lui	s3,%hi(.LANCHOR0)
	lui	s6,%hi(.L87)
	lui	s7,%hi(.LANCHOR4)
	sw	s5,52(sp)
	sw	ra,76(sp)
	sw	s0,72(sp)
	sw	s2,64(sp)
	sw	s8,40(sp)
	.cfi_offset 21, -28
	.cfi_offset 1, -4
	.cfi_offset 8, -8
	.cfi_offset 18, -16
	.cfi_offset 24, -40
	addi	s4,s4,%lo(.LANCHOR3)
	addi	s1,s1,%lo(.LANCHOR8)
	addi	s3,s3,%lo(.LANCHOR0)
	addi	s6,s6,%lo(.L87)
	addi	s7,s7,%lo(.LANCHOR4)
.LBB53:
.LBB54:
	.loc 1 768 4 is_stmt 0
	li	s5,9
.LVL91:
.L97:
.LBE54:
.LBE53:
	.loc 1 525 1 is_stmt 1 discriminator 1
	.loc 1 526 1 discriminator 1
	.loc 1 529 2 discriminator 1
	.loc 1 543 2 discriminator 1
	.loc 1 547 3 discriminator 1
.LBB65:
.LBB66:
	.loc 1 621 1 discriminator 1
	.loc 1 630 2 discriminator 1
	.loc 1 630 46 is_stmt 0 discriminator 1
	lw	a5,0(s4)
	lw	s2,0(a5)
	.loc 1 630 110 discriminator 1
	beq	s2,zero,.L74
.LVL92:
	.loc 1 631 2 is_stmt 1
	.loc 1 633 3
	.loc 1 633 19 is_stmt 0
	lw	a5,12(a5)
	lw	s2,0(a5)
.LVL93:
	.loc 1 641 2 is_stmt 1
.LBE66:
.LBE65:
	.loc 1 551 3
.LBB68:
.LBB69:
	.loc 1 561 1
	.loc 1 562 1
	.loc 1 564 2
	call	vTaskSuspendAll
.LVL94:
	.loc 1 571 3
.LBB70:
.LBB71:
	.loc 1 647 1
	.loc 1 648 2
	.loc 1 650 2
	.loc 1 650 13 is_stmt 0
	call	xTaskGetTickCount
.LVL95:
	.loc 1 652 4
	lw	a5,0(s1)
	.loc 1 650 13
	mv	s0,a0
.LVL96:
	.loc 1 652 2 is_stmt 1
	.loc 1 652 4 is_stmt 0
	bgtu	a5,a0,.L99
.LVL97:
	.loc 1 662 2 is_stmt 1
	.loc 1 662 12 is_stmt 0
	sw	a0,0(s1)
	.loc 1 664 2 is_stmt 1
.LVL98:
.LBE71:
.LBE70:
	.loc 1 572 3
	.loc 1 575 4
	.loc 1 575 50 is_stmt 0
	li	a2,0
	bleu	s2,a0,.L115
.LVL99:
.L98:
	.loc 1 595 5 is_stmt 1
	lw	a0,0(s3)
	sub	a1,s2,s0
	call	vQueueWaitForMessageRestricted
.LVL100:
	.loc 1 597 5
	.loc 1 597 9 is_stmt 0
	call	xTaskResumeAll
.LVL101:
	.loc 1 597 7
	bne	a0,zero,.L82
	.loc 1 603 6 is_stmt 1
 #APP
# 603 "/home/hogc/build-tools/sdk/bl/bl_iot_sdk/components/bl602/freertos_riscv_ram/timers.c" 1
	ecall
# 0 "" 2
	.loc 1 603 32
.LVL102:
 #NO_APP
.L82:
.LBE69:
.LBE68:
.LBB85:
.LBB62:
	.loc 1 716 9 is_stmt 0
	lw	a0,0(s3)
	li	a2,0
	addi	a1,sp,16
	call	xQueueReceive
.LVL103:
	.loc 1 716 7
	beq	a0,zero,.L97
	.loc 1 722 4 is_stmt 1
	.loc 1 722 6 is_stmt 0
	lw	a5,16(sp)
	lw	s0,24(sp)
	blt	a5,zero,.L116
.L81:
	.loc 1 746 4 is_stmt 1
.LVL104:
	.loc 1 748 4
	.loc 1 748 6 is_stmt 0
	lw	a5,20(s0)
	beq	a5,zero,.L83
	.loc 1 751 5 is_stmt 1
	.loc 1 751 14 is_stmt 0
	addi	a0,s0,4
	call	uxListRemove
.LVL105:
.L83:
	.loc 1 755 5 is_stmt 1
	.loc 1 758 4
	.loc 1 766 4
.LBB55:
.LBB56:
	.loc 1 647 1
	.loc 1 648 2
	.loc 1 650 2
	.loc 1 650 13 is_stmt 0
	call	xTaskGetTickCount
.LVL106:
	.loc 1 652 2 is_stmt 1
	.loc 1 652 4 is_stmt 0
	lw	a5,0(s1)
	bltu	a0,a5,.L117
.LVL107:
.L84:
	.loc 1 662 2 is_stmt 1
.LBE56:
.LBE55:
	.loc 1 768 4 is_stmt 0
	lw	a5,16(sp)
.LBB59:
.LBB57:
	.loc 1 662 12
	sw	a0,0(s1)
	.loc 1 664 2 is_stmt 1
.LVL108:
.LBE57:
.LBE59:
	.loc 1 768 4
	bgtu	a5,s5,.L82
	slli	a5,a5,2
	add	a5,s6,a5
	lw	a5,0(a5)
	jr	a5
	.section	.rodata.prvTimerTask,"a",@progbits
	.align	2
	.align	2
.L87:
	.word	.L89
	.word	.L89
	.word	.L89
	.word	.L88
	.word	.L86
	.word	.L90
	.word	.L89
	.word	.L89
	.word	.L88
	.word	.L86
	.section	.text.prvTimerTask
.L86:
	.loc 1 809 6
	.loc 1 809 24 is_stmt 0
	lbu	a5,40(s0)
	.loc 1 810 64
	lw	a1,20(sp)
	.loc 1 809 24
	ori	a5,a5,1
	sb	a5,40(s0)
	.loc 1 810 6 is_stmt 1
	.loc 1 810 35 is_stmt 0
	sw	a1,24(s0)
	.loc 1 811 6 is_stmt 1
	.loc 1 811 8 is_stmt 0
	beq	a1,zero,.L118
.LVL109:
.L93:
	.loc 1 819 6 is_stmt 1
	.loc 1 819 15 is_stmt 0
	mv	a3,a0
	mv	a2,a0
	add	a1,a1,a0
	mv	a0,s0
	call	prvInsertTimerInActiveList
.LVL110:
	.loc 1 820 6 is_stmt 1
	j	.L82
.LVL111:
.L88:
	.loc 1 804 6
	.loc 1 804 24 is_stmt 0
	lbu	a5,40(s0)
	andi	a5,a5,-2
	sb	a5,40(s0)
	.loc 1 805 6 is_stmt 1
	j	.L82
.L90:
	.loc 1 828 7
	.loc 1 828 20 is_stmt 0
	lbu	a5,40(s0)
	.loc 1 828 9
	andi	a4,a5,2
	beq	a4,zero,.L119
	.loc 1 834 8 is_stmt 1
	.loc 1 834 26 is_stmt 0
	andi	a5,a5,-2
	sb	a5,40(s0)
	j	.L82
.L89:
	.loc 1 776 6 is_stmt 1
	.loc 1 776 24 is_stmt 0
	lbu	a5,40(s0)
	.loc 1 777 10
	lw	a1,24(s0)
	lw	a3,20(sp)
	.loc 1 776 24
	ori	a5,a5,1
	.loc 1 777 10
	mv	a2,a0
	.loc 1 776 24
	sb	a5,40(s0)
	.loc 1 777 6 is_stmt 1
	.loc 1 777 10 is_stmt 0
	add	a1,a3,a1
	mv	a0,s0
.LVL112:
	call	prvInsertTimerInActiveList
.LVL113:
	.loc 1 777 8
	beq	a0,zero,.L82
	.loc 1 781 7 is_stmt 1
	lw	a5,32(s0)
	mv	a0,s0
	jalr	a5
.LVL114:
	.loc 1 782 7
	.loc 1 784 7
	.loc 1 784 9 is_stmt 0
	lbu	a5,40(s0)
	andi	a5,a5,4
	beq	a5,zero,.L82
	.loc 1 786 8 is_stmt 1
	.loc 1 786 18 is_stmt 0
	lw	a5,24(s0)
	lw	a2,20(sp)
	li	a4,0
	li	a3,0
	add	a2,a2,a5
	li	a1,0
	mv	a0,s0
	call	xTimerGenericCommand
.LVL115:
	.loc 1 787 8 is_stmt 1
	.loc 1 787 10 is_stmt 0
	bne	a0,zero,.L82
	.loc 1 787 31 is_stmt 1
	call	vAssertCalled
.LVL116:
	j	.L82
.L116:
.LBB60:
	.loc 1 724 5
.LVL117:
	.loc 1 728 5
	.loc 1 731 5
	lw	a5,20(sp)
	lw	a1,28(sp)
	mv	a0,s0
	jalr	a5
.LVL118:
.LBE60:
	.loc 1 735 5
	.loc 1 742 3
	.loc 1 742 5 is_stmt 0
	lw	a5,16(sp)
	blt	a5,zero,.L82
	lw	s0,24(sp)
	j	.L81
.LVL119:
.L74:
.LBE62:
.LBE85:
.LBB86:
.LBB67:
	.loc 1 641 2 is_stmt 1
.LBE67:
.LBE86:
	.loc 1 551 3
.LBB87:
.LBB82:
	.loc 1 561 1
	.loc 1 562 1
	.loc 1 564 2
	call	vTaskSuspendAll
.LVL120:
	.loc 1 571 3
.LBB75:
.LBB72:
	.loc 1 647 1
	.loc 1 648 2
	.loc 1 650 2
	.loc 1 650 13 is_stmt 0
	call	xTaskGetTickCount
.LVL121:
	.loc 1 652 4
	lw	a5,0(s1)
	.loc 1 650 13
	mv	s0,a0
.LVL122:
	.loc 1 652 2 is_stmt 1
	.loc 1 652 4 is_stmt 0
	bltu	a0,a5,.L99
.LVL123:
	.loc 1 662 2 is_stmt 1
.LBE72:
.LBE75:
	.loc 1 592 49 is_stmt 0
	lw	a5,0(s7)
.LBB76:
.LBB73:
	.loc 1 662 12
	sw	s0,0(s1)
	.loc 1 664 2 is_stmt 1
.LVL124:
.LBE73:
.LBE76:
	.loc 1 572 3
	.loc 1 575 4
	.loc 1 588 5
	.loc 1 592 6
	.loc 1 592 49 is_stmt 0
	lw	a2,0(a5)
	.loc 1 592 113
	seqz	a2,a2
	j	.L98
.LVL125:
.L99:
.LBB77:
.LBB74:
	.loc 1 654 3 is_stmt 1
	call	prvSwitchTimerLists
.LVL126:
	.loc 1 655 3
	.loc 1 662 2
	.loc 1 662 12 is_stmt 0
	sw	s0,0(s1)
	.loc 1 664 2 is_stmt 1
.LVL127:
.LBE74:
.LBE77:
	.loc 1 572 3
	.loc 1 613 4
	.loc 1 613 13 is_stmt 0
	call	xTaskResumeAll
.LVL128:
	j	.L82
.LVL129:
.L117:
	sw	a0,12(sp)
.LBE82:
.LBE87:
.LBB88:
.LBB63:
.LBB61:
.LBB58:
	.loc 1 654 3 is_stmt 1
	call	prvSwitchTimerLists
.LVL130:
	lw	a0,12(sp)
	.loc 1 655 3
.LVL131:
	j	.L84
.LVL132:
.L115:
.LBE58:
.LBE61:
.LBE63:
.LBE88:
.LBB89:
.LBB83:
	.loc 1 577 5
	.loc 1 577 14 is_stmt 0
	call	xTaskResumeAll
.LVL133:
	.loc 1 578 5 is_stmt 1
.LBB78:
.LBB79:
	.loc 1 484 1
	.loc 1 485 1
	.loc 1 485 82 is_stmt 0
	lw	a5,0(s4)
	.loc 1 485 17
	lw	a5,12(a5)
	lw	s8,12(a5)
.LVL134:
	.loc 1 489 2 is_stmt 1
	.loc 1 489 11 is_stmt 0
	addi	a0,s8,4
	call	uxListRemove
.LVL135:
	.loc 1 490 2 is_stmt 1
	.loc 1 494 2
	.loc 1 494 15 is_stmt 0
	lbu	a5,40(s8)
	.loc 1 494 4
	andi	a4,a5,4
	bne	a4,zero,.L120
	.loc 1 514 3 is_stmt 1
	.loc 1 514 21 is_stmt 0
	andi	a5,a5,-2
	sb	a5,40(s8)
.L79:
	.loc 1 515 3 is_stmt 1
	.loc 1 519 2
	lw	a5,32(s8)
	mv	a0,s8
	jalr	a5
.LVL136:
	j	.L82
.LVL137:
.L118:
	sw	a0,12(sp)
.LBE79:
.LBE78:
.LBE83:
.LBE89:
.LBB90:
.LBB64:
	.loc 1 811 58
	call	vAssertCalled
.LVL138:
	lw	a1,24(s0)
	lw	a0,12(sp)
	j	.L93
.LVL139:
.L119:
	.loc 1 830 8
	mv	a0,s0
.LVL140:
	call	vPortFree
.LVL141:
	j	.L82
.LVL142:
.L120:
.LBE64:
.LBE90:
.LBB91:
.LBB84:
.LBB81:
.LBB80:
	.loc 1 499 3
	.loc 1 499 7 is_stmt 0
	lw	a1,24(s8)
	mv	a3,s2
	mv	a2,s0
	add	a1,s2,a1
	mv	a0,s8
	call	prvInsertTimerInActiveList
.LVL143:
	.loc 1 499 5
	beq	a0,zero,.L79
	.loc 1 503 4 is_stmt 1
	.loc 1 503 14 is_stmt 0
	li	a4,0
	li	a3,0
	mv	a2,s2
	li	a1,0
	mv	a0,s8
	call	xTimerGenericCommand
.LVL144:
	.loc 1 504 4 is_stmt 1
	.loc 1 504 6 is_stmt 0
	bne	a0,zero,.L79
	.loc 1 504 27 is_stmt 1
	call	vAssertCalled
.LVL145:
	j	.L79
.LBE80:
.LBE81:
.LBE84:
.LBE91:
	.cfi_endproc
.LFE12:
	.size	prvTimerTask, .-prvTimerTask
	.section	.text.xTimerGetTimerDaemonTaskHandle,"ax",@progbits
	.align	1
	.globl	xTimerGetTimerDaemonTaskHandle
	.type	xTimerGetTimerDaemonTaskHandle, @function
xTimerGetTimerDaemonTaskHandle:
.LFB6:
	.loc 1 425 1
	.cfi_startproc
	.loc 1 428 2
	.loc 1 425 1 is_stmt 0
	addi	sp,sp,-16
	.cfi_def_cfa_offset 16
	sw	s0,8(sp)
	.cfi_offset 8, -8
	.loc 1 428 5
	lui	s0,%hi(.LANCHOR7)
	addi	s0,s0,%lo(.LANCHOR7)
	lw	a0,0(s0)
	.loc 1 425 1
	sw	ra,12(sp)
	.cfi_offset 1, -4
	.loc 1 428 4
	beq	a0,zero,.L124
	.loc 1 430 1
	lw	ra,12(sp)
	.cfi_remember_state
	.cfi_restore 1
	lw	s0,8(sp)
	.cfi_restore 8
	addi	sp,sp,16
	.cfi_def_cfa_offset 0
	jr	ra
.L124:
	.cfi_restore_state
	.loc 1 428 12 is_stmt 1 discriminator 1
	call	vAssertCalled
.LVL146:
	lw	a0,0(s0)
	.loc 1 429 2 discriminator 1
	.loc 1 430 1 is_stmt 0 discriminator 1
	lw	ra,12(sp)
	.cfi_restore 1
	lw	s0,8(sp)
	.cfi_restore 8
	addi	sp,sp,16
	.cfi_def_cfa_offset 0
	jr	ra
	.cfi_endproc
.LFE6:
	.size	xTimerGetTimerDaemonTaskHandle, .-xTimerGetTimerDaemonTaskHandle
	.section	.text.xTimerGetPeriod,"ax",@progbits
	.align	1
	.globl	xTimerGetPeriod
	.type	xTimerGetPeriod, @function
xTimerGetPeriod:
.LFB7:
	.loc 1 434 1 is_stmt 1
	.cfi_startproc
.LVL147:
	.loc 1 435 1
	.loc 1 437 2
	.loc 1 437 4 is_stmt 0
	beq	a0,zero,.L131
	.loc 1 438 2 is_stmt 1
	.loc 1 439 1 is_stmt 0
	lw	a0,24(a0)
.LVL148:
	ret
.LVL149:
.L131:
	.loc 1 434 1 discriminator 1
	addi	sp,sp,-32
	.cfi_def_cfa_offset 32
	sw	ra,28(sp)
	.cfi_offset 1, -4
	sw	a0,12(sp)
	.loc 1 437 24 is_stmt 1 discriminator 1
	call	vAssertCalled
.LVL150:
	.loc 1 438 2 discriminator 1
	.loc 1 437 24 is_stmt 0 discriminator 1
	lw	a0,12(sp)
	.loc 1 439 1 discriminator 1
	lw	ra,28(sp)
	.cfi_restore 1
	lw	a0,24(a0)
	addi	sp,sp,32
	.cfi_def_cfa_offset 0
.LVL151:
	jr	ra
	.cfi_endproc
.LFE7:
	.size	xTimerGetPeriod, .-xTimerGetPeriod
	.section	.text.vTimerSetReloadMode,"ax",@progbits
	.align	1
	.globl	vTimerSetReloadMode
	.type	vTimerSetReloadMode, @function
vTimerSetReloadMode:
.LFB8:
	.loc 1 443 1 is_stmt 1
	.cfi_startproc
.LVL152:
	.loc 1 444 1
	.loc 1 443 1 is_stmt 0
	addi	sp,sp,-16
	.cfi_def_cfa_offset 16
	sw	s0,8(sp)
	sw	s1,4(sp)
	sw	ra,12(sp)
	.cfi_offset 8, -8
	.cfi_offset 9, -12
	.cfi_offset 1, -4
	.loc 1 443 1
	mv	s0,a0
.LVL153:
	.loc 1 446 2 is_stmt 1
	.loc 1 443 1 is_stmt 0
	mv	s1,a1
	.loc 1 446 4
	beq	a0,zero,.L137
.LVL154:
.L133:
	.loc 1 447 2 is_stmt 1
	call	vTaskEnterCritical
.LVL155:
	.loc 1 449 3
	.loc 1 451 22 is_stmt 0
	lbu	a5,40(s0)
	.loc 1 449 5
	bne	s1,zero,.L138
	.loc 1 455 4 is_stmt 1
	.loc 1 455 22 is_stmt 0
	andi	a5,a5,251
	sb	a5,40(s0)
	.loc 1 458 2 is_stmt 1
	.loc 1 459 1 is_stmt 0
	lw	s0,8(sp)
	.cfi_remember_state
	.cfi_restore 8
.LVL156:
	lw	ra,12(sp)
	.cfi_restore 1
	lw	s1,4(sp)
	.cfi_restore 9
.LVL157:
	addi	sp,sp,16
	.cfi_def_cfa_offset 0
	.loc 1 458 2
	tail	vTaskExitCritical
.LVL158:
.L138:
	.cfi_restore_state
	.loc 1 451 4 is_stmt 1
	.loc 1 451 22 is_stmt 0
	ori	a5,a5,4
	sb	a5,40(s0)
	.loc 1 458 2 is_stmt 1
	.loc 1 459 1 is_stmt 0
	lw	s0,8(sp)
	.cfi_remember_state
	.cfi_restore 8
.LVL159:
	lw	ra,12(sp)
	.cfi_restore 1
	lw	s1,4(sp)
	.cfi_restore 9
.LVL160:
	addi	sp,sp,16
	.cfi_def_cfa_offset 0
	.loc 1 458 2
	tail	vTaskExitCritical
.LVL161:
.L137:
	.cfi_restore_state
	.loc 1 446 24 is_stmt 1 discriminator 1
	call	vAssertCalled
.LVL162:
	j	.L133
	.cfi_endproc
.LFE8:
	.size	vTimerSetReloadMode, .-vTimerSetReloadMode
	.section	.text.xTimerGetExpiryTime,"ax",@progbits
	.align	1
	.globl	xTimerGetExpiryTime
	.type	xTimerGetExpiryTime, @function
xTimerGetExpiryTime:
.LFB9:
	.loc 1 463 1
	.cfi_startproc
.LVL163:
	.loc 1 464 1
	.loc 1 465 1
	.loc 1 467 2
	.loc 1 467 4 is_stmt 0
	beq	a0,zero,.L145
	.loc 1 468 2 is_stmt 1
.LVL164:
	.loc 1 469 2
	.loc 1 470 1 is_stmt 0
	lw	a0,4(a0)
.LVL165:
	ret
.LVL166:
.L145:
	.loc 1 463 1 discriminator 1
	addi	sp,sp,-32
	.cfi_def_cfa_offset 32
	sw	ra,28(sp)
	.cfi_offset 1, -4
	sw	a0,12(sp)
	.loc 1 467 24 is_stmt 1 discriminator 1
	call	vAssertCalled
.LVL167:
	.loc 1 468 2 discriminator 1
	.loc 1 467 24 is_stmt 0 discriminator 1
	lw	a0,12(sp)
.LVL168:
	.loc 1 469 2 is_stmt 1 discriminator 1
	.loc 1 470 1 is_stmt 0 discriminator 1
	lw	ra,28(sp)
	.cfi_restore 1
	lw	a0,4(a0)
.LVL169:
	addi	sp,sp,32
	.cfi_def_cfa_offset 0
.LVL170:
	jr	ra
	.cfi_endproc
.LFE9:
	.size	xTimerGetExpiryTime, .-xTimerGetExpiryTime
	.section	.text.pcTimerGetName,"ax",@progbits
	.align	1
	.globl	pcTimerGetName
	.type	pcTimerGetName, @function
pcTimerGetName:
.LFB10:
	.loc 1 474 1 is_stmt 1
	.cfi_startproc
.LVL171:
	.loc 1 475 1
	.loc 1 477 2
	.loc 1 477 4 is_stmt 0
	beq	a0,zero,.L152
	.loc 1 478 2 is_stmt 1
	.loc 1 479 1 is_stmt 0
	lw	a0,0(a0)
.LVL172:
	ret
.LVL173:
.L152:
	.loc 1 474 1 discriminator 1
	addi	sp,sp,-32
	.cfi_def_cfa_offset 32
	sw	ra,28(sp)
	.cfi_offset 1, -4
	sw	a0,12(sp)
	.loc 1 477 24 is_stmt 1 discriminator 1
	call	vAssertCalled
.LVL174:
	.loc 1 478 2 discriminator 1
	.loc 1 477 24 is_stmt 0 discriminator 1
	lw	a0,12(sp)
	.loc 1 479 1 discriminator 1
	lw	ra,28(sp)
	.cfi_restore 1
	lw	a0,0(a0)
	addi	sp,sp,32
	.cfi_def_cfa_offset 0
.LVL175:
	jr	ra
	.cfi_endproc
.LFE10:
	.size	pcTimerGetName, .-pcTimerGetName
	.section	.text.xTimerIsTimerActive,"ax",@progbits
	.align	1
	.globl	xTimerIsTimerActive
	.type	xTimerIsTimerActive, @function
xTimerIsTimerActive:
.LFB20:
	.loc 1 968 1 is_stmt 1
	.cfi_startproc
.LVL176:
	.loc 1 969 1
	.loc 1 970 1
	.loc 1 968 1 is_stmt 0
	addi	sp,sp,-16
	.cfi_def_cfa_offset 16
	sw	s0,8(sp)
	sw	ra,12(sp)
	.cfi_offset 8, -8
	.cfi_offset 1, -4
	.loc 1 968 1
	mv	s0,a0
.LVL177:
	.loc 1 972 2 is_stmt 1
	.loc 1 972 4 is_stmt 0
	beq	a0,zero,.L156
.LVL178:
.L154:
	.loc 1 975 2 is_stmt 1
	call	vTaskEnterCritical
.LVL179:
	.loc 1 977 3
	.loc 1 977 5 is_stmt 0
	lbu	s0,40(s0)
.LVL180:
	.loc 1 986 2
	call	vTaskExitCritical
.LVL181:
	.loc 1 989 1
	lw	ra,12(sp)
	.cfi_remember_state
	.cfi_restore 1
	.loc 1 979 12
	andi	s0,s0,1
.LVL182:
	.loc 1 986 2 is_stmt 1
	.loc 1 988 2
	.loc 1 989 1 is_stmt 0
	mv	a0,s0
	lw	s0,8(sp)
	.cfi_restore 8
.LVL183:
	addi	sp,sp,16
	.cfi_def_cfa_offset 0
	jr	ra
.LVL184:
.L156:
	.cfi_restore_state
	.loc 1 972 24 is_stmt 1 discriminator 1
	call	vAssertCalled
.LVL185:
	j	.L154
	.cfi_endproc
.LFE20:
	.size	xTimerIsTimerActive, .-xTimerIsTimerActive
	.section	.text.pvTimerGetTimerID,"ax",@progbits
	.align	1
	.globl	pvTimerGetTimerID
	.type	pvTimerGetTimerID, @function
pvTimerGetTimerID:
.LFB21:
	.loc 1 993 1
	.cfi_startproc
.LVL186:
	.loc 1 994 1
	.loc 1 993 1 is_stmt 0
	addi	sp,sp,-16
	.cfi_def_cfa_offset 16
	sw	s0,8(sp)
	sw	ra,12(sp)
	.cfi_offset 8, -8
	.cfi_offset 1, -4
	.loc 1 993 1
	mv	s0,a0
.LVL187:
	.loc 1 995 1 is_stmt 1
	.loc 1 997 2
	.loc 1 997 4 is_stmt 0
	beq	a0,zero,.L160
.LVL188:
.L158:
	.loc 1 999 2 is_stmt 1
	call	vTaskEnterCritical
.LVL189:
	.loc 1 1001 3
	.loc 1 1001 12 is_stmt 0
	lw	s0,28(s0)
.LVL190:
	.loc 1 1003 2 is_stmt 1
	call	vTaskExitCritical
.LVL191:
	.loc 1 1005 2
	.loc 1 1006 1 is_stmt 0
	lw	ra,12(sp)
	.cfi_remember_state
	.cfi_restore 1
	mv	a0,s0
	lw	s0,8(sp)
	.cfi_restore 8
.LVL192:
	addi	sp,sp,16
	.cfi_def_cfa_offset 0
	jr	ra
.LVL193:
.L160:
	.cfi_restore_state
	.loc 1 997 24 is_stmt 1 discriminator 1
	call	vAssertCalled
.LVL194:
	j	.L158
	.cfi_endproc
.LFE21:
	.size	pvTimerGetTimerID, .-pvTimerGetTimerID
	.section	.text.vTimerSetTimerID,"ax",@progbits
	.align	1
	.globl	vTimerSetTimerID
	.type	vTimerSetTimerID, @function
vTimerSetTimerID:
.LFB22:
	.loc 1 1010 1
	.cfi_startproc
.LVL195:
	.loc 1 1011 1
	.loc 1 1010 1 is_stmt 0
	addi	sp,sp,-16
	.cfi_def_cfa_offset 16
	sw	s0,8(sp)
	sw	s1,4(sp)
	sw	ra,12(sp)
	.cfi_offset 8, -8
	.cfi_offset 9, -12
	.cfi_offset 1, -4
	.loc 1 1010 1
	mv	s0,a0
.LVL196:
	.loc 1 1013 2 is_stmt 1
	.loc 1 1010 1 is_stmt 0
	mv	s1,a1
	.loc 1 1013 4
	beq	a0,zero,.L164
.LVL197:
.L162:
	.loc 1 1015 2 is_stmt 1
	call	vTaskEnterCritical
.LVL198:
	.loc 1 1017 3
	.loc 1 1017 22 is_stmt 0
	sw	s1,28(s0)
	.loc 1 1019 2 is_stmt 1
	.loc 1 1020 1 is_stmt 0
	lw	s0,8(sp)
	.cfi_remember_state
	.cfi_restore 8
.LVL199:
	lw	ra,12(sp)
	.cfi_restore 1
	lw	s1,4(sp)
	.cfi_restore 9
.LVL200:
	addi	sp,sp,16
	.cfi_def_cfa_offset 0
	.loc 1 1019 2
	tail	vTaskExitCritical
.LVL201:
.L164:
	.cfi_restore_state
	.loc 1 1013 24 is_stmt 1 discriminator 1
	call	vAssertCalled
.LVL202:
	j	.L162
	.cfi_endproc
.LFE22:
	.size	vTimerSetTimerID, .-vTimerSetTimerID
	.section	.text.xTimerPendFunctionCallFromISR,"ax",@progbits
	.align	1
	.globl	xTimerPendFunctionCallFromISR
	.type	xTimerPendFunctionCallFromISR, @function
xTimerPendFunctionCallFromISR:
.LFB23:
	.loc 1 1026 2
	.cfi_startproc
.LVL203:
	.loc 1 1027 2
	.loc 1 1028 2
	.loc 1 1032 3
	.loc 1 1026 2 is_stmt 0
	addi	sp,sp,-32
	.cfi_def_cfa_offset 32
	.loc 1 1037 13
	lui	a5,%hi(.LANCHOR0)
	.loc 1 1033 53
	sw	a0,4(sp)
	.loc 1 1037 13
	lw	a0,%lo(.LANCHOR0)(a5)
.LVL204:
	.loc 1 1026 2
	mv	a5,a3
	.loc 1 1034 47
	sw	a1,8(sp)
	.loc 1 1035 47
	sw	a2,12(sp)
	.loc 1 1037 13
	mv	a1,sp
.LVL205:
	mv	a2,a5
.LVL206:
	li	a3,0
.LVL207:
	.loc 1 1032 23
	li	a5,-2
	.loc 1 1026 2
	sw	ra,28(sp)
	.cfi_offset 1, -4
	.loc 1 1032 23
	sw	a5,0(sp)
	.loc 1 1033 3 is_stmt 1
	.loc 1 1034 3
	.loc 1 1035 3
	.loc 1 1037 3
	.loc 1 1037 13 is_stmt 0
	call	xQueueGenericSendFromISR
.LVL208:
	.loc 1 1039 3 is_stmt 1
	.loc 1 1041 3
	.loc 1 1042 2 is_stmt 0
	lw	ra,28(sp)
	.cfi_restore 1
	addi	sp,sp,32
	.cfi_def_cfa_offset 0
	jr	ra
	.cfi_endproc
.LFE23:
	.size	xTimerPendFunctionCallFromISR, .-xTimerPendFunctionCallFromISR
	.section	.text.xTimerPendFunctionCall,"ax",@progbits
	.align	1
	.globl	xTimerPendFunctionCall
	.type	xTimerPendFunctionCall, @function
xTimerPendFunctionCall:
.LFB24:
	.loc 1 1050 2 is_stmt 1
	.cfi_startproc
.LVL209:
	.loc 1 1051 2
	.loc 1 1052 2
	.loc 1 1057 3
	.loc 1 1050 2 is_stmt 0
	addi	sp,sp,-64
	.cfi_def_cfa_offset 64
	sw	s0,56(sp)
	.cfi_offset 8, -8
	.loc 1 1057 23
	lui	s0,%hi(.LANCHOR0)
	addi	s0,s0,%lo(.LANCHOR0)
	lw	a5,0(s0)
	.loc 1 1050 2
	sw	s1,52(sp)
	sw	s2,48(sp)
	sw	s3,44(sp)
	sw	ra,60(sp)
	.cfi_offset 9, -12
	.cfi_offset 18, -16
	.cfi_offset 19, -20
	.cfi_offset 1, -4
	.loc 1 1050 2
	mv	s1,a2
	mv	s3,a0
	mv	s2,a1
	mv	a2,a3
.LVL210:
	.loc 1 1057 5
	beq	a5,zero,.L170
.LVL211:
.L168:
	.loc 1 1061 3 is_stmt 1
	.loc 1 1066 13 is_stmt 0
	addi	a1,sp,16
	mv	a0,a5
	li	a3,0
	.loc 1 1061 23
	li	a5,-1
	.loc 1 1062 53
	sw	s3,20(sp)
	.loc 1 1063 47
	sw	s2,24(sp)
	.loc 1 1064 47
	sw	s1,28(sp)
	.loc 1 1061 23
	sw	a5,16(sp)
	.loc 1 1062 3 is_stmt 1
	.loc 1 1063 3
	.loc 1 1064 3
	.loc 1 1066 3
	.loc 1 1066 13 is_stmt 0
	call	xQueueGenericSend
.LVL212:
	.loc 1 1068 3 is_stmt 1
	.loc 1 1070 3
	.loc 1 1071 2 is_stmt 0
	lw	ra,60(sp)
	.cfi_remember_state
	.cfi_restore 1
	lw	s0,56(sp)
	.cfi_restore 8
	lw	s1,52(sp)
	.cfi_restore 9
.LVL213:
	lw	s2,48(sp)
	.cfi_restore 18
.LVL214:
	lw	s3,44(sp)
	.cfi_restore 19
.LVL215:
	addi	sp,sp,64
	.cfi_def_cfa_offset 0
	jr	ra
.LVL216:
.L170:
	.cfi_restore_state
	sw	a3,12(sp)
	.loc 1 1057 30 is_stmt 1 discriminator 1
	call	vAssertCalled
.LVL217:
	lw	a5,0(s0)
	lw	a2,12(sp)
	j	.L168
	.cfi_endproc
.LFE24:
	.size	xTimerPendFunctionCall, .-xTimerPendFunctionCall
	.section	.text.uxTimerGetTimerNumber,"ax",@progbits
	.align	1
	.globl	uxTimerGetTimerNumber
	.type	uxTimerGetTimerNumber, @function
uxTimerGetTimerNumber:
.LFB25:
	.loc 1 1079 2
	.cfi_startproc
.LVL218:
	.loc 1 1080 3
	.loc 1 1081 2 is_stmt 0
	lw	a0,36(a0)
.LVL219:
	ret
	.cfi_endproc
.LFE25:
	.size	uxTimerGetTimerNumber, .-uxTimerGetTimerNumber
	.section	.text.vTimerSetTimerNumber,"ax",@progbits
	.align	1
	.globl	vTimerSetTimerNumber
	.type	vTimerSetTimerNumber, @function
vTimerSetTimerNumber:
.LFB26:
	.loc 1 1089 2 is_stmt 1
	.cfi_startproc
.LVL220:
	.loc 1 1090 3
	.loc 1 1090 43 is_stmt 0
	sw	a1,36(a0)
	.loc 1 1091 2
	ret
	.cfi_endproc
.LFE26:
	.size	vTimerSetTimerNumber, .-vTimerSetTimerNumber
	.section	.bss.ucStaticTimerQueueStorage.2344,"aw",@nobits
	.align	2
	.set	.LANCHOR6,. + 0
	.type	ucStaticTimerQueueStorage.2344, @object
	.size	ucStaticTimerQueueStorage.2344, 64
ucStaticTimerQueueStorage.2344:
	.zero	64
	.section	.bss.xActiveTimerList1,"aw",@nobits
	.align	2
	.set	.LANCHOR1,. + 0
	.type	xActiveTimerList1, @object
	.size	xActiveTimerList1, 20
xActiveTimerList1:
	.zero	20
	.section	.bss.xActiveTimerList2,"aw",@nobits
	.align	2
	.set	.LANCHOR2,. + 0
	.type	xActiveTimerList2, @object
	.size	xActiveTimerList2, 20
xActiveTimerList2:
	.zero	20
	.section	.bss.xStaticTimerQueue.2343,"aw",@nobits
	.align	2
	.set	.LANCHOR5,. + 0
	.type	xStaticTimerQueue.2343, @object
	.size	xStaticTimerQueue.2343, 80
xStaticTimerQueue.2343:
	.zero	80
	.section	.rodata.prvCheckForValidListAndQueue.str1.4,"aMS",@progbits,1
	.align	2
.LC0:
	.string	"TmrQ"
	.section	.rodata.xTimerCreateTimerTask.str1.4,"aMS",@progbits,1
	.align	2
.LC1:
	.string	"Tmr Svc"
	.section	.sbss.pxCurrentTimerList,"aw",@nobits
	.align	2
	.set	.LANCHOR3,. + 0
	.type	pxCurrentTimerList, @object
	.size	pxCurrentTimerList, 4
pxCurrentTimerList:
	.zero	4
	.section	.sbss.pxOverflowTimerList,"aw",@nobits
	.align	2
	.set	.LANCHOR4,. + 0
	.type	pxOverflowTimerList, @object
	.size	pxOverflowTimerList, 4
pxOverflowTimerList:
	.zero	4
	.section	.sbss.xLastTime.2297,"aw",@nobits
	.align	2
	.set	.LANCHOR8,. + 0
	.type	xLastTime.2297, @object
	.size	xLastTime.2297, 4
xLastTime.2297:
	.zero	4
	.section	.sbss.xTimerQueue,"aw",@nobits
	.align	2
	.set	.LANCHOR0,. + 0
	.type	xTimerQueue, @object
	.size	xTimerQueue, 4
xTimerQueue:
	.zero	4
	.section	.sbss.xTimerTaskHandle,"aw",@nobits
	.align	2
	.set	.LANCHOR7,. + 0
	.type	xTimerTaskHandle, @object
	.size	xTimerTaskHandle, 4
xTimerTaskHandle:
	.zero	4
	.text
.Letext0:
	.file 2 "/home/hogc/build-tools/sdk/bl/bl_iot_sdk/toolchain/riscv/Linux/lib/gcc/riscv64-unknown-elf/8.3.0/include/stddef.h"
	.file 3 "/home/hogc/build-tools/sdk/bl/bl_iot_sdk/toolchain/riscv/Linux/riscv64-unknown-elf/include/sys/_types.h"
	.file 4 "/home/hogc/build-tools/sdk/bl/bl_iot_sdk/toolchain/riscv/Linux/riscv64-unknown-elf/include/sys/reent.h"
	.file 5 "/home/hogc/build-tools/sdk/bl/bl_iot_sdk/toolchain/riscv/Linux/riscv64-unknown-elf/include/sys/lock.h"
	.file 6 "/home/hogc/build-tools/sdk/bl/bl_iot_sdk/toolchain/riscv/Linux/riscv64-unknown-elf/include/stdlib.h"
	.file 7 "/home/hogc/build-tools/sdk/bl/bl_iot_sdk/toolchain/riscv/Linux/lib/gcc/riscv64-unknown-elf/8.3.0/include/stdint-gcc.h"
	.file 8 "/home/hogc/build-tools/sdk/bl/bl_iot_sdk/components/bl602/freertos_riscv_ram/config/projdefs.h"
	.file 9 "/home/hogc/build-tools/sdk/bl/bl_iot_sdk/components/bl602/freertos_riscv_ram/portable/GCC/RISC-V/portmacro.h"
	.file 10 "/home/hogc/build-tools/sdk/bl/bl_iot_sdk/components/bl602/freertos_riscv_ram/config/FreeRTOS.h"
	.file 11 "/home/hogc/build-tools/sdk/bl/bl_iot_sdk/components/bl602/freertos_riscv_ram/config/list.h"
	.file 12 "/home/hogc/build-tools/sdk/bl/bl_iot_sdk/components/bl602/freertos_riscv_ram/config/task.h"
	.file 13 "/home/hogc/build-tools/sdk/bl/bl_iot_sdk/components/bl602/freertos_riscv_ram/config/queue.h"
	.file 14 "/home/hogc/build-tools/sdk/bl/bl_iot_sdk/components/bl602/freertos_riscv_ram/config/timers.h"
	.file 15 "/home/hogc/build-tools/sdk/bl/bl_iot_sdk/components/bl602/freertos_riscv_ram/config/FreeRTOSConfig.h"
	.file 16 "/home/hogc/build-tools/sdk/bl/bl_iot_sdk/components/bl602/freertos_riscv_ram/config/portable.h"