	.file	"port.c"
	.option nopic
	.attribute arch, "rv32i2p0_m2p0_f2p0_c2p0"
	.attribute unaligned_access, 0
	.attribute stack_align, 16
	.text
.Ltext0:
	.cfi_sections	.debug_frame
	.section	.text.vPortSetupTimerInterrupt,"ax",@progbits
	.align	1
	.weak	vPortSetupTimerInterrupt
	.type	vPortSetupTimerInterrupt, @function
vPortSetupTimerInterrupt:
.LFB1:
	.file 1 "/b-l/bl_iot_sdk_new/components/bl602/freertos_riscv_ram/portable/GCC/RISC-V/port.c"
	.loc 1 111 2
	.cfi_startproc
	.loc 1 112 2
	.loc 1 113 2
.LVL0:
	.loc 1 114 2
	.loc 1 118 22 is_stmt 0
	li	a5,33603584
.L2:
	.loc 1 116 3 is_stmt 1 discriminator 1
	.loc 1 118 4 discriminator 1
	.loc 1 118 22 is_stmt 0 discriminator 1
	lw	a3,-4(a5)
.LVL1:
	.loc 1 119 4 is_stmt 1 discriminator 1
	.loc 1 119 21 is_stmt 0 discriminator 1
	lw	a2,-8(a5)
.LVL2:
	.loc 1 120 33 discriminator 1
	lw	a4,-4(a5)
	.loc 1 120 3 discriminator 1
	bne	a4,a3,.L2
	.loc 1 122 3 is_stmt 1
	.loc 1 123 3
	.loc 1 124 3
	.loc 1 125 3
	.loc 1 125 15 is_stmt 0
	li	a3,8192
.LVL3:
	addi	a3,a3,1808
	add	a3,a2,a3
	.loc 1 129 15
	li	a5,20480
	.loc 1 125 15
	sltu	a6,a3,a2
	mv	a0,a3
	.loc 1 129 15
	addi	a5,a5,-480
	.loc 1 126 36
	li	a3,33570816
	sw	a0,0(a3)
	.loc 1 129 15
	add	a5,a2,a5
	.loc 1 125 15
	add	a1,a6,a4
	.loc 1 126 3 is_stmt 1
	.loc 1 126 36 is_stmt 0
	sw	a1,4(a3)
	.loc 1 129 3 is_stmt 1
	.loc 1 129 15 is_stmt 0
	sltu	a2,a5,a2
.LVL4:
	lui	a3,%hi(.LANCHOR0)
	addi	a3,a3,%lo(.LANCHOR0)
	add	a4,a2,a4
	sw	a5,0(a3)
	sw	a4,4(a3)
	.loc 1 130 2
	ret
	.cfi_endproc
.LFE1:
	.size	vPortSetupTimerInterrupt, .-vPortSetupTimerInterrupt
	.section	.text.xPortStartScheduler,"ax",@progbits
	.align	1
	.globl	xPortStartScheduler
	.type	xPortStartScheduler, @function
xPortStartScheduler:
.LFB2:
	.loc 1 136 1 is_stmt 1
	.cfi_startproc
	.loc 1 137 1
.LBB2:
	.loc 1 141 3
.LBE2:
	.loc 1 136 1 is_stmt 0
	addi	sp,sp,-32
	.cfi_def_cfa_offset 32
	sw	ra,28(sp)
	.cfi_offset 1, -4
.LBB3:
	.loc 1 141 21
	sw	zero,12(sp)
	.loc 1 145 3 is_stmt 1
 #APP
# 145 "/b-l/bl_iot_sdk_new/components/bl602/freertos_riscv_ram/portable/GCC/RISC-V/port.c" 1
	csrr a5, mtvec
# 0 "" 2
 #NO_APP
	sw	a5,12(sp)
	.loc 1 150 3
	.loc 1 150 24 is_stmt 0
	lui	a5,%hi(__freertos_irq_stack_top)
	addi	a5,a5,%lo(__freertos_irq_stack_top)
	andi	a5,a5,7
	.loc 1 150 5
	bne	a5,zero,.L11
.L6:
.LBE3:
	.loc 1 158 2 is_stmt 1
	call	vPortSetupTimerInterrupt
.LVL5:
	.loc 1 165 3
	li	a5,4096
	addi	a5,a5,-1920
 #APP
# 165 "/b-l/bl_iot_sdk_new/components/bl602/freertos_riscv_ram/portable/GCC/RISC-V/port.c" 1
	csrs mie, a5
# 0 "" 2
	.loc 1 182 5
	.loc 1 182 38 is_stmt 0
 #NO_APP
	li	a5,41943040
	li	a4,1
	sb	a4,1031(a5)
	.loc 1 184 2 is_stmt 1
	call	xPortStartFirstTask
.LVL6:
	.loc 1 188 2
	.loc 1 189 1 is_stmt 0
	lw	ra,28(sp)
	.cfi_remember_state
	.cfi_restore 1
	li	a0,0
	addi	sp,sp,32
	.cfi_def_cfa_offset 0
	jr	ra
.L11:
	.cfi_restore_state
.LBB4:
	.loc 1 150 53 is_stmt 1 discriminator 1
	call	vAssertCalled
.LVL7:
	j	.L6
.LBE4:
	.cfi_endproc
.LFE2:
	.size	xPortStartScheduler, .-xPortStartScheduler
	.section	.text.vPortEndScheduler,"ax",@progbits
	.align	1
	.globl	vPortEndScheduler
	.type	vPortEndScheduler, @function
vPortEndScheduler:
.LFB3:
	.loc 1 193 1
	.cfi_startproc
.L13:
	.loc 1 195 2 discriminator 1
	.loc 1 195 11 discriminator 1
	j	.L13
	.cfi_endproc
.LFE3:
	.size	vPortEndScheduler, .-vPortEndScheduler
	.globl	pTrapNetCounter
	.globl	TrapNetCounter
	.globl	pullMachineTimerCompareRegister
	.globl	uxTimerIncrementsForOneTick
	.globl	pullNextTime
	.globl	ullNextTime
	.globl	xISRStackTop
	.section	.sbss.TrapNetCounter,"aw",@nobits
	.align	2
	.type	TrapNetCounter, @object
	.size	TrapNetCounter, 4
TrapNetCounter:
	.zero	4
	.section	.sbss.ullNextTime,"aw",@nobits
	.align	3
	.set	.LANCHOR0,. + 0
	.type	ullNextTime, @object
	.size	ullNextTime, 8
ullNextTime:
	.zero	8
	.section	.sdata.pTrapNetCounter,"aw"
	.align	2
	.type	pTrapNetCounter, @object
	.size	pTrapNetCounter, 4
pTrapNetCounter:
	.word	TrapNetCounter
	.section	.sdata.pullNextTime,"aw"
	.align	2
	.type	pullNextTime, @object
	.size	pullNextTime, 4
pullNextTime:
	.word	ullNextTime
	.section	.sdata2.pullMachineTimerCompareRegister,"a"
	.align	2
	.type	pullMachineTimerCompareRegister, @object
	.size	pullMachineTimerCompareRegister, 4
pullMachineTimerCompareRegister:
	.word	33570816
	.section	.sdata2.uxTimerIncrementsForOneTick,"a"
	.align	2
	.type	uxTimerIncrementsForOneTick, @object
	.size	uxTimerIncrementsForOneTick, 4
uxTimerIncrementsForOneTick:
	.word	10000
	.section	.sdata2.xISRStackTop,"a"
	.align	2
	.type	xISRStackTop, @object
	.size	xISRStackTop, 4
xISRStackTop:
	.word	__freertos_irq_stack_top
	.text
.Letext0:
	.file 2 "/b-l/bl_iot_sdk_new/toolchain/riscv/Linux/lib/gcc/riscv64-unknown-elf/8.3.0/include/stddef.h"
	.file 3 "/b-l/bl_iot_sdk_new/toolchain/riscv/Linux/lib/gcc/riscv64-unknown-elf/8.3.0/include/stdint-gcc.h"
	.file 4 "/b-l/bl_iot_sdk_new/components/bl602/freertos_riscv_ram/portable/GCC/RISC-V/portmacro.h"
	.file 5 "/b-l/bl_iot_sdk_new/components/bl602/freertos_riscv_ram/config/FreeRTOSConfig.h"