	.file	"aos_freertos.c"
	.option nopic
	.attribute arch, "rv32i2p0_m2p0_f2p0_c2p0"
	.attribute unaligned_access, 0
	.attribute stack_align, 16
	.text
.Ltext0:
	.cfi_sections	.debug_frame
	.section	.text.dfl_entry,"ax",@progbits
	.align	1
	.type	dfl_entry, @function
dfl_entry:
.LFB8:
	.file 1 "/home/hogc/build-tools/sdk/bl/bl_iot_sdk/components/stage/yloop/src/aos_freertos.c"
	.loc 1 49 1
	.cfi_startproc
.LVL0:
	.loc 1 50 5
	.loc 1 51 5
	.loc 1 49 1 is_stmt 0
	addi	sp,sp,-16
	.cfi_def_cfa_offset 16
	sw	ra,12(sp)
	sw	s0,8(sp)
	sw	s1,4(sp)
	.cfi_offset 1, -4
	.cfi_offset 8, -8
	.cfi_offset 9, -12
	.loc 1 52 11
	lw	s1,8(a0)
	.loc 1 51 12
	lw	s0,4(a0)
.LVL1:
	.loc 1 52 5 is_stmt 1
	.loc 1 53 5
	call	vPortFree
.LVL2:
	.loc 1 55 5
	mv	a0,s1
	jalr	s0
.LVL3:
	.loc 1 57 5
	.loc 1 58 1 is_stmt 0
	lw	s0,8(sp)
	.cfi_restore 8
.LVL4:
	lw	ra,12(sp)
	.cfi_restore 1
	lw	s1,4(sp)
	.cfi_restore 9
.LVL5:
	.loc 1 57 5
	li	a0,0
	.loc 1 58 1
	addi	sp,sp,16
	.cfi_def_cfa_offset 0
	.loc 1 57 5
	tail	vTaskDelete
.LVL6:
	.cfi_endproc
.LFE8:
	.size	dfl_entry, .-dfl_entry
	.section	.text.worker_entry,"ax",@progbits
	.align	1
	.type	worker_entry, @function
worker_entry:
.LFB44:
	.loc 1 350 1 is_stmt 1
	.cfi_startproc
.LVL7:
	.loc 1 351 5
	.loc 1 352 5
	.loc 1 350 1 is_stmt 0
	addi	sp,sp,-16
	.cfi_def_cfa_offset 16
	sw	s0,8(sp)
	sw	ra,12(sp)
	.cfi_offset 8, -8
	.cfi_offset 1, -4
	.loc 1 350 1
	mv	s0,a0
	.loc 1 352 10
	lw	a0,8(a0)
.LVL8:
	.loc 1 352 8
	beq	a0,zero,.L4
	.loc 1 353 9 is_stmt 1
	.loc 1 353 81 is_stmt 0
	li	a5,1000001536
	addi	a5,a5,-1536
	mul	a0,a0,a5
	.loc 1 353 9
	li	a5,1000
	divu	a0,a0,a5
	call	vTaskDelay
.LVL9:
.L4:
	.loc 1 355 5 is_stmt 1
	lw	t1,0(s0)
	lw	a0,4(s0)
	.loc 1 356 1 is_stmt 0
	lw	s0,8(sp)
	.cfi_restore 8
.LVL10:
	lw	ra,12(sp)
	.cfi_restore 1
	addi	sp,sp,16
	.cfi_def_cfa_offset 0
	.loc 1 355 5
	jr	t1
.LVL11:
	.cfi_endproc
.LFE44:
	.size	worker_entry, .-worker_entry
	.section	.text.aos_reboot,"ax",@progbits
	.align	1
	.globl	aos_reboot
	.type	aos_reboot, @function
aos_reboot:
.LFB5:
	.loc 1 19 1 is_stmt 1
	.cfi_startproc
	.loc 1 20 1
	ret
	.cfi_endproc
.LFE5:
	.size	aos_reboot, .-aos_reboot
	.section	.text.aos_get_hz,"ax",@progbits
	.align	1
	.globl	aos_get_hz
	.type	aos_get_hz, @function
aos_get_hz:
.LFB6:
	.loc 1 23 1
	.cfi_startproc
	.loc 1 24 5
	.loc 1 25 1 is_stmt 0
	li	a0,100
	ret
	.cfi_endproc
.LFE6:
	.size	aos_get_hz, .-aos_get_hz
	.section	.text.aos_version_get,"ax",@progbits
	.align	1
	.globl	aos_version_get
	.type	aos_version_get, @function
aos_version_get:
.LFB7:
	.loc 1 28 1 is_stmt 1
	.cfi_startproc
	.loc 1 29 5
	.loc 1 29 12 is_stmt 0
	lui	a0,%hi(.LC0)
	.loc 1 30 1
	addi	a0,a0,%lo(.LC0)
	ret
	.cfi_endproc
.LFE7:
	.size	aos_version_get, .-aos_version_get
	.section	.text.vPortCleanUpTCB,"ax",@progbits
	.align	1
	.globl	vPortCleanUpTCB
	.type	vPortCleanUpTCB, @function
vPortCleanUpTCB:
.LFB9:
	.loc 1 61 1 is_stmt 1
	.cfi_startproc
.LVL12:
	.loc 1 62 5
	.loc 1 64 5
	.loc 1 64 8 is_stmt 0
	lw	a4,152(a0)
	li	a5,538382336
	addi	a5,a5,32
	bne	a4,a5,.L12
	.loc 1 61 1
	addi	sp,sp,-16
	.cfi_def_cfa_offset 16
	sw	s0,8(sp)
	sw	ra,12(sp)
	.cfi_offset 8, -8
	.cfi_offset 1, -4
	mv	s0,a0
	.loc 1 67 5 is_stmt 1
	lw	a0,116(a0)
.LVL13:
	call	vPortFree
.LVL14:
	.loc 1 68 5
	mv	a0,s0
	.loc 1 69 1 is_stmt 0
	lw	s0,8(sp)
	.cfi_restore 8
.LVL15:
	lw	ra,12(sp)
	.cfi_restore 1
	addi	sp,sp,16
	.cfi_def_cfa_offset 0
	.loc 1 68 5
	tail	vPortFree
.LVL16:
.L12:
	ret
	.cfi_endproc
.LFE9:
	.size	vPortCleanUpTCB, .-vPortCleanUpTCB
	.section	.text.aos_task_new,"ax",@progbits
	.align	1
	.globl	aos_task_new
	.type	aos_task_new, @function
aos_task_new:
.LFB10:
	.loc 1 73 1 is_stmt 1
	.cfi_startproc
.LVL17:
	.loc 1 74 5
	.loc 1 75 5
	.loc 1 73 1 is_stmt 0
	addi	sp,sp,-32
	.cfi_def_cfa_offset 32
	sw	s4,8(sp)
	.cfi_offset 20, -24
	mv	s4,a0
	.loc 1 75 29
	li	a0,156
.LVL18:
	.loc 1 73 1
	sw	ra,28(sp)
	sw	s0,24(sp)
	sw	s1,20(sp)
	sw	s2,16(sp)
	sw	s3,12(sp)
	sw	s5,4(sp)
	.cfi_offset 1, -4
	.cfi_offset 8, -8
	.cfi_offset 9, -12
	.cfi_offset 18, -16
	.cfi_offset 19, -20
	.cfi_offset 21, -28
	mv	s3,a3
	mv	s5,a2
	sw	s6,0(sp)
	.cfi_offset 22, -32
	.loc 1 73 1
	mv	s6,a1
	.loc 1 75 29
	call	pvPortMalloc
.LVL19:
	mv	s0,a0
.LVL20:
	.loc 1 76 5 is_stmt 1
	.loc 1 76 25 is_stmt 0
	li	a0,12
	call	pvPortMalloc
.LVL21:
	mv	s1,a0
.LVL22:
	.loc 1 77 5 is_stmt 1
	.loc 1 77 19 is_stmt 0
	mv	a0,s3
	call	pvPortMalloc
.LVL23:
	.loc 1 79 5
	mv	a2,s3
	li	a1,0
	.loc 1 77 19
	mv	s2,a0
.LVL24:
	.loc 1 79 5 is_stmt 1
	call	memset
.LVL25:
	.loc 1 80 5
	li	a2,156
	li	a1,0
	mv	a0,s0
	call	memset
.LVL26:
	.loc 1 81 5
	.loc 1 81 22 is_stmt 0
	li	a5,-16
	sw	a5,96(s0)
	.loc 1 82 5 is_stmt 1
	.loc 1 83 5 is_stmt 0
	li	a2,31
	mv	a1,s4
	.loc 1 82 17
	sw	s2,116(s0)
	.loc 1 83 5 is_stmt 1
	addi	a0,s0,120
	call	strncpy
.LVL27:
	.loc 1 84 5
	.loc 1 84 17 is_stmt 0
	li	a5,538382336
	addi	a5,a5,32
	sw	a5,152(s0)
	.loc 1 86 5 is_stmt 1
	.loc 1 91 15 is_stmt 0
	lui	a0,%hi(dfl_entry)
	.loc 1 86 16
	sw	s0,0(s1)
	.loc 1 87 5 is_stmt 1
	.loc 1 87 14 is_stmt 0
	sw	s6,4(s1)
	.loc 1 88 5 is_stmt 1
	.loc 1 88 15 is_stmt 0
	sw	s5,8(s1)
	.loc 1 90 5 is_stmt 1
.LVL28:
	.loc 1 91 5
	.loc 1 91 15 is_stmt 0
	mv	a6,s0
	mv	a5,s2
	li	a4,10
	mv	a3,s1
	srli	a2,s3,2
.LVL29:
	mv	a1,s4
	addi	a0,a0,%lo(dfl_entry)
	call	xTaskCreateStatic
.LVL30:
	.loc 1 93 5 is_stmt 1
	.loc 1 93 8 is_stmt 0
	bne	a0,zero,.L19
	.loc 1 94 9 is_stmt 1
	mv	a0,s0
.LVL31:
	call	vPortFree
.LVL32:
	.loc 1 95 9
	mv	a0,s2
	call	vPortFree
.LVL33:
	.loc 1 96 9
	mv	a0,s1
	call	vPortFree
.LVL34:
	.loc 1 98 5
	.loc 1 98 24 is_stmt 0
	li	a0,-1
.L17:
	.loc 1 99 1
	lw	ra,28(sp)
	.cfi_remember_state
	.cfi_restore 1
	lw	s0,24(sp)
	.cfi_restore 8
.LVL35:
	lw	s1,20(sp)
	.cfi_restore 9
.LVL36:
	lw	s2,16(sp)
	.cfi_restore 18
.LVL37:
	lw	s3,12(sp)
	.cfi_restore 19
.LVL38:
	lw	s4,8(sp)
	.cfi_restore 20
.LVL39:
	lw	s5,4(sp)
	.cfi_restore 21
.LVL40:
	lw	s6,0(sp)
	.cfi_restore 22
.LVL41:
	addi	sp,sp,32
	.cfi_def_cfa_offset 0
	jr	ra
.LVL42:
.L19:
	.cfi_restore_state
	.loc 1 98 24
	li	a0,0
.LVL43:
	j	.L17
	.cfi_endproc
.LFE10:
	.size	aos_task_new, .-aos_task_new
	.section	.text.aos_task_new_ext,"ax",@progbits
	.align	1
	.globl	aos_task_new_ext
	.type	aos_task_new_ext, @function
aos_task_new_ext:
.LFB11:
	.loc 1 103 1 is_stmt 1
	.cfi_startproc
.LVL44:
	.loc 1 104 5
	.loc 1 103 1 is_stmt 0
	mv	a0,a1
.LVL45:
	mv	a1,a2
.LVL46:
	mv	a2,a3
.LVL47:
	.loc 1 104 12
	mv	a3,a4
.LVL48:
	tail	aos_task_new
.LVL49:
	.cfi_endproc
.LFE11:
	.size	aos_task_new_ext, .-aos_task_new_ext
	.section	.text.aos_task_exit,"ax",@progbits
	.align	1
	.globl	aos_task_exit
	.type	aos_task_exit, @function
aos_task_exit:
.LFB12:
	.loc 1 108 1 is_stmt 1
	.cfi_startproc
.LVL50:
	.loc 1 109 5
	li	a0,0
.LVL51:
	tail	vTaskDelete
.LVL52:
	.cfi_endproc
.LFE12:
	.size	aos_task_exit, .-aos_task_exit
	.section	.text.aos_task_name,"ax",@progbits
	.align	1
	.globl	aos_task_name
	.type	aos_task_name, @function
aos_task_name:
.LFB13:
	.loc 1 113 1
	.cfi_startproc
	.loc 1 114 5
	.loc 1 113 1 is_stmt 0
	addi	sp,sp,-16
	.cfi_def_cfa_offset 16
	sw	ra,12(sp)
	.cfi_offset 1, -4
	.loc 1 114 48
	call	xTaskGetCurrentTaskHandle
.LVL53:
	.loc 1 115 5 is_stmt 1
	.loc 1 115 8 is_stmt 0
	lw	a4,152(a0)
	li	a5,538382336
	addi	a5,a5,32
	.loc 1 117 12
	addi	a0,a0,120
.LVL54:
	.loc 1 115 8
	beq	a4,a5,.L23
	.loc 1 116 16
	lui	a0,%hi(.LC1)
.LVL55:
	addi	a0,a0,%lo(.LC1)
.L23:
	.loc 1 118 1
	lw	ra,12(sp)
	.cfi_restore 1
	addi	sp,sp,16
	.cfi_def_cfa_offset 0
	jr	ra
	.cfi_endproc
.LFE13:
	.size	aos_task_name, .-aos_task_name
	.section	.text.aos_task_key_create,"ax",@progbits
	.align	1
	.globl	aos_task_key_create
	.type	aos_task_key_create, @function
aos_task_key_create:
.LFB14:
	.loc 1 121 1 is_stmt 1
	.cfi_startproc
.LVL56:
	.loc 1 122 5
	.loc 1 121 1 is_stmt 0
	addi	sp,sp,-16
	.cfi_def_cfa_offset 16
	sw	s0,8(sp)
	sw	ra,12(sp)
	.cfi_offset 8, -8
	.cfi_offset 1, -4
	.loc 1 121 1
	mv	s0,a0
	.loc 1 122 48
	call	xTaskGetCurrentTaskHandle
.LVL57:
	.loc 1 123 5 is_stmt 1
	.loc 1 125 5
	.loc 1 125 8 is_stmt 0
	lw	a4,152(a0)
	li	a5,538382336
	addi	a5,a5,32
	bne	a4,a5,.L30
	.loc 1 129 17
	lw	a5,96(a0)
.LVL58:
	.loc 1 129 9 is_stmt 1
	.loc 1 129 30 is_stmt 0
	andi	a4,a5,1
	.loc 1 129 12
	beq	a4,zero,.L31
	.loc 1 130 13 is_stmt 1
.LVL59:
	.loc 1 129 9
	.loc 1 129 30 is_stmt 0
	andi	a4,a5,2
	.loc 1 129 12
	beq	a4,zero,.L32
	.loc 1 130 13 is_stmt 1
.LVL60:
	.loc 1 129 9
	.loc 1 129 30 is_stmt 0
	andi	a4,a5,4
	.loc 1 129 12
	beq	a4,zero,.L33
	.loc 1 130 13 is_stmt 1
.LVL61:
	.loc 1 129 9
	.loc 1 129 30 is_stmt 0
	andi	a3,a5,8
	.loc 1 126 16
	li	a4,-1
	.loc 1 129 12
	bne	a3,zero,.L27
	.loc 1 128 19
	li	a4,3
	.loc 1 129 35
	li	a3,8
.LVL62:
.L29:
	.loc 1 132 9 is_stmt 1
	.loc 1 132 26 is_stmt 0
	or	a5,a5,a3
	sw	a5,96(a0)
	.loc 1 133 9 is_stmt 1
	.loc 1 133 14 is_stmt 0
	sw	a4,0(s0)
	.loc 1 134 9 is_stmt 1
	.loc 1 134 16 is_stmt 0
	li	a4,0
.L27:
	.loc 1 138 1
	lw	ra,12(sp)
	.cfi_remember_state
	.cfi_restore 1
	lw	s0,8(sp)
	.cfi_restore 8
.LVL63:
	mv	a0,a4
.LVL64:
	addi	sp,sp,16
	.cfi_def_cfa_offset 0
	jr	ra
.LVL65:
.L31:
	.cfi_restore_state
	.loc 1 128 11
	li	a4,0
	.loc 1 129 35
	li	a3,1
	j	.L29
.LVL66:
.L32:
	.loc 1 128 19
	li	a4,1
	.loc 1 129 35
	li	a3,2
	j	.L29
.LVL67:
.L33:
	.loc 1 128 19
	li	a4,2
	.loc 1 129 35
	li	a3,4
	j	.L29
.LVL68:
.L30:
	.loc 1 126 16
	li	a4,-1
	j	.L27
	.cfi_endproc
.LFE14:
	.size	aos_task_key_create, .-aos_task_key_create
	.section	.text.aos_task_key_delete,"ax",@progbits
	.align	1
	.globl	aos_task_key_delete
	.type	aos_task_key_delete, @function
aos_task_key_delete:
.LFB15:
	.loc 1 141 1 is_stmt 1
	.cfi_startproc
.LVL69:
	.loc 1 142 5
	.loc 1 141 1 is_stmt 0
	addi	sp,sp,-16
	.cfi_def_cfa_offset 16
	sw	s0,8(sp)
	sw	ra,12(sp)
	.cfi_offset 8, -8
	.cfi_offset 1, -4
	.loc 1 141 1
	mv	s0,a0
	.loc 1 142 48
	call	xTaskGetCurrentTaskHandle
.LVL70:
	.loc 1 143 5 is_stmt 1
	.loc 1 143 8 is_stmt 0
	lw	a5,152(a0)
	li	a4,538382336
	addi	a4,a4,32
	bne	a5,a4,.L36
	.loc 1 145 5 is_stmt 1
	.loc 1 145 22 is_stmt 0
	lw	a4,96(a0)
	.loc 1 145 29
	li	a5,1
	sll	a5,a5,s0
	.loc 1 145 25
	not	a5,a5
	.loc 1 145 22
	and	a5,a4,a5
	sw	a5,96(a0)
.L36:
	.loc 1 146 1
	lw	ra,12(sp)
	.cfi_restore 1
	lw	s0,8(sp)
	.cfi_restore 8
.LVL71:
	addi	sp,sp,16
	.cfi_def_cfa_offset 0
	jr	ra
	.cfi_endproc
.LFE15:
	.size	aos_task_key_delete, .-aos_task_key_delete
	.section	.text.aos_task_setspecific,"ax",@progbits
	.align	1
	.globl	aos_task_setspecific
	.type	aos_task_setspecific, @function
aos_task_setspecific:
.LFB16:
	.loc 1 149 1 is_stmt 1
	.cfi_startproc
.LVL72:
	.loc 1 150 5
	.loc 1 149 1 is_stmt 0
	addi	sp,sp,-32
	.cfi_def_cfa_offset 32
	sw	s0,24(sp)
	sw	ra,28(sp)
	.cfi_offset 8, -8
	.cfi_offset 1, -4
	.loc 1 149 1
	mv	s0,a0
	sw	a1,12(sp)
	.loc 1 150 48
	call	xTaskGetCurrentTaskHandle
.LVL73:
	.loc 1 151 5 is_stmt 1
	.loc 1 151 8 is_stmt 0
	li	a4,3
	bgtu	s0,a4,.L41
	.loc 1 154 8
	lw	a3,152(a0)
	li	a4,538382336
	addi	a4,a4,32
	mv	a5,a0
	.loc 1 154 5 is_stmt 1
	.loc 1 152 16 is_stmt 0
	li	a0,-1
.LVL74:
	.loc 1 154 8
	bne	a3,a4,.L39
	.loc 1 157 5 is_stmt 1
	.loc 1 157 21 is_stmt 0
	addi	s0,s0,24
.LVL75:
	lw	a1,12(sp)
	slli	s0,s0,2
.LVL76:
	add	s0,a5,s0
	sw	a1,4(s0)
	.loc 1 158 5 is_stmt 1
	.loc 1 158 12 is_stmt 0
	li	a0,0
.LVL77:
.L39:
	.loc 1 159 1
	lw	ra,28(sp)
	.cfi_remember_state
	.cfi_restore 1
	lw	s0,24(sp)
	.cfi_restore 8
	addi	sp,sp,32
	.cfi_def_cfa_offset 0
.LVL78:
	jr	ra
.LVL79:
.L41:
	.cfi_restore_state
	.loc 1 152 16
	li	a0,-1
.LVL80:
	j	.L39
	.cfi_endproc
.LFE16:
	.size	aos_task_setspecific, .-aos_task_setspecific
	.section	.text.aos_task_getspecific,"ax",@progbits
	.align	1
	.globl	aos_task_getspecific
	.type	aos_task_getspecific, @function
aos_task_getspecific:
.LFB17:
	.loc 1 162 1 is_stmt 1
	.cfi_startproc
.LVL81:
	.loc 1 163 5
	.loc 1 162 1 is_stmt 0
	addi	sp,sp,-16
	.cfi_def_cfa_offset 16
	sw	s0,8(sp)
	sw	ra,12(sp)
	.cfi_offset 8, -8
	.cfi_offset 1, -4
	.loc 1 162 1
	mv	s0,a0
	.loc 1 163 48
	call	xTaskGetCurrentTaskHandle
.LVL82:
	.loc 1 164 5 is_stmt 1
	.loc 1 164 8 is_stmt 0
	li	a4,3
	bgtu	s0,a4,.L46
	.loc 1 167 8
	lw	a3,152(a0)
	li	a4,538382336
	addi	a4,a4,32
	mv	a5,a0
	.loc 1 167 5 is_stmt 1
	.loc 1 165 15 is_stmt 0
	li	a0,0
.LVL83:
	.loc 1 167 8
	bne	a3,a4,.L44
	.loc 1 170 5 is_stmt 1
	.loc 1 170 22 is_stmt 0
	addi	s0,s0,24
.LVL84:
	slli	s0,s0,2
.LVL85:
	add	s0,a5,s0
	lw	a0,4(s0)
.LVL86:
.L44:
	.loc 1 171 1
	lw	ra,12(sp)
	.cfi_remember_state
	.cfi_restore 1
	lw	s0,8(sp)
	.cfi_restore 8
	addi	sp,sp,16
	.cfi_def_cfa_offset 0
	jr	ra
.LVL87:
.L46:
	.cfi_restore_state
	.loc 1 165 15
	li	a0,0
.LVL88:
	j	.L44
	.cfi_endproc
.LFE17:
	.size	aos_task_getspecific, .-aos_task_getspecific
	.section	.text.aos_mutex_new,"ax",@progbits
	.align	1
	.globl	aos_mutex_new
	.type	aos_mutex_new, @function
aos_mutex_new:
.LFB18:
	.loc 1 174 1 is_stmt 1
	.cfi_startproc
.LVL89:
	.loc 1 175 5
	.loc 1 174 1 is_stmt 0
	addi	sp,sp,-16
	.cfi_def_cfa_offset 16
	sw	s0,8(sp)
	.cfi_offset 8, -8
	mv	s0,a0
	.loc 1 175 29
	li	a0,1
.LVL90:
	.loc 1 174 1
	sw	ra,12(sp)
	.cfi_offset 1, -4
	.loc 1 175 29
	call	xQueueCreateMutex
.LVL91:
	.loc 1 176 5 is_stmt 1
	.loc 1 176 16 is_stmt 0
	sw	a0,0(s0)
	.loc 1 177 5 is_stmt 1
	.loc 1 178 1 is_stmt 0
	lw	ra,12(sp)
	.cfi_restore 1
	lw	s0,8(sp)
	.cfi_restore 8
.LVL92:
	.loc 1 177 27
	seqz	a0,a0
.LVL93:
	.loc 1 178 1
	neg	a0,a0
	addi	sp,sp,16
	.cfi_def_cfa_offset 0
	jr	ra
	.cfi_endproc
.LFE18:
	.size	aos_mutex_new, .-aos_mutex_new
	.section	.text.aos_mutex_free,"ax",@progbits
	.align	1
	.globl	aos_mutex_free
	.type	aos_mutex_free, @function
aos_mutex_free:
.LFB19:
	.loc 1 181 1 is_stmt 1
	.cfi_startproc
.LVL94:
	.loc 1 182 5
	lw	a0,0(a0)
.LVL95:
	tail	vQueueDelete
.LVL96:
	.cfi_endproc
.LFE19:
	.size	aos_mutex_free, .-aos_mutex_free
	.section	.text.aos_mutex_lock,"ax",@progbits
	.align	1
	.globl	aos_mutex_lock
	.type	aos_mutex_lock, @function
aos_mutex_lock:
.LFB20:
	.loc 1 186 1
	.cfi_startproc
.LVL97:
	.loc 1 187 5
	.loc 1 187 8 is_stmt 0
	beq	a0,zero,.L58
	.loc 1 188 9 is_stmt 1
	.loc 1 186 1 is_stmt 0
	addi	sp,sp,-16
	.cfi_def_cfa_offset 16
	sw	ra,12(sp)
	.cfi_offset 1, -4
	.loc 1 188 9
	lw	a0,0(a0)
.LVL98:
	call	xQueueSemaphoreTake
.LVL99:
	.loc 1 190 5 is_stmt 1
	.loc 1 191 1 is_stmt 0
	lw	ra,12(sp)
	.cfi_restore 1
	li	a0,0
	addi	sp,sp,16
	.cfi_def_cfa_offset 0
	jr	ra
.LVL100:
.L58:
	.loc 1 190 5 is_stmt 1
	.loc 1 191 1 is_stmt 0
	li	a0,0
.LVL101:
	ret
	.cfi_endproc
.LFE20:
	.size	aos_mutex_lock, .-aos_mutex_lock
	.section	.text.aos_mutex_unlock,"ax",@progbits
	.align	1
	.globl	aos_mutex_unlock
	.type	aos_mutex_unlock, @function
aos_mutex_unlock:
.LFB21:
	.loc 1 194 1 is_stmt 1
	.cfi_startproc
.LVL102:
	.loc 1 195 5
	.loc 1 195 8 is_stmt 0
	beq	a0,zero,.L67
	.loc 1 196 9 is_stmt 1
	.loc 1 194 1 is_stmt 0
	addi	sp,sp,-16
	.cfi_def_cfa_offset 16
	sw	ra,12(sp)
	.cfi_offset 1, -4
	.loc 1 196 9
	lw	a0,0(a0)
.LVL103:
	li	a3,0
	li	a2,0
	li	a1,0
	call	xQueueGenericSend
.LVL104:
	.loc 1 198 5 is_stmt 1
	.loc 1 199 1 is_stmt 0
	lw	ra,12(sp)
	.cfi_restore 1
	li	a0,0
	addi	sp,sp,16
	.cfi_def_cfa_offset 0
	jr	ra
.LVL105:
.L67:
	.loc 1 198 5 is_stmt 1
	.loc 1 199 1 is_stmt 0
	li	a0,0
.LVL106:
	ret
	.cfi_endproc
.LFE21:
	.size	aos_mutex_unlock, .-aos_mutex_unlock
	.section	.text.aos_mutex_is_valid,"ax",@progbits
	.align	1
	.globl	aos_mutex_is_valid
	.type	aos_mutex_is_valid, @function
aos_mutex_is_valid:
.LFB22:
	.loc 1 202 1 is_stmt 1
	.cfi_startproc
.LVL107:
	.loc 1 203 5
	.loc 1 203 23 is_stmt 0
	lw	a0,0(a0)
.LVL108:
	.loc 1 204 1
	snez	a0,a0
	ret
	.cfi_endproc
.LFE22:
	.size	aos_mutex_is_valid, .-aos_mutex_is_valid
	.section	.text.aos_sem_new,"ax",@progbits
	.align	1
	.globl	aos_sem_new
	.type	aos_sem_new, @function
aos_sem_new:
.LFB23:
	.loc 1 207 1 is_stmt 1
	.cfi_startproc
.LVL109:
	.loc 1 208 5
	.loc 1 207 1 is_stmt 0
	addi	sp,sp,-16
	.cfi_def_cfa_offset 16
	sw	s0,8(sp)
	.cfi_offset 8, -8
	mv	s0,a0
	.loc 1 208 27
	li	a0,128
.LVL110:
	.loc 1 207 1
	sw	ra,12(sp)
	.cfi_offset 1, -4
	.loc 1 208 27
	call	xQueueCreateCountingSemaphore
.LVL111:
	.loc 1 209 5 is_stmt 1
	.loc 1 209 14 is_stmt 0
	sw	a0,0(s0)
	.loc 1 210 5 is_stmt 1
	.loc 1 211 1 is_stmt 0
	lw	ra,12(sp)
	.cfi_restore 1
	lw	s0,8(sp)
	.cfi_restore 8
.LVL112:
	li	a0,0
.LVL113:
	addi	sp,sp,16
	.cfi_def_cfa_offset 0
	jr	ra
	.cfi_endproc
.LFE23:
	.size	aos_sem_new, .-aos_sem_new
	.section	.text.aos_sem_free,"ax",@progbits
	.align	1
	.globl	aos_sem_free
	.type	aos_sem_free, @function
aos_sem_free:
.LFB24:
	.loc 1 214 1 is_stmt 1
	.cfi_startproc
.LVL114:
	.loc 1 215 5
	.loc 1 215 8 is_stmt 0
	beq	a0,zero,.L73
	.loc 1 219 5 is_stmt 1
	lw	a0,0(a0)
.LVL115:
	tail	vQueueDelete
.LVL116:
.L73:
	.loc 1 220 1 is_stmt 0
	ret
	.cfi_endproc
.LFE24:
	.size	aos_sem_free, .-aos_sem_free
	.section	.text.aos_sem_wait,"ax",@progbits
	.align	1
	.globl	aos_sem_wait
	.type	aos_sem_wait, @function
aos_sem_wait:
.LFB25:
	.loc 1 223 1 is_stmt 1
	.cfi_startproc
.LVL117:
	.loc 1 224 5
	.loc 1 224 8 is_stmt 0
	beq	a0,zero,.L77
	.loc 1 228 5 is_stmt 1
	.loc 1 223 1 is_stmt 0
	addi	sp,sp,-16
	.cfi_def_cfa_offset 16
	sw	ra,12(sp)
	.cfi_offset 1, -4
	.loc 1 228 15
	lw	a0,0(a0)
.LVL118:
	call	xQueueSemaphoreTake
.LVL119:
	.loc 1 229 5 is_stmt 1
	.loc 1 230 1 is_stmt 0
	lw	ra,12(sp)
	.cfi_restore 1
	.loc 1 229 48
	addi	a0,a0,-1
.LVL120:
	snez	a0,a0
.LVL121:
	neg	a0,a0
	.loc 1 230 1
	addi	sp,sp,16
	.cfi_def_cfa_offset 0
	jr	ra
.LVL122:
.L77:
	.loc 1 225 16
	li	a0,-1
.LVL123:
	.loc 1 230 1
	ret
	.cfi_endproc
.LFE25:
	.size	aos_sem_wait, .-aos_sem_wait
	.section	.text.aos_sem_signal,"ax",@progbits
	.align	1
	.globl	aos_sem_signal
	.type	aos_sem_signal, @function
aos_sem_signal:
.LFB26:
	.loc 1 233 1 is_stmt 1
	.cfi_startproc
.LVL124:
	.loc 1 234 5
	.loc 1 233 1 is_stmt 0
	addi	sp,sp,-32
	.cfi_def_cfa_offset 32
	sw	ra,28(sp)
	.cfi_offset 1, -4
	.loc 1 234 16
	sw	zero,12(sp)
	.loc 1 236 5 is_stmt 1
	.loc 1 236 8 is_stmt 0
	beq	a0,zero,.L82
	.loc 1 240 5 is_stmt 1
.LBB4:
.LBB5:
	.file 2 "/home/hogc/build-tools/sdk/bl/bl_iot_sdk/components/bl602/freertos_riscv_ram/portable/GCC/RISC-V/portmacro.h"
	.loc 2 151 5
	.loc 2 151 31 is_stmt 0
	lui	a5,%hi(TrapNetCounter)
.LBE5:
.LBE4:
	.loc 1 240 8
	lw	a5,%lo(TrapNetCounter)(a5)
	lw	a0,0(a0)
.LVL125:
	beq	a5,zero,.L84
	.loc 1 241 9 is_stmt 1
	addi	a1,sp,12
	call	xQueueGiveFromISR
.LVL126:
	.loc 1 242 9
	.loc 1 242 11 is_stmt 0
	lw	a5,12(sp)
	beq	a5,zero,.L82
	.loc 1 242 40 is_stmt 1 discriminator 1
	call	vTaskSwitchContext
.LVL127:
.L82:
	.loc 1 246 1 is_stmt 0
	lw	ra,28(sp)
	.cfi_remember_state
	.cfi_restore 1
	addi	sp,sp,32
	.cfi_def_cfa_offset 0
	jr	ra
.L84:
	.cfi_restore_state
	.loc 1 244 9 is_stmt 1
	li	a3,0
	li	a2,0
	li	a1,0
	call	xQueueGenericSend
.LVL128:
	j	.L82
	.cfi_endproc
.LFE26:
	.size	aos_sem_signal, .-aos_sem_signal
	.section	.text.aos_sem_is_valid,"ax",@progbits
	.align	1
	.globl	aos_sem_is_valid
	.type	aos_sem_is_valid, @function
aos_sem_is_valid:
.LFB27:
	.loc 1 249 1
	.cfi_startproc
.LVL129:
	.loc 1 250 5
	.loc 1 250 16 is_stmt 0
	beq	a0,zero,.L92
	.loc 1 250 16 discriminator 1
	lw	a0,0(a0)
.LVL130:
	snez	a0,a0
	ret
.LVL131:
.L92:
	.loc 1 250 16
	li	a0,0
.LVL132:
	.loc 1 251 1
	ret
	.cfi_endproc
.LFE27:
	.size	aos_sem_is_valid, .-aos_sem_is_valid
	.section	.text.aos_sem_signal_all,"ax",@progbits
	.align	1
	.globl	aos_sem_signal_all
	.type	aos_sem_signal_all, @function
aos_sem_signal_all:
.LFB28:
	.loc 1 254 1 is_stmt 1
	.cfi_startproc
.LVL133:
	.loc 1 255 5
	tail	aos_sem_signal
.LVL134:
	.cfi_endproc
.LFE28:
	.size	aos_sem_signal_all, .-aos_sem_signal_all
	.section	.text.aos_queue_new,"ax",@progbits
	.align	1
	.globl	aos_queue_new
	.type	aos_queue_new, @function
aos_queue_new:
.LFB29:
	.loc 1 259 1
	.cfi_startproc
.LVL135:
	.loc 1 260 5
	.loc 1 261 5
	.loc 1 259 1 is_stmt 0
	addi	sp,sp,-16
	.cfi_def_cfa_offset 16
	sw	s0,8(sp)
	.cfi_offset 8, -8
	mv	s0,a0
	.loc 1 261 37
	divu	a0,a2,a3
.LVL136:
	.loc 1 261 9
	mv	a1,a3
.LVL137:
	li	a2,0
.LVL138:
	.loc 1 259 1
	sw	ra,12(sp)
	.cfi_offset 1, -4
	.loc 1 261 9
	call	xQueueGenericCreate
.LVL139:
	.loc 1 262 5 is_stmt 1
	.loc 1 262 16 is_stmt 0
	sw	a0,0(s0)
	.loc 1 263 5 is_stmt 1
	.loc 1 264 1 is_stmt 0
	lw	ra,12(sp)
	.cfi_restore 1
	lw	s0,8(sp)
	.cfi_restore 8
.LVL140:
	li	a0,0
.LVL141:
	addi	sp,sp,16
	.cfi_def_cfa_offset 0
	jr	ra
	.cfi_endproc
.LFE29:
	.size	aos_queue_new, .-aos_queue_new
	.section	.text.aos_queue_free,"ax",@progbits
	.align	1
	.globl	aos_queue_free
	.type	aos_queue_free, @function
aos_queue_free:
.LFB58:
	.cfi_startproc
	tail	aos_mutex_free
	.cfi_endproc
.LFE58:
	.size	aos_queue_free, .-aos_queue_free
	.section	.text.aos_queue_send,"ax",@progbits
	.align	1
	.globl	aos_queue_send
	.type	aos_queue_send, @function
aos_queue_send:
.LFB31:
	.loc 1 272 1 is_stmt 1
	.cfi_startproc
.LVL142:
	.loc 1 273 5
	.loc 1 272 1 is_stmt 0
	addi	sp,sp,-16
	.cfi_def_cfa_offset 16
	sw	ra,12(sp)
	.cfi_offset 1, -4
	.loc 1 273 12
	lw	a0,0(a0)
.LVL143:
	li	a3,0
	li	a2,-1
.LVL144:
	call	xQueueGenericSend
.LVL145:
	.loc 1 274 1
	lw	ra,12(sp)
	.cfi_restore 1
	.loc 1 273 144
	addi	a0,a0,-1
	snez	a0,a0
	.loc 1 274 1
	neg	a0,a0
	addi	sp,sp,16
	.cfi_def_cfa_offset 0
	jr	ra
	.cfi_endproc
.LFE31:
	.size	aos_queue_send, .-aos_queue_send
	.section	.text.aos_queue_recv,"ax",@progbits
	.align	1
	.globl	aos_queue_recv
	.type	aos_queue_recv, @function
aos_queue_recv:
.LFB32:
	.loc 1 278 1 is_stmt 1
	.cfi_startproc
.LVL146:
	.loc 1 279 5
	.loc 1 278 1 is_stmt 0
	addi	sp,sp,-16
	.cfi_def_cfa_offset 16
	sw	ra,12(sp)
	.cfi_offset 1, -4
	.loc 1 279 12
	lw	a0,0(a0)
.LVL147:
	.loc 1 278 1
	mv	a5,a2
	.loc 1 279 12
	mv	a2,a1
.LVL148:
	mv	a1,a5
.LVL149:
	call	xQueueReceive
.LVL150:
	.loc 1 281 1
	lw	ra,12(sp)
	.cfi_restore 1
	.loc 1 280 44
	addi	a0,a0,-1
	snez	a0,a0
	.loc 1 281 1
	neg	a0,a0
	addi	sp,sp,16
	.cfi_def_cfa_offset 0
	jr	ra
	.cfi_endproc
.LFE32:
	.size	aos_queue_recv, .-aos_queue_recv
	.section	.text.aos_queue_is_valid,"ax",@progbits
	.align	1
	.globl	aos_queue_is_valid
	.type	aos_queue_is_valid, @function
aos_queue_is_valid:
.LFB60:
	.cfi_startproc
	tail	aos_sem_is_valid
	.cfi_endproc
.LFE60:
	.size	aos_queue_is_valid, .-aos_queue_is_valid
	.section	.text.aos_queue_buf_ptr,"ax",@progbits
	.align	1
	.globl	aos_queue_buf_ptr
	.type	aos_queue_buf_ptr, @function
aos_queue_buf_ptr:
.LFB34:
	.loc 1 289 1 is_stmt 1
	.cfi_startproc
.LVL151:
	.loc 1 290 5
	.loc 1 291 1 is_stmt 0
	li	a0,0
.LVL152:
	ret
	.cfi_endproc
.LFE34:
	.size	aos_queue_buf_ptr, .-aos_queue_buf_ptr
	.section	.text.aos_timer_new,"ax",@progbits
	.align	1
	.globl	aos_timer_new
	.type	aos_timer_new, @function
aos_timer_new:
.LFB35:
	.loc 1 295 1 is_stmt 1
	.cfi_startproc
.LVL153:
	.loc 1 296 5
	.loc 1 297 1 is_stmt 0
	li	a0,-1
.LVL154:
	ret
	.cfi_endproc
.LFE35:
	.size	aos_timer_new, .-aos_timer_new
	.section	.text.aos_timer_free,"ax",@progbits
	.align	1
	.globl	aos_timer_free
	.type	aos_timer_free, @function
aos_timer_free:
.LFB36:
	.loc 1 300 1 is_stmt 1
	.cfi_startproc
.LVL155:
	.loc 1 301 1
	ret
	.cfi_endproc
.LFE36:
	.size	aos_timer_free, .-aos_timer_free
	.section	.text.aos_timer_start,"ax",@progbits
	.align	1
	.globl	aos_timer_start
	.type	aos_timer_start, @function
aos_timer_start:
.LFB37:
	.loc 1 304 1
	.cfi_startproc
.LVL156:
	.loc 1 305 5
	.loc 1 306 1 is_stmt 0
	li	a0,-1
.LVL157:
	ret
	.cfi_endproc
.LFE37:
	.size	aos_timer_start, .-aos_timer_start
	.section	.text.aos_timer_stop,"ax",@progbits
	.align	1
	.globl	aos_timer_stop
	.type	aos_timer_stop, @function
aos_timer_stop:
.LFB62:
	.cfi_startproc
	li	a0,-1
	ret
	.cfi_endproc
.LFE62:
	.size	aos_timer_stop, .-aos_timer_stop
	.section	.text.aos_timer_change,"ax",@progbits
	.align	1
	.globl	aos_timer_change
	.type	aos_timer_change, @function
aos_timer_change:
.LFB39:
	.loc 1 314 1 is_stmt 1
	.cfi_startproc
.LVL158:
	.loc 1 315 5
	.loc 1 316 1 is_stmt 0
	li	a0,-1
.LVL159:
	ret
	.cfi_endproc
.LFE39:
	.size	aos_timer_change, .-aos_timer_change
	.section	.text.aos_workqueue_create,"ax",@progbits
	.align	1
	.globl	aos_workqueue_create
	.type	aos_workqueue_create, @function
aos_workqueue_create:
.LFB40:
	.loc 1 319 1 is_stmt 1
	.cfi_startproc
.LVL160:
	.loc 1 320 5
	.loc 1 321 1 is_stmt 0
	li	a0,-1
.LVL161:
	ret
	.cfi_endproc
.LFE40:
	.size	aos_workqueue_create, .-aos_workqueue_create
	.section	.text.aos_work_init,"ax",@progbits
	.align	1
	.globl	aos_work_init
	.type	aos_work_init, @function
aos_work_init:
.LFB41:
	.loc 1 330 1 is_stmt 1
	.cfi_startproc
.LVL162:
	.loc 1 331 5
	.loc 1 330 1 is_stmt 0
	addi	sp,sp,-32
	.cfi_def_cfa_offset 32
	sw	s0,24(sp)
	.cfi_offset 8, -8
	mv	s0,a0
	.loc 1 331 22
	li	a0,12
.LVL163:
	.loc 1 330 1
	sw	ra,28(sp)
	.cfi_offset 1, -4
	.loc 1 330 1
	sw	a1,12(sp)
	sw	a2,8(sp)
	sw	a3,4(sp)
	.loc 1 331 22
	call	pvPortMalloc
.LVL164:
	.loc 1 332 5 is_stmt 1
	.loc 1 332 11 is_stmt 0
	lw	a1,12(sp)
	.loc 1 333 12
	lw	a2,8(sp)
	.loc 1 334 12
	lw	a3,4(sp)
	.loc 1 332 11
	sw	a1,0(a0)
	.loc 1 333 5 is_stmt 1
	.loc 1 333 12 is_stmt 0
	sw	a2,4(a0)
	.loc 1 334 5 is_stmt 1
	.loc 1 334 12 is_stmt 0
	sw	a3,8(a0)
	.loc 1 335 5 is_stmt 1
	.loc 1 335 15 is_stmt 0
	sw	a0,0(s0)
	.loc 1 336 5 is_stmt 1
	.loc 1 337 1 is_stmt 0
	lw	ra,28(sp)
	.cfi_restore 1
	lw	s0,24(sp)
	.cfi_restore 8
.LVL165:
	li	a0,0
.LVL166:
	addi	sp,sp,32
	.cfi_def_cfa_offset 0
.LVL167:
	jr	ra
	.cfi_endproc
.LFE41:
	.size	aos_work_init, .-aos_work_init
	.section	.text.aos_work_destroy,"ax",@progbits
	.align	1
	.globl	aos_work_destroy
	.type	aos_work_destroy, @function
aos_work_destroy:
.LFB42:
	.loc 1 340 1 is_stmt 1
	.cfi_startproc
.LVL168:
	.loc 1 341 5
	lw	a0,0(a0)
.LVL169:
	tail	vPortFree
.LVL170:
	.cfi_endproc
.LFE42:
	.size	aos_work_destroy, .-aos_work_destroy
	.section	.text.aos_work_sched,"ax",@progbits
	.align	1
	.globl	aos_work_sched
	.type	aos_work_sched, @function
aos_work_sched:
.LFB45:
	.loc 1 359 1
	.cfi_startproc
.LVL171:
	.loc 1 360 5
	.loc 1 361 5
	.loc 1 361 12 is_stmt 0
	lw	a2,0(a0)
	lui	a1,%hi(worker_entry)
	lui	a0,%hi(.LC2)
.LVL172:
	li	a3,8192
	addi	a1,a1,%lo(worker_entry)
	addi	a0,a0,%lo(.LC2)
	tail	aos_task_new
.LVL173:
	.cfi_endproc
.LFE45:
	.size	aos_work_sched, .-aos_work_sched
	.section	.text.aos_work_run,"ax",@progbits
	.align	1
	.globl	aos_work_run
	.type	aos_work_run, @function
aos_work_run:
.LFB43:
	.loc 1 345 1 is_stmt 1
	.cfi_startproc
.LVL174:
	.loc 1 346 5
	.loc 1 346 12 is_stmt 0
	mv	a0,a1
.LVL175:
	tail	aos_work_sched
.LVL176:
	.cfi_endproc
.LFE43:
	.size	aos_work_run, .-aos_work_run
	.section	.text.aos_work_cancel,"ax",@progbits
	.align	1
	.globl	aos_work_cancel
	.type	aos_work_cancel, @function
aos_work_cancel:
.LFB64:
	.cfi_startproc
	li	a0,-1
	ret
	.cfi_endproc
.LFE64:
	.size	aos_work_cancel, .-aos_work_cancel
	.section	.text.aos_zalloc,"ax",@progbits
	.align	1
	.globl	aos_zalloc
	.type	aos_zalloc, @function
aos_zalloc:
.LFB47:
	.loc 1 370 1 is_stmt 1
	.cfi_startproc
.LVL177:
	.loc 1 371 5
	.loc 1 373 5
	.loc 1 370 1 is_stmt 0
	addi	sp,sp,-32
	.cfi_def_cfa_offset 32
	sw	s0,24(sp)
	sw	ra,28(sp)
	.cfi_offset 8, -8
	.cfi_offset 1, -4
	.loc 1 370 1
	sw	a0,12(sp)
	.loc 1 373 11
	call	pvPortMalloc
.LVL178:
	mv	s0,a0
.LVL179:
	.loc 1 374 5 is_stmt 1
	.loc 1 374 8 is_stmt 0
	beq	a0,zero,.L115
	.loc 1 375 9 is_stmt 1
	lw	a2,12(sp)
	li	a1,9
	call	memset
.LVL180:
	.loc 1 377 5
.L115:
	.loc 1 378 1 is_stmt 0
	mv	a0,s0
	lw	ra,28(sp)
	.cfi_restore 1
	lw	s0,24(sp)
	.cfi_restore 8
.LVL181:
	addi	sp,sp,32
	.cfi_def_cfa_offset 0
.LVL182:
	jr	ra
	.cfi_endproc
.LFE47:
	.size	aos_zalloc, .-aos_zalloc
	.section	.text.aos_malloc,"ax",@progbits
	.align	1
	.globl	aos_malloc
	.type	aos_malloc, @function
aos_malloc:
.LFB48:
	.loc 1 381 1 is_stmt 1
	.cfi_startproc
.LVL183:
	.loc 1 382 5
	.loc 1 382 12 is_stmt 0
	tail	pvPortMalloc
.LVL184:
	.cfi_endproc
.LFE48:
	.size	aos_malloc, .-aos_malloc
	.section	.text.calloc,"ax",@progbits
	.align	1
	.globl	calloc
	.type	calloc, @function
calloc:
.LFB49:
	.loc 1 387 1 is_stmt 1
	.cfi_startproc
.LVL185:
	.loc 1 388 5
	.loc 1 389 5
	.loc 1 391 5
	.loc 1 391 11 is_stmt 0
	mul	a2,a0,a1
.LVL186:
	.loc 1 392 5 is_stmt 1
	.loc 1 387 1 is_stmt 0
	addi	sp,sp,-32
	.cfi_def_cfa_offset 32
	sw	s0,24(sp)
	sw	ra,28(sp)
	.cfi_offset 8, -8
	.cfi_offset 1, -4
	.loc 1 392 11
	mv	a0,a2
.LVL187:
	sw	a2,12(sp)
	call	pvPortMalloc
.LVL188:
	mv	s0,a0
.LVL189:
	.loc 1 393 5 is_stmt 1
	.loc 1 393 8 is_stmt 0
	beq	a0,zero,.L122
	.loc 1 394 9 is_stmt 1
	lw	a2,12(sp)
	li	a1,0
	call	memset
.LVL190:
	.loc 1 396 5
.L122:
	.loc 1 397 1 is_stmt 0
	mv	a0,s0
	lw	ra,28(sp)
	.cfi_restore 1
	lw	s0,24(sp)
	.cfi_restore 8
.LVL191:
	addi	sp,sp,32
	.cfi_def_cfa_offset 0
.LVL192:
	jr	ra
	.cfi_endproc
.LFE49:
	.size	calloc, .-calloc
	.section	.text.free,"ax",@progbits
	.align	1
	.globl	free
	.type	free, @function
free:
.LFB50:
	.loc 1 402 1 is_stmt 1
	.cfi_startproc
.LVL193:
	.loc 1 403 5
	tail	vPortFree
.LVL194:
	.cfi_endproc
.LFE50:
	.size	free, .-free
	.section	.text.aos_free,"ax",@progbits
	.align	1
	.globl	aos_free
	.type	aos_free, @function
aos_free:
.LFB56:
	.cfi_startproc
	tail	vPortFree
	.cfi_endproc
.LFE56:
	.size	aos_free, .-aos_free
	.section	.text.aos_msleep,"ax",@progbits
	.align	1
	.globl	aos_msleep
	.type	aos_msleep, @function
aos_msleep:
.LFB52:
	.loc 1 413 1
	.cfi_startproc
.LVL195:
	.loc 1 414 5
	.loc 1 414 59 is_stmt 0
	li	a5,1000
	mul	a0,a0,a5
.LVL196:
	.loc 1 414 5
	divu	a0,a0,a5
	tail	vTaskDelay
.LVL197:
	.cfi_endproc
.LFE52:
	.size	aos_msleep, .-aos_msleep
	.section	.text.malloc,"ax",@progbits
	.align	1
	.globl	malloc
	.type	malloc, @function
malloc:
.LFB53:
	.loc 1 419 1 is_stmt 1
	.cfi_startproc
.LVL198:
	.loc 1 420 5
	.loc 1 420 12 is_stmt 0
	tail	pvPortMalloc
.LVL199:
	.cfi_endproc
.LFE53:
	.size	malloc, .-malloc
	.section	.text.aos_now_ms,"ax",@progbits
	.align	1
	.globl	aos_now_ms
	.type	aos_now_ms, @function
aos_now_ms:
.LFB54:
	.loc 1 425 1 is_stmt 1
	.cfi_startproc
	.loc 1 426 5
	.loc 1 427 5
	.loc 1 425 1 is_stmt 0
	addi	sp,sp,-32
	.cfi_def_cfa_offset 32
	.loc 1 430 33
	addi	a1,sp,12
	addi	a0,sp,8
	.loc 1 425 1
	sw	ra,28(sp)
	.cfi_offset 1, -4
	.loc 1 427 16
	sw	zero,8(sp)
	.loc 1 428 5 is_stmt 1
	.loc 1 428 16 is_stmt 0
	sw	zero,12(sp)
	.loc 1 430 5 is_stmt 1
	.loc 1 430 33 is_stmt 0
	call	xTaskGetTickCount2
.LVL200:
	.loc 1 430 8
	li	a5,1
	beq	a0,a5,.L133
.L134:
	.loc 1 431 9 is_stmt 1 discriminator 1
	.loc 1 433 9 discriminator 1
	j	.L134
.L133:
	.loc 1 433 10
	.loc 1 437 5
	.loc 1 437 52 is_stmt 0
	lw	a3,12(sp)
	.loc 1 437 49
	li	a4,-1
	.loc 1 437 11
	lw	a0,8(sp)
	.loc 1 437 49
	mulhu	a4,a4,a3
	neg	a5,a3
	.loc 1 440 1
	lw	ra,28(sp)
	.cfi_restore 1
	.loc 1 437 8
	add	a0,a5,a0
	.loc 1 437 49
	srli	a1,a3,31
	.loc 1 437 8
	sltu	a5,a0,a5
	.loc 1 440 1
	addi	sp,sp,32
	.cfi_def_cfa_offset 0
	.loc 1 437 49
	add	a1,a1,a4
.LVL201:
	.loc 1 439 5 is_stmt 1
	.loc 1 440 1 is_stmt 0
	add	a1,a5,a1
.LVL202:
	jr	ra
	.cfi_endproc
.LFE54:
	.size	aos_now_ms, .-aos_now_ms
	.section	.rodata.aos_task_name.str1.4,"aMS",@progbits,1
	.align	2
.LC1:
	.string	"unknown"
	.section	.rodata.aos_version_get.str1.4,"aMS",@progbits,1
	.align	2
.LC0:
	.string	"aos-linux-xxx"
	.section	.rodata.aos_work_sched.str1.4,"aMS",@progbits,1
	.align	2
.LC2:
	.string	"worker"
	.text
.Letext0:
	.file 3 "/home/hogc/build-tools/sdk/bl/bl_iot_sdk/toolchain/riscv/Linux/lib/gcc/riscv64-unknown-elf/8.3.0/include/stddef.h"
	.file 4 "/home/hogc/build-tools/sdk/bl/bl_iot_sdk/toolchain/riscv/Linux/riscv64-unknown-elf/include/machine/_default_types.h"
	.file 5 "/home/hogc/build-tools/sdk/bl/bl_iot_sdk/toolchain/riscv/Linux/riscv64-unknown-elf/include/sys/_types.h"
	.file 6 "/home/hogc/build-tools/sdk/bl/bl_iot_sdk/toolchain/riscv/Linux/riscv64-unknown-elf/include/sys/reent.h"
	.file 7 "/home/hogc/build-tools/sdk/bl/bl_iot_sdk/toolchain/riscv/Linux/riscv64-unknown-elf/include/sys/lock.h"
	.file 8 "/home/hogc/build-tools/sdk/bl/bl_iot_sdk/toolchain/riscv/Linux/riscv64-unknown-elf/include/stdlib.h"
	.file 9 "/home/hogc/build-tools/sdk/bl/bl_iot_sdk/toolchain/riscv/Linux/riscv64-unknown-elf/include/sys/_stdint.h"
	.file 10 "/home/hogc/build-tools/sdk/bl/bl_iot_sdk/components/bl602/freertos_riscv_ram/config/FreeRTOS.h"
	.file 11 "/home/hogc/build-tools/sdk/bl/bl_iot_sdk/components/bl602/freertos_riscv_ram/config/task.h"
	.file 12 "/home/hogc/build-tools/sdk/bl/bl_iot_sdk/components/bl602/freertos_riscv_ram/config/queue.h"
	.file 13 "/home/hogc/build-tools/sdk/bl/bl_iot_sdk/components/bl602/freertos_riscv_ram/config/semphr.h"
	.file 14 "/home/hogc/build-tools/sdk/bl/bl_iot_sdk/components/stage/yloop/include/aos/kernel.h"
	.file 15 "/home/hogc/build-tools/sdk/bl/bl_iot_sdk/components/bl602/freertos_riscv_ram/config/portable.h"
	.file 16 "/home/hogc/build-tools/sdk/bl/bl_iot_sdk/toolchain/riscv/Linux/riscv64-unknown-elf/include/string.h"