	.file	"sntp_cli.c"
	.option nopic
	.attribute arch, "rv32i2p0_m2p0_f2p0_c2p0"
	.attribute unaligned_access, 0
	.attribute stack_align, 16
	.text
.Ltext0:
	.cfi_sections	.debug_frame
	.section	.text._startup_sntp,"ax",@progbits
	.align	1
	.globl	_startup_sntp
	.type	_startup_sntp, @function
_startup_sntp:
.LFB4:
	.file 1 "/b-l/bl_iot_sdk/components/network/sntp/sntp_cli.c"
	.loc 1 9 1
	.cfi_startproc
.LVL0:
	.loc 1 10 5
	lui	a0,%hi(.LC0)
.LVL1:
	.loc 1 9 1 is_stmt 0
	addi	sp,sp,-16
	.cfi_def_cfa_offset 16
	.loc 1 10 5
	addi	a0,a0,%lo(.LC0)
	.loc 1 9 1
	sw	ra,12(sp)
	.cfi_offset 1, -4
	.loc 1 10 5
	call	puts
.LVL2:
	.loc 1 11 5 is_stmt 1
	li	a0,0
	call	sntp_setoperatingmode
.LVL3:
	.loc 1 12 5
	lui	a1,%hi(.LC1)
	li	a0,0
	addi	a1,a1,%lo(.LC1)
	call	sntp_setservername
.LVL4:
	.loc 1 13 5
	call	sntp_init
.LVL5:
	.loc 1 14 5
	.loc 1 15 1 is_stmt 0
	lw	ra,12(sp)
	.cfi_restore 1
	.loc 1 14 5
	lui	a0,%hi(.LC2)
	.loc 1 15 1
	.loc 1 14 5
	addi	a0,a0,%lo(.LC2)
	.loc 1 15 1
	addi	sp,sp,16
	.cfi_def_cfa_offset 0
	.loc 1 14 5
	tail	puts
.LVL6:
	.cfi_endproc
.LFE4:
	.size	_startup_sntp, .-_startup_sntp
	.section	.text.cmd_sntp_date,"ax",@progbits
	.align	1
	.type	cmd_sntp_date, @function
cmd_sntp_date:
.LFB7:
	.loc 1 31 1 is_stmt 1
	.cfi_startproc
.LVL7:
	.loc 1 32 5
	.loc 1 35 5 is_stmt 0
	lui	a0,%hi(.LC3)
.LVL8:
	.loc 1 31 1
	addi	sp,sp,-64
	.cfi_def_cfa_offset 64
	.loc 1 35 5
	addi	a0,a0,%lo(.LC3)
	.loc 1 31 1
	sw	ra,60(sp)
	sw	s0,56(sp)
	.cfi_offset 1, -4
	.cfi_offset 8, -8
	.loc 1 32 14
	sw	zero,20(sp)
	.loc 1 32 27
	sw	zero,24(sp)
	.loc 1 33 5 is_stmt 1
	.loc 1 35 5
	call	puts
.LVL9:
	.loc 1 36 5
	lui	a0,%hi(.LC4)
	addi	a0,a0,%lo(.LC4)
	call	puts
.LVL10:
	.loc 1 37 5
	li	a0,1581862912
	addi	a1,sp,28
	addi	a0,a0,801
	call	utils_time_date_from_epoch
.LVL11:
	.loc 1 38 5
	lw	a5,44(sp)
	lbu	a7,31(sp)
	lbu	a6,30(sp)
	lbu	a4,28(sp)
	lbu	a3,32(sp)
	lbu	a2,33(sp)
	lw	a1,36(sp)
	sw	a5,0(sp)
	lbu	a5,29(sp)
	lui	s0,%hi(.LC5)
	addi	a0,s0,%lo(.LC5)
	call	printf
.LVL12:
	.loc 1 49 5
	lui	a0,%hi(.LC6)
	addi	a0,a0,%lo(.LC6)
	call	puts
.LVL13:
	.loc 1 50 5
	addi	a1,sp,24
	addi	a0,sp,20
	call	sntp_get_time
.LVL14:
	.loc 1 51 5
	lw	a0,20(sp)
	addi	a1,sp,28
	call	utils_time_date_from_epoch
.LVL15:
	.loc 1 52 5
	lw	a5,44(sp)
	lbu	a7,31(sp)
	lbu	a6,30(sp)
	sw	a5,0(sp)
	lbu	a4,28(sp)
	lbu	a5,29(sp)
	lbu	a3,32(sp)
	lbu	a2,33(sp)
	lw	a1,36(sp)
	addi	a0,s0,%lo(.LC5)
	call	printf
.LVL16:
	.loc 1 62 1 is_stmt 0
	lw	ra,60(sp)
	.cfi_restore 1
	lw	s0,56(sp)
	.cfi_restore 8
	addi	sp,sp,64
	.cfi_def_cfa_offset 0
	jr	ra
	.cfi_endproc
.LFE7:
	.size	cmd_sntp_date, .-cmd_sntp_date
	.section	.text.cmd_sntp_time,"ax",@progbits
	.align	1
	.type	cmd_sntp_time, @function
cmd_sntp_time:
.LFB6:
	.loc 1 23 1 is_stmt 1
	.cfi_startproc
.LVL17:
	.loc 1 24 5
	.loc 1 23 1 is_stmt 0
	addi	sp,sp,-32
	.cfi_def_cfa_offset 32
	.loc 1 26 5
	addi	a1,sp,12
.LVL18:
	addi	a0,sp,8
.LVL19:
	.loc 1 23 1
	sw	ra,28(sp)
	.cfi_offset 1, -4
	.loc 1 24 14
	sw	zero,8(sp)
	.loc 1 24 27
	sw	zero,12(sp)
	.loc 1 26 5 is_stmt 1
	call	sntp_get_time
.LVL20:
	.loc 1 27 5
	lw	a2,12(sp)
	lw	a1,8(sp)
	lui	a0,%hi(.LC7)
	addi	a0,a0,%lo(.LC7)
	call	printf
.LVL21:
	.loc 1 28 1 is_stmt 0
	lw	ra,28(sp)
	.cfi_restore 1
	addi	sp,sp,32
	.cfi_def_cfa_offset 0
	jr	ra
	.cfi_endproc
.LFE6:
	.size	cmd_sntp_time, .-cmd_sntp_time
	.section	.text.cmd_sntp_start,"ax",@progbits
	.align	1
	.type	cmd_sntp_start, @function
cmd_sntp_start:
.LFB5:
	.loc 1 18 1 is_stmt 1
	.cfi_startproc
.LVL22:
	.loc 1 19 5
	lui	a0,%hi(_startup_sntp)
.LVL23:
	li	a1,0
.LVL24:
	addi	a0,a0,%lo(_startup_sntp)
	tail	tcpip_callback
.LVL25:
	.cfi_endproc
.LFE5:
	.size	cmd_sntp_start, .-cmd_sntp_start
	.section	.text.sntp_cli_init,"ax",@progbits
	.align	1
	.globl	sntp_cli_init
	.type	sntp_cli_init, @function
sntp_cli_init:
.LFB8:
	.loc 1 72 1
	.cfi_startproc
	.loc 1 77 5
	.loc 1 78 1 is_stmt 0
	li	a0,0
	ret
	.cfi_endproc
.LFE8:
	.size	sntp_cli_init, .-sntp_cli_init
	.section	.rodata._startup_sntp.str1.4,"aMS",@progbits,1
	.align	2
.LC0:
	.string	"--------------------------------------- Start NTP now\r\n"
.LC1:
	.string	"0.asia.pool.ntp.org"
.LC2:
	.string	"--------------------------------------- Start NTP Done\r\n"
	.section	.rodata.cmd_sntp_date.str1.4,"aMS",@progbits,1
	.align	2
.LC3:
	.string	"test epoch from 1581863713 --->>>\r\n"
.LC4:
	.string	"Should be Sunday, February 16, 2020 2:35:13 PM\r\n"
	.zero	3
.LC5:
	.string	"Date & time is: %u-%02u-%02u %02u:%02u:%02u (Day %u of week, Day %u of Year)\r\n"
	.zero	1
.LC6:
	.string	"SNTP GMT time is\r\n"
	.section	.rodata.cmd_sntp_time.str1.4,"aMS",@progbits,1
	.align	2
.LC7:
	.string	"[NTP] time is %lu:%lu\r\n"
	.section	.rodata.str1.4,"aMS",@progbits,1
	.align	2
.LC8:
	.string	"sntp_start"
	.zero	1
.LC9:
	.string	"sntp start"
	.zero	1
.LC10:
	.string	"sntp_time"
	.zero	2
.LC11:
	.string	"sntp time"
	.zero	2
.LC12:
	.string	"sntp_date"
	.zero	2
.LC13:
	.string	"sntp date"
	.section	.static_cli_cmds,"a"
	.align	2
	.type	cmds_user, @object
	.size	cmds_user, 36
cmds_user:
	.word	.LC8
	.word	.LC9
	.word	cmd_sntp_start
	.word	.LC10
	.word	.LC11
	.word	cmd_sntp_time
	.word	.LC12
	.word	.LC13
	.word	cmd_sntp_date
	.text
.Letext0:
	.file 2 "/b-l/bl_iot_sdk/toolchain/riscv/Linux/riscv64-unknown-elf/include/machine/_default_types.h"
	.file 3 "/b-l/bl_iot_sdk/toolchain/riscv/Linux/lib/gcc/riscv64-unknown-elf/8.3.0/include/stddef.h"
	.file 4 "/b-l/bl_iot_sdk/toolchain/riscv/Linux/riscv64-unknown-elf/include/sys/_types.h"
	.file 5 "/b-l/bl_iot_sdk/toolchain/riscv/Linux/riscv64-unknown-elf/include/sys/reent.h"
	.file 6 "/b-l/bl_iot_sdk/toolchain/riscv/Linux/riscv64-unknown-elf/include/sys/lock.h"
	.file 7 "/b-l/bl_iot_sdk/toolchain/riscv/Linux/riscv64-unknown-elf/include/sys/_stdint.h"
	.file 8 "/b-l/bl_iot_sdk/components/network/lwip/lwip-port/arch/cc.h"
	.file 9 "/b-l/bl_iot_sdk/toolchain/riscv/Linux/riscv64-unknown-elf/include/stdlib.h"
	.file 10 "/b-l/bl_iot_sdk/toolchain/riscv/Linux/riscv64-unknown-elf/include/ctype.h"
	.file 11 "/b-l/bl_iot_sdk/components/network/lwip/src/include/lwip/err.h"
	.file 12 "/b-l/bl_iot_sdk/components/bl602/freertos_riscv_ram/portable/GCC/RISC-V/portmacro.h"
	.file 13 "/b-l/bl_iot_sdk/components/bl602/freertos_riscv_ram/config/queue.h"
	.file 14 "/b-l/bl_iot_sdk/components/bl602/freertos_riscv_ram/config/semphr.h"
	.file 15 "/b-l/bl_iot_sdk/components/network/lwip/lwip-port/arch/sys_arch.h"
	.file 16 "/b-l/bl_iot_sdk/components/network/lwip/src/include/lwip/timeouts.h"
	.file 17 "/b-l/bl_iot_sdk/components/network/lwip/src/include/lwip/ip4_addr.h"
	.file 18 "/b-l/bl_iot_sdk/components/network/lwip/src/include/lwip/ip_addr.h"
	.file 19 "/b-l/bl_iot_sdk/components/network/lwip/src/include/lwip/pbuf.h"
	.file 20 "/b-l/bl_iot_sdk/components/network/lwip/src/include/lwip/mem.h"
	.file 21 "/b-l/bl_iot_sdk/components/network/lwip/src/include/lwip/priv/memp_priv.h"
	.file 22 "/b-l/bl_iot_sdk/components/network/lwip/src/include/lwip/stats.h"
	.file 23 "/b-l/bl_iot_sdk/components/network/lwip/src/include/lwip/memp.h"
	.file 24 "/b-l/bl_iot_sdk/components/network/lwip/src/include/lwip/netif.h"
	.file 25 "/b-l/bl_iot_sdk/components/network/lwip/src/include/lwip/tcpip.h"
	.file 26 "/b-l/bl_iot_sdk/components/stage/cli/cli/include/cli.h"
	.file 27 "/b-l/bl_iot_sdk/components/utils/include/utils_time.h"
	.file 28 "/b-l/bl_iot_sdk/toolchain/riscv/Linux/riscv64-unknown-elf/include/stdio.h"
	.file 29 "/b-l/bl_iot_sdk/components/network/sntp/include/sntp.h"