	.file	"wifi_mgmr_ext.c"
	.option nopic
	.attribute arch, "rv32i2p0_m2p0_f2p0_c2p0"
	.attribute unaligned_access, 0
	.attribute stack_align, 16
	.text
.Ltext0:
	.cfi_sections	.debug_frame
	.section	.text.mac_is_unvalid,"ax",@progbits
	.align	1
	.type	mac_is_unvalid, @function
mac_is_unvalid:
.LFB8:
	.file 1 "/b-l/bl_iot_sdk/components/bl602/bl602_wifidrv/bl60x_wifi_driver/wifi_mgmr_ext.c"
	.loc 1 99 1
	.cfi_startproc
.LVL0:
	.loc 1 100 5
	.loc 1 101 5
	.loc 1 103 5
	.loc 1 103 10 is_stmt 0
	lbu	a5,0(a0)
.LVL1:
	.loc 1 104 5 is_stmt 1
	.loc 1 104 12 is_stmt 0
	li	a4,1
	.loc 1 104 5
	li	a3,6
.LVL2:
.L3:
	.loc 1 105 9 is_stmt 1
	.loc 1 105 24 is_stmt 0
	add	a2,a0,a4
	.loc 1 105 12
	lbu	a2,0(a2)
	bne	a2,a5,.L5
	.loc 1 104 25 discriminator 2
	addi	a4,a4,1
.LVL3:
	.loc 1 104 5 discriminator 2
	bne	a4,a3,.L3
	.loc 1 109 5 is_stmt 1
	.loc 1 110 9
	.loc 1 110 23 is_stmt 0
	addi	a0,a5,-1
.LVL4:
	.loc 1 110 12
	andi	a0,a0,0xff
	sltiu	a0,a0,254
	xori	a0,a0,1
	.loc 1 117 1
	ret
.LVL5:
.L5:
	.loc 1 116 12
	li	a0,0
.LVL6:
	ret
	.cfi_endproc
.LFE8:
	.size	mac_is_unvalid, .-mac_is_unvalid
	.section	.text.cb_scan_item_parse,"ax",@progbits
	.align	1
	.type	cb_scan_item_parse, @function
cb_scan_item_parse:
.LFB7:
	.loc 1 72 1 is_stmt 1
	.cfi_startproc
.LVL7:
	.loc 1 74 5
	.loc 1 72 1 is_stmt 0
	addi	sp,sp,-32
	.cfi_def_cfa_offset 32
	sw	ra,28(sp)
	sw	s0,24(sp)
	sw	s1,20(sp)
	sw	s2,16(sp)
	sw	s3,12(sp)
	.cfi_offset 1, -4
	.cfi_offset 8, -8
	.cfi_offset 9, -12
	.cfi_offset 18, -16
	.cfi_offset 19, -20
	.loc 1 74 14
	lw	s2,0(a1)
.LVL8:
	.loc 1 77 5 is_stmt 1
	.loc 1 77 8 is_stmt 0
	li	a5,31
	bgtu	s2,a5,.L8
	.loc 1 82 66
	li	s0,52
	mul	s0,s2,s0
	.loc 1 86 31
	lbu	a5,46(a2)
	mv	s1,a2
	mv	s3,a1
	.loc 1 82 5 is_stmt 1
	.loc 1 88 5 is_stmt 0
	addi	a1,s1,40
.LVL9:
	.loc 1 83 12
	addi	s2,s2,1
.LVL10:
	.loc 1 82 26
	add	s0,a0,s0
.LVL11:
	.loc 1 83 5 is_stmt 1
	.loc 1 86 5
	.loc 1 86 25 is_stmt 0
	sb	a5,46(s0)
	.loc 1 87 5 is_stmt 1
	.loc 1 87 28 is_stmt 0
	lb	a5,48(a2)
	.loc 1 88 5
	addi	a0,s0,40
.LVL12:
	li	a2,6
.LVL13:
	.loc 1 87 22
	sb	a5,48(s0)
	.loc 1 88 5 is_stmt 1
	call	memcpy
.LVL14:
	.loc 1 89 5
	li	a2,32
	mv	a1,s1
	mv	a0,s0
	call	memcpy
.LVL15:
	.loc 1 90 5
	.loc 1 91 28 is_stmt 0
	mv	a0,s0
	.loc 1 90 30
	sb	zero,32(s0)
	.loc 1 91 5 is_stmt 1
	.loc 1 91 28 is_stmt 0
	call	strlen
.LVL16:
	.loc 1 91 26
	sw	a0,36(s0)
	.loc 1 92 5 is_stmt 1
	.loc 1 92 28 is_stmt 0
	lbu	a5,47(s1)
	.loc 1 92 22
	sb	a5,47(s0)
	.loc 1 95 5 is_stmt 1
	.loc 1 95 15 is_stmt 0
	sw	s2,0(s3)
.LVL17:
.L8:
	.loc 1 96 1
	lw	ra,28(sp)
	.cfi_restore 1
	lw	s0,24(sp)
	.cfi_restore 8
	lw	s1,20(sp)
	.cfi_restore 9
	lw	s2,16(sp)
	.cfi_restore 18
	lw	s3,12(sp)
	.cfi_restore 19
	addi	sp,sp,32
	.cfi_def_cfa_offset 0
	jr	ra
	.cfi_endproc
.LFE7:
	.size	cb_scan_item_parse, .-cb_scan_item_parse
	.section	.text.cb_scan_complete,"ax",@progbits
	.align	1
	.type	cb_scan_complete, @function
cb_scan_complete:
.LFB6:
	.loc 1 61 1 is_stmt 1
	.cfi_startproc
.LVL18:
	.loc 1 62 5
	.loc 1 63 5
	.loc 1 64 5
	.loc 1 61 1 is_stmt 0
	addi	sp,sp,-16
	.cfi_def_cfa_offset 16
	sw	ra,12(sp)
.LVL19:
	.cfi_offset 1, -4
	.loc 1 64 5
	lw	a2,36(a0)
	lw	a1,0(a1)
.LVL20:
	lui	a0,%hi(.LC0)
.LVL21:
	addi	a0,a0,%lo(.LC0)
	call	printf
.LVL22:
	.loc 1 66 5 is_stmt 1
	.loc 1 66 18 is_stmt 0
	lui	a5,%hi(scan_sig)
	lw	a0,%lo(scan_sig)(a5)
	.loc 1 66 8
	beq	a0,zero,.L11
	.loc 1 67 9 is_stmt 1
	.loc 1 69 1 is_stmt 0
	lw	ra,12(sp)
	.cfi_remember_state
	.cfi_restore 1
	.loc 1 67 9
	li	a3,0
	.loc 1 69 1
	.loc 1 67 9
	li	a2,0
	li	a1,0
	.loc 1 69 1
	addi	sp,sp,16
	.cfi_def_cfa_offset 0
	.loc 1 67 9
	tail	xQueueGenericSend
.LVL23:
.L11:
	.cfi_restore_state
	.loc 1 69 1
	lw	ra,12(sp)
	.cfi_restore 1
	addi	sp,sp,16
	.cfi_def_cfa_offset 0
	jr	ra
	.cfi_endproc
.LFE6:
	.size	cb_scan_complete, .-cb_scan_complete
	.section	.text.wifi_mgmr_psk_cal,"ax",@progbits
	.align	1
	.globl	wifi_mgmr_psk_cal
	.type	wifi_mgmr_psk_cal, @function
wifi_mgmr_psk_cal:
.LFB10:
	.loc 1 175 1 is_stmt 1
	.cfi_startproc
.LVL24:
	.loc 1 176 5
	.loc 1 177 5
	.loc 1 179 5
	.loc 1 175 1 is_stmt 0
	addi	sp,sp,-48
	.cfi_def_cfa_offset 48
	sw	s1,36(sp)
	.cfi_offset 9, -12
	mv	s1,a3
	.loc 1 179 11
	mv	a3,sp
.LVL25:
	.loc 1 175 1
	sw	s0,40(sp)
	sw	ra,44(sp)
	.cfi_offset 8, -8
	.cfi_offset 1, -4
	.loc 1 179 11
	call	bl60x_fw_password_hash
.LVL26:
	mv	s0,a0
.LVL27:
	.loc 1 180 5 is_stmt 1
	.loc 1 180 8 is_stmt 0
	bne	a0,zero,.L14
	.loc 1 181 9 is_stmt 1
	li	a2,32
	mv	a1,sp
	mv	a0,s1
	call	utils_bin2hex
.LVL28:
	.loc 1 184 5
.L14:
	.loc 1 185 1 is_stmt 0
	mv	a0,s0
	lw	ra,44(sp)
	.cfi_restore 1
	lw	s0,40(sp)
	.cfi_restore 8
.LVL29:
	lw	s1,36(sp)
	.cfi_restore 9
.LVL30:
	addi	sp,sp,48
	.cfi_def_cfa_offset 0
	jr	ra
	.cfi_endproc
.LFE10:
	.size	wifi_mgmr_psk_cal, .-wifi_mgmr_psk_cal
	.section	.text.wifi_mgmr_drv_init,"ax",@progbits
	.align	1
	.globl	wifi_mgmr_drv_init
	.type	wifi_mgmr_drv_init, @function
wifi_mgmr_drv_init:
.LFB11:
	.loc 1 188 1 is_stmt 1
	.cfi_startproc
.LVL31:
	.loc 1 189 5
	.loc 1 188 1 is_stmt 0
	addi	sp,sp,-16
	.cfi_def_cfa_offset 16
	sw	ra,12(sp)
	sw	s0,8(sp)
	.cfi_offset 1, -4
	.cfi_offset 8, -8
	.loc 1 188 1
	mv	s0,a0
	.loc 1 189 5
	call	bl606a0_wifi_init
.LVL32:
	.loc 1 190 5 is_stmt 1
	mv	a0,s0
	call	wifi_mgmr_api_set_country_code
.LVL33:
	.loc 1 191 5
	call	wifi_mgmr_init
.LVL34:
	.loc 1 192 5
	call	wifi_mgmr_api_ifaceup
.LVL35:
	.loc 1 193 5
	.loc 1 194 1 is_stmt 0
	lw	ra,12(sp)
	.cfi_restore 1
	lw	s0,8(sp)
	.cfi_restore 8
.LVL36:
	li	a0,0
	addi	sp,sp,16
	.cfi_def_cfa_offset 0
	jr	ra
	.cfi_endproc
.LFE11:
	.size	wifi_mgmr_drv_init, .-wifi_mgmr_drv_init
	.section	.text.wifi_mgmr_get_wifi_channel_conf,"ax",@progbits
	.align	1
	.globl	wifi_mgmr_get_wifi_channel_conf
	.type	wifi_mgmr_get_wifi_channel_conf, @function
wifi_mgmr_get_wifi_channel_conf:
.LFB12:
	.loc 1 197 1 is_stmt 1
	.cfi_startproc
.LVL37:
	.loc 1 198 5
	lui	a1,%hi(wifiMgmr+6078)
	.loc 1 197 1 is_stmt 0
	addi	sp,sp,-16
	.cfi_def_cfa_offset 16
	.loc 1 198 5
	li	a2,3
	addi	a1,a1,%lo(wifiMgmr+6078)
	.loc 1 197 1
	sw	s0,8(sp)
	sw	ra,12(sp)
	.cfi_offset 8, -8
	.cfi_offset 1, -4
	.loc 1 197 1
	mv	s0,a0
	.loc 1 198 5
	call	strncpy
.LVL38:
	.loc 1 199 5 is_stmt 1
	.loc 1 199 44 is_stmt 0
	lui	a5,%hi(wifiMgmr+4096)
	addi	a5,a5,%lo(wifiMgmr+4096)
	lw	a5,1988(a5)
	.loc 1 200 1
	lw	ra,12(sp)
	.cfi_restore 1
	.loc 1 199 34
	sw	a5,4(s0)
	.loc 1 200 1
	lw	s0,8(sp)
	.cfi_restore 8
.LVL39:
	addi	sp,sp,16
	.cfi_def_cfa_offset 0
	jr	ra
	.cfi_endproc
.LFE12:
	.size	wifi_mgmr_get_wifi_channel_conf, .-wifi_mgmr_get_wifi_channel_conf
	.section	.text.wifi_mgmr_sta_enable,"ax",@progbits
	.align	1
	.globl	wifi_mgmr_sta_enable
	.type	wifi_mgmr_sta_enable, @function
wifi_mgmr_sta_enable:
.LFB13:
	.loc 1 203 1 is_stmt 1
	.cfi_startproc
	.loc 1 204 5
	.loc 1 206 5
	.loc 1 203 1 is_stmt 0
	addi	sp,sp,-32
	.cfi_def_cfa_offset 32
	.loc 1 206 11
	lui	a5,%hi(.LANCHOR0)
	.loc 1 203 1
	sw	ra,28(sp)
	sw	s0,24(sp)
	sw	s1,20(sp)
	sw	s2,16(sp)
	.cfi_offset 1, -4
	.cfi_offset 8, -8
	.cfi_offset 9, -12
	.cfi_offset 18, -16
	.loc 1 206 11
	addi	a5,a5,%lo(.LANCHOR0)
	.loc 1 206 8
	lw	a3,0(a5)
	li	a4,1
	bne	a3,a4,.L22
	.loc 1 207 9 is_stmt 1
	lui	a0,%hi(.LC1)
	addi	a0,a0,%lo(.LC1)
	call	printf
.LVL40:
	.loc 1 208 9
.L23:
	.loc 1 217 1 is_stmt 0
	lw	ra,28(sp)
	.cfi_remember_state
	.cfi_restore 1
	lw	s0,24(sp)
	.cfi_restore 8
	lui	a0,%hi(wifiMgmr+12)
	lw	s1,20(sp)
	.cfi_restore 9
	lw	s2,16(sp)
	.cfi_restore 18
	addi	a0,a0,%lo(wifiMgmr+12)
	addi	sp,sp,32
	.cfi_def_cfa_offset 0
	jr	ra
.L22:
	.cfi_restore_state
	.loc 1 210 5 is_stmt 1
	.loc 1 212 5 is_stmt 0
	lui	a0,%hi(.LC2)
	addi	a0,a0,%lo(.LC2)
	.loc 1 210 10
	sw	a4,0(a5)
	.loc 1 212 5 is_stmt 1
	.loc 1 213 28 is_stmt 0
	lui	s0,%hi(wifiMgmr)
	.loc 1 212 5
	call	printf
.LVL41:
	.loc 1 213 5 is_stmt 1
.LBB6:
.LBB7:
	.loc 1 135 5 is_stmt 0
	lui	s1,%hi(wifiMgmr+102)
	lui	s2,%hi(wifiMgmr+17)
.LBE7:
.LBE6:
	.loc 1 213 28
	addi	a5,s0,%lo(wifiMgmr)
.LBB10:
.LBB8:
	.loc 1 135 5
	li	a2,6
	addi	a1,s2,%lo(wifiMgmr+17)
	addi	a0,s1,%lo(wifiMgmr+102)
.LBE8:
.LBE10:
	.loc 1 213 28
	sw	zero,12(a5)
	.loc 1 215 5 is_stmt 1
.LVL42:
.LBB11:
.LBB9:
	.loc 1 121 5
	.loc 1 122 5
	.loc 1 123 5
	.loc 1 130 5
	.loc 1 130 17 is_stmt 0
	sw	zero,4(sp)
	.loc 1 131 5 is_stmt 1
	.loc 1 131 18 is_stmt 0
	sw	zero,8(sp)
	.loc 1 132 5 is_stmt 1
	.loc 1 132 13 is_stmt 0
	sw	zero,12(sp)
	.loc 1 135 5 is_stmt 1
	call	memcpy
.LVL43:
	.loc 1 136 5
	.loc 1 136 9 is_stmt 0
	addi	a0,s1,%lo(wifiMgmr+102)
	call	mac_is_unvalid
.LVL44:
	addi	s0,s0,%lo(wifiMgmr)
	.loc 1 136 8
	beq	a0,zero,.L24
	.loc 1 138 9 is_stmt 1
	addi	a0,s1,%lo(wifiMgmr+102)
	call	bl_wifi_mac_addr_get
.LVL45:
	.loc 1 139 9
	.loc 1 139 13 is_stmt 0
	addi	a0,s1,%lo(wifiMgmr+102)
	call	mac_is_unvalid
.LVL46:
	.loc 1 139 12
	beq	a0,zero,.L25
	.loc 1 142 13 is_stmt 1
	.loc 1 143 13
	.loc 1 144 13
	.loc 1 145 13
	.loc 1 146 13
	.loc 1 147 13
	.loc 1 142 30 is_stmt 0
	li	a5,20480
	addi	a5,a5,192
	sh	a5,102(s0)
	.loc 1 144 30
	li	a5,16830464
	addi	a5,a5,-1725
	sw	a5,104(s0)
.L25:
	.loc 1 150 9 is_stmt 1
	li	a2,6
	addi	a1,s1,%lo(wifiMgmr+102)
	addi	a0,s2,%lo(wifiMgmr+17)
	call	memcpy
.LVL47:
.L24:
	.loc 1 166 5
	lui	s1,%hi(wifiMgmr+44)
	lui	a6,%hi(tcpip_input)
	lui	a5,%hi(bl606a0_wifi_netif_init)
	addi	a6,a6,%lo(tcpip_input)
	li	a4,0
	addi	a3,sp,12
	addi	a2,sp,8
	addi	a1,sp,4
	addi	a5,a5,%lo(bl606a0_wifi_netif_init)
	addi	a0,s1,%lo(wifiMgmr+44)
	call	netifapi_netif_add
.LVL48:
	.loc 1 167 5
	.loc 1 168 5
	.loc 1 167 20 is_stmt 0
	li	a5,28672
	addi	a5,a5,1139
	sh	a5,110(s0)
	.loc 1 169 5 is_stmt 1
	.loc 1 169 18 is_stmt 0
	lbu	a5,109(s0)
	.loc 1 170 5
	addi	a0,s1,%lo(wifiMgmr+44)
	.loc 1 169 18
	ori	a5,a5,36
	sb	a5,109(s0)
	.loc 1 170 5 is_stmt 1
	call	netif_set_default
.LVL49:
	.loc 1 171 5
	addi	a0,s1,%lo(wifiMgmr+44)
	call	netif_set_up
.LVL50:
	j	.L23
.LBE9:
.LBE11:
	.cfi_endproc
.LFE13:
	.size	wifi_mgmr_sta_enable, .-wifi_mgmr_sta_enable
	.section	.text.wifi_mgmr_sta_disable,"ax",@progbits
	.align	1
	.globl	wifi_mgmr_sta_disable
	.type	wifi_mgmr_sta_disable, @function
wifi_mgmr_sta_disable:
.LFB14:
	.loc 1 220 1
	.cfi_startproc
.LVL51:
	.loc 1 221 5
	.loc 1 220 1 is_stmt 0
	addi	sp,sp,-16
	.cfi_def_cfa_offset 16
	sw	ra,12(sp)
	.cfi_offset 1, -4
	.loc 1 221 5
	call	wifi_mgmr_api_idle
.LVL52:
	.loc 1 222 5 is_stmt 1
	.loc 1 223 1 is_stmt 0
	lw	ra,12(sp)
	.cfi_restore 1
	li	a0,0
	addi	sp,sp,16
	.cfi_def_cfa_offset 0
	jr	ra
	.cfi_endproc
.LFE14:
	.size	wifi_mgmr_sta_disable, .-wifi_mgmr_sta_disable
	.section	.text.wifi_mgmr_sta_mac_set,"ax",@progbits
	.align	1
	.globl	wifi_mgmr_sta_mac_set
	.type	wifi_mgmr_sta_mac_set, @function
wifi_mgmr_sta_mac_set:
.LFB15:
	.loc 1 226 1 is_stmt 1
	.cfi_startproc
.LVL53:
	.loc 1 227 5
	mv	a1,a0
	lui	a0,%hi(wifiMgmr+17)
.LVL54:
	.loc 1 226 1 is_stmt 0
	addi	sp,sp,-16
	.cfi_def_cfa_offset 16
	.loc 1 227 5
	li	a2,6
	addi	a0,a0,%lo(wifiMgmr+17)
	.loc 1 226 1
	sw	ra,12(sp)
	.cfi_offset 1, -4
	.loc 1 227 5
	call	memcpy
.LVL55:
	.loc 1 228 5 is_stmt 1
	.loc 1 229 1 is_stmt 0
	lw	ra,12(sp)
	.cfi_restore 1
	li	a0,0
	addi	sp,sp,16
	.cfi_def_cfa_offset 0
	jr	ra
	.cfi_endproc
.LFE15:
	.size	wifi_mgmr_sta_mac_set, .-wifi_mgmr_sta_mac_set
	.section	.text.wifi_mgmr_sta_mac_get,"ax",@progbits
	.align	1
	.globl	wifi_mgmr_sta_mac_get
	.type	wifi_mgmr_sta_mac_get, @function
wifi_mgmr_sta_mac_get:
.LFB16:
	.loc 1 232 1 is_stmt 1
	.cfi_startproc
.LVL56:
	.loc 1 235 5
	.loc 1 232 1 is_stmt 0
	addi	sp,sp,-16
	.cfi_def_cfa_offset 16
	sw	s0,8(sp)
	.cfi_offset 8, -8
	.loc 1 235 9
	lui	s0,%hi(wifiMgmr+17)
	.loc 1 232 1
	sw	s1,4(sp)
	.cfi_offset 9, -12
	mv	s1,a0
	.loc 1 235 9
	addi	a0,s0,%lo(wifiMgmr+17)
.LVL57:
	.loc 1 232 1
	sw	ra,12(sp)
	.cfi_offset 1, -4
	.loc 1 235 9
	call	mac_is_unvalid
.LVL58:
	.loc 1 235 8
	beq	a0,zero,.L39
	.loc 1 236 9 is_stmt 1
	addi	a0,s0,%lo(wifiMgmr+17)
	call	bl_wifi_mac_addr_get
.LVL59:
	.loc 1 237 9
	.loc 1 237 13 is_stmt 0
	addi	a0,s0,%lo(wifiMgmr+17)
	call	mac_is_unvalid
.LVL60:
	.loc 1 237 12
	beq	a0,zero,.L39
	.loc 1 240 13 is_stmt 1
	.loc 1 241 13
	.loc 1 242 13
	.loc 1 243 13
	.loc 1 244 13
	.loc 1 245 13
	.loc 1 240 38 is_stmt 0
	lui	a5,%hi(wifiMgmr)
	addi	a5,a5,%lo(wifiMgmr)
	li	a4,24
	sb	a4,17(a5)
	.loc 1 241 38
	li	a4,1465
	sh	a4,18(a5)
	.loc 1 245 38
	li	a4,1
	.loc 1 243 38
	sh	zero,20(a5)
	.loc 1 245 38
	sb	a4,22(a5)
.L39:
	.loc 1 248 5 is_stmt 1
	addi	a1,s0,%lo(wifiMgmr+17)
	mv	a0,s1
	li	a2,6
	call	memcpy
.LVL61:
	.loc 1 249 5
	.loc 1 250 1 is_stmt 0
	lw	ra,12(sp)
	.cfi_restore 1
	lw	s0,8(sp)
	.cfi_restore 8
	lw	s1,4(sp)
	.cfi_restore 9
.LVL62:
	li	a0,0
	addi	sp,sp,16
	.cfi_def_cfa_offset 0
	jr	ra
	.cfi_endproc
.LFE16:
	.size	wifi_mgmr_sta_mac_get, .-wifi_mgmr_sta_mac_get
	.section	.text.wifi_mgmr_sta_ip_get,"ax",@progbits
	.align	1
	.globl	wifi_mgmr_sta_ip_get
	.type	wifi_mgmr_sta_ip_get, @function
wifi_mgmr_sta_ip_get:
.LFB17:
	.loc 1 253 1 is_stmt 1
	.cfi_startproc
.LVL63:
	.loc 1 254 5
	.loc 1 254 72 is_stmt 0
	lui	a5,%hi(wifiMgmr)
	addi	a5,a5,%lo(wifiMgmr)
	lw	a4,48(a5)
	.loc 1 254 9
	sw	a4,0(a0)
	.loc 1 255 5 is_stmt 1
	.loc 1 255 74 is_stmt 0
	lw	a4,52(a5)
	.loc 1 259 1
	li	a0,0
.LVL64:
	.loc 1 255 11
	sw	a4,0(a2)
	.loc 1 256 5 is_stmt 1
	.loc 1 256 67 is_stmt 0
	lw	a5,56(a5)
	.loc 1 256 9
	sw	a5,0(a1)
	.loc 1 258 5 is_stmt 1
	.loc 1 259 1 is_stmt 0
	ret
	.cfi_endproc
.LFE17:
	.size	wifi_mgmr_sta_ip_get, .-wifi_mgmr_sta_ip_get
	.section	.text.wifi_mgmr_sta_dns_get,"ax",@progbits
	.align	1
	.globl	wifi_mgmr_sta_dns_get
	.type	wifi_mgmr_sta_dns_get, @function
wifi_mgmr_sta_dns_get:
.LFB18:
	.loc 1 262 1 is_stmt 1
	.cfi_startproc
.LVL65:
	.loc 1 263 5
	.loc 1 266 5
	.loc 1 262 1 is_stmt 0
	addi	sp,sp,-32
	.cfi_def_cfa_offset 32
	sw	s0,24(sp)
	.cfi_offset 8, -8
	mv	s0,a0
	.loc 1 266 11
	li	a0,0
.LVL66:
	.loc 1 262 1
	sw	ra,28(sp)
	.cfi_offset 1, -4
	.loc 1 262 1
	sw	a1,12(sp)
	.loc 1 266 11
	call	dns_getserver
.LVL67:
	.loc 1 267 5 is_stmt 1
	.loc 1 267 21 is_stmt 0
	lw	a5,0(a0)
	.loc 1 271 15
	li	a0,1
.LVL68:
	.loc 1 267 11
	sw	a5,0(s0)
	.loc 1 270 5 is_stmt 1
	.loc 1 271 9
	.loc 1 271 15 is_stmt 0
	call	dns_getserver
.LVL69:
	.loc 1 272 9 is_stmt 1
	.loc 1 272 25 is_stmt 0
	lw	a5,0(a0)
	.loc 1 272 15
	lw	a1,12(sp)
	.loc 1 278 1
	li	a0,0
.LVL70:
	.loc 1 272 15
	sw	a5,0(a1)
	.loc 1 277 5 is_stmt 1
	.loc 1 278 1 is_stmt 0
	lw	ra,28(sp)
	.cfi_restore 1
	lw	s0,24(sp)
	.cfi_restore 8
.LVL71:
	addi	sp,sp,32
	.cfi_def_cfa_offset 0
.LVL72:
	jr	ra
	.cfi_endproc
.LFE18:
	.size	wifi_mgmr_sta_dns_get, .-wifi_mgmr_sta_dns_get
	.section	.text.wifi_mgmr_sta_ip_set,"ax",@progbits
	.align	1
	.globl	wifi_mgmr_sta_ip_set
	.type	wifi_mgmr_sta_ip_set, @function
wifi_mgmr_sta_ip_set:
.LFB19:
	.loc 1 281 1 is_stmt 1
	.cfi_startproc
.LVL73:
	.loc 1 282 5
	.loc 1 281 1 is_stmt 0
	addi	sp,sp,-48
	.cfi_def_cfa_offset 48
	sw	ra,44(sp)
	.cfi_offset 1, -4
	.loc 1 281 1
	sw	a0,28(sp)
	sw	a1,24(sp)
	sw	a2,20(sp)
	sw	a3,16(sp)
	sw	a4,12(sp)
	.loc 1 282 5
	call	vTaskEnterCritical
.LVL74:
	.loc 1 284 5 is_stmt 1
	.loc 1 284 31 is_stmt 0
	lw	a0,28(sp)
	.loc 1 285 33
	lw	a1,24(sp)
	.loc 1 286 31
	lw	a2,20(sp)
	.loc 1 287 33
	lw	a3,16(sp)
	.loc 1 288 33
	lw	a4,12(sp)
	.loc 1 284 31
	lui	a5,%hi(wifiMgmr)
	addi	a5,a5,%lo(wifiMgmr)
	sw	a0,24(a5)
	.loc 1 285 5 is_stmt 1
	.loc 1 285 33 is_stmt 0
	sw	a1,28(a5)
	.loc 1 286 5 is_stmt 1
	.loc 1 286 31 is_stmt 0
	sw	a2,32(a5)
	.loc 1 287 5 is_stmt 1
	.loc 1 287 33 is_stmt 0
	sw	a3,36(a5)
	.loc 1 288 5 is_stmt 1
	.loc 1 288 33 is_stmt 0
	sw	a4,40(a5)
	.loc 1 290 5 is_stmt 1
	call	vTaskExitCritical
.LVL75:
	.loc 1 292 5
	call	wifi_mgmr_api_ip_update
.LVL76:
	.loc 1 294 5
	.loc 1 295 1 is_stmt 0
	lw	ra,44(sp)
	.cfi_restore 1
	li	a0,0
	addi	sp,sp,48
	.cfi_def_cfa_offset 0
.LVL77:
	jr	ra
	.cfi_endproc
.LFE19:
	.size	wifi_mgmr_sta_ip_set, .-wifi_mgmr_sta_ip_set
	.section	.text.wifi_mgmr_sta_ip_unset,"ax",@progbits
	.align	1
	.globl	wifi_mgmr_sta_ip_unset
	.type	wifi_mgmr_sta_ip_unset, @function
wifi_mgmr_sta_ip_unset:
.LFB20:
	.loc 1 298 1 is_stmt 1
	.cfi_startproc
	.loc 1 299 5
	.loc 1 299 12 is_stmt 0
	li	a4,0
	li	a3,0
	li	a2,0
	li	a1,0
	li	a0,0
	tail	wifi_mgmr_sta_ip_set
.LVL78:
	.cfi_endproc
.LFE20:
	.size	wifi_mgmr_sta_ip_unset, .-wifi_mgmr_sta_ip_unset
	.section	.text.wifi_mgmr_sta_disconnect,"ax",@progbits
	.align	1
	.globl	wifi_mgmr_sta_disconnect
	.type	wifi_mgmr_sta_disconnect, @function
wifi_mgmr_sta_disconnect:
.LFB22:
	.loc 1 310 1 is_stmt 1
	.cfi_startproc
	.loc 1 311 5
	.loc 1 310 1 is_stmt 0
	addi	sp,sp,-16
	.cfi_def_cfa_offset 16
	sw	ra,12(sp)
	.cfi_offset 1, -4
	.loc 1 311 5
	call	wifi_mgmr_api_disconnect
.LVL79:
	.loc 1 312 5 is_stmt 1
	.loc 1 313 1 is_stmt 0
	lw	ra,12(sp)
	.cfi_restore 1
	li	a0,0
	addi	sp,sp,16
	.cfi_def_cfa_offset 0
	jr	ra
	.cfi_endproc
.LFE22:
	.size	wifi_mgmr_sta_disconnect, .-wifi_mgmr_sta_disconnect
	.section	.text.wifi_mgmr_sta_powersaving,"ax",@progbits
	.align	1
	.globl	wifi_mgmr_sta_powersaving
	.type	wifi_mgmr_sta_powersaving, @function
wifi_mgmr_sta_powersaving:
.LFB23:
	.loc 1 316 1 is_stmt 1
	.cfi_startproc
.LVL80:
	.loc 1 317 5
	.loc 1 316 1 is_stmt 0
	addi	sp,sp,-16
	.cfi_def_cfa_offset 16
	sw	ra,12(sp)
	sw	s0,8(sp)
	.cfi_offset 1, -4
	.cfi_offset 8, -8
	.loc 1 317 5
	li	a5,1
	beq	a0,a5,.L55
	li	a5,2
	mv	s0,a0
	beq	a0,a5,.L55
	bne	a0,zero,.L57
	.loc 1 320 13 is_stmt 1
	call	wifi_mgmr_api_fw_powersaving
.LVL81:
	.loc 1 322 9
.L56:
	.loc 1 340 1 is_stmt 0
	mv	a0,s0
	lw	ra,12(sp)
	.cfi_remember_state
	.cfi_restore 1
	lw	s0,8(sp)
	.cfi_restore 8
	addi	sp,sp,16
	.cfi_def_cfa_offset 0
	jr	ra
.LVL82:
.L55:
	.cfi_restore_state
	.loc 1 330 13 is_stmt 1
	call	wifi_mgmr_api_fw_powersaving
.LVL83:
	.loc 1 332 9
	.loc 1 339 12 is_stmt 0
	li	s0,0
	.loc 1 332 9
	j	.L56
.LVL84:
.L57:
	.loc 1 336 20
	li	s0,-1
.LVL85:
	j	.L56
	.cfi_endproc
.LFE23:
	.size	wifi_mgmr_sta_powersaving, .-wifi_mgmr_sta_powersaving
	.section	.text.wifi_mgmr_sta_autoconnect_enable,"ax",@progbits
	.align	1
	.globl	wifi_mgmr_sta_autoconnect_enable
	.type	wifi_mgmr_sta_autoconnect_enable, @function
wifi_mgmr_sta_autoconnect_enable:
.LFB24:
	.loc 1 343 1 is_stmt 1
	.cfi_startproc
	.loc 1 344 5
	.loc 1 343 1 is_stmt 0
	addi	sp,sp,-16
	.cfi_def_cfa_offset 16
	sw	ra,12(sp)
	.cfi_offset 1, -4
	.loc 1 344 5
	call	wifi_mgmr_api_enable_autoreconnect
.LVL86:
	.loc 1 345 5 is_stmt 1
	.loc 1 346 1 is_stmt 0
	lw	ra,12(sp)
	.cfi_restore 1
	li	a0,0
	addi	sp,sp,16
	.cfi_def_cfa_offset 0
	jr	ra
	.cfi_endproc
.LFE24:
	.size	wifi_mgmr_sta_autoconnect_enable, .-wifi_mgmr_sta_autoconnect_enable
	.section	.text.wifi_mgmr_sta_autoconnect_disable,"ax",@progbits
	.align	1
	.globl	wifi_mgmr_sta_autoconnect_disable
	.type	wifi_mgmr_sta_autoconnect_disable, @function
wifi_mgmr_sta_autoconnect_disable:
.LFB25:
	.loc 1 349 1 is_stmt 1
	.cfi_startproc
	.loc 1 350 5
	.loc 1 349 1 is_stmt 0
	addi	sp,sp,-16
	.cfi_def_cfa_offset 16
	sw	ra,12(sp)
	.cfi_offset 1, -4
	.loc 1 350 5
	call	wifi_mgmr_api_disable_autoreconnect
.LVL87:
	.loc 1 351 5 is_stmt 1
	.loc 1 352 1 is_stmt 0
	lw	ra,12(sp)
	.cfi_restore 1
	li	a0,0
	addi	sp,sp,16
	.cfi_def_cfa_offset 0
	jr	ra
	.cfi_endproc
.LFE25:
	.size	wifi_mgmr_sta_autoconnect_disable, .-wifi_mgmr_sta_autoconnect_disable
	.section	.text.wifi_mgmr_sta_connect_ind_stat_get,"ax",@progbits
	.align	1
	.globl	wifi_mgmr_sta_connect_ind_stat_get
	.type	wifi_mgmr_sta_connect_ind_stat_get, @function
wifi_mgmr_sta_connect_ind_stat_get:
.LFB26:
	.loc 1 355 1 is_stmt 1
	.cfi_startproc
.LVL88:
	.loc 1 356 5
	.loc 1 355 1 is_stmt 0
	addi	sp,sp,-32
	.cfi_def_cfa_offset 32
	sw	s3,12(sp)
	.cfi_offset 19, -20
	.loc 1 356 20
	lui	s3,%hi(wifiMgmr+5971)
	.loc 1 355 1
	sw	s0,24(sp)
	.cfi_offset 8, -8
	mv	s0,a0
	.loc 1 356 20
	addi	a0,s3,%lo(wifiMgmr+5971)
.LVL89:
	.loc 1 355 1
	sw	s2,16(sp)
	sw	ra,28(sp)
	sw	s1,20(sp)
	sw	s4,8(sp)
	.cfi_offset 18, -16
	.cfi_offset 1, -4
	.cfi_offset 9, -12
	.cfi_offset 20, -24
	.loc 1 356 20
	call	strlen
.LVL90:
	.loc 1 357 5 is_stmt 1
	addi	s2,s0,3
	.loc 1 357 8 is_stmt 0
	ble	a0,zero,.L64
	mv	s1,a0
	.loc 1 358 9 is_stmt 1
	mv	a2,a0
	addi	a1,s3,%lo(wifiMgmr+5971)
	mv	a0,s2
.LVL91:
	.loc 1 359 44 is_stmt 0
	add	s1,s0,s1
.LVL92:
	.loc 1 358 9
	call	memcpy
.LVL93:
	.loc 1 359 9 is_stmt 1
	.loc 1 359 44 is_stmt 0
	sb	zero,3(s1)
.L64:
	.loc 1 362 5 is_stmt 1
	.loc 1 362 19 is_stmt 0
	lui	s4,%hi(wifiMgmr+6003)
	addi	a0,s4,%lo(wifiMgmr+6003)
	call	strlen
.LVL94:
	mv	s1,a0
.LVL95:
	.loc 1 363 5 is_stmt 1
	addi	s3,s0,35
	.loc 1 363 8 is_stmt 0
	ble	a0,zero,.L65
	.loc 1 364 9 is_stmt 1
	mv	a2,a0
	addi	a1,s4,%lo(wifiMgmr+6003)
	mv	a0,s3
	.loc 1 365 42 is_stmt 0
	add	s1,s0,s1
.LVL96:
	.loc 1 364 9
	call	memcpy
.LVL97:
	.loc 1 365 9 is_stmt 1
	.loc 1 365 42 is_stmt 0
	sb	zero,35(s1)
.L65:
	.loc 1 368 5 is_stmt 1
	lui	a1,%hi(wifiMgmr+6068)
	li	a2,6
	addi	a1,a1,%lo(wifiMgmr+6068)
	addi	a0,s0,164
	call	memcpy
.LVL98:
	.loc 1 370 5
	.loc 1 370 67 is_stmt 0
	lui	a5,%hi(wifiMgmr+4096)
	addi	a5,a5,%lo(wifiMgmr+4096)
	lhu	a1,1872(a5)
	.loc 1 375 5
	lui	a0,%hi(.LC3)
	addi	a0,a0,%lo(.LC3)
	.loc 1 370 37
	sh	a1,0(s0)
	.loc 1 371 5 is_stmt 1
	.loc 1 371 65 is_stmt 0
	lbu	a4,1980(a5)
	.loc 1 371 35
	sb	a4,172(s0)
	.loc 1 372 5 is_stmt 1
	.loc 1 372 65 is_stmt 0
	lhu	a4,1978(a5)
	.loc 1 372 35
	sh	a4,170(s0)
	.loc 1 373 5 is_stmt 1
	.loc 1 373 64 is_stmt 0
	lbu	a5,1874(a5)
	.loc 1 373 34
	sb	a5,2(s0)
	.loc 1 375 5 is_stmt 1
	call	printf
.LVL99:
	.loc 1 376 5
	lbu	a5,2(s0)
	lhu	a4,170(s0)
	lbu	a3,172(s0)
	lui	a0,%hi(.LC4)
	mv	a2,s3
	mv	a1,s2
	addi	a0,a0,%lo(.LC4)
	call	printf
.LVL100:
	.loc 1 382 5
	lbu	a6,169(s0)
	lbu	a5,168(s0)
	lbu	a4,167(s0)
	lbu	a3,166(s0)
	lbu	a2,165(s0)
	lbu	a1,164(s0)
	.loc 1 390 1 is_stmt 0
	lw	s0,24(sp)
	.cfi_restore 8
.LVL101:
	lw	ra,28(sp)
	.cfi_restore 1
	lw	s1,20(sp)
	.cfi_restore 9
	lw	s2,16(sp)
	.cfi_restore 18
	lw	s3,12(sp)
	.cfi_restore 19
.LVL102:
	lw	s4,8(sp)
	.cfi_restore 20
	.loc 1 382 5
	lui	a0,%hi(.LC5)
	.loc 1 390 1
	.loc 1 382 5
	addi	a0,a0,%lo(.LC5)
	.loc 1 390 1
	addi	sp,sp,32
	.cfi_def_cfa_offset 0
	.loc 1 382 5
	tail	printf
.LVL103:
	.cfi_endproc
.LFE26:
	.size	wifi_mgmr_sta_connect_ind_stat_get, .-wifi_mgmr_sta_connect_ind_stat_get
	.section	.text.wifi_mgmr_sta_ssid_set,"ax",@progbits
	.align	1
	.globl	wifi_mgmr_sta_ssid_set
	.type	wifi_mgmr_sta_ssid_set, @function
wifi_mgmr_sta_ssid_set:
.LFB27:
	.loc 1 393 1 is_stmt 1
	.cfi_startproc
.LVL104:
	.loc 1 394 5
	.loc 1 393 1 is_stmt 0
	addi	sp,sp,-16
	.cfi_def_cfa_offset 16
	sw	s0,8(sp)
	sw	ra,12(sp)
	.cfi_offset 8, -8
	.cfi_offset 1, -4
	.loc 1 393 1
	mv	s0,a0
	.loc 1 394 9
	call	strlen
.LVL105:
	.loc 1 394 8
	beq	a0,zero,.L67
.LVL106:
.LBB14:
.LBB15:
	.loc 1 395 9 is_stmt 1
	mv	a0,s0
	call	strlen
.LVL107:
	mv	a1,s0
.LBE15:
.LBE14:
	.loc 1 396 1 is_stmt 0
	lw	s0,8(sp)
	.cfi_remember_state
	.cfi_restore 8
.LVL108:
	lw	ra,12(sp)
	.cfi_restore 1
.LBB19:
.LBB16:
	.loc 1 395 9
	mv	a2,a0
	lui	a0,%hi(wifiMgmr+5971)
.LBE16:
.LBE19:
	.loc 1 396 1
.LBB20:
.LBB17:
	.loc 1 395 9
	addi	a0,a0,%lo(wifiMgmr+5971)
.LBE17:
.LBE20:
	.loc 1 396 1
	addi	sp,sp,16
	.cfi_def_cfa_offset 0
.LBB21:
.LBB18:
	.loc 1 395 9
	tail	memcpy
.LVL109:
.L67:
	.cfi_restore_state
.LBE18:
.LBE21:
	.loc 1 396 1
	lw	ra,12(sp)
	.cfi_restore 1
	lw	s0,8(sp)
	.cfi_restore 8
.LVL110:
	addi	sp,sp,16
	.cfi_def_cfa_offset 0
	jr	ra
	.cfi_endproc
.LFE27:
	.size	wifi_mgmr_sta_ssid_set, .-wifi_mgmr_sta_ssid_set
	.section	.text.wifi_mgmr_sta_psk_set,"ax",@progbits
	.align	1
	.globl	wifi_mgmr_sta_psk_set
	.type	wifi_mgmr_sta_psk_set, @function
wifi_mgmr_sta_psk_set:
.LFB28:
	.loc 1 399 1 is_stmt 1
	.cfi_startproc
.LVL111:
	.loc 1 400 5
	.loc 1 399 1 is_stmt 0
	addi	sp,sp,-16
	.cfi_def_cfa_offset 16
	sw	s0,8(sp)
	sw	ra,12(sp)
	.cfi_offset 8, -8
	.cfi_offset 1, -4
	.loc 1 399 1
	mv	s0,a0
	.loc 1 400 9
	call	strlen
.LVL112:
	.loc 1 400 8
	beq	a0,zero,.L70
.LVL113:
.LBB24:
.LBB25:
	.loc 1 401 9 is_stmt 1
	mv	a0,s0
	call	strlen
.LVL114:
	mv	a1,s0
.LBE25:
.LBE24:
	.loc 1 402 1 is_stmt 0
	lw	s0,8(sp)
	.cfi_remember_state
	.cfi_restore 8
.LVL115:
	lw	ra,12(sp)
	.cfi_restore 1
.LBB29:
.LBB26:
	.loc 1 401 9
	mv	a2,a0
	lui	a0,%hi(wifiMgmr+6003)
.LBE26:
.LBE29:
	.loc 1 402 1
.LBB30:
.LBB27:
	.loc 1 401 9
	addi	a0,a0,%lo(wifiMgmr+6003)
.LBE27:
.LBE30:
	.loc 1 402 1
	addi	sp,sp,16
	.cfi_def_cfa_offset 0
.LBB31:
.LBB28:
	.loc 1 401 9
	tail	memcpy
.LVL116:
.L70:
	.cfi_restore_state
.LBE28:
.LBE31:
	.loc 1 402 1
	lw	ra,12(sp)
	.cfi_restore 1
	lw	s0,8(sp)
	.cfi_restore 8
.LVL117:
	addi	sp,sp,16
	.cfi_def_cfa_offset 0
	jr	ra
	.cfi_endproc
.LFE28:
	.size	wifi_mgmr_sta_psk_set, .-wifi_mgmr_sta_psk_set
	.section	.text.wifi_mgmr_sta_connect,"ax",@progbits
	.align	1
	.globl	wifi_mgmr_sta_connect
	.type	wifi_mgmr_sta_connect, @function
wifi_mgmr_sta_connect:
.LFB21:
	.loc 1 303 1 is_stmt 1
	.cfi_startproc
.LVL118:
	.loc 1 304 5
	.loc 1 303 1 is_stmt 0
	addi	sp,sp,-32
	.cfi_def_cfa_offset 32
	.loc 1 304 5
	mv	a0,a1
.LVL119:
	.loc 1 303 1
	sw	ra,28(sp)
	sw	s0,24(sp)
	sw	s1,20(sp)
	.cfi_offset 1, -4
	.cfi_offset 8, -8
	.cfi_offset 9, -12
	.loc 1 303 1
	mv	s0,a1
	mv	s1,a2
	sw	a3,12(sp)
	sw	a4,8(sp)
	sw	a5,4(sp)
	sw	a6,0(sp)
	.loc 1 304 5
	call	wifi_mgmr_sta_ssid_set
.LVL120:
	.loc 1 305 5 is_stmt 1
	mv	a0,s1
	call	wifi_mgmr_sta_psk_set
.LVL121:
	.loc 1 306 5
	.loc 1 306 12 is_stmt 0
	mv	a0,s0
	.loc 1 307 1
	lw	s0,24(sp)
	.cfi_restore 8
.LVL122:
	.loc 1 306 12
	lw	a5,0(sp)
	lw	a4,4(sp)
	lw	a3,8(sp)
	lw	a2,12(sp)
	.loc 1 307 1
	lw	ra,28(sp)
	.cfi_restore 1
	.loc 1 306 12
	mv	a1,s1
	.loc 1 307 1
	lw	s1,20(sp)
	.cfi_restore 9
.LVL123:
	addi	sp,sp,32
	.cfi_def_cfa_offset 0
.LVL124:
	.loc 1 306 12
	tail	wifi_mgmr_api_connect
.LVL125:
	.cfi_endproc
.LFE21:
	.size	wifi_mgmr_sta_connect, .-wifi_mgmr_sta_connect
	.section	.text.wifi_mgmr_ap_enable,"ax",@progbits
	.align	1
	.globl	wifi_mgmr_ap_enable
	.type	wifi_mgmr_ap_enable, @function
wifi_mgmr_ap_enable:
.LFB30:
	.loc 1 446 1 is_stmt 1
	.cfi_startproc
	.loc 1 447 5
	.loc 1 446 1 is_stmt 0
	addi	sp,sp,-32
	.cfi_def_cfa_offset 32
	sw	s1,20(sp)
	.cfi_offset 9, -12
	.loc 1 447 27
	lui	s1,%hi(wifiMgmr)
	.loc 1 446 1
	sw	ra,28(sp)
	sw	s0,24(sp)
	sw	s2,16(sp)
	.cfi_offset 1, -4
	.cfi_offset 8, -8
	.cfi_offset 18, -16
	.loc 1 447 27
	addi	a5,s1,%lo(wifiMgmr)
	li	a4,1
	sw	a4,124(a5)
	.loc 1 448 5 is_stmt 1
.LVL126:
.LBB34:
.LBB35:
	.loc 1 406 5
	.loc 1 407 5
	.loc 1 408 5
	.loc 1 411 5
	.loc 1 411 21 is_stmt 0
	li	a5,17543168
	addi	a5,a5,-1856
	sw	a5,4(sp)
	.loc 1 412 5 is_stmt 1
	.loc 1 420 5 is_stmt 0
	lui	s0,%hi(wifiMgmr+214)
	.loc 1 412 22
	li	a5,16777216
	.loc 1 420 5
	lui	s2,%hi(wifiMgmr+129)
	.loc 1 412 22
	addi	a5,a5,-1
	.loc 1 420 5
	li	a2,6
	addi	a1,s2,%lo(wifiMgmr+129)
	addi	a0,s0,%lo(wifiMgmr+214)
	.loc 1 412 22
	sw	a5,8(sp)
	.loc 1 413 5 is_stmt 1
	.loc 1 413 17 is_stmt 0
	sw	zero,12(sp)
	.loc 1 420 5 is_stmt 1
	call	memcpy
.LVL127:
	.loc 1 421 5
	.loc 1 421 9 is_stmt 0
	addi	a0,s0,%lo(wifiMgmr+214)
	call	mac_is_unvalid
.LVL128:
	addi	s1,s1,%lo(wifiMgmr)
	.loc 1 421 8
	beq	a0,zero,.L76
	.loc 1 423 9 is_stmt 1
	addi	a0,s0,%lo(wifiMgmr+214)
	call	bl_wifi_mac_addr_get
.LVL129:
	.loc 1 424 9
	.loc 1 424 13 is_stmt 0
	addi	a0,s0,%lo(wifiMgmr+214)
	call	mac_is_unvalid
.LVL130:
	.loc 1 424 12
	beq	a0,zero,.L77
	.loc 1 427 13 is_stmt 1
	.loc 1 428 13
	.loc 1 429 13
	.loc 1 430 13
	.loc 1 431 13
	.loc 1 432 13
	.loc 1 427 30 is_stmt 0
	li	a5,20480
	addi	a5,a5,192
	sh	a5,214(s1)
	.loc 1 429 30
	li	a5,16830464
	addi	a5,a5,-1725
	sw	a5,216(s1)
.L77:
	.loc 1 435 9 is_stmt 1
	li	a2,6
	addi	a1,s0,%lo(wifiMgmr+214)
	addi	a0,s2,%lo(wifiMgmr+129)
	call	memcpy
.LVL131:
.L76:
	.loc 1 438 5
	lui	s0,%hi(wifiMgmr+156)
	lui	a6,%hi(tcpip_input)
	lui	a5,%hi(bl606a0_wifi_netif_init)
	addi	a3,sp,12
	addi	a2,sp,8
	addi	a1,sp,4
	addi	a6,a6,%lo(tcpip_input)
	li	a4,0
	addi	a5,a5,%lo(bl606a0_wifi_netif_init)
	addi	a0,s0,%lo(wifiMgmr+156)
	call	netifapi_netif_add
.LVL132:
	.loc 1 439 5
	.loc 1 440 5
	.loc 1 439 20 is_stmt 0
	li	a5,28672
	addi	a5,a5,97
	.loc 1 441 5
	addi	a0,s0,%lo(wifiMgmr+156)
	.loc 1 439 20
	sh	a5,222(s1)
	.loc 1 441 5 is_stmt 1
	call	netif_set_default
.LVL133:
	.loc 1 442 5
	addi	a0,s0,%lo(wifiMgmr+156)
	call	netif_set_up
.LVL134:
.LBE35:
.LBE34:
	.loc 1 449 5
	.loc 1 450 1 is_stmt 0
	lw	ra,28(sp)
	.cfi_restore 1
	lw	s0,24(sp)
	.cfi_restore 8
	.loc 1 449 12
	lui	a0,%hi(wifiMgmr+124)
	.loc 1 450 1
	lw	s1,20(sp)
	.cfi_restore 9
	lw	s2,16(sp)
	.cfi_restore 18
	addi	a0,a0,%lo(wifiMgmr+124)
	addi	sp,sp,32
	.cfi_def_cfa_offset 0
	jr	ra
	.cfi_endproc
.LFE30:
	.size	wifi_mgmr_ap_enable, .-wifi_mgmr_ap_enable
	.section	.text.wifi_mgmr_ap_mac_set,"ax",@progbits
	.align	1
	.globl	wifi_mgmr_ap_mac_set
	.type	wifi_mgmr_ap_mac_set, @function
wifi_mgmr_ap_mac_set:
.LFB31:
	.loc 1 453 1 is_stmt 1
	.cfi_startproc
.LVL135:
	.loc 1 454 5
	mv	a1,a0
	lui	a0,%hi(wifiMgmr+129)
.LVL136:
	.loc 1 453 1 is_stmt 0
	addi	sp,sp,-16
	.cfi_def_cfa_offset 16
	.loc 1 454 5
	li	a2,6
	addi	a0,a0,%lo(wifiMgmr+129)
	.loc 1 453 1
	sw	ra,12(sp)
	.cfi_offset 1, -4
	.loc 1 454 5
	call	memcpy
.LVL137:
	.loc 1 455 5 is_stmt 1
	.loc 1 456 1 is_stmt 0
	lw	ra,12(sp)
	.cfi_restore 1
	li	a0,0
	addi	sp,sp,16
	.cfi_def_cfa_offset 0
	jr	ra
	.cfi_endproc
.LFE31:
	.size	wifi_mgmr_ap_mac_set, .-wifi_mgmr_ap_mac_set
	.section	.text.wifi_mgmr_ap_mac_get,"ax",@progbits
	.align	1
	.globl	wifi_mgmr_ap_mac_get
	.type	wifi_mgmr_ap_mac_get, @function
wifi_mgmr_ap_mac_get:
.LFB32:
	.loc 1 459 1 is_stmt 1
	.cfi_startproc
.LVL138:
	.loc 1 462 5
	.loc 1 463 5
	.loc 1 459 1 is_stmt 0
	addi	sp,sp,-16
	.cfi_def_cfa_offset 16
	sw	s0,8(sp)
	.cfi_offset 8, -8
	.loc 1 463 5
	lui	s0,%hi(wifiMgmr+129)
	.loc 1 459 1
	sw	s1,4(sp)
	.cfi_offset 9, -12
	mv	s1,a0
	.loc 1 463 5
	addi	a0,s0,%lo(wifiMgmr+129)
.LVL139:
	.loc 1 459 1
	sw	ra,12(sp)
	.cfi_offset 1, -4
	.loc 1 463 5
	call	bl_efuse_read_mac
.LVL140:
	.loc 1 464 5 is_stmt 1
	.loc 1 464 9 is_stmt 0
	addi	a0,s0,%lo(wifiMgmr+129)
	call	mac_is_unvalid
.LVL141:
	.loc 1 464 8
	beq	a0,zero,.L88
	.loc 1 467 9 is_stmt 1
	.loc 1 468 9
	.loc 1 469 9
	.loc 1 470 9
	.loc 1 471 9
	.loc 1 472 9
	.loc 1 467 33 is_stmt 0
	lui	a5,%hi(wifiMgmr)
	addi	a5,a5,%lo(wifiMgmr)
	li	a4,-64
	sb	a4,129(a5)
	.loc 1 468 33
	li	a4,16384
	addi	a4,a4,848
	sh	a4,130(a5)
	.loc 1 470 33
	li	a4,201
	sh	a4,132(a5)
	.loc 1 472 33
	li	a4,1
	sb	a4,134(a5)
.L88:
	.loc 1 474 5 is_stmt 1
	addi	a1,s0,%lo(wifiMgmr+129)
	mv	a0,s1
	li	a2,6
	call	memcpy
.LVL142:
	.loc 1 475 5
	.loc 1 476 1 is_stmt 0
	lw	ra,12(sp)
	.cfi_restore 1
	lw	s0,8(sp)
	.cfi_restore 8
	lw	s1,4(sp)
	.cfi_restore 9
.LVL143:
	li	a0,0
	addi	sp,sp,16
	.cfi_def_cfa_offset 0
	jr	ra
	.cfi_endproc
.LFE32:
	.size	wifi_mgmr_ap_mac_get, .-wifi_mgmr_ap_mac_get
	.section	.text.wifi_mgmr_ap_ip_get,"ax",@progbits
	.align	1
	.globl	wifi_mgmr_ap_ip_get
	.type	wifi_mgmr_ap_ip_get, @function
wifi_mgmr_ap_ip_get:
.LFB33:
	.loc 1 479 1 is_stmt 1
	.cfi_startproc
.LVL144:
	.loc 1 480 5
	.loc 1 480 71 is_stmt 0
	lui	a5,%hi(wifiMgmr)
	addi	a5,a5,%lo(wifiMgmr)
	lw	a4,160(a5)
	.loc 1 480 9
	sw	a4,0(a0)
	.loc 1 481 5 is_stmt 1
	.loc 1 481 71 is_stmt 0
	lw	a4,164(a5)
	.loc 1 485 1
	li	a0,0
.LVL145:
	.loc 1 481 9
	sw	a4,0(a1)
	.loc 1 482 5 is_stmt 1
	.loc 1 482 68 is_stmt 0
	lw	a5,168(a5)
	.loc 1 482 11
	sw	a5,0(a2)
	.loc 1 484 5 is_stmt 1
	.loc 1 485 1 is_stmt 0
	ret
	.cfi_endproc
.LFE33:
	.size	wifi_mgmr_ap_ip_get, .-wifi_mgmr_ap_ip_get
	.section	.text.wifi_mgmr_ap_start,"ax",@progbits
	.align	1
	.globl	wifi_mgmr_ap_start
	.type	wifi_mgmr_ap_start, @function
wifi_mgmr_ap_start:
.LFB34:
	.loc 1 489 1 is_stmt 1
	.cfi_startproc
.LVL146:
	.loc 1 490 5
	.loc 1 489 1 is_stmt 0
	addi	sp,sp,-16
	.cfi_def_cfa_offset 16
	mv	a0,a1
.LVL147:
	mv	a1,a3
.LVL148:
	.loc 1 490 5
	andi	a3,a2,0xff
.LVL149:
	mv	a2,a4
.LVL150:
	.loc 1 489 1
	sw	ra,12(sp)
	.cfi_offset 1, -4
	.loc 1 490 5
	call	wifi_mgmr_api_ap_start
.LVL151:
	.loc 1 491 5 is_stmt 1
	.loc 1 492 1 is_stmt 0
	lw	ra,12(sp)
	.cfi_restore 1
	li	a0,0
	addi	sp,sp,16
	.cfi_def_cfa_offset 0
	jr	ra
	.cfi_endproc
.LFE34:
	.size	wifi_mgmr_ap_start, .-wifi_mgmr_ap_start
	.section	.text.wifi_mgmr_ap_stop,"ax",@progbits
	.align	1
	.globl	wifi_mgmr_ap_stop
	.type	wifi_mgmr_ap_stop, @function
wifi_mgmr_ap_stop:
.LFB35:
	.loc 1 495 1 is_stmt 1
	.cfi_startproc
.LVL152:
	.loc 1 496 5
	.loc 1 495 1 is_stmt 0
	addi	sp,sp,-16
	.cfi_def_cfa_offset 16
	sw	ra,12(sp)
	.cfi_offset 1, -4
	.loc 1 496 5
	call	wifi_mgmr_api_ap_stop
.LVL153:
	.loc 1 497 5 is_stmt 1
	.loc 1 498 1 is_stmt 0
	lw	ra,12(sp)
	.cfi_restore 1
	li	a0,0
	addi	sp,sp,16
	.cfi_def_cfa_offset 0
	jr	ra
	.cfi_endproc
.LFE35:
	.size	wifi_mgmr_ap_stop, .-wifi_mgmr_ap_stop
	.section	.text.wifi_mgmr_ap_sta_cnt_get,"ax",@progbits
	.align	1
	.globl	wifi_mgmr_ap_sta_cnt_get
	.type	wifi_mgmr_ap_sta_cnt_get, @function
wifi_mgmr_ap_sta_cnt_get:
.LFB36:
	.loc 1 501 1 is_stmt 1
	.cfi_startproc
.LVL154:
	.loc 1 502 5
	.loc 1 501 1 is_stmt 0
	addi	sp,sp,-16
	.cfi_def_cfa_offset 16
	sw	ra,12(sp)
	.cfi_offset 1, -4
	.loc 1 502 5
	call	wifi_mgmr_ap_sta_cnt_get_internal
.LVL155:
	.loc 1 503 5 is_stmt 1
	.loc 1 504 1 is_stmt 0
	lw	ra,12(sp)
	.cfi_restore 1
	li	a0,0
	addi	sp,sp,16
	.cfi_def_cfa_offset 0
	jr	ra
	.cfi_endproc
.LFE36:
	.size	wifi_mgmr_ap_sta_cnt_get, .-wifi_mgmr_ap_sta_cnt_get
	.section	.text.wifi_mgmr_ap_sta_info_get,"ax",@progbits
	.align	1
	.globl	wifi_mgmr_ap_sta_info_get
	.type	wifi_mgmr_ap_sta_info_get, @function
wifi_mgmr_ap_sta_info_get:
.LFB37:
	.loc 1 507 1 is_stmt 1
	.cfi_startproc
.LVL156:
	.loc 1 508 5
	.loc 1 509 5
	.loc 1 507 1 is_stmt 0
	addi	sp,sp,-48
	.cfi_def_cfa_offset 48
	sw	s0,40(sp)
	sw	s1,36(sp)
	.cfi_offset 8, -8
	.cfi_offset 9, -12
	mv	s0,a0
	mv	s1,a1
	.loc 1 509 5
	li	a2,24
	li	a1,0
.LVL157:
	addi	a0,sp,8
.LVL158:
	.loc 1 507 1
	sw	ra,44(sp)
	.cfi_offset 1, -4
	.loc 1 509 5
	call	memset
.LVL159:
	.loc 1 510 5 is_stmt 1
	mv	a1,s1
	addi	a0,sp,8
	call	wifi_mgmr_ap_sta_info_get_internal
.LVL160:
	.loc 1 511 5
	.loc 1 512 5
	.loc 1 511 23 is_stmt 0
	lhu	a5,8(sp)
	.loc 1 517 5
	addi	a1,sp,10
	addi	a0,s0,2
	.loc 1 511 23
	sh	a5,0(s0)
	.loc 1 513 5 is_stmt 1
	.loc 1 513 20 is_stmt 0
	lw	a5,24(sp)
	.loc 1 517 5
	li	a2,6
	.loc 1 513 20
	sw	a5,16(s0)
	.loc 1 514 5 is_stmt 1
	.loc 1 514 21 is_stmt 0
	lw	a5,20(sp)
	sw	a5,12(s0)
	.loc 1 515 5 is_stmt 1
	.loc 1 515 21 is_stmt 0
	lw	a5,16(sp)
	sw	a5,8(s0)
	.loc 1 516 5 is_stmt 1
	.loc 1 516 25 is_stmt 0
	lbu	a5,28(sp)
	sb	a5,20(s0)
	.loc 1 517 5 is_stmt 1
	call	memcpy
.LVL161:
	.loc 1 518 5
	.loc 1 519 1 is_stmt 0
	lw	ra,44(sp)
	.cfi_restore 1
	lw	s0,40(sp)
	.cfi_restore 8
.LVL162:
	lw	s1,36(sp)
	.cfi_restore 9
	li	a0,0
	addi	sp,sp,48
	.cfi_def_cfa_offset 0
	jr	ra
	.cfi_endproc
.LFE37:
	.size	wifi_mgmr_ap_sta_info_get, .-wifi_mgmr_ap_sta_info_get
	.section	.text.wifi_mgmr_ap_sta_delete,"ax",@progbits
	.align	1
	.globl	wifi_mgmr_ap_sta_delete
	.type	wifi_mgmr_ap_sta_delete, @function
wifi_mgmr_ap_sta_delete:
.LFB38:
	.loc 1 522 1 is_stmt 1
	.cfi_startproc
.LVL163:
	.loc 1 523 5
	.loc 1 522 1 is_stmt 0
	addi	sp,sp,-16
	.cfi_def_cfa_offset 16
	sw	ra,12(sp)
	.cfi_offset 1, -4
	.loc 1 523 5
	call	wifi_mgmr_ap_sta_delete_internal
.LVL164:
	.loc 1 524 5 is_stmt 1
	.loc 1 525 1 is_stmt 0
	lw	ra,12(sp)
	.cfi_restore 1
	li	a0,0
	addi	sp,sp,16
	.cfi_def_cfa_offset 0
	jr	ra
	.cfi_endproc
.LFE38:
	.size	wifi_mgmr_ap_sta_delete, .-wifi_mgmr_ap_sta_delete
	.section	.text.wifi_mgmr_ap_set_gateway,"ax",@progbits
	.align	1
	.globl	wifi_mgmr_ap_set_gateway
	.type	wifi_mgmr_ap_set_gateway, @function
wifi_mgmr_ap_set_gateway:
.LFB39:
	.loc 1 528 1 is_stmt 1
	.cfi_startproc
.LVL165:
	.loc 1 530 5
	.loc 1 531 1 is_stmt 0
	li	a0,0
.LVL166:
	ret
	.cfi_endproc
.LFE39:
	.size	wifi_mgmr_ap_set_gateway, .-wifi_mgmr_ap_set_gateway
	.section	.text.wifi_mgmr_sniffer_register,"ax",@progbits
	.align	1
	.globl	wifi_mgmr_sniffer_register
	.type	wifi_mgmr_sniffer_register, @function
wifi_mgmr_sniffer_register:
.LFB40:
	.loc 1 534 1 is_stmt 1
	.cfi_startproc
.LVL167:
	.loc 1 535 5
	.loc 1 534 1 is_stmt 0
	addi	sp,sp,-16
	.cfi_def_cfa_offset 16
	sw	ra,12(sp)
	.cfi_offset 1, -4
	.loc 1 535 5
	call	bl_rx_pkt_cb_register
.LVL168:
	.loc 1 536 5 is_stmt 1
	.loc 1 537 1 is_stmt 0
	lw	ra,12(sp)
	.cfi_restore 1
	li	a0,0
	addi	sp,sp,16
	.cfi_def_cfa_offset 0
	jr	ra
	.cfi_endproc
.LFE40:
	.size	wifi_mgmr_sniffer_register, .-wifi_mgmr_sniffer_register
	.section	.text.wifi_mgmr_sniffer_unregister,"ax",@progbits
	.align	1
	.globl	wifi_mgmr_sniffer_unregister
	.type	wifi_mgmr_sniffer_unregister, @function
wifi_mgmr_sniffer_unregister:
.LFB41:
	.loc 1 540 1 is_stmt 1
	.cfi_startproc
.LVL169:
	.loc 1 541 5
	.loc 1 540 1 is_stmt 0
	addi	sp,sp,-16
	.cfi_def_cfa_offset 16
	sw	ra,12(sp)
	.cfi_offset 1, -4
	.loc 1 541 5
	call	bl_rx_pkt_cb_unregister
.LVL170:
	.loc 1 542 5 is_stmt 1
	.loc 1 543 1 is_stmt 0
	lw	ra,12(sp)
	.cfi_restore 1
	li	a0,0
	addi	sp,sp,16
	.cfi_def_cfa_offset 0
	jr	ra
	.cfi_endproc
.LFE41:
	.size	wifi_mgmr_sniffer_unregister, .-wifi_mgmr_sniffer_unregister
	.section	.text.wifi_mgmr_sniffer_enable,"ax",@progbits
	.align	1
	.globl	wifi_mgmr_sniffer_enable
	.type	wifi_mgmr_sniffer_enable, @function
wifi_mgmr_sniffer_enable:
.LFB42:
	.loc 1 546 1 is_stmt 1
	.cfi_startproc
	.loc 1 547 5
	.loc 1 546 1 is_stmt 0
	addi	sp,sp,-16
	.cfi_def_cfa_offset 16
	sw	ra,12(sp)
	.cfi_offset 1, -4
	.loc 1 547 5
	call	wifi_mgmr_api_sniffer_enable
.LVL171:
	.loc 1 548 5 is_stmt 1
	.loc 1 549 1 is_stmt 0
	lw	ra,12(sp)
	.cfi_restore 1
	li	a0,0
	addi	sp,sp,16
	.cfi_def_cfa_offset 0
	jr	ra
	.cfi_endproc
.LFE42:
	.size	wifi_mgmr_sniffer_enable, .-wifi_mgmr_sniffer_enable
	.section	.text.wifi_mgmr_sniffer_disable,"ax",@progbits
	.align	1
	.globl	wifi_mgmr_sniffer_disable
	.type	wifi_mgmr_sniffer_disable, @function
wifi_mgmr_sniffer_disable:
.LFB43:
	.loc 1 552 1 is_stmt 1
	.cfi_startproc
	.loc 1 553 5
	.loc 1 552 1 is_stmt 0
	addi	sp,sp,-16
	.cfi_def_cfa_offset 16
	sw	ra,12(sp)
	.cfi_offset 1, -4
	.loc 1 553 5
	call	wifi_mgmr_api_idle
.LVL172:
	.loc 1 554 5 is_stmt 1
	.loc 1 555 1 is_stmt 0
	lw	ra,12(sp)
	.cfi_restore 1
	li	a0,0
	addi	sp,sp,16
	.cfi_def_cfa_offset 0
	jr	ra
	.cfi_endproc
.LFE43:
	.size	wifi_mgmr_sniffer_disable, .-wifi_mgmr_sniffer_disable
	.section	.text.wifi_mgmr_rate_config,"ax",@progbits
	.align	1
	.globl	wifi_mgmr_rate_config
	.type	wifi_mgmr_rate_config, @function
wifi_mgmr_rate_config:
.LFB44:
	.loc 1 558 1 is_stmt 1
	.cfi_startproc
.LVL173:
	.loc 1 559 5
	.loc 1 559 12 is_stmt 0
	tail	wifi_mgmr_api_rate_config
.LVL174:
	.cfi_endproc
.LFE44:
	.size	wifi_mgmr_rate_config, .-wifi_mgmr_rate_config
	.section	.text.wifi_mgmr_conf_max_sta,"ax",@progbits
	.align	1
	.globl	wifi_mgmr_conf_max_sta
	.type	wifi_mgmr_conf_max_sta, @function
wifi_mgmr_conf_max_sta:
.LFB45:
	.loc 1 563 1 is_stmt 1
	.cfi_startproc
.LVL175:
	.loc 1 564 5
	.loc 1 564 12 is_stmt 0
	tail	wifi_mgmr_api_conf_max_sta
.LVL176:
	.cfi_endproc
.LFE45:
	.size	wifi_mgmr_conf_max_sta, .-wifi_mgmr_conf_max_sta
	.section	.text.wifi_mgmr_state_get,"ax",@progbits
	.align	1
	.globl	wifi_mgmr_state_get
	.type	wifi_mgmr_state_get, @function
wifi_mgmr_state_get:
.LFB46:
	.loc 1 568 1 is_stmt 1
	.cfi_startproc
.LVL177:
	.loc 1 569 5
	.loc 1 569 12 is_stmt 0
	tail	wifi_mgmr_state_get_internal
.LVL178:
	.cfi_endproc
.LFE46:
	.size	wifi_mgmr_state_get, .-wifi_mgmr_state_get
	.section	.text.wifi_mgmr_status_code_get,"ax",@progbits
	.align	1
	.globl	wifi_mgmr_status_code_get
	.type	wifi_mgmr_status_code_get, @function
wifi_mgmr_status_code_get:
.LFB47:
	.loc 1 573 1 is_stmt 1
	.cfi_startproc
.LVL179:
	.loc 1 574 5
	.loc 1 574 12 is_stmt 0
	tail	wifi_mgmr_status_code_get_internal
.LVL180:
	.cfi_endproc
.LFE47:
	.size	wifi_mgmr_status_code_get, .-wifi_mgmr_status_code_get
	.section	.text.wifi_mgmr_rssi_get,"ax",@progbits
	.align	1
	.globl	wifi_mgmr_rssi_get
	.type	wifi_mgmr_rssi_get, @function
wifi_mgmr_rssi_get:
.LFB48:
	.loc 1 578 1 is_stmt 1
	.cfi_startproc
.LVL181:
	.loc 1 579 5
	.loc 1 579 34 is_stmt 0
	lui	a5,%hi(wifiMgmr+120)
	lb	a5,%lo(wifiMgmr+120)(a5)
	sw	a5,0(a0)
	.loc 1 580 5 is_stmt 1
	.loc 1 581 1 is_stmt 0
	li	a0,0
.LVL182:
	ret
	.cfi_endproc
.LFE48:
	.size	wifi_mgmr_rssi_get, .-wifi_mgmr_rssi_get
	.section	.text.wifi_mgmr_channel_get,"ax",@progbits
	.align	1
	.globl	wifi_mgmr_channel_get
	.type	wifi_mgmr_channel_get, @function
wifi_mgmr_channel_get:
.LFB49:
	.loc 1 584 1 is_stmt 1
	.cfi_startproc
.LVL183:
	.loc 1 585 5
	.loc 1 585 24 is_stmt 0
	lui	a5,%hi(wifiMgmr+4)
	lw	a5,%lo(wifiMgmr+4)(a5)
	.loc 1 585 14
	sw	a5,0(a0)
	.loc 1 586 5 is_stmt 1
	.loc 1 587 1 is_stmt 0
	li	a0,0
.LVL184:
	ret
	.cfi_endproc
.LFE49:
	.size	wifi_mgmr_channel_get, .-wifi_mgmr_channel_get
	.section	.text.wifi_mgmr_channel_set,"ax",@progbits
	.align	1
	.globl	wifi_mgmr_channel_set
	.type	wifi_mgmr_channel_set, @function
wifi_mgmr_channel_set:
.LFB50:
	.loc 1 590 1 is_stmt 1
	.cfi_startproc
.LVL185:
	.loc 1 591 5
	.loc 1 590 1 is_stmt 0
	addi	sp,sp,-32
	.cfi_def_cfa_offset 32
	.loc 1 591 22
	lui	a5,%hi(wifiMgmr+4)
	.loc 1 590 1
	sw	ra,28(sp)
	sw	s0,24(sp)
	.cfi_offset 1, -4
	.cfi_offset 8, -8
	.loc 1 590 1
	sw	a1,12(sp)
	mv	s0,a0
	.loc 1 591 22
	sw	a0,%lo(wifiMgmr+4)(a5)
	.loc 1 592 5 is_stmt 1
	call	wifi_mgmr_api_channel_set
.LVL186:
	.loc 1 593 5
	lw	a2,12(sp)
	lui	a0,%hi(.LC6)
	mv	a1,s0
	addi	a0,a0,%lo(.LC6)
	call	printf
.LVL187:
	.loc 1 594 5
	.loc 1 595 1 is_stmt 0
	lw	ra,28(sp)
	.cfi_restore 1
	lw	s0,24(sp)
	.cfi_restore 8
.LVL188:
	li	a0,0
	addi	sp,sp,32
	.cfi_def_cfa_offset 0
.LVL189:
	jr	ra
	.cfi_endproc
.LFE50:
	.size	wifi_mgmr_channel_set, .-wifi_mgmr_channel_set
	.section	.text.wifi_mgmr_raw_80211_send,"ax",@progbits
	.align	1
	.globl	wifi_mgmr_raw_80211_send
	.type	wifi_mgmr_raw_80211_send, @function
wifi_mgmr_raw_80211_send:
.LFB51:
	.loc 1 598 1 is_stmt 1
	.cfi_startproc
.LVL190:
	.loc 1 599 5
	.loc 1 599 8 is_stmt 0
	li	a5,480
	bgt	a1,a5,.L123
	.loc 1 603 5 is_stmt 1
	.loc 1 598 1 is_stmt 0
	addi	sp,sp,-16
	.cfi_def_cfa_offset 16
	sw	ra,12(sp)
	.cfi_offset 1, -4
	.loc 1 603 5
	call	wifi_mgmr_api_raw_send
.LVL191:
	.loc 1 605 5 is_stmt 1
	.loc 1 606 1 is_stmt 0
	lw	ra,12(sp)
	.cfi_restore 1
	.loc 1 605 12
	li	a0,0
	.loc 1 606 1
	addi	sp,sp,16
	.cfi_def_cfa_offset 0
	jr	ra
.LVL192:
.L123:
	.loc 1 601 16
	li	a0,-1
.LVL193:
	.loc 1 606 1
	ret
	.cfi_endproc
.LFE51:
	.size	wifi_mgmr_raw_80211_send, .-wifi_mgmr_raw_80211_send
	.section	.text.wifi_mgmr_scan,"ax",@progbits
	.align	1
	.globl	wifi_mgmr_scan
	.type	wifi_mgmr_scan, @function
wifi_mgmr_scan:
.LFB53:
	.loc 1 647 1 is_stmt 1
	.cfi_startproc
.LVL194:
	.loc 1 648 5
	.loc 1 648 13 is_stmt 0
	lui	a5,%hi(.LANCHOR1)
	.loc 1 647 1
	addi	sp,sp,-16
	.cfi_def_cfa_offset 16
	.loc 1 648 13
	sw	a1,%lo(.LANCHOR1)(a5)
	.loc 1 649 5 is_stmt 1
	.loc 1 649 15 is_stmt 0
	lui	a5,%hi(.LANCHOR2)
	.loc 1 647 1
	sw	ra,12(sp)
	.cfi_offset 1, -4
	.loc 1 649 15
	sw	a0,%lo(.LANCHOR2)(a5)
	.loc 1 651 5 is_stmt 1
	call	wifi_mgmr_api_fw_scan
.LVL195:
	.loc 1 653 5
	.loc 1 654 1 is_stmt 0
	lw	ra,12(sp)
	.cfi_restore 1
	li	a0,0
	addi	sp,sp,16
	.cfi_def_cfa_offset 0
	jr	ra
	.cfi_endproc
.LFE53:
	.size	wifi_mgmr_scan, .-wifi_mgmr_scan
	.section	.text.wifi_mgmr_scan_filter_hidden_ssid,"ax",@progbits
	.align	1
	.globl	wifi_mgmr_scan_filter_hidden_ssid
	.type	wifi_mgmr_scan_filter_hidden_ssid, @function
wifi_mgmr_scan_filter_hidden_ssid:
.LFB54:
	.loc 1 657 1 is_stmt 1
	.cfi_startproc
.LVL196:
	.loc 1 658 5
	.loc 1 657 1 is_stmt 0
	addi	sp,sp,-32
	.cfi_def_cfa_offset 32
	sw	a0,12(sp)
	sw	ra,28(sp)
	.cfi_offset 1, -4
	.loc 1 658 5
	call	vTaskEnterCritical
.LVL197:
	.loc 1 659 5 is_stmt 1
	.loc 1 659 8 is_stmt 0
	lw	a0,12(sp)
	lui	a4,%hi(wifiMgmr+4096)
	addi	a4,a4,%lo(wifiMgmr+4096)
	.loc 1 660 27
	lw	a5,1996(a4)
	.loc 1 659 8
	beq	a0,zero,.L131
	.loc 1 660 9 is_stmt 1
	.loc 1 660 27 is_stmt 0
	andi	a5,a5,-2
.L132:
	sw	a5,1996(a4)
	.loc 1 664 5 is_stmt 1
	call	vTaskExitCritical
.LVL198:
	.loc 1 665 5
	.loc 1 666 1 is_stmt 0
	lw	ra,28(sp)
	.cfi_remember_state
	.cfi_restore 1
	li	a0,0
	addi	sp,sp,32
	.cfi_def_cfa_offset 0
.LVL199:
	jr	ra
.LVL200:
.L131:
	.cfi_restore_state
	.loc 1 662 9 is_stmt 1
	.loc 1 662 27 is_stmt 0
	ori	a5,a5,1
	j	.L132
	.cfi_endproc
.LFE54:
	.size	wifi_mgmr_scan_filter_hidden_ssid, .-wifi_mgmr_scan_filter_hidden_ssid
	.section	.text.wifi_mgmr_scan_complete_callback,"ax",@progbits
	.align	1
	.globl	wifi_mgmr_scan_complete_callback
	.type	wifi_mgmr_scan_complete_callback, @function
wifi_mgmr_scan_complete_callback:
.LFB55:
	.loc 1 669 1 is_stmt 1
	.cfi_startproc
	.loc 1 670 5
	.loc 1 672 5 is_stmt 0
	lui	a1,%hi(.LANCHOR3)
	lui	a0,%hi(.LC7)
	.loc 1 669 1
	addi	sp,sp,-32
	.cfi_def_cfa_offset 32
	.loc 1 672 5
	addi	a1,a1,%lo(.LANCHOR3)
	addi	a0,a0,%lo(.LC7)
	.loc 1 669 1
	sw	ra,28(sp)
	.cfi_offset 1, -4
	.loc 1 670 9
	sw	zero,12(sp)
	.loc 1 672 5 is_stmt 1
	call	printf
.LVL201:
	.loc 1 673 5
	.loc 1 673 17 is_stmt 0
	lui	a5,%hi(.LANCHOR1)
	lw	a5,%lo(.LANCHOR1)(a5)
	.loc 1 673 8
	beq	a5,zero,.L135
	.loc 1 674 9 is_stmt 1
	.loc 1 674 16 is_stmt 0
	li	a4,1
	sw	a4,12(sp)
	.loc 1 675 9 is_stmt 1
	lui	a4,%hi(.LANCHOR2)
	lw	a0,%lo(.LANCHOR2)(a4)
	addi	a1,sp,12
	jalr	a5
.LVL202:
.L135:
	.loc 1 677 5
	.loc 1 678 1 is_stmt 0
	lw	ra,28(sp)
	.cfi_restore 1
	li	a0,0
	addi	sp,sp,32
	.cfi_def_cfa_offset 0
	jr	ra
	.cfi_endproc
.LFE55:
	.size	wifi_mgmr_scan_complete_callback, .-wifi_mgmr_scan_complete_callback
	.section	.text.wifi_mgmr_scan_ap,"ax",@progbits
	.align	1
	.globl	wifi_mgmr_scan_ap
	.type	wifi_mgmr_scan_ap, @function
wifi_mgmr_scan_ap:
.LFB56:
	.loc 1 681 1 is_stmt 1
	.cfi_startproc
.LVL203:
	.loc 1 682 5
	.loc 1 683 5
	.loc 1 684 5
	.loc 1 686 5
	.loc 1 681 1 is_stmt 0
	addi	sp,sp,-48
	.cfi_def_cfa_offset 48
	sw	s0,40(sp)
	.cfi_offset 8, -8
	lui	s0,%hi(wifiMgmr)
	sw	s1,36(sp)
	sw	s5,20(sp)
	.cfi_offset 9, -12
	.cfi_offset 21, -28
	addi	s1,s0,%lo(wifiMgmr)
.LBB38:
.LBB39:
	.file 2 "/b-l/bl_iot_sdk/components/bl602/bl602_wifidrv/bl60x_wifi_driver/wifi_mgmr.h"
	.loc 2 287 96
	li	s5,4096
.LBE39:
.LBE38:
	.loc 1 681 1
	sw	s2,32(sp)
	sw	s3,28(sp)
	sw	s8,8(sp)
	sw	s9,4(sp)
	sw	s10,0(sp)
	sw	ra,44(sp)
	sw	s4,24(sp)
	sw	s6,16(sp)
	sw	s7,12(sp)
	.cfi_offset 18, -16
	.cfi_offset 19, -20
	.cfi_offset 24, -40
	.cfi_offset 25, -44
	.cfi_offset 26, -48
	.cfi_offset 1, -4
	.cfi_offset 20, -24
	.cfi_offset 22, -32
	.cfi_offset 23, -36
	.loc 1 681 1
	mv	s8,a0
	mv	s2,a1
	.loc 1 686 12
	li	s3,0
	addi	s0,s0,%lo(wifiMgmr)
	li	s9,60
.LBB42:
.LBB40:
	.loc 2 287 96
	add	s5,s1,s5
.LBE40:
.LBE42:
	.loc 1 686 5
	li	s10,50
.LVL204:
.L142:
	.loc 1 687 9 is_stmt 1
	.loc 1 687 12 is_stmt 0
	lbu	a5,688(s1)
	bne	a5,zero,.L141
.L144:
	.loc 1 686 82
	addi	s3,s3,1
.LVL205:
	addi	s1,s1,60
	.loc 1 686 5
	bne	s3,s10,.L142
	.loc 1 709 16
	li	s4,-1
.LVL206:
.L140:
	.loc 1 713 1
	lw	ra,44(sp)
	.cfi_remember_state
	.cfi_restore 1
	lw	s0,40(sp)
	.cfi_restore 8
	mv	a0,s4
	lw	s1,36(sp)
	.cfi_restore 9
	lw	s2,32(sp)
	.cfi_restore 18
.LVL207:
	lw	s3,28(sp)
	.cfi_restore 19
.LVL208:
	lw	s4,24(sp)
	.cfi_restore 20
	lw	s5,20(sp)
	.cfi_restore 21
	lw	s6,16(sp)
	.cfi_restore 22
	lw	s7,12(sp)
	.cfi_restore 23
	lw	s8,8(sp)
	.cfi_restore 24
.LVL209:
	lw	s9,4(sp)
	.cfi_restore 25
	lw	s10,0(sp)
	.cfi_restore 26
	addi	sp,sp,48
	.cfi_def_cfa_offset 0
	jr	ra
.LVL210:
.L141:
	.cfi_restore_state
.LBB43:
.LBB41:
	.loc 2 287 27 discriminator 1
	call	xTaskGetTickCount
.LVL211:
	.loc 2 287 47 discriminator 1
	lw	a5,692(s1)
	mul	s6,s3,s9
	addi	s7,s1,636
.LVL212:
	.loc 2 287 5 is_stmt 1 discriminator 1
	.loc 2 287 47 is_stmt 0 discriminator 1
	sub	a0,a0,a5
.LBE41:
.LBE43:
	.loc 1 687 44 discriminator 1
	lw	a5,2000(s5)
	bgeu	a0,a5,.L144
	.loc 1 688 97
	mv	a1,s8
	mv	a0,s7
	call	strcmp
.LVL213:
	mv	s4,a0
	.loc 1 688 89
	bne	a0,zero,.L144
.LVL214:
	.loc 1 698 5 is_stmt 1
	.loc 1 701 9
	.loc 1 702 9
	li	a2,32
	mv	a1,s7
	mv	a0,s2
	call	memcpy
.LVL215:
	.loc 1 703 9
	.loc 1 704 26 is_stmt 0
	mv	a0,s2
	.loc 1 703 28
	sb	zero,32(s2)
	.loc 1 704 9 is_stmt 1
	.loc 1 704 26 is_stmt 0
	call	strlen
.LVL216:
	.loc 1 705 33
	addi	a1,s6,676
	.loc 1 704 24
	sw	a0,36(s2)
	.loc 1 705 9 is_stmt 1
	add	a1,s0,a1
	li	a2,6
	addi	a0,s2,40
	call	memcpy
.LVL217:
	.loc 1 706 9
	.loc 1 706 29 is_stmt 0
	add	s0,s0,s6
	lbu	a5,682(s0)
	.loc 1 706 23
	sb	a5,46(s2)
	.loc 1 707 9 is_stmt 1
	.loc 1 707 26 is_stmt 0
	lb	a5,683(s0)
	.loc 1 707 20
	sb	a5,48(s2)
	.loc 1 712 5 is_stmt 1
	.loc 1 712 12 is_stmt 0
	j	.L140
	.cfi_endproc
.LFE56:
	.size	wifi_mgmr_scan_ap, .-wifi_mgmr_scan_ap
	.section	.text.wifi_mgmr_scan_ap_all,"ax",@progbits
	.align	1
	.globl	wifi_mgmr_scan_ap_all
	.type	wifi_mgmr_scan_ap_all, @function
wifi_mgmr_scan_ap_all:
.LFB57:
	.loc 1 716 1 is_stmt 1
	.cfi_startproc
.LVL218:
	.loc 1 717 5
	.loc 1 718 5
	.loc 1 719 5
	.loc 1 721 5
	.loc 1 716 1 is_stmt 0
	addi	sp,sp,-112
	.cfi_def_cfa_offset 112
	li	a5,4096
	sw	s0,104(sp)
	.cfi_offset 8, -8
	lui	s0,%hi(wifiMgmr)
	addi	s0,s0,%lo(wifiMgmr)
	sw	s2,96(sp)
	.cfi_offset 18, -16
	addi	s2,a5,-1096
	sw	s1,100(sp)
	sw	s3,92(sp)
	sw	s4,88(sp)
	sw	s5,84(sp)
	sw	ra,108(sp)
	.cfi_offset 9, -12
	.cfi_offset 19, -20
	.cfi_offset 20, -24
	.cfi_offset 21, -28
	.cfi_offset 1, -4
	.loc 1 716 1
	mv	s3,a0
	mv	s4,a1
	mv	s5,a2
	add	s2,s0,s2
.LBB46:
.LBB47:
	.loc 2 287 96
	add	s1,s0,a5
.LVL219:
.L152:
.LBE47:
.LBE46:
	.loc 1 722 9 is_stmt 1
	.loc 1 723 9
	.loc 1 723 12 is_stmt 0
	lbu	a5,688(s0)
	beq	a5,zero,.L150
	addi	a1,s0,636
	sw	a1,12(sp)
.LVL220:
.LBB50:
.LBB48:
	.loc 2 287 5 is_stmt 1 discriminator 1
	.loc 2 287 27 is_stmt 0 discriminator 1
	call	xTaskGetTickCount
.LVL221:
	.loc 2 287 47 discriminator 1
	lw	a5,692(s0)
.LBE48:
.LBE50:
	.loc 1 723 27 discriminator 1
	lw	a1,12(sp)
.LBB51:
.LBB49:
	.loc 2 287 47 discriminator 1
	sub	a0,a0,a5
.LBE49:
.LBE51:
	.loc 1 723 27 discriminator 1
	lw	a5,2000(s1)
	bgeu	a0,a5,.L150
	.loc 1 725 13 is_stmt 1
	li	a2,32
	addi	a0,sp,28
	call	memcpy
.LVL222:
	.loc 1 726 13
	.loc 1 727 29 is_stmt 0
	addi	a0,sp,28
	.loc 1 726 31
	sb	zero,60(sp)
	.loc 1 727 13 is_stmt 1
	.loc 1 727 29 is_stmt 0
	call	strlen
.LVL223:
	.loc 1 727 27
	sw	a0,64(sp)
	.loc 1 728 13 is_stmt 1
	li	a2,6
	addi	a1,s0,676
	addi	a0,sp,68
	call	memcpy
.LVL224:
	.loc 1 729 13
	.loc 1 729 26 is_stmt 0
	lbu	a5,682(s0)
	.loc 1 732 13
	addi	a2,sp,28
	mv	a1,s4
	.loc 1 729 26
	sb	a5,74(sp)
	.loc 1 730 13 is_stmt 1
	.loc 1 730 23 is_stmt 0
	lbu	a5,683(s0)
	.loc 1 732 13
	mv	a0,s3
	.loc 1 730 23
	sb	a5,76(sp)
	.loc 1 731 13 is_stmt 1
	.loc 1 731 23 is_stmt 0
	lbu	a5,686(s0)
	sb	a5,75(sp)
	.loc 1 732 13 is_stmt 1
	jalr	s5
.LVL225:
.L150:
	addi	s0,s0,60
	.loc 1 721 5 is_stmt 0 discriminator 2
	bne	s0,s2,.L152
	.loc 1 736 5 is_stmt 1
	.loc 1 737 1 is_stmt 0
	lw	ra,108(sp)
	.cfi_restore 1
	lw	s0,104(sp)
	.cfi_restore 8
	lw	s1,100(sp)
	.cfi_restore 9
	lw	s2,96(sp)
	.cfi_restore 18
	lw	s3,92(sp)
	.cfi_restore 19
.LVL226:
	lw	s4,88(sp)
	.cfi_restore 20
.LVL227:
	lw	s5,84(sp)
	.cfi_restore 21
.LVL228:
	li	a0,0
	addi	sp,sp,112
	.cfi_def_cfa_offset 0
	jr	ra
	.cfi_endproc
.LFE57:
	.size	wifi_mgmr_scan_ap_all, .-wifi_mgmr_scan_ap_all
	.section	.text.wifi_mgmr_all_ap_scan,"ax",@progbits
	.align	1
	.globl	wifi_mgmr_all_ap_scan
	.type	wifi_mgmr_all_ap_scan, @function
wifi_mgmr_all_ap_scan:
.LFB52:
	.loc 1 609 1 is_stmt 1
	.cfi_startproc
.LVL229:
	.loc 1 610 5
	.loc 1 609 1 is_stmt 0
	addi	sp,sp,-48
	.cfi_def_cfa_offset 48
	sw	ra,44(sp)
	sw	s0,40(sp)
	sw	s1,36(sp)
	sw	s2,32(sp)
	sw	s3,28(sp)
	.cfi_offset 1, -4
	.cfi_offset 8, -8
	.cfi_offset 9, -12
	.cfi_offset 18, -16
	.cfi_offset 19, -20
	.loc 1 610 14
	sw	zero,12(sp)
	.loc 1 611 5 is_stmt 1
	.loc 1 613 5
	.loc 1 613 8 is_stmt 0
	bne	a0,zero,.L156
.LVL230:
.L168:
	.loc 1 625 9 is_stmt 1
	.loc 1 625 16 is_stmt 0
	li	a0,-1
.L155:
	.loc 1 644 1
	lw	ra,44(sp)
	.cfi_remember_state
	.cfi_restore 1
	lw	s0,40(sp)
	.cfi_restore 8
	lw	s1,36(sp)
	.cfi_restore 9
	lw	s2,32(sp)
	.cfi_restore 18
	lw	s3,28(sp)
	.cfi_restore 19
	addi	sp,sp,48
	.cfi_def_cfa_offset 0
	jr	ra
.LVL231:
.L156:
	.cfi_restore_state
	.loc 1 613 23 discriminator 1
	beq	a1,zero,.L168
	mv	s2,a0
	.loc 1 617 5 is_stmt 1
	.loc 1 617 39 is_stmt 0
	li	a0,1664
.LVL232:
	mv	s3,a1
	call	pvPortMalloc
.LVL233:
	mv	s1,a0
.LVL234:
	.loc 1 618 5 is_stmt 1
	.loc 1 618 7 is_stmt 0
	beq	a0,zero,.L168
	.loc 1 621 5 is_stmt 1
	li	a2,1664
	li	a1,0
	call	memset
.LVL235:
	.loc 1 623 5
	.loc 1 623 27 is_stmt 0
	li	a2,3
	li	a1,0
	li	a0,1
	call	xQueueGenericCreate
.LVL236:
	.loc 1 623 25
	lui	s0,%hi(scan_sig)
	sw	a0,%lo(scan_sig)(s0)
	.loc 1 623 7
	bne	a0,zero,.L159
	.loc 1 624 9 is_stmt 1
	mv	a0,s1
	call	vPortFree
.LVL237:
	j	.L168
.L159:
	.loc 1 628 5
.LVL238:
.LBB52:
.LBB53:
	.loc 1 648 5
	.loc 1 648 13 is_stmt 0
	lui	a5,%hi(cb_scan_complete)
	lui	a4,%hi(.LANCHOR1)
	addi	a5,a5,%lo(cb_scan_complete)
	sw	a5,%lo(.LANCHOR1)(a4)
	.loc 1 649 5 is_stmt 1
	.loc 1 649 15 is_stmt 0
	lui	a5,%hi(.LANCHOR2)
	sw	s1,%lo(.LANCHOR2)(a5)
	.loc 1 651 5 is_stmt 1
	call	wifi_mgmr_api_fw_scan
.LVL239:
	.loc 1 653 5
.LBE53:
.LBE52:
	.loc 1 630 5
	.loc 1 630 34 is_stmt 0
	lw	a0,%lo(scan_sig)(s0)
	li	a1,-1
	call	xQueueSemaphoreTake
.LVL240:
	.loc 1 630 8
	li	a5,1
	bne	a0,a5,.L160
	.loc 1 631 9 is_stmt 1
	lui	a0,%hi(.LC8)
	addi	a0,a0,%lo(.LC8)
	call	printf
.LVL241:
.L160:
	.loc 1 634 5
	call	wifi_mgmr_cli_scanlist
.LVL242:
	.loc 1 636 5
	lui	a2,%hi(cb_scan_item_parse)
	addi	a2,a2,%lo(cb_scan_item_parse)
	addi	a1,sp,12
	mv	a0,s1
	call	wifi_mgmr_scan_ap_all
.LVL243:
	.loc 1 638 5
	.loc 1 638 10 is_stmt 0
	lw	a5,12(sp)
	sw	a5,0(s3)
	.loc 1 639 5 is_stmt 1
	.loc 1 639 13 is_stmt 0
	sw	s1,0(s2)
	.loc 1 641 5 is_stmt 1
	lw	a0,%lo(scan_sig)(s0)
	call	vQueueDelete
.LVL244:
	.loc 1 643 5
	.loc 1 643 12 is_stmt 0
	li	a0,0
	j	.L155
	.cfi_endproc
.LFE52:
	.size	wifi_mgmr_all_ap_scan, .-wifi_mgmr_all_ap_scan
	.section	.text.wifi_mgmr_set_country_code,"ax",@progbits
	.align	1
	.globl	wifi_mgmr_set_country_code
	.type	wifi_mgmr_set_country_code, @function
wifi_mgmr_set_country_code:
.LFB58:
	.loc 1 740 1 is_stmt 1
	.cfi_startproc
.LVL245:
	.loc 1 741 5
	.loc 1 740 1 is_stmt 0
	addi	sp,sp,-16
	.cfi_def_cfa_offset 16
	sw	s0,8(sp)
	.loc 1 741 5
	mv	a2,a0
	.cfi_offset 8, -8
	.loc 1 740 1
	mv	s0,a0
	.loc 1 741 5
	lui	a1,%hi(.LANCHOR4)
	lui	a0,%hi(.LC9)
.LVL246:
	addi	a1,a1,%lo(.LANCHOR4)
	addi	a0,a0,%lo(.LC9)
	.loc 1 740 1
	sw	ra,12(sp)
	.cfi_offset 1, -4
	.loc 1 741 5
	call	printf
.LVL247:
	.loc 1 742 5 is_stmt 1
	mv	a0,s0
	call	wifi_mgmr_api_set_country_code
.LVL248:
	.loc 1 744 5
	.loc 1 745 1 is_stmt 0
	lw	ra,12(sp)
	.cfi_restore 1
	lw	s0,8(sp)
	.cfi_restore 8
.LVL249:
	li	a0,0
	addi	sp,sp,16
	.cfi_def_cfa_offset 0
	jr	ra
	.cfi_endproc
.LFE58:
	.size	wifi_mgmr_set_country_code, .-wifi_mgmr_set_country_code
	.section	.text.wifi_mgmr_status_code_str,"ax",@progbits
	.align	1
	.globl	wifi_mgmr_status_code_str
	.type	wifi_mgmr_status_code_str, @function
wifi_mgmr_status_code_str:
.LFB59:
	.loc 1 748 1 is_stmt 1
	.cfi_startproc
.LVL250:
	.loc 1 749 5
	li	a5,16
	bgtu	a0,a5,.L173
	slli	a5,a0,2
	lui	a0,%hi(.LANCHOR5)
.LVL251:
	addi	a0,a0,%lo(.LANCHOR5)
	add	a0,a0,a5
	lw	a0,0(a0)
	ret
.LVL252:
.L173:
	.loc 1 748 1 is_stmt 0
	lui	a0,%hi(.LC10)
.LVL253:
	addi	a0,a0,%lo(.LC10)
	.loc 1 806 1
	ret
	.cfi_endproc
.LFE59:
	.size	wifi_mgmr_status_code_str, .-wifi_mgmr_status_code_str
	.comm	scan_sig,4,4
	.section	.rodata.CSWTCH.17,"a"
	.align	2
	.set	.LANCHOR5,. + 0
	.type	CSWTCH.17, @object
	.size	CSWTCH.17, 68
CSWTCH.17:
	.word	.LC11
	.word	.LC12
	.word	.LC13
	.word	.LC14
	.word	.LC15
	.word	.LC16
	.word	.LC17
	.word	.LC18
	.word	.LC19
	.word	.LC20
	.word	.LC21
	.word	.LC22
	.word	.LC23
	.word	.LC24
	.word	.LC25
	.word	.LC26
	.word	.LC27
	.section	.rodata.__func__.6018,"a"
	.align	2
	.set	.LANCHOR3,. + 0
	.type	__func__.6018, @object
	.size	__func__.6018, 33
__func__.6018:
	.string	"wifi_mgmr_scan_complete_callback"
	.section	.rodata.__func__.6044,"a"
	.align	2
	.set	.LANCHOR4,. + 0
	.type	__func__.6044, @object
	.size	__func__.6044, 27
__func__.6044:
	.string	"wifi_mgmr_set_country_code"
	.section	.rodata.cb_scan_complete.str1.4,"aMS",@progbits,1
	.align	2
.LC0:
	.string	"scan complete status: %d, ssid_len = %lu\r\n"
	.section	.rodata.str1.4,"aMS",@progbits,1
	.align	2
.LC11:
	.string	"Connection OK"
	.zero	2
.LC12:
	.string	"tx auth frame alloc failure"
.LC13:
	.string	"Authentication failure"
	.zero	1
.LC14:
	.string	"Auth response but auth algo failure"
.LC15:
	.string	"tx assoc frame alloc failure"
	.zero	3
.LC16:
	.string	"Association failure"
.LC17:
	.string	"deauth by AP but state error"
	.zero	3
.LC18:
	.string	"deauth by AP when connecting"
	.zero	3
.LC19:
	.string	"Passwd error, 4-way handshake timeout"
	.zero	2
.LC20:
	.string	"Passwd error, tx deauth frame transmit failure"
	.zero	1
.LC21:
	.string	"Passwd error, tx deauth frame allocate failure"
	.zero	1
.LC22:
	.string	"tx auth or associate frame transmit failure"
.LC23:
	.string	"SSID error, scan no bssid and channel"
	.zero	2
.LC24:
	.string	"create channel context failure when join network"
	.zero	3
.LC25:
	.string	"join network failure"
	.zero	3
.LC26:
	.string	"add sta failure"
.LC27:
	.string	"Beacon Loss"
	.section	.rodata.wifi_mgmr_all_ap_scan.str1.4,"aMS",@progbits,1
	.align	2
.LC8:
	.string	"wifi scan Done\r\n"
	.section	.rodata.wifi_mgmr_channel_set.str1.4,"aMS",@progbits,1
	.align	2
.LC6:
	.string	"set channel %d, 40Mhz %d\r\n"
	.section	.rodata.wifi_mgmr_scan_complete_callback.str1.4,"aMS",@progbits,1
	.align	2
.LC7:
	.string	"%s: scan complete\r\n"
	.section	.rodata.wifi_mgmr_set_country_code.str1.4,"aMS",@progbits,1
	.align	2
.LC9:
	.string	"%s:code = %s\r\n"
	.section	.rodata.wifi_mgmr_sta_connect_ind_stat_get.str1.4,"aMS",@progbits,1
	.align	2
.LC3:
	.string	"wifi mgmr ind status code = %d\r\n"
	.zero	3
.LC4:
	.string	"ssid: %s, psk: %s, band: %d, freq: %d, type_ind: %d\r\n"
	.zero	2
.LC5:
	.string	"bssid: %02x%02x%02x%02x%02x%02x\r\n"
	.section	.rodata.wifi_mgmr_sta_enable.str1.4,"aMS",@progbits,1
	.align	2
.LC1:
	.string	"----- BUG FIXME? NOT do STA enable again\r\n"
	.zero	1
.LC2:
	.string	"---------STA enable\r\n"
	.section	.rodata.wifi_mgmr_status_code_str.str1.4,"aMS",@progbits,1
	.align	2
.LC10:
	.string	"Unknown Status Code"
	.section	.sbss.done.5854,"aw",@nobits
	.align	2
	.set	.LANCHOR0,. + 0
	.type	done.5854, @object
	.size	done.5854, 4
done.5854:
	.zero	4
	.section	.sbss.scan_cb,"aw",@nobits
	.align	2
	.set	.LANCHOR1,. + 0
	.type	scan_cb, @object
	.size	scan_cb, 4
scan_cb:
	.zero	4
	.section	.sbss.scan_data,"aw",@nobits
	.align	2
	.set	.LANCHOR2,. + 0
	.type	scan_data, @object
	.size	scan_data, 4
scan_data:
	.zero	4
	.text
.Letext0:
	.file 3 "/b-l/bl_iot_sdk/toolchain/riscv/Linux/lib/gcc/riscv64-unknown-elf/8.3.0/include/stddef.h"
	.file 4 "/b-l/bl_iot_sdk/toolchain/riscv/Linux/riscv64-unknown-elf/include/sys/_types.h"
	.file 5 "/b-l/bl_iot_sdk/toolchain/riscv/Linux/riscv64-unknown-elf/include/sys/reent.h"
	.file 6 "/b-l/bl_iot_sdk/toolchain/riscv/Linux/riscv64-unknown-elf/include/sys/lock.h"
	.file 7 "/b-l/bl_iot_sdk/toolchain/riscv/Linux/lib/gcc/riscv64-unknown-elf/8.3.0/include/stdint-gcc.h"
	.file 8 "/b-l/bl_iot_sdk/components/network/lwip/lwip-port/arch/cc.h"
	.file 9 "/b-l/bl_iot_sdk/toolchain/riscv/Linux/riscv64-unknown-elf/include/stdlib.h"
	.file 10 "/b-l/bl_iot_sdk/toolchain/riscv/Linux/riscv64-unknown-elf/include/ctype.h"
	.file 11 "/b-l/bl_iot_sdk/components/network/lwip/src/include/lwip/err.h"
	.file 12 "/b-l/bl_iot_sdk/components/bl602/freertos_riscv_ram/config/projdefs.h"
	.file 13 "/b-l/bl_iot_sdk/components/bl602/freertos_riscv_ram/portable/GCC/RISC-V/portmacro.h"
	.file 14 "/b-l/bl_iot_sdk/components/bl602/freertos_riscv_ram/config/FreeRTOS.h"
	.file 15 "/b-l/bl_iot_sdk/components/bl602/freertos_riscv_ram/config/queue.h"
	.file 16 "/b-l/bl_iot_sdk/components/bl602/freertos_riscv_ram/config/semphr.h"
	.file 17 "/b-l/bl_iot_sdk/components/network/lwip/lwip-port/arch/sys_arch.h"
	.file 18 "/b-l/bl_iot_sdk/components/network/lwip/src/include/lwip/timeouts.h"
	.file 19 "/b-l/bl_iot_sdk/components/network/lwip/src/include/lwip/ip4_addr.h"
	.file 20 "/b-l/bl_iot_sdk/components/network/lwip/src/include/lwip/ip_addr.h"
	.file 21 "/b-l/bl_iot_sdk/components/network/lwip/src/include/lwip/pbuf.h"
	.file 22 "/b-l/bl_iot_sdk/components/network/lwip/src/include/lwip/mem.h"
	.file 23 "/b-l/bl_iot_sdk/components/network/lwip/src/include/lwip/priv/memp_priv.h"
	.file 24 "/b-l/bl_iot_sdk/components/network/lwip/src/include/lwip/stats.h"
	.file 25 "/b-l/bl_iot_sdk/components/network/lwip/src/include/lwip/memp.h"
	.file 26 "/b-l/bl_iot_sdk/components/network/lwip/src/include/lwip/netif.h"
	.file 27 "/b-l/bl_iot_sdk/components/network/lwip/src/include/lwip/tcpip.h"
	.file 28 "/b-l/bl_iot_sdk/components/network/lwip/src/include/lwip/prot/ip4.h"
	.file 29 "/b-l/bl_iot_sdk/components/network/lwip/src/include/lwip/ip.h"
	.file 30 "/b-l/bl_iot_sdk/components/network/lwip/src/include/lwip/udp.h"
	.file 31 "/b-l/bl_iot_sdk/components/network/lwip/src/include/lwip/dns.h"
	.file 32 "/b-l/bl_iot_sdk/components/bl602/bl602_wifidrv/bl60x_wifi_driver/include/wifi_mgmr_ext.h"
	.file 33 "/b-l/bl_iot_sdk/components/bl602/bl602_wifidrv/bl60x_wifi_driver/stateMachine.h"
	.file 34 "/b-l/bl_iot_sdk/components/bl602/bl602_wifidrv/bl60x_wifi_driver/os_hal.h"
	.file 35 "/b-l/bl_iot_sdk/toolchain/riscv/Linux/riscv64-unknown-elf/include/stdio.h"
	.file 36 "/b-l/bl_iot_sdk/components/bl602/bl602_wifidrv/bl60x_wifi_driver/wifi_mgmr_api.h"
	.file 37 "/b-l/bl_iot_sdk/components/bl602/freertos_riscv_ram/config/task.h"
	.file 38 "/b-l/bl_iot_sdk/toolchain/riscv/Linux/riscv64-unknown-elf/include/string.h"
	.file 39 "/b-l/bl_iot_sdk/components/bl602/freertos_riscv_ram/config/portable.h"
	.file 40 "/b-l/bl_iot_sdk/components/bl602/bl602_wifidrv/bl60x_wifi_driver/bl_main.h"
	.file 41 "/b-l/bl_iot_sdk/components/hal_drv/bl602_hal/bl_efuse.h"
	.file 42 "/b-l/bl_iot_sdk/components/hal_drv/bl602_hal/bl_wifi.h"
	.file 43 "/b-l/bl_iot_sdk/components/network/lwip/src/include/lwip/netifapi.h"
	.file 44 "/b-l/bl_iot_sdk/components/bl602/bl602_wifi/include/bl60x_fw_api.h"
	.file 45 "/b-l/bl_iot_sdk/components/utils/include/utils_hex.h"