	.file	"utils_memp.c"
	.option nopic
	.attribute arch, "rv32i2p0_m2p0_f2p0_c2p0"
	.attribute unaligned_access, 0
	.attribute stack_align, 16
	.text
.Ltext0:
	.cfi_sections	.debug_frame
	.section	.text.utils_memp_init,"ax",@progbits
	.align	1
	.globl	utils_memp_init
	.type	utils_memp_init, @function
utils_memp_init:
.LFB1:
	.file 1 "/b-l/bl_iot_sdk/components/utils/src/utils_memp.c"
	.loc 1 39 1
	.cfi_startproc
.LVL0:
	.loc 1 40 5
	.loc 1 41 5
	.loc 1 42 5
	.loc 1 43 5
	.loc 1 44 5
	.loc 1 45 5
	.loc 1 47 5
	.loc 1 39 1 is_stmt 0
	addi	sp,sp,-48
	.cfi_def_cfa_offset 48
	.loc 1 47 50
	addi	a3,a3,3
.LVL1:
	.loc 1 39 1
	sw	s2,32(sp)
	.cfi_offset 18, -16
	.loc 1 47 15
	andi	s2,a3,252
.LVL2:
	.loc 1 48 5 is_stmt 1
	.loc 1 48 71 is_stmt 0
	slli	a5,s2,16
	.loc 1 39 1
	sw	s1,36(sp)
	.loc 1 48 71
	srli	a5,a5,16
	.cfi_offset 9, -12
	.loc 1 48 85
	addi	s1,a1,3
	add	s1,a5,s1
	.loc 1 48 89
	neg	a5,a5
	.loc 1 48 22
	and	s1,s1,a5
	slli	s1,s1,16
	srli	s1,s1,16
.LVL3:
	.loc 1 50 5 is_stmt 1
	.loc 1 51 5
	.loc 1 39 1 is_stmt 0
	sw	s3,28(sp)
	.cfi_offset 19, -20
	mv	s3,a0
	.loc 1 52 30
	mul	a0,s1,a2
.LVL4:
	.loc 1 39 1
	sw	s0,40(sp)
	.loc 1 51 35
	addi	a5,s2,31
	.cfi_offset 8, -8
	.loc 1 51 41
	neg	s0,s2
	.loc 1 51 10
	and	s0,a5,s0
.LVL5:
	.loc 1 52 5 is_stmt 1
	.loc 1 54 5
	.loc 1 39 1 is_stmt 0
	sw	ra,44(sp)
	.cfi_offset 1, -4
	.loc 1 48 85
	sw	a1,12(sp)
	.loc 1 52 30
	sw	a2,8(sp)
	.loc 1 54 13
	add	a0,a0,s0
	call	pvPortMalloc
.LVL6:
	.loc 1 56 5 is_stmt 1
	.loc 1 56 8 is_stmt 0
	beq	a0,zero,.L5
	.loc 1 60 5 is_stmt 1
	.loc 1 62 22 is_stmt 0
	lw	a1,12(sp)
	.loc 1 63 21
	lw	a2,8(sp)
	.loc 1 60 10
	add	a5,a0,s0
.LVL7:
	.loc 1 61 5 is_stmt 1
	.loc 1 61 23 is_stmt 0
	sw	a5,20(a0)
	.loc 1 62 5 is_stmt 1
	.loc 1 62 22 is_stmt 0
	sw	a1,0(a0)
	.loc 1 63 5 is_stmt 1
	.loc 1 63 21 is_stmt 0
	sw	a2,4(a0)
	.loc 1 64 5 is_stmt 1
	.loc 1 64 22 is_stmt 0
	sw	zero,8(a0)
	.loc 1 65 5 is_stmt 1
	.loc 1 65 22 is_stmt 0
	sb	s2,12(a0)
	.loc 1 66 5 is_stmt 1
	.loc 1 66 29 is_stmt 0
	sw	s1,16(a0)
	.loc 1 67 5 is_stmt 1
	.loc 1 67 16 is_stmt 0
	sw	zero,28(a0)
	.loc 1 68 5 is_stmt 1
.LVL8:
	.loc 1 70 5
	.loc 1 70 11 is_stmt 0
	li	a4,0
	.loc 1 68 14
	li	a3,0
.LVL9:
.L3:
	.loc 1 70 5 discriminator 1
	bne	a4,a2,.L4
	.loc 1 75 5 is_stmt 1
	.loc 1 75 16 is_stmt 0
	sw	a3,28(a0)
	.loc 1 76 5 is_stmt 1
	.loc 1 76 22 is_stmt 0
	sw	a3,24(a0)
	.loc 1 77 5 is_stmt 1
	.loc 1 77 11 is_stmt 0
	sw	a0,0(s3)
	.loc 1 79 5 is_stmt 1
	.loc 1 79 12 is_stmt 0
	li	a0,0
.LVL10:
.L1:
	.loc 1 80 1
	lw	ra,44(sp)
	.cfi_remember_state
	.cfi_restore 1
	lw	s0,40(sp)
	.cfi_restore 8
.LVL11:
	lw	s1,36(sp)
	.cfi_restore 9
.LVL12:
	lw	s2,32(sp)
	.cfi_restore 18
.LVL13:
	lw	s3,28(sp)
	.cfi_restore 19
.LVL14:
	addi	sp,sp,48
	.cfi_def_cfa_offset 0
	jr	ra
.LVL15:
.L4:
	.cfi_restore_state
	.loc 1 71 9 is_stmt 1 discriminator 3
	.loc 1 70 30 is_stmt 0 discriminator 3
	addi	a4,a4,1
.LVL16:
	slli	a4,a4,16
	.loc 1 71 20 discriminator 3
	sw	a3,0(a5)
	.loc 1 72 9 is_stmt 1 discriminator 3
.LVL17:
	.loc 1 73 9 discriminator 3
	.loc 1 70 30 is_stmt 0 discriminator 3
	srli	a4,a4,16
.LVL18:
	mv	a3,a5
	.loc 1 73 14 discriminator 3
	add	a5,a5,s1
.LVL19:
	j	.L3
.LVL20:
.L5:
	.loc 1 57 16
	li	a0,-1
.LVL21:
	j	.L1
	.cfi_endproc
.LFE1:
	.size	utils_memp_init, .-utils_memp_init
	.section	.text.utils_memp_deinit,"ax",@progbits
	.align	1
	.globl	utils_memp_deinit
	.type	utils_memp_deinit, @function
utils_memp_deinit:
.LFB2:
	.loc 1 83 1 is_stmt 1
	.cfi_startproc
.LVL22:
	.loc 1 84 5
	.loc 1 84 8 is_stmt 0
	beq	a0,zero,.L9
	.loc 1 87 5 is_stmt 1
	.loc 1 83 1 is_stmt 0
	addi	sp,sp,-16
	.cfi_def_cfa_offset 16
	sw	ra,12(sp)
	.cfi_offset 1, -4
	.loc 1 87 5
	call	vPortFree
.LVL23:
	.loc 1 89 5 is_stmt 1
	.loc 1 90 1 is_stmt 0
	lw	ra,12(sp)
	.cfi_restore 1
	.loc 1 89 12
	li	a0,0
	.loc 1 90 1
	addi	sp,sp,16
	.cfi_def_cfa_offset 0
	jr	ra
.LVL24:
.L9:
	.loc 1 85 16
	li	a0,-1
.LVL25:
	.loc 1 90 1
	ret
	.cfi_endproc
.LFE2:
	.size	utils_memp_deinit, .-utils_memp_deinit
	.section	.text.utils_memp_malloc,"ax",@progbits
	.align	1
	.globl	utils_memp_malloc
	.type	utils_memp_malloc, @function
utils_memp_malloc:
.LFB3:
	.loc 1 93 1 is_stmt 1
	.cfi_startproc
.LVL26:
	.loc 1 94 5
	.loc 1 95 5
	.loc 1 96 5
	.loc 1 97 15 is_stmt 0
	li	a5,0
	.loc 1 96 8
	beq	a0,zero,.L14
	.loc 1 99 5 is_stmt 1
	.loc 1 99 13 is_stmt 0
	lw	a4,8(a0)
	.loc 1 99 8
	lw	a3,4(a0)
	.loc 1 97 15
	li	a5,0
	.loc 1 99 8
	beq	a4,a3,.L14
	.loc 1 102 5 is_stmt 1
	.loc 1 102 10 is_stmt 0
	lw	a5,28(a0)
.LVL27:
	.loc 1 103 5 is_stmt 1
	.loc 1 103 8 is_stmt 0
	beq	a5,zero,.L14
	.loc 1 104 9 is_stmt 1
	.loc 1 104 25 is_stmt 0
	lw	a3,0(a5)
	.loc 1 105 24
	addi	a4,a4,1
	sw	a4,8(a0)
	.loc 1 104 19
	sw	a3,28(a0)
	.loc 1 105 9 is_stmt 1
	.loc 1 106 9
.LVL28:
	.loc 1 107 9
	.loc 1 107 14 is_stmt 0
	li	a4,165
	sw	a4,0(a5)
	.loc 1 108 9 is_stmt 1
	.loc 1 108 29 is_stmt 0
	addi	a5,a5,4
.LVL29:
.L14:
	.loc 1 112 1
	mv	a0,a5
.LVL30:
	ret
	.cfi_endproc
.LFE3:
	.size	utils_memp_malloc, .-utils_memp_malloc
	.section	.text.utils_memp_free,"ax",@progbits
	.align	1
	.globl	utils_memp_free
	.type	utils_memp_free, @function
utils_memp_free:
.LFB4:
	.loc 1 115 1 is_stmt 1
	.cfi_startproc
.LVL31:
	.loc 1 116 5
	.loc 1 117 5
	.loc 1 115 1 is_stmt 0
	mv	a5,a0
	.loc 1 117 10
	addi	a3,a1,-4
.LVL32:
	.loc 1 118 5 is_stmt 1
	.loc 1 119 5
	.loc 1 121 5
	.loc 1 122 16 is_stmt 0
	li	a0,-1
.LVL33:
	.loc 1 121 8
	beq	a5,zero,.L21
	.loc 1 121 15 discriminator 1
	beq	a3,zero,.L21
	.loc 1 124 5 is_stmt 1
	.loc 1 124 8 is_stmt 0
	lw	a4,8(a5)
	beq	a4,zero,.L21
	.loc 1 127 5 is_stmt 1
	.loc 1 127 23 is_stmt 0
	lw	a4,20(a5)
	.loc 1 127 8
	bgtu	a4,a3,.L21
	.loc 1 127 9 discriminator 1
	lw	a2,24(a5)
	bltu	a2,a3,.L21
	.loc 1 130 5 is_stmt 1
.LVL34:
	.loc 1 131 5
	.loc 1 131 14 is_stmt 0
	lw	a2,16(a5)
	.loc 1 130 10
	sub	a4,a3,a4
.LVL35:
	.loc 1 131 14
	remu	a4,a4,a2
.LVL36:
	.loc 1 131 8
	bne	a4,zero,.L21
	.loc 1 135 5 is_stmt 1
.LVL37:
	.loc 1 136 5
	.loc 1 136 8 is_stmt 0
	lw	a2,-4(a1)
	li	a4,165
	bne	a2,a4,.L21
	.loc 1 139 5 is_stmt 1
.LVL38:
	.loc 1 140 5
	.loc 1 140 33 is_stmt 0
	lw	a4,28(a5)
	.loc 1 143 12
	li	a0,0
	.loc 1 140 27
	sw	a4,-4(a1)
.LVL39:
	.loc 1 141 5 is_stmt 1
	.loc 1 142 20 is_stmt 0
	lw	a4,8(a5)
	.loc 1 141 15
	sw	a3,28(a5)
	.loc 1 142 5 is_stmt 1
	.loc 1 142 20 is_stmt 0
	addi	a4,a4,-1
	sw	a4,8(a5)
	.loc 1 143 5 is_stmt 1
	.loc 1 143 12 is_stmt 0
	ret
.LVL40:
.L21:
	.loc 1 144 1
	ret
	.cfi_endproc
.LFE4:
	.size	utils_memp_free, .-utils_memp_free
	.text
.Letext0:
	.file 2 "/b-l/bl_iot_sdk/toolchain/riscv/Linux/lib/gcc/riscv64-unknown-elf/8.3.0/include/stdint-gcc.h"
	.file 3 "/b-l/bl_iot_sdk/toolchain/riscv/Linux/lib/gcc/riscv64-unknown-elf/8.3.0/include/stddef.h"
	.file 4 "/b-l/bl_iot_sdk/components/bl602/freertos_riscv_ram/portable/GCC/RISC-V/portmacro.h"
	.file 5 "/b-l/bl_iot_sdk/components/utils/include/utils_memp.h"
	.file 6 "/b-l/bl_iot_sdk/components/bl602/freertos_riscv_ram/config/portable.h"