	.file	"utils_psk_fast.c"
	.option nopic
	.attribute arch, "rv32i2p0_m2p0_f2p0_c2p0"
	.attribute unaligned_access, 0
	.attribute stack_align, 16
	.text
.Ltext0:
	.cfi_sections	.debug_frame
	.section	.text.Bl_F_fast.constprop.0,"ax",@progbits
	.align	1
	.type	Bl_F_fast.constprop.0, @function
Bl_F_fast.constprop.0:
.LFB5:
	.file 1 "/home/hogc/build-tools/sdk/bl/bl_iot_sdk/components/utils/src/utils_psk_fast.c"
	.loc 1 39 13
	.cfi_startproc
.LVL0:
	.loc 1 41 5
	.loc 1 42 5
	.loc 1 39 13 is_stmt 0
	addi	sp,sp,-64
	.cfi_def_cfa_offset 64
	sw	s1,52(sp)
	.cfi_offset 9, -12
	mv	s1,a0
	.loc 1 42 15
	mv	a0,a2
.LVL1:
	.loc 1 39 13
	sw	ra,60(sp)
	sw	a5,8(sp)
	sw	s0,56(sp)
	sw	s2,48(sp)
	.cfi_offset 1, -4
	.cfi_offset 8, -8
	.cfi_offset 18, -16
	mv	s0,a4
	mv	s2,a1
	sw	s3,44(sp)
	sw	s4,40(sp)
	.cfi_offset 19, -20
	.cfi_offset 20, -24
	mv	s3,a2
	sw	s5,36(sp)
	sw	s6,32(sp)
	.cfi_offset 21, -28
	.cfi_offset 22, -32
	.loc 1 39 13
	mv	s5,a6
	sw	a3,12(sp)
	.loc 1 42 15
	call	strlen
.LVL2:
	.loc 1 47 5
	lw	a3,12(sp)
	.loc 1 43 29
	addi	a4,s0,4
	.loc 1 47 5
	mv	a2,s0
	mv	a1,a3
	.loc 1 42 15
	mv	s4,a0
.LVL3:
	.loc 1 43 5 is_stmt 1
	.loc 1 47 5 is_stmt 0
	mv	a0,s1
.LVL4:
	.loc 1 43 9
	sw	a4,24(sp)
	.loc 1 44 5 is_stmt 1
	.loc 1 44 21 is_stmt 0
	sw	s1,28(sp)
	.loc 1 47 5 is_stmt 1
	call	memcpy
.LVL5:
	.loc 1 48 5
	.loc 1 51 28 is_stmt 0
	lw	a5,8(sp)
	.loc 1 48 24
	add	a4,s1,s0
	sb	zero,0(a4)
	.loc 1 49 5 is_stmt 1
	.loc 1 51 28 is_stmt 0
	sb	a5,3(a4)
	.loc 1 49 26
	sb	zero,1(a4)
	.loc 1 50 5 is_stmt 1
	.loc 1 50 26 is_stmt 0
	sb	zero,2(a4)
	.loc 1 51 5 is_stmt 1
	.loc 1 53 5
	call	bl_sha_mutex_take
.LVL6:
	.loc 1 54 5
	li	a6,20
	mv	a5,s2
	mv	a4,s4
	mv	a3,s3
	li	a2,1
	addi	a1,sp,24
	addi	a0,sp,28
	call	utils_hmac_sha1_fast
.LVL7:
	.loc 1 63 5
	li	a2,20
	mv	a1,s2
	mv	a0,s5
	.loc 1 64 11 is_stmt 0
	li	s0,4096
.LVL8:
	.loc 1 63 5
	call	memcpy
.LVL9:
	.loc 1 64 5 is_stmt 1
	.loc 1 64 11 is_stmt 0
	addi	s0,s0,-1
	sw	s2,28(sp)
	.loc 1 65 5 is_stmt 1
.LVL10:
	.loc 1 67 16 is_stmt 0
	li	s6,20
.LVL11:
.L3:
	.loc 1 67 9 is_stmt 1
	.loc 1 70 9 is_stmt 0
	mv	a5,s1
	li	a6,20
	mv	a4,s4
	mv	a3,s3
	li	a2,1
	addi	a1,sp,24
	addi	a0,sp,28
	.loc 1 67 16
	sw	s6,24(sp)
	.loc 1 70 9 is_stmt 1
	call	utils_hmac_sha1_fast
.LVL12:
	.loc 1 78 9
	li	a2,20
	mv	a1,s1
	mv	a0,s2
	call	memcpy
.LVL13:
	.loc 1 81 9
	.loc 1 81 16 is_stmt 0
	li	a5,0
.LVL14:
.L2:
	.loc 1 83 13 is_stmt 1
	add	a3,s5,a5
	.loc 1 83 32 is_stmt 0
	add	a4,s1,a5
	.loc 1 83 23
	lbu	a4,0(a4)
	lbu	a2,0(a3)
	.loc 1 81 30
	addi	a5,a5,1
.LVL15:
	.loc 1 83 23
	xor	a4,a4,a2
	sb	a4,0(a3)
	.loc 1 81 9
	bne	a5,s6,.L2
.LVL16:
	addi	s0,s0,-1
.LVL17:
	.loc 1 65 5
	bne	s0,zero,.L3
	.loc 1 86 5 is_stmt 1
	call	bl_sha_mutex_give
.LVL18:
	.loc 1 87 1 is_stmt 0
	lw	ra,60(sp)
	.cfi_restore 1
	lw	s0,56(sp)
	.cfi_restore 8
.LVL19:
	lw	s1,52(sp)
	.cfi_restore 9
.LVL20:
	lw	s2,48(sp)
	.cfi_restore 18
.LVL21:
	lw	s3,44(sp)
	.cfi_restore 19
.LVL22:
	lw	s4,40(sp)
	.cfi_restore 20
.LVL23:
	lw	s5,36(sp)
	.cfi_restore 21
.LVL24:
	lw	s6,32(sp)
	.cfi_restore 22
	addi	sp,sp,64
	.cfi_def_cfa_offset 0
.LVL25:
	jr	ra
	.cfi_endproc
.LFE5:
	.size	Bl_F_fast.constprop.0, .-Bl_F_fast.constprop.0
	.section	.text.utils_wifi_psk_cal_fast_bin,"ax",@progbits
	.align	1
	.globl	utils_wifi_psk_cal_fast_bin
	.type	utils_wifi_psk_cal_fast_bin, @function
utils_wifi_psk_cal_fast_bin:
.LFB3:
	.loc 1 90 1 is_stmt 1
	.cfi_startproc
.LVL26:
	.loc 1 91 5
	.loc 1 93 5
	.loc 1 90 1 is_stmt 0
	addi	sp,sp,-96
	.cfi_def_cfa_offset 96
	sw	s0,88(sp)
	sw	s1,84(sp)
	sw	s2,80(sp)
	sw	s3,76(sp)
	sw	ra,92(sp)
	.cfi_offset 8, -8
	.cfi_offset 9, -12
	.cfi_offset 18, -16
	.cfi_offset 19, -20
	.cfi_offset 1, -4
	.loc 1 90 1
	mv	s2,a0
	mv	s3,a1
	mv	s1,a2
	mv	s0,a3
	.loc 1 93 10
	call	strlen
.LVL27:
	.loc 1 93 8
	li	a5,63
	bgtu	a0,a5,.L9
	.loc 1 93 33 discriminator 1
	li	a5,32
	.loc 1 94 16 discriminator 1
	li	a0,-1
	.loc 1 93 33 discriminator 1
	bgt	s1,a5,.L7
	.loc 1 97 5 is_stmt 1
	mv	a6,s0
	li	a5,2
	mv	a4,s1
	mv	a3,s3
	mv	a2,s2
	addi	a1,sp,8
	addi	a0,sp,28
	call	Bl_F_fast.constprop.0
.LVL28:
	.loc 1 98 5
	li	a2,12
	mv	a1,s0
	addi	a0,s0,20
	call	memcpy
.LVL29:
	.loc 1 99 5
	addi	a0,sp,28
	mv	a6,s0
	li	a5,1
	mv	a4,s1
	mv	a3,s3
	mv	a2,s2
	addi	a1,sp,8
	call	Bl_F_fast.constprop.0
.LVL30:
	.loc 1 101 5
	.loc 1 101 12 is_stmt 0
	li	a0,0
.L7:
	.loc 1 102 1
	lw	ra,92(sp)
	.cfi_remember_state
	.cfi_restore 1
	lw	s0,88(sp)
	.cfi_restore 8
.LVL31:
	lw	s1,84(sp)
	.cfi_restore 9
.LVL32:
	lw	s2,80(sp)
	.cfi_restore 18
.LVL33:
	lw	s3,76(sp)
	.cfi_restore 19
.LVL34:
	addi	sp,sp,96
	.cfi_def_cfa_offset 0
	jr	ra
.LVL35:
.L9:
	.cfi_restore_state
	.loc 1 94 16
	li	a0,-1
	j	.L7
	.cfi_endproc
.LFE3:
	.size	utils_wifi_psk_cal_fast_bin, .-utils_wifi_psk_cal_fast_bin
	.section	.text.utils_wifi_psk_cal_fast,"ax",@progbits
	.align	1
	.globl	utils_wifi_psk_cal_fast
	.type	utils_wifi_psk_cal_fast, @function
utils_wifi_psk_cal_fast:
.LFB4:
	.loc 1 105 1 is_stmt 1
	.cfi_startproc
.LVL36:
	.loc 1 106 5
	.loc 1 107 5
	.loc 1 109 5
	.loc 1 105 1 is_stmt 0
	addi	sp,sp,-48
	.cfi_def_cfa_offset 48
	sw	s1,36(sp)
	.cfi_offset 9, -12
	mv	s1,a3
	.loc 1 109 11
	mv	a3,sp
.LVL37:
	.loc 1 105 1
	sw	s0,40(sp)
	sw	ra,44(sp)
	.cfi_offset 8, -8
	.cfi_offset 1, -4
	.loc 1 109 11
	call	utils_wifi_psk_cal_fast_bin
.LVL38:
	mv	s0,a0
.LVL39:
	.loc 1 110 5 is_stmt 1
	.loc 1 110 8 is_stmt 0
	bne	a0,zero,.L12
	.loc 1 111 9 is_stmt 1
	li	a2,32
	mv	a1,sp
	mv	a0,s1
	call	utils_bin2hex
.LVL40:
	.loc 1 114 5
.L12:
	.loc 1 115 1 is_stmt 0
	mv	a0,s0
	lw	ra,44(sp)
	.cfi_restore 1
	lw	s0,40(sp)
	.cfi_restore 8
.LVL41:
	lw	s1,36(sp)
	.cfi_restore 9
.LVL42:
	addi	sp,sp,48
	.cfi_def_cfa_offset 0
	jr	ra
	.cfi_endproc
.LFE4:
	.size	utils_wifi_psk_cal_fast, .-utils_wifi_psk_cal_fast
	.text
.Letext0:
	.file 2 "/home/hogc/build-tools/sdk/bl/bl_iot_sdk/toolchain/riscv/Linux/lib/gcc/riscv64-unknown-elf/8.3.0/include/stdint-gcc.h"
	.file 3 "/home/hogc/build-tools/sdk/bl/bl_iot_sdk/toolchain/riscv/Linux/lib/gcc/riscv64-unknown-elf/8.3.0/include/stddef.h"
	.file 4 "/home/hogc/build-tools/sdk/bl/bl_iot_sdk/toolchain/riscv/Linux/riscv64-unknown-elf/include/sys/_types.h"
	.file 5 "/home/hogc/build-tools/sdk/bl/bl_iot_sdk/toolchain/riscv/Linux/riscv64-unknown-elf/include/sys/reent.h"
	.file 6 "/home/hogc/build-tools/sdk/bl/bl_iot_sdk/toolchain/riscv/Linux/riscv64-unknown-elf/include/sys/lock.h"
	.file 7 "/home/hogc/build-tools/sdk/bl/bl_iot_sdk/components/bl602/freertos_riscv_ram/portable/GCC/RISC-V/portmacro.h"
	.file 8 "/home/hogc/build-tools/sdk/bl/bl_iot_sdk/components/bl602/freertos_riscv_ram/config/queue.h"
	.file 9 "/home/hogc/build-tools/sdk/bl/bl_iot_sdk/components/bl602/freertos_riscv_ram/config/semphr.h"
	.file 10 "/home/hogc/build-tools/sdk/bl/bl_iot_sdk/components/hal_drv/bl602_hal/bl_sec.h"
	.file 11 "/home/hogc/build-tools/sdk/bl/bl_iot_sdk/components/utils/include/utils_hex.h"
	.file 12 "/home/hogc/build-tools/sdk/bl/bl_iot_sdk/toolchain/riscv/Linux/riscv64-unknown-elf/include/string.h"
	.file 13 "/home/hogc/build-tools/sdk/bl/bl_iot_sdk/components/utils/include/utils_hmac_sha1_fast.h"