	.file	"utils_fec.c"
	.option nopic
	.attribute arch, "rv32i2p0_m2p0_f2p0_c2p0"
	.attribute unaligned_access, 0
	.attribute stack_align, 16
	.text
.Ltext0:
	.cfi_sections	.debug_frame
	.section	.text.poly_init,"ax",@progbits
	.align	1
	.globl	poly_init
	.type	poly_init, @function
poly_init:
.LFB5:
	.file 1 "/home/hogc/build-tools/sdk/bl/bl_iot_sdk/components/utils/src/utils_fec.c"
	.loc 1 142 1
	.cfi_startproc
.LVL0:
	.loc 1 143 5
	.loc 1 145 5
	.loc 1 145 14 is_stmt 0
	sb	a1,0(a0)
	.loc 1 146 5 is_stmt 1
	.loc 1 146 16 is_stmt 0
	sb	a3,1(a0)
	.loc 1 147 5 is_stmt 1
	.loc 1 147 18 is_stmt 0
	sh	a2,2(a0)
	.loc 1 148 5 is_stmt 1
	.loc 1 148 18 is_stmt 0
	sw	a4,4(a0)
	.loc 1 149 5 is_stmt 1
	.loc 1 149 17 is_stmt 0
	sb	zero,8(a0)
	.loc 1 150 1
	ret
	.cfi_endproc
.LFE5:
	.size	poly_init, .-poly_init
	.section	.text.poly_ptr,"ax",@progbits
	.align	1
	.globl	poly_ptr
	.type	poly_ptr, @function
poly_ptr:
.LFB6:
	.loc 1 153 1 is_stmt 1
	.cfi_startproc
.LVL1:
	.loc 1 154 5
	.loc 1 156 5
	.loc 1 156 31 is_stmt 0
	lhu	a5,2(a0)
	.loc 1 156 26
	lw	a0,4(a0)
.LVL2:
	.loc 1 157 1
	add	a0,a0,a5
	ret
	.cfi_endproc
.LFE6:
	.size	poly_ptr, .-poly_ptr
	.section	.text.poly_reset,"ax",@progbits
	.align	1
	.globl	poly_reset
	.type	poly_reset, @function
poly_reset:
.LFB7:
	.loc 1 160 1 is_stmt 1
	.cfi_startproc
.LVL3:
	.loc 1 161 5
	.loc 1 163 5
.LBB324:
.LBB325:
	.loc 1 154 5
	.loc 1 156 5
	.loc 1 156 31 is_stmt 0
	lhu	a5,2(a0)
	.loc 1 156 26
	lw	a4,4(a0)
.LBE325:
.LBE324:
	.loc 1 163 5
	lbu	a2,1(a0)
	li	a1,0
	add	a0,a4,a5
.LVL4:
	tail	memset
.LVL5:
	.cfi_endproc
.LFE7:
	.size	poly_reset, .-poly_reset
	.section	.text.poly_set,"ax",@progbits
	.align	1
	.globl	poly_set
	.type	poly_set, @function
poly_set:
.LFB8:
	.loc 1 167 1 is_stmt 1
	.cfi_startproc
.LVL6:
	.loc 1 168 5
	.loc 1 170 5
.LBB326:
.LBB327:
	.loc 1 154 5
	.loc 1 156 5
.LBE327:
.LBE326:
	.loc 1 167 1 is_stmt 0
	addi	sp,sp,-32
	.cfi_def_cfa_offset 32
	sw	s0,24(sp)
	sw	s1,20(sp)
	sw	ra,28(sp)
	.cfi_offset 8, -8
	.cfi_offset 9, -12
	.cfi_offset 1, -4
.LBB329:
.LBB328:
	.loc 1 156 31
	lhu	a5,2(a0)
.LBE328:
.LBE329:
	.loc 1 167 1
	mv	s0,a0
	.loc 1 170 25
	lw	a0,4(a0)
.LVL7:
	add	a5,a5,a3
	.loc 1 167 1
	mv	s1,a2
	.loc 1 170 5
	add	a0,a0,a5
	.loc 1 170 25
	sw	a3,12(sp)
	.loc 1 170 5
	call	memcpy
.LVL8:
	.loc 1 172 5 is_stmt 1
	.loc 1 172 23 is_stmt 0
	lw	a3,12(sp)
	.loc 1 173 1
	lw	ra,28(sp)
	.cfi_restore 1
	.loc 1 172 23
	add	a3,a3,s1
	.loc 1 172 17
	sb	a3,8(s0)
	.loc 1 173 1
	lw	s0,24(sp)
	.cfi_restore 8
.LVL9:
	lw	s1,20(sp)
	.cfi_restore 9
	addi	sp,sp,32
	.cfi_def_cfa_offset 0
	jr	ra
	.cfi_endproc
.LFE8:
	.size	poly_set, .-poly_set
	.section	.text.poly_at,"ax",@progbits
	.align	1
	.globl	poly_at
	.type	poly_at, @function
poly_at:
.LFB9:
	.loc 1 176 1 is_stmt 1
	.cfi_startproc
.LVL10:
	.loc 1 177 5
	.loc 1 179 5
	.loc 1 181 5
.LBB330:
.LBB331:
	.loc 1 154 5
	.loc 1 156 5
.LBE331:
.LBE330:
	.loc 1 183 5
.LBB333:
.LBB332:
	.loc 1 156 31 is_stmt 0
	lhu	a5,2(a0)
.LBE332:
.LBE333:
	.loc 1 183 16
	lw	a0,4(a0)
.LVL11:
	add	a1,a5,a1
.LVL12:
	.loc 1 184 1
	add	a0,a0,a1
.LVL13:
	ret
	.cfi_endproc
.LFE9:
	.size	poly_at, .-poly_at
	.section	.text.poly_get_size,"ax",@progbits
	.align	1
	.globl	poly_get_size
	.type	poly_get_size, @function
poly_get_size:
.LFB10:
	.loc 1 187 1 is_stmt 1
	.cfi_startproc
.LVL14:
	.loc 1 188 5
	.loc 1 190 5
	.loc 1 191 1 is_stmt 0
	lbu	a0,1(a0)
.LVL15:
	ret
	.cfi_endproc
.LFE10:
	.size	poly_get_size, .-poly_get_size
	.section	.text.poly_get_id,"ax",@progbits
	.align	1
	.globl	poly_get_id
	.type	poly_get_id, @function
poly_get_id:
.LFB11:
	.loc 1 194 1 is_stmt 1
	.cfi_startproc
.LVL16:
	.loc 1 195 5
	.loc 1 197 5
	.loc 1 198 1 is_stmt 0
	lbu	a0,0(a0)
.LVL17:
	ret
	.cfi_endproc
.LFE11:
	.size	poly_get_id, .-poly_get_id
	.section	.text.poly_copy,"ax",@progbits
	.align	1
	.globl	poly_copy
	.type	poly_copy, @function
poly_copy:
.LFB12:
	.loc 1 201 1 is_stmt 1
	.cfi_startproc
.LVL18:
	.loc 1 202 5
	.loc 1 204 5
	.loc 1 204 66 is_stmt 0
	lbu	a5,8(a0)
	lbu	a2,8(a1)
	bleu	a5,a2,.L10
	mv	a2,a5
.L10:
	.loc 1 204 17
	sb	a2,8(a0)
	.loc 1 205 5 is_stmt 1
.LVL19:
.LBB334:
.LBB335:
	.loc 1 154 5
	.loc 1 156 5
	.loc 1 156 31 is_stmt 0
	lhu	a5,2(a1)
	.loc 1 156 26
	lw	a1,4(a1)
.LVL20:
.LBE335:
.LBE334:
	.loc 1 205 5
	li	a3,0
	andi	a2,a2,0xff
	add	a1,a1,a5
	tail	poly_set
.LVL21:
	.cfi_endproc
.LFE12:
	.size	poly_copy, .-poly_copy
	.section	.text.poly_append,"ax",@progbits
	.align	1
	.globl	poly_append
	.type	poly_append, @function
poly_append:
.LFB13:
	.loc 1 209 1 is_stmt 1
	.cfi_startproc
.LVL22:
	.loc 1 210 5
	.loc 1 211 5
	.loc 1 213 5
.LBB336:
.LBB337:
	.loc 1 154 5
	.loc 1 156 5
.LBE337:
.LBE336:
	.loc 1 214 11 is_stmt 0
	lbu	a4,8(a0)
.LBB339:
.LBB338:
	.loc 1 156 16
	lw	a5,4(a0)
	.loc 1 156 31
	lhu	a3,2(a0)
.LVL23:
.LBE338:
.LBE339:
	.loc 1 214 5 is_stmt 1
	.loc 1 214 19 is_stmt 0
	addi	a2,a4,1
	.loc 1 214 23
	add	a5,a5,a4
.LVL24:
	.loc 1 214 19
	sb	a2,8(a0)
	.loc 1 214 23
	add	a5,a5,a3
	sb	a1,0(a5)
.LVL25:
	.loc 1 216 5 is_stmt 1
	.loc 1 217 1 is_stmt 0
	li	a0,1
.LVL26:
	ret
	.cfi_endproc
.LFE13:
	.size	poly_append, .-poly_append
	.section	.text.gf_add,"ax",@progbits
	.align	1
	.globl	gf_add
	.type	gf_add, @function
gf_add:
.LFB14:
	.loc 1 221 1 is_stmt 1
	.cfi_startproc
.LVL27:
	.loc 1 222 5
	.loc 1 222 14 is_stmt 0
	add	a0,a0,a1
.LVL28:
	.loc 1 223 1
	andi	a0,a0,0xff
	ret
	.cfi_endproc
.LFE14:
	.size	gf_add, .-gf_add
	.section	.text.gf_sub,"ax",@progbits
	.align	1
	.globl	gf_sub
	.type	gf_sub, @function
gf_sub:
.LFB15:
	.loc 1 226 1 is_stmt 1
	.cfi_startproc
.LVL29:
	.loc 1 227 5
	.loc 1 228 1 is_stmt 0
	xor	a0,a0,a1
.LVL30:
	ret
	.cfi_endproc
.LFE15:
	.size	gf_sub, .-gf_sub
	.section	.text.gf_mul,"ax",@progbits
	.align	1
	.globl	gf_mul
	.type	gf_mul, @function
gf_mul:
.LFB16:
	.loc 1 231 1 is_stmt 1
	.cfi_startproc
.LVL31:
	.loc 1 232 5
	.loc 1 231 1 is_stmt 0
	mv	a5,a0
	.loc 1 233 16
	li	a0,0
.LVL32:
	.loc 1 232 8
	beq	a5,zero,.L15
	.loc 1 232 16 discriminator 1
	beq	a1,zero,.L15
	.loc 1 236 5 is_stmt 1
	.loc 1 236 29 is_stmt 0
	lui	a4,%hi(.LANCHOR1)
	addi	a4,a4,%lo(.LANCHOR1)
	add	a5,a4,a5
	lbu	a3,0(a5)
	.loc 1 236 43
	add	a4,a4,a1
	lbu	a4,0(a4)
	.loc 1 236 20
	lui	a5,%hi(.LANCHOR0)
	addi	a5,a5,%lo(.LANCHOR0)
	add	a5,a5,a3
	add	a5,a5,a4
	lbu	a0,0(a5)
	ret
.L15:
	.loc 1 237 1
	ret
	.cfi_endproc
.LFE16:
	.size	gf_mul, .-gf_mul
	.section	.text.gf_div,"ax",@progbits
	.align	1
	.globl	gf_div
	.type	gf_div, @function
gf_div:
.LFB17:
	.loc 1 240 1 is_stmt 1
	.cfi_startproc
.LVL33:
	.loc 1 241 5
	.loc 1 243 5
	.loc 1 243 8 is_stmt 0
	beq	a0,zero,.L19
.LVL34:
.LBB342:
.LBB343:
	.loc 1 246 5 is_stmt 1
	.loc 1 246 30 is_stmt 0
	lui	a4,%hi(.LANCHOR1)
	addi	a4,a4,%lo(.LANCHOR1)
	add	a0,a4,a0
.LVL35:
	lbu	a5,0(a0)
	.loc 1 246 50
	add	a4,a4,a1
	lbu	a4,0(a4)
	.loc 1 246 34
	addi	a5,a5,255
	.loc 1 246 40
	sub	a5,a5,a4
	.loc 1 246 55
	li	a4,255
	rem	a5,a5,a4
	.loc 1 246 20
	lui	a4,%hi(.LANCHOR0)
	addi	a4,a4,%lo(.LANCHOR0)
	add	a5,a4,a5
	lbu	a0,0(a5)
.LVL36:
.L19:
.LBE343:
.LBE342:
	.loc 1 247 1
	ret
	.cfi_endproc
.LFE17:
	.size	gf_div, .-gf_div
	.globl	__moddi3
	.section	.text.gf_pow,"ax",@progbits
	.align	1
	.globl	gf_pow
	.type	gf_pow, @function
gf_pow:
.LFB18:
	.loc 1 250 1 is_stmt 1
	.cfi_startproc
.LVL37:
	.loc 1 251 5
	.loc 1 251 26 is_stmt 0
	lui	a5,%hi(.LANCHOR1)
	addi	a5,a5,%lo(.LANCHOR1)
	add	a0,a5,a0
.LVL38:
	.loc 1 251 14
	lbu	a0,0(a0)
.LVL39:
	.loc 1 253 5 is_stmt 1
	.loc 1 250 1 is_stmt 0
	addi	sp,sp,-16
	.cfi_def_cfa_offset 16
	.loc 1 254 7
	li	a3,0
	.loc 1 253 7
	mul	a4,a2,a0
	.loc 1 254 7
	li	a2,255
	.loc 1 250 1
	sw	ra,12(sp)
	.cfi_offset 1, -4
	.loc 1 253 7
	mulhu	a5,a0,a1
.LVL40:
	.loc 1 254 5 is_stmt 1
	.loc 1 254 7 is_stmt 0
	mul	a0,a0,a1
.LVL41:
	add	a1,a4,a5
.LVL42:
	call	__moddi3
.LVL43:
	.loc 1 256 5 is_stmt 1
	.loc 1 257 11 is_stmt 0
	addi	a4,a0,255
	.loc 1 256 8
	blt	a1,zero,.L24
	mv	a4,a0
.L24:
	.loc 1 260 5 is_stmt 1
	.loc 1 261 1 is_stmt 0
	lw	ra,12(sp)
	.cfi_restore 1
	.loc 1 260 20
	lui	a5,%hi(.LANCHOR0)
	addi	a5,a5,%lo(.LANCHOR0)
	add	a5,a5,a4
	.loc 1 261 1
	lbu	a0,0(a5)
.LVL44:
	addi	sp,sp,16
	.cfi_def_cfa_offset 0
	jr	ra
	.cfi_endproc
.LFE18:
	.size	gf_pow, .-gf_pow
	.section	.text.gf_inverse,"ax",@progbits
	.align	1
	.globl	gf_inverse
	.type	gf_inverse, @function
gf_inverse:
.LFB19:
	.loc 1 264 1 is_stmt 1
	.cfi_startproc
.LVL45:
	.loc 1 265 5
	.loc 1 265 35 is_stmt 0
	lui	a5,%hi(.LANCHOR1)
	addi	a5,a5,%lo(.LANCHOR1)
	add	a0,a5,a0
.LVL46:
	lbu	a4,0(a0)
	.loc 1 265 25
	lui	a5,%hi(.LANCHOR0)
	addi	a5,a5,%lo(.LANCHOR0)
	sub	a5,a5,a4
	.loc 1 266 1
	lbu	a0,255(a5)
	ret
	.cfi_endproc
.LFE19:
	.size	gf_inverse, .-gf_inverse
	.section	.text.poly_scale,"ax",@progbits
	.align	1
	.globl	poly_scale
	.type	poly_scale, @function
poly_scale:
.LFB20:
	.loc 1 270 1 is_stmt 1
	.cfi_startproc
.LVL47:
	.loc 1 271 5
	.loc 1 273 5
	.loc 1 270 1 is_stmt 0
	addi	sp,sp,-48
	.cfi_def_cfa_offset 48
	sw	s0,40(sp)
	sw	s1,36(sp)
	sw	s2,32(sp)
	sw	ra,44(sp)
	sw	s3,28(sp)
	.cfi_offset 8, -8
	.cfi_offset 9, -12
	.cfi_offset 18, -16
	.cfi_offset 1, -4
	.cfi_offset 19, -20
	.loc 1 273 21
	lbu	a5,8(a0)
	.loc 1 270 1
	mv	s1,a0
	mv	s2,a1
	.loc 1 273 18
	sb	a5,8(a1)
	.loc 1 274 5 is_stmt 1
.LVL48:
	li	s0,0
.LVL49:
.L30:
	.loc 1 274 5 is_stmt 0 discriminator 1
	lbu	a4,8(s1)
	slli	a5,s0,16
	srli	a5,a5,16
	bgtu	a4,a5,.L31
	.loc 1 278 1
	lw	ra,44(sp)
	.cfi_remember_state
	.cfi_restore 1
	lw	s0,40(sp)
	.cfi_restore 8
.LVL50:
	lw	s1,36(sp)
	.cfi_restore 9
.LVL51:
	lw	s2,32(sp)
	.cfi_restore 18
.LVL52:
	lw	s3,28(sp)
	.cfi_restore 19
	addi	sp,sp,48
	.cfi_def_cfa_offset 0
	jr	ra
.LVL53:
.L31:
	.cfi_restore_state
	.loc 1 276 9 is_stmt 1 discriminator 3
.LBB344:
.LBB345:
	.loc 1 177 5 discriminator 3
	.loc 1 179 5 discriminator 3
	.loc 1 181 5 discriminator 3
.LBB346:
.LBB347:
	.loc 1 154 5 discriminator 3
	.loc 1 156 5 discriminator 3
.LBE347:
.LBE346:
	.loc 1 183 5 discriminator 3
.LBE345:
.LBE344:
.LBB351:
.LBB352:
	.loc 1 177 5 discriminator 3
	.loc 1 179 5 discriminator 3
	.loc 1 181 5 discriminator 3
.LBB353:
.LBB354:
	.loc 1 154 5 discriminator 3
	.loc 1 156 5 discriminator 3
.LBE354:
.LBE353:
	.loc 1 183 5 discriminator 3
.LBB356:
.LBB355:
	.loc 1 156 31 is_stmt 0 discriminator 3
	lhu	s3,2(s2)
.LBE355:
.LBE356:
.LBE352:
.LBE351:
.LBB359:
.LBB350:
.LBB349:
.LBB348:
	lhu	a4,2(s1)
.LBE348:
.LBE349:
.LBE350:
.LBE359:
	.loc 1 276 29 discriminator 3
	mv	a1,a2
.LBB360:
.LBB357:
	.loc 1 183 16 discriminator 3
	add	a5,s3,s0
	lw	s3,4(s2)
.LBE357:
.LBE360:
	.loc 1 276 29 discriminator 3
	sw	a2,12(sp)
.LBB361:
.LBB358:
	.loc 1 183 16 discriminator 3
	add	s3,s3,a5
.LVL54:
.LBE358:
.LBE361:
	.loc 1 276 36 discriminator 3
	lw	a5,4(s1)
	add	a5,a5,s0
	add	a5,a5,a4
	.loc 1 276 29 discriminator 3
	lbu	a0,0(a5)
	addi	s0,s0,1
.LVL55:
	call	gf_mul
.LVL56:
	.loc 1 276 27 discriminator 3
	sb	a0,0(s3)
	lw	a2,12(sp)
	j	.L30
	.cfi_endproc
.LFE20:
	.size	poly_scale, .-poly_scale
	.section	.text.poly_add,"ax",@progbits
	.align	1
	.globl	poly_add
	.type	poly_add, @function
poly_add:
.LFB21:
	.loc 1 281 1 is_stmt 1
	.cfi_startproc
.LVL57:
	.loc 1 282 5
	.loc 1 284 5
	.loc 1 281 1 is_stmt 0
	addi	sp,sp,-16
	.cfi_def_cfa_offset 16
	sw	s0,8(sp)
	sw	s1,4(sp)
	sw	s2,0(sp)
	sw	ra,12(sp)
	.cfi_offset 8, -8
	.cfi_offset 9, -12
	.cfi_offset 18, -16
	.cfi_offset 1, -4
	.loc 1 281 1
	mv	s0,a2
	.loc 1 284 61
	lbu	a5,8(a0)
	lbu	a2,8(a1)
.LVL58:
	.loc 1 281 1
	mv	s2,a0
	mv	s1,a1
	.loc 1 284 61
	bleu	a5,a2,.L34
	mv	a2,a5
.L34:
.LBB362:
.LBB363:
	.loc 1 156 31
	lhu	a5,2(s0)
	.loc 1 156 26
	lw	a0,4(s0)
.LVL59:
.LBE363:
.LBE362:
	.loc 1 284 18
	sb	a2,8(s0)
	.loc 1 285 5 is_stmt 1
.LVL60:
.LBB365:
.LBB364:
	.loc 1 154 5
	.loc 1 156 5
.LBE364:
.LBE365:
	.loc 1 285 5 is_stmt 0
	li	a1,0
.LVL61:
	add	a0,a0,a5
	andi	a2,a2,0xff
	call	memset
.LVL62:
	.loc 1 287 5 is_stmt 1
	.loc 1 287 12 is_stmt 0
	li	a5,0
.LVL63:
.L35:
	.loc 1 287 22 discriminator 1
	lbu	a2,8(s2)
	.loc 1 287 5 discriminator 1
	bgtu	a2,a5,.L36
	.loc 1 292 12
	li	a4,0
.LVL64:
.L37:
	.loc 1 292 22 discriminator 1
	lbu	a3,8(s1)
	.loc 1 292 5 discriminator 1
	bgtu	a3,a4,.L38
	.loc 1 296 1
	lw	ra,12(sp)
	.cfi_remember_state
	.cfi_restore 1
	lw	s0,8(sp)
	.cfi_restore 8
.LVL65:
	lw	s1,4(sp)
	.cfi_restore 9
.LVL66:
	lw	s2,0(sp)
	.cfi_restore 18
.LVL67:
	addi	sp,sp,16
	.cfi_def_cfa_offset 0
	jr	ra
.LVL68:
.L36:
	.cfi_restore_state
	.loc 1 289 9 is_stmt 1
.LBB366:
.LBB367:
	.loc 1 177 5
	.loc 1 179 5
	.loc 1 181 5
.LBB368:
.LBB369:
	.loc 1 154 5
	.loc 1 156 5
.LBE369:
.LBE368:
	.loc 1 183 5
.LBE367:
.LBE366:
.LBB373:
.LBB374:
	.loc 1 177 5
	.loc 1 179 5
	.loc 1 181 5
.LBB375:
.LBB376:
	.loc 1 154 5
	.loc 1 156 5
.LBE376:
.LBE375:
	.loc 1 183 5
.LBE374:
.LBE373:
	.loc 1 289 56 is_stmt 0
	lw	a3,4(s2)
.LBB380:
.LBB372:
.LBB371:
.LBB370:
	.loc 1 156 31
	lhu	a4,2(s2)
.LBE370:
.LBE371:
.LBE372:
.LBE380:
	.loc 1 289 56
	add	a3,a3,a5
	add	a3,a3,a4
	.loc 1 289 10
	lbu	a4,8(s0)
	.loc 1 289 56
	lbu	a1,0(a3)
	.loc 1 289 54
	lw	a3,4(s0)
	.loc 1 289 10
	sub	a4,a4,a2
	add	a4,a5,a4
.LBB381:
.LBB379:
.LBB378:
.LBB377:
	.loc 1 156 31
	lhu	a2,2(s0)
.LBE377:
.LBE378:
	.loc 1 183 16
	andi	a4,a4,0xff
.LBE379:
.LBE381:
	.loc 1 289 54
	add	a4,a3,a4
	add	a4,a4,a2
	.loc 1 287 33
	addi	a5,a5,1
.LVL69:
	.loc 1 289 54
	sb	a1,0(a4)
.LVL70:
	.loc 1 287 33
	andi	a5,a5,0xff
.LVL71:
	j	.L35
.LVL72:
.L38:
	.loc 1 294 9 is_stmt 1
.LBB382:
.LBB383:
	.loc 1 177 5
	.loc 1 179 5
	.loc 1 181 5
.LBB384:
.LBB385:
	.loc 1 154 5
	.loc 1 156 5
.LBE385:
.LBE384:
	.loc 1 183 5
.LBE383:
.LBE382:
.LBB389:
.LBB390:
	.loc 1 177 5
	.loc 1 179 5
	.loc 1 181 5
.LBB391:
.LBB392:
	.loc 1 154 5
	.loc 1 156 5
.LBE392:
.LBE391:
	.loc 1 183 5
.LBE390:
.LBE389:
	.loc 1 294 10 is_stmt 0
	lbu	a5,8(s0)
.LBB397:
.LBB388:
.LBB387:
.LBB386:
	.loc 1 156 31
	lhu	a2,2(s1)
.LBE386:
.LBE387:
.LBE388:
.LBE397:
	.loc 1 294 10
	sub	a5,a5,a3
.LBB398:
.LBB395:
.LBB394:
.LBB393:
	.loc 1 156 31
	lhu	a3,2(s0)
.LVL73:
.LBE393:
.LBE394:
.LBE395:
.LBE398:
	.loc 1 294 10
	add	a5,a4,a5
.LBB399:
.LBB396:
	.loc 1 183 16
	andi	a5,a5,0xff
	add	a5,a5,a3
	lw	a3,4(s0)
	add	a5,a3,a5
.LVL74:
.LBE396:
.LBE399:
	.loc 1 294 57
	lw	a3,4(s1)
	add	a3,a3,a4
	add	a3,a3,a2
	.loc 1 294 54
	lbu	a3,0(a3)
	lbu	a2,0(a5)
	.loc 1 292 33
	addi	a4,a4,1
.LVL75:
	andi	a4,a4,0xff
.LVL76:
	.loc 1 294 54
	xor	a3,a3,a2
	sb	a3,0(a5)
.LVL77:
	j	.L37
	.cfi_endproc
.LFE21:
	.size	poly_add, .-poly_add
	.section	.text.poly_mul,"ax",@progbits
	.align	1
	.globl	poly_mul
	.type	poly_mul, @function
poly_mul:
.LFB22:
	.loc 1 299 1 is_stmt 1
	.cfi_startproc
.LVL78:
	.loc 1 300 5
	.loc 1 302 5
	.loc 1 299 1 is_stmt 0
	addi	sp,sp,-32
	.cfi_def_cfa_offset 32
	sw	s0,24(sp)
	sw	s2,16(sp)
	sw	s3,12(sp)
	sw	s4,8(sp)
	sw	ra,28(sp)
	sw	s1,20(sp)
	.cfi_offset 8, -8
	.cfi_offset 18, -16
	.cfi_offset 19, -20
	.cfi_offset 20, -24
	.cfi_offset 1, -4
	.cfi_offset 9, -12
	.loc 1 299 1
	mv	s2,a2
	.loc 1 302 42
	lbu	a2,8(a1)
.LVL79:
	lbu	a5,8(a0)
	.loc 1 299 1
	mv	s4,a0
	.loc 1 302 42
	addi	a2,a2,-1
	add	a2,a2,a5
.LBB400:
.LBB401:
	.loc 1 156 26
	lw	a0,4(s2)
.LVL80:
	.loc 1 156 31
	lhu	a5,2(s2)
.LBE401:
.LBE400:
	.loc 1 302 42
	andi	a2,a2,0xff
	.loc 1 299 1
	mv	s3,a1
	.loc 1 302 18
	sb	a2,8(s2)
	.loc 1 303 5 is_stmt 1
.LVL81:
.LBB403:
.LBB402:
	.loc 1 154 5
	.loc 1 156 5
.LBE402:
.LBE403:
	.loc 1 303 5 is_stmt 0
	li	a1,0
.LVL82:
	add	a0,a0,a5
	call	memset
.LVL83:
	.loc 1 306 5 is_stmt 1
	.loc 1 306 12 is_stmt 0
	li	s0,0
.LVL84:
.L41:
	.loc 1 306 5 discriminator 1
	lbu	a5,8(s3)
	bgtu	a5,s0,.L44
	.loc 1 311 1
	lw	ra,28(sp)
	.cfi_remember_state
	.cfi_restore 1
	lw	s0,24(sp)
	.cfi_restore 8
.LVL85:
	lw	s1,20(sp)
	.cfi_restore 9
	lw	s2,16(sp)
	.cfi_restore 18
.LVL86:
	lw	s3,12(sp)
	.cfi_restore 19
.LVL87:
	lw	s4,8(sp)
	.cfi_restore 20
.LVL88:
	addi	sp,sp,32
	.cfi_def_cfa_offset 0
	jr	ra
.LVL89:
.L42:
	.cfi_restore_state
	.loc 1 308 13 is_stmt 1
.LBB404:
.LBB405:
	.loc 1 177 5
	.loc 1 179 5
	.loc 1 181 5
.LBB406:
.LBB407:
	.loc 1 154 5
	.loc 1 156 5
.LBE407:
.LBE406:
	.loc 1 183 5
.LBE405:
.LBE404:
.LBB411:
.LBB412:
	.loc 1 177 5
	.loc 1 179 5
	.loc 1 181 5
.LBB413:
.LBB414:
	.loc 1 154 5
	.loc 1 156 5
.LBE414:
.LBE413:
	.loc 1 183 5
.LBE412:
.LBE411:
	.loc 1 308 59 is_stmt 0
	lw	a4,4(s3)
.LBB418:
.LBB417:
.LBB416:
.LBB415:
	.loc 1 156 31
	lhu	a5,2(s3)
.LBE415:
.LBE416:
.LBE417:
.LBE418:
.LBB419:
.LBB410:
.LBB409:
.LBB408:
	lhu	a3,2(s4)
.LBE408:
.LBE409:
.LBE410:
.LBE419:
	.loc 1 308 59
	add	a4,a4,s0
	add	a4,a4,a5
	.loc 1 308 43
	lw	a5,4(s4)
	.loc 1 308 36
	lbu	a1,0(a4)
	.loc 1 308 43
	add	a5,a5,s1
	add	a5,a5,a3
	.loc 1 308 36
	lbu	a0,0(a5)
	call	gf_mul
.LVL90:
.LBB420:
.LBB421:
	.loc 1 177 5 is_stmt 1
	.loc 1 179 5
	.loc 1 181 5
.LBB422:
.LBB423:
	.loc 1 154 5
	.loc 1 156 5
.LBE423:
.LBE422:
	.loc 1 183 5
.LBB425:
.LBB424:
	.loc 1 156 31 is_stmt 0
	lhu	a5,2(s2)
.LBE424:
.LBE425:
.LBE421:
.LBE420:
	.loc 1 308 14
	add	a4,s1,s0
.LBB428:
.LBB426:
	.loc 1 183 16
	andi	a4,a4,0xff
	add	a4,a5,a4
	lw	a5,4(s2)
.LBE426:
.LBE428:
	.loc 1 307 37
	addi	s1,s1,1
.LVL91:
	andi	s1,s1,0xff
.LBB429:
.LBB427:
	.loc 1 183 16
	add	a5,a5,a4
.LVL92:
.LBE427:
.LBE429:
	.loc 1 308 33
	lbu	a4,0(a5)
	xor	a0,a0,a4
	sb	a0,0(a5)
.LVL93:
.L43:
	.loc 1 307 9 discriminator 1
	lbu	a5,8(s4)
	bgtu	a5,s1,.L42
	.loc 1 306 33 discriminator 2
	addi	s0,s0,1
.LVL94:
	andi	s0,s0,0xff
.LVL95:
	j	.L41
.LVL96:
.L44:
	.loc 1 307 16
	li	s1,0
	j	.L43
	.cfi_endproc
.LFE22:
	.size	poly_mul, .-poly_mul
	.section	.text.poly_div,"ax",@progbits
	.align	1
	.globl	poly_div
	.type	poly_div, @function
poly_div:
.LFB23:
	.loc 1 314 1 is_stmt 1
	.cfi_startproc
.LVL97:
	.loc 1 315 5
	.loc 1 316 5
	.loc 1 317 5
	.loc 1 319 5
.LBB430:
.LBB431:
	.loc 1 154 5
	.loc 1 156 5
.LBE431:
.LBE430:
	.loc 1 314 1 is_stmt 0
	addi	sp,sp,-32
	.cfi_def_cfa_offset 32
	sw	s0,24(sp)
	sw	s3,12(sp)
	sw	s4,8(sp)
	sw	ra,28(sp)
	sw	s1,20(sp)
	sw	s2,16(sp)
	sw	s5,4(sp)
	.cfi_offset 8, -8
	.cfi_offset 19, -20
	.cfi_offset 20, -24
	.cfi_offset 1, -4
	.cfi_offset 9, -12
	.cfi_offset 18, -16
	.cfi_offset 21, -28
.LBB435:
.LBB432:
	.loc 1 156 31
	lhu	a5,2(a0)
.LBE432:
.LBE435:
	.loc 1 314 1
	mv	s4,a1
.LBB436:
.LBB433:
	.loc 1 156 26
	lw	a1,4(a0)
.LVL98:
.LBE433:
.LBE436:
	.loc 1 314 1
	mv	s3,a0
.LBB437:
.LBB438:
	.loc 1 156 26
	lw	a0,4(a2)
.LVL99:
.LBE438:
.LBE437:
.LBB441:
.LBB434:
	add	a1,a1,a5
.LVL100:
.LBE434:
.LBE441:
.LBB442:
.LBB439:
	.loc 1 154 5 is_stmt 1
	.loc 1 156 5
	.loc 1 156 31 is_stmt 0
	lhu	a5,2(a2)
.LBE439:
.LBE442:
	.loc 1 314 1
	mv	s0,a2
.LBB443:
.LBB440:
	.loc 1 156 26
	add	a0,a0,a5
.LVL101:
.LBE440:
.LBE443:
	.loc 1 319 8
	beq	a1,a0,.L47
	.loc 1 320 9 is_stmt 1
.LVL102:
	.loc 1 154 5
	.loc 1 156 5
	.loc 1 154 5
	.loc 1 156 5
	.loc 1 320 9 is_stmt 0
	lbu	a2,8(s3)
.LVL103:
	call	memcpy
.LVL104:
.L47:
	.loc 1 323 5 is_stmt 1
	.loc 1 323 21 is_stmt 0
	lbu	a5,8(s3)
	.loc 1 325 12
	li	s2,0
	.loc 1 323 18
	sb	a5,8(s0)
	.loc 1 325 5 is_stmt 1
.LVL105:
.L48:
	.loc 1 325 34 is_stmt 0 discriminator 1
	lbu	a5,8(s4)
	.loc 1 325 23 discriminator 1
	lbu	s1,8(s3)
	lw	a0,4(s0)
	.loc 1 325 42 discriminator 1
	addi	a5,a5,-1
	.loc 1 325 31 discriminator 1
	sub	s1,s1,a5
	lhu	a5,2(s0)
	.loc 1 325 5 discriminator 1
	bgt	s1,s2,.L53
	.loc 1 336 5 is_stmt 1
.LVL106:
	.loc 1 337 5
.LBB444:
.LBB445:
	.loc 1 154 5
	.loc 1 156 5
.LBE445:
.LBE444:
	.loc 1 154 5
	.loc 1 156 5
	.loc 1 337 54 is_stmt 0
	lbu	a2,8(s0)
	.loc 1 337 43
	add	a1,s1,a5
	.loc 1 337 5
	add	a1,a0,a1
	sub	a2,a2,s1
	add	a0,a0,a5
	call	memmove
.LVL107:
	.loc 1 338 5 is_stmt 1
	.loc 1 338 32 is_stmt 0
	lbu	a5,8(s0)
	.loc 1 339 1
	lw	ra,28(sp)
	.cfi_remember_state
	.cfi_restore 1
	lw	s2,16(sp)
	.cfi_restore 18
.LVL108:
	.loc 1 338 32
	sub	s1,a5,s1
.LVL109:
	.loc 1 338 18
	sb	s1,8(s0)
	.loc 1 339 1
	lw	s0,24(sp)
	.cfi_restore 8
.LVL110:
	lw	s1,20(sp)
	.cfi_restore 9
	lw	s3,12(sp)
	.cfi_restore 19
.LVL111:
	lw	s4,8(sp)
	.cfi_restore 20
.LVL112:
	lw	s5,4(sp)
	.cfi_restore 21
	addi	sp,sp,32
	.cfi_def_cfa_offset 0
	jr	ra
.LVL113:
.L53:
	.cfi_restore_state
	.loc 1 326 9 is_stmt 1
.LBB446:
.LBB447:
	.loc 1 177 5
	.loc 1 179 5
	.loc 1 181 5
.LBE447:
.LBE446:
	.loc 1 154 5
	.loc 1 156 5
.LBB449:
.LBB448:
	.loc 1 183 5
.LBE448:
.LBE449:
	.loc 1 326 14 is_stmt 0
	add	a0,a0,s2
	add	a0,a0,a5
	lbu	a1,0(a0)
.LVL114:
	.loc 1 327 9 is_stmt 1
	.loc 1 327 12 is_stmt 0
	bne	a1,zero,.L54
.LVL115:
.L52:
	.loc 1 325 49
	addi	s2,s2,1
.LVL116:
	j	.L48
.LVL117:
.L51:
.LBB450:
	.loc 1 329 17 is_stmt 1
.LBB451:
.LBB452:
	.loc 1 177 5
	.loc 1 179 5
	.loc 1 181 5
.LBB453:
.LBB454:
	.loc 1 154 5
	.loc 1 156 5
.LBE454:
.LBE453:
	.loc 1 183 5
.LBE452:
.LBE451:
	.loc 1 329 21 is_stmt 0
	lw	a5,4(s4)
.LBB458:
.LBB457:
.LBB456:
.LBB455:
	.loc 1 156 31
	lhu	a4,2(s4)
.LBE455:
.LBE456:
.LBE457:
.LBE458:
	.loc 1 329 21
	add	a5,a5,s1
	add	a5,a5,a4
	lbu	a0,0(a5)
	.loc 1 329 20
	beq	a0,zero,.L50
	.loc 1 330 21 is_stmt 1
.LVL118:
.LBE450:
	.loc 1 177 5
	.loc 1 179 5
	.loc 1 181 5
	.loc 1 154 5
	.loc 1 156 5
	.loc 1 183 5
.LBB463:
	.loc 1 330 44 is_stmt 0
	mv	a1,s5
	call	gf_mul
.LVL119:
.LBB459:
.LBB460:
	.loc 1 177 5 is_stmt 1
	.loc 1 179 5
	.loc 1 181 5
.LBE460:
.LBE459:
.LBE463:
	.loc 1 154 5
	.loc 1 156 5
.LBB464:
.LBB462:
.LBB461:
	.loc 1 183 5
	.loc 1 183 16 is_stmt 0
	lhu	a4,2(s0)
	add	a5,s1,s2
	andi	a5,a5,0xff
	add	a5,a5,a4
	lw	a4,4(s0)
	add	a5,a4,a5
.LVL120:
.LBE461:
.LBE462:
	.loc 1 330 41
	lbu	a4,0(a5)
	xor	a0,a0,a4
	sb	a0,0(a5)
.LVL121:
.L50:
	.loc 1 328 49 discriminator 2
	addi	s1,s1,1
.LVL122:
	andi	s1,s1,0xff
.LVL123:
.L49:
	.loc 1 328 13 discriminator 1
	lbu	a5,8(s4)
	bgtu	a5,s1,.L51
	j	.L52
.LVL124:
.L54:
	.loc 1 330 44
	slli	s5,a1,16
	.loc 1 328 26
	li	s1,1
	.loc 1 330 44
	srli	s5,s5,16
	j	.L49
.LBE464:
	.cfi_endproc
.LFE23:
	.size	poly_div, .-poly_div
	.section	.text.poly_eval,"ax",@progbits
	.align	1
	.globl	poly_eval
	.type	poly_eval, @function
poly_eval:
.LFB24:
	.loc 1 342 1 is_stmt 1
	.cfi_startproc
.LVL125:
	.loc 1 343 5
.LBB465:
.LBB466:
	.loc 1 177 5
	.loc 1 179 5
	.loc 1 181 5
.LBB467:
.LBB468:
	.loc 1 154 5
	.loc 1 156 5
.LBE468:
.LBE467:
	.loc 1 183 5
.LBE466:
.LBE465:
	.loc 1 342 1 is_stmt 0
	addi	sp,sp,-32
	.cfi_def_cfa_offset 32
	sw	s0,24(sp)
.LVL126:
	sw	s3,12(sp)
	sw	ra,28(sp)
	sw	s1,20(sp)
	sw	s2,16(sp)
	.cfi_offset 8, -8
	.cfi_offset 19, -20
	.cfi_offset 1, -4
	.cfi_offset 9, -12
	.cfi_offset 18, -16
.LBB473:
.LBB471:
.LBB470:
.LBB469:
	.loc 1 156 31
	lhu	a4,2(a0)
.LBE469:
.LBE470:
	.loc 1 183 16
	lw	s1,4(a0)
.LBE471:
.LBE473:
	.loc 1 342 1
	mv	a5,a0
.LBB474:
	.loc 1 345 30
	lbu	s2,8(a5)
.LBE474:
.LBB475:
.LBB472:
	.loc 1 183 16
	add	s1,s1,a4
.LVL127:
.LBE472:
.LBE475:
	.loc 1 343 13
	lbu	a0,0(s1)
.LVL128:
	.loc 1 345 5 is_stmt 1
.LBB476:
	.loc 1 345 10
.LBE476:
	.loc 1 342 1 is_stmt 0
	mv	s3,a1
.LBB477:
	.loc 1 345 5
	li	s0,0
.LVL129:
.L60:
	addi	s0,s0,1
.LVL130:
	.loc 1 345 5 discriminator 1
	andi	a5,s0,0xff
	bgtu	s2,a5,.L61
.LBE477:
	.loc 1 349 5 is_stmt 1
	.loc 1 350 1 is_stmt 0
	lw	ra,28(sp)
	.cfi_remember_state
	.cfi_restore 1
	lw	s0,24(sp)
	.cfi_restore 8
	slli	a0,a0,24
.LVL131:
	lw	s1,20(sp)
	.cfi_restore 9
	lw	s2,16(sp)
	.cfi_restore 18
	lw	s3,12(sp)
	.cfi_restore 19
	srai	a0,a0,24
	addi	sp,sp,32
	.cfi_def_cfa_offset 0
	jr	ra
.LVL132:
.L61:
	.cfi_restore_state
.LBB478:
	.loc 1 347 9 is_stmt 1 discriminator 3
	.loc 1 347 13 is_stmt 0 discriminator 3
	mv	a1,s3
	call	gf_mul
.LVL133:
.LBE478:
	.loc 1 177 5 is_stmt 1 discriminator 3
	.loc 1 179 5 discriminator 3
	.loc 1 181 5 discriminator 3
	.loc 1 154 5 discriminator 3
	.loc 1 156 5 discriminator 3
	.loc 1 183 5 discriminator 3
.LBB479:
	.loc 1 347 29 is_stmt 0 discriminator 3
	add	a5,s1,s0
	.loc 1 347 11 discriminator 3
	lbu	a5,0(a5)
	xor	a0,a0,a5
	andi	a0,a0,0xff
.LVL134:
	j	.L60
.LBE479:
	.cfi_endproc
.LFE24:
	.size	poly_eval, .-poly_eval
	.section	.text.generator_poly,"ax",@progbits
	.align	1
	.globl	generator_poly
	.type	generator_poly, @function
generator_poly:
.LFB25:
	.loc 1 354 1 is_stmt 1
	.cfi_startproc
.LVL135:
	.loc 1 355 5
	.loc 1 356 5
	.loc 1 354 1 is_stmt 0
	addi	sp,sp,-48
	.cfi_def_cfa_offset 48
	sw	s0,40(sp)
	sw	s1,36(sp)
	sw	s2,32(sp)
	sw	s4,24(sp)
	sw	s5,20(sp)
	sw	s6,16(sp)
	sw	s7,12(sp)
	sw	s8,8(sp)
	sw	ra,44(sp)
	sw	s3,28(sp)
	.cfi_offset 8, -8
	.cfi_offset 9, -12
	.cfi_offset 18, -16
	.cfi_offset 20, -24
	.cfi_offset 21, -28
	.cfi_offset 22, -32
	.cfi_offset 23, -36
	.cfi_offset 24, -40
	.cfi_offset 1, -4
	.cfi_offset 19, -20
.LBB480:
.LBB481:
.LBB482:
.LBB483:
	.loc 1 156 31
	lhu	a4,26(a0)
.LBE483:
.LBE482:
.LBE481:
.LBE480:
	.loc 1 360 22
	lw	a5,28(a0)
	.loc 1 354 1
	mv	s0,a0
	.loc 1 356 15
	addi	s4,a0,24
.LVL136:
	.loc 1 357 5 is_stmt 1
	.loc 1 360 22 is_stmt 0
	add	a5,a5,a4
	li	a4,1
	sb	a4,0(a5)
	.loc 1 363 18
	li	a5,2
	.loc 1 357 15
	addi	s6,a0,36
.LVL137:
	.loc 1 358 5 is_stmt 1
	.loc 1 358 15 is_stmt 0
	addi	s5,a0,48
.LVL138:
	.loc 1 360 5 is_stmt 1
.LBB487:
.LBB486:
	.loc 1 177 5
	.loc 1 179 5
	.loc 1 181 5
.LBB485:
.LBB484:
	.loc 1 154 5
	.loc 1 156 5
.LBE484:
.LBE485:
	.loc 1 183 5
.LBE486:
.LBE487:
	.loc 1 361 5
	.loc 1 361 17 is_stmt 0
	sb	a4,32(a0)
	.loc 1 363 5 is_stmt 1
	.loc 1 363 18 is_stmt 0
	sb	a5,44(a0)
	.loc 1 365 5 is_stmt 1
.LVL139:
	.loc 1 363 18 is_stmt 0
	li	s1,0
	li	s2,0
	.loc 1 367 27
	li	s7,1
	.loc 1 365 5
	li	s8,126
.LVL140:
.L65:
	.loc 1 367 9 is_stmt 1
.LBB488:
.LBB489:
	.loc 1 177 5
	.loc 1 179 5
	.loc 1 181 5
.LBB490:
.LBB491:
	.loc 1 154 5
	.loc 1 156 5
.LBE491:
.LBE490:
	.loc 1 183 5
.LBB493:
.LBB492:
	.loc 1 156 31 is_stmt 0
	lhu	a4,38(s0)
.LBE492:
.LBE493:
.LBE489:
.LBE488:
	.loc 1 367 27
	lw	a5,40(s0)
	.loc 1 368 29
	mv	a1,s1
	mv	a2,s2
	.loc 1 367 27
	add	a5,a5,a4
.LVL141:
	sb	s7,0(a5)
	.loc 1 368 9 is_stmt 1
.LVL142:
.LBB494:
.LBB495:
	.loc 1 177 5
	.loc 1 179 5
	.loc 1 181 5
.LBB496:
.LBB497:
	.loc 1 154 5
	.loc 1 156 5
.LBE497:
.LBE496:
	.loc 1 183 5
.LBB499:
.LBB498:
	.loc 1 156 31 is_stmt 0
	lhu	s3,38(s0)
.LBE498:
.LBE499:
.LBE495:
.LBE494:
	.loc 1 368 29
	li	a0,2
.LBB501:
.LBB500:
	.loc 1 183 16
	addi	a5,s3,1
.LVL143:
	lw	s3,40(s0)
	add	s3,s3,a5
.LVL144:
.LBE500:
.LBE501:
	.loc 1 368 29
	call	gf_pow
.LVL145:
	.loc 1 368 27
	sb	a0,0(s3)
	.loc 1 370 9 is_stmt 1
	mv	a2,s5
	mv	a1,s6
	mv	a0,s4
	call	poly_mul
.LVL146:
	.loc 1 371 9
	mv	a1,s5
	mv	a0,s4
	call	poly_copy
.LVL147:
	addi	a5,s1,1
	sltu	a4,a5,s1
	add	s2,a4,s2
	mv	s1,a5
.LVL148:
	.loc 1 365 5 is_stmt 0
	bne	a5,s8,.L65
	bne	s2,zero,.L65
	.loc 1 373 1
	lw	ra,44(sp)
	.cfi_restore 1
	lw	s0,40(sp)
	.cfi_restore 8
.LVL149:
	lw	s1,36(sp)
	.cfi_restore 9
	lw	s2,32(sp)
	.cfi_restore 18
	lw	s3,28(sp)
	.cfi_restore 19
	lw	s4,24(sp)
	.cfi_restore 20
.LVL150:
	lw	s5,20(sp)
	.cfi_restore 21
.LVL151:
	lw	s6,16(sp)
	.cfi_restore 22
.LVL152:
	lw	s7,12(sp)
	.cfi_restore 23
	lw	s8,8(sp)
	.cfi_restore 24
	addi	sp,sp,48
	.cfi_def_cfa_offset 0
	jr	ra
	.cfi_endproc
.LFE25:
	.size	generator_poly, .-generator_poly
	.section	.text.calc_syndromes,"ax",@progbits
	.align	1
	.globl	calc_syndromes
	.type	calc_syndromes, @function
calc_syndromes:
.LFB26:
	.loc 1 376 1 is_stmt 1
	.cfi_startproc
.LVL153:
	.loc 1 377 5
	.loc 1 378 5
	.loc 1 380 5
	.loc 1 376 1 is_stmt 0
	addi	sp,sp,-32
	.cfi_def_cfa_offset 32
	sw	s0,24(sp)
	sw	s1,20(sp)
	sw	s2,16(sp)
	sw	s3,12(sp)
	sw	s4,8(sp)
	sw	ra,28(sp)
	.cfi_offset 8, -8
	.cfi_offset 9, -12
	.cfi_offset 18, -16
	.cfi_offset 19, -20
	.cfi_offset 20, -24
	.cfi_offset 1, -4
	.loc 1 380 18
	li	a5,127
	sb	a5,104(a0)
	.loc 1 381 5 is_stmt 1
.LVL154:
.LBB502:
.LBB503:
	.loc 1 177 5
	.loc 1 179 5
	.loc 1 181 5
.LBB504:
.LBB505:
	.loc 1 154 5
	.loc 1 156 5
.LBE505:
.LBE504:
	.loc 1 183 5
.LBB507:
.LBB506:
	.loc 1 156 31 is_stmt 0
	lhu	a4,98(a0)
.LBE506:
.LBE507:
.LBE503:
.LBE502:
	.loc 1 381 23
	lw	a5,100(a0)
	.loc 1 376 1
	mv	s1,a0
	mv	s3,a1
	.loc 1 381 23
	add	a5,a5,a4
.LVL155:
	sb	zero,0(a5)
	.loc 1 383 5 is_stmt 1
.LVL156:
	.loc 1 381 23 is_stmt 0
	li	s0,0
	li	s2,0
	.loc 1 383 5
	li	s4,126
.LVL157:
.L69:
	.loc 1 385 9 is_stmt 1 discriminator 3
	.loc 1 385 44 is_stmt 0 discriminator 3
	mv	a1,s0
	mv	a2,s2
	li	a0,2
	call	gf_pow
.LVL158:
	.loc 1 385 29 discriminator 3
	slli	a1,a0,16
	srli	a1,a1,16
	mv	a0,s3
	call	poly_eval
.LVL159:
.LBB508:
.LBB509:
	.loc 1 177 5 is_stmt 1 discriminator 3
	.loc 1 179 5 discriminator 3
	.loc 1 181 5 discriminator 3
.LBB510:
.LBB511:
	.loc 1 154 5 discriminator 3
	.loc 1 156 5 discriminator 3
.LBE511:
.LBE510:
	.loc 1 183 5 discriminator 3
.LBB513:
.LBB512:
	.loc 1 156 31 is_stmt 0 discriminator 3
	lhu	a4,98(s1)
.LBE512:
.LBE513:
.LBE509:
.LBE508:
	.loc 1 385 27 discriminator 3
	lw	a5,100(s1)
	add	a5,a5,a4
.LVL160:
	add	a5,a5,s0
.LVL161:
	sb	a0,1(a5)
.LVL162:
	addi	a5,s0,1
	sltu	a4,a5,s0
	add	s2,a4,s2
	mv	s0,a5
.LVL163:
	.loc 1 383 5 discriminator 3
	bne	a5,s4,.L69
	bne	s2,zero,.L69
	.loc 1 387 1
	lw	ra,28(sp)
	.cfi_restore 1
	lw	s0,24(sp)
	.cfi_restore 8
	lw	s1,20(sp)
	.cfi_restore 9
.LVL164:
	lw	s2,16(sp)
	.cfi_restore 18
	lw	s3,12(sp)
	.cfi_restore 19
.LVL165:
	lw	s4,8(sp)
	.cfi_restore 20
	addi	sp,sp,32
	.cfi_def_cfa_offset 0
	jr	ra
	.cfi_endproc
.LFE26:
	.size	calc_syndromes, .-calc_syndromes
	.section	.text.find_errata_locator,"ax",@progbits
	.align	1
	.globl	find_errata_locator
	.type	find_errata_locator, @function
find_errata_locator:
.LFB27:
	.loc 1 390 1 is_stmt 1
	.cfi_startproc
.LVL166:
	.loc 1 391 5
	.loc 1 390 1 is_stmt 0
	addi	sp,sp,-48
	.cfi_def_cfa_offset 48
	sw	s0,40(sp)
	sw	s1,36(sp)
	sw	s2,32(sp)
	sw	s3,28(sp)
	sw	s4,24(sp)
	sw	s5,20(sp)
	sw	s6,16(sp)
	sw	s7,12(sp)
	sw	s9,4(sp)
	sw	ra,44(sp)
	sw	s8,8(sp)
	.cfi_offset 8, -8
	.cfi_offset 9, -12
	.cfi_offset 18, -16
	.cfi_offset 19, -20
	.cfi_offset 20, -24
	.cfi_offset 21, -28
	.cfi_offset 22, -32
	.cfi_offset 23, -36
	.cfi_offset 25, -44
	.cfi_offset 1, -4
	.cfi_offset 24, -40
.LBB514:
.LBB515:
.LBB516:
.LBB517:
	.loc 1 156 31
	lhu	a3,122(a0)
.LBE517:
.LBE516:
.LBE515:
.LBE514:
	.loc 1 398 29
	lw	a4,124(a0)
	.loc 1 397 24
	li	a5,1
	sb	a5,128(a0)
	.loc 1 398 29
	add	a4,a4,a3
	sb	a5,0(a4)
	.loc 1 400 18
	sb	a5,44(a0)
	.loc 1 401 18
	li	a5,2
	.loc 1 390 1
	mv	s0,a0
	mv	s2,a1
	.loc 1 391 15
	addi	s3,a0,120
.LVL167:
	.loc 1 392 5 is_stmt 1
	.loc 1 392 15 is_stmt 0
	addi	s6,a0,36
.LVL168:
	.loc 1 393 5 is_stmt 1
	.loc 1 393 15 is_stmt 0
	addi	s7,a0,48
.LVL169:
	.loc 1 394 5 is_stmt 1
	.loc 1 394 15 is_stmt 0
	addi	s4,a0,72
.LVL170:
	.loc 1 395 5 is_stmt 1
	.loc 1 395 15 is_stmt 0
	addi	s5,a0,84
.LVL171:
	.loc 1 397 5 is_stmt 1
	.loc 1 398 5
.LBB521:
.LBB520:
	.loc 1 177 5
	.loc 1 179 5
	.loc 1 181 5
.LBB519:
.LBB518:
	.loc 1 154 5
	.loc 1 156 5
.LBE518:
.LBE519:
	.loc 1 183 5
.LBE520:
.LBE521:
	.loc 1 400 5
	.loc 1 401 5
	.loc 1 401 18 is_stmt 0
	sb	a5,56(a0)
	.loc 1 403 5 is_stmt 1
.LBB522:
	.loc 1 403 10
.LVL172:
	.loc 1 403 18 is_stmt 0
	li	s1,0
	.loc 1 405 27
	li	s9,1
.LVL173:
.L72:
	.loc 1 403 5 discriminator 1
	lbu	a5,8(s2)
	bgtu	a5,s1,.L73
.LBE522:
	.loc 1 414 1
	lw	ra,44(sp)
	.cfi_remember_state
	.cfi_restore 1
	lw	s0,40(sp)
	.cfi_restore 8
.LVL174:
	lw	s1,36(sp)
	.cfi_restore 9
.LVL175:
	lw	s2,32(sp)
	.cfi_restore 18
.LVL176:
	lw	s3,28(sp)
	.cfi_restore 19
.LVL177:
	lw	s4,24(sp)
	.cfi_restore 20
.LVL178:
	lw	s5,20(sp)
	.cfi_restore 21
.LVL179:
	lw	s6,16(sp)
	.cfi_restore 22
.LVL180:
	lw	s7,12(sp)
	.cfi_restore 23
.LVL181:
	lw	s8,8(sp)
	.cfi_restore 24
	lw	s9,4(sp)
	.cfi_restore 25
	addi	sp,sp,48
	.cfi_def_cfa_offset 0
	jr	ra
.LVL182:
.L73:
	.cfi_restore_state
.LBB551:
	.loc 1 405 9 is_stmt 1
.LBB523:
.LBB524:
	.loc 1 177 5
	.loc 1 179 5
	.loc 1 181 5
.LBB525:
.LBB526:
	.loc 1 154 5
	.loc 1 156 5
.LBE526:
.LBE525:
	.loc 1 183 5
.LBB528:
.LBB527:
	.loc 1 156 31 is_stmt 0
	lhu	a4,38(s0)
.LBE527:
.LBE528:
.LBE524:
.LBE523:
	.loc 1 405 27
	lw	a5,40(s0)
	.loc 1 406 29
	li	a2,0
	li	a0,2
	.loc 1 405 27
	add	a5,a5,a4
.LVL183:
	sb	s9,0(a5)
	.loc 1 406 9 is_stmt 1
.LVL184:
.LBB529:
.LBB530:
	.loc 1 177 5
	.loc 1 179 5
	.loc 1 181 5
.LBB531:
.LBB532:
	.loc 1 154 5
	.loc 1 156 5
.LBE532:
.LBE531:
	.loc 1 183 5
.LBE530:
.LBE529:
.LBB536:
.LBB537:
	.loc 1 177 5
	.loc 1 179 5
	.loc 1 181 5
.LBB538:
.LBB539:
	.loc 1 154 5
	.loc 1 156 5
.LBE539:
.LBE538:
	.loc 1 183 5
.LBB541:
.LBB540:
	.loc 1 156 31 is_stmt 0
	lhu	a5,50(s0)
.LVL185:
.LBE540:
.LBE541:
	.loc 1 183 16
	lw	s8,52(s0)
.LBE537:
.LBE536:
.LBB543:
.LBB535:
.LBB534:
.LBB533:
	.loc 1 156 31
	lhu	a4,2(s2)
.LBE533:
.LBE534:
.LBE535:
.LBE543:
.LBB544:
.LBB542:
	.loc 1 183 16
	add	s8,s8,a5
.LVL186:
.LBE542:
.LBE544:
	.loc 1 406 39
	lw	a5,4(s2)
	add	a5,a5,s1
	add	a5,a5,a4
	.loc 1 406 29
	lbu	a1,0(a5)
	.loc 1 403 44
	addi	s1,s1,1
.LVL187:
	andi	s1,s1,0xff
	.loc 1 406 29
	call	gf_pow
.LVL188:
	.loc 1 406 27
	sb	a0,0(s8)
	.loc 1 407 9 is_stmt 1
.LVL189:
.LBB545:
.LBB546:
	.loc 1 177 5
	.loc 1 179 5
	.loc 1 181 5
.LBB547:
.LBB548:
	.loc 1 154 5
	.loc 1 156 5
.LBE548:
.LBE547:
	.loc 1 183 5
.LBB550:
.LBB549:
	.loc 1 156 31 is_stmt 0
	lhu	a4,50(s0)
.LBE549:
.LBE550:
.LBE546:
.LBE545:
	.loc 1 407 27
	lw	a5,52(s0)
	.loc 1 409 9
	mv	a2,s4
	mv	a1,s7
	.loc 1 407 27
	add	a5,a5,a4
.LVL190:
	sb	zero,1(a5)
	.loc 1 409 9 is_stmt 1
	mv	a0,s6
	call	poly_add
.LVL191:
	.loc 1 410 9
	mv	a2,s5
	mv	a1,s4
	mv	a0,s3
	call	poly_mul
.LVL192:
	.loc 1 412 9
	mv	a1,s5
	mv	a0,s3
	call	poly_copy
.LVL193:
	j	.L72
.LBE551:
	.cfi_endproc
.LFE27:
	.size	find_errata_locator, .-find_errata_locator
	.section	.text.find_error_evaluator,"ax",@progbits
	.align	1
	.globl	find_error_evaluator
	.type	find_error_evaluator, @function
find_error_evaluator:
.LFB28:
	.loc 1 417 1
	.cfi_startproc
.LVL194:
	.loc 1 418 5
	.loc 1 417 1 is_stmt 0
	addi	sp,sp,-32
	.cfi_def_cfa_offset 32
	sw	s0,24(sp)
	.cfi_offset 8, -8
	mv	s0,a0
	sw	s1,20(sp)
	.cfi_offset 9, -12
	.loc 1 418 15
	addi	s1,s0,36
.LVL195:
	.loc 1 419 5 is_stmt 1
	.loc 1 417 1 is_stmt 0
	mv	a0,a1
.LVL196:
	mv	a1,a2
.LVL197:
	.loc 1 419 5
	mv	a2,s1
.LVL198:
	.loc 1 417 1
	sw	ra,28(sp)
	.cfi_offset 1, -4
	.loc 1 417 1
	sw	a3,12(sp)
	sw	a4,8(sp)
	.loc 1 419 5
	call	poly_mul
.LVL199:
	.loc 1 421 5 is_stmt 1
	.loc 1 422 30 is_stmt 0
	lw	a4,8(sp)
	.loc 1 421 15
	addi	a1,s0,48
.LVL200:
	.loc 1 422 5 is_stmt 1
	.loc 1 424 5 is_stmt 0
	mv	a0,a1
	.loc 1 422 30
	addi	a4,a4,2
	.loc 1 422 21
	sb	a4,56(s0)
	.loc 1 424 5 is_stmt 1
	sw	a1,8(sp)
	call	poly_reset
.LVL201:
	.loc 1 425 5
.LBB552:
.LBB553:
	.loc 1 177 5
	.loc 1 179 5
	.loc 1 181 5
.LBB554:
.LBB555:
	.loc 1 154 5
	.loc 1 156 5
.LBE555:
.LBE554:
	.loc 1 183 5
.LBB557:
.LBB556:
	.loc 1 156 31 is_stmt 0
	lhu	a4,50(s0)
.LBE556:
.LBE557:
.LBE553:
.LBE552:
	.loc 1 425 26
	lw	a5,52(s0)
	.loc 1 427 5
	lw	a3,12(sp)
	lw	a1,8(sp)
	.loc 1 425 26
	add	a5,a5,a4
.LVL202:
	li	a4,1
	sb	a4,0(a5)
	.loc 1 427 5 is_stmt 1
	.loc 1 428 1 is_stmt 0
	lw	s0,24(sp)
	.cfi_restore 8
.LVL203:
	lw	ra,28(sp)
	.cfi_restore 1
	.loc 1 427 5
	mv	a0,s1
	.loc 1 428 1
	lw	s1,20(sp)
	.cfi_restore 9
.LVL204:
	.loc 1 427 5
	mv	a2,a3
	.loc 1 428 1
	addi	sp,sp,32
	.cfi_def_cfa_offset 0
.LVL205:
	.loc 1 427 5
	tail	poly_div
.LVL206:
	.cfi_endproc
.LFE28:
	.size	find_error_evaluator, .-find_error_evaluator
	.section	.text.correct_errata,"ax",@progbits
	.align	1
	.globl	correct_errata
	.type	correct_errata, @function
correct_errata:
.LFB29:
	.loc 1 431 1 is_stmt 1
	.cfi_startproc
.LVL207:
	.loc 1 432 5
	.loc 1 433 5
	.loc 1 434 5
	.loc 1 435 5
	.loc 1 436 5
	.loc 1 437 5
	.loc 1 438 5
	.loc 1 440 5
	.loc 1 431 1 is_stmt 0
	addi	sp,sp,-80
	.cfi_def_cfa_offset 80
	sw	s2,64(sp)
	.cfi_offset 18, -16
	mv	s2,a2
	.loc 1 450 28
	lbu	a4,8(s2)
	.loc 1 441 15
	addi	a5,a0,12
	.loc 1 431 1
	sw	s0,72(sp)
	sw	s1,68(sp)
	sw	s3,60(sp)
	sw	s4,56(sp)
	sw	s6,48(sp)
	sw	s7,44(sp)
	sw	s10,32(sp)
	sw	ra,76(sp)
	sw	s5,52(sp)
	sw	s8,40(sp)
	sw	s9,36(sp)
	sw	s11,28(sp)
	.cfi_offset 8, -8
	.cfi_offset 9, -12
	.cfi_offset 19, -20
	.cfi_offset 20, -24
	.cfi_offset 22, -32
	.cfi_offset 23, -36
	.cfi_offset 26, -48
	.cfi_offset 1, -4
	.cfi_offset 21, -28
	.cfi_offset 24, -40
	.cfi_offset 25, -44
	.cfi_offset 27, -52
	.loc 1 441 15
	sw	a5,0(sp)
	.loc 1 448 15
	addi	a5,a0,48
	.loc 1 431 1
	mv	s1,a1
	.loc 1 450 19
	sb	a4,176(a0)
	.loc 1 431 1
	mv	s10,a0
	mv	s3,a3
	.loc 1 440 15
	addi	a1,a0,168
.LVL208:
	.loc 1 441 5 is_stmt 1
	.loc 1 442 5
	.loc 1 442 15 is_stmt 0
	addi	a2,a0,120
.LVL209:
	.loc 1 443 5 is_stmt 1
	.loc 1 443 15 is_stmt 0
	addi	s4,a0,72
.LVL210:
	.loc 1 444 5 is_stmt 1
	.loc 1 444 15 is_stmt 0
	addi	s7,a0,84
.LVL211:
	.loc 1 445 5 is_stmt 1
	.loc 1 446 5
	.loc 1 446 15 is_stmt 0
	addi	s0,a0,36
.LVL212:
	.loc 1 447 5 is_stmt 1
	.loc 1 447 15 is_stmt 0
	addi	s6,a0,60
.LVL213:
	.loc 1 448 5 is_stmt 1
	.loc 1 448 15 is_stmt 0
	sw	a5,4(sp)
.LVL214:
	.loc 1 450 5 is_stmt 1
	.loc 1 452 5
	.loc 1 452 12 is_stmt 0
	li	a4,0
.LVL215:
.L78:
	.loc 1 452 5 discriminator 1
	lbu	a3,8(s2)
	bgtu	a3,a4,.L79
	.loc 1 456 5
	mv	a0,s10
	sw	a2,8(sp)
	.loc 1 456 5 is_stmt 1
	call	find_errata_locator
.LVL216:
	.loc 1 460 5
	.loc 1 460 25 is_stmt 0
	lbu	a4,8(s1)
	.loc 1 462 5
	lw	a2,8(sp)
	li	a3,0
	.loc 1 460 19
	sb	a4,80(s10)
	.loc 1 462 5 is_stmt 1
	.loc 1 462 28 is_stmt 0
	addi	a4,a4,-1
	andi	a4,a4,0xff
	.loc 1 462 14
	slli	a0,a4,24
	srai	a0,a0,24
.LVL217:
.L80:
	.loc 1 462 5 discriminator 1
	sub	a1,a4,a3
	slli	a1,a1,24
	srai	a1,a1,24
	bge	a1,zero,.L81
	.loc 1 470 5 is_stmt 1
	lbu	a4,128(s10)
	mv	a3,s7
.LVL218:
	mv	a1,s4
	addi	a4,a4,-1
	andi	a4,a4,0xff
	mv	a0,s10
	call	find_error_evaluator
.LVL219:
	.loc 1 473 5
	.loc 1 473 29 is_stmt 0
	lbu	a4,92(s10)
	.loc 1 474 5
	li	a3,0
	.loc 1 473 20
	sb	a4,188(s10)
	.loc 1 474 5 is_stmt 1
	.loc 1 474 31 is_stmt 0
	addi	a4,a4,-1
	andi	a4,a4,0xff
	.loc 1 474 14
	slli	a1,a4,24
	srai	a1,a1,24
.LVL220:
.L82:
	.loc 1 474 5 discriminator 1
	sub	a2,a4,a3
	slli	a2,a2,24
	srai	a2,a2,24
	bge	a2,zero,.L83
	.loc 1 480 5 is_stmt 1
	.loc 1 480 15 is_stmt 0
	sb	zero,44(s10)
	.loc 1 482 5 is_stmt 1
.LVL221:
	.loc 1 482 12 is_stmt 0
	li	s1,0
.LVL222:
	.loc 1 484 17
	li	s4,255
.LVL223:
.L84:
	.loc 1 482 5 discriminator 1
	lbu	a4,176(s10)
	bgtu	a4,s1,.L85
	.loc 1 490 5 is_stmt 1
	mv	a0,s6
	call	poly_reset
.LVL224:
	.loc 1 491 5
	.loc 1 491 23 is_stmt 0
	lbu	a4,8(s3)
.LBB558:
.LBB559:
	.loc 1 265 20
	lui	s4,%hi(.LANCHOR0)
	.loc 1 265 35
	lui	s5,%hi(.LANCHOR1)
.LBE559:
.LBE558:
	.loc 1 491 15
	sb	a4,68(s10)
	.loc 1 494 5 is_stmt 1
.LVL225:
	.loc 1 494 12 is_stmt 0
	li	s1,0
.LBB565:
.LBB560:
	.loc 1 265 20
	addi	s4,s4,%lo(.LANCHOR0)
	.loc 1 265 35
	addi	s5,s5,%lo(.LANCHOR1)
	.loc 1 265 25
	li	s11,255
.LVL226:
.L86:
.LBE560:
.LBE565:
	.loc 1 494 5 discriminator 1
	lbu	a4,44(s10)
	bgtu	a4,s1,.L92
	.loc 1 515 5 is_stmt 1
	.loc 1 516 1 is_stmt 0
	lw	s0,72(sp)
	.cfi_remember_state
	.cfi_restore 8
	.loc 1 515 5
	lw	a2,0(sp)
	.loc 1 516 1
	lw	ra,76(sp)
	.cfi_restore 1
	lw	s1,68(sp)
	.cfi_restore 9
.LVL227:
	lw	s2,64(sp)
	.cfi_restore 18
.LVL228:
	lw	s4,56(sp)
	.cfi_restore 20
	lw	s5,52(sp)
	.cfi_restore 21
	lw	s7,44(sp)
	.cfi_restore 23
.LVL229:
	lw	s8,40(sp)
	.cfi_restore 24
	lw	s9,36(sp)
	.cfi_restore 25
	lw	s10,32(sp)
	.cfi_restore 26
.LVL230:
	lw	s11,28(sp)
	.cfi_restore 27
	.loc 1 515 5
	mv	a1,s6
	mv	a0,s3
	.loc 1 516 1
	lw	s6,48(sp)
	.cfi_restore 22
.LVL231:
	lw	s3,60(sp)
	.cfi_restore 19
.LVL232:
	addi	sp,sp,80
	.cfi_def_cfa_offset 0
.LVL233:
	.loc 1 515 5
	tail	poly_add
.LVL234:
.L79:
	.cfi_restore_state
	.loc 1 453 9 is_stmt 1 discriminator 3
.LBB566:
.LBB567:
	.loc 1 177 5 discriminator 3
	.loc 1 179 5 discriminator 3
	.loc 1 181 5 discriminator 3
.LBB568:
.LBB569:
	.loc 1 154 5 discriminator 3
	.loc 1 156 5 discriminator 3
.LBE569:
.LBE568:
	.loc 1 183 5 discriminator 3
.LBE567:
.LBE566:
.LBB573:
.LBB574:
	.loc 1 177 5 discriminator 3
	.loc 1 179 5 discriminator 3
	.loc 1 181 5 discriminator 3
.LBB575:
.LBB576:
	.loc 1 154 5 discriminator 3
	.loc 1 156 5 discriminator 3
.LBE576:
.LBE575:
	.loc 1 183 5 discriminator 3
.LBE574:
.LBE573:
	.loc 1 453 28 is_stmt 0 discriminator 3
	lw	a3,172(s10)
	.loc 1 453 51 discriminator 3
	lw	a6,4(s2)
.LBB580:
.LBB579:
.LBB578:
.LBB577:
	.loc 1 156 31 discriminator 3
	lhu	a0,170(s10)
.LBE577:
.LBE578:
.LBE579:
.LBE580:
.LBB581:
.LBB572:
.LBB571:
.LBB570:
	lhu	a7,2(s2)
.LBE570:
.LBE571:
.LBE572:
.LBE581:
	.loc 1 453 28 discriminator 3
	add	a3,a3,a4
	.loc 1 453 51 discriminator 3
	add	a6,a6,a4
	.loc 1 453 28 discriminator 3
	add	a3,a3,a0
	.loc 1 453 51 discriminator 3
	add	a6,a6,a7
	.loc 1 453 49 discriminator 3
	lbu	a0,8(s3)
	lbu	a6,0(a6)
	.loc 1 452 39 discriminator 3
	addi	a4,a4,1
.LVL235:
	.loc 1 453 49 discriminator 3
	addi	a0,a0,-1
	sub	a0,a0,a6
	.loc 1 453 28 discriminator 3
	sb	a0,0(a3)
.LVL236:
	.loc 1 452 39 discriminator 3
	andi	a4,a4,0xff
.LVL237:
	j	.L78
.LVL238:
.L81:
	.loc 1 464 9 is_stmt 1 discriminator 3
.LBB582:
.LBB583:
	.loc 1 177 5 discriminator 3
	.loc 1 179 5 discriminator 3
	.loc 1 181 5 discriminator 3
.LBB584:
.LBB585:
	.loc 1 154 5 discriminator 3
	.loc 1 156 5 discriminator 3
.LBE585:
.LBE584:
	.loc 1 183 5 discriminator 3
.LBE583:
.LBE582:
.LBB590:
.LBB591:
	.loc 1 177 5 discriminator 3
	.loc 1 179 5 discriminator 3
	.loc 1 181 5 discriminator 3
.LBB592:
.LBB593:
	.loc 1 154 5 discriminator 3
	.loc 1 156 5 discriminator 3
.LBE593:
.LBE592:
	.loc 1 183 5 discriminator 3
.LBE591:
.LBE590:
.LBB597:
.LBB588:
.LBB587:
.LBB586:
	.loc 1 156 31 is_stmt 0 discriminator 3
	lhu	a7,2(s1)
.LBE586:
.LBE587:
.LBE588:
.LBE597:
	.loc 1 464 30 discriminator 3
	lw	a1,4(s1)
.LBB598:
.LBB589:
	.loc 1 183 16 discriminator 3
	sub	a6,a0,a3
.LBE589:
.LBE598:
	.loc 1 464 30 discriminator 3
	add	a1,a1,a7
.LVL239:
	add	a1,a1,a6
.LVL240:
	lbu	a6,0(a1)
	.loc 1 464 28 discriminator 3
	lw	a1,76(s10)
.LBB599:
.LBB596:
.LBB595:
.LBB594:
	.loc 1 156 31 discriminator 3
	lhu	a7,74(s10)
.LBE594:
.LBE595:
.LBE596:
.LBE599:
	.loc 1 464 28 discriminator 3
	add	a1,a1,a3
	add	a1,a1,a7
	sb	a6,0(a1)
.LVL241:
	addi	a3,a3,1
.LVL242:
	j	.L80
.LVL243:
.L83:
	.loc 1 476 9 is_stmt 1 discriminator 3
.LBB600:
.LBB601:
	.loc 1 177 5 discriminator 3
	.loc 1 179 5 discriminator 3
	.loc 1 181 5 discriminator 3
.LBB602:
.LBB603:
	.loc 1 154 5 discriminator 3
	.loc 1 156 5 discriminator 3
.LBE603:
.LBE602:
	.loc 1 183 5 discriminator 3
.LBE601:
.LBE600:
.LBB608:
.LBB609:
	.loc 1 177 5 discriminator 3
	.loc 1 179 5 discriminator 3
	.loc 1 181 5 discriminator 3
.LBB610:
.LBB611:
	.loc 1 154 5 discriminator 3
	.loc 1 156 5 discriminator 3
.LBE611:
.LBE610:
	.loc 1 183 5 discriminator 3
.LBE609:
.LBE608:
.LBB615:
.LBB606:
.LBB605:
.LBB604:
	.loc 1 156 31 is_stmt 0 discriminator 3
	lhu	a6,86(s10)
.LBE604:
.LBE605:
.LBE606:
.LBE615:
	.loc 1 476 31 discriminator 3
	lw	a2,88(s10)
.LBB616:
.LBB607:
	.loc 1 183 16 discriminator 3
	sub	a0,a1,a3
.LBE607:
.LBE616:
	.loc 1 476 31 discriminator 3
	add	a2,a2,a6
.LVL244:
	add	a2,a2,a0
.LVL245:
	lbu	a0,0(a2)
	.loc 1 476 29 discriminator 3
	lw	a2,184(s10)
.LBB617:
.LBB614:
.LBB613:
.LBB612:
	.loc 1 156 31 discriminator 3
	lhu	a6,182(s10)
.LBE612:
.LBE613:
.LBE614:
.LBE617:
	.loc 1 476 29 discriminator 3
	add	a2,a2,a3
	add	a2,a2,a6
	sb	a0,0(a2)
.LVL246:
	addi	a3,a3,1
.LVL247:
	j	.L82
.LVL248:
.L85:
	.loc 1 484 9 is_stmt 1
.LBB618:
.LBB619:
	.loc 1 177 5
	.loc 1 179 5
	.loc 1 181 5
.LBB620:
.LBB621:
	.loc 1 154 5
	.loc 1 156 5
.LBE621:
.LBE620:
	.loc 1 183 5
.LBE619:
.LBE618:
	.loc 1 485 9
	.loc 1 484 19 is_stmt 0
	lw	a4,172(s10)
.LBB625:
.LBB624:
.LBB623:
.LBB622:
	.loc 1 156 31
	lhu	a3,170(s10)
.LBE622:
.LBE623:
.LBE624:
.LBE625:
	.loc 1 485 9
	li	a0,2
	.loc 1 484 19
	add	a4,a4,s1
	add	a4,a4,a3
	lbu	a1,0(a4)
	.loc 1 482 37
	addi	s1,s1,1
.LVL249:
	andi	s1,s1,0xff
	.loc 1 484 17
	sub	a1,s4,a1
	.loc 1 485 34
	slli	a1,a1,16
	srli	a1,a1,16
	neg	a1,a1
	.loc 1 485 9
	srai	a2,a1,31
	call	gf_pow
.LVL250:
	mv	a1,a0
	mv	a0,s0
	call	poly_append
.LVL251:
	j	.L84
.LVL252:
.L92:
	.loc 1 495 9 is_stmt 1
.LBB626:
.LBB627:
	.loc 1 177 5
	.loc 1 179 5
	.loc 1 181 5
.LBB628:
.LBB629:
	.loc 1 154 5
	.loc 1 156 5
.LBE629:
.LBE628:
	.loc 1 183 5
.LBE627:
.LBE626:
.LBB633:
.LBB561:
	.loc 1 265 5
.LBE561:
.LBE633:
	.loc 1 495 18 is_stmt 0
	lw	a4,40(s10)
.LBB634:
.LBB632:
.LBB631:
.LBB630:
	.loc 1 156 31
	lhu	a3,38(s10)
.LBE630:
.LBE631:
.LBE632:
.LBE634:
	.loc 1 495 18
	add	a4,a4,s1
	add	a4,a4,a3
.LBB635:
.LBB562:
	.loc 1 265 35
	lbu	a4,0(a4)
.LBE562:
.LBE635:
	.loc 1 497 36
	sb	zero,56(s10)
.LBB636:
.LBB563:
	.loc 1 265 35
	add	a4,s5,a4
	lbu	a3,0(a4)
.LBE563:
.LBE636:
	.loc 1 498 16
	li	a4,0
.LBB637:
.LBB564:
	.loc 1 265 25
	sub	a3,s11,a3
	.loc 1 265 20
	add	a3,s4,a3
.LVL253:
.LBE564:
.LBE637:
	.loc 1 497 9 is_stmt 1
	.loc 1 498 9
	lbu	s9,0(a3)
.LVL254:
.L87:
	.loc 1 498 9 is_stmt 0 discriminator 1
	lbu	a3,44(s10)
	lw	s0,40(s10)
	lhu	s8,38(s10)
	bgtu	a3,a4,.L89
	.loc 1 505 43
	lbu	a2,56(s10)
	li	a3,0
	.loc 1 504 23
	li	a6,1
.LVL255:
.L90:
	.loc 1 505 9 discriminator 1
	andi	a4,a3,0xff
	bgtu	a2,a4,.L91
	.loc 1 509 13 discriminator 2
	mv	a1,s9
	.loc 1 510 20 discriminator 2
	add	s0,s0,s1
	.loc 1 509 13 discriminator 2
	mv	a0,s7
	sw	a6,8(sp)
.LVL256:
	.loc 1 509 9 is_stmt 1 discriminator 2
	.loc 1 510 20 is_stmt 0 discriminator 2
	add	s8,s0,s8
	.loc 1 509 13 discriminator 2
	call	poly_eval
.LVL257:
	mv	s9,a0
.LVL258:
	.loc 1 510 9 is_stmt 1 discriminator 2
.LBB638:
.LBB639:
	.loc 1 177 5 discriminator 2
	.loc 1 179 5 discriminator 2
	.loc 1 181 5 discriminator 2
.LBE639:
.LBE638:
	.loc 1 154 5 discriminator 2
	.loc 1 156 5 discriminator 2
.LBB641:
.LBB640:
	.loc 1 183 5 discriminator 2
.LBE640:
.LBE641:
	.loc 1 510 20 is_stmt 0 discriminator 2
	lbu	a0,0(s8)
	li	a2,0
	li	a1,1
	call	gf_pow
.LVL259:
	.loc 1 510 13 discriminator 2
	slli	a0,a0,16
	andi	a1,s9,0xff
	srli	a0,a0,16
	call	gf_mul
.LVL260:
	.loc 1 512 9 is_stmt 1 discriminator 2
.LBB642:
.LBB643:
	.loc 1 177 5 discriminator 2
	.loc 1 179 5 discriminator 2
	.loc 1 181 5 discriminator 2
.LBB644:
.LBB645:
	.loc 1 154 5 discriminator 2
	.loc 1 156 5 discriminator 2
.LBE645:
.LBE644:
	.loc 1 183 5 discriminator 2
.LBE643:
.LBE642:
.LBB649:
.LBB650:
	.loc 1 177 5 discriminator 2
	.loc 1 179 5 discriminator 2
	.loc 1 181 5 discriminator 2
.LBB651:
.LBB652:
	.loc 1 154 5 discriminator 2
	.loc 1 156 5 discriminator 2
.LBE652:
.LBE651:
	.loc 1 183 5 discriminator 2
.LBE650:
.LBE649:
	.loc 1 512 10 is_stmt 0 discriminator 2
	lw	a4,4(s2)
.LBB658:
.LBB648:
.LBB647:
.LBB646:
	.loc 1 156 31 discriminator 2
	lhu	a3,2(s2)
.LBE646:
.LBE647:
.LBE648:
.LBE658:
	.loc 1 512 45 discriminator 2
	lw	a6,8(sp)
	.loc 1 512 10 discriminator 2
	add	a4,a4,s1
	add	a4,a4,a3
.LBB659:
.LBB655:
	.loc 1 183 16 discriminator 2
	lbu	s0,0(a4)
.LBB654:
.LBB653:
	.loc 1 156 31 discriminator 2
	lhu	a4,62(s10)
.LBE653:
.LBE654:
.LBE655:
.LBE659:
	.loc 1 512 45 discriminator 2
	mv	a1,a6
	.loc 1 494 33 discriminator 2
	addi	s1,s1,1
.LVL261:
.LBB660:
.LBB656:
	.loc 1 183 16 discriminator 2
	add	a4,s0,a4
	lw	s0,64(s10)
.LBE656:
.LBE660:
	.loc 1 494 33 discriminator 2
	andi	s1,s1,0xff
.LVL262:
.LBB661:
.LBB657:
	.loc 1 183 16 discriminator 2
	add	s0,s0,a4
.LVL263:
.LBE657:
.LBE661:
	.loc 1 512 45 discriminator 2
	call	gf_div
.LVL264:
	.loc 1 512 43 discriminator 2
	sb	a0,0(s0)
	j	.L86
.LVL265:
.L89:
	.loc 1 499 13 is_stmt 1
	.loc 1 499 16 is_stmt 0
	beq	s1,a4,.L88
	.loc 1 500 17 is_stmt 1
.LVL266:
.LBB662:
.LBB663:
	.loc 1 177 5
	.loc 1 179 5
	.loc 1 181 5
.LBE663:
.LBE662:
	.loc 1 154 5
	.loc 1 156 5
.LBB665:
.LBB664:
	.loc 1 183 5
.LBE664:
.LBE665:
	.loc 1 500 74 is_stmt 0
	add	s0,s0,a4
	add	s8,s0,s8
	.loc 1 500 17
	lbu	a1,0(s8)
	mv	a0,s9
	.loc 1 500 74
	sw	a4,8(sp)
	.loc 1 500 17
	call	gf_mul
.LVL267:
.LBB666:
.LBB667:
	.loc 1 227 5 is_stmt 1
	.loc 1 227 13 is_stmt 0
	xori	a1,a0,1
.LBE667:
.LBE666:
	.loc 1 500 17
	lw	a0,4(sp)
	andi	a1,a1,0xff
	call	poly_append
.LVL268:
	lw	a4,8(sp)
.L88:
	.loc 1 498 37 discriminator 2
	addi	a4,a4,1
	andi	a4,a4,0xff
.LVL269:
	j	.L87
.LVL270:
.L91:
	.loc 1 506 51 discriminator 3
	lw	a4,52(s10)
.LBB668:
.LBB669:
.LBB670:
.LBB671:
	.loc 1 156 31 discriminator 3
	lhu	a1,50(s10)
.LBE671:
.LBE670:
.LBE669:
.LBE668:
	.loc 1 506 29 discriminator 3
	slli	a0,a6,16
	.loc 1 506 51 discriminator 3
	add	a4,a4,a3
	add	a4,a4,a1
	.loc 1 506 29 discriminator 3
	lbu	a1,0(a4)
	srli	a0,a0,16
	sw	a2,12(sp)
	.loc 1 506 13 is_stmt 1 discriminator 3
.LVL271:
.LBB675:
.LBB674:
	.loc 1 177 5 discriminator 3
	.loc 1 179 5 discriminator 3
	.loc 1 181 5 discriminator 3
.LBB673:
.LBB672:
	.loc 1 154 5 discriminator 3
	.loc 1 156 5 discriminator 3
.LBE672:
.LBE673:
	.loc 1 183 5 discriminator 3
.LBE674:
.LBE675:
	.loc 1 506 51 is_stmt 0 discriminator 3
	sw	a3,8(sp)
	.loc 1 506 29 discriminator 3
	call	gf_mul
.LVL272:
	lw	a3,8(sp)
	mv	a6,a0
.LVL273:
	lw	a2,12(sp)
	addi	a3,a3,1
	j	.L90
	.cfi_endproc
.LFE29:
	.size	correct_errata, .-correct_errata
	.section	.text.find_error_locator,"ax",@progbits
	.align	1
	.globl	find_error_locator
	.type	find_error_locator, @function
find_error_locator:
.LFB30:
	.loc 1 519 1 is_stmt 1
	.cfi_startproc
.LVL274:
	.loc 1 520 5
	.loc 1 521 5
	.loc 1 522 5
	.loc 1 523 5
	.loc 1 524 5
	.loc 1 525 5
	.loc 1 526 5
	.loc 1 527 5
	.loc 1 529 5
	.loc 1 530 5
	.loc 1 519 1 is_stmt 0
	addi	sp,sp,-96
	.cfi_def_cfa_offset 96
	sw	s1,84(sp)
	sw	s2,80(sp)
	sw	s3,76(sp)
	sw	s4,72(sp)
	sw	s5,68(sp)
	sw	s7,60(sp)
	sw	s10,48(sp)
	sw	s11,44(sp)
	sw	ra,92(sp)
	sw	s0,88(sp)
	sw	s6,64(sp)
	sw	s8,56(sp)
	sw	s9,52(sp)
	.cfi_offset 9, -12
	.cfi_offset 18, -16
	.cfi_offset 19, -20
	.cfi_offset 20, -24
	.cfi_offset 21, -28
	.cfi_offset 23, -36
	.cfi_offset 26, -48
	.cfi_offset 27, -52
	.cfi_offset 1, -4
	.cfi_offset 8, -8
	.cfi_offset 22, -32
	.cfi_offset 24, -40
	.cfi_offset 25, -44
	.loc 1 519 1
	mv	s11,a0
	mv	s7,a1
	mv	s5,a2
	mv	s3,a3
	.loc 1 530 15
	addi	s1,a0,36
.LVL275:
	.loc 1 531 5 is_stmt 1
	.loc 1 531 15 is_stmt 0
	addi	s2,a0,48
.LVL276:
	.loc 1 532 5 is_stmt 1
	.loc 1 532 15 is_stmt 0
	addi	s4,a0,72
.LVL277:
	.loc 1 533 5 is_stmt 1
	.loc 1 533 15 is_stmt 0
	addi	s10,a0,84
.LVL278:
	.loc 1 535 5 is_stmt 1
	.loc 1 535 8 is_stmt 0
	beq	a2,zero,.L95
	.loc 1 536 9 is_stmt 1
	mv	a1,a2
.LVL279:
	mv	a0,s1
.LVL280:
	call	poly_copy
.LVL281:
	.loc 1 537 9
	mv	a1,s5
	mv	a0,s2
	call	poly_copy
.LVL282:
.L96:
	.loc 1 546 5
	.loc 1 546 13 is_stmt 0
	lbu	a4,8(s7)
	.loc 1 546 8
	li	a3,126
	.loc 1 521 13
	li	s6,0
	.loc 1 546 8
	bleu	a4,a3,.L97
	.loc 1 547 9 is_stmt 1
	.loc 1 547 20 is_stmt 0
	addi	s6,a4,-126
	andi	s6,s6,0xff
.LVL283:
.L97:
	.loc 1 550 5 is_stmt 1
	.loc 1 550 25 is_stmt 0
	li	a4,126
	sub	a5,a4,s3
	sw	a5,0(sp)
.LBB676:
.LBB677:
	.loc 1 265 20
	lui	s8,%hi(.LANCHOR0)
	add	a5,s6,s3
	sw	a5,4(sp)
	.loc 1 265 35
	lui	s9,%hi(.LANCHOR1)
	.loc 1 265 20
	addi	a5,s8,%lo(.LANCHOR0)
.LBE677:
.LBE676:
	.loc 1 550 12
	li	s0,0
.LBB682:
.LBB678:
	.loc 1 265 20
	sw	a5,8(sp)
	.loc 1 265 35
	addi	s9,s9,%lo(.LANCHOR1)
.LVL284:
.L98:
.LBE678:
.LBE682:
	.loc 1 550 5 discriminator 1
	lw	a5,0(sp)
	lbu	a2,44(s11)
	bltu	s0,a5,.L105
	.loc 1 526 14
	li	s0,0
.LVL285:
.L106:
	.loc 1 578 10 discriminator 1
	beq	a2,zero,.L107
.LVL286:
.LBB683:
.LBB684:
	.loc 1 177 5 is_stmt 1 discriminator 2
	.loc 1 179 5 discriminator 2
	.loc 1 181 5 discriminator 2
.LBB685:
.LBB686:
	.loc 1 154 5 discriminator 2
	.loc 1 156 5 discriminator 2
.LBE686:
.LBE685:
	.loc 1 183 5 discriminator 2
.LBE684:
.LBE683:
	.loc 1 578 30 is_stmt 0 discriminator 2
	lw	a3,40(s11)
.LBB690:
.LBB689:
.LBB688:
.LBB687:
	.loc 1 156 31 discriminator 2
	lhu	a1,38(s11)
.LBE687:
.LBE688:
	.loc 1 183 16 discriminator 2
	andi	a4,s0,255
.LBE689:
.LBE690:
	.loc 1 578 30 discriminator 2
	add	a4,a3,a4
	add	a4,a4,a1
	.loc 1 578 27 discriminator 2
	lbu	a4,0(a4)
	beq	a4,zero,.L108
.LVL287:
.L107:
	.loc 1 580 5 is_stmt 1
	.loc 1 581 16 is_stmt 0
	not	a4,s3
	.loc 1 580 28
	sub	a2,a2,s0
.LVL288:
	.loc 1 581 5 is_stmt 1
	.loc 1 581 16 is_stmt 0
	add	a4,a4,a2
	.loc 1 581 31
	slli	a4,a4,1
	.loc 1 581 35
	add	s3,a4,s3
.LVL289:
	.loc 1 581 8
	li	a4,126
	.loc 1 582 16
	li	a0,0
	.loc 1 581 8
	bgtu	s3,a4,.L109
	.loc 1 585 5 is_stmt 1
.LVL290:
.LBB691:
.LBB692:
	.loc 1 154 5
	.loc 1 156 5
.LBE692:
.LBE691:
.LBB694:
.LBB695:
	.loc 1 154 5
	.loc 1 156 5
	.loc 1 156 31 is_stmt 0
	lhu	a4,38(s11)
.LBE695:
.LBE694:
	.loc 1 585 51
	lw	a1,40(s11)
.LBB696:
.LBB693:
	.loc 1 156 31
	lhu	a3,134(s11)
	.loc 1 156 26
	lw	a0,136(s11)
.LBE693:
.LBE696:
	.loc 1 585 51
	add	a4,a4,s0
	.loc 1 585 5
	add	a1,a1,a4
	add	a0,a0,a3
	call	memcpy
.LVL291:
	.loc 1 586 5 is_stmt 1
	.loc 1 586 42 is_stmt 0
	lbu	a4,44(s11)
	.loc 1 587 12
	li	a0,1
	.loc 1 586 42
	sub	s0,a4,s0
.LVL292:
	.loc 1 586 23
	sb	s0,140(s11)
	.loc 1 587 5 is_stmt 1
.L109:
	.loc 1 588 1 is_stmt 0
	lw	ra,92(sp)
	.cfi_remember_state
	.cfi_restore 1
	lw	s0,88(sp)
	.cfi_restore 8
	lw	s1,84(sp)
	.cfi_restore 9
.LVL293:
	lw	s2,80(sp)
	.cfi_restore 18
.LVL294:
	lw	s3,76(sp)
	.cfi_restore 19
	lw	s4,72(sp)
	.cfi_restore 20
.LVL295:
	lw	s5,68(sp)
	.cfi_restore 21
.LVL296:
	lw	s6,64(sp)
	.cfi_restore 22
.LVL297:
	lw	s7,60(sp)
	.cfi_restore 23
.LVL298:
	lw	s8,56(sp)
	.cfi_restore 24
	lw	s9,52(sp)
	.cfi_restore 25
	lw	s10,48(sp)
	.cfi_restore 26
.LVL299:
	lw	s11,44(sp)
	.cfi_restore 27
.LVL300:
	addi	sp,sp,96
	.cfi_def_cfa_offset 0
	jr	ra
.LVL301:
.L95:
	.cfi_restore_state
	.loc 1 539 9 is_stmt 1
.LBB697:
.LBB698:
.LBB699:
.LBB700:
	.loc 1 156 31 is_stmt 0
	lhu	a2,38(a0)
.LVL302:
.LBE700:
.LBE699:
.LBE698:
.LBE697:
	.loc 1 541 30
	lw	a3,40(a0)
.LVL303:
	.loc 1 539 25
	li	a4,1
	sb	a4,44(a0)
	.loc 1 540 9 is_stmt 1
	.loc 1 541 30 is_stmt 0
	add	a3,a3,a2
	.loc 1 540 25
	sb	a4,56(a0)
	.loc 1 541 9 is_stmt 1
.LVL304:
.LBB704:
.LBB703:
	.loc 1 177 5
	.loc 1 179 5
	.loc 1 181 5
.LBB702:
.LBB701:
	.loc 1 154 5
	.loc 1 156 5
.LBE701:
.LBE702:
	.loc 1 183 5
.LBE703:
.LBE704:
	.loc 1 541 30 is_stmt 0
	sb	a4,0(a3)
	.loc 1 542 9 is_stmt 1
.LVL305:
.LBB705:
.LBB706:
	.loc 1 177 5
	.loc 1 179 5
	.loc 1 181 5
.LBB707:
.LBB708:
	.loc 1 154 5
	.loc 1 156 5
.LBE708:
.LBE707:
	.loc 1 183 5
.LBB710:
.LBB709:
	.loc 1 156 31 is_stmt 0
	lhu	a2,50(a0)
.LBE709:
.LBE710:
.LBE706:
.LBE705:
	.loc 1 542 30
	lw	a3,52(a0)
.LVL306:
	add	a3,a3,a2
.LVL307:
	sb	a4,0(a3)
	j	.L96
.LVL308:
.L105:
	.loc 1 552 9 is_stmt 1
	.loc 1 555 15 is_stmt 0
	add	a6,s0,s6
	.loc 1 552 12
	beq	s5,zero,.L119
	.loc 1 553 13 is_stmt 1
	lw	a5,4(sp)
	add	a6,s0,a5
.L119:
.LBB711:
.LBB712:
.LBB713:
.LBB714:
	.loc 1 156 16 is_stmt 0
	lw	a7,4(s7)
	.loc 1 156 31
	lhu	a1,2(s7)
.LBE714:
.LBE713:
.LBE712:
.LBE711:
	.loc 1 555 15
	andi	a6,a6,0xff
.LVL309:
	.loc 1 558 9 is_stmt 1
.LBB718:
.LBB717:
	.loc 1 177 5
	.loc 1 179 5
	.loc 1 181 5
.LBB716:
.LBB715:
	.loc 1 154 5
	.loc 1 156 5
.LBE715:
.LBE716:
	.loc 1 183 5
.LBE717:
.LBE718:
	.loc 1 558 15 is_stmt 0
	add	a4,a7,a6
	add	a4,a4,a1
	lbu	s8,0(a4)
.LVL310:
	.loc 1 559 9 is_stmt 1
	addi	t1,a2,-1
	andi	t1,t1,0xff
	.loc 1 559 16 is_stmt 0
	li	a3,1
	.loc 1 561 55
	add	a7,a7,a1
.LVL311:
.L101:
	.loc 1 559 9 discriminator 1
	bgtu	a2,a3,.L102
	.loc 1 564 9 is_stmt 1
	li	a1,0
	mv	a0,s2
	call	poly_append
.LVL312:
	.loc 1 566 9
	.loc 1 566 12 is_stmt 0
	beq	s8,zero,.L103
	.loc 1 567 13 is_stmt 1
	.loc 1 567 16 is_stmt 0
	lbu	a1,56(s11)
	lbu	a2,44(s11)
	slli	a3,s8,16
	srli	a3,a3,16
	bleu	a1,a2,.L104
	.loc 1 568 17 is_stmt 1
	mv	a2,a3
	mv	a1,s4
	mv	a0,s2
	sw	a3,12(sp)
	call	poly_scale
.LVL313:
	.loc 1 569 17
.LBB719:
.LBB679:
	.loc 1 265 5
	.loc 1 265 35 is_stmt 0
	add	a4,s9,s8
	lbu	a4,0(a4)
	.loc 1 265 25
	li	a5,255
.LBE679:
.LBE719:
	.loc 1 569 17
	mv	a1,s2
.LBB720:
.LBB680:
	.loc 1 265 25
	sub	a4,a5,a4
	.loc 1 265 20
	lw	a5,8(sp)
.LBE680:
.LBE720:
	.loc 1 569 17
	mv	a0,s1
.LBB721:
.LBB681:
	.loc 1 265 20
	add	a4,a5,a4
.LBE681:
.LBE721:
	.loc 1 569 17
	lbu	a2,0(a4)
	call	poly_scale
.LVL314:
	.loc 1 570 17 is_stmt 1
	mv	a1,s4
	mv	a0,s1
	call	poly_copy
.LVL315:
	lw	a3,12(sp)
.L104:
	.loc 1 572 13
	mv	a2,a3
	mv	a1,s4
	mv	a0,s2
	call	poly_scale
.LVL316:
	.loc 1 573 13
	mv	a1,s4
	mv	a0,s1
	mv	a2,s10
	call	poly_add
.LVL317:
	.loc 1 574 13
	mv	a1,s10
	mv	a0,s1
	call	poly_copy
.LVL318:
.L103:
	.loc 1 550 41 is_stmt 0 discriminator 2
	addi	s0,s0,1
.LVL319:
	andi	s0,s0,0xff
.LVL320:
	j	.L98
.LVL321:
.L102:
.LBB722:
.LBB723:
.LBB724:
.LBB725:
	.loc 1 156 31 discriminator 3
	lhu	t4,38(s11)
.LBE725:
.LBE724:
.LBE723:
.LBE722:
	.loc 1 561 29 discriminator 3
	lw	a0,40(s11)
.LBB731:
.LBB732:
	.loc 1 183 16 discriminator 3
	sub	a1,a6,a3
.LBE732:
.LBE731:
.LBB736:
.LBB728:
	sub	t3,t1,a3
	andi	t3,t3,0xff
.LBE728:
.LBE736:
	.loc 1 561 29 discriminator 3
	add	a0,a0,t4
.LBB737:
.LBB733:
	.loc 1 183 16 discriminator 3
	andi	a1,a1,0xff
.LBE733:
.LBE737:
	.loc 1 561 55 discriminator 3
	add	a1,a7,a1
	.loc 1 561 29 discriminator 3
	add	a0,a0,t3
	.loc 1 561 22 discriminator 3
	lbu	a1,0(a1)
	lbu	a0,0(a0)
	sw	a2,28(sp)
	.loc 1 560 13 is_stmt 1 discriminator 3
.LVL322:
	.loc 1 561 13 discriminator 3
.LBB738:
.LBB729:
	.loc 1 177 5 discriminator 3
	.loc 1 179 5 discriminator 3
	.loc 1 181 5 discriminator 3
.LBB727:
.LBB726:
	.loc 1 154 5 discriminator 3
	.loc 1 156 5 discriminator 3
.LBE726:
.LBE727:
	.loc 1 183 5 discriminator 3
.LBE729:
.LBE738:
.LBB739:
.LBB734:
	.loc 1 177 5 discriminator 3
	.loc 1 179 5 discriminator 3
	.loc 1 181 5 discriminator 3
.LBE734:
.LBE739:
	.loc 1 154 5 discriminator 3
	.loc 1 156 5 discriminator 3
.LBB740:
.LBB735:
	.loc 1 183 5 discriminator 3
	.loc 1 183 16 is_stmt 0 discriminator 3
	sw	a6,24(sp)
.LBE735:
.LBE740:
	.loc 1 561 55 discriminator 3
	sw	a7,20(sp)
.LBB741:
.LBB730:
	.loc 1 183 16 discriminator 3
	sw	a3,16(sp)
	sw	t1,12(sp)
.LBE730:
.LBE741:
	.loc 1 561 22 discriminator 3
	call	gf_mul
.LVL323:
	.loc 1 559 43 discriminator 3
	lw	a3,16(sp)
	.loc 1 561 19 discriminator 3
	xor	s8,s8,a0
.LVL324:
	andi	s8,s8,0xff
.LVL325:
	.loc 1 559 43 discriminator 3
	addi	a3,a3,1
	andi	a3,a3,0xff
	lw	a2,28(sp)
	lw	a6,24(sp)
	lw	a7,20(sp)
	lw	t1,12(sp)
.LVL326:
	j	.L101
.LVL327:
.L108:
	.loc 1 578 61 is_stmt 1 discriminator 3
	.loc 1 578 66 is_stmt 0 discriminator 3
	addi	s0,s0,1
.LVL328:
	j	.L106
	.cfi_endproc
.LFE30:
	.size	find_error_locator, .-find_error_locator
	.section	.text.find_errors,"ax",@progbits
	.align	1
	.globl	find_errors
	.type	find_errors, @function
find_errors:
.LFB31:
	.loc 1 591 1 is_stmt 1
	.cfi_startproc
.LVL329:
	.loc 1 592 5
	.loc 1 594 5
	.loc 1 591 1 is_stmt 0
	addi	sp,sp,-32
	.cfi_def_cfa_offset 32
	sw	s0,24(sp)
	sw	s2,16(sp)
	sw	s3,12(sp)
	sw	s4,8(sp)
	sw	s5,4(sp)
	sw	s6,0(sp)
	sw	ra,28(sp)
	sw	s1,20(sp)
	.cfi_offset 8, -8
	.cfi_offset 18, -16
	.cfi_offset 19, -20
	.cfi_offset 20, -24
	.cfi_offset 21, -28
	.cfi_offset 22, -32
	.cfi_offset 1, -4
	.cfi_offset 9, -12
	.loc 1 595 13
	lbu	s1,8(a1)
	.loc 1 591 1
	mv	s2,a0
	mv	s4,a1
	.loc 1 595 13
	addi	s1,s1,-1
	.loc 1 591 1
	mv	s3,a2
	.loc 1 594 15
	addi	s5,a0,156
.LVL330:
	.loc 1 595 5 is_stmt 1
	.loc 1 595 13 is_stmt 0
	andi	s1,s1,0xff
.LVL331:
	.loc 1 597 5 is_stmt 1
	.loc 1 597 17 is_stmt 0
	sb	zero,164(a0)
	.loc 1 599 5 is_stmt 1
.LVL332:
	.loc 1 599 12 is_stmt 0
	li	s0,0
	.loc 1 603 13
	addi	s6,a2,-1
.LVL333:
.L121:
	.loc 1 599 5 discriminator 1
	bltu	s0,s3,.L123
	.loc 1 610 5 is_stmt 1
	.loc 1 610 8 is_stmt 0
	lbu	a0,164(s2)
	.loc 1 616 1
	lw	ra,28(sp)
	.cfi_remember_state
	.cfi_restore 1
	lw	s0,24(sp)
	.cfi_restore 8
.LVL334:
	.loc 1 610 8
	sub	a0,a0,s1
	.loc 1 616 1
	lw	s2,16(sp)
	.cfi_restore 18
.LVL335:
	lw	s1,20(sp)
	.cfi_restore 9
.LVL336:
	lw	s3,12(sp)
	.cfi_restore 19
.LVL337:
	lw	s4,8(sp)
	.cfi_restore 20
.LVL338:
	lw	s5,4(sp)
	.cfi_restore 21
.LVL339:
	lw	s6,0(sp)
	.cfi_restore 22
.LVL340:
	seqz	a0,a0
	addi	sp,sp,32
	.cfi_def_cfa_offset 0
	jr	ra
.LVL341:
.L123:
	.cfi_restore_state
	.loc 1 601 9 is_stmt 1
	.loc 1 601 34 is_stmt 0
	mv	a1,s0
	li	a2,0
	li	a0,2
	call	gf_pow
.LVL342:
	.loc 1 601 13
	slli	a1,a0,16
	srli	a1,a1,16
	mv	a0,s4
	call	poly_eval
.LVL343:
	.loc 1 601 12
	bne	a0,zero,.L122
	.loc 1 603 13 is_stmt 1
	sub	a1,s6,s0
	andi	a1,a1,0xff
	mv	a0,s5
	call	poly_append
.LVL344:
.L122:
	.loc 1 599 35 is_stmt 0 discriminator 2
	addi	s0,s0,1
.LVL345:
	andi	s0,s0,0xff
.LVL346:
	j	.L121
	.cfi_endproc
.LFE31:
	.size	find_errors, .-find_errors
	.section	.text.calc_forney_syndromes,"ax",@progbits
	.align	1
	.globl	calc_forney_syndromes
	.type	calc_forney_syndromes, @function
calc_forney_syndromes:
.LFB32:
	.loc 1 619 1 is_stmt 1
	.cfi_startproc
.LVL347:
	addi	sp,sp,-48
	.cfi_def_cfa_offset 48
	sw	s0,40(sp)
	sw	s1,36(sp)
	sw	s2,32(sp)
	sw	s3,28(sp)
	sw	s4,24(sp)
	sw	s5,20(sp)
	sw	s6,16(sp)
	sw	ra,44(sp)
	sw	s7,12(sp)
	.cfi_offset 8, -8
	.cfi_offset 9, -12
	.cfi_offset 18, -16
	.cfi_offset 19, -20
	.cfi_offset 20, -24
	.cfi_offset 21, -28
	.cfi_offset 22, -32
	.cfi_offset 1, -4
	.cfi_offset 23, -36
	.loc 1 619 1 is_stmt 0
	mv	s0,a0
	mv	s3,a1
	mv	s4,a2
	.loc 1 620 5 is_stmt 1
	.loc 1 621 5
	.loc 1 622 5
	.loc 1 624 5
	.loc 1 624 15 is_stmt 0
	addi	s5,a0,36
.LVL348:
	.loc 1 625 5 is_stmt 1
	.loc 1 625 15 is_stmt 0
	addi	s2,a0,108
.LVL349:
	.loc 1 627 5 is_stmt 1
	.loc 1 627 32 is_stmt 0
	sb	zero,44(a0)
	.loc 1 629 5 is_stmt 1
.LVL350:
	.loc 1 629 12 is_stmt 0
	li	s1,0
	.loc 1 631 9
	addi	s6,a3,-1
.LVL351:
.L126:
	.loc 1 629 5 discriminator 1
	lbu	a5,8(s4)
	bgtu	a5,s1,.L127
	.loc 1 634 5 is_stmt 1
	mv	a0,s2
	call	poly_reset
.LVL352:
	.loc 1 635 5
.LBB772:
.LBB773:
	.loc 1 154 5
	.loc 1 156 5
.LBE773:
.LBE772:
	.loc 1 635 5 is_stmt 0
	lbu	a2,8(s3)
.LBB775:
.LBB774:
	.loc 1 156 31
	lhu	a5,2(s3)
.LBE774:
.LBE775:
	.loc 1 635 5
	lw	a1,4(s3)
	addi	a2,a2,-1
	addi	a5,a5,1
	mv	a0,s2
	li	a3,0
	andi	a2,a2,0xff
	add	a1,a1,a5
	call	poly_set
.LVL353:
	.loc 1 637 5 is_stmt 1
.LBB776:
.LBB777:
	.loc 1 637 12 is_stmt 0
	li	s2,0
.LVL354:
.L128:
	.loc 1 637 5
	lbu	a5,8(s4)
	bgtu	a5,s2,.L131
.LBE777:
.LBE776:
	.loc 1 645 1
	lw	ra,44(sp)
	.cfi_remember_state
	.cfi_restore 1
	lw	s0,40(sp)
	.cfi_restore 8
.LVL355:
	lw	s1,36(sp)
	.cfi_restore 9
	lw	s2,32(sp)
	.cfi_restore 18
.LVL356:
	lw	s3,28(sp)
	.cfi_restore 19
	lw	s4,24(sp)
	.cfi_restore 20
.LVL357:
	lw	s5,20(sp)
	.cfi_restore 21
	lw	s6,16(sp)
	.cfi_restore 22
	lw	s7,12(sp)
	.cfi_restore 23
	addi	sp,sp,48
	.cfi_def_cfa_offset 0
	jr	ra
.LVL358:
.L127:
	.cfi_restore_state
	.loc 1 631 9 is_stmt 1 discriminator 3
.LBB799:
.LBB800:
	.loc 1 177 5 discriminator 3
	.loc 1 179 5 discriminator 3
	.loc 1 181 5 discriminator 3
.LBB801:
.LBB802:
	.loc 1 154 5 discriminator 3
	.loc 1 156 5 discriminator 3
.LBE802:
.LBE801:
	.loc 1 183 5 discriminator 3
.LBE800:
.LBE799:
	.loc 1 631 59 is_stmt 0 discriminator 3
	lw	a5,4(s4)
.LBB806:
.LBB805:
.LBB804:
.LBB803:
	.loc 1 156 31 discriminator 3
	lhu	a4,2(s4)
.LBE803:
.LBE804:
.LBE805:
.LBE806:
	.loc 1 631 9 discriminator 3
	mv	a0,s5
	.loc 1 631 59 discriminator 3
	add	a5,a5,s1
	add	a5,a5,a4
	.loc 1 631 9 discriminator 3
	lbu	a1,0(a5)
	.loc 1 629 44 discriminator 3
	addi	s1,s1,1
.LVL359:
	andi	s1,s1,0xff
	.loc 1 631 9 discriminator 3
	sub	a1,s6,a1
	andi	a1,a1,0xff
	call	poly_append
.LVL360:
	j	.L126
.LVL361:
.L131:
.LBB807:
.LBB796:
	.loc 1 639 9 is_stmt 1
.LBB778:
.LBB779:
	.loc 1 177 5
	.loc 1 179 5
	.loc 1 181 5
.LBB780:
.LBB781:
	.loc 1 154 5
	.loc 1 156 5
.LBE781:
.LBE780:
	.loc 1 183 5
.LBE779:
.LBE778:
	.loc 1 639 23 is_stmt 0
	lw	a5,40(s0)
.LBB785:
.LBB784:
.LBB783:
.LBB782:
	.loc 1 156 31
	lhu	a4,38(s0)
.LBE782:
.LBE783:
.LBE784:
.LBE785:
	.loc 1 639 13
	li	a2,0
	.loc 1 639 23
	add	a5,a5,s2
	add	a5,a5,a4
	.loc 1 639 13
	lbu	a1,0(a5)
	li	a0,2
	.loc 1 640 16
	li	s1,0
	.loc 1 639 13
	call	gf_pow
.LVL362:
	.loc 1 640 9 is_stmt 1
	.loc 1 642 40 is_stmt 0
	slli	s7,a0,16
	srli	s7,s7,16
.LVL363:
.L129:
	.loc 1 640 36
	lbu	a5,116(s0)
	.loc 1 640 45
	addi	a5,a5,-1
	.loc 1 640 9
	blt	s1,a5,.L130
	.loc 1 637 44
	addi	s2,s2,1
.LVL364:
	andi	s2,s2,0xff
.LVL365:
	j	.L128
.L130:
	.loc 1 642 13 is_stmt 1
.LVL366:
.LBB786:
.LBB787:
	.loc 1 177 5
	.loc 1 179 5
	.loc 1 181 5
.LBB788:
.LBB789:
	.loc 1 154 5
	.loc 1 156 5
	.loc 1 156 31 is_stmt 0
	lhu	s6,110(s0)
	.loc 1 156 16
	lw	s3,112(s0)
.LVL367:
.LBE789:
.LBE788:
	.loc 1 183 5 is_stmt 1
.LBE787:
.LBE786:
	.loc 1 642 40 is_stmt 0
	mv	a1,s7
.LBB791:
.LBB790:
	.loc 1 183 16
	add	s5,s1,s6
	add	s5,s3,s5
.LVL368:
.LBE790:
.LBE791:
	.loc 1 642 40
	lbu	a0,0(s5)
	.loc 1 642 79
	addi	s1,s1,1
.LVL369:
	andi	s1,s1,0xff
	.loc 1 642 78
	add	s3,s3,s6
.LVL370:
	.loc 1 642 40
	call	gf_mul
.LVL371:
.LBB792:
.LBB793:
	.loc 1 177 5 is_stmt 1
	.loc 1 179 5
	.loc 1 181 5
.LBE793:
.LBE792:
.LBE796:
.LBE807:
	.loc 1 154 5
	.loc 1 156 5
.LBB808:
.LBB797:
.LBB795:
.LBB794:
	.loc 1 183 5
.LBE794:
.LBE795:
.LBE797:
.LBE808:
	.loc 1 177 5
	.loc 1 179 5
	.loc 1 181 5
	.loc 1 154 5
	.loc 1 156 5
	.loc 1 183 5
.LBB809:
.LBB798:
	.loc 1 642 78 is_stmt 0
	add	s3,s3,s1
.LVL372:
	.loc 1 642 38
	lbu	a5,0(s3)
	xor	a0,a0,a5
	sb	a0,0(s5)
.LVL373:
	j	.L129
.LBE798:
.LBE809:
	.cfi_endproc
.LFE32:
	.size	calc_forney_syndromes, .-calc_forney_syndromes
	.section	.text.reedsolomon_init,"ax",@progbits
	.align	1
	.globl	reedsolomon_init
	.type	reedsolomon_init, @function
reedsolomon_init:
.LFB33:
	.loc 1 648 1 is_stmt 1
	.cfi_startproc
.LVL374:
	.loc 1 649 5
	.loc 1 650 5
	.loc 1 651 5
	.loc 1 652 5
	.loc 1 653 5
	.loc 1 655 5
	.loc 1 657 5
	.loc 1 657 10
	.loc 1 657 12
.LBB810:
.LBB811:
	.file 2 "/home/hogc/build-tools/sdk/bl/bl_iot_sdk/components/bl602/freertos_riscv_ram/portable/GCC/RISC-V/portmacro.h"
	.loc 2 151 5
	.loc 2 151 31 is_stmt 0
	lui	a5,%hi(TrapNetCounter)
.LBE811:
.LBE810:
	.loc 1 657 12
	lw	a5,%lo(TrapNetCounter)(a5)
	.loc 1 648 1
	addi	sp,sp,-16
	.cfi_def_cfa_offset 16
	sw	s0,8(sp)
	sw	ra,12(sp)
	.cfi_offset 8, -8
	.cfi_offset 1, -4
	.loc 1 648 1
	mv	s0,a0
	.loc 1 657 12
	beq	a5,zero,.L134
	.loc 1 657 97 discriminator 1
	call	xTaskGetTickCountFromISR
.LVL375:
.L135:
	.loc 1 657 12 discriminator 4
	mv	a1,a0
	lui	a3,%hi(.LC0)
	lui	a2,%hi(.LC1)
	lui	a0,%hi(.LC2)
	li	a4,657
	addi	a2,a2,%lo(.LC1)
	addi	a0,a0,%lo(.LC2)
	addi	a3,a3,%lo(.LC0)
	call	bl_printk
.LVL376:
	.loc 1 657 194 is_stmt 1 discriminator 4
	.loc 1 659 5 discriminator 4
.LBB812:
.LBB813:
	.loc 1 145 14 is_stmt 0 discriminator 4
	li	a4,65536
	addi	a4,a4,-512
	sw	a4,0(s0)
.LBE813:
.LBE812:
.LBB816:
.LBB817:
	li	a4,16711680
	addi	a4,a4,-511
	sw	a4,12(s0)
.LBE817:
.LBE816:
.LBB819:
.LBB820:
	li	a4,-1022
	sh	a4,24(s0)
	.loc 1 147 18 discriminator 4
	li	a4,508
	sh	a4,26(s0)
	.loc 1 145 14 discriminator 4
	li	a4,-1021
	sh	a4,36(s0)
	.loc 1 147 18 discriminator 4
	li	a4,760
	sh	a4,38(s0)
	.loc 1 145 14 discriminator 4
	li	a4,-1020
	sh	a4,48(s0)
	.loc 1 147 18 discriminator 4
	li	a4,1012
	sh	a4,50(s0)
.LBE820:
.LBE819:
.LBB824:
.LBB825:
	.loc 1 145 14 discriminator 4
	li	a4,82903040
.LBE825:
.LBE824:
	.loc 1 659 63 discriminator 4
	addi	a5,s0,204
.LVL377:
.LBB829:
.LBB814:
	.loc 1 143 5 is_stmt 1 discriminator 4
	.loc 1 145 5 discriminator 4
	.loc 1 146 5 discriminator 4
	.loc 1 147 5 discriminator 4
	.loc 1 148 5 discriminator 4
.LBE814:
.LBE829:
.LBB830:
.LBB826:
	.loc 1 145 14 is_stmt 0 discriminator 4
	addi	a4,a4,-507
	sw	a4,60(s0)
.LBE826:
.LBE830:
.LBB831:
.LBB815:
	.loc 1 148 18 discriminator 4
	sw	a5,4(s0)
	.loc 1 149 5 is_stmt 1 discriminator 4
	.loc 1 149 17 is_stmt 0 discriminator 4
	sb	zero,8(s0)
.LVL378:
.LBE815:
.LBE831:
	.loc 1 660 5 is_stmt 1 discriminator 4
	.loc 1 662 5 discriminator 4
.LBB832:
.LBB818:
	.loc 1 143 5 discriminator 4
	.loc 1 145 5 discriminator 4
	.loc 1 146 5 discriminator 4
	.loc 1 147 5 discriminator 4
	.loc 1 148 5 discriminator 4
	.loc 1 148 18 is_stmt 0 discriminator 4
	sw	a5,16(s0)
	.loc 1 149 5 is_stmt 1 discriminator 4
	.loc 1 149 17 is_stmt 0 discriminator 4
	sb	zero,20(s0)
.LVL379:
.LBE818:
.LBE832:
	.loc 1 663 5 is_stmt 1 discriminator 4
	.loc 1 665 5 discriminator 4
	.loc 1 667 9 discriminator 4
.LBB833:
.LBB821:
	.loc 1 143 5 discriminator 4
	.loc 1 145 5 discriminator 4
	.loc 1 146 5 discriminator 4
	.loc 1 147 5 discriminator 4
	.loc 1 148 5 discriminator 4
	.loc 1 148 18 is_stmt 0 discriminator 4
	sw	a5,28(s0)
	.loc 1 149 5 is_stmt 1 discriminator 4
	.loc 1 149 17 is_stmt 0 discriminator 4
	sb	zero,32(s0)
.LVL380:
.LBE821:
.LBE833:
	.loc 1 668 9 is_stmt 1 discriminator 4
	.loc 1 667 9 discriminator 4
.LBB834:
.LBB822:
	.loc 1 143 5 discriminator 4
	.loc 1 145 5 discriminator 4
	.loc 1 146 5 discriminator 4
	.loc 1 147 5 discriminator 4
	.loc 1 148 5 discriminator 4
	.loc 1 148 18 is_stmt 0 discriminator 4
	sw	a5,40(s0)
	.loc 1 149 5 is_stmt 1 discriminator 4
	.loc 1 149 17 is_stmt 0 discriminator 4
	sb	zero,44(s0)
.LVL381:
.LBE822:
.LBE834:
	.loc 1 668 9 is_stmt 1 discriminator 4
	.loc 1 667 9 discriminator 4
.LBB835:
.LBB823:
	.loc 1 143 5 discriminator 4
	.loc 1 145 5 discriminator 4
	.loc 1 146 5 discriminator 4
	.loc 1 147 5 discriminator 4
	.loc 1 148 5 discriminator 4
	.loc 1 148 18 is_stmt 0 discriminator 4
	sw	a5,52(s0)
	.loc 1 149 5 is_stmt 1 discriminator 4
	.loc 1 149 17 is_stmt 0 discriminator 4
	sb	zero,56(s0)
.LVL382:
.LBE823:
.LBE835:
	.loc 1 668 9 is_stmt 1 discriminator 4
	.loc 1 671 5 discriminator 4
.LBB836:
.LBB827:
	.loc 1 143 5 discriminator 4
	.loc 1 145 5 discriminator 4
	.loc 1 146 5 discriminator 4
	.loc 1 147 5 discriminator 4
	.loc 1 148 5 discriminator 4
	.loc 1 148 18 is_stmt 0 discriminator 4
	sw	a5,64(s0)
	.loc 1 149 5 is_stmt 1 discriminator 4
	.loc 1 149 17 is_stmt 0 discriminator 4
	sb	zero,68(s0)
.LVL383:
.LBE827:
.LBE836:
	.loc 1 672 5 is_stmt 1 discriminator 4
	.loc 1 674 5 discriminator 4
.LBB837:
.LBB828:
	.loc 1 149 17 is_stmt 0 discriminator 4
	li	a4,6
	addi	s0,s0,72
.LVL384:
.LBE828:
.LBE837:
.LBB838:
.LBB839:
	.loc 1 146 16 discriminator 4
	li	a0,-4
	.loc 1 147 18 discriminator 4
	li	a1,252
.LBE839:
.LBE838:
	.loc 1 674 5 discriminator 4
	li	a2,17
.LVL385:
.L136:
	.loc 1 676 9 is_stmt 1 discriminator 3
.LBB841:
.LBB840:
	.loc 1 143 5 discriminator 3
	.loc 1 145 5 discriminator 3
	.loc 1 147 18 is_stmt 0 discriminator 3
	mul	a3,a4,a1
	.loc 1 145 14 discriminator 3
	sb	a4,0(s0)
	.loc 1 146 5 is_stmt 1 discriminator 3
	.loc 1 146 16 is_stmt 0 discriminator 3
	sb	a0,1(s0)
	.loc 1 147 5 is_stmt 1 discriminator 3
	.loc 1 148 18 is_stmt 0 discriminator 3
	sw	a5,4(s0)
	.loc 1 149 17 discriminator 3
	sb	zero,8(s0)
	addi	a4,a4,1
.LVL386:
	addi	s0,s0,12
.LVL387:
	.loc 1 147 18 discriminator 3
	addi	a3,a3,6
	sh	a3,-10(s0)
	.loc 1 148 5 is_stmt 1 discriminator 3
	.loc 1 149 5 discriminator 3
.LVL388:
.LBE840:
.LBE841:
	.loc 1 677 9 discriminator 3
	.loc 1 674 5 is_stmt 0 discriminator 3
	bne	a4,a2,.L136
	.loc 1 679 1
	lw	ra,12(sp)
	.cfi_remember_state
	.cfi_restore 1
	lw	s0,8(sp)
	.cfi_restore 8
	addi	sp,sp,16
	.cfi_def_cfa_offset 0
	jr	ra
.LVL389:
.L134:
	.cfi_restore_state
	.loc 1 657 126 discriminator 2
	call	xTaskGetTickCount
.LVL390:
	j	.L135
	.cfi_endproc
.LFE33:
	.size	reedsolomon_init, .-reedsolomon_init
	.section	.text.encode_block,"ax",@progbits
	.align	1
	.globl	encode_block
	.type	encode_block, @function
encode_block:
.LFB34:
	.loc 1 682 1 is_stmt 1
	.cfi_startproc
.LVL391:
	.loc 1 685 5
	.loc 1 686 5
	.loc 1 687 5
	.loc 1 689 5
	.loc 1 682 1 is_stmt 0
	addi	sp,sp,-48
	.cfi_def_cfa_offset 48
	sw	ra,44(sp)
	sw	s0,40(sp)
	sw	s1,36(sp)
	.cfi_offset 1, -4
	.cfi_offset 8, -8
	.cfi_offset 9, -12
	mv	s0,a0
	sw	s2,32(sp)
	sw	s3,28(sp)
	sw	s4,24(sp)
	sw	s5,20(sp)
	.cfi_offset 18, -16
	.cfi_offset 19, -20
	.cfi_offset 20, -24
	.cfi_offset 21, -28
	mv	s3,a2
	mv	s5,a1
.LVL392:
	.loc 1 690 5 is_stmt 1
	.loc 1 692 5
	.loc 1 693 5
	.loc 1 693 15 is_stmt 0
	addi	s4,a0,12
.LVL393:
	.loc 1 694 5 is_stmt 1
	.loc 1 696 5
	.loc 1 698 5
	.loc 1 682 1 is_stmt 0
	sw	s6,16(sp)
	sw	s7,12(sp)
	sw	s8,8(sp)
	.cfi_offset 22, -32
	.cfi_offset 23, -36
	.cfi_offset 24, -40
	.loc 1 698 5
	call	poly_reset
.LVL394:
	.loc 1 699 5 is_stmt 1
	li	s1,4096
	mv	a0,s4
	addi	s2,s1,20
	call	poly_reset
.LVL395:
	.loc 1 701 5
	.loc 1 701 16 is_stmt 0
	add	s1,s0,s1
	.loc 1 701 8
	lbu	a5,147(s1)
	add	s2,s0,s2
	beq	a5,zero,.L140
	.loc 1 702 9 is_stmt 1
	li	a3,0
	li	a2,127
	mv	a1,s2
	addi	a0,s0,24
.LVL396:
	call	poly_set
.LVL397:
.L141:
	.loc 1 710 5
	li	a3,0
	li	a2,128
	mv	a1,s5
	mv	a0,s0
	call	poly_set
.LVL398:
	.loc 1 711 5
	li	a3,0
	li	a2,128
	mv	a1,s5
	mv	a0,s4
	call	poly_set
.LVL399:
	.loc 1 712 5
	.loc 1 712 38 is_stmt 0
	lbu	a5,8(s0)
	.loc 1 712 21
	li	s1,0
	.loc 1 716 5
	li	s6,128
	.loc 1 712 38
	addi	a5,a5,126
	.loc 1 712 21
	sb	a5,20(s0)
	.loc 1 716 5 is_stmt 1
.LVL400:
.L143:
	.loc 1 717 14 is_stmt 0
	lw	a5,16(s0)
.LBB842:
.LBB843:
.LBB844:
.LBB845:
	.loc 1 156 31
	lhu	a4,14(s0)
	andi	s8,s1,0xff
.LVL401:
.LBE845:
.LBE844:
.LBE843:
.LBE842:
	.loc 1 717 9 is_stmt 1
.LBB849:
.LBB848:
	.loc 1 177 5
	.loc 1 179 5
	.loc 1 181 5
.LBB847:
.LBB846:
	.loc 1 154 5
	.loc 1 156 5
.LBE846:
.LBE847:
	.loc 1 183 5
.LBE848:
.LBE849:
	.loc 1 717 14 is_stmt 0
	add	a5,a5,s1
.LVL402:
	add	a5,a5,a4
	lbu	a1,0(a5)
.LVL403:
	.loc 1 718 9 is_stmt 1
	.loc 1 718 12 is_stmt 0
	bne	a1,zero,.L147
.LVL404:
.L146:
	addi	s1,s1,1
.LVL405:
	.loc 1 716 5
	bne	s1,s6,.L143
	.loc 1 726 5 is_stmt 1
.LVL406:
.LBB850:
.LBB851:
	.loc 1 154 5
	.loc 1 156 5
	.loc 1 156 31 is_stmt 0
	lhu	a5,14(s0)
.LBE851:
.LBE850:
	.loc 1 726 38
	lw	a1,16(s0)
	.loc 1 728 1
	lw	s0,40(sp)
	.cfi_remember_state
	.cfi_restore 8
.LVL407:
	lw	ra,44(sp)
	.cfi_restore 1
	lw	s1,36(sp)
	.cfi_restore 9
	lw	s2,32(sp)
	.cfi_restore 18
	lw	s4,24(sp)
	.cfi_restore 20
	lw	s5,20(sp)
	.cfi_restore 21
	lw	s6,16(sp)
	.cfi_restore 22
	lw	s7,12(sp)
	.cfi_restore 23
	lw	s8,8(sp)
	.cfi_restore 24
.LVL408:
	.loc 1 726 5
	mv	a0,s3
	.loc 1 728 1
	lw	s3,28(sp)
	.cfi_restore 19
.LVL409:
	.loc 1 726 38
	addi	a5,a5,128
	.loc 1 728 1
	.loc 1 726 5
	li	a2,126
	add	a1,a1,a5
	.loc 1 728 1
	addi	sp,sp,48
	.cfi_def_cfa_offset 0
	.loc 1 726 5
	tail	memcpy
.LVL410:
.L140:
	.cfi_restore_state
	.loc 1 704 9 is_stmt 1
	mv	a0,s0
	call	generator_poly
.LVL411:
	.loc 1 705 9
.LBB852:
.LBB853:
	.loc 1 154 5
	.loc 1 156 5
	.loc 1 156 31 is_stmt 0
	lhu	a5,26(s0)
	.loc 1 156 26
	lw	a1,28(s0)
.LBE853:
.LBE852:
	.loc 1 705 9
	lbu	a2,32(s0)
	mv	a0,s2
	add	a1,a1,a5
	call	memcpy
.LVL412:
	.loc 1 706 9 is_stmt 1
	.loc 1 706 42 is_stmt 0
	li	a5,1
	sb	a5,147(s1)
	j	.L141
.LVL413:
.L145:
	.loc 1 720 17 is_stmt 1 discriminator 3
.LBB854:
.LBB855:
	.loc 1 177 5 discriminator 3
	.loc 1 179 5 discriminator 3
	.loc 1 181 5 discriminator 3
.LBB856:
.LBB857:
	.loc 1 154 5 discriminator 3
	.loc 1 156 5 discriminator 3
.LBE857:
.LBE856:
	.loc 1 183 5 discriminator 3
.LBE855:
.LBE854:
	.loc 1 720 50 is_stmt 0 discriminator 3
	lw	a4,28(s0)
.LBB861:
.LBB860:
.LBB859:
.LBB858:
	.loc 1 156 31 discriminator 3
	lhu	a5,26(s0)
.LBE858:
.LBE859:
.LBE860:
.LBE861:
	.loc 1 720 43 discriminator 3
	mv	a1,s5
	.loc 1 720 50 discriminator 3
	add	a4,a4,s2
	add	a4,a4,a5
	.loc 1 720 43 discriminator 3
	lbu	a0,0(a4)
	call	gf_mul
.LVL414:
.LBB862:
.LBB863:
	.loc 1 177 5 is_stmt 1 discriminator 3
	.loc 1 179 5 discriminator 3
	.loc 1 181 5 discriminator 3
.LBE863:
.LBE862:
	.loc 1 154 5 discriminator 3
	.loc 1 156 5 discriminator 3
.LBB865:
.LBB864:
	.loc 1 183 5 discriminator 3
	.loc 1 183 16 is_stmt 0 discriminator 3
	add	a5,s8,s2
	andi	a5,a5,0xff
	add	a5,a5,s7
	add	a5,s4,a5
.LVL415:
.LBE864:
.LBE865:
	.loc 1 720 40 discriminator 3
	lbu	a4,0(a5)
	.loc 1 719 43 discriminator 3
	addi	s2,s2,1
.LVL416:
	.loc 1 720 40 discriminator 3
	xor	a0,a0,a4
	sb	a0,0(a5)
.LVL417:
.L142:
	.loc 1 719 32 discriminator 1
	lbu	a4,32(s0)
	lw	s4,16(s0)
	lhu	s7,14(s0)
	.loc 1 719 13 discriminator 1
	bgtu	a4,s2,.L145
	j	.L146
.LVL418:
.L147:
	.loc 1 720 43
	slli	s5,a1,16
	.loc 1 719 20
	li	s2,1
	.loc 1 720 43
	srli	s5,s5,16
	j	.L142
	.cfi_endproc
.LFE34:
	.size	encode_block, .-encode_block
	.section	.text.reedsolomon_encode,"ax",@progbits
	.align	1
	.globl	reedsolomon_encode
	.type	reedsolomon_encode, @function
reedsolomon_encode:
.LFB35:
	.loc 1 731 1 is_stmt 1
	.cfi_startproc
.LVL419:
	.loc 1 732 5
	.loc 1 731 1 is_stmt 0
	addi	sp,sp,-16
	.cfi_def_cfa_offset 16
	sw	s0,8(sp)
	.cfi_offset 8, -8
	mv	s0,a2
	sw	s1,4(sp)
	.loc 1 736 5
	li	a2,128
.LVL420:
	.cfi_offset 9, -12
	.loc 1 731 1
	mv	s1,a0
.LVL421:
	.loc 1 733 5 is_stmt 1
	.loc 1 736 5
	mv	a0,s0
.LVL422:
	.loc 1 731 1 is_stmt 0
	sw	s2,0(sp)
	sw	ra,12(sp)
	.cfi_offset 18, -16
	.cfi_offset 1, -4
	.loc 1 731 1
	mv	s2,a1
	.loc 1 736 5
	call	memcpy
.LVL423:
	.loc 1 739 5 is_stmt 1
	addi	a2,s0,128
	.loc 1 740 1 is_stmt 0
	lw	s0,8(sp)
	.cfi_restore 8
.LVL424:
	lw	ra,12(sp)
	.cfi_restore 1
	.loc 1 739 5
	mv	a1,s2
	mv	a0,s1
	.loc 1 740 1
	lw	s2,0(sp)
	.cfi_restore 18
.LVL425:
	lw	s1,4(sp)
	.cfi_restore 9
.LVL426:
	addi	sp,sp,16
	.cfi_def_cfa_offset 0
	.loc 1 739 5
	tail	encode_block
.LVL427:
	.cfi_endproc
.LFE35:
	.size	reedsolomon_encode, .-reedsolomon_encode
	.section	.text.decode_block,"ax",@progbits
	.align	1
	.globl	decode_block
	.type	decode_block, @function
decode_block:
.LFB36:
	.loc 1 743 1 is_stmt 1
	.cfi_startproc
.LVL428:
	addi	sp,sp,-48
	.cfi_def_cfa_offset 48
	sw	s1,36(sp)
	sw	s3,28(sp)
	.cfi_offset 9, -12
	.cfi_offset 19, -20
	mv	s1,a2
	mv	s3,a3
	.loc 1 769 5 is_stmt 0
	li	a2,128
.LVL429:
	li	a3,0
.LVL430:
	.loc 1 743 1
	sw	a4,12(sp)
	sw	a5,8(sp)
	sw	ra,44(sp)
	sw	s0,40(sp)
	sw	s2,32(sp)
	.cfi_offset 1, -4
	.cfi_offset 8, -8
	.cfi_offset 18, -16
	mv	s0,a0
	.loc 1 744 5 is_stmt 1
	.loc 1 745 5
	.loc 1 746 5
	.loc 1 748 5
.LVL431:
	.loc 1 749 5
	.loc 1 750 5
	.loc 1 752 5
	.loc 1 753 5
	.loc 1 755 5
	.loc 1 757 5
	.loc 1 758 5
	.loc 1 759 5
	.loc 1 759 15 is_stmt 0
	addi	s2,a0,144
.LVL432:
	.loc 1 760 5 is_stmt 1
	.loc 1 761 5
	.loc 1 762 5
	.loc 1 763 5
	.loc 1 764 5
	.loc 1 766 5
	.loc 1 769 5
	.loc 1 743 1 is_stmt 0
	sw	s4,24(sp)
	.cfi_offset 20, -24
	.loc 1 769 5
	call	poly_set
.LVL433:
	.loc 1 770 5 is_stmt 1
	li	a3,128
	li	a2,126
	mv	a1,s1
	mv	a0,s0
	call	poly_set
.LVL434:
	.loc 1 771 5
	mv	a1,s0
	addi	a0,s0,12
.LVL435:
	call	poly_copy
.LVL436:
	.loc 1 774 5
	.loc 1 774 8 is_stmt 0
	lw	a4,12(sp)
	lw	a5,8(sp)
	bne	a4,zero,.L154
	.loc 1 775 9 is_stmt 1
	.loc 1 775 22 is_stmt 0
	sb	zero,152(s0)
	.loc 1 784 5 is_stmt 1
.L155:
	.loc 1 788 5
	mv	a1,s0
	mv	a0,s0
	call	calc_syndromes
.LVL437:
	.loc 1 791 5
	.loc 1 792 5
	.loc 1 792 25 is_stmt 0
	lbu	a3,104(s0)
	.loc 1 792 5
	li	a4,0
.LVL438:
.L159:
	.loc 1 792 5 discriminator 1
	andi	a5,a4,0xff
	bgtu	a3,a5,.L161
.LVL439:
.L162:
	.loc 1 838 5 is_stmt 1
	.loc 1 838 21 is_stmt 0
	li	a5,-128
	sb	a5,20(s0)
	.loc 1 839 5 is_stmt 1
.LVL440:
.LBB866:
.LBB867:
	.loc 1 154 5
	.loc 1 156 5
	.loc 1 156 26 is_stmt 0
	lw	a1,16(s0)
	.loc 1 156 31
	lhu	a5,14(s0)
.LBE867:
.LBE866:
	.loc 1 839 5
	li	a2,128
	mv	a0,s3
	add	a1,a1,a5
	call	memcpy
.LVL441:
	.loc 1 840 5 is_stmt 1
	.loc 1 840 12 is_stmt 0
	li	a0,0
	j	.L174
.LVL442:
.L154:
	.loc 1 777 9 is_stmt 1
	andi	a2,a5,0xff
	li	a3,0
	mv	a1,a4
	mv	a0,s2
	call	poly_set
.LVL443:
	.loc 1 778 9
	.loc 1 778 16 is_stmt 0
	li	a5,0
.LVL444:
.L156:
	.loc 1 778 29 discriminator 1
	lbu	a4,152(s0)
	.loc 1 778 9 discriminator 1
	bgtu	a4,a5,.L157
	.loc 1 784 5 is_stmt 1
	.loc 1 784 8 is_stmt 0
	li	a5,126
.LVL445:
	bleu	a4,a5,.L155
.LVL446:
.L164:
	.loc 1 784 36
	li	a0,1
.L174:
	.loc 1 841 1
	lw	ra,44(sp)
	.cfi_remember_state
	.cfi_restore 1
	lw	s0,40(sp)
	.cfi_restore 8
.LVL447:
	lw	s1,36(sp)
	.cfi_restore 9
	lw	s2,32(sp)
	.cfi_restore 18
.LVL448:
	lw	s3,28(sp)
	.cfi_restore 19
.LVL449:
	lw	s4,24(sp)
	.cfi_restore 20
	addi	sp,sp,48
	.cfi_def_cfa_offset 0
.LVL450:
	jr	ra
.LVL451:
.L157:
	.cfi_restore_state
	.loc 1 779 13 is_stmt 1
.LBB868:
.LBB869:
	.loc 1 177 5
	.loc 1 179 5
	.loc 1 181 5
.LBB870:
.LBB871:
	.loc 1 154 5
	.loc 1 156 5
.LBE871:
.LBE870:
	.loc 1 183 5
.LBE869:
.LBE868:
.LBB875:
.LBB876:
	.loc 1 177 5
	.loc 1 179 5
	.loc 1 181 5
.LBB877:
.LBB878:
	.loc 1 154 5
	.loc 1 156 5
.LBE878:
.LBE877:
	.loc 1 183 5
.LBE876:
.LBE875:
	.loc 1 779 14 is_stmt 0
	lw	a4,148(s0)
.LBB883:
.LBB874:
.LBB873:
.LBB872:
	.loc 1 156 31
	lhu	a3,146(s0)
.LBE872:
.LBE873:
.LBE874:
.LBE883:
	.loc 1 779 14
	add	a4,a4,a5
	add	a4,a4,a3
.LBB884:
.LBB881:
	.loc 1 183 16
	lbu	a2,0(a4)
.LBE881:
.LBE884:
	.loc 1 779 49
	lw	a4,4(s0)
.LBB885:
.LBB882:
.LBB880:
.LBB879:
	.loc 1 156 31
	lhu	a3,2(s0)
.LBE879:
.LBE880:
.LBE882:
.LBE885:
	.loc 1 778 40
	addi	a5,a5,1
.LVL452:
	.loc 1 779 49
	add	a4,a4,a2
	add	a4,a4,a3
	sb	zero,0(a4)
.LVL453:
	.loc 1 778 40
	andi	a5,a5,0xff
.LVL454:
	j	.L156
.LVL455:
.L161:
	.loc 1 793 9 is_stmt 1
.LBB886:
.LBB887:
	.loc 1 177 5
	.loc 1 179 5
	.loc 1 181 5
.LBB888:
.LBB889:
	.loc 1 154 5
	.loc 1 156 5
.LBE889:
.LBE888:
	.loc 1 183 5
.LBE887:
.LBE886:
	.loc 1 793 13 is_stmt 0
	lw	a5,100(s0)
.LBB893:
.LBB892:
.LBB891:
.LBB890:
	.loc 1 156 31
	lhu	a2,98(s0)
.LBE890:
.LBE891:
.LBE892:
.LBE893:
	.loc 1 793 13
	add	a5,a5,a4
	add	a5,a5,a2
	lbu	a5,0(a5)
	addi	a4,a4,1
.LVL456:
	.loc 1 793 12
	beq	a5,zero,.L159
	.loc 1 760 15
	addi	s4,s0,96
.LVL457:
	.loc 1 800 5 is_stmt 1
	.loc 1 804 5
	li	a3,254
	mv	a2,s2
	mv	a1,s4
	mv	a0,s0
	call	calc_forney_syndromes
.LVL458:
	.loc 1 805 5
	lbu	a3,152(s0)
	li	a2,0
	addi	a1,s0,108
	mv	a0,s0
	call	find_error_locator
.LVL459:
	.loc 1 811 5
	.loc 1 811 25 is_stmt 0
	lbu	a5,140(s0)
	.loc 1 813 5
	li	a4,0
	.loc 1 811 19
	sb	a5,44(s0)
	.loc 1 813 5 is_stmt 1
	.loc 1 813 28 is_stmt 0
	addi	a5,a5,-1
	andi	a5,a5,0xff
	.loc 1 813 14
	slli	a2,a5,24
	srai	a2,a2,24
.LVL460:
	.loc 1 813 5
	j	.L167
.LVL461:
.L163:
	.loc 1 814 9 is_stmt 1 discriminator 3
.LBB894:
.LBB895:
	.loc 1 177 5 discriminator 3
	.loc 1 179 5 discriminator 3
	.loc 1 181 5 discriminator 3
.LBB896:
.LBB897:
	.loc 1 154 5 discriminator 3
	.loc 1 156 5 discriminator 3
.LBE897:
.LBE896:
	.loc 1 183 5 discriminator 3
.LBE895:
.LBE894:
.LBB902:
.LBB903:
	.loc 1 177 5 discriminator 3
	.loc 1 179 5 discriminator 3
	.loc 1 181 5 discriminator 3
.LBB904:
.LBB905:
	.loc 1 154 5 discriminator 3
	.loc 1 156 5 discriminator 3
.LBE905:
.LBE904:
	.loc 1 183 5 discriminator 3
.LBE903:
.LBE902:
.LBB909:
.LBB900:
.LBB899:
.LBB898:
	.loc 1 156 31 is_stmt 0 discriminator 3
	lhu	a0,134(s0)
.LBE898:
.LBE899:
.LBE900:
.LBE909:
	.loc 1 814 30 discriminator 3
	lw	a3,136(s0)
.LBB910:
.LBB901:
	.loc 1 183 16 discriminator 3
	sub	a1,a2,a4
.LBE901:
.LBE910:
	.loc 1 814 30 discriminator 3
	add	a3,a3,a0
.LVL462:
	add	a3,a3,a1
.LVL463:
	lbu	a1,0(a3)
	.loc 1 814 28 discriminator 3
	lw	a3,40(s0)
.LBB911:
.LBB908:
.LBB907:
.LBB906:
	.loc 1 156 31 discriminator 3
	lhu	a0,38(s0)
.LBE906:
.LBE907:
.LBE908:
.LBE911:
	.loc 1 814 28 discriminator 3
	add	a3,a3,a4
	add	a3,a3,a0
	sb	a1,0(a3)
.LVL464:
	addi	a4,a4,1
.LVL465:
.L167:
	.loc 1 813 5 discriminator 1
	sub	a3,a5,a4
	slli	a3,a3,24
	srai	a3,a3,24
	bge	a3,zero,.L163
	.loc 1 818 5 is_stmt 1
	.loc 1 818 10 is_stmt 0
	li	a2,254
	addi	a1,s0,36
	mv	a0,s0
	call	find_errors
.LVL466:
	.loc 1 819 5 is_stmt 1
	.loc 1 819 8 is_stmt 0
	beq	a0,zero,.L164
	.loc 1 824 5 is_stmt 1
	.loc 1 824 8 is_stmt 0
	lbu	a5,164(s0)
.LBB912:
	.loc 1 829 18
	li	s1,0
.LVL467:
.LBE912:
	.loc 1 824 8
	beq	a5,zero,.L164
.LVL468:
.L165:
.LBB921:
	.loc 1 829 5 discriminator 1
	lbu	a5,164(s0)
	bgtu	a5,s1,.L166
.LBE921:
	.loc 1 834 5 is_stmt 1
	mv	a3,s0
	mv	a2,s2
	mv	a1,s4
	mv	a0,s0
	call	correct_errata
.LVL469:
	j	.L162
.L166:
.LBB922:
	.loc 1 830 9
.LVL470:
.LBB913:
.LBB914:
	.loc 1 177 5
	.loc 1 179 5
	.loc 1 181 5
.LBB915:
.LBB916:
	.loc 1 154 5
	.loc 1 156 5
.LBE916:
.LBE915:
	.loc 1 183 5
.LBE914:
.LBE913:
	.loc 1 830 9 is_stmt 0
	lw	a5,160(s0)
.LBB920:
.LBB919:
.LBB918:
.LBB917:
	.loc 1 156 31
	lhu	a4,158(s0)
.LBE917:
.LBE918:
.LBE919:
.LBE920:
	.loc 1 830 9
	mv	a0,s2
	add	a5,a5,s1
	add	a5,a5,a4
	lbu	a1,0(a5)
	.loc 1 829 43
	addi	s1,s1,1
.LVL471:
	andi	s1,s1,0xff
	.loc 1 830 9
	call	poly_append
.LVL472:
	j	.L165
.LBE922:
	.cfi_endproc
.LFE36:
	.size	decode_block, .-decode_block
	.section	.text.reedsolomon_decode,"ax",@progbits
	.align	1
	.globl	reedsolomon_decode
	.type	reedsolomon_decode, @function
reedsolomon_decode:
.LFB37:
	.loc 1 849 1 is_stmt 1
	.cfi_startproc
.LVL473:
	.loc 1 850 5
	.loc 1 851 5
	.loc 1 852 5
	.loc 1 854 5
	.loc 1 854 12 is_stmt 0
	mv	a3,a2
	li	a5,0
	li	a4,0
	addi	a2,a1,128
.LVL474:
	tail	decode_block
.LVL475:
	.cfi_endproc
.LFE37:
	.size	reedsolomon_decode, .-reedsolomon_decode
	.section	.text.reedsolomon_getmemsize,"ax",@progbits
	.align	1
	.globl	reedsolomon_getmemsize
	.type	reedsolomon_getmemsize, @function
reedsolomon_getmemsize:
.LFB38:
	.loc 1 860 1 is_stmt 1
	.cfi_startproc
	.loc 1 865 5
	.loc 1 868 5
	.loc 1 868 10
	.loc 1 868 12
.LBB923:
.LBB924:
	.loc 2 151 5
	.loc 2 151 31 is_stmt 0
	lui	a5,%hi(TrapNetCounter)
.LBE924:
.LBE923:
	.loc 1 868 12
	lw	a5,%lo(TrapNetCounter)(a5)
	.loc 1 860 1
	addi	sp,sp,-16
	.cfi_def_cfa_offset 16
	sw	ra,12(sp)
	sw	s0,8(sp)
	.cfi_offset 1, -4
	.cfi_offset 8, -8
	.loc 1 868 12
	beq	a5,zero,.L178
	.loc 1 868 127 discriminator 1
	call	xTaskGetTickCountFromISR
.LVL476:
.L179:
	.loc 1 868 12 discriminator 4
	li	s0,4096
	mv	a1,a0
	lui	a3,%hi(.LC0)
	lui	a2,%hi(.LC1)
	lui	a0,%hi(.LC3)
	addi	a6,s0,148
	addi	a5,s0,384
	addi	a0,a0,%lo(.LC3)
	li	a4,868
	addi	a3,a3,%lo(.LC0)
	addi	a2,a2,%lo(.LC1)
	call	bl_printk
.LVL477:
	.loc 1 868 262 is_stmt 1 discriminator 4
	.loc 1 869 5 discriminator 4
	.loc 1 870 1 is_stmt 0 discriminator 4
	addi	a0,s0,148
	lw	ra,12(sp)
	.cfi_remember_state
	.cfi_restore 1
	lw	s0,8(sp)
	.cfi_restore 8
	addi	sp,sp,16
	.cfi_def_cfa_offset 0
	jr	ra
.L178:
	.cfi_restore_state
	.loc 1 868 156 discriminator 2
	call	xTaskGetTickCount
.LVL478:
	j	.L179
	.cfi_endproc
.LFE38:
	.size	reedsolomon_getmemsize, .-reedsolomon_getmemsize
	.globl	code_log
	.globl	code_exp
	.section	.rodata.code_exp,"a"
	.align	2
	.set	.LANCHOR0,. + 0
	.type	code_exp, @object
	.size	code_exp, 512
code_exp:
	.byte	1
	.byte	2
	.byte	4
	.byte	8
	.byte	16
	.byte	32
	.byte	64
	.byte	-128
	.byte	29
	.byte	58
	.byte	116
	.byte	-24
	.byte	-51
	.byte	-121
	.byte	19
	.byte	38
	.byte	76
	.byte	-104
	.byte	45
	.byte	90
	.byte	-76
	.byte	117
	.byte	-22
	.byte	-55
	.byte	-113
	.byte	3
	.byte	6
	.byte	12
	.byte	24
	.byte	48
	.byte	96
	.byte	-64
	.byte	-99
	.byte	39
	.byte	78
	.byte	-100
	.byte	37
	.byte	74
	.byte	-108
	.byte	53
	.byte	106
	.byte	-44
	.byte	-75
	.byte	119
	.byte	-18
	.byte	-63
	.byte	-97
	.byte	35
	.byte	70
	.byte	-116
	.byte	5
	.byte	10
	.byte	20
	.byte	40
	.byte	80
	.byte	-96
	.byte	93
	.byte	-70
	.byte	105
	.byte	-46
	.byte	-71
	.byte	111
	.byte	-34
	.byte	-95
	.byte	95
	.byte	-66
	.byte	97
	.byte	-62
	.byte	-103
	.byte	47
	.byte	94
	.byte	-68
	.byte	101
	.byte	-54
	.byte	-119
	.byte	15
	.byte	30
	.byte	60
	.byte	120
	.byte	-16
	.byte	-3
	.byte	-25
	.byte	-45
	.byte	-69
	.byte	107
	.byte	-42
	.byte	-79
	.byte	127
	.byte	-2
	.byte	-31
	.byte	-33
	.byte	-93
	.byte	91
	.byte	-74
	.byte	113
	.byte	-30
	.byte	-39
	.byte	-81
	.byte	67
	.byte	-122
	.byte	17
	.byte	34
	.byte	68
	.byte	-120
	.byte	13
	.byte	26
	.byte	52
	.byte	104
	.byte	-48
	.byte	-67
	.byte	103
	.byte	-50
	.byte	-127
	.byte	31
	.byte	62
	.byte	124
	.byte	-8
	.byte	-19
	.byte	-57
	.byte	-109
	.byte	59
	.byte	118
	.byte	-20
	.byte	-59
	.byte	-105
	.byte	51
	.byte	102
	.byte	-52
	.byte	-123
	.byte	23
	.byte	46
	.byte	92
	.byte	-72
	.byte	109
	.byte	-38
	.byte	-87
	.byte	79
	.byte	-98
	.byte	33
	.byte	66
	.byte	-124
	.byte	21
	.byte	42
	.byte	84
	.byte	-88
	.byte	77
	.byte	-102
	.byte	41
	.byte	82
	.byte	-92
	.byte	85
	.byte	-86
	.byte	73
	.byte	-110
	.byte	57
	.byte	114
	.byte	-28
	.byte	-43
	.byte	-73
	.byte	115
	.byte	-26
	.byte	-47
	.byte	-65
	.byte	99
	.byte	-58
	.byte	-111
	.byte	63
	.byte	126
	.byte	-4
	.byte	-27
	.byte	-41
	.byte	-77
	.byte	123
	.byte	-10
	.byte	-15
	.byte	-1
	.byte	-29
	.byte	-37
	.byte	-85
	.byte	75
	.byte	-106
	.byte	49
	.byte	98
	.byte	-60
	.byte	-107
	.byte	55
	.byte	110
	.byte	-36
	.byte	-91
	.byte	87
	.byte	-82
	.byte	65
	.byte	-126
	.byte	25
	.byte	50
	.byte	100
	.byte	-56
	.byte	-115
	.byte	7
	.byte	14
	.byte	28
	.byte	56
	.byte	112
	.byte	-32
	.byte	-35
	.byte	-89
	.byte	83
	.byte	-90
	.byte	81
	.byte	-94
	.byte	89
	.byte	-78
	.byte	121
	.byte	-14
	.byte	-7
	.byte	-17
	.byte	-61
	.byte	-101
	.byte	43
	.byte	86
	.byte	-84
	.byte	69
	.byte	-118
	.byte	9
	.byte	18
	.byte	36
	.byte	72
	.byte	-112
	.byte	61
	.byte	122
	.byte	-12
	.byte	-11
	.byte	-9
	.byte	-13
	.byte	-5
	.byte	-21
	.byte	-53
	.byte	-117
	.byte	11
	.byte	22
	.byte	44
	.byte	88
	.byte	-80
	.byte	125
	.byte	-6
	.byte	-23
	.byte	-49
	.byte	-125
	.byte	27
	.byte	54
	.byte	108
	.byte	-40
	.byte	-83
	.byte	71
	.byte	-114
	.byte	1
	.byte	2
	.byte	4
	.byte	8
	.byte	16
	.byte	32
	.byte	64
	.byte	-128
	.byte	29
	.byte	58
	.byte	116
	.byte	-24
	.byte	-51
	.byte	-121
	.byte	19
	.byte	38
	.byte	76
	.byte	-104
	.byte	45
	.byte	90
	.byte	-76
	.byte	117
	.byte	-22
	.byte	-55
	.byte	-113
	.byte	3
	.byte	6
	.byte	12
	.byte	24
	.byte	48
	.byte	96
	.byte	-64
	.byte	-99
	.byte	39
	.byte	78
	.byte	-100
	.byte	37
	.byte	74
	.byte	-108
	.byte	53
	.byte	106
	.byte	-44
	.byte	-75
	.byte	119
	.byte	-18
	.byte	-63
	.byte	-97
	.byte	35
	.byte	70
	.byte	-116
	.byte	5
	.byte	10
	.byte	20
	.byte	40
	.byte	80
	.byte	-96
	.byte	93
	.byte	-70
	.byte	105
	.byte	-46
	.byte	-71
	.byte	111
	.byte	-34
	.byte	-95
	.byte	95
	.byte	-66
	.byte	97
	.byte	-62
	.byte	-103
	.byte	47
	.byte	94
	.byte	-68
	.byte	101
	.byte	-54
	.byte	-119
	.byte	15
	.byte	30
	.byte	60
	.byte	120
	.byte	-16
	.byte	-3
	.byte	-25
	.byte	-45
	.byte	-69
	.byte	107
	.byte	-42
	.byte	-79
	.byte	127
	.byte	-2
	.byte	-31
	.byte	-33
	.byte	-93
	.byte	91
	.byte	-74
	.byte	113
	.byte	-30
	.byte	-39
	.byte	-81
	.byte	67
	.byte	-122
	.byte	17
	.byte	34
	.byte	68
	.byte	-120
	.byte	13
	.byte	26
	.byte	52
	.byte	104
	.byte	-48
	.byte	-67
	.byte	103
	.byte	-50
	.byte	-127
	.byte	31
	.byte	62
	.byte	124
	.byte	-8
	.byte	-19
	.byte	-57
	.byte	-109
	.byte	59
	.byte	118
	.byte	-20
	.byte	-59
	.byte	-105
	.byte	51
	.byte	102
	.byte	-52
	.byte	-123
	.byte	23
	.byte	46
	.byte	92
	.byte	-72
	.byte	109
	.byte	-38
	.byte	-87
	.byte	79
	.byte	-98
	.byte	33
	.byte	66
	.byte	-124
	.byte	21
	.byte	42
	.byte	84
	.byte	-88
	.byte	77
	.byte	-102
	.byte	41
	.byte	82
	.byte	-92
	.byte	85
	.byte	-86
	.byte	73
	.byte	-110
	.byte	57
	.byte	114
	.byte	-28
	.byte	-43
	.byte	-73
	.byte	115
	.byte	-26
	.byte	-47
	.byte	-65
	.byte	99
	.byte	-58
	.byte	-111
	.byte	63
	.byte	126
	.byte	-4
	.byte	-27
	.byte	-41
	.byte	-77
	.byte	123
	.byte	-10
	.byte	-15
	.byte	-1
	.byte	-29
	.byte	-37
	.byte	-85
	.byte	75
	.byte	-106
	.byte	49
	.byte	98
	.byte	-60
	.byte	-107
	.byte	55
	.byte	110
	.byte	-36
	.byte	-91
	.byte	87
	.byte	-82
	.byte	65
	.byte	-126
	.byte	25
	.byte	50
	.byte	100
	.byte	-56
	.byte	-115
	.byte	7
	.byte	14
	.byte	28
	.byte	56
	.byte	112
	.byte	-32
	.byte	-35
	.byte	-89
	.byte	83
	.byte	-90
	.byte	81
	.byte	-94
	.byte	89
	.byte	-78
	.byte	121
	.byte	-14
	.byte	-7
	.byte	-17
	.byte	-61
	.byte	-101
	.byte	43
	.byte	86
	.byte	-84
	.byte	69
	.byte	-118
	.byte	9
	.byte	18
	.byte	36
	.byte	72
	.byte	-112
	.byte	61
	.byte	122
	.byte	-12
	.byte	-11
	.byte	-9
	.byte	-13
	.byte	-5
	.byte	-21
	.byte	-53
	.byte	-117
	.byte	11
	.byte	22
	.byte	44
	.byte	88
	.byte	-80
	.byte	125
	.byte	-6
	.byte	-23
	.byte	-49
	.byte	-125
	.byte	27
	.byte	54
	.byte	108
	.byte	-40
	.byte	-83
	.byte	71
	.byte	-114
	.byte	1
	.byte	2
	.section	.rodata.code_log,"a"
	.align	2
	.set	.LANCHOR1,. + 0
	.type	code_log, @object
	.size	code_log, 256
code_log:
	.byte	0
	.byte	0
	.byte	1
	.byte	25
	.byte	2
	.byte	50
	.byte	26
	.byte	-58
	.byte	3
	.byte	-33
	.byte	51
	.byte	-18
	.byte	27
	.byte	104
	.byte	-57
	.byte	75
	.byte	4
	.byte	100
	.byte	-32
	.byte	14
	.byte	52
	.byte	-115
	.byte	-17
	.byte	-127
	.byte	28
	.byte	-63
	.byte	105
	.byte	-8
	.byte	-56
	.byte	8
	.byte	76
	.byte	113
	.byte	5
	.byte	-118
	.byte	101
	.byte	47
	.byte	-31
	.byte	36
	.byte	15
	.byte	33
	.byte	53
	.byte	-109
	.byte	-114
	.byte	-38
	.byte	-16
	.byte	18
	.byte	-126
	.byte	69
	.byte	29
	.byte	-75
	.byte	-62
	.byte	125
	.byte	106
	.byte	39
	.byte	-7
	.byte	-71
	.byte	-55
	.byte	-102
	.byte	9
	.byte	120
	.byte	77
	.byte	-28
	.byte	114
	.byte	-90
	.byte	6
	.byte	-65
	.byte	-117
	.byte	98
	.byte	102
	.byte	-35
	.byte	48
	.byte	-3
	.byte	-30
	.byte	-104
	.byte	37
	.byte	-77
	.byte	16
	.byte	-111
	.byte	34
	.byte	-120
	.byte	54
	.byte	-48
	.byte	-108
	.byte	-50
	.byte	-113
	.byte	-106
	.byte	-37
	.byte	-67
	.byte	-15
	.byte	-46
	.byte	19
	.byte	92
	.byte	-125
	.byte	56
	.byte	70
	.byte	64
	.byte	30
	.byte	66
	.byte	-74
	.byte	-93
	.byte	-61
	.byte	72
	.byte	126
	.byte	110
	.byte	107
	.byte	58
	.byte	40
	.byte	84
	.byte	-6
	.byte	-123
	.byte	-70
	.byte	61
	.byte	-54
	.byte	94
	.byte	-101
	.byte	-97
	.byte	10
	.byte	21
	.byte	121
	.byte	43
	.byte	78
	.byte	-44
	.byte	-27
	.byte	-84
	.byte	115
	.byte	-13
	.byte	-89
	.byte	87
	.byte	7
	.byte	112
	.byte	-64
	.byte	-9
	.byte	-116
	.byte	-128
	.byte	99
	.byte	13
	.byte	103
	.byte	74
	.byte	-34
	.byte	-19
	.byte	49
	.byte	-59
	.byte	-2
	.byte	24
	.byte	-29
	.byte	-91
	.byte	-103
	.byte	119
	.byte	38
	.byte	-72
	.byte	-76
	.byte	124
	.byte	17
	.byte	68
	.byte	-110
	.byte	-39
	.byte	35
	.byte	32
	.byte	-119
	.byte	46
	.byte	55
	.byte	63
	.byte	-47
	.byte	91
	.byte	-107
	.byte	-68
	.byte	-49
	.byte	-51
	.byte	-112
	.byte	-121
	.byte	-105
	.byte	-78
	.byte	-36
	.byte	-4
	.byte	-66
	.byte	97
	.byte	-14
	.byte	86
	.byte	-45
	.byte	-85
	.byte	20
	.byte	42
	.byte	93
	.byte	-98
	.byte	-124
	.byte	60
	.byte	57
	.byte	83
	.byte	71
	.byte	109
	.byte	65
	.byte	-94
	.byte	31
	.byte	45
	.byte	67
	.byte	-40
	.byte	-73
	.byte	123
	.byte	-92
	.byte	118
	.byte	-60
	.byte	23
	.byte	73
	.byte	-20
	.byte	127
	.byte	12
	.byte	111
	.byte	-10
	.byte	108
	.byte	-95
	.byte	59
	.byte	82
	.byte	41
	.byte	-99
	.byte	85
	.byte	-86
	.byte	-5
	.byte	96
	.byte	-122
	.byte	-79
	.byte	-69
	.byte	-52
	.byte	62
	.byte	90
	.byte	-53
	.byte	89
	.byte	95
	.byte	-80
	.byte	-100
	.byte	-87
	.byte	-96
	.byte	81
	.byte	11
	.byte	-11
	.byte	22
	.byte	-21
	.byte	122
	.byte	117
	.byte	44
	.byte	-41
	.byte	79
	.byte	-82
	.byte	-43
	.byte	-23
	.byte	-26
	.byte	-25
	.byte	-83
	.byte	-24
	.byte	116
	.byte	-42
	.byte	-12
	.byte	-22
	.byte	-88
	.byte	80
	.byte	88
	.byte	-81
	.section	.rodata.reedsolomon_getmemsize.str1.4,"aMS",@progbits,1
	.align	2
.LC3:
	.string	"[%10u][%s: %s:%4d] sizeof(fec_t) = %d   sizeof(fec_context_t) = %d\r\n"
	.section	.rodata.reedsolomon_init.str1.4,"aMS",@progbits,1
	.align	2
.LC0:
	.string	"utils_fec.c"
.LC1:
	.string	"\033[32mINFO  \033[0m"
.LC2:
	.string	"[%10u][%s: %s:%4d] reedsolomon_init.\r\n"
	.text
.Letext0:
	.file 3 "/home/hogc/build-tools/sdk/bl/bl_iot_sdk/toolchain/riscv/Linux/lib/gcc/riscv64-unknown-elf/8.3.0/include/stdint-gcc.h"
	.file 4 "/home/hogc/build-tools/sdk/bl/bl_iot_sdk/toolchain/riscv/Linux/lib/gcc/riscv64-unknown-elf/8.3.0/include/stddef.h"
	.file 5 "/home/hogc/build-tools/sdk/bl/bl_iot_sdk/toolchain/riscv/Linux/riscv64-unknown-elf/include/sys/_types.h"
	.file 6 "/home/hogc/build-tools/sdk/bl/bl_iot_sdk/toolchain/riscv/Linux/riscv64-unknown-elf/include/sys/reent.h"
	.file 7 "/home/hogc/build-tools/sdk/bl/bl_iot_sdk/toolchain/riscv/Linux/riscv64-unknown-elf/include/sys/lock.h"
	.file 8 "/home/hogc/build-tools/sdk/bl/bl_iot_sdk/components/bl602/freertos_riscv_ram/config/task.h"
	.file 9 "/home/hogc/build-tools/sdk/bl/bl_iot_sdk/components/utils/include/utils_log.h"
	.file 10 "/home/hogc/build-tools/sdk/bl/bl_iot_sdk/toolchain/riscv/Linux/riscv64-unknown-elf/include/string.h"