	.file	"blog_testc2_full.c"
	.option nopic
	.attribute arch, "rv32i2p0_m2p0_f2p0_c2p0"
	.attribute unaligned_access, 0
	.attribute stack_align, 16
	.text
.Ltext0:
	.cfi_sections	.debug_frame
	.section	.text.test_buf,"ax",@progbits
	.align	1
	.globl	test_buf
	.type	test_buf, @function
test_buf:
.LFB5:
	.file 1 "/home/hogc/build-tools/sdk/bl/bl_iot_sdk/components/stage/blog_testc/blog_testc2_full.c"
	.loc 1 39 1
	.cfi_startproc
	.loc 1 40 5
	.loc 1 41 5
	.loc 1 43 5
.LVL0:
	.loc 1 39 1 is_stmt 0
	addi	sp,sp,-16
	.cfi_def_cfa_offset 16
	sw	s0,8(sp)
	.cfi_offset 8, -8
	.loc 1 44 16
	lui	s0,%hi(.LANCHOR0)
	.loc 1 39 1
	sw	ra,12(sp)
	sw	s1,4(sp)
	sw	s2,0(sp)
	.cfi_offset 1, -4
	.cfi_offset 9, -12
	.cfi_offset 18, -16
	.loc 1 43 11
	li	a5,0
	.loc 1 44 16
	addi	a2,s0,%lo(.LANCHOR0)
	.loc 1 43 5
	li	a4,256
.LVL1:
.L2:
	.loc 1 44 9 is_stmt 1 discriminator 3
	.loc 1 44 16 is_stmt 0 discriminator 3
	add	a3,a2,a5
	sb	a5,0(a3)
	.loc 1 43 34 discriminator 3
	addi	a5,a5,1
.LVL2:
	.loc 1 43 5 discriminator 3
	bne	a5,a4,.L2
	.loc 1 47 5 is_stmt 1 discriminator 1
	.loc 1 47 43 discriminator 1
	.loc 1 47 48 discriminator 1
	.loc 1 47 71 is_stmt 0 discriminator 1
	lui	s1,%hi(_fsymc_level_blog_testc)
	.loc 1 47 51 discriminator 1
	lbu	a4,%lo(_fsymc_level_blog_testc)(s1)
	li	a5,1
.LVL3:
	bgtu	a4,a5,.L3
	.loc 1 47 120 discriminator 3
	lui	a4,%hi(_fsymf_level_blog_testcblog_testc2_full)
	.loc 1 47 99 discriminator 3
	lbu	a4,%lo(_fsymf_level_blog_testcblog_testc2_full)(a4)
	bleu	a4,a5,.L4
.L9:
	.loc 1 48 118
	lui	a5,%hi(_fsymf_level_blog_testcblog_testc2_full)
	.loc 1 48 98
	lbu	a4,%lo(_fsymf_level_blog_testcblog_testc2_full)(a5)
	li	a5,2
	bleu	a4,a5,.L5
.L6:
	.loc 1 49 118
	lui	a5,%hi(_fsymf_level_blog_testcblog_testc2_full)
	.loc 1 49 98
	lbu	a4,%lo(_fsymf_level_blog_testcblog_testc2_full)(a5)
	li	a5,3
	bleu	a4,a5,.L11
.L12:
	.loc 1 50 120
	lui	a5,%hi(_fsymf_level_blog_testcblog_testc2_full)
	.loc 1 50 99
	lbu	a4,%lo(_fsymf_level_blog_testcblog_testc2_full)(a5)
	li	a5,4
	bleu	a4,a5,.L16
.L17:
	.loc 1 51 122
	lui	a5,%hi(_fsymf_level_blog_testcblog_testc2_full)
	.loc 1 51 100
	lbu	a4,%lo(_fsymf_level_blog_testcblog_testc2_full)(a5)
	li	a5,5
	bleu	a4,a5,.L21
.L1:
	.loc 1 52 1
	lw	ra,12(sp)
	.cfi_remember_state
	.cfi_restore 1
	lw	s0,8(sp)
	.cfi_restore 8
	lw	s1,4(sp)
	.cfi_restore 9
	lw	s2,0(sp)
	.cfi_restore 18
	addi	sp,sp,16
	.cfi_def_cfa_offset 0
	jr	ra
.L4:
	.cfi_restore_state
	.loc 1 47 168 is_stmt 1
.LBB48:
.LBB49:
	.file 2 "/home/hogc/build-tools/sdk/bl/bl_iot_sdk/components/bl602/freertos_riscv_ram/portable/GCC/RISC-V/portmacro.h"
	.loc 2 151 5
	.loc 2 151 31 is_stmt 0
	lui	a5,%hi(TrapNetCounter)
.LBE49:
.LBE48:
	.loc 1 47 168
	lw	a5,%lo(TrapNetCounter)(a5)
	beq	a5,zero,.L7
	.loc 1 47 236 discriminator 7
	call	xTaskGetTickCountFromISR
.LVL4:
.L8:
	.loc 1 47 168 discriminator 10
	mv	a1,a0
	lui	s2,%hi(.LC0)
	lui	a3,%hi(.LC1)
	lui	a2,%hi(.LC2)
	lui	a0,%hi(.LC3)
	addi	a3,a3,%lo(.LC1)
	addi	a2,a2,%lo(.LC2)
	addi	a0,a0,%lo(.LC3)
	addi	a5,s2,%lo(.LC0)
	li	a4,47
	call	bl_printk
.LVL5:
	.loc 1 47 338 is_stmt 1 discriminator 10
	li	a3,256
	addi	a2,s0,%lo(.LANCHOR0)
	li	a1,16
	addi	a0,s2,%lo(.LC0)
	call	blog_hexdump_out
.LVL6:
.L3:
	.loc 1 47 408 discriminator 1
	.loc 1 48 5 discriminator 1
	.loc 1 48 43 discriminator 1
	.loc 1 48 48 discriminator 1
	.loc 1 48 51 is_stmt 0 discriminator 1
	lbu	a4,%lo(_fsymc_level_blog_testc)(s1)
	li	a5,2
	bleu	a4,a5,.L9
.L10:
	.loc 1 48 421 is_stmt 1 discriminator 1
	.loc 1 49 5 discriminator 1
	.loc 1 49 43 discriminator 1
	.loc 1 49 48 discriminator 1
	.loc 1 49 51 is_stmt 0 discriminator 1
	lbu	a4,%lo(_fsymc_level_blog_testc)(s1)
	li	a5,3
	bleu	a4,a5,.L6
.L15:
	.loc 1 49 421 is_stmt 1 discriminator 1
	.loc 1 50 5 discriminator 1
	.loc 1 50 43 discriminator 1
	.loc 1 50 48 discriminator 1
	.loc 1 50 51 is_stmt 0 discriminator 1
	lbu	a4,%lo(_fsymc_level_blog_testc)(s1)
	li	a5,4
	bleu	a4,a5,.L12
.L20:
	.loc 1 50 423 is_stmt 1 discriminator 1
	.loc 1 51 5 discriminator 1
	.loc 1 51 43 discriminator 1
	.loc 1 51 48 discriminator 1
	.loc 1 51 51 is_stmt 0 discriminator 1
	lbu	a4,%lo(_fsymc_level_blog_testc)(s1)
	li	a5,5
	bgtu	a4,a5,.L1
	j	.L17
.L7:
	.loc 1 47 265 discriminator 8
	call	xTaskGetTickCount
.LVL7:
	j	.L8
.L5:
	.loc 1 48 166 is_stmt 1
.LBB50:
.LBB51:
	.loc 2 151 5
	.loc 2 151 31 is_stmt 0
	lui	a5,%hi(TrapNetCounter)
.LBE51:
.LBE50:
	.loc 1 48 166
	lw	a5,%lo(TrapNetCounter)(a5)
	beq	a5,zero,.L13
	.loc 1 48 234 discriminator 7
	call	xTaskGetTickCountFromISR
.LVL8:
.L14:
	.loc 1 48 166 discriminator 10
	lui	s2,%hi(.LC0)
	mv	a1,a0
	lui	a3,%hi(.LC1)
	lui	a2,%hi(.LC4)
	lui	a0,%hi(.LC3)
	addi	a5,s2,%lo(.LC0)
	li	a4,48
	addi	a3,a3,%lo(.LC1)
	addi	a2,a2,%lo(.LC4)
	addi	a0,a0,%lo(.LC3)
	call	bl_printk
.LVL9:
	.loc 1 48 351 is_stmt 1 discriminator 10
	li	a3,256
	addi	a2,s0,%lo(.LANCHOR0)
	li	a1,16
	addi	a0,s2,%lo(.LC0)
	call	blog_hexdump_out
.LVL10:
	j	.L10
.L13:
	.loc 1 48 263 is_stmt 0 discriminator 8
	call	xTaskGetTickCount
.LVL11:
	j	.L14
.L11:
	.loc 1 49 166 is_stmt 1
.LBB52:
.LBB53:
	.loc 2 151 5
	.loc 2 151 31 is_stmt 0
	lui	a5,%hi(TrapNetCounter)
.LBE53:
.LBE52:
	.loc 1 49 166
	lw	a5,%lo(TrapNetCounter)(a5)
	beq	a5,zero,.L18
	.loc 1 49 234 discriminator 7
	call	xTaskGetTickCountFromISR
.LVL12:
.L19:
	.loc 1 49 166 discriminator 10
	lui	s2,%hi(.LC0)
	mv	a1,a0
	lui	a3,%hi(.LC1)
	lui	a2,%hi(.LC5)
	lui	a0,%hi(.LC3)
	addi	a5,s2,%lo(.LC0)
	li	a4,49
	addi	a3,a3,%lo(.LC1)
	addi	a2,a2,%lo(.LC5)
	addi	a0,a0,%lo(.LC3)
	call	bl_printk
.LVL13:
	.loc 1 49 351 is_stmt 1 discriminator 10
	li	a3,256
	addi	a2,s0,%lo(.LANCHOR0)
	li	a1,16
	addi	a0,s2,%lo(.LC0)
	call	blog_hexdump_out
.LVL14:
	j	.L15
.L18:
	.loc 1 49 263 is_stmt 0 discriminator 8
	call	xTaskGetTickCount
.LVL15:
	j	.L19
.L16:
	.loc 1 50 168 is_stmt 1
.LBB54:
.LBB55:
	.loc 2 151 5
	.loc 2 151 31 is_stmt 0
	lui	a5,%hi(TrapNetCounter)
.LBE55:
.LBE54:
	.loc 1 50 168
	lw	a5,%lo(TrapNetCounter)(a5)
	beq	a5,zero,.L23
	.loc 1 50 236 discriminator 7
	call	xTaskGetTickCountFromISR
.LVL16:
.L24:
	.loc 1 50 168 discriminator 10
	lui	s2,%hi(.LC0)
	mv	a1,a0
	lui	a3,%hi(.LC1)
	lui	a2,%hi(.LC6)
	lui	a0,%hi(.LC3)
	addi	a5,s2,%lo(.LC0)
	li	a4,50
	addi	a3,a3,%lo(.LC1)
	addi	a2,a2,%lo(.LC6)
	addi	a0,a0,%lo(.LC3)
	call	bl_printk
.LVL17:
	.loc 1 50 353 is_stmt 1 discriminator 10
	li	a3,256
	addi	a2,s0,%lo(.LANCHOR0)
	li	a1,16
	addi	a0,s2,%lo(.LC0)
	call	blog_hexdump_out
.LVL18:
	j	.L20
.L23:
	.loc 1 50 265 is_stmt 0 discriminator 8
	call	xTaskGetTickCount
.LVL19:
	j	.L24
.L21:
	.loc 1 51 170 is_stmt 1
.LBB56:
.LBB57:
	.loc 2 151 5
	.loc 2 151 31 is_stmt 0
	lui	a5,%hi(TrapNetCounter)
.LBE57:
.LBE56:
	.loc 1 51 170
	lw	a5,%lo(TrapNetCounter)(a5)
	beq	a5,zero,.L26
	.loc 1 51 238 discriminator 7
	call	xTaskGetTickCountFromISR
.LVL20:
.L27:
	.loc 1 51 170 discriminator 10
	lui	s1,%hi(.LC0)
	mv	a1,a0
	lui	a3,%hi(.LC1)
	lui	a2,%hi(.LC7)
	lui	a0,%hi(.LC3)
	addi	a5,s1,%lo(.LC0)
	addi	a3,a3,%lo(.LC1)
	addi	a2,a2,%lo(.LC7)
	addi	a0,a0,%lo(.LC3)
	li	a4,51
	call	bl_printk
.LVL21:
	.loc 1 51 355 is_stmt 1 discriminator 10
	addi	a2,s0,%lo(.LANCHOR0)
	.loc 1 52 1 is_stmt 0 discriminator 10
	lw	s0,8(sp)
	.cfi_remember_state
	.cfi_restore 8
	lw	ra,12(sp)
	.cfi_restore 1
	lw	s2,0(sp)
	.cfi_restore 18
	.loc 1 51 355 discriminator 10
	addi	a0,s1,%lo(.LC0)
	.loc 1 52 1 discriminator 10
	lw	s1,4(sp)
	.cfi_restore 9
	.loc 1 51 355 discriminator 10
	li	a3,256
	.loc 1 52 1 discriminator 10
	.loc 1 51 355 discriminator 10
	li	a1,16
	.loc 1 52 1 discriminator 10
	addi	sp,sp,16
	.cfi_def_cfa_offset 0
	.loc 1 51 355 discriminator 10
	tail	blog_hexdump_out
.LVL22:
.L26:
	.cfi_restore_state
	.loc 1 51 267 discriminator 8
	call	xTaskGetTickCount
.LVL23:
	j	.L27
	.cfi_endproc
.LFE5:
	.size	test_buf, .-test_buf
	.section	.text.blog_testc2_entry,"ax",@progbits
	.align	1
	.globl	blog_testc2_entry
	.type	blog_testc2_entry, @function
blog_testc2_entry:
.LFB6:
	.loc 1 54 1 is_stmt 1
	.cfi_startproc
.LVL24:
	.loc 1 55 5
	li	a0,4096
.LVL25:
	.loc 1 54 1 is_stmt 0
	addi	sp,sp,-48
	.cfi_def_cfa_offset 48
	.loc 1 55 5
	addi	a0,a0,904
	.loc 1 54 1
	sw	s0,40(sp)
	sw	ra,44(sp)
	sw	s1,36(sp)
	sw	s2,32(sp)
	sw	s3,28(sp)
	sw	s4,24(sp)
	sw	s5,20(sp)
	sw	s6,16(sp)
	sw	s7,12(sp)
	sw	s8,8(sp)
	.cfi_offset 8, -8
	.cfi_offset 1, -4
	.cfi_offset 9, -12
	.cfi_offset 18, -16
	.cfi_offset 19, -20
	.cfi_offset 20, -24
	.cfi_offset 21, -28
	.cfi_offset 22, -32
	.cfi_offset 23, -36
	.cfi_offset 24, -40
	.loc 1 57 71
	lui	s0,%hi(_fsymc_level_blog_testc)
	.loc 1 55 5
	call	aos_msleep
.LVL26:
	.loc 1 57 5 is_stmt 1
	.loc 1 57 43
	.loc 1 57 48
	.loc 1 57 51 is_stmt 0
	lbu	a4,%lo(_fsymc_level_blog_testc)(s0)
	li	a5,1
	bgtu	a4,a5,.L31
	.loc 1 57 120 discriminator 3
	lui	a4,%hi(_fsymf_level_blog_testcblog_testc2_full)
	.loc 1 57 99 discriminator 3
	lbu	a4,%lo(_fsymf_level_blog_testcblog_testc2_full)(a4)
	bleu	a4,a5,.L32
.L37:
	.loc 1 58 118
	lui	a5,%hi(_fsymf_level_blog_testcblog_testc2_full)
	.loc 1 58 98
	lbu	a4,%lo(_fsymf_level_blog_testcblog_testc2_full)(a5)
	li	a5,2
	bleu	a4,a5,.L33
.L34:
	.loc 1 59 118
	lui	a5,%hi(_fsymf_level_blog_testcblog_testc2_full)
	.loc 1 59 98
	lbu	a4,%lo(_fsymf_level_blog_testcblog_testc2_full)(a5)
	li	a5,3
	bleu	a4,a5,.L39
.L40:
	.loc 1 60 120
	lui	a5,%hi(_fsymf_level_blog_testcblog_testc2_full)
	.loc 1 60 99
	lbu	a4,%lo(_fsymf_level_blog_testcblog_testc2_full)(a5)
	li	a5,4
	bleu	a4,a5,.L44
.L48:
	.loc 1 60 372 is_stmt 1 discriminator 1
	.loc 1 62 5 discriminator 1
	.loc 1 62 43 discriminator 1
	.loc 1 62 48 discriminator 1
	.loc 1 62 51 is_stmt 0 discriminator 1
	lbu	a4,%lo(_fsymc_level_blog_testc)(s0)
	li	a5,1
	bgtu	a4,a5,.L51
	.loc 1 62 120 discriminator 3
	lui	a4,%hi(_fsymf_level_blog_testcblog_testc2_full)
	.loc 1 62 99 discriminator 3
	lbu	a4,%lo(_fsymf_level_blog_testcblog_testc2_full)(a4)
	bleu	a4,a5,.L52
.L57:
	.loc 1 63 118
	lui	a5,%hi(_fsymf_level_blog_testcblog_testc2_full)
	.loc 1 63 98
	lbu	a4,%lo(_fsymf_level_blog_testcblog_testc2_full)(a5)
	li	a5,2
	bgtu	a4,a5,.L54
.L53:
	.loc 1 63 182 discriminator 5
	lui	a5,%hi(_fsymp_level_blog_testc2)
	.loc 1 63 162 discriminator 5
	lbu	a4,%lo(_fsymp_level_blog_testc2)(a5)
	li	a5,2
	bgtu	a4,a5,.L59
	.loc 1 63 215 is_stmt 1
.LBB58:
.LBB59:
	.loc 2 151 5
	.loc 2 151 31 is_stmt 0
	lui	a5,%hi(TrapNetCounter)
.LBE59:
.LBE58:
	.loc 1 63 215
	lw	a5,%lo(TrapNetCounter)(a5)
	beq	a5,zero,.L61
	.loc 1 63 304 discriminator 9
	call	xTaskGetTickCountFromISR
.LVL27:
.L62:
	.loc 1 63 215 discriminator 12
	mv	a1,a0
	lui	a3,%hi(.LC1)
	lui	a2,%hi(.LC4)
	lui	a0,%hi(.LC13)
	li	a4,63
	addi	a3,a3,%lo(.LC1)
	addi	a2,a2,%lo(.LC4)
	addi	a0,a0,%lo(.LC13)
	call	bl_printk
.LVL28:
	j	.L58
.L32:
	.loc 1 57 168 is_stmt 1
.LBB60:
.LBB61:
	.loc 2 151 5
	.loc 2 151 31 is_stmt 0
	lui	a5,%hi(TrapNetCounter)
.LBE61:
.LBE60:
	.loc 1 57 168
	lw	a5,%lo(TrapNetCounter)(a5)
	beq	a5,zero,.L35
	.loc 1 57 253 discriminator 7
	call	xTaskGetTickCountFromISR
.LVL29:
.L36:
	.loc 1 57 168 discriminator 10
	lui	a3,%hi(.LC1)
	lui	a2,%hi(.LC2)
	mv	a1,a0
	lui	a0,%hi(.LC8)
	li	a4,57
	addi	a3,a3,%lo(.LC1)
	addi	a2,a2,%lo(.LC2)
	addi	a0,a0,%lo(.LC8)
	call	bl_printk
.LVL30:
.L31:
	.loc 1 57 357 is_stmt 1 discriminator 1
	.loc 1 58 5 discriminator 1
	.loc 1 58 43 discriminator 1
	.loc 1 58 48 discriminator 1
	.loc 1 58 51 is_stmt 0 discriminator 1
	lbu	a4,%lo(_fsymc_level_blog_testc)(s0)
	li	a5,2
	bleu	a4,a5,.L37
.L38:
	.loc 1 58 369 is_stmt 1 discriminator 1
	.loc 1 59 5 discriminator 1
	.loc 1 59 43 discriminator 1
	.loc 1 59 48 discriminator 1
	.loc 1 59 51 is_stmt 0 discriminator 1
	lbu	a4,%lo(_fsymc_level_blog_testc)(s0)
	li	a5,3
	bleu	a4,a5,.L34
.L43:
	.loc 1 59 369 is_stmt 1 discriminator 1
	.loc 1 60 5 discriminator 1
	.loc 1 60 43 discriminator 1
	.loc 1 60 48 discriminator 1
	.loc 1 60 51 is_stmt 0 discriminator 1
	lbu	a4,%lo(_fsymc_level_blog_testc)(s0)
	li	a5,4
	bgtu	a4,a5,.L48
	j	.L40
.L35:
	.loc 1 57 282 discriminator 8
	call	xTaskGetTickCount
.LVL31:
	j	.L36
.L33:
	.loc 1 58 166 is_stmt 1
.LBB62:
.LBB63:
	.loc 2 151 5
	.loc 2 151 31 is_stmt 0
	lui	a5,%hi(TrapNetCounter)
.LBE63:
.LBE62:
	.loc 1 58 166
	lw	a5,%lo(TrapNetCounter)(a5)
	beq	a5,zero,.L41
	.loc 1 58 250 discriminator 7
	call	xTaskGetTickCountFromISR
.LVL32:
.L42:
	.loc 1 58 166 discriminator 10
	mv	a1,a0
	lui	a3,%hi(.LC1)
	lui	a2,%hi(.LC4)
	lui	a0,%hi(.LC9)
	li	a4,58
	addi	a3,a3,%lo(.LC1)
	addi	a2,a2,%lo(.LC4)
	addi	a0,a0,%lo(.LC9)
	call	bl_printk
.LVL33:
	j	.L38
.L41:
	.loc 1 58 279 discriminator 8
	call	xTaskGetTickCount
.LVL34:
	j	.L42
.L39:
	.loc 1 59 166 is_stmt 1
.LBB64:
.LBB65:
	.loc 2 151 5
	.loc 2 151 31 is_stmt 0
	lui	a5,%hi(TrapNetCounter)
.LBE65:
.LBE64:
	.loc 1 59 166
	lw	a5,%lo(TrapNetCounter)(a5)
	beq	a5,zero,.L46
	.loc 1 59 250 discriminator 7
	call	xTaskGetTickCountFromISR
.LVL35:
.L47:
	.loc 1 59 166 discriminator 10
	mv	a1,a0
	lui	a3,%hi(.LC1)
	lui	a2,%hi(.LC5)
	lui	a0,%hi(.LC10)
	li	a4,59
	addi	a3,a3,%lo(.LC1)
	addi	a2,a2,%lo(.LC5)
	addi	a0,a0,%lo(.LC10)
	call	bl_printk
.LVL36:
	j	.L43
.L46:
	.loc 1 59 279 discriminator 8
	call	xTaskGetTickCount
.LVL37:
	j	.L47
.L44:
	.loc 1 60 168 is_stmt 1
.LBB66:
.LBB67:
	.loc 2 151 5
	.loc 2 151 31 is_stmt 0
	lui	a5,%hi(TrapNetCounter)
.LBE67:
.LBE66:
	.loc 1 60 168
	lw	a5,%lo(TrapNetCounter)(a5)
	beq	a5,zero,.L49
	.loc 1 60 253 discriminator 7
	call	xTaskGetTickCountFromISR
.LVL38:
.L50:
	.loc 1 60 168 discriminator 10
	mv	a1,a0
	lui	a3,%hi(.LC1)
	lui	a2,%hi(.LC6)
	lui	a0,%hi(.LC11)
	li	a4,60
	addi	a3,a3,%lo(.LC1)
	addi	a2,a2,%lo(.LC6)
	addi	a0,a0,%lo(.LC11)
	call	bl_printk
.LVL39:
	j	.L48
.L49:
	.loc 1 60 282 discriminator 8
	call	xTaskGetTickCount
.LVL40:
	j	.L50
.L52:
	.loc 1 62 185 discriminator 5
	lui	a4,%hi(_fsymp_level_blog_testc2)
	.loc 1 62 164 discriminator 5
	lbu	a4,%lo(_fsymp_level_blog_testc2)(a4)
	bgtu	a4,a5,.L53
	.loc 1 62 218 is_stmt 1
.LBB68:
.LBB69:
	.loc 2 151 5
	.loc 2 151 31 is_stmt 0
	lui	a5,%hi(TrapNetCounter)
.LBE69:
.LBE68:
	.loc 1 62 218
	lw	a5,%lo(TrapNetCounter)(a5)
	beq	a5,zero,.L55
	.loc 1 62 308 discriminator 9
	call	xTaskGetTickCountFromISR
.LVL41:
.L56:
	.loc 1 62 218 discriminator 12
	lui	a3,%hi(.LC1)
	lui	a2,%hi(.LC2)
	mv	a1,a0
	lui	a0,%hi(.LC12)
	li	a4,62
	addi	a3,a3,%lo(.LC1)
	addi	a2,a2,%lo(.LC2)
	addi	a0,a0,%lo(.LC12)
	call	bl_printk
.LVL42:
.L51:
	.loc 1 62 412 is_stmt 1 discriminator 1
	.loc 1 63 5 discriminator 1
	.loc 1 63 43 discriminator 1
	.loc 1 63 48 discriminator 1
	.loc 1 63 51 is_stmt 0 discriminator 1
	lbu	a4,%lo(_fsymc_level_blog_testc)(s0)
	li	a5,2
	bleu	a4,a5,.L57
.L58:
	.loc 1 63 423 is_stmt 1 discriminator 1
	.loc 1 64 5 discriminator 1
	.loc 1 64 43 discriminator 1
	.loc 1 64 48 discriminator 1
	.loc 1 64 51 is_stmt 0 discriminator 1
	lbu	a4,%lo(_fsymc_level_blog_testc)(s0)
	li	a5,3
	bgtu	a4,a5,.L63
.L54:
	.loc 1 64 118
	lui	a5,%hi(_fsymf_level_blog_testcblog_testc2_full)
	.loc 1 64 98
	lbu	a4,%lo(_fsymf_level_blog_testcblog_testc2_full)(a5)
	li	a5,3
	bgtu	a4,a5,.L60
.L59:
	.loc 1 64 182 discriminator 5
	lui	a5,%hi(_fsymp_level_blog_testc2)
	.loc 1 64 162 discriminator 5
	lbu	a4,%lo(_fsymp_level_blog_testc2)(a5)
	li	a5,3
	bgtu	a4,a5,.L64
	.loc 1 64 215 is_stmt 1
.LBB70:
.LBB71:
	.loc 2 151 5
	.loc 2 151 31 is_stmt 0
	lui	a5,%hi(TrapNetCounter)
.LBE71:
.LBE70:
	.loc 1 64 215
	lw	a5,%lo(TrapNetCounter)(a5)
	beq	a5,zero,.L66
	.loc 1 64 304 discriminator 9
	call	xTaskGetTickCountFromISR
.LVL43:
.L67:
	.loc 1 64 215 discriminator 12
	lui	a3,%hi(.LC1)
	lui	a2,%hi(.LC5)
	mv	a1,a0
	lui	a0,%hi(.LC14)
	li	a4,64
	addi	a3,a3,%lo(.LC1)
	addi	a2,a2,%lo(.LC5)
	addi	a0,a0,%lo(.LC14)
	call	bl_printk
.LVL44:
.L63:
	.loc 1 64 423 is_stmt 1 discriminator 1
	.loc 1 65 5 discriminator 1
	.loc 1 65 43 discriminator 1
	.loc 1 65 48 discriminator 1
	.loc 1 65 51 is_stmt 0 discriminator 1
	lbu	a4,%lo(_fsymc_level_blog_testc)(s0)
	li	a5,4
	bgtu	a4,a5,.L68
.L60:
	.loc 1 65 120
	lui	a5,%hi(_fsymf_level_blog_testcblog_testc2_full)
	.loc 1 65 99
	lbu	a4,%lo(_fsymf_level_blog_testcblog_testc2_full)(a5)
	li	a5,4
	bgtu	a4,a5,.L65
.L64:
	.loc 1 65 185 discriminator 5
	lui	a5,%hi(_fsymp_level_blog_testc2)
	.loc 1 65 164 discriminator 5
	lbu	a4,%lo(_fsymp_level_blog_testc2)(a5)
	li	a5,4
	bgtu	a4,a5,.L69
	.loc 1 65 218 is_stmt 1
.LBB72:
.LBB73:
	.loc 2 151 5
	.loc 2 151 31 is_stmt 0
	lui	a5,%hi(TrapNetCounter)
.LBE73:
.LBE72:
	.loc 1 65 218
	lw	a5,%lo(TrapNetCounter)(a5)
	beq	a5,zero,.L71
	.loc 1 65 308 discriminator 9
	call	xTaskGetTickCountFromISR
.LVL45:
.L72:
	.loc 1 65 218 discriminator 12
	lui	a3,%hi(.LC1)
	lui	a2,%hi(.LC6)
	mv	a1,a0
	lui	a0,%hi(.LC15)
	li	a4,65
	addi	a3,a3,%lo(.LC1)
	addi	a2,a2,%lo(.LC6)
	addi	a0,a0,%lo(.LC15)
	call	bl_printk
.LVL46:
.L68:
	.loc 1 65 427 is_stmt 1 discriminator 1
	.loc 1 66 5 discriminator 1
	.loc 1 66 43 discriminator 1
	.loc 1 66 48 discriminator 1
	.loc 1 66 51 is_stmt 0 discriminator 1
	lbu	a4,%lo(_fsymc_level_blog_testc)(s0)
	li	a5,5
	bgtu	a4,a5,.L73
.L65:
	.loc 1 66 122
	lui	a5,%hi(_fsymf_level_blog_testcblog_testc2_full)
	.loc 1 66 100
	lbu	a4,%lo(_fsymf_level_blog_testcblog_testc2_full)(a5)
	li	a5,5
	bgtu	a4,a5,.L73
.L69:
	.loc 1 66 188 discriminator 5
	lui	a5,%hi(_fsymp_level_blog_testc2)
	.loc 1 66 166 discriminator 5
	lbu	a4,%lo(_fsymp_level_blog_testc2)(a5)
	li	a5,5
	bgtu	a4,a5,.L73
	.loc 1 66 221 is_stmt 1
.LBB74:
.LBB75:
	.loc 2 151 5
	.loc 2 151 31 is_stmt 0
	lui	a5,%hi(TrapNetCounter)
.LBE75:
.LBE74:
	.loc 1 66 221
	lw	a5,%lo(TrapNetCounter)(a5)
	beq	a5,zero,.L74
	.loc 1 66 312 discriminator 9
	call	xTaskGetTickCountFromISR
.LVL47:
.L75:
	.loc 1 66 221 discriminator 12
	lui	a3,%hi(.LC1)
	lui	a2,%hi(.LC7)
	mv	a1,a0
	lui	a0,%hi(.LC16)
	li	a4,66
	addi	a3,a3,%lo(.LC1)
	addi	a2,a2,%lo(.LC7)
	addi	a0,a0,%lo(.LC16)
	call	bl_printk
.LVL48:
.L73:
	.loc 1 76 124 discriminator 13
	lui	s2,%hi(_fsymf_level_blog_testcblog_testc2_full)
.LBB76:
.LBB77:
	.loc 2 151 31 discriminator 13
	lui	s3,%hi(TrapNetCounter)
.LBE77:
.LBE76:
	.loc 1 76 172 discriminator 13
	lui	s1,%hi(.LC1)
	lui	s4,%hi(.LC6)
	lui	s7,%hi(.LC11)
	.loc 1 75 170 discriminator 13
	lui	s5,%hi(.LC5)
	lui	s8,%hi(.LC10)
	.loc 1 74 170 discriminator 13
	lui	s6,%hi(.LC4)
.L76:
	.loc 1 66 431 is_stmt 1 discriminator 13
	.loc 1 68 5 discriminator 13
	.loc 1 69 9 discriminator 13
	li	a0,4096
	addi	a0,a0,904
	call	aos_msleep
.LVL49:
	.loc 1 71 9 discriminator 13
	call	test_buf
.LVL50:
	.loc 1 73 9 discriminator 13
	.loc 1 73 47 discriminator 13
	.loc 1 73 52 discriminator 13
	.loc 1 73 55 is_stmt 0 discriminator 13
	lbu	a4,%lo(_fsymc_level_blog_testc)(s0)
	li	a5,1
	bgtu	a4,a5,.L77
	.loc 1 73 103 discriminator 3
	lbu	a4,%lo(_fsymf_level_blog_testcblog_testc2_full)(s2)
	bleu	a4,a5,.L78
.L83:
	.loc 1 74 102
	lbu	a4,%lo(_fsymf_level_blog_testcblog_testc2_full)(s2)
	li	a5,2
	bleu	a4,a5,.L79
.L80:
	.loc 1 75 102
	lbu	a4,%lo(_fsymf_level_blog_testcblog_testc2_full)(s2)
	li	a5,3
	bleu	a4,a5,.L85
.L86:
	.loc 1 76 103
	lbu	a4,%lo(_fsymf_level_blog_testcblog_testc2_full)(s2)
	li	a5,4
	bleu	a4,a5,.L90
.L94:
	.loc 1 76 376 is_stmt 1 discriminator 1
	.loc 1 78 9 discriminator 1
	.loc 1 78 47 discriminator 1
	.loc 1 78 52 discriminator 1
	.loc 1 78 55 is_stmt 0 discriminator 1
	lbu	a4,%lo(_fsymc_level_blog_testc)(s0)
	li	a5,1
	bgtu	a4,a5,.L97
	.loc 1 78 103 discriminator 3
	lbu	a4,%lo(_fsymf_level_blog_testcblog_testc2_full)(s2)
	bleu	a4,a5,.L98
.L103:
	.loc 1 79 102
	lbu	a4,%lo(_fsymf_level_blog_testcblog_testc2_full)(s2)
	li	a5,2
	bgtu	a4,a5,.L100
.L99:
	.loc 1 79 186 discriminator 5
	lui	a5,%hi(_fsymp_level_blog_testc2)
	.loc 1 79 166 discriminator 5
	lbu	a4,%lo(_fsymp_level_blog_testc2)(a5)
	li	a5,2
	bgtu	a4,a5,.L105
	.loc 1 79 219 is_stmt 1
.LBB79:
.LBB80:
	.loc 2 151 5
.LBE80:
.LBE79:
	.loc 1 79 219 is_stmt 0
	lw	a5,%lo(TrapNetCounter)(s3)
	beq	a5,zero,.L107
	.loc 1 79 308 discriminator 9
	call	xTaskGetTickCountFromISR
.LVL51:
.L108:
	.loc 1 79 219 discriminator 12
	mv	a1,a0
	lui	a0,%hi(.LC13)
	li	a4,79
	addi	a3,s1,%lo(.LC1)
	addi	a2,s6,%lo(.LC4)
	addi	a0,a0,%lo(.LC13)
	call	bl_printk
.LVL52:
	j	.L104
.L55:
	.loc 1 62 337 discriminator 10
	call	xTaskGetTickCount
.LVL53:
	j	.L56
.L61:
	.loc 1 63 333 discriminator 10
	call	xTaskGetTickCount
.LVL54:
	j	.L62
.L66:
	.loc 1 64 333 discriminator 10
	call	xTaskGetTickCount
.LVL55:
	j	.L67
.L71:
	.loc 1 65 337 discriminator 10
	call	xTaskGetTickCount
.LVL56:
	j	.L72
.L74:
	.loc 1 66 341 discriminator 10
	call	xTaskGetTickCount
.LVL57:
	j	.L75
.L78:
	.loc 1 73 172 is_stmt 1
.LBB81:
.LBB82:
	.loc 2 151 5
.LBE82:
.LBE81:
	.loc 1 73 172 is_stmt 0
	lw	a5,%lo(TrapNetCounter)(s3)
	beq	a5,zero,.L81
	.loc 1 73 257 discriminator 7
	call	xTaskGetTickCountFromISR
.LVL58:
.L82:
	.loc 1 73 172 discriminator 10
	lui	a2,%hi(.LC2)
	mv	a1,a0
	lui	a0,%hi(.LC8)
	li	a4,73
	addi	a3,s1,%lo(.LC1)
	addi	a2,a2,%lo(.LC2)
	addi	a0,a0,%lo(.LC8)
	call	bl_printk
.LVL59:
.L77:
	.loc 1 73 361 is_stmt 1 discriminator 1
	.loc 1 74 9 discriminator 1
	.loc 1 74 47 discriminator 1
	.loc 1 74 52 discriminator 1
	.loc 1 74 55 is_stmt 0 discriminator 1
	lbu	a4,%lo(_fsymc_level_blog_testc)(s0)
	li	a5,2
	bleu	a4,a5,.L83
.L84:
	.loc 1 74 373 is_stmt 1 discriminator 1
	.loc 1 75 9 discriminator 1
	.loc 1 75 47 discriminator 1
	.loc 1 75 52 discriminator 1
	.loc 1 75 55 is_stmt 0 discriminator 1
	lbu	a4,%lo(_fsymc_level_blog_testc)(s0)
	li	a5,3
	bleu	a4,a5,.L80
.L89:
	.loc 1 75 373 is_stmt 1 discriminator 1
	.loc 1 76 9 discriminator 1
	.loc 1 76 47 discriminator 1
	.loc 1 76 52 discriminator 1
	.loc 1 76 55 is_stmt 0 discriminator 1
	lbu	a4,%lo(_fsymc_level_blog_testc)(s0)
	li	a5,4
	bgtu	a4,a5,.L94
	j	.L86
.L81:
	.loc 1 73 286 discriminator 8
	call	xTaskGetTickCount
.LVL60:
	j	.L82
.L79:
	.loc 1 74 170 is_stmt 1
.LBB83:
.LBB84:
	.loc 2 151 5
.LBE84:
.LBE83:
	.loc 1 74 170 is_stmt 0
	lw	a5,%lo(TrapNetCounter)(s3)
	beq	a5,zero,.L87
	.loc 1 74 254 discriminator 7
	call	xTaskGetTickCountFromISR
.LVL61:
.L88:
	.loc 1 74 170 discriminator 10
	mv	a1,a0
	lui	a0,%hi(.LC9)
	li	a4,74
	addi	a3,s1,%lo(.LC1)
	addi	a2,s6,%lo(.LC4)
	addi	a0,a0,%lo(.LC9)
	call	bl_printk
.LVL62:
	j	.L84
.L87:
	.loc 1 74 283 discriminator 8
	call	xTaskGetTickCount
.LVL63:
	j	.L88
.L85:
	.loc 1 75 170 is_stmt 1
.LBB85:
.LBB86:
	.loc 2 151 5
.LBE86:
.LBE85:
	.loc 1 75 170 is_stmt 0
	lw	a5,%lo(TrapNetCounter)(s3)
	beq	a5,zero,.L92
	.loc 1 75 254 discriminator 7
	call	xTaskGetTickCountFromISR
.LVL64:
.L93:
	.loc 1 75 170 discriminator 10
	mv	a1,a0
	li	a4,75
	addi	a3,s1,%lo(.LC1)
	addi	a2,s5,%lo(.LC5)
	addi	a0,s8,%lo(.LC10)
	call	bl_printk
.LVL65:
	j	.L89
.L92:
	.loc 1 75 283 discriminator 8
	call	xTaskGetTickCount
.LVL66:
	j	.L93
.L90:
	.loc 1 76 172 is_stmt 1
.LBB87:
.LBB78:
	.loc 2 151 5
.LBE78:
.LBE87:
	.loc 1 76 172 is_stmt 0
	lw	a5,%lo(TrapNetCounter)(s3)
	beq	a5,zero,.L95
	.loc 1 76 257 discriminator 7
	call	xTaskGetTickCountFromISR
.LVL67:
.L96:
	.loc 1 76 172 discriminator 10
	mv	a1,a0
	li	a4,76
	addi	a3,s1,%lo(.LC1)
	addi	a2,s4,%lo(.LC6)
	addi	a0,s7,%lo(.LC11)
	call	bl_printk
.LVL68:
	j	.L94
.L95:
	.loc 1 76 286 discriminator 8
	call	xTaskGetTickCount
.LVL69:
	j	.L96
.L98:
	.loc 1 78 189 discriminator 5
	lui	a4,%hi(_fsymp_level_blog_testc2)
	.loc 1 78 168 discriminator 5
	lbu	a4,%lo(_fsymp_level_blog_testc2)(a4)
	bgtu	a4,a5,.L99
	.loc 1 78 222 is_stmt 1
.LBB88:
.LBB89:
	.loc 2 151 5
.LBE89:
.LBE88:
	.loc 1 78 222 is_stmt 0
	lw	a5,%lo(TrapNetCounter)(s3)
	beq	a5,zero,.L101
	.loc 1 78 312 discriminator 9
	call	xTaskGetTickCountFromISR
.LVL70:
.L102:
	.loc 1 78 222 discriminator 12
	lui	a2,%hi(.LC2)
	mv	a1,a0
	lui	a0,%hi(.LC12)
	li	a4,78
	addi	a3,s1,%lo(.LC1)
	addi	a2,a2,%lo(.LC2)
	addi	a0,a0,%lo(.LC12)
	call	bl_printk
.LVL71:
.L97:
	.loc 1 78 416 is_stmt 1 discriminator 1
	.loc 1 79 9 discriminator 1
	.loc 1 79 47 discriminator 1
	.loc 1 79 52 discriminator 1
	.loc 1 79 55 is_stmt 0 discriminator 1
	lbu	a4,%lo(_fsymc_level_blog_testc)(s0)
	li	a5,2
	bleu	a4,a5,.L103
.L104:
	.loc 1 79 427 is_stmt 1 discriminator 1
	.loc 1 80 9 discriminator 1
	.loc 1 80 47 discriminator 1
	.loc 1 80 52 discriminator 1
	.loc 1 80 55 is_stmt 0 discriminator 1
	lbu	a4,%lo(_fsymc_level_blog_testc)(s0)
	li	a5,3
	bgtu	a4,a5,.L109
.L100:
	.loc 1 80 102
	lbu	a4,%lo(_fsymf_level_blog_testcblog_testc2_full)(s2)
	li	a5,3
	bgtu	a4,a5,.L106
.L105:
	.loc 1 80 186 discriminator 5
	lui	a5,%hi(_fsymp_level_blog_testc2)
	.loc 1 80 166 discriminator 5
	lbu	a4,%lo(_fsymp_level_blog_testc2)(a5)
	li	a5,3
	bgtu	a4,a5,.L110
	.loc 1 80 219 is_stmt 1
.LBB90:
.LBB91:
	.loc 2 151 5
.LBE91:
.LBE90:
	.loc 1 80 219 is_stmt 0
	lw	a5,%lo(TrapNetCounter)(s3)
	beq	a5,zero,.L112
	.loc 1 80 308 discriminator 9
	call	xTaskGetTickCountFromISR
.LVL72:
.L113:
	.loc 1 80 219 discriminator 12
	mv	a1,a0
	lui	a0,%hi(.LC14)
	li	a4,80
	addi	a3,s1,%lo(.LC1)
	addi	a2,s5,%lo(.LC5)
	addi	a0,a0,%lo(.LC14)
	call	bl_printk
.LVL73:
.L109:
	.loc 1 80 427 is_stmt 1 discriminator 1
	.loc 1 81 9 discriminator 1
	.loc 1 81 47 discriminator 1
	.loc 1 81 52 discriminator 1
	.loc 1 81 55 is_stmt 0 discriminator 1
	lbu	a4,%lo(_fsymc_level_blog_testc)(s0)
	li	a5,4
	bgtu	a4,a5,.L114
.L106:
	.loc 1 81 103
	lbu	a4,%lo(_fsymf_level_blog_testcblog_testc2_full)(s2)
	li	a5,4
	bgtu	a4,a5,.L111
.L110:
	.loc 1 81 189 discriminator 5
	lui	a5,%hi(_fsymp_level_blog_testc2)
	.loc 1 81 168 discriminator 5
	lbu	a4,%lo(_fsymp_level_blog_testc2)(a5)
	li	a5,4
	bgtu	a4,a5,.L115
	.loc 1 81 222 is_stmt 1
.LBB92:
.LBB93:
	.loc 2 151 5
.LBE93:
.LBE92:
	.loc 1 81 222 is_stmt 0
	lw	a5,%lo(TrapNetCounter)(s3)
	beq	a5,zero,.L117
	.loc 1 81 312 discriminator 9
	call	xTaskGetTickCountFromISR
.LVL74:
.L118:
	.loc 1 81 222 discriminator 12
	mv	a1,a0
	lui	a0,%hi(.LC15)
	li	a4,81
	addi	a3,s1,%lo(.LC1)
	addi	a2,s4,%lo(.LC6)
	addi	a0,a0,%lo(.LC15)
	call	bl_printk
.LVL75:
.L114:
	.loc 1 81 431 is_stmt 1 discriminator 1
	.loc 1 82 9 discriminator 1
	.loc 1 82 47 discriminator 1
	.loc 1 82 52 discriminator 1
	.loc 1 82 55 is_stmt 0 discriminator 1
	lbu	a4,%lo(_fsymc_level_blog_testc)(s0)
	li	a5,5
	bgtu	a4,a5,.L76
.L111:
	.loc 1 82 104
	lbu	a4,%lo(_fsymf_level_blog_testcblog_testc2_full)(s2)
	li	a5,5
	bgtu	a4,a5,.L76
.L115:
	.loc 1 82 192 discriminator 5
	lui	a5,%hi(_fsymp_level_blog_testc2)
	.loc 1 82 170 discriminator 5
	lbu	a4,%lo(_fsymp_level_blog_testc2)(a5)
	li	a5,5
	bgtu	a4,a5,.L76
	.loc 1 82 225 is_stmt 1
.LBB94:
.LBB95:
	.loc 2 151 5
.LBE95:
.LBE94:
	.loc 1 82 225 is_stmt 0
	lw	a5,%lo(TrapNetCounter)(s3)
	beq	a5,zero,.L119
	.loc 1 82 316 discriminator 9
	call	xTaskGetTickCountFromISR
.LVL76:
.L120:
	.loc 1 82 225 discriminator 12
	mv	a1,a0
	lui	a2,%hi(.LC7)
	lui	a0,%hi(.LC16)
	li	a4,82
	addi	a3,s1,%lo(.LC1)
	addi	a2,a2,%lo(.LC7)
	addi	a0,a0,%lo(.LC16)
	call	bl_printk
.LVL77:
	j	.L76
.L101:
	.loc 1 78 341 discriminator 10
	call	xTaskGetTickCount
.LVL78:
	j	.L102
.L107:
	.loc 1 79 337 discriminator 10
	call	xTaskGetTickCount
.LVL79:
	j	.L108
.L112:
	.loc 1 80 337 discriminator 10
	call	xTaskGetTickCount
.LVL80:
	j	.L113
.L117:
	.loc 1 81 341 discriminator 10
	call	xTaskGetTickCount
.LVL81:
	j	.L118
.L119:
	.loc 1 82 345 discriminator 10
	call	xTaskGetTickCount
.LVL82:
	j	.L120
	.cfi_endproc
.LFE6:
	.size	blog_testc2_entry, .-blog_testc2_entry
	.section	.text.blog_testc2_init,"ax",@progbits
	.align	1
	.globl	blog_testc2_init
	.type	blog_testc2_init, @function
blog_testc2_init:
.LFB7:
	.loc 1 87 1 is_stmt 1
	.cfi_startproc
	.loc 1 88 5
	li	a3,4096
	lui	a1,%hi(blog_testc2_entry)
	lui	a0,%hi(.LC17)
	.loc 1 87 1 is_stmt 0
	addi	sp,sp,-16
	.cfi_def_cfa_offset 16
	.loc 1 88 5
	addi	a3,a3,-2048
	li	a2,0
	addi	a1,a1,%lo(blog_testc2_entry)
	addi	a0,a0,%lo(.LC17)
	.loc 1 87 1
	sw	ra,12(sp)
	.cfi_offset 1, -4
	.loc 1 88 5
	call	aos_task_new
.LVL83:
	.loc 1 90 5 is_stmt 1
	.loc 1 91 1 is_stmt 0
	lw	ra,12(sp)
	.cfi_restore 1
	li	a0,0
	addi	sp,sp,16
	.cfi_def_cfa_offset 0
	jr	ra
	.cfi_endproc
.LFE7:
	.size	blog_testc2_init, .-blog_testc2_init
	.globl	_fsymp_info_blog_testc2
	.comm	_fsymp_level_blog_testc2,1,1
	.globl	_fsymf_info_blog_testcblog_testc2_full
	.comm	_fsymf_level_blog_testcblog_testc2_full,1,1
	.comm	_fsymc_level_blog_testc,1,1
	.section	.bss.buf.2793,"aw",@nobits
	.align	2
	.set	.LANCHOR0,. + 0
	.type	buf.2793, @object
	.size	buf.2793, 256
buf.2793:
	.zero	256
	.section	.rodata.blog_testc2_entry.str1.4,"aMS",@progbits,1
	.align	2
.LC8:
	.string	"[%10u][%s: %s:%4d] blog_testc2 debug\r\n"
	.zero	1
.LC9:
	.string	"[%10u][%s: %s:%4d] blog_testc2 info\r\n"
	.zero	2
.LC10:
	.string	"[%10u][%s: %s:%4d] blog_testc2 warn\r\n"
	.zero	2
.LC11:
	.string	"[%10u][%s: %s:%4d] blog_testc2 error\r\n"
	.zero	1
.LC12:
	.string	"[%10u][%s: %s:%4d] blog_testc2 debug user\r\n"
.LC13:
	.string	"[%10u][%s: %s:%4d] blog_testc2 info user\r\n"
	.zero	1
.LC14:
	.string	"[%10u][%s: %s:%4d] blog_testc2 warn user\r\n"
	.zero	1
.LC15:
	.string	"[%10u][%s: %s:%4d] blog_testc2 error user\r\n"
.LC16:
	.string	"[%10u][%s: %s:%4d] blog_testc2 assert user\r\n"
	.section	.rodata.blog_testc2_init.str1.4,"aMS",@progbits,1
	.align	2
.LC17:
	.string	"blog_testc2"
	.section	.rodata.str1.4,"aMS",@progbits,1
	.align	2
.LC18:
	.string	"blog_testc.blog_testc2_full.blog_testc2"
.LC19:
	.string	"blog_testc.blog_testc2_full"
.LC20:
	.string	"blog_testc"
	.section	.rodata.test_buf.str1.4,"aMS",@progbits,1
	.align	2
.LC0:
	.string	"hexdumpbuf"
	.zero	1
.LC1:
	.string	"blog_testc2_full.c"
	.zero	1
.LC2:
	.string	"DEBUG "
	.zero	1
.LC3:
	.string	"[%10u][%s: %s:%4d] %s:\r\n"
	.zero	3
.LC4:
	.string	"\033[32mINFO  \033[0m"
.LC5:
	.string	"\033[33mWARN  \033[0m"
.LC6:
	.string	"\033[31mERROR \033[0m"
.LC7:
	.string	"\033[35mASSERT\033[0m"
	.section	.sdata2.BLOG_HARD_DECLARE_DISABLE,"a"
	.align	2
	.type	BLOG_HARD_DECLARE_DISABLE, @object
	.size	BLOG_HARD_DECLARE_DISABLE, 4
BLOG_HARD_DECLARE_DISABLE:
	.zero	4
	.section	.static_blogcomponent_code.blog_testc,"a"
	.align	2
	.type	_fsymc_info_blog_testc, @object
	.size	_fsymc_info_blog_testc, 8
_fsymc_info_blog_testc:
	.word	_fsymc_level_blog_testc
	.word	.LC20
	.section	.static_blogfile_code.blog_testcblog_testc2_full,"a"
	.align	2
	.type	_fsymf_info_blog_testcblog_testc2_full, @object
	.size	_fsymf_info_blog_testcblog_testc2_full, 8
_fsymf_info_blog_testcblog_testc2_full:
	.word	_fsymf_level_blog_testcblog_testc2_full
	.word	.LC19
	.section	.static_blogpri_code.blog_testc2,"a"
	.align	2
	.type	_fsymp_info_blog_testc2, @object
	.size	_fsymp_info_blog_testc2, 8
_fsymp_info_blog_testc2:
	.word	_fsymp_level_blog_testc2
	.word	.LC18
	.text
.Letext0:
	.file 3 "/home/hogc/build-tools/sdk/bl/bl_iot_sdk/toolchain/riscv/Linux/riscv64-unknown-elf/include/machine/_default_types.h"
	.file 4 "/home/hogc/build-tools/sdk/bl/bl_iot_sdk/toolchain/riscv/Linux/lib/gcc/riscv64-unknown-elf/8.3.0/include/stddef.h"
	.file 5 "/home/hogc/build-tools/sdk/bl/bl_iot_sdk/toolchain/riscv/Linux/riscv64-unknown-elf/include/sys/_types.h"
	.file 6 "/home/hogc/build-tools/sdk/bl/bl_iot_sdk/toolchain/riscv/Linux/riscv64-unknown-elf/include/sys/reent.h"
	.file 7 "/home/hogc/build-tools/sdk/bl/bl_iot_sdk/toolchain/riscv/Linux/riscv64-unknown-elf/include/sys/lock.h"
	.file 8 "/home/hogc/build-tools/sdk/bl/bl_iot_sdk/toolchain/riscv/Linux/riscv64-unknown-elf/include/sys/_stdint.h"
	.file 9 "/home/hogc/build-tools/sdk/bl/bl_iot_sdk/components/stage/blog/blog_type.h"
	.file 10 "/home/hogc/build-tools/sdk/bl/bl_iot_sdk/components/stage/blog/blog.h"
	.file 11 "/home/hogc/build-tools/sdk/bl/bl_iot_sdk/components/stage/yloop/include/aos/kernel.h"
	.file 12 "/home/hogc/build-tools/sdk/bl/bl_iot_sdk/components/bl602/freertos_riscv_ram/config/task.h"
	.file 13 "/home/hogc/build-tools/sdk/bl/bl_iot_sdk/components/utils/include/utils_log.h"