	.file	"aws_iot_jobs_json.c"
	.option nopic
	.attribute arch, "rv32i2p0_m2p0_f2p0_c2p0"
	.attribute unaligned_access, 0
	.attribute stack_align, 16
	.text
.Ltext0:
	.cfi_sections	.debug_frame
	.section	.text._printToBuffer,"ax",@progbits
	.align	1
	.type	_printToBuffer, @function
_printToBuffer:
.LFB4:
	.file 1 "/b-l/bl_iot_sdk/components/3rdparty/aws-iot/aws-iot-device-sdk-embedded-C/src/aws_iot_jobs_json.c"
	.loc 1 37 81
	.cfi_startproc
.LVL0:
	.loc 1 38 2
	.loc 1 37 81 is_stmt 0
	addi	sp,sp,-64
	.cfi_def_cfa_offset 64
	sw	s1,20(sp)
	sw	ra,28(sp)
	sw	s0,24(sp)
	.cfi_offset 9, -44
	.cfi_offset 1, -36
	.cfi_offset 8, -40
	.loc 1 37 81
	sw	a2,40(sp)
	sw	a3,44(sp)
	sw	a4,48(sp)
	sw	a5,52(sp)
	sw	a6,56(sp)
	sw	a7,60(sp)
	.loc 1 38 5
	lw	a5,0(a0)
	li	s1,-1
	beq	a5,s1,.L1
	mv	a2,a1
	mv	s0,a0
	.loc 1 40 2 is_stmt 1
	.loc 1 41 1
	.loc 1 42 12 is_stmt 0
	lw	a1,8(a0)
.LVL1:
	lw	a0,4(a0)
.LVL2:
	.loc 1 41 1
	addi	a3,sp,40
	sw	a3,12(sp)
	.loc 1 42 2 is_stmt 1
	.loc 1 42 12 is_stmt 0
	call	vsnprintf
.LVL3:
	.loc 1 43 2 is_stmt 1
	.loc 1 43 5 is_stmt 0
	bge	a0,zero,.L4
	.loc 1 44 3 is_stmt 1
	.loc 1 44 20 is_stmt 0
	sw	s1,0(s0)
.LVL4:
.L1:
	.loc 1 58 1
	lw	ra,28(sp)
	.cfi_remember_state
	.cfi_restore 1
	lw	s0,24(sp)
	.cfi_restore 8
	lw	s1,20(sp)
	.cfi_restore 9
	addi	sp,sp,64
	.cfi_def_cfa_offset 0
	jr	ra
.LVL5:
.L4:
	.cfi_restore_state
	.loc 1 46 3 is_stmt 1
	.loc 1 46 20 is_stmt 0
	lw	a5,0(s0)
	add	a5,a5,a0
	sw	a5,0(s0)
	.loc 1 47 3 is_stmt 1
	.loc 1 47 12 is_stmt 0
	lw	a5,4(s0)
	.loc 1 47 6
	beq	a5,zero,.L1
	.loc 1 48 4 is_stmt 1
	.loc 1 48 13 is_stmt 0
	lw	a4,8(s0)
	.loc 1 48 7
	bleu	a4,a0,.L6
	.loc 1 49 5 is_stmt 1
	.loc 1 49 24 is_stmt 0
	sub	a4,a4,a0
	.loc 1 50 20
	add	a0,a5,a0
.LVL6:
	.loc 1 49 24
	sw	a4,8(s0)
	.loc 1 50 5 is_stmt 1
	.loc 1 50 20 is_stmt 0
	sw	a0,4(s0)
	j	.L1
.LVL7:
.L6:
	.loc 1 52 5 is_stmt 1
	.loc 1 52 24 is_stmt 0
	sw	zero,8(s0)
	.loc 1 53 5 is_stmt 1
	.loc 1 53 20 is_stmt 0
	sw	zero,4(s0)
	.loc 1 57 1 is_stmt 1
	j	.L1
	.cfi_endproc
.LFE4:
	.size	_printToBuffer, .-_printToBuffer
	.section	.text._printBooleanValue,"ax",@progbits
	.align	1
	.type	_printBooleanValue, @function
_printBooleanValue:
.LFB8:
	.loc 1 80 74
	.cfi_startproc
.LVL8:
	.loc 1 81 2
	.loc 1 81 4 is_stmt 0
	beq	a1,zero,.L12
	.loc 1 82 3 is_stmt 1
	lui	a1,%hi(.LC0)
.LVL9:
	addi	a1,a1,%lo(.LC0)
.L13:
	.loc 1 84 3 is_stmt 0
	tail	_printToBuffer
.LVL10:
.L12:
	.loc 1 84 3 is_stmt 1
	lui	a1,%hi(.LC1)
.LVL11:
	addi	a1,a1,%lo(.LC1)
	j	.L13
	.cfi_endproc
.LFE8:
	.size	_printBooleanValue, .-_printBooleanValue
	.section	.text._printStringValue,"ax",@progbits
	.align	1
	.type	_printStringValue, @function
_printStringValue:
.LFB6:
	.loc 1 68 81
	.cfi_startproc
.LVL12:
	.loc 1 69 2
	.loc 1 68 81 is_stmt 0
	mv	a2,a1
	.loc 1 69 5
	bne	a1,zero,.L15
	.loc 1 70 3 is_stmt 1
	lui	a1,%hi(.LC2)
.LVL13:
	addi	a1,a1,%lo(.LC2)
	tail	_printToBuffer
.LVL14:
.L15:
	.loc 1 72 3
	lui	a1,%hi(.LC3)
.LVL15:
	addi	a1,a1,%lo(.LC3)
	tail	_printToBuffer
.LVL16:
	.cfi_endproc
.LFE6:
	.size	_printStringValue, .-_printStringValue
	.section	.text.aws_iot_jobs_json_serialize_update_job_execution_request,"ax",@progbits
	.align	1
	.globl	aws_iot_jobs_json_serialize_update_job_execution_request
	.type	aws_iot_jobs_json_serialize_update_job_execution_request, @function
aws_iot_jobs_json_serialize_update_job_execution_request:
.LFB9:
	.loc 1 91 1
	.cfi_startproc
.LVL17:
	.loc 1 92 2
	.loc 1 91 1 is_stmt 0
	addi	sp,sp,-48
	.cfi_def_cfa_offset 48
	sw	s0,40(sp)
	sw	s2,32(sp)
	sw	ra,44(sp)
	sw	s1,36(sp)
	.cfi_offset 8, -8
	.cfi_offset 18, -16
	.cfi_offset 1, -4
	.cfi_offset 9, -12
	.loc 1 91 1
	mv	s2,a0
	.loc 1 92 26
	lbu	a0,16(a2)
.LVL18:
	.loc 1 91 1
	sw	a1,12(sp)
	mv	s0,a2
	.loc 1 92 26
	call	aws_iot_jobs_map_status_to_string
.LVL19:
	.loc 1 93 2 is_stmt 1
	.loc 1 93 5 is_stmt 0
	beq	a0,zero,.L27
	mv	s1,a0
	.loc 1 94 2 is_stmt 1
	.loc 1 94 5 is_stmt 0
	lw	a1,12(sp)
	bne	s2,zero,.L18
	.loc 1 94 39
	li	a1,0
.L18:
.LVL20:
	.loc 1 96 2 is_stmt 1
	.loc 1 96 25 is_stmt 0
	sw	a1,28(sp)
	.loc 1 97 2 is_stmt 1
.LVL21:
.LBB42:
.LBB43:
	.loc 1 61 2
	.loc 1 62 3
	lui	a2,%hi(.LC4)
	lui	a1,%hi(.LC5)
.LVL22:
	addi	a2,a2,%lo(.LC4)
	addi	a1,a1,%lo(.LC5)
	addi	a0,sp,20
.LVL23:
.LBE43:
.LBE42:
	.loc 1 96 25 is_stmt 0
	sw	zero,20(sp)
	sw	s2,24(sp)
.LBB45:
.LBB44:
	.loc 1 62 3
	call	_printToBuffer
.LVL24:
.LBE44:
.LBE45:
	.loc 1 98 2 is_stmt 1
	mv	a1,s1
	addi	a0,sp,20
	call	_printStringValue
.LVL25:
	.loc 1 99 2
	.loc 1 99 5 is_stmt 0
	lw	a5,20(s0)
	beq	a5,zero,.L19
	.loc 1 100 3 is_stmt 1
.LVL26:
.LBB46:
.LBB47:
	.loc 1 61 2
	.loc 1 64 3
	lui	a2,%hi(.LC6)
	lui	a1,%hi(.LC7)
	addi	a2,a2,%lo(.LC6)
	addi	a1,a1,%lo(.LC7)
	addi	a0,sp,20
.LVL27:
	call	_printToBuffer
.LVL28:
.LBE47:
.LBE46:
	.loc 1 101 3
	lw	a2,20(s0)
	lui	a1,%hi(.LC8)
	addi	a1,a1,%lo(.LC8)
	addi	a0,sp,20
	call	_printToBuffer
.LVL29:
.L19:
	.loc 1 103 2
	.loc 1 103 5 is_stmt 0
	lw	a5,8(s0)
	lw	a4,12(s0)
	or	a5,a5,a4
	beq	a5,zero,.L20
	.loc 1 104 3 is_stmt 1
.LVL30:
.LBB48:
.LBB49:
	.loc 1 61 2
	.loc 1 64 3
	lui	a2,%hi(.LC9)
	lui	a1,%hi(.LC7)
	addi	a2,a2,%lo(.LC9)
	addi	a1,a1,%lo(.LC7)
	addi	a0,sp,20
.LVL31:
	call	_printToBuffer
.LVL32:
.LBE49:
.LBE48:
	.loc 1 105 3
.LBB50:
.LBB51:
	.loc 1 77 2
	lw	a2,8(s0)
	lw	a3,12(s0)
	lui	a1,%hi(.LC10)
	addi	a1,a1,%lo(.LC10)
	addi	a0,sp,20
.LVL33:
	call	_printToBuffer
.LVL34:
.L20:
.LBE51:
.LBE50:
	.loc 1 107 2
	.loc 1 107 5 is_stmt 0
	lw	a5,0(s0)
	lw	a4,4(s0)
	or	a5,a5,a4
	beq	a5,zero,.L22
	.loc 1 108 3 is_stmt 1
.LVL35:
.LBB52:
.LBB53:
	.loc 1 61 2
	.loc 1 64 3
	lui	a2,%hi(.LC11)
	lui	a1,%hi(.LC7)
	addi	a2,a2,%lo(.LC11)
	addi	a1,a1,%lo(.LC7)
	addi	a0,sp,20
.LVL36:
	call	_printToBuffer
.LVL37:
.LBE53:
.LBE52:
	.loc 1 109 3
.LBB54:
.LBB55:
	.loc 1 77 2
	lw	a2,0(s0)
	lw	a3,4(s0)
	lui	a1,%hi(.LC10)
	addi	a1,a1,%lo(.LC10)
	addi	a0,sp,20
.LVL38:
	call	_printToBuffer
.LVL39:
.L22:
.LBE55:
.LBE54:
	.loc 1 111 2
	.loc 1 111 5 is_stmt 0
	lbu	a5,24(s0)
	beq	a5,zero,.L24
	.loc 1 112 3 is_stmt 1
.LVL40:
.LBB56:
.LBB57:
	.loc 1 61 2
	.loc 1 64 3
	lui	a2,%hi(.LC12)
	lui	a1,%hi(.LC7)
	addi	a1,a1,%lo(.LC7)
	addi	a0,sp,20
.LVL41:
	addi	a2,a2,%lo(.LC12)
	call	_printToBuffer
.LVL42:
.LBE57:
.LBE56:
	.loc 1 113 3
	lbu	a1,24(s0)
	addi	a0,sp,20
	call	_printBooleanValue
.LVL43:
.L24:
	.loc 1 115 2
	.loc 1 115 5 is_stmt 0
	lbu	a5,25(s0)
	beq	a5,zero,.L25
	.loc 1 116 3 is_stmt 1
.LVL44:
.LBB58:
.LBB59:
	.loc 1 61 2
	.loc 1 64 3
	lui	a2,%hi(.LC13)
	lui	a1,%hi(.LC7)
	addi	a1,a1,%lo(.LC7)
	addi	a0,sp,20
.LVL45:
	addi	a2,a2,%lo(.LC13)
	call	_printToBuffer
.LVL46:
.LBE59:
.LBE58:
	.loc 1 117 3
	lbu	a1,25(s0)
	addi	a0,sp,20
	call	_printBooleanValue
.LVL47:
.L25:
	.loc 1 119 2
	.loc 1 119 5 is_stmt 0
	lw	a5,28(s0)
	beq	a5,zero,.L26
	.loc 1 120 3 is_stmt 1
.LVL48:
.LBB60:
.LBB61:
	.loc 1 61 2
	.loc 1 64 3
	lui	a2,%hi(.LC14)
	lui	a1,%hi(.LC7)
	addi	a1,a1,%lo(.LC7)
	addi	a0,sp,20
.LVL49:
	addi	a2,a2,%lo(.LC14)
	call	_printToBuffer
.LVL50:
.LBE61:
.LBE60:
	.loc 1 121 3
	lw	a1,28(s0)
	addi	a0,sp,20
	call	_printStringValue
.LVL51:
.L26:
	.loc 1 124 2
	lui	a1,%hi(.LC15)
	addi	a0,sp,20
	addi	a1,a1,%lo(.LC15)
	call	_printToBuffer
.LVL52:
	.loc 1 126 2
	.loc 1 126 14 is_stmt 0
	lw	a0,20(sp)
.LVL53:
.L16:
	.loc 1 127 1
	lw	ra,44(sp)
	.cfi_remember_state
	.cfi_restore 1
	lw	s0,40(sp)
	.cfi_restore 8
.LVL54:
	lw	s1,36(sp)
	.cfi_restore 9
	lw	s2,32(sp)
	.cfi_restore 18
.LVL55:
	addi	sp,sp,48
	.cfi_def_cfa_offset 0
	jr	ra
.LVL56:
.L27:
	.cfi_restore_state
	.loc 1 93 31
	li	a0,-1
.LVL57:
	j	.L16
	.cfi_endproc
.LFE9:
	.size	aws_iot_jobs_json_serialize_update_job_execution_request, .-aws_iot_jobs_json_serialize_update_job_execution_request
	.section	.text.aws_iot_jobs_json_serialize_client_token_only_request,"ax",@progbits
	.align	1
	.globl	aws_iot_jobs_json_serialize_client_token_only_request
	.type	aws_iot_jobs_json_serialize_client_token_only_request, @function
aws_iot_jobs_json_serialize_client_token_only_request:
.LFB10:
	.loc 1 132 1 is_stmt 1
	.cfi_startproc
.LVL58:
	.loc 1 133 2
	.loc 1 132 1 is_stmt 0
	addi	sp,sp,-32
	.cfi_def_cfa_offset 32
	sw	s0,24(sp)
	.loc 1 133 25
	sw	a1,12(sp)
	.loc 1 134 2 is_stmt 1
.LVL59:
.LBB62:
.LBB63:
	.loc 1 61 2
	.loc 1 62 3
	.cfi_offset 8, -8
.LBE63:
.LBE62:
	.loc 1 132 1 is_stmt 0
	mv	s0,a2
.LBB67:
.LBB64:
	.loc 1 62 3
	lui	a1,%hi(.LC5)
.LVL60:
	lui	a2,%hi(.LC14)
.LVL61:
.LBE64:
.LBE67:
	.loc 1 133 25
	sw	a0,8(sp)
.LBB68:
.LBB65:
	.loc 1 62 3
	addi	a2,a2,%lo(.LC14)
	addi	a0,sp,4
.LVL62:
	addi	a1,a1,%lo(.LC5)
.LBE65:
.LBE68:
	.loc 1 132 1
	sw	ra,28(sp)
	.cfi_offset 1, -4
	.loc 1 133 25
	sw	zero,4(sp)
.LBB69:
.LBB66:
	.loc 1 62 3
	call	_printToBuffer
.LVL63:
.LBE66:
.LBE69:
	.loc 1 135 2 is_stmt 1
	mv	a1,s0
	addi	a0,sp,4
	call	_printStringValue
.LVL64:
	.loc 1 136 2
	lui	a1,%hi(.LC15)
	addi	a0,sp,4
	addi	a1,a1,%lo(.LC15)
	call	_printToBuffer
.LVL65:
	.loc 1 138 2
	.loc 1 139 1 is_stmt 0
	lw	ra,28(sp)
	.cfi_restore 1
	lw	s0,24(sp)
	.cfi_restore 8
.LVL66:
	lw	a0,4(sp)
	addi	sp,sp,32
	.cfi_def_cfa_offset 0
	jr	ra
	.cfi_endproc
.LFE10:
	.size	aws_iot_jobs_json_serialize_client_token_only_request, .-aws_iot_jobs_json_serialize_client_token_only_request
	.section	.text.aws_iot_jobs_json_serialize_describe_job_execution_request,"ax",@progbits
	.align	1
	.globl	aws_iot_jobs_json_serialize_describe_job_execution_request
	.type	aws_iot_jobs_json_serialize_describe_job_execution_request, @function
aws_iot_jobs_json_serialize_describe_job_execution_request:
.LFB11:
	.loc 1 144 1 is_stmt 1
	.cfi_startproc
.LVL67:
	.loc 1 145 1
	.loc 1 147 2
	.loc 1 147 5 is_stmt 0
	beq	a0,zero,.L59
	.loc 1 144 1
	addi	sp,sp,-32
	.cfi_def_cfa_offset 32
	sw	s0,24(sp)
	sw	ra,28(sp)
	.cfi_offset 8, -8
	.cfi_offset 1, -4
	.loc 1 150 5
	lw	a4,12(a2)
	.loc 1 149 25
	sw	zero,4(sp)
	sw	a0,8(sp)
	sw	a1,12(sp)
	mv	s0,a2
	.loc 1 149 2 is_stmt 1
	.loc 1 150 2
	.loc 1 145 6 is_stmt 0
	li	a5,1
	.loc 1 150 5
	beq	a4,zero,.L51
	.loc 1 151 3 is_stmt 1
.LVL68:
.LBB78:
.LBB79:
	.loc 1 61 2
	.loc 1 62 3
	lui	a2,%hi(.LC14)
.LVL69:
	lui	a1,%hi(.LC5)
.LVL70:
	addi	a2,a2,%lo(.LC14)
	addi	a1,a1,%lo(.LC5)
	addi	a0,sp,4
.LVL71:
	call	_printToBuffer
.LVL72:
.LBE79:
.LBE78:
	.loc 1 152 3
	lw	a1,12(s0)
	addi	a0,sp,4
	call	_printStringValue
.LVL73:
	.loc 1 153 3
	.loc 1 153 9 is_stmt 0
	li	a5,0
.LVL74:
.L51:
	.loc 1 155 2 is_stmt 1
	.loc 1 155 5 is_stmt 0
	lw	a4,0(s0)
	lw	a3,4(s0)
	or	a4,a4,a3
	beq	a4,zero,.L52
	.loc 1 156 3 is_stmt 1
.LVL75:
.LBB80:
.LBB81:
	.loc 1 61 2
	lui	a2,%hi(.LC9)
	.loc 1 62 3 is_stmt 0
	addi	a2,a2,%lo(.LC9)
	.loc 1 61 5
	beq	a5,zero,.L54
.LVL76:
	.loc 1 62 3 is_stmt 1
	lui	a1,%hi(.LC5)
	addi	a1,a1,%lo(.LC5)
.LVL77:
.L72:
	.loc 1 64 3 is_stmt 0
	addi	a0,sp,4
.LVL78:
	call	_printToBuffer
.LVL79:
.LBE81:
.LBE80:
	.loc 1 157 3 is_stmt 1
.LBB83:
.LBB84:
	.loc 1 77 2
	lw	a2,0(s0)
	lw	a3,4(s0)
	lui	a1,%hi(.LC10)
	addi	a1,a1,%lo(.LC10)
	addi	a0,sp,4
.LVL80:
	call	_printToBuffer
.LVL81:
.LBE84:
.LBE83:
	.loc 1 158 9 is_stmt 0
	li	a5,0
.LVL82:
.L52:
	.loc 1 160 2 is_stmt 1
	.loc 1 160 5 is_stmt 0
	lbu	a4,8(s0)
	beq	a4,zero,.L56
	.loc 1 161 3 is_stmt 1
.LVL83:
.LBB85:
.LBB86:
	.loc 1 61 2
	lui	a2,%hi(.LC13)
	.loc 1 62 3 is_stmt 0
	addi	a2,a2,%lo(.LC13)
	.loc 1 61 5
	beq	a5,zero,.L57
	.loc 1 62 3 is_stmt 1
	lui	a1,%hi(.LC5)
	addi	a1,a1,%lo(.LC5)
.LVL84:
.L73:
	.loc 1 64 3 is_stmt 0
	addi	a0,sp,4
.LVL85:
	call	_printToBuffer
.LVL86:
.LBE86:
.LBE85:
	.loc 1 162 3 is_stmt 1
	lbu	a1,8(s0)
	addi	a0,sp,4
	call	_printBooleanValue
.LVL87:
.L56:
	.loc 1 165 2
	lui	a1,%hi(.LC15)
	addi	a0,sp,4
	addi	a1,a1,%lo(.LC15)
	call	_printToBuffer
.LVL88:
	.loc 1 167 2
	.loc 1 168 1 is_stmt 0
	lw	ra,28(sp)
	.cfi_remember_state
	.cfi_restore 1
	lw	s0,24(sp)
	.cfi_restore 8
.LVL89:
	.loc 1 167 14
	lw	a0,4(sp)
	.loc 1 168 1
	addi	sp,sp,32
	.cfi_def_cfa_offset 0
	jr	ra
.LVL90:
.L54:
	.cfi_restore_state
.LBB88:
.LBB82:
	.loc 1 64 3 is_stmt 1
	lui	a1,%hi(.LC7)
	addi	a1,a1,%lo(.LC7)
	j	.L72
.LVL91:
.L57:
.LBE82:
.LBE88:
.LBB89:
.LBB87:
	.loc 1 64 3
	lui	a1,%hi(.LC7)
	addi	a1,a1,%lo(.LC7)
	j	.L73
.LVL92:
.L59:
	.cfi_def_cfa_offset 0
	.cfi_restore 1
	.cfi_restore 8
.LBE87:
.LBE89:
	.loc 1 147 35 is_stmt 0
	li	a0,0
.LVL93:
	.loc 1 168 1
	ret
	.cfi_endproc
.LFE11:
	.size	aws_iot_jobs_json_serialize_describe_job_execution_request, .-aws_iot_jobs_json_serialize_describe_job_execution_request
	.section	.text.aws_iot_jobs_json_serialize_start_next_job_execution_request,"ax",@progbits
	.align	1
	.globl	aws_iot_jobs_json_serialize_start_next_job_execution_request
	.type	aws_iot_jobs_json_serialize_start_next_job_execution_request, @function
aws_iot_jobs_json_serialize_start_next_job_execution_request:
.LFB12:
	.loc 1 173 1 is_stmt 1
	.cfi_startproc
.LVL94:
	.loc 1 174 2
	.loc 1 173 1 is_stmt 0
	addi	sp,sp,-32
	.cfi_def_cfa_offset 32
	sw	s0,24(sp)
	sw	ra,28(sp)
	.cfi_offset 8, -8
	.cfi_offset 1, -4
	.loc 1 173 1
	mv	s0,a2
	.loc 1 174 5
	bne	a0,zero,.L75
	.loc 1 174 39
	li	a1,0
.LVL95:
.L75:
	.loc 1 175 2 is_stmt 1
	.loc 1 176 5 is_stmt 0
	lw	a5,0(s0)
	.loc 1 175 25
	sw	zero,4(sp)
	sw	a0,8(sp)
	sw	a1,12(sp)
	.loc 1 176 2 is_stmt 1
	.loc 1 176 5 is_stmt 0
	beq	a5,zero,.L76
	.loc 1 177 3 is_stmt 1
.LVL96:
.LBB90:
.LBB91:
	.loc 1 61 2
	.loc 1 62 3
	lui	a2,%hi(.LC6)
.LVL97:
	lui	a1,%hi(.LC5)
.LVL98:
	addi	a2,a2,%lo(.LC6)
	addi	a1,a1,%lo(.LC5)
	addi	a0,sp,4
.LVL99:
	call	_printToBuffer
.LVL100:
.LBE91:
.LBE90:
	.loc 1 178 3
	lw	a2,0(s0)
	lui	a1,%hi(.LC8)
	addi	a1,a1,%lo(.LC8)
	addi	a0,sp,4
	call	_printToBuffer
.LVL101:
.L76:
	.loc 1 180 2
	.loc 1 180 5 is_stmt 0
	lw	a5,4(s0)
	bne	a5,zero,.L77
.L82:
	.loc 1 188 34
	lw	a5,0(s0)
	bne	a5,zero,.L83
	.loc 1 189 3 is_stmt 1
	lui	a1,%hi(.LC16)
	addi	a1,a1,%lo(.LC16)
	addi	a0,sp,4
	call	_printToBuffer
.LVL102:
	j	.L83
.L77:
	.loc 1 181 3
	.loc 1 181 5 is_stmt 0
	lw	a5,0(s0)
	lui	a2,%hi(.LC14)
.LBB92:
.LBB93:
	.loc 1 64 3
	addi	a2,a2,%lo(.LC14)
.LBE93:
.LBE92:
	.loc 1 181 5
	beq	a5,zero,.L80
	.loc 1 182 4 is_stmt 1
.LVL103:
.LBB95:
.LBB94:
	.loc 1 61 2
	.loc 1 64 3
	lui	a1,%hi(.LC7)
	addi	a1,a1,%lo(.LC7)
.LVL104:
.L91:
.LBE94:
.LBE95:
.LBB96:
.LBB97:
	.loc 1 62 3 is_stmt 0
	addi	a0,sp,4
	call	_printToBuffer
.LVL105:
.LBE97:
.LBE96:
	.loc 1 186 3 is_stmt 1
	lw	a1,4(s0)
	addi	a0,sp,4
	call	_printStringValue
.LVL106:
	.loc 1 188 2
	.loc 1 188 5 is_stmt 0
	lw	a5,4(s0)
	beq	a5,zero,.L82
.L83:
	.loc 1 191 2 is_stmt 1
	lui	a1,%hi(.LC15)
	addi	a0,sp,4
	addi	a1,a1,%lo(.LC15)
	call	_printToBuffer
.LVL107:
	.loc 1 192 2
	.loc 1 193 1 is_stmt 0
	lw	ra,28(sp)
	.cfi_remember_state
	.cfi_restore 1
	lw	s0,24(sp)
	.cfi_restore 8
.LVL108:
	lw	a0,4(sp)
	addi	sp,sp,32
	.cfi_def_cfa_offset 0
	jr	ra
.LVL109:
.L80:
	.cfi_restore_state
	.loc 1 184 4 is_stmt 1
.LBB99:
.LBB98:
	.loc 1 61 2
	.loc 1 62 3
	lui	a1,%hi(.LC5)
	addi	a1,a1,%lo(.LC5)
	j	.L91
.LBE98:
.LBE99:
	.cfi_endproc
.LFE12:
	.size	aws_iot_jobs_json_serialize_start_next_job_execution_request, .-aws_iot_jobs_json_serialize_start_next_job_execution_request
	.section	.rodata._printBooleanValue.str1.4,"aMS",@progbits,1
	.align	2
.LC0:
	.string	"true"
	.zero	3
.LC1:
	.string	"false"
	.section	.rodata._printStringValue.str1.4,"aMS",@progbits,1
	.align	2
.LC2:
	.string	"null"
	.zero	3
.LC3:
	.string	"\"%s\""
	.section	.rodata.aws_iot_jobs_json_serialize_start_next_job_execution_request.str1.4,"aMS",@progbits,1
	.align	2
.LC16:
	.string	"{"
	.section	.rodata.aws_iot_jobs_json_serialize_update_job_execution_request.str1.4,"aMS",@progbits,1
	.align	2
.LC4:
	.string	"status"
	.zero	1
.LC5:
	.string	"{\"%s\":"
	.zero	1
.LC6:
	.string	"statusDetails"
	.zero	2
.LC7:
	.string	",\"%s\":"
	.zero	1
.LC8:
	.string	"%s"
	.zero	1
.LC9:
	.string	"executionNumber"
.LC10:
	.string	"%lld"
	.zero	3
.LC11:
	.string	"expectedVersion"
.LC12:
	.string	"includeJobExecutionState"
	.zero	3
.LC13:
	.string	"includeJobDocument"
	.zero	1
.LC14:
	.string	"clientToken"
.LC15:
	.string	"}"
	.text
.Letext0:
	.file 2 "/b-l/bl_iot_sdk/toolchain/riscv/Linux/lib/gcc/riscv64-unknown-elf/8.3.0/include/stddef.h"
	.file 3 "/b-l/bl_iot_sdk/toolchain/riscv/Linux/riscv64-unknown-elf/include/machine/_default_types.h"
	.file 4 "/b-l/bl_iot_sdk/toolchain/riscv/Linux/riscv64-unknown-elf/include/sys/_types.h"
	.file 5 "/b-l/bl_iot_sdk/toolchain/riscv/Linux/riscv64-unknown-elf/include/sys/reent.h"
	.file 6 "/b-l/bl_iot_sdk/toolchain/riscv/Linux/riscv64-unknown-elf/include/sys/lock.h"
	.file 7 "/b-l/bl_iot_sdk/toolchain/riscv/Linux/riscv64-unknown-elf/include/stdlib.h"
	.file 8 "/b-l/bl_iot_sdk/toolchain/riscv/Linux/lib/gcc/riscv64-unknown-elf/8.3.0/include/stdarg.h"
	.file 9 "/b-l/bl_iot_sdk/toolchain/riscv/Linux/riscv64-unknown-elf/include/stdio.h"
	.file 10 "/b-l/bl_iot_sdk/toolchain/riscv/Linux/riscv64-unknown-elf/include/sys/_stdint.h"
	.file 11 "/b-l/bl_iot_sdk/components/3rdparty/aws-iot/aws-iot-device-sdk-embedded-C/include/aws_iot_jobs_types.h"