	.file	"utils_sha256.c"
	.option nopic
	.attribute arch, "rv32i2p0_m2p0_f2p0_c2p0"
	.attribute unaligned_access, 0
	.attribute stack_align, 16
	.text
.Ltext0:
	.cfi_sections	.debug_frame
	.section	.text.utils_sha256_init,"ax",@progbits
	.align	1
	.globl	utils_sha256_init
	.type	utils_sha256_init, @function
utils_sha256_init:
.LFB2:
	.file 1 "/b-l/bl_iot_sdk_new/components/utils/src/utils_sha256.c"
	.loc 1 70 1
	.cfi_startproc
.LVL0:
	.loc 1 71 5
	li	a2,108
	li	a1,0
	tail	memset
.LVL1:
	.cfi_endproc
.LFE2:
	.size	utils_sha256_init, .-utils_sha256_init
	.section	.text.utils_sha256_free,"ax",@progbits
	.align	1
	.globl	utils_sha256_free
	.type	utils_sha256_free, @function
utils_sha256_free:
.LFB3:
	.loc 1 74 1
	.cfi_startproc
.LVL2:
	.loc 1 75 5
	addi	a5,a0,108
	.loc 1 75 8 is_stmt 0
	bne	a0,zero,.L4
.LVL3:
.L2:
	.loc 1 80 1
	ret
.LVL4:
.L5:
.LBB6:
.LBB7:
	.loc 1 66 9 is_stmt 1
	.loc 1 66 14 is_stmt 0
	sb	zero,0(a0)
	.loc 1 66 11
	addi	a0,a0,1
.LVL5:
.L4:
	.loc 1 65 11
	bne	a0,a5,.L5
	j	.L2
.LBE7:
.LBE6:
	.cfi_endproc
.LFE3:
	.size	utils_sha256_free, .-utils_sha256_free
	.section	.text.utils_sha256_clone,"ax",@progbits
	.align	1
	.globl	utils_sha256_clone
	.type	utils_sha256_clone, @function
utils_sha256_clone:
.LFB4:
	.loc 1 83 1 is_stmt 1
	.cfi_startproc
.LVL6:
	.loc 1 84 5
	.loc 1 83 1 is_stmt 0
	addi	sp,sp,-16
	.cfi_def_cfa_offset 16
	.loc 1 84 10
	li	a2,108
	.loc 1 83 1
	sw	ra,12(sp)
	.cfi_offset 1, -4
	.loc 1 84 10
	call	memcpy
.LVL7:
	.loc 1 85 1
	lw	ra,12(sp)
	.cfi_restore 1
	addi	sp,sp,16
	.cfi_def_cfa_offset 0
	jr	ra
	.cfi_endproc
.LFE4:
	.size	utils_sha256_clone, .-utils_sha256_clone
	.section	.text.utils_sha256_starts,"ax",@progbits
	.align	1
	.globl	utils_sha256_starts
	.type	utils_sha256_starts, @function
utils_sha256_starts:
.LFB5:
	.loc 1 87 1 is_stmt 1
	.cfi_startproc
.LVL8:
	.loc 1 88 5
	.loc 1 89 5
	.loc 1 94 23 is_stmt 0
	li	a5,1779032064
	addi	a5,a5,1639
	sw	a5,8(a0)
	.loc 1 95 23
	li	a5,-1150832640
	addi	a5,a5,-379
	sw	a5,12(a0)
	.loc 1 96 23
	li	a5,1013903360
	addi	a5,a5,882
	sw	a5,16(a0)
	.loc 1 97 23
	li	a5,-1521487872
	addi	a5,a5,1338
	sw	a5,20(a0)
	.loc 1 98 23
	li	a5,1359892480
	addi	a5,a5,639
	sw	a5,24(a0)
	.loc 1 99 23
	li	a5,-1694142464
	addi	a5,a5,-1908
	sw	a5,28(a0)
	.loc 1 100 23
	li	a5,528736256
	addi	a5,a5,-1621
	sw	a5,32(a0)
	.loc 1 101 23
	li	a5,1541459968
	addi	a5,a5,-743
	.loc 1 89 19
	sw	zero,0(a0)
	.loc 1 90 5 is_stmt 1
	.loc 1 90 19 is_stmt 0
	sw	zero,4(a0)
	.loc 1 92 5 is_stmt 1
	.loc 1 94 9
	.loc 1 95 9
	.loc 1 96 9
	.loc 1 97 9
	.loc 1 98 9
	.loc 1 99 9
	.loc 1 100 9
	.loc 1 101 9
	.loc 1 101 23 is_stmt 0
	sw	a5,36(a0)
	.loc 1 104 5 is_stmt 1
	.loc 1 104 16 is_stmt 0
	sw	zero,104(a0)
	.loc 1 105 1
	ret
	.cfi_endproc
.LFE5:
	.size	utils_sha256_starts, .-utils_sha256_starts
	.section	.text.utils_sha256_process,"ax",@progbits
	.align	1
	.globl	utils_sha256_process
	.type	utils_sha256_process, @function
utils_sha256_process:
.LFB6:
	.loc 1 152 1 is_stmt 1
	.cfi_startproc
.LVL9:
	.loc 1 153 5
	.loc 1 154 5
	.loc 1 155 5
	.loc 1 157 5
	.loc 1 152 1 is_stmt 0
	addi	sp,sp,-336
	.cfi_def_cfa_offset 336
	sw	s2,324(sp)
	sw	s3,320(sp)
	.cfi_offset 18, -12
	.cfi_offset 19, -16
	addi	s2,a0,8
	mv	s3,sp
	sw	s0,332(sp)
	sw	s1,328(sp)
	sw	s4,316(sp)
	sw	s5,312(sp)
	sw	s6,308(sp)
	sw	s7,304(sp)
	sw	s8,300(sp)
	.cfi_offset 8, -4
	.cfi_offset 9, -8
	.cfi_offset 20, -20
	.cfi_offset 21, -24
	.cfi_offset 22, -28
	.cfi_offset 23, -32
	.cfi_offset 24, -36
	addi	a0,a0,40
.LVL10:
	.loc 1 152 1
	mv	a4,s3
	mv	a5,s2
.LVL11:
.L13:
	.loc 1 158 9 is_stmt 1 discriminator 3
	.loc 1 158 14 is_stmt 0 discriminator 3
	lw	a3,0(a5)
	addi	a5,a5,4
	addi	a4,a4,4
	sw	a3,-4(a4)
	.loc 1 157 5 discriminator 3
	bne	a0,a5,.L13
	addi	t3,sp,32
	addi	a2,a1,64
	.loc 1 157 5
	mv	a4,t3
.LVL12:
.L14:
	.loc 1 183 9 is_stmt 1 discriminator 3
	.loc 1 183 14 discriminator 3
	.loc 1 183 25 is_stmt 0 discriminator 3
	lbu	a5,0(a1)
	.loc 1 183 65 discriminator 3
	lbu	a3,1(a1)
	addi	a1,a1,4
	.loc 1 183 53 discriminator 3
	slli	a5,a5,24
	.loc 1 183 96 discriminator 3
	slli	a3,a3,16
	.loc 1 183 146 discriminator 3
	or	a5,a5,a3
	.loc 1 183 150 discriminator 3
	lbu	a3,-1(a1)
	addi	a4,a4,4
	.loc 1 183 146 discriminator 3
	or	a5,a5,a3
	.loc 1 183 108 discriminator 3
	lbu	a3,-2(a1)
	.loc 1 183 139 discriminator 3
	slli	a3,a3,8
	.loc 1 183 146 discriminator 3
	or	a5,a5,a3
	.loc 1 183 21 discriminator 3
	sw	a5,-4(a4)
	.loc 1 182 5 discriminator 3
	bne	a2,a1,.L14
	lui	t4,%hi(.LANCHOR0)
	lw	a6,28(sp)
	lw	a7,16(sp)
	lw	t1,24(sp)
	lw	a1,20(sp)
	lw	a2,0(sp)
.LVL13:
	lw	a3,4(sp)
	lw	a4,8(sp)
	lw	a5,12(sp)
	addi	s1,t4,%lo(.LANCHOR0)
	addi	t0,s1,64
	.loc 1 182 5
	mv	t6,t3
	addi	t4,t4,%lo(.LANCHOR0)
.L15:
	.loc 1 187 11 is_stmt 1 discriminator 3
	.loc 1 187 55 is_stmt 0 discriminator 3
	slli	t2,a7,26
	srli	t5,a7,6
	.loc 1 187 108 discriminator 3
	slli	s0,a7,21
	.loc 1 187 55 discriminator 3
	or	t5,t5,t2
	.loc 1 187 108 discriminator 3
	srli	t2,a7,11
	or	t2,t2,s0
	.loc 1 187 77 discriminator 3
	xor	t5,t5,t2
	.loc 1 187 162 discriminator 3
	srli	s0,a7,25
	slli	t2,a7,7
	or	t2,t2,s0
	.loc 1 187 131 discriminator 3
	xor	t5,t5,t2
	.loc 1 187 17 discriminator 3
	lw	s0,0(t6)
	lw	t2,0(t4)
	addi	t4,t4,32
	addi	t6,t6,32
	add	t2,t2,s0
	add	t5,t5,t2
	.loc 1 187 210 discriminator 3
	xor	t2,t1,a1
	.loc 1 187 202 discriminator 3
	and	t2,t2,a7
	.loc 1 187 194 discriminator 3
	xor	t2,t2,t1
	.loc 1 187 17 discriminator 3
	add	t5,t5,t2
	add	a6,t5,a6
.LVL14:
	.loc 1 187 243 is_stmt 1 discriminator 3
	.loc 1 187 455 discriminator 3
	.loc 1 187 280 is_stmt 0 discriminator 3
	slli	t2,a2,30
	srli	t5,a2,2
	.loc 1 187 333 discriminator 3
	slli	s0,a2,19
	.loc 1 187 280 discriminator 3
	or	t5,t5,t2
	.loc 1 187 333 discriminator 3
	srli	t2,a2,13
	or	t2,t2,s0
	.loc 1 187 302 discriminator 3
	xor	t5,t5,t2
	.loc 1 187 387 discriminator 3
	srli	s0,a2,22
	slli	t2,a2,10
	or	t2,t2,s0
	.loc 1 187 356 discriminator 3
	xor	t5,t5,t2
	.loc 1 187 444 discriminator 3
	or	t2,a2,a3
	.loc 1 187 420 discriminator 3
	and	s0,a2,a3
	.loc 1 187 436 discriminator 3
	and	t2,t2,a4
	.loc 1 187 428 discriminator 3
	or	t2,t2,s0
	.loc 1 187 249 discriminator 3
	add	t5,t5,t2
	.loc 1 187 460 discriminator 3
	add	a5,a5,a6
	.loc 1 187 470 is_stmt 1 discriminator 3
	.loc 1 188 17 is_stmt 0 discriminator 3
	lw	t2,-28(t6)
	.loc 1 187 483 discriminator 3
	add	a6,t5,a6
.LVL15:
	.loc 1 187 493 is_stmt 1 discriminator 3
	.loc 1 188 11 discriminator 3
	.loc 1 188 17 is_stmt 0 discriminator 3
	lw	t5,-28(t4)
	.loc 1 188 108 discriminator 3
	slli	s0,a5,21
	.loc 1 188 17 discriminator 3
	add	t5,t5,t2
	add	t1,t5,t1
	.loc 1 188 210 discriminator 3
	xor	t5,a7,a1
	.loc 1 188 202 discriminator 3
	and	t5,t5,a5
	.loc 1 188 194 discriminator 3
	xor	t5,t5,a1
	.loc 1 188 17 discriminator 3
	add	t1,t1,t5
	.loc 1 188 55 discriminator 3
	srli	t2,a5,6
	slli	t5,a5,26
	or	t2,t2,t5
	.loc 1 188 108 discriminator 3
	srli	t5,a5,11
	or	t5,t5,s0
	.loc 1 188 77 discriminator 3
	xor	t2,t2,t5
	.loc 1 188 162 discriminator 3
	srli	s0,a5,25
	slli	t5,a5,7
	or	t5,t5,s0
	.loc 1 188 131 discriminator 3
	xor	t5,t2,t5
	.loc 1 188 17 discriminator 3
	add	t5,t1,t5
.LVL16:
	.loc 1 188 243 is_stmt 1 discriminator 3
	.loc 1 188 455 discriminator 3
	.loc 1 188 280 is_stmt 0 discriminator 3
	slli	t2,a6,30
	srli	t1,a6,2
	.loc 1 188 333 discriminator 3
	slli	s0,a6,19
	.loc 1 188 280 discriminator 3
	or	t1,t1,t2
	.loc 1 188 333 discriminator 3
	srli	t2,a6,13
	or	t2,t2,s0
	.loc 1 188 302 discriminator 3
	xor	t1,t1,t2
	.loc 1 188 387 discriminator 3
	srli	s0,a6,22
	slli	t2,a6,10
	or	t2,t2,s0
	.loc 1 188 356 discriminator 3
	xor	t1,t1,t2
	.loc 1 188 444 discriminator 3
	or	t2,a6,a2
	.loc 1 188 420 discriminator 3
	and	s0,a6,a2
	.loc 1 188 436 discriminator 3
	and	t2,t2,a3
	.loc 1 188 428 discriminator 3
	or	t2,t2,s0
	.loc 1 188 249 discriminator 3
	add	t1,t1,t2
	.loc 1 188 483 discriminator 3
	add	t1,t1,t5
	.loc 1 188 460 discriminator 3
	add	a4,a4,t5
	.loc 1 188 470 is_stmt 1 discriminator 3
	.loc 1 188 493 discriminator 3
	.loc 1 189 11 discriminator 3
	.loc 1 189 17 is_stmt 0 discriminator 3
	lw	t2,-24(t6)
	lw	t5,-24(t4)
.LVL17:
	.loc 1 189 108 discriminator 3
	slli	s0,a4,21
	.loc 1 189 17 discriminator 3
	add	t5,t5,t2
	add	a1,t5,a1
	.loc 1 189 210 discriminator 3
	xor	t5,a5,a7
	.loc 1 189 202 discriminator 3
	and	t5,t5,a4
	.loc 1 189 194 discriminator 3
	xor	t5,t5,a7
	.loc 1 189 17 discriminator 3
	add	a1,a1,t5
	.loc 1 189 55 discriminator 3
	srli	t2,a4,6
	slli	t5,a4,26
	or	t2,t2,t5
	.loc 1 189 108 discriminator 3
	srli	t5,a4,11
	or	t5,t5,s0
	.loc 1 189 77 discriminator 3
	xor	t2,t2,t5
	.loc 1 189 162 discriminator 3
	srli	s0,a4,25
	slli	t5,a4,7
	or	t5,t5,s0
	.loc 1 189 131 discriminator 3
	xor	t5,t2,t5
	.loc 1 189 17 discriminator 3
	add	t5,a1,t5
.LVL18:
	.loc 1 189 243 is_stmt 1 discriminator 3
	.loc 1 189 455 discriminator 3
	.loc 1 189 280 is_stmt 0 discriminator 3
	slli	t2,t1,30
	srli	a1,t1,2
	.loc 1 189 333 discriminator 3
	slli	s0,t1,19
	.loc 1 189 280 discriminator 3
	or	a1,a1,t2
	.loc 1 189 333 discriminator 3
	srli	t2,t1,13
	or	t2,t2,s0
	.loc 1 189 302 discriminator 3
	xor	a1,a1,t2
	.loc 1 189 387 discriminator 3
	srli	s0,t1,22
	slli	t2,t1,10
	or	t2,t2,s0
	.loc 1 189 356 discriminator 3
	xor	a1,a1,t2
	.loc 1 189 444 discriminator 3
	or	t2,a6,t1
	.loc 1 189 420 discriminator 3
	and	s0,a6,t1
	.loc 1 189 436 discriminator 3
	and	t2,t2,a2
	.loc 1 189 428 discriminator 3
	or	t2,t2,s0
	.loc 1 189 249 discriminator 3
	add	a1,a1,t2
	.loc 1 189 483 discriminator 3
	add	a1,a1,t5
	.loc 1 189 460 discriminator 3
	add	a3,a3,t5
	.loc 1 189 470 is_stmt 1 discriminator 3
	.loc 1 189 493 discriminator 3
	.loc 1 190 11 discriminator 3
	.loc 1 190 17 is_stmt 0 discriminator 3
	lw	t2,-20(t6)
	lw	t5,-20(t4)
.LVL19:
	.loc 1 190 108 discriminator 3
	slli	s0,a3,21
	.loc 1 190 17 discriminator 3
	add	t5,t5,t2
	add	a7,t5,a7
	.loc 1 190 210 discriminator 3
	xor	t5,a5,a4
	.loc 1 190 202 discriminator 3
	and	t5,t5,a3
	.loc 1 190 194 discriminator 3
	xor	t5,t5,a5
	.loc 1 190 17 discriminator 3
	add	a7,a7,t5
	.loc 1 190 55 discriminator 3
	srli	t2,a3,6
	slli	t5,a3,26
	or	t2,t2,t5
	.loc 1 190 108 discriminator 3
	srli	t5,a3,11
	or	t5,t5,s0
	.loc 1 190 77 discriminator 3
	xor	t2,t2,t5
	.loc 1 190 162 discriminator 3
	srli	s0,a3,25
	slli	t5,a3,7
	or	t5,t5,s0
	.loc 1 190 131 discriminator 3
	xor	t5,t2,t5
	.loc 1 190 17 discriminator 3
	add	t5,a7,t5
.LVL20:
	.loc 1 190 243 is_stmt 1 discriminator 3
	.loc 1 190 455 discriminator 3
	.loc 1 190 280 is_stmt 0 discriminator 3
	slli	t2,a1,30
	srli	a7,a1,2
	.loc 1 190 333 discriminator 3
	slli	s0,a1,19
	.loc 1 190 280 discriminator 3
	or	a7,a7,t2
	.loc 1 190 333 discriminator 3
	srli	t2,a1,13
	or	t2,t2,s0
	.loc 1 190 302 discriminator 3
	xor	a7,a7,t2
	.loc 1 190 387 discriminator 3
	srli	s0,a1,22
	slli	t2,a1,10
	or	t2,t2,s0
	.loc 1 190 356 discriminator 3
	xor	a7,a7,t2
	.loc 1 190 444 discriminator 3
	or	t2,t1,a1
	.loc 1 190 420 discriminator 3
	and	s0,t1,a1
	.loc 1 190 436 discriminator 3
	and	t2,t2,a6
	.loc 1 190 428 discriminator 3
	or	t2,t2,s0
	.loc 1 190 249 discriminator 3
	add	a7,a7,t2
	.loc 1 190 483 discriminator 3
	add	a7,a7,t5
	.loc 1 190 460 discriminator 3
	add	a2,a2,t5
	.loc 1 190 470 is_stmt 1 discriminator 3
	.loc 1 190 493 discriminator 3
	.loc 1 191 11 discriminator 3
	.loc 1 191 17 is_stmt 0 discriminator 3
	lw	t2,-16(t6)
	lw	t5,-16(t4)
.LVL21:
	.loc 1 191 108 discriminator 3
	slli	s0,a2,21
	.loc 1 191 17 discriminator 3
	add	t5,t5,t2
	add	a5,t5,a5
	.loc 1 191 210 discriminator 3
	xor	t5,a4,a3
	.loc 1 191 202 discriminator 3
	and	t5,t5,a2
	.loc 1 191 194 discriminator 3
	xor	t5,t5,a4
	.loc 1 191 17 discriminator 3
	add	a5,a5,t5
	.loc 1 191 55 discriminator 3
	srli	t2,a2,6
	slli	t5,a2,26
	or	t2,t2,t5
	.loc 1 191 108 discriminator 3
	srli	t5,a2,11
	or	t5,t5,s0
	.loc 1 191 77 discriminator 3
	xor	t2,t2,t5
	.loc 1 191 162 discriminator 3
	srli	s0,a2,25
	slli	t5,a2,7
	or	t5,t5,s0
	.loc 1 191 131 discriminator 3
	xor	t5,t2,t5
	.loc 1 191 17 discriminator 3
	add	t5,a5,t5
.LVL22:
	.loc 1 191 243 is_stmt 1 discriminator 3
	.loc 1 191 455 discriminator 3
	.loc 1 191 280 is_stmt 0 discriminator 3
	slli	t2,a7,30
	srli	a5,a7,2
	.loc 1 191 333 discriminator 3
	slli	s0,a7,19
	.loc 1 191 280 discriminator 3
	or	a5,a5,t2
	.loc 1 191 333 discriminator 3
	srli	t2,a7,13
	or	t2,t2,s0
	.loc 1 191 302 discriminator 3
	xor	a5,a5,t2
	.loc 1 191 387 discriminator 3
	srli	s0,a7,22
	slli	t2,a7,10
	or	t2,t2,s0
	.loc 1 191 356 discriminator 3
	xor	a5,a5,t2
	.loc 1 191 444 discriminator 3
	or	t2,a1,a7
	.loc 1 191 420 discriminator 3
	and	s0,a1,a7
	.loc 1 191 436 discriminator 3
	and	t2,t2,t1
	.loc 1 191 428 discriminator 3
	or	t2,t2,s0
	.loc 1 191 249 discriminator 3
	add	a5,a5,t2
	.loc 1 191 483 discriminator 3
	add	a5,a5,t5
	.loc 1 191 460 discriminator 3
	add	a6,a6,t5
	.loc 1 191 470 is_stmt 1 discriminator 3
	.loc 1 191 493 discriminator 3
	.loc 1 192 11 discriminator 3
	.loc 1 192 17 is_stmt 0 discriminator 3
	lw	t2,-12(t6)
	lw	t5,-12(t4)
.LVL23:
	.loc 1 192 108 discriminator 3
	slli	s0,a6,21
	.loc 1 192 17 discriminator 3
	add	t5,t5,t2
	add	a4,t5,a4
	.loc 1 192 210 discriminator 3
	xor	t5,a3,a2
	.loc 1 192 202 discriminator 3
	and	t5,t5,a6
	.loc 1 192 194 discriminator 3
	xor	t5,t5,a3
	.loc 1 192 17 discriminator 3
	add	a4,a4,t5
	.loc 1 192 55 discriminator 3
	srli	t2,a6,6
	slli	t5,a6,26
	or	t2,t2,t5
	.loc 1 192 108 discriminator 3
	srli	t5,a6,11
	or	t5,t5,s0
	.loc 1 192 77 discriminator 3
	xor	t2,t2,t5
	.loc 1 192 162 discriminator 3
	srli	s0,a6,25
	slli	t5,a6,7
	or	t5,t5,s0
	.loc 1 192 131 discriminator 3
	xor	t5,t2,t5
	.loc 1 192 17 discriminator 3
	add	t5,a4,t5
.LVL24:
	.loc 1 192 243 is_stmt 1 discriminator 3
	.loc 1 192 455 discriminator 3
	.loc 1 192 280 is_stmt 0 discriminator 3
	slli	t2,a5,30
	srli	a4,a5,2
	or	a4,a4,t2
	.loc 1 192 333 discriminator 3
	slli	s0,a5,19
	srli	t2,a5,13
	or	t2,t2,s0
	.loc 1 192 302 discriminator 3
	xor	a4,a4,t2
	.loc 1 192 387 discriminator 3
	srli	s0,a5,22
	slli	t2,a5,10
	or	t2,t2,s0
	.loc 1 192 356 discriminator 3
	xor	a4,a4,t2
	.loc 1 192 444 discriminator 3
	or	t2,a7,a5
	.loc 1 192 420 discriminator 3
	and	s0,a7,a5
	.loc 1 192 436 discriminator 3
	and	t2,t2,a1
	.loc 1 192 428 discriminator 3
	or	t2,t2,s0
	.loc 1 192 249 discriminator 3
	add	a4,a4,t2
	.loc 1 192 483 discriminator 3
	add	a4,a4,t5
	.loc 1 192 460 discriminator 3
	add	t1,t1,t5
	.loc 1 192 470 is_stmt 1 discriminator 3
	.loc 1 192 493 discriminator 3
	.loc 1 193 11 discriminator 3
	.loc 1 193 17 is_stmt 0 discriminator 3
	lw	t2,-8(t6)
	lw	t5,-8(t4)
.LVL25:
	.loc 1 193 108 discriminator 3
	slli	s0,t1,21
	.loc 1 193 17 discriminator 3
	add	t5,t5,t2
	add	a3,t5,a3
	.loc 1 193 210 discriminator 3
	xor	t5,a2,a6
	.loc 1 193 202 discriminator 3
	and	t5,t5,t1
	.loc 1 193 194 discriminator 3
	xor	t5,t5,a2
	.loc 1 193 17 discriminator 3
	add	a3,a3,t5
	.loc 1 193 55 discriminator 3
	srli	t2,t1,6
	slli	t5,t1,26
	or	t2,t2,t5
	.loc 1 193 108 discriminator 3
	srli	t5,t1,11
	or	t5,t5,s0
	.loc 1 193 77 discriminator 3
	xor	t2,t2,t5
	.loc 1 193 162 discriminator 3
	srli	s0,t1,25
	slli	t5,t1,7
	or	t5,t5,s0
	.loc 1 193 131 discriminator 3
	xor	t5,t2,t5
	.loc 1 193 17 discriminator 3
	add	t5,a3,t5
.LVL26:
	.loc 1 193 243 is_stmt 1 discriminator 3
	.loc 1 193 455 discriminator 3
	.loc 1 193 280 is_stmt 0 discriminator 3
	slli	t2,a4,30
	srli	a3,a4,2
	or	a3,a3,t2
	.loc 1 193 333 discriminator 3
	slli	s0,a4,19
	srli	t2,a4,13
	or	t2,t2,s0
	.loc 1 193 302 discriminator 3
	xor	a3,a3,t2
	.loc 1 193 387 discriminator 3
	srli	s0,a4,22
	slli	t2,a4,10
	or	t2,t2,s0
	.loc 1 193 356 discriminator 3
	xor	a3,a3,t2
	.loc 1 193 444 discriminator 3
	or	t2,a5,a4
	.loc 1 193 436 discriminator 3
	and	t2,t2,a7
	.loc 1 193 420 discriminator 3
	and	s0,a5,a4
	.loc 1 193 428 discriminator 3
	or	t2,t2,s0
	.loc 1 193 249 discriminator 3
	add	a3,a3,t2
	.loc 1 193 483 discriminator 3
	add	a3,a3,t5
	.loc 1 193 460 discriminator 3
	add	a1,a1,t5
	.loc 1 193 470 is_stmt 1 discriminator 3
	.loc 1 193 493 discriminator 3
	.loc 1 194 11 discriminator 3
	.loc 1 194 17 is_stmt 0 discriminator 3
	lw	t2,-4(t6)
	lw	t5,-4(t4)
.LVL27:
	.loc 1 194 108 discriminator 3
	slli	s0,a1,21
	.loc 1 194 17 discriminator 3
	add	t5,t5,t2
	add	a2,t5,a2
	.loc 1 194 210 discriminator 3
	xor	t5,a6,t1
	.loc 1 194 202 discriminator 3
	and	t5,t5,a1
	.loc 1 194 194 discriminator 3
	xor	t5,t5,a6
	.loc 1 194 17 discriminator 3
	add	a2,a2,t5
	.loc 1 194 55 discriminator 3
	srli	t2,a1,6
	slli	t5,a1,26
	or	t2,t2,t5
	.loc 1 194 108 discriminator 3
	srli	t5,a1,11
	or	t5,t5,s0
	.loc 1 194 77 discriminator 3
	xor	t2,t2,t5
	.loc 1 194 162 discriminator 3
	srli	s0,a1,25
	slli	t5,a1,7
	or	t5,t5,s0
	.loc 1 194 131 discriminator 3
	xor	t5,t2,t5
	.loc 1 194 17 discriminator 3
	add	t5,a2,t5
.LVL28:
	.loc 1 194 243 is_stmt 1 discriminator 3
	.loc 1 194 455 discriminator 3
	.loc 1 194 280 is_stmt 0 discriminator 3
	slli	t2,a3,30
	srli	a2,a3,2
	or	a2,a2,t2
	.loc 1 194 333 discriminator 3
	slli	s0,a3,19
	srli	t2,a3,13
	or	t2,t2,s0
	.loc 1 194 302 discriminator 3
	xor	a2,a2,t2
	.loc 1 194 387 discriminator 3
	srli	s0,a3,22
	slli	t2,a3,10
	or	t2,t2,s0
	.loc 1 194 356 discriminator 3
	xor	a2,a2,t2
	.loc 1 194 444 discriminator 3
	or	t2,a4,a3
	.loc 1 194 436 discriminator 3
	and	t2,t2,a5
	.loc 1 194 420 discriminator 3
	and	s0,a4,a3
	.loc 1 194 428 discriminator 3
	or	t2,t2,s0
	.loc 1 194 249 discriminator 3
	add	a2,a2,t2
	.loc 1 194 460 discriminator 3
	add	a7,a7,t5
	.loc 1 194 470 is_stmt 1 discriminator 3
	.loc 1 194 483 is_stmt 0 discriminator 3
	add	a2,a2,t5
	.loc 1 194 493 is_stmt 1 discriminator 3
	.loc 1 186 5 is_stmt 0 discriminator 3
	bne	t0,t4,.L15
	sw	a6,28(sp)
	sw	a7,16(sp)
	sw	t1,24(sp)
	sw	a1,20(sp)
	sw	a2,0(sp)
	sw	a3,4(sp)
	sw	a4,8(sp)
	sw	a5,12(sp)
	addi	s4,t3,192
.LVL29:
.L16:
	.loc 1 198 11 is_stmt 1 discriminator 3
	.loc 1 198 251 is_stmt 0 discriminator 3
	lw	s5,56(t3)
	.loc 1 198 446 discriminator 3
	lw	t5,4(t3)
	.loc 1 199 251 discriminator 3
	lw	s6,60(t3)
	.loc 1 198 284 discriminator 3
	srli	t6,s5,17
	slli	t4,s5,15
	.loc 1 198 354 discriminator 3
	srli	t0,s5,19
	.loc 1 198 284 discriminator 3
	or	t4,t4,t6
	.loc 1 198 354 discriminator 3
	slli	t6,s5,13
	or	t6,t6,t0
	.loc 1 198 315 discriminator 3
	xor	t4,t4,t6
	.loc 1 198 416 discriminator 3
	srli	t6,s5,10
	.loc 1 198 621 discriminator 3
	lw	t0,0(t3)
	.loc 1 198 385 discriminator 3
	xor	t4,t4,t6
	.loc 1 198 621 discriminator 3
	lw	t6,36(t3)
	.loc 1 198 550 discriminator 3
	srli	t2,t5,18
	.loc 1 199 284 discriminator 3
	slli	s0,s6,15
	.loc 1 198 621 discriminator 3
	add	t6,t6,t0
	add	t4,t4,t6
	.loc 1 198 479 discriminator 3
	slli	t0,t5,25
	srli	t6,t5,7
	or	t6,t6,t0
	.loc 1 198 550 discriminator 3
	slli	t0,t5,14
	or	t0,t0,t2
	.loc 1 198 510 discriminator 3
	xor	t6,t6,t0
	.loc 1 198 614 discriminator 3
	srli	t0,t5,3
	.loc 1 198 582 discriminator 3
	xor	t6,t6,t0
	.loc 1 198 621 discriminator 3
	add	t4,t4,t6
	.loc 1 198 55 discriminator 3
	slli	t0,a7,26
	srli	t6,a7,6
	.loc 1 198 108 discriminator 3
	slli	t2,a7,21
	.loc 1 198 55 discriminator 3
	or	t6,t6,t0
	.loc 1 198 108 discriminator 3
	srli	t0,a7,11
	or	t0,t0,t2
	.loc 1 198 77 discriminator 3
	xor	t6,t6,t0
	.loc 1 198 162 discriminator 3
	srli	t2,a7,25
	slli	t0,a7,7
	or	t0,t0,t2
	.loc 1 198 131 discriminator 3
	xor	t6,t6,t0
	.loc 1 198 210 discriminator 3
	xor	t0,t1,a1
	.loc 1 198 202 discriminator 3
	and	t0,t0,a7
	.loc 1 198 194 discriminator 3
	xor	t0,t0,t1
	add	t6,t6,t0
	lw	t0,64(s1)
	.loc 1 198 730 discriminator 3
	slli	t2,a2,19
	.loc 1 200 446 discriminator 3
	lw	s7,12(t3)
	add	t6,t6,t0
	add	t6,t6,t4
	.loc 1 198 17 discriminator 3
	add	a6,a6,t6
.LVL30:
	.loc 1 198 640 is_stmt 1 discriminator 3
	.loc 1 198 852 discriminator 3
	.loc 1 198 677 is_stmt 0 discriminator 3
	slli	t0,a2,30
	srli	t6,a2,2
	or	t6,t6,t0
	.loc 1 198 730 discriminator 3
	srli	t0,a2,13
	or	t0,t0,t2
	.loc 1 198 699 discriminator 3
	xor	t6,t6,t0
	.loc 1 198 784 discriminator 3
	srli	t2,a2,22
	slli	t0,a2,10
	or	t0,t0,t2
	.loc 1 198 753 discriminator 3
	xor	t6,t6,t0
	.loc 1 198 841 discriminator 3
	or	t0,a2,a3
	.loc 1 198 817 discriminator 3
	and	t2,a2,a3
	.loc 1 198 833 discriminator 3
	and	t0,t0,a4
	.loc 1 198 825 discriminator 3
	or	t0,t0,t2
	.loc 1 198 646 discriminator 3
	add	t6,t6,t0
	.loc 1 199 284 discriminator 3
	srli	t0,s6,17
	.loc 1 199 354 discriminator 3
	srli	t2,s6,19
	.loc 1 199 284 discriminator 3
	or	s0,s0,t0
	.loc 1 199 354 discriminator 3
	slli	t0,s6,13
	or	t0,t0,t2
	.loc 1 199 315 discriminator 3
	xor	s0,s0,t0
	.loc 1 199 416 discriminator 3
	srli	t0,s6,10
	.loc 1 199 385 discriminator 3
	xor	s0,s0,t0
	.loc 1 199 621 discriminator 3
	lw	t0,40(t3)
	.loc 1 198 857 discriminator 3
	add	a5,a5,a6
	.loc 1 198 867 is_stmt 1 discriminator 3
	.loc 1 198 880 is_stmt 0 discriminator 3
	add	a6,t6,a6
.LVL31:
	.loc 1 198 890 is_stmt 1 discriminator 3
	.loc 1 199 11 discriminator 3
	.loc 1 199 446 is_stmt 0 discriminator 3
	lw	t6,8(t3)
	.loc 1 199 621 discriminator 3
	add	t5,t5,t0
	add	s0,s0,t5
	.loc 1 199 479 discriminator 3
	srli	t0,t6,7
	slli	t5,t6,25
	.loc 1 199 550 discriminator 3
	srli	t2,t6,18
	.loc 1 199 479 discriminator 3
	or	t0,t0,t5
	.loc 1 199 550 discriminator 3
	slli	t5,t6,14
	or	t5,t5,t2
	.loc 1 199 510 discriminator 3
	xor	t0,t0,t5
	.loc 1 199 614 discriminator 3
	srli	t5,t6,3
	.loc 1 199 582 discriminator 3
	xor	t0,t0,t5
	.loc 1 199 621 discriminator 3
	add	s0,s0,t0
	lw	t0,68(s1)
	.loc 1 199 210 discriminator 3
	xor	t5,a7,a1
	.loc 1 199 202 discriminator 3
	and	t5,t5,a5
	add	t1,t1,t0
	add	t1,t1,s0
	.loc 1 199 194 discriminator 3
	xor	t5,t5,a1
	.loc 1 199 55 discriminator 3
	slli	t0,a5,26
	add	t5,t5,t1
	srli	t1,a5,6
	.loc 1 199 108 discriminator 3
	slli	t2,a5,21
	.loc 1 199 55 discriminator 3
	or	t1,t1,t0
	.loc 1 199 108 discriminator 3
	srli	t0,a5,11
	or	t0,t0,t2
	.loc 1 199 77 discriminator 3
	xor	t1,t1,t0
	.loc 1 199 162 discriminator 3
	srli	t2,a5,25
	slli	t0,a5,7
	or	t0,t0,t2
	.loc 1 199 131 discriminator 3
	xor	t1,t1,t0
	.loc 1 199 17 discriminator 3
	add	t5,t1,t5
.LVL32:
	.loc 1 199 640 is_stmt 1 discriminator 3
	.loc 1 199 852 discriminator 3
	.loc 1 199 677 is_stmt 0 discriminator 3
	slli	t0,a6,30
	srli	t1,a6,2
	.loc 1 199 730 discriminator 3
	slli	t2,a6,19
	.loc 1 199 677 discriminator 3
	or	t1,t1,t0
	.loc 1 199 730 discriminator 3
	srli	t0,a6,13
	or	t0,t0,t2
	.loc 1 199 699 discriminator 3
	xor	t1,t1,t0
	.loc 1 199 784 discriminator 3
	srli	t2,a6,22
	slli	t0,a6,10
	or	t0,t0,t2
	.loc 1 199 753 discriminator 3
	xor	t1,t1,t0
	.loc 1 199 841 discriminator 3
	or	t0,a2,a6
	.loc 1 199 817 discriminator 3
	and	t2,a2,a6
	.loc 1 199 833 discriminator 3
	and	t0,t0,a3
	.loc 1 199 825 discriminator 3
	or	t0,t0,t2
	.loc 1 199 646 discriminator 3
	add	t1,t1,t0
	.loc 1 199 880 discriminator 3
	add	t1,t1,t5
	.loc 1 199 857 discriminator 3
	add	a4,a4,t5
	.loc 1 199 867 is_stmt 1 discriminator 3
	.loc 1 199 890 discriminator 3
	.loc 1 200 11 discriminator 3
	.loc 1 200 284 is_stmt 0 discriminator 3
	slli	t2,t4,15
	srli	t5,t4,17
.LVL33:
	.loc 1 200 354 discriminator 3
	srli	t0,t4,19
	.loc 1 200 284 discriminator 3
	or	t2,t2,t5
	.loc 1 200 354 discriminator 3
	slli	t5,t4,13
	or	t5,t5,t0
	.loc 1 200 315 discriminator 3
	xor	t2,t2,t5
	.loc 1 200 416 discriminator 3
	srli	t5,t4,10
	.loc 1 200 385 discriminator 3
	xor	t2,t2,t5
	.loc 1 200 621 discriminator 3
	lw	t5,44(t3)
	.loc 1 200 550 discriminator 3
	srli	t0,s7,18
	.loc 1 201 354 discriminator 3
	srli	s8,s0,19
	.loc 1 200 621 discriminator 3
	add	t6,t6,t5
	add	t2,t2,t6
	.loc 1 200 479 discriminator 3
	slli	t5,s7,25
	srli	t6,s7,7
	or	t6,t6,t5
	.loc 1 200 550 discriminator 3
	slli	t5,s7,14
	or	t5,t5,t0
	.loc 1 200 510 discriminator 3
	xor	t6,t6,t5
	.loc 1 200 614 discriminator 3
	srli	t5,s7,3
	.loc 1 200 582 discriminator 3
	xor	t6,t6,t5
	.loc 1 200 621 discriminator 3
	add	t2,t2,t6
	lw	t6,72(s1)
	.loc 1 200 210 discriminator 3
	xor	t5,a7,a5
	.loc 1 200 202 discriminator 3
	and	t5,t5,a4
	add	a1,a1,t6
	add	a1,a1,t2
	.loc 1 200 194 discriminator 3
	xor	t5,t5,a7
	.loc 1 200 55 discriminator 3
	slli	t6,a4,26
	add	t5,t5,a1
	srli	a1,a4,6
	.loc 1 200 108 discriminator 3
	slli	t0,a4,21
	.loc 1 200 55 discriminator 3
	or	a1,a1,t6
	.loc 1 200 108 discriminator 3
	srli	t6,a4,11
	or	t6,t6,t0
	.loc 1 200 77 discriminator 3
	xor	a1,a1,t6
	.loc 1 200 162 discriminator 3
	srli	t0,a4,25
	slli	t6,a4,7
	or	t6,t6,t0
	.loc 1 200 131 discriminator 3
	xor	a1,a1,t6
	.loc 1 200 17 discriminator 3
	add	t5,a1,t5
.LVL34:
	.loc 1 200 640 is_stmt 1 discriminator 3
	.loc 1 200 852 discriminator 3
	.loc 1 200 677 is_stmt 0 discriminator 3
	slli	t6,t1,30
	srli	a1,t1,2
	.loc 1 200 730 discriminator 3
	slli	t0,t1,19
	.loc 1 200 677 discriminator 3
	or	a1,a1,t6
	.loc 1 200 730 discriminator 3
	srli	t6,t1,13
	or	t6,t6,t0
	.loc 1 200 699 discriminator 3
	xor	a1,a1,t6
	.loc 1 200 784 discriminator 3
	srli	t0,t1,22
	slli	t6,t1,10
	or	t6,t6,t0
	.loc 1 200 753 discriminator 3
	xor	a1,a1,t6
	.loc 1 200 841 discriminator 3
	or	t6,a6,t1
	.loc 1 200 817 discriminator 3
	and	t0,a6,t1
	.loc 1 200 833 discriminator 3
	and	t6,t6,a2
	.loc 1 200 825 discriminator 3
	or	t6,t6,t0
	.loc 1 200 646 discriminator 3
	add	a1,a1,t6
	.loc 1 201 284 discriminator 3
	slli	t0,s0,15
	srli	t6,s0,17
	or	t0,t0,t6
	.loc 1 201 354 discriminator 3
	slli	t6,s0,13
	or	t6,t6,s8
	.loc 1 201 315 discriminator 3
	xor	t0,t0,t6
	.loc 1 199 244 discriminator 3
	sw	s0,68(t3)
	.loc 1 201 416 discriminator 3
	srli	s0,s0,10
	.loc 1 201 385 discriminator 3
	xor	s0,t0,s0
	.loc 1 201 621 discriminator 3
	lw	t0,48(t3)
	.loc 1 200 880 discriminator 3
	add	a1,a1,t5
	.loc 1 200 857 discriminator 3
	add	a3,a3,t5
	.loc 1 200 867 is_stmt 1 discriminator 3
	.loc 1 200 890 discriminator 3
	.loc 1 201 11 discriminator 3
	.loc 1 201 446 is_stmt 0 discriminator 3
	lw	t5,16(t3)
.LVL35:
	.loc 1 201 621 discriminator 3
	add	s7,s7,t0
	add	t0,s0,s7
	.loc 1 201 479 discriminator 3
	srli	t6,t5,7
	slli	s0,t5,25
	.loc 1 201 550 discriminator 3
	srli	s7,t5,18
	.loc 1 201 479 discriminator 3
	or	t6,t6,s0
	.loc 1 201 550 discriminator 3
	slli	s0,t5,14
	or	s0,s0,s7
	.loc 1 201 510 discriminator 3
	xor	t6,t6,s0
	.loc 1 201 614 discriminator 3
	srli	s0,t5,3
	.loc 1 201 582 discriminator 3
	xor	t6,t6,s0
	lw	s0,76(s1)
	.loc 1 201 621 discriminator 3
	add	t0,t0,t6
	.loc 1 201 210 discriminator 3
	xor	t6,a5,a4
	.loc 1 201 202 discriminator 3
	and	t6,t6,a3
	add	a7,a7,s0
	add	a7,a7,t0
	.loc 1 201 194 discriminator 3
	xor	t6,t6,a5
	.loc 1 201 55 discriminator 3
	slli	s0,a3,26
	add	t6,t6,a7
	srli	a7,a3,6
	.loc 1 201 108 discriminator 3
	slli	s7,a3,21
	.loc 1 201 55 discriminator 3
	or	a7,a7,s0
	.loc 1 201 108 discriminator 3
	srli	s0,a3,11
	or	s0,s0,s7
	.loc 1 201 77 discriminator 3
	xor	a7,a7,s0
	.loc 1 201 162 discriminator 3
	srli	s7,a3,25
	slli	s0,a3,7
	or	s0,s0,s7
	.loc 1 201 131 discriminator 3
	xor	a7,a7,s0
	.loc 1 201 17 discriminator 3
	add	t6,a7,t6
.LVL36:
	.loc 1 201 640 is_stmt 1 discriminator 3
	.loc 1 201 852 discriminator 3
	.loc 1 201 677 is_stmt 0 discriminator 3
	slli	s0,a1,30
	srli	a7,a1,2
	.loc 1 201 730 discriminator 3
	slli	s7,a1,19
	.loc 1 201 677 discriminator 3
	or	a7,a7,s0
	.loc 1 201 730 discriminator 3
	srli	s0,a1,13
	or	s0,s0,s7
	.loc 1 201 699 discriminator 3
	xor	a7,a7,s0
	.loc 1 201 784 discriminator 3
	srli	s7,a1,22
	slli	s0,a1,10
	or	s0,s0,s7
	.loc 1 201 753 discriminator 3
	xor	a7,a7,s0
	.loc 1 201 841 discriminator 3
	or	s0,t1,a1
	.loc 1 201 817 discriminator 3
	and	s7,t1,a1
	.loc 1 201 833 discriminator 3
	and	s0,s0,a6
	.loc 1 201 825 discriminator 3
	or	s0,s0,s7
	.loc 1 201 646 discriminator 3
	add	a7,a7,s0
	.loc 1 201 880 discriminator 3
	add	a7,a7,t6
	.loc 1 201 857 discriminator 3
	add	a2,a2,t6
	.loc 1 201 867 is_stmt 1 discriminator 3
	.loc 1 201 890 discriminator 3
	.loc 1 202 11 discriminator 3
	.loc 1 202 284 is_stmt 0 discriminator 3
	srli	s0,t2,17
	slli	t6,t2,15
.LVL37:
	.loc 1 202 354 discriminator 3
	srli	s8,t2,19
	.loc 1 202 284 discriminator 3
	or	t6,t6,s0
	.loc 1 202 354 discriminator 3
	slli	s0,t2,13
	or	s0,s0,s8
	.loc 1 202 315 discriminator 3
	xor	t6,t6,s0
	.loc 1 200 244 discriminator 3
	sw	t2,72(t3)
	.loc 1 202 416 discriminator 3
	srli	t2,t2,10
	.loc 1 202 385 discriminator 3
	xor	t2,t6,t2
	.loc 1 202 621 discriminator 3
	lw	t6,52(t3)
	.loc 1 202 446 discriminator 3
	lw	s7,20(t3)
	.loc 1 203 354 discriminator 3
	srli	s8,t0,19
	.loc 1 202 621 discriminator 3
	add	t5,t5,t6
	add	t6,t2,t5
	.loc 1 202 479 discriminator 3
	slli	t2,s7,25
	srli	t5,s7,7
	.loc 1 202 550 discriminator 3
	srli	s0,s7,18
	.loc 1 202 479 discriminator 3
	or	t5,t5,t2
	.loc 1 202 550 discriminator 3
	slli	t2,s7,14
	or	t2,t2,s0
	.loc 1 202 510 discriminator 3
	xor	t5,t5,t2
	.loc 1 202 614 discriminator 3
	srli	t2,s7,3
	.loc 1 202 582 discriminator 3
	xor	t5,t5,t2
	lw	t2,80(s1)
	.loc 1 202 621 discriminator 3
	add	t6,t6,t5
	.loc 1 202 210 discriminator 3
	xor	t5,a4,a3
	add	t2,t6,t2
	.loc 1 202 202 discriminator 3
	and	t5,t5,a2
	.loc 1 202 194 discriminator 3
	xor	t5,t5,a4
	add	a5,t2,a5
	add	t2,t5,a5
	.loc 1 202 55 discriminator 3
	slli	a5,a2,26
	srli	t5,a2,6
	.loc 1 202 108 discriminator 3
	slli	s0,a2,21
	.loc 1 202 55 discriminator 3
	or	t5,t5,a5
	.loc 1 202 108 discriminator 3
	srli	a5,a2,11
	or	a5,a5,s0
	.loc 1 202 77 discriminator 3
	xor	t5,t5,a5
	.loc 1 202 162 discriminator 3
	srli	s0,a2,25
	slli	a5,a2,7
	or	a5,a5,s0
	.loc 1 202 131 discriminator 3
	xor	a5,t5,a5
	.loc 1 202 17 discriminator 3
	add	t5,a5,t2
.LVL38:
	.loc 1 202 640 is_stmt 1 discriminator 3
	.loc 1 202 852 discriminator 3
	.loc 1 202 677 is_stmt 0 discriminator 3
	slli	t2,a7,30
	srli	a5,a7,2
	.loc 1 202 730 discriminator 3
	slli	s0,a7,19
	.loc 1 202 677 discriminator 3
	or	a5,a5,t2
	.loc 1 202 730 discriminator 3
	srli	t2,a7,13
	or	t2,t2,s0
	.loc 1 202 699 discriminator 3
	xor	a5,a5,t2
	.loc 1 202 784 discriminator 3
	srli	s0,a7,22
	slli	t2,a7,10
	or	t2,t2,s0
	.loc 1 202 753 discriminator 3
	xor	a5,a5,t2
	.loc 1 202 841 discriminator 3
	or	t2,a1,a7
	.loc 1 202 817 discriminator 3
	and	s0,a1,a7
	.loc 1 202 833 discriminator 3
	and	t2,t2,t1
	.loc 1 202 825 discriminator 3
	or	t2,t2,s0
	.loc 1 202 646 discriminator 3
	add	a5,a5,t2
	.loc 1 202 880 discriminator 3
	add	a5,a5,t5
	.loc 1 202 857 discriminator 3
	add	a6,a6,t5
	.loc 1 202 867 is_stmt 1 discriminator 3
	.loc 1 202 890 discriminator 3
	.loc 1 203 11 discriminator 3
	.loc 1 203 284 is_stmt 0 discriminator 3
	srli	t2,t0,17
	slli	t5,t0,15
.LVL39:
	.loc 1 203 446 discriminator 3
	lw	s0,24(t3)
	.loc 1 203 284 discriminator 3
	or	t5,t5,t2
	.loc 1 203 354 discriminator 3
	slli	t2,t0,13
	or	t2,t2,s8
	.loc 1 201 244 discriminator 3
	sw	t0,76(t3)
	.loc 1 203 315 discriminator 3
	xor	t5,t5,t2
	.loc 1 203 416 discriminator 3
	srli	t0,t0,10
	.loc 1 203 621 discriminator 3
	add	s5,s5,s7
	.loc 1 203 479 discriminator 3
	slli	t2,s0,25
	.loc 1 203 385 discriminator 3
	xor	t5,t5,t0
	.loc 1 203 479 discriminator 3
	srli	t0,s0,7
	.loc 1 203 621 discriminator 3
	add	t5,t5,s5
	.loc 1 203 479 discriminator 3
	or	t0,t0,t2
	.loc 1 203 550 discriminator 3
	srli	s5,s0,18
	slli	t2,s0,14
	or	t2,t2,s5
	.loc 1 203 510 discriminator 3
	xor	t0,t0,t2
	.loc 1 203 614 discriminator 3
	srli	t2,s0,3
	.loc 1 203 582 discriminator 3
	xor	t0,t0,t2
	lw	t2,84(s1)
	.loc 1 203 621 discriminator 3
	add	t5,t5,t0
	.loc 1 203 210 discriminator 3
	xor	t0,a3,a2
	add	t2,t5,t2
	.loc 1 203 202 discriminator 3
	and	t0,t0,a6
	.loc 1 203 194 discriminator 3
	xor	t0,t0,a3
	add	a4,t2,a4
	add	t2,t0,a4
	.loc 1 203 55 discriminator 3
	slli	a4,a6,26
	srli	t0,a6,6
	or	t0,t0,a4
	.loc 1 203 108 discriminator 3
	slli	s5,a6,21
	srli	a4,a6,11
	or	a4,a4,s5
	.loc 1 203 77 discriminator 3
	xor	t0,t0,a4
	.loc 1 203 162 discriminator 3
	srli	s5,a6,25
	slli	a4,a6,7
	or	a4,a4,s5
	.loc 1 203 131 discriminator 3
	xor	a4,t0,a4
	.loc 1 203 17 discriminator 3
	add	t0,a4,t2
.LVL40:
	.loc 1 203 640 is_stmt 1 discriminator 3
	.loc 1 203 852 discriminator 3
	.loc 1 203 677 is_stmt 0 discriminator 3
	slli	t2,a5,30
	srli	a4,a5,2
	or	a4,a4,t2
	.loc 1 203 730 discriminator 3
	slli	s5,a5,19
	srli	t2,a5,13
	or	t2,t2,s5
	.loc 1 203 699 discriminator 3
	xor	a4,a4,t2
	.loc 1 203 784 discriminator 3
	srli	s5,a5,22
	slli	t2,a5,10
	or	t2,t2,s5
	.loc 1 203 753 discriminator 3
	xor	a4,a4,t2
	.loc 1 203 841 discriminator 3
	or	t2,a7,a5
	.loc 1 203 817 discriminator 3
	and	s5,a7,a5
	.loc 1 203 833 discriminator 3
	and	t2,t2,a1
	.loc 1 203 825 discriminator 3
	or	t2,t2,s5
	.loc 1 203 646 discriminator 3
	add	a4,a4,t2
	.loc 1 204 284 discriminator 3
	srli	s5,t6,17
	slli	t2,t6,15
	or	t2,t2,s5
	.loc 1 204 354 discriminator 3
	srli	s7,t6,19
	slli	s5,t6,13
	.loc 1 203 880 discriminator 3
	add	a4,a4,t0
	.loc 1 203 857 discriminator 3
	add	t1,t1,t0
	.loc 1 203 867 is_stmt 1 discriminator 3
	.loc 1 203 890 discriminator 3
	.loc 1 204 11 discriminator 3
	.loc 1 204 354 is_stmt 0 discriminator 3
	or	s5,s5,s7
	.loc 1 204 446 discriminator 3
	lw	t0,28(t3)
.LVL41:
	.loc 1 204 315 discriminator 3
	xor	t2,t2,s5
	.loc 1 202 244 discriminator 3
	sw	t6,80(t3)
	.loc 1 204 416 discriminator 3
	srli	t6,t6,10
	.loc 1 204 385 discriminator 3
	xor	t6,t2,t6
	.loc 1 204 621 discriminator 3
	add	s6,s6,s0
	.loc 1 204 479 discriminator 3
	slli	t2,t0,25
	.loc 1 204 621 discriminator 3
	add	s6,t6,s6
	.loc 1 204 479 discriminator 3
	srli	t6,t0,7
	.loc 1 204 550 discriminator 3
	srli	s0,t0,18
	.loc 1 204 479 discriminator 3
	or	t6,t6,t2
	.loc 1 204 550 discriminator 3
	slli	t2,t0,14
	or	t2,t2,s0
	.loc 1 204 510 discriminator 3
	xor	t6,t6,t2
	.loc 1 204 614 discriminator 3
	srli	t2,t0,3
	.loc 1 204 582 discriminator 3
	xor	t6,t6,t2
	lw	t2,88(s1)
	.loc 1 204 621 discriminator 3
	add	s6,s6,t6
	.loc 1 204 210 discriminator 3
	xor	t6,a2,a6
	add	t2,s6,t2
	.loc 1 204 202 discriminator 3
	and	t6,t6,t1
	.loc 1 204 194 discriminator 3
	xor	t6,t6,a2
	add	a3,t2,a3
	add	t2,t6,a3
	.loc 1 204 55 discriminator 3
	slli	a3,t1,26
	srli	t6,t1,6
	or	t6,t6,a3
	.loc 1 204 108 discriminator 3
	slli	s0,t1,21
	srli	a3,t1,11
	or	a3,a3,s0
	.loc 1 204 77 discriminator 3
	xor	t6,t6,a3
	.loc 1 204 162 discriminator 3
	srli	s0,t1,25
	slli	a3,t1,7
	or	a3,a3,s0
	.loc 1 204 131 discriminator 3
	xor	a3,t6,a3
	.loc 1 204 17 discriminator 3
	add	t6,a3,t2
.LVL42:
	.loc 1 204 640 is_stmt 1 discriminator 3
	.loc 1 204 852 discriminator 3
	.loc 1 204 677 is_stmt 0 discriminator 3
	slli	t2,a4,30
	srli	a3,a4,2
	or	a3,a3,t2
	.loc 1 204 730 discriminator 3
	slli	s0,a4,19
	srli	t2,a4,13
	or	t2,t2,s0
	.loc 1 204 699 discriminator 3
	xor	a3,a3,t2
	.loc 1 204 784 discriminator 3
	srli	s0,a4,22
	slli	t2,a4,10
	or	t2,t2,s0
	.loc 1 204 753 discriminator 3
	xor	a3,a3,t2
	.loc 1 204 841 discriminator 3
	or	t2,a5,a4
	.loc 1 204 833 discriminator 3
	and	t2,t2,a7
	.loc 1 204 817 discriminator 3
	and	s0,a5,a4
	.loc 1 204 825 discriminator 3
	or	t2,t2,s0
	.loc 1 204 646 discriminator 3
	add	a3,a3,t2
	.loc 1 204 880 discriminator 3
	add	a3,a3,t6
	.loc 1 204 857 discriminator 3
	add	a1,a1,t6
	.loc 1 204 867 is_stmt 1 discriminator 3
	.loc 1 204 890 discriminator 3
	.loc 1 205 11 discriminator 3
	.loc 1 205 284 is_stmt 0 discriminator 3
	srli	s0,t5,17
	slli	t6,t5,15
.LVL43:
	or	t6,t6,s0
	.loc 1 205 354 discriminator 3
	srli	s5,t5,19
	slli	s0,t5,13
	.loc 1 205 446 discriminator 3
	lw	t2,32(t3)
	.loc 1 205 354 discriminator 3
	or	s0,s0,s5
	.loc 1 203 244 discriminator 3
	sw	t5,84(t3)
	.loc 1 205 315 discriminator 3
	xor	t6,t6,s0
	.loc 1 205 416 discriminator 3
	srli	t5,t5,10
	.loc 1 205 385 discriminator 3
	xor	t5,t6,t5
	.loc 1 198 244 discriminator 3
	sw	t4,64(t3)
	.loc 1 205 621 discriminator 3
	add	t4,t4,t0
	.loc 1 205 479 discriminator 3
	slli	t6,t2,25
	.loc 1 205 621 discriminator 3
	add	t4,t5,t4
	.loc 1 205 479 discriminator 3
	srli	t5,t2,7
	or	t5,t5,t6
	.loc 1 205 550 discriminator 3
	srli	t0,t2,18
	slli	t6,t2,14
	or	t6,t6,t0
	.loc 1 205 510 discriminator 3
	xor	t5,t5,t6
	.loc 1 205 614 discriminator 3
	srli	t2,t2,3
	lw	t6,92(s1)
	.loc 1 205 582 discriminator 3
	xor	t5,t5,t2
	.loc 1 205 621 discriminator 3
	add	t4,t4,t5
	.loc 1 205 210 discriminator 3
	xor	t5,a6,t1
	add	t6,t4,t6
	.loc 1 205 202 discriminator 3
	and	t5,t5,a1
	.loc 1 205 194 discriminator 3
	xor	t5,t5,a6
	add	a2,t6,a2
	add	a2,t5,a2
	.loc 1 205 244 discriminator 3
	sw	t4,92(t3)
	.loc 1 205 55 discriminator 3
	slli	t5,a1,26
	srli	t4,a1,6
	or	t4,t4,t5
	.loc 1 205 108 discriminator 3
	slli	t6,a1,21
	srli	t5,a1,11
	or	t5,t5,t6
	.loc 1 205 77 discriminator 3
	xor	t4,t4,t5
	.loc 1 205 162 discriminator 3
	srli	t6,a1,25
	slli	t5,a1,7
	or	t5,t5,t6
	.loc 1 205 131 discriminator 3
	xor	t4,t4,t5
	.loc 1 205 17 discriminator 3
	add	t4,t4,a2
.LVL44:
	.loc 1 205 640 is_stmt 1 discriminator 3
	.loc 1 205 852 discriminator 3
	.loc 1 205 677 is_stmt 0 discriminator 3
	slli	t5,a3,30
	srli	a2,a3,2
	or	a2,a2,t5
	.loc 1 205 730 discriminator 3
	slli	t6,a3,19
	srli	t5,a3,13
	or	t5,t5,t6
	.loc 1 205 699 discriminator 3
	xor	a2,a2,t5
	.loc 1 205 784 discriminator 3
	srli	t6,a3,22
	slli	t5,a3,10
	or	t5,t5,t6
	.loc 1 205 753 discriminator 3
	xor	a2,a2,t5
	.loc 1 205 841 discriminator 3
	or	t5,a4,a3
	.loc 1 205 833 discriminator 3
	and	t5,t5,a5
	.loc 1 205 817 discriminator 3
	and	t6,a4,a3
	.loc 1 205 825 discriminator 3
	or	t5,t5,t6
	.loc 1 204 244 discriminator 3
	sw	s6,88(t3)
	.loc 1 205 646 discriminator 3
	add	a2,a2,t5
	addi	t3,t3,32
	.loc 1 205 857 discriminator 3
	add	a7,a7,t4
	.loc 1 205 867 is_stmt 1 discriminator 3
	.loc 1 205 880 is_stmt 0 discriminator 3
	add	a2,a2,t4
	.loc 1 205 890 is_stmt 1 discriminator 3
	addi	s1,s1,32
	.loc 1 197 5 is_stmt 0 discriminator 3
	bne	s4,t3,.L16
	sw	a6,28(sp)
	sw	a7,16(sp)
	sw	t1,24(sp)
	sw	a1,20(sp)
	sw	a2,0(sp)
	sw	a3,4(sp)
	sw	a4,8(sp)
	sw	a5,12(sp)
.LVL45:
.L17:
	.loc 1 210 9 is_stmt 1 discriminator 3
	.loc 1 210 23 is_stmt 0 discriminator 3
	lw	a5,0(s2)
	lw	a4,0(s3)
	addi	s2,s2,4
	addi	s3,s3,4
	add	a5,a5,a4
	sw	a5,-4(s2)
	.loc 1 209 5 discriminator 3
	bne	a0,s2,.L17
	.loc 1 212 1
	lw	s0,332(sp)
	.cfi_restore 8
	lw	s1,328(sp)
	.cfi_restore 9
	lw	s2,324(sp)
	.cfi_restore 18
	lw	s3,320(sp)
	.cfi_restore 19
	lw	s4,316(sp)
	.cfi_restore 20
	lw	s5,312(sp)
	.cfi_restore 21
	lw	s6,308(sp)
	.cfi_restore 22
	lw	s7,304(sp)
	.cfi_restore 23
	lw	s8,300(sp)
	.cfi_restore 24
	addi	sp,sp,336
	.cfi_def_cfa_offset 0
.LVL46:
	jr	ra
	.cfi_endproc
.LFE6:
	.size	utils_sha256_process, .-utils_sha256_process
	.section	.text.utils_sha256_update.part.0,"ax",@progbits
	.align	1
	.type	utils_sha256_update.part.0, @function
utils_sha256_update.part.0:
.LFB10:
	.loc 1 213 6 is_stmt 1
	.cfi_startproc
.LVL47:
	.loc 1 222 5
	.loc 1 213 6 is_stmt 0
	addi	sp,sp,-32
	.cfi_def_cfa_offset 32
	sw	s0,24(sp)
	sw	s1,20(sp)
	sw	s2,16(sp)
	sw	s3,12(sp)
	sw	ra,28(sp)
	sw	s4,8(sp)
	sw	s5,4(sp)
	sw	s6,0(sp)
	.cfi_offset 8, -8
	.cfi_offset 9, -12
	.cfi_offset 18, -16
	.cfi_offset 19, -20
	.cfi_offset 1, -4
	.cfi_offset 20, -24
	.cfi_offset 21, -28
	.cfi_offset 22, -32
	.loc 1 222 22
	lw	a5,0(a0)
	.loc 1 213 6
	mv	s1,a0
	mv	s2,a1
	.loc 1 222 10
	andi	s3,a5,63
.LVL48:
	.loc 1 223 5 is_stmt 1
	.loc 1 225 5
	.loc 1 225 19 is_stmt 0
	add	a5,a5,a2
	sw	a5,0(a0)
	.loc 1 226 5 is_stmt 1
	.loc 1 228 5
	.loc 1 213 6 is_stmt 0
	mv	s0,a2
	.loc 1 228 8
	bleu	a2,a5,.L25
	.loc 1 229 9 is_stmt 1
	.loc 1 229 22 is_stmt 0
	lw	a5,4(a0)
	addi	a5,a5,1
	sw	a5,4(a0)
.L25:
	.loc 1 232 5 is_stmt 1
	.loc 1 232 8 is_stmt 0
	beq	s3,zero,.L26
	.loc 1 223 10
	li	s4,64
	sub	s4,s4,s3
	.loc 1 232 14
	bgtu	s4,s0,.L26
	.loc 1 233 9 is_stmt 1
	.loc 1 233 25 is_stmt 0
	addi	s5,s1,40
	.loc 1 233 9
	mv	a1,s2
.LVL49:
	mv	a2,s4
.LVL50:
	add	a0,s5,s3
.LVL51:
	call	memcpy
.LVL52:
	.loc 1 234 9 is_stmt 1
	mv	a1,s5
	mv	a0,s1
	addi	s0,s0,-64
.LVL53:
	.loc 1 236 14 is_stmt 0
	add	s0,s3,s0
.LVL54:
	.loc 1 234 9
	call	utils_sha256_process
.LVL55:
	.loc 1 235 9 is_stmt 1
	.loc 1 235 15 is_stmt 0
	add	s2,s2,s4
.LVL56:
	.loc 1 236 9 is_stmt 1
	.loc 1 237 9
	.loc 1 237 14 is_stmt 0
	li	s3,0
.LVL57:
.L26:
	mv	s4,s0
	add	s6,s2,s0
	.loc 1 240 11
	li	s5,63
	j	.L27
.LVL58:
.L28:
	.loc 1 241 9 is_stmt 1
	mv	a0,s1
	call	utils_sha256_process
.LVL59:
	.loc 1 242 9
	.loc 1 243 9
	.loc 1 243 14 is_stmt 0
	addi	s4,s4,-64
.LVL60:
.L27:
	sub	a1,s6,s4
.LVL61:
	.loc 1 240 11
	bgtu	s4,s5,.L28
	srli	a2,s0,6
	li	a5,-64
	slli	a1,a2,6
.LVL62:
	mul	a2,a2,a5
	add	a1,s2,a1
	add	a2,a2,s0
	.loc 1 246 5 is_stmt 1
	.loc 1 246 8 is_stmt 0
	beq	a2,zero,.L24
	.loc 1 247 9 is_stmt 1
	.loc 1 247 25 is_stmt 0
	addi	a0,s1,40
	.loc 1 249 1
	lw	s0,24(sp)
	.cfi_remember_state
	.cfi_restore 8
	lw	ra,28(sp)
	.cfi_restore 1
	lw	s1,20(sp)
	.cfi_restore 9
.LVL63:
	lw	s2,16(sp)
	.cfi_restore 18
	lw	s4,8(sp)
	.cfi_restore 20
.LVL64:
	lw	s5,4(sp)
	.cfi_restore 21
	lw	s6,0(sp)
	.cfi_restore 22
	.loc 1 247 9
	add	a0,a0,s3
.LVL65:
	.loc 1 249 1
	lw	s3,12(sp)
	.cfi_restore 19
.LVL66:
	addi	sp,sp,32
	.cfi_def_cfa_offset 0
	.loc 1 247 9
	tail	memcpy
.LVL67:
.L24:
	.cfi_restore_state
	.loc 1 249 1
	lw	ra,28(sp)
	.cfi_restore 1
	lw	s0,24(sp)
	.cfi_restore 8
	lw	s1,20(sp)
	.cfi_restore 9
.LVL68:
	lw	s2,16(sp)
	.cfi_restore 18
	lw	s3,12(sp)
	.cfi_restore 19
.LVL69:
	lw	s4,8(sp)
	.cfi_restore 20
.LVL70:
	lw	s5,4(sp)
	.cfi_restore 21
	lw	s6,0(sp)
	.cfi_restore 22
	addi	sp,sp,32
	.cfi_def_cfa_offset 0
	jr	ra
	.cfi_endproc
.LFE10:
	.size	utils_sha256_update.part.0, .-utils_sha256_update.part.0
	.section	.text.utils_sha256_update,"ax",@progbits
	.align	1
	.globl	utils_sha256_update
	.type	utils_sha256_update, @function
utils_sha256_update:
.LFB7:
	.loc 1 214 1 is_stmt 1
	.cfi_startproc
.LVL71:
	.loc 1 215 5
	.loc 1 216 5
	.loc 1 218 5
	.loc 1 218 8 is_stmt 0
	beq	a2,zero,.L34
	tail	utils_sha256_update.part.0
.LVL72:
.L34:
	.loc 1 249 1
	ret
	.cfi_endproc
.LFE7:
	.size	utils_sha256_update, .-utils_sha256_update
	.section	.text.utils_sha256_finish,"ax",@progbits
	.align	1
	.globl	utils_sha256_finish
	.type	utils_sha256_finish, @function
utils_sha256_finish:
.LFB8:
	.loc 1 259 1 is_stmt 1
	.cfi_startproc
.LVL73:
	.loc 1 260 5
	.loc 1 261 5
	.loc 1 262 5
	.loc 1 264 5
	.loc 1 259 1 is_stmt 0
	addi	sp,sp,-32
	.cfi_def_cfa_offset 32
	sw	s0,24(sp)
	sw	s1,20(sp)
	sw	ra,28(sp)
	.cfi_offset 8, -8
	.cfi_offset 9, -12
	.cfi_offset 1, -4
	.loc 1 264 23
	lw	a2,0(a0)
	.loc 1 265 29
	lw	a5,4(a0)
	.loc 1 259 1
	mv	s0,a0
	.loc 1 264 27
	srli	a4,a2,29
	.loc 1 265 29
	slli	a5,a5,3
	.loc 1 264 10
	or	a5,a5,a4
.LVL74:
	.loc 1 266 5 is_stmt 1
	.loc 1 268 52 is_stmt 0
	srli	a3,a5,24
	.loc 1 268 27
	sb	a3,8(sp)
	.loc 1 268 106
	srli	a3,a5,16
	.loc 1 268 81
	sb	a3,9(sp)
	.loc 1 268 133
	slli	a3,a5,8
	slli	a5,a5,16
.LVL75:
	srli	a5,a5,16
	srli	a5,a5,8
	.loc 1 266 9
	slli	a4,a2,3
.LVL76:
	.loc 1 268 5 is_stmt 1
	.loc 1 268 10
	.loc 1 268 61
	.loc 1 268 115
	.loc 1 268 168
	.loc 1 268 133 is_stmt 0
	or	a5,a3,a5
	sh	a5,10(sp)
	.loc 1 269 5 is_stmt 1
	.loc 1 269 10
	.loc 1 269 51 is_stmt 0
	srli	a5,a4,24
	.loc 1 269 27
	sb	a5,12(sp)
	.loc 1 269 60 is_stmt 1
	.loc 1 269 104 is_stmt 0
	srli	a5,a4,16
	.loc 1 269 131
	slli	a4,a4,16
.LVL77:
	srli	a4,a4,16
	.loc 1 269 80
	sb	a5,13(sp)
	.loc 1 269 113 is_stmt 1
	.loc 1 269 165
	.loc 1 269 131 is_stmt 0
	srli	a4,a4,8
	slli	a5,a2,11
	or	a4,a5,a4
	sh	a4,14(sp)
	.loc 1 271 5 is_stmt 1
	.loc 1 271 10 is_stmt 0
	andi	a2,a2,63
.LVL78:
	.loc 1 272 5 is_stmt 1
	.loc 1 272 38 is_stmt 0
	li	a5,55
	.loc 1 259 1
	mv	s1,a1
	.loc 1 272 38
	bgtu	a2,a5,.L37
	.loc 1 272 38 discriminator 1
	li	a5,56
.L41:
	.loc 1 274 5 discriminator 2
	lui	a1,%hi(.LANCHOR1)
.LVL79:
	.loc 1 272 38 discriminator 2
	sub	a2,a5,a2
.LVL80:
	.loc 1 274 5 is_stmt 1 discriminator 2
	addi	a1,a1,%lo(.LANCHOR1)
	mv	a0,s0
.LVL81:
	call	utils_sha256_update
.LVL82:
	.loc 1 275 5 discriminator 2
.LBB8:
.LBB9:
	.loc 1 215 5 discriminator 2
	.loc 1 216 5 discriminator 2
	.loc 1 218 5 discriminator 2
	li	a2,8
	addi	a1,sp,8
.LVL83:
	mv	a0,s0
	call	utils_sha256_update.part.0
.LVL84:
.LBE9:
.LBE8:
	.loc 1 277 5 discriminator 2
	.loc 1 277 10 discriminator 2
	.loc 1 277 61 is_stmt 0 discriminator 2
	lbu	a5,11(s0)
	.loc 1 277 27 discriminator 2
	sb	a5,0(s1)
	.loc 1 277 70 is_stmt 1 discriminator 2
	.loc 1 277 124 is_stmt 0 discriminator 2
	lhu	a5,10(s0)
	.loc 1 277 90 discriminator 2
	sb	a5,1(s1)
	.loc 1 277 133 is_stmt 1 discriminator 2
	.loc 1 277 187 is_stmt 0 discriminator 2
	lw	a5,8(s0)
	srli	a5,a5,8
	.loc 1 277 153 discriminator 2
	sb	a5,2(s1)
	.loc 1 277 195 is_stmt 1 discriminator 2
	.loc 1 277 215 is_stmt 0 discriminator 2
	lw	a5,8(s0)
	sb	a5,3(s1)
	.loc 1 278 5 is_stmt 1 discriminator 2
	.loc 1 278 10 discriminator 2
	.loc 1 278 61 is_stmt 0 discriminator 2
	lbu	a5,15(s0)
	.loc 1 278 27 discriminator 2
	sb	a5,4(s1)
	.loc 1 278 70 is_stmt 1 discriminator 2
	.loc 1 278 124 is_stmt 0 discriminator 2
	lhu	a5,14(s0)
	.loc 1 278 90 discriminator 2
	sb	a5,5(s1)
	.loc 1 278 133 is_stmt 1 discriminator 2
	.loc 1 278 187 is_stmt 0 discriminator 2
	lw	a5,12(s0)
	srli	a5,a5,8
	.loc 1 278 153 discriminator 2
	sb	a5,6(s1)
	.loc 1 278 195 is_stmt 1 discriminator 2
	.loc 1 278 215 is_stmt 0 discriminator 2
	lw	a5,12(s0)
	sb	a5,7(s1)
	.loc 1 279 5 is_stmt 1 discriminator 2
	.loc 1 279 10 discriminator 2
	.loc 1 279 61 is_stmt 0 discriminator 2
	lbu	a5,19(s0)
	.loc 1 279 27 discriminator 2
	sb	a5,8(s1)
	.loc 1 279 70 is_stmt 1 discriminator 2
	.loc 1 279 124 is_stmt 0 discriminator 2
	lhu	a5,18(s0)
	.loc 1 279 90 discriminator 2
	sb	a5,9(s1)
	.loc 1 279 133 is_stmt 1 discriminator 2
	.loc 1 279 187 is_stmt 0 discriminator 2
	lw	a5,16(s0)
	srli	a5,a5,8
	.loc 1 279 153 discriminator 2
	sb	a5,10(s1)
	.loc 1 279 195 is_stmt 1 discriminator 2
	.loc 1 279 215 is_stmt 0 discriminator 2
	lw	a5,16(s0)
	sb	a5,11(s1)
	.loc 1 280 5 is_stmt 1 discriminator 2
	.loc 1 280 10 discriminator 2
	.loc 1 280 62 is_stmt 0 discriminator 2
	lbu	a5,23(s0)
	.loc 1 280 28 discriminator 2
	sb	a5,12(s1)
	.loc 1 280 71 is_stmt 1 discriminator 2
	.loc 1 280 126 is_stmt 0 discriminator 2
	lhu	a5,22(s0)
	.loc 1 280 92 discriminator 2
	sb	a5,13(s1)
	.loc 1 280 135 is_stmt 1 discriminator 2
	.loc 1 280 190 is_stmt 0 discriminator 2
	lw	a5,20(s0)
	srli	a5,a5,8
	.loc 1 280 156 discriminator 2
	sb	a5,14(s1)
	.loc 1 280 198 is_stmt 1 discriminator 2
	.loc 1 280 219 is_stmt 0 discriminator 2
	lw	a5,20(s0)
	sb	a5,15(s1)
	.loc 1 281 5 is_stmt 1 discriminator 2
	.loc 1 281 10 discriminator 2
	.loc 1 281 62 is_stmt 0 discriminator 2
	lbu	a5,27(s0)
	.loc 1 281 28 discriminator 2
	sb	a5,16(s1)
	.loc 1 281 71 is_stmt 1 discriminator 2
	.loc 1 281 126 is_stmt 0 discriminator 2
	lhu	a5,26(s0)
	.loc 1 281 92 discriminator 2
	sb	a5,17(s1)
	.loc 1 281 135 is_stmt 1 discriminator 2
	.loc 1 281 190 is_stmt 0 discriminator 2
	lw	a5,24(s0)
	srli	a5,a5,8
	.loc 1 281 156 discriminator 2
	sb	a5,18(s1)
	.loc 1 281 198 is_stmt 1 discriminator 2
	.loc 1 281 219 is_stmt 0 discriminator 2
	lw	a5,24(s0)
	sb	a5,19(s1)
	.loc 1 282 5 is_stmt 1 discriminator 2
	.loc 1 282 10 discriminator 2
	.loc 1 282 62 is_stmt 0 discriminator 2
	lbu	a5,31(s0)
	.loc 1 282 28 discriminator 2
	sb	a5,20(s1)
	.loc 1 282 71 is_stmt 1 discriminator 2
	.loc 1 282 126 is_stmt 0 discriminator 2
	lhu	a5,30(s0)
	.loc 1 282 92 discriminator 2
	sb	a5,21(s1)
	.loc 1 282 135 is_stmt 1 discriminator 2
	.loc 1 282 190 is_stmt 0 discriminator 2
	lw	a5,28(s0)
	srli	a5,a5,8
	.loc 1 282 156 discriminator 2
	sb	a5,22(s1)
	.loc 1 282 198 is_stmt 1 discriminator 2
	.loc 1 282 219 is_stmt 0 discriminator 2
	lw	a5,28(s0)
	sb	a5,23(s1)
	.loc 1 283 5 is_stmt 1 discriminator 2
	.loc 1 283 10 discriminator 2
	.loc 1 283 62 is_stmt 0 discriminator 2
	lbu	a5,35(s0)
	.loc 1 283 28 discriminator 2
	sb	a5,24(s1)
	.loc 1 283 71 is_stmt 1 discriminator 2
	.loc 1 283 126 is_stmt 0 discriminator 2
	lhu	a5,34(s0)
	.loc 1 283 92 discriminator 2
	sb	a5,25(s1)
	.loc 1 283 135 is_stmt 1 discriminator 2
	.loc 1 283 190 is_stmt 0 discriminator 2
	lw	a5,32(s0)
	srli	a5,a5,8
	.loc 1 283 156 discriminator 2
	sb	a5,26(s1)
	.loc 1 283 198 is_stmt 1 discriminator 2
	.loc 1 283 219 is_stmt 0 discriminator 2
	lw	a5,32(s0)
	sb	a5,27(s1)
	.loc 1 285 5 is_stmt 1 discriminator 2
	.loc 1 285 8 is_stmt 0 discriminator 2
	lw	a5,104(s0)
	bne	a5,zero,.L36
	.loc 1 286 9 is_stmt 1
	.loc 1 286 14
	.loc 1 286 66 is_stmt 0
	lbu	a5,39(s0)
	.loc 1 286 32
	sb	a5,28(s1)
	.loc 1 286 75 is_stmt 1
	.loc 1 286 130 is_stmt 0
	lhu	a5,38(s0)
	.loc 1 286 96
	sb	a5,29(s1)
	.loc 1 286 139 is_stmt 1
	.loc 1 286 194 is_stmt 0
	lw	a5,36(s0)
	srli	a5,a5,8
	.loc 1 286 160
	sb	a5,30(s1)
	.loc 1 286 202 is_stmt 1
	.loc 1 286 223 is_stmt 0
	lw	a5,36(s0)
	sb	a5,31(s1)
.L36:
	.loc 1 288 1
	lw	ra,28(sp)
	.cfi_remember_state
	.cfi_restore 1
	lw	s0,24(sp)
	.cfi_restore 8
.LVL85:
	lw	s1,20(sp)
	.cfi_restore 9
.LVL86:
	addi	sp,sp,32
	.cfi_def_cfa_offset 0
	jr	ra
.LVL87:
.L37:
	.cfi_restore_state
	.loc 1 272 38 discriminator 2
	li	a5,120
	j	.L41
	.cfi_endproc
.LFE8:
	.size	utils_sha256_finish, .-utils_sha256_finish
	.section	.text.utils_sha256,"ax",@progbits
	.align	1
	.globl	utils_sha256
	.type	utils_sha256, @function
utils_sha256:
.LFB9:
	.loc 1 291 1 is_stmt 1
	.cfi_startproc
.LVL88:
	.loc 1 292 5
	.loc 1 294 5
	.loc 1 291 1 is_stmt 0
	addi	sp,sp,-144
	.cfi_def_cfa_offset 144
	sw	s1,132(sp)
	.cfi_offset 9, -12
	mv	s1,a0
	.loc 1 294 5
	addi	a0,sp,20
.LVL89:
	.loc 1 291 1
	sw	ra,140(sp)
	sw	s0,136(sp)
	.cfi_offset 1, -4
	.cfi_offset 8, -8
	.loc 1 291 1
	sw	a1,12(sp)
	mv	s0,a2
	.loc 1 294 5
	call	utils_sha256_init
.LVL90:
	.loc 1 295 5 is_stmt 1
	addi	a0,sp,20
	call	utils_sha256_starts
.LVL91:
	.loc 1 296 5
	lw	a1,12(sp)
	addi	a0,sp,20
	mv	a2,a1
	mv	a1,s1
	call	utils_sha256_update
.LVL92:
	.loc 1 297 5
	mv	a1,s0
	addi	a0,sp,20
	call	utils_sha256_finish
.LVL93:
	.loc 1 298 5
	addi	a0,sp,20
	call	utils_sha256_free
.LVL94:
	.loc 1 299 1 is_stmt 0
	lw	ra,140(sp)
	.cfi_restore 1
	lw	s0,136(sp)
	.cfi_restore 8
.LVL95:
	lw	s1,132(sp)
	.cfi_restore 9
.LVL96:
	addi	sp,sp,144
	.cfi_def_cfa_offset 0
.LVL97:
	jr	ra
	.cfi_endproc
.LFE9:
	.size	utils_sha256, .-utils_sha256
	.section	.rodata.K,"a"
	.align	2
	.set	.LANCHOR0,. + 0
	.type	K, @object
	.size	K, 256
K:
	.word	1116352408
	.word	1899447441
	.word	-1245643825
	.word	-373957723
	.word	961987163
	.word	1508970993
	.word	-1841331548
	.word	-1424204075
	.word	-670586216
	.word	310598401
	.word	607225278
	.word	1426881987
	.word	1925078388
	.word	-2132889090
	.word	-1680079193
	.word	-1046744716
	.word	-459576895
	.word	-272742522
	.word	264347078
	.word	604807628
	.word	770255983
	.word	1249150122
	.word	1555081692
	.word	1996064986
	.word	-1740746414
	.word	-1473132947
	.word	-1341970488
	.word	-1084653625
	.word	-958395405
	.word	-710438585
	.word	113926993
	.word	338241895
	.word	666307205
	.word	773529912
	.word	1294757372
	.word	1396182291
	.word	1695183700
	.word	1986661051
	.word	-2117940946
	.word	-1838011259
	.word	-1564481375
	.word	-1474664885
	.word	-1035236496
	.word	-949202525
	.word	-778901479
	.word	-694614492
	.word	-200395387
	.word	275423344
	.word	430227734
	.word	506948616
	.word	659060556
	.word	883997877
	.word	958139571
	.word	1322822218
	.word	1537002063
	.word	1747873779
	.word	1955562222
	.word	2024104815
	.word	-2067236844
	.word	-1933114872
	.word	-1866530822
	.word	-1538233109
	.word	-1090935817
	.word	-965641998
	.section	.rodata.sha256_padding,"a"
	.align	2
	.set	.LANCHOR1,. + 0
	.type	sha256_padding, @object
	.size	sha256_padding, 64
sha256_padding:
	.byte	-128
	.byte	0
	.byte	0
	.byte	0
	.byte	0
	.byte	0
	.byte	0
	.byte	0
	.byte	0
	.byte	0
	.byte	0
	.byte	0
	.byte	0
	.byte	0
	.byte	0
	.byte	0
	.byte	0
	.byte	0
	.byte	0
	.byte	0
	.byte	0
	.byte	0
	.byte	0
	.byte	0
	.byte	0
	.byte	0
	.byte	0
	.byte	0
	.byte	0
	.byte	0
	.byte	0
	.byte	0
	.byte	0
	.byte	0
	.byte	0
	.byte	0
	.byte	0
	.byte	0
	.byte	0
	.byte	0
	.byte	0
	.byte	0
	.byte	0
	.byte	0
	.byte	0
	.byte	0
	.byte	0
	.byte	0
	.byte	0
	.byte	0
	.byte	0
	.byte	0
	.byte	0
	.byte	0
	.byte	0
	.byte	0
	.byte	0
	.byte	0
	.byte	0
	.byte	0
	.byte	0
	.byte	0
	.byte	0
	.byte	0
	.text
.Letext0:
	.file 2 "/b-l/bl_iot_sdk_new/toolchain/riscv/Linux/lib/gcc/riscv64-unknown-elf/8.3.0/include/stddef.h"
	.file 3 "/b-l/bl_iot_sdk_new/toolchain/riscv/Linux/riscv64-unknown-elf/include/sys/_types.h"
	.file 4 "/b-l/bl_iot_sdk_new/toolchain/riscv/Linux/riscv64-unknown-elf/include/sys/reent.h"
	.file 5 "/b-l/bl_iot_sdk_new/toolchain/riscv/Linux/riscv64-unknown-elf/include/sys/lock.h"
	.file 6 "/b-l/bl_iot_sdk_new/toolchain/riscv/Linux/riscv64-unknown-elf/include/stdlib.h"
	.file 7 "/b-l/bl_iot_sdk_new/toolchain/riscv/Linux/lib/gcc/riscv64-unknown-elf/8.3.0/include/stdint-gcc.h"
	.file 8 "/b-l/bl_iot_sdk_new/components/utils/include/utils_sha256.h"
	.file 9 "/b-l/bl_iot_sdk_new/toolchain/riscv/Linux/riscv64-unknown-elf/include/string.h"
	.file 10 "<built-in>"