	.file	"utils_rbtree.c"
	.option nopic
	.attribute arch, "rv32i2p0_m2p0_f2p0_c2p0"
	.attribute unaligned_access, 0
	.attribute stack_align, 16
	.text
.Ltext0:
	.cfi_sections	.debug_frame
	.section	.text.rb_node_rotate,"ax",@progbits
	.align	1
	.type	rb_node_rotate, @function
rb_node_rotate:
.LFB9:
	.file 1 "/b-l/bl_iot_sdk_new/components/utils/src/utils_rbtree.c"
	.loc 1 69 1
	.cfi_startproc
.LVL0:
	.loc 1 70 5
	.loc 1 72 5
	.loc 1 72 8 is_stmt 0
	beq	a0,zero,.L2
	.loc 1 73 9 is_stmt 1
	.loc 1 73 29 is_stmt 0
	seqz	a5,a1
	slli	a5,a5,2
	add	a5,a0,a5
	.loc 1 73 16
	lw	a4,4(a5)
.LVL1:
	.loc 1 74 9 is_stmt 1
	slli	a1,a1,2
.LVL2:
	add	a1,a4,a1
	.loc 1 74 40 is_stmt 0
	lw	a3,4(a1)
	.loc 1 74 26
	sw	a3,4(a5)
	.loc 1 75 9 is_stmt 1
	.loc 1 75 27 is_stmt 0
	sw	a0,4(a1)
	.loc 1 76 9 is_stmt 1
	.loc 1 76 19 is_stmt 0
	li	a5,1
	sw	a5,0(a0)
	.loc 1 77 9 is_stmt 1
	.loc 1 77 21 is_stmt 0
	sw	zero,0(a4)
	mv	a0,a4
.LVL3:
.L2:
	.loc 1 79 5 is_stmt 1
	.loc 1 80 1 is_stmt 0
	ret
	.cfi_endproc
.LFE9:
	.size	rb_node_rotate, .-rb_node_rotate
	.section	.text.rb_tree_node_cmp_ptr_cb,"ax",@progbits
	.align	1
	.globl	rb_tree_node_cmp_ptr_cb
	.type	rb_tree_node_cmp_ptr_cb, @function
rb_tree_node_cmp_ptr_cb:
.LFB11:
	.loc 1 95 1 is_stmt 1
	.cfi_startproc
.LVL4:
	.loc 1 96 5
	.loc 1 96 14 is_stmt 0
	lw	a5,12(a1)
	.loc 1 96 25
	lw	a4,12(a2)
	.loc 1 96 22
	sgtu	a0,a5,a4
.LVL5:
	.loc 1 96 46
	sltu	a5,a5,a4
	.loc 1 97 1
	sub	a0,a0,a5
	ret
	.cfi_endproc
.LFE11:
	.size	rb_tree_node_cmp_ptr_cb, .-rb_tree_node_cmp_ptr_cb
	.section	.text.rb_iter_move,"ax",@progbits
	.align	1
	.type	rb_iter_move, @function
rb_iter_move:
.LFB29:
	.loc 1 470 1 is_stmt 1
	.cfi_startproc
.LVL6:
	.loc 1 471 5
	.loc 1 471 13 is_stmt 0
	lw	a2,4(a0)
	slli	a4,a1,2
	add	a3,a2,a4
	.loc 1 471 8
	lw	a5,4(a3)
	beq	a5,zero,.L8
	lw	a5,264(a0)
	.loc 1 473 9 is_stmt 1
	xori	a1,a1,1
.LVL7:
	slli	a1,a1,2
.LVL8:
	.loc 1 473 29 is_stmt 0
	addi	a4,a5,1
	.loc 1 473 33
	slli	a5,a5,2
	.loc 1 473 29
	sw	a4,264(a0)
	.loc 1 473 33
	add	a5,a0,a5
	sw	a2,8(a5)
	.loc 1 474 9 is_stmt 1
	.loc 1 474 38 is_stmt 0
	lw	a5,4(a3)
	.loc 1 474 20
	sw	a5,4(a0)
	.loc 1 475 9 is_stmt 1
.L9:
	.loc 1 475 21 is_stmt 0
	lw	a3,4(a0)
	add	a4,a3,a1
	.loc 1 475 15
	lw	a5,4(a4)
	bne	a5,zero,.L10
.L11:
	.loc 1 491 5 is_stmt 1
	.loc 1 491 16 is_stmt 0
	lw	a0,4(a0)
.LVL9:
	.loc 1 491 37
	beq	a0,zero,.L7
	.loc 1 491 37 discriminator 1
	lw	a0,12(a0)
.L7:
	.loc 1 492 1
	ret
.LVL10:
.L10:
	.loc 1 476 13 is_stmt 1
	.loc 1 476 28 is_stmt 0
	lw	a5,264(a0)
	.loc 1 476 33
	addi	a2,a5,1
	.loc 1 476 37
	slli	a5,a5,2
	.loc 1 476 33
	sw	a2,264(a0)
	.loc 1 476 37
	add	a5,a0,a5
	sw	a3,8(a5)
	.loc 1 477 13 is_stmt 1
	.loc 1 477 42 is_stmt 0
	lw	a5,4(a4)
	.loc 1 477 24
	sw	a5,4(a0)
	j	.L9
.LVL11:
.L12:
.LBB54:
	.loc 1 487 13 is_stmt 1
	.loc 1 488 37 is_stmt 0
	addi	a5,a5,-1
	.loc 1 488 24
	sw	a5,264(a0)
	.loc 1 488 36
	slli	a5,a5,2
	add	a5,a0,a5
	lw	a5,8(a5)
	.loc 1 487 18
	lw	a3,4(a0)
.LVL12:
	.loc 1 488 13 is_stmt 1
	.loc 1 488 24 is_stmt 0
	sw	a5,4(a0)
	.loc 1 489 42
	add	a5,a5,a4
	.loc 1 489 9
	lw	a5,4(a5)
	bne	a5,a3,.L11
.LVL13:
.L8:
	.loc 1 482 9 is_stmt 1
	.loc 1 483 13
	.loc 1 483 21 is_stmt 0
	lw	a5,264(a0)
	.loc 1 483 16
	bne	a5,zero,.L12
	.loc 1 484 17 is_stmt 1
	.loc 1 484 28 is_stmt 0
	sw	zero,4(a0)
	.loc 1 485 17 is_stmt 1
	j	.L11
.LBE54:
	.cfi_endproc
.LFE29:
	.size	rb_iter_move, .-rb_iter_move
	.section	.text.rb_node_alloc,"ax",@progbits
	.align	1
	.globl	rb_node_alloc
	.type	rb_node_alloc, @function
rb_node_alloc:
.LFB4:
	.loc 1 37 1
	.cfi_startproc
	.loc 1 38 5
	.loc 1 38 12 is_stmt 0
	li	a0,16
	tail	pvPortMalloc
.LVL14:
	.cfi_endproc
.LFE4:
	.size	rb_node_alloc, .-rb_node_alloc
	.section	.text.rb_node_init,"ax",@progbits
	.align	1
	.globl	rb_node_init
	.type	rb_node_init, @function
rb_node_init:
.LFB5:
	.loc 1 42 1 is_stmt 1
	.cfi_startproc
.LVL15:
	.loc 1 43 5
	.loc 1 43 8 is_stmt 0
	beq	a0,zero,.L23
	.loc 1 44 9 is_stmt 1
	.loc 1 44 19 is_stmt 0
	li	a5,1
	sw	a5,0(a0)
	.loc 1 45 9 is_stmt 1
	.loc 1 45 39 is_stmt 0
	sw	zero,8(a0)
	.loc 1 45 23
	sw	zero,4(a0)
	.loc 1 46 9 is_stmt 1
	.loc 1 46 21 is_stmt 0
	sw	a1,12(a0)
.L23:
	.loc 1 48 5 is_stmt 1
	.loc 1 49 1 is_stmt 0
	ret
	.cfi_endproc
.LFE5:
	.size	rb_node_init, .-rb_node_init
	.section	.text.rb_node_create,"ax",@progbits
	.align	1
	.globl	rb_node_create
	.type	rb_node_create, @function
rb_node_create:
.LFB6:
	.loc 1 52 1 is_stmt 1
	.cfi_startproc
.LVL16:
	.loc 1 53 5
	.loc 1 52 1 is_stmt 0
	addi	sp,sp,-16
	.cfi_def_cfa_offset 16
	sw	s0,8(sp)
	sw	ra,12(sp)
	.cfi_offset 8, -8
	.cfi_offset 1, -4
	.loc 1 52 1
	mv	s0,a0
	.loc 1 53 12
	call	rb_node_alloc
.LVL17:
.LBB55:
.LBB56:
	.loc 1 43 5 is_stmt 1
	.loc 1 43 8 is_stmt 0
	beq	a0,zero,.L27
	.loc 1 44 9 is_stmt 1
	.loc 1 44 19 is_stmt 0
	li	a5,1
	sw	a5,0(a0)
	.loc 1 45 9 is_stmt 1
	.loc 1 45 39 is_stmt 0
	sw	zero,8(a0)
	.loc 1 45 23
	sw	zero,4(a0)
	.loc 1 46 9 is_stmt 1
	.loc 1 46 21 is_stmt 0
	sw	s0,12(a0)
	.loc 1 48 5 is_stmt 1
.LVL18:
.L27:
.LBE56:
.LBE55:
	.loc 1 54 1 is_stmt 0
	lw	ra,12(sp)
	.cfi_restore 1
	lw	s0,8(sp)
	.cfi_restore 8
.LVL19:
	addi	sp,sp,16
	.cfi_def_cfa_offset 0
	jr	ra
	.cfi_endproc
.LFE6:
	.size	rb_node_create, .-rb_node_create
	.section	.text.rb_node_dealloc,"ax",@progbits
	.align	1
	.globl	rb_node_dealloc
	.type	rb_node_dealloc, @function
rb_node_dealloc:
.LFB7:
	.loc 1 57 1 is_stmt 1
	.cfi_startproc
.LVL20:
	.loc 1 58 5
	.loc 1 58 8 is_stmt 0
	beq	a0,zero,.L33
	.loc 1 59 9 is_stmt 1
	tail	vPortFree
.LVL21:
.L33:
	.loc 1 61 1 is_stmt 0
	ret
	.cfi_endproc
.LFE7:
	.size	rb_node_dealloc, .-rb_node_dealloc
	.section	.text.rb_tree_node_dealloc_cb,"ax",@progbits
	.align	1
	.globl	rb_tree_node_dealloc_cb
	.type	rb_tree_node_dealloc_cb, @function
rb_tree_node_dealloc_cb:
.LFB12:
	.loc 1 100 1 is_stmt 1
	.cfi_startproc
.LVL22:
	.loc 1 101 5
	.loc 1 101 8 is_stmt 0
	beq	a0,zero,.L35
	.loc 1 102 9 is_stmt 1
	.loc 1 102 12 is_stmt 0
	beq	a1,zero,.L35
	.loc 1 103 13 is_stmt 1
	mv	a0,a1
.LVL23:
	tail	rb_node_dealloc
.LVL24:
.L35:
	.loc 1 106 1 is_stmt 0
	ret
	.cfi_endproc
.LFE12:
	.size	rb_tree_node_dealloc_cb, .-rb_tree_node_dealloc_cb
	.section	.text.rb_tree_alloc,"ax",@progbits
	.align	1
	.globl	rb_tree_alloc
	.type	rb_tree_alloc, @function
rb_tree_alloc:
.LFB13:
	.loc 1 110 1 is_stmt 1
	.cfi_startproc
	.loc 1 111 5
	.loc 1 111 12 is_stmt 0
	li	a0,16
	tail	pvPortMalloc
.LVL25:
	.cfi_endproc
.LFE13:
	.size	rb_tree_alloc, .-rb_tree_alloc
	.section	.text.rb_tree_init,"ax",@progbits
	.align	1
	.globl	rb_tree_init
	.type	rb_tree_init, @function
rb_tree_init:
.LFB14:
	.loc 1 115 1 is_stmt 1
	.cfi_startproc
.LVL26:
	.loc 1 116 5
	.loc 1 116 8 is_stmt 0
	beq	a0,zero,.L45
	.loc 1 117 9 is_stmt 1
	.loc 1 117 20 is_stmt 0
	sw	zero,0(a0)
	.loc 1 118 9 is_stmt 1
	.loc 1 118 20 is_stmt 0
	sw	zero,8(a0)
	.loc 1 119 9 is_stmt 1
	.loc 1 119 47 is_stmt 0
	bne	a1,zero,.L46
	lui	a1,%hi(rb_tree_node_cmp_ptr_cb)
.LVL27:
	addi	a1,a1,%lo(rb_tree_node_cmp_ptr_cb)
.L46:
	.loc 1 119 19 discriminator 4
	sw	a1,4(a0)
.L45:
	.loc 1 122 5 is_stmt 1
	.loc 1 123 1 is_stmt 0
	ret
	.cfi_endproc
.LFE14:
	.size	rb_tree_init, .-rb_tree_init
	.section	.text.rb_tree_create,"ax",@progbits
	.align	1
	.globl	rb_tree_create
	.type	rb_tree_create, @function
rb_tree_create:
.LFB15:
	.loc 1 126 1 is_stmt 1
	.cfi_startproc
.LVL28:
	.loc 1 127 5
	.loc 1 126 1 is_stmt 0
	addi	sp,sp,-32
	.cfi_def_cfa_offset 32
	sw	ra,28(sp)
	.cfi_offset 1, -4
	.loc 1 126 1
	sw	a0,12(sp)
	.loc 1 127 12
	call	rb_tree_alloc
.LVL29:
	lw	a1,12(sp)
	.loc 1 128 1
	lw	ra,28(sp)
	.cfi_restore 1
	addi	sp,sp,32
	.cfi_def_cfa_offset 0
.LVL30:
	.loc 1 127 12
	tail	rb_tree_init
.LVL31:
	.cfi_endproc
.LFE15:
	.size	rb_tree_create, .-rb_tree_create
	.section	.text.rb_tree_dealloc,"ax",@progbits
	.align	1
	.globl	rb_tree_dealloc
	.type	rb_tree_dealloc, @function
rb_tree_dealloc:
.LFB16:
	.loc 1 131 1 is_stmt 1
	.cfi_startproc
.LVL32:
	.loc 1 132 5
	.loc 1 132 8 is_stmt 0
	beq	a0,zero,.L52
	.loc 1 131 1
	addi	sp,sp,-16
	.cfi_def_cfa_offset 16
	sw	s0,8(sp)
	sw	s2,0(sp)
	sw	ra,12(sp)
	sw	s1,4(sp)
	.cfi_offset 8, -8
	.cfi_offset 18, -16
	.cfi_offset 1, -4
	.cfi_offset 9, -12
	mv	s2,a1
	mv	s0,a0
	.loc 1 133 9 is_stmt 1
	.loc 1 133 12 is_stmt 0
	bne	a1,zero,.L54
.LVL33:
.L59:
	.loc 1 157 9 is_stmt 1
	mv	a0,s0
	.loc 1 159 1 is_stmt 0
	lw	s0,8(sp)
	.cfi_remember_state
	.cfi_restore 8
.LVL34:
	lw	ra,12(sp)
	.cfi_restore 1
	lw	s1,4(sp)
	.cfi_restore 9
	lw	s2,0(sp)
	.cfi_restore 18
.LVL35:
	addi	sp,sp,16
	.cfi_def_cfa_offset 0
	.loc 1 157 9
	tail	vPortFree
.LVL36:
.L54:
	.cfi_restore_state
.LBB57:
	.loc 1 134 13 is_stmt 1
	.loc 1 134 29 is_stmt 0
	lw	a1,0(a0)
.LVL37:
	.loc 1 135 13 is_stmt 1
	.loc 1 140 13
.L55:
	.loc 1 140 19 is_stmt 0
	beq	a1,zero,.L59
	.loc 1 141 17 is_stmt 1
	.loc 1 141 31 is_stmt 0
	lw	s1,4(a1)
	.loc 1 141 20
	bne	s1,zero,.L56
	.loc 1 144 21 is_stmt 1
	.loc 1 145 21 is_stmt 0
	mv	a0,s0
	.loc 1 144 26
	lw	s1,8(a1)
.LVL38:
	.loc 1 145 21 is_stmt 1
	jalr	s2
.LVL39:
	.loc 1 146 21
.L57:
.LBE57:
	.loc 1 131 1 is_stmt 0
	mv	a1,s1
	j	.L55
.LVL40:
.L56:
.LBB58:
	.loc 1 150 21 is_stmt 1
	.loc 1 151 21
	.loc 1 151 47 is_stmt 0
	lw	a5,8(s1)
	.loc 1 151 35
	sw	a5,4(a1)
	.loc 1 152 21 is_stmt 1
	.loc 1 152 35 is_stmt 0
	sw	a1,8(s1)
	j	.L57
.LVL41:
.L52:
	.cfi_def_cfa_offset 0
	.cfi_restore 1
	.cfi_restore 8
	.cfi_restore 9
	.cfi_restore 18
	ret
.LBE58:
	.cfi_endproc
.LFE16:
	.size	rb_tree_dealloc, .-rb_tree_dealloc
	.section	.text.rb_tree_test,"ax",@progbits
	.align	1
	.globl	rb_tree_test
	.type	rb_tree_test, @function
rb_tree_test:
.LFB17:
	.loc 1 162 1 is_stmt 1
	.cfi_startproc
.LVL42:
	.loc 1 163 5
	.loc 1 165 5
	.loc 1 162 1 is_stmt 0
	addi	sp,sp,-32
	.cfi_def_cfa_offset 32
	sw	s0,24(sp)
	sw	ra,28(sp)
	sw	s1,20(sp)
	sw	s2,16(sp)
	sw	s3,12(sp)
	sw	s4,8(sp)
	sw	s5,4(sp)
	.cfi_offset 8, -8
	.cfi_offset 1, -4
	.cfi_offset 9, -12
	.cfi_offset 18, -16
	.cfi_offset 19, -20
	.cfi_offset 20, -24
	.cfi_offset 21, -28
	.loc 1 166 16
	li	s0,1
	.loc 1 165 8
	beq	a1,zero,.L63
.LBB59:
	.loc 1 172 12
	lw	a5,0(a1)
	mv	s1,a1
	mv	s2,a0
	.loc 1 168 9 is_stmt 1
	.loc 1 168 25 is_stmt 0
	lw	s4,4(a1)
.LVL43:
	.loc 1 169 9 is_stmt 1
	.loc 1 169 25 is_stmt 0
	lw	s3,8(a1)
.LVL44:
	.loc 1 172 9 is_stmt 1
.LBB60:
.LBB61:
	.loc 1 65 5
.LBE61:
.LBE60:
	.loc 1 172 12 is_stmt 0
	beq	a5,zero,.L65
	.loc 1 173 13 is_stmt 1
.LVL45:
.LBB62:
.LBB63:
	.loc 1 65 5
	.loc 1 65 29 is_stmt 0
	beq	s4,zero,.L66
.LVL46:
.LBE63:
.LBE62:
	.loc 1 173 16
	lw	a5,0(s4)
	bne	a5,zero,.L67
.L66:
.LVL47:
.LBB64:
.LBB65:
	.loc 1 65 5 is_stmt 1
	.loc 1 65 29 is_stmt 0
	beq	s3,zero,.L65
.LVL48:
.LBE65:
.LBE64:
	.loc 1 173 36
	lw	a5,0(s3)
	beq	a5,zero,.L65
.L67:
	.loc 1 174 17 is_stmt 1
	lui	a0,%hi(.LC0)
.LVL49:
	addi	a0,a0,%lo(.LC0)
	call	printf
.LVL50:
	.loc 1 175 17
.L75:
	.loc 1 200 20 is_stmt 0
	li	s0,0
	j	.L63
.LVL51:
.L65:
	.loc 1 179 9 is_stmt 1
	.loc 1 179 14 is_stmt 0
	mv	a1,s4
	mv	a0,s2
.LVL52:
	call	rb_tree_test
.LVL53:
	mv	s0,a0
.LVL54:
	.loc 1 180 9 is_stmt 1
	.loc 1 180 14 is_stmt 0
	mv	a1,s3
	mv	a0,s2
	call	rb_tree_test
.LVL55:
	mv	s5,a0
.LVL56:
	.loc 1 183 9 is_stmt 1
	.loc 1 183 12 is_stmt 0
	bne	s4,zero,.L68
.LVL57:
.L71:
	.loc 1 184 13
	bne	s3,zero,.L69
.L70:
	.loc 1 191 9 is_stmt 1
	.loc 1 191 12 is_stmt 0
	beq	s0,zero,.L63
	.loc 1 191 22 discriminator 1
	beq	s5,zero,.L75
	.loc 1 191 33 discriminator 2
	beq	s0,s5,.L73
	.loc 1 192 13 is_stmt 1
	lui	a0,%hi(.LC2)
	addi	a0,a0,%lo(.LC2)
	j	.L92
.LVL58:
.L68:
	.loc 1 183 29 is_stmt 0 discriminator 1
	lw	a5,4(s2)
	mv	a2,s1
	mv	a1,s4
	mv	a0,s2
.LVL59:
	jalr	a5
.LVL60:
	.loc 1 183 26 discriminator 1
	blt	a0,zero,.L71
.L72:
	.loc 1 186 13 is_stmt 1
	lui	a0,%hi(.LC1)
	addi	a0,a0,%lo(.LC1)
.L92:
	.loc 1 192 13 is_stmt 0
	call	puts
.LVL61:
	.loc 1 193 13 is_stmt 1
	j	.L75
.L69:
	.loc 1 184 31 is_stmt 0 discriminator 1
	lw	a5,4(s2)
	mv	a2,s1
	mv	a1,s3
	mv	a0,s2
	jalr	a5
.LVL62:
	.loc 1 184 28 discriminator 1
	bgt	a0,zero,.L70
	j	.L72
.L73:
	.loc 1 197 9 is_stmt 1
	.loc 1 198 13
.LVL63:
.LBB66:
.LBB67:
	.loc 1 65 5
.LBE67:
.LBE66:
	.loc 1 198 49 is_stmt 0
	lw	a5,0(s1)
	bne	a5,zero,.L63
	.loc 1 198 49 discriminator 1
	addi	s0,s0,1
.LVL64:
.L63:
.LBE59:
	.loc 1 202 1
	mv	a0,s0
	lw	ra,28(sp)
	.cfi_restore 1
	lw	s0,24(sp)
	.cfi_restore 8
	lw	s1,20(sp)
	.cfi_restore 9
	lw	s2,16(sp)
	.cfi_restore 18
	lw	s3,12(sp)
	.cfi_restore 19
	lw	s4,8(sp)
	.cfi_restore 20
	lw	s5,4(sp)
	.cfi_restore 21
	addi	sp,sp,32
	.cfi_def_cfa_offset 0
	jr	ra
	.cfi_endproc
.LFE17:
	.size	rb_tree_test, .-rb_tree_test
	.section	.text.rb_tree_find,"ax",@progbits
	.align	1
	.globl	rb_tree_find
	.type	rb_tree_find, @function
rb_tree_find:
.LFB18:
	.loc 1 205 1 is_stmt 1
	.cfi_startproc
.LVL65:
	.loc 1 206 5
	.loc 1 208 5
	.loc 1 205 1 is_stmt 0
	addi	sp,sp,-32
	.cfi_def_cfa_offset 32
	sw	s1,20(sp)
	sw	ra,28(sp)
	sw	s0,24(sp)
	.cfi_offset 9, -12
	.cfi_offset 1, -4
	.cfi_offset 8, -8
	.loc 1 205 1
	mv	s1,a0
	.loc 1 208 8
	beq	a0,zero,.L100
.LBB68:
	.loc 1 209 9 is_stmt 1
	.loc 1 210 25 is_stmt 0
	lw	s0,0(a0)
	.loc 1 209 24
	sw	zero,0(sp)
	sw	zero,4(sp)
	sw	zero,8(sp)
	sw	a1,12(sp)
	.loc 1 210 9 is_stmt 1
.LVL66:
	.loc 1 211 9
	.loc 1 212 9
.L95:
	.loc 1 212 15 is_stmt 0
	bne	s0,zero,.L97
.L98:
.LVL67:
	.loc 1 222 16 discriminator 4
	mv	s1,s0
.LVL68:
.LBE68:
	.loc 1 224 5 is_stmt 1 discriminator 4
.L100:
	.loc 1 225 1 is_stmt 0
	lw	ra,28(sp)
	.cfi_remember_state
	.cfi_restore 1
	lw	s0,24(sp)
	.cfi_restore 8
	mv	a0,s1
	lw	s1,20(sp)
	.cfi_restore 9
	addi	sp,sp,32
	.cfi_def_cfa_offset 0
	jr	ra
.LVL69:
.L97:
	.cfi_restore_state
.LBB69:
	.loc 1 213 13 is_stmt 1
	.loc 1 213 24 is_stmt 0
	lw	a5,4(s1)
	mv	a2,sp
	mv	a1,s0
	mv	a0,s1
	jalr	a5
.LVL70:
	.loc 1 213 16
	beq	a0,zero,.L96
	.loc 1 217 17 is_stmt 1
	.loc 1 217 35 is_stmt 0
	srli	a0,a0,31
.LVL71:
	.loc 1 217 20
	slli	a0,a0,2
	add	s0,s0,a0
.LVL72:
	lw	s0,4(s0)
.LVL73:
	j	.L95
.LVL74:
.L96:
	.loc 1 222 9 is_stmt 1
	.loc 1 222 33 is_stmt 0
	lw	s0,12(s0)
.LVL75:
	j	.L98
.LBE69:
	.cfi_endproc
.LFE18:
	.size	rb_tree_find, .-rb_tree_find
	.section	.text.rb_tree_insert_node,"ax",@progbits
	.align	1
	.globl	rb_tree_insert_node
	.type	rb_tree_insert_node, @function
rb_tree_insert_node:
.LFB20:
	.loc 1 235 1 is_stmt 1
	.cfi_startproc
.LVL76:
	.loc 1 236 5
	.loc 1 236 8 is_stmt 0
	beq	a0,zero,.L147
	.loc 1 236 14 discriminator 1
	beq	a1,zero,.L147
	.loc 1 235 1
	addi	sp,sp,-64
	.cfi_def_cfa_offset 64
	sw	s1,52(sp)
	sw	s6,32(sp)
	sw	ra,60(sp)
	sw	s0,56(sp)
	sw	s2,48(sp)
	sw	s3,44(sp)
	sw	s4,40(sp)
	sw	s5,36(sp)
	sw	s7,28(sp)
	sw	s8,24(sp)
	sw	s9,20(sp)
	sw	s10,16(sp)
	.cfi_offset 9, -12
	.cfi_offset 22, -32
	.cfi_offset 1, -4
	.cfi_offset 8, -8
	.cfi_offset 18, -16
	.cfi_offset 19, -20
	.cfi_offset 20, -24
	.cfi_offset 21, -28
	.cfi_offset 23, -36
	.cfi_offset 24, -40
	.cfi_offset 25, -44
	.cfi_offset 26, -48
.LBB84:
.LBB85:
	.loc 1 237 17
	lw	s0,0(a0)
	mv	s6,a1
	mv	s1,a0
.LVL77:
	.loc 1 237 9 is_stmt 1
	.loc 1 237 12 is_stmt 0
	bne	s0,zero,.L106
	.loc 1 238 13 is_stmt 1
	.loc 1 238 24 is_stmt 0
	sw	a1,0(s1)
.LVL78:
.L107:
	.loc 1 298 9 is_stmt 1
	.loc 1 298 13 is_stmt 0
	lw	a5,0(s1)
.LBE85:
.LBE84:
	.loc 1 303 1
	li	a0,1
.LBB103:
.LBB101:
	.loc 1 298 25
	sw	zero,0(a5)
	.loc 1 299 9 is_stmt 1
	lw	a5,8(s1)
	addi	a5,a5,1
	sw	a5,8(s1)
.LBE101:
.LBE103:
	.loc 1 302 5
	.loc 1 303 1 is_stmt 0
	lw	ra,60(sp)
	.cfi_remember_state
	.cfi_restore 1
	lw	s0,56(sp)
	.cfi_restore 8
	lw	s1,52(sp)
	.cfi_restore 9
.LVL79:
	lw	s2,48(sp)
	.cfi_restore 18
	lw	s3,44(sp)
	.cfi_restore 19
	lw	s4,40(sp)
	.cfi_restore 20
	lw	s5,36(sp)
	.cfi_restore 21
	lw	s6,32(sp)
	.cfi_restore 22
.LVL80:
	lw	s7,28(sp)
	.cfi_restore 23
	lw	s8,24(sp)
	.cfi_restore 24
	lw	s9,20(sp)
	.cfi_restore 25
	lw	s10,16(sp)
	.cfi_restore 26
	addi	sp,sp,64
	.cfi_def_cfa_offset 0
	jr	ra
.LVL81:
.L106:
	.cfi_restore_state
.LBB104:
.LBB102:
.LBB86:
	.loc 1 240 13 is_stmt 1
	.loc 1 240 28 is_stmt 0
	sw	zero,0(sp)
	sw	zero,4(sp)
	sw	zero,12(sp)
	.loc 1 241 13 is_stmt 1
	.loc 1 242 13
	.loc 1 243 13
.LVL82:
	.loc 1 246 13
	.loc 1 247 13
	.loc 1 248 13
	.loc 1 248 28 is_stmt 0
	sw	s0,8(sp)
.LVL83:
	.loc 1 243 26
	li	a1,0
.LVL84:
	.loc 1 243 17
	li	s8,0
	.loc 1 247 19
	li	s3,0
	.loc 1 246 15
	mv	s7,sp
	.loc 1 247 15
	li	s5,0
	.loc 1 259 28
	li	s9,1
.LVL85:
.L115:
	.loc 1 251 13 is_stmt 1
	.loc 1 252 17
	.loc 1 252 20 is_stmt 0
	bne	s0,zero,.L108
	.loc 1 255 21 is_stmt 1
.LVL86:
	.loc 1 255 34 is_stmt 0
	slli	a5,s8,2
	add	a5,s3,a5
	sw	s6,4(a5)
	mv	s0,s6
.LVL87:
.L109:
	.loc 1 264 17 is_stmt 1
.LBB87:
.LBB88:
	.loc 1 65 5
.LBE88:
.LBE87:
	.loc 1 264 20 is_stmt 0
	lw	a5,0(s0)
	beq	a5,zero,.L110
.LVL88:
.LBB89:
.LBB90:
	.loc 1 65 5 is_stmt 1
	.loc 1 65 29 is_stmt 0
	beq	s3,zero,.L110
.LVL89:
.LBE90:
.LBE89:
	.loc 1 264 39
	lw	a5,0(s3)
	beq	a5,zero,.L110
.LBB91:
	.loc 1 267 21 is_stmt 1
	.loc 1 267 43 is_stmt 0
	lw	s2,8(s7)
	.loc 1 268 37
	slli	s4,a1,2
	add	a5,s3,s4
	.loc 1 268 24
	lw	a5,4(a5)
	.loc 1 267 43
	sub	s2,s2,s5
	seqz	s2,s2
.LVL90:
	.loc 1 268 21 is_stmt 1
	xori	s10,a1,1
	slli	s2,s2,2
.LVL91:
	.loc 1 268 24 is_stmt 0
	bne	a5,s0,.L111
.LVL92:
.L150:
.LBB92:
.LBB93:
	.loc 1 88 9 is_stmt 1
	.loc 1 88 18 is_stmt 0
	mv	a1,s10
	mv	a0,s5
	call	rb_node_rotate
.LVL93:
.L112:
	.loc 1 90 5 is_stmt 1
.LBE93:
.LBE92:
	.loc 1 271 39 is_stmt 0
	add	s2,s7,s2
	sw	a0,4(s2)
.LVL94:
.L110:
.LBE91:
	.loc 1 277 17 is_stmt 1
	.loc 1 277 21 is_stmt 0
	lw	a5,4(s1)
	mv	a2,s6
	mv	a1,s0
	mv	a0,s1
	jalr	a5
.LVL95:
	.loc 1 277 20
	beq	a0,zero,.L113
	.loc 1 281 17 is_stmt 1
.LVL96:
	.loc 1 282 17
	.loc 1 282 23 is_stmt 0
	lw	a5,4(s1)
	mv	a2,s6
	mv	a1,s0
	mv	a0,s1
	jalr	a5
.LVL97:
	.loc 1 282 48
	srli	a0,a0,31
.LVL98:
	.loc 1 285 17 is_stmt 1
	.loc 1 285 20 is_stmt 0
	beq	s5,zero,.L114
	mv	s7,s5
.LVL99:
.L114:
	.loc 1 289 17 is_stmt 1
	.loc 1 290 17
	.loc 1 290 19 is_stmt 0
	slli	a5,a0,2
	add	a5,s0,a5
.LVL100:
	.loc 1 281 22
	mv	a1,s8
	mv	s5,s3
	.loc 1 282 21
	mv	s8,a0
.LVL101:
	.loc 1 281 22
	mv	s3,s0
.LVL102:
	.loc 1 290 19
	lw	s0,4(a5)
.LVL103:
	j	.L115
.LVL104:
.L108:
	.loc 1 256 24 is_stmt 1
	.loc 1 256 50 is_stmt 0
	lw	a5,4(s0)
.LVL105:
.LBB96:
.LBB97:
	.loc 1 65 5 is_stmt 1
	.loc 1 65 29 is_stmt 0
	beq	a5,zero,.L109
.LVL106:
.LBE97:
.LBE96:
	.loc 1 256 27
	lw	a4,0(a5)
	beq	a4,zero,.L109
	.loc 1 256 80
	lw	a4,8(s0)
.LVL107:
.LBB98:
.LBB99:
	.loc 1 65 5 is_stmt 1
	.loc 1 65 29 is_stmt 0
	beq	a4,zero,.L109
.LVL108:
.LBE99:
.LBE98:
	.loc 1 256 55
	lw	a4,0(a4)
	beq	a4,zero,.L109
	.loc 1 259 21 is_stmt 1
	.loc 1 259 28 is_stmt 0
	sw	s9,0(s0)
	.loc 1 260 21 is_stmt 1
	.loc 1 260 37 is_stmt 0
	sw	zero,0(a5)
	.loc 1 261 21 is_stmt 1
	.loc 1 261 28 is_stmt 0
	lw	a5,8(s0)
	.loc 1 261 37
	sw	zero,0(a5)
	j	.L109
.LVL109:
.L111:
.LBB100:
	.loc 1 271 25 is_stmt 1
.LBB95:
.LBB94:
	.loc 1 84 5
	.loc 1 86 5
	.loc 1 84 21 is_stmt 0
	li	a0,0
	.loc 1 86 8
	beq	s5,zero,.L112
	.loc 1 87 9 is_stmt 1
	add	s4,s5,s4
	.loc 1 87 28 is_stmt 0
	lw	a0,4(s4)
	call	rb_node_rotate
.LVL110:
	.loc 1 87 26
	sw	a0,4(s4)
	j	.L150
.LVL111:
.L113:
.LBE94:
.LBE95:
.LBE100:
	.loc 1 294 13 is_stmt 1
	.loc 1 294 24 is_stmt 0
	lw	a5,8(sp)
	sw	a5,0(s1)
	j	.L107
.LVL112:
.L147:
	.cfi_def_cfa_offset 0
	.cfi_restore 1
	.cfi_restore 8
	.cfi_restore 9
	.cfi_restore 18
	.cfi_restore 19
	.cfi_restore 20
	.cfi_restore 21
	.cfi_restore 22
	.cfi_restore 23
	.cfi_restore 24
	.cfi_restore 25
	.cfi_restore 26
.LBE86:
.LBE102:
.LBE104:
	.loc 1 303 1
	li	a0,1
.LVL113:
	ret
	.cfi_endproc
.LFE20:
	.size	rb_tree_insert_node, .-rb_tree_insert_node
	.section	.text.rb_tree_insert,"ax",@progbits
	.align	1
	.globl	rb_tree_insert
	.type	rb_tree_insert, @function
rb_tree_insert:
.LFB19:
	.loc 1 229 1 is_stmt 1
	.cfi_startproc
.LVL114:
	.loc 1 230 5
	.loc 1 229 1 is_stmt 0
	addi	sp,sp,-16
	.cfi_def_cfa_offset 16
	sw	s0,8(sp)
	.cfi_offset 8, -8
	mv	s0,a0
	.loc 1 230 12
	mv	a0,a1
.LVL115:
	.loc 1 229 1
	sw	ra,12(sp)
	.cfi_offset 1, -4
	.loc 1 230 12
	call	rb_node_create
.LVL116:
	mv	a1,a0
	mv	a0,s0
	.loc 1 231 1
	lw	s0,8(sp)
	.cfi_restore 8
.LVL117:
	lw	ra,12(sp)
	.cfi_restore 1
	addi	sp,sp,16
	.cfi_def_cfa_offset 0
	.loc 1 230 12
	tail	rb_tree_insert_node
.LVL118:
	.cfi_endproc
.LFE19:
	.size	rb_tree_insert, .-rb_tree_insert
	.section	.text.rb_tree_remove_with_cb,"ax",@progbits
	.align	1
	.globl	rb_tree_remove_with_cb
	.type	rb_tree_remove_with_cb, @function
rb_tree_remove_with_cb:
.LFB21:
	.loc 1 309 1 is_stmt 1
	.cfi_startproc
.LVL119:
	.loc 1 310 5
	.loc 1 310 13 is_stmt 0
	lw	a5,0(a0)
	.loc 1 310 8
	beq	a5,zero,.L210
	.loc 1 309 1
	addi	sp,sp,-112
	.cfi_def_cfa_offset 112
	sw	s0,104(sp)
	sw	s2,96(sp)
	sw	s4,88(sp)
	sw	s5,84(sp)
	sw	s6,80(sp)
	sw	s10,64(sp)
	sw	ra,108(sp)
	sw	s1,100(sp)
	sw	s3,92(sp)
	sw	s7,76(sp)
	sw	s8,72(sp)
	sw	s9,68(sp)
	sw	s11,60(sp)
	.cfi_offset 8, -8
	.cfi_offset 18, -16
	.cfi_offset 20, -24
	.cfi_offset 21, -28
	.cfi_offset 22, -32
	.cfi_offset 26, -48
	.cfi_offset 1, -4
	.cfi_offset 9, -12
	.cfi_offset 19, -20
	.cfi_offset 23, -36
	.cfi_offset 24, -40
	.cfi_offset 25, -44
	.cfi_offset 27, -52
	sw	a2,12(sp)
	mv	s2,a0
.LBB128:
	.loc 1 311 9 is_stmt 1
	.loc 1 311 24 is_stmt 0
	sw	zero,16(sp)
	sw	zero,20(sp)
	sw	zero,28(sp)
	.loc 1 312 9 is_stmt 1
	.loc 1 312 24 is_stmt 0
	sw	zero,32(sp)
	sw	zero,36(sp)
	sw	zero,40(sp)
	sw	a1,44(sp)
	.loc 1 313 9 is_stmt 1
	.loc 1 314 9
.LVL120:
	.loc 1 315 9
	.loc 1 318 9
	.loc 1 319 9
	.loc 1 320 9
	.loc 1 320 20 is_stmt 0
	sw	a5,24(sp)
	.loc 1 324 9 is_stmt 1
	.loc 1 315 13 is_stmt 0
	li	s4,1
	.loc 1 314 25
	li	s5,0
	.loc 1 319 15
	li	s10,0
	.loc 1 318 11
	addi	s0,sp,16
.LVL121:
.LBB129:
.LBB130:
.LBB131:
	.loc 1 360 57
	li	s6,1
.LVL122:
.L155:
	slli	s11,s4,2
	add	s9,s0,s11
.LBE131:
.LBE130:
.LBE129:
	.loc 1 324 23
	lw	s3,4(s9)
	.loc 1 324 15
	bne	s3,zero,.L165
	.loc 1 370 9 is_stmt 1
	.loc 1 370 12 is_stmt 0
	beq	s5,zero,.L167
.LBB150:
	.loc 1 371 13 is_stmt 1
	.loc 1 372 25 is_stmt 0
	lw	a4,12(s0)
	.loc 1 371 19
	lw	a5,12(s5)
.LVL123:
	.loc 1 372 13 is_stmt 1
	.loc 1 372 22 is_stmt 0
	sw	a4,12(s5)
	.loc 1 373 13 is_stmt 1
	.loc 1 373 22 is_stmt 0
	sw	a5,12(s0)
	.loc 1 375 13 is_stmt 1
	.loc 1 375 59 is_stmt 0
	lw	a5,4(s0)
.LVL124:
	.loc 1 375 32
	lw	s1,8(s10)
	.loc 1 375 59
	seqz	a5,a5
	.loc 1 375 47
	slli	a5,a5,2
	add	a5,s0,a5
	.loc 1 375 32
	sub	s1,s1,s0
	.loc 1 375 47
	lw	a5,4(a5)
	.loc 1 375 32
	seqz	s1,s1
	.loc 1 375 38
	slli	s1,s1,2
	add	s1,s10,s1
	sw	a5,4(s1)
.LVL125:
	.loc 1 377 13 is_stmt 1
	.loc 1 377 16 is_stmt 0
	lw	a5,12(sp)
	beq	a5,zero,.L167
	.loc 1 378 17 is_stmt 1
	mv	a1,s0
	mv	a0,s2
	jalr	a5
.LVL126:
.L167:
.LBE150:
	.loc 1 384 9
	.loc 1 384 31 is_stmt 0
	lw	a5,24(sp)
	.loc 1 384 20
	sw	a5,0(s2)
	.loc 1 387 9 is_stmt 1
	.loc 1 387 12 is_stmt 0
	beq	a5,zero,.L169
	.loc 1 388 13 is_stmt 1
	.loc 1 388 29 is_stmt 0
	sw	zero,0(a5)
.L169:
	.loc 1 391 9 is_stmt 1
	lw	a5,8(s2)
.LBE128:
	.loc 1 394 1 is_stmt 0
	li	a0,1
.LBB152:
	.loc 1 391 9
	addi	a5,a5,-1
	sw	a5,8(s2)
.LBE152:
	.loc 1 393 5 is_stmt 1
	.loc 1 394 1 is_stmt 0
	lw	ra,108(sp)
	.cfi_remember_state
	.cfi_restore 1
	lw	s0,104(sp)
	.cfi_restore 8
.LVL127:
	lw	s1,100(sp)
	.cfi_restore 9
	lw	s2,96(sp)
	.cfi_restore 18
.LVL128:
	lw	s3,92(sp)
	.cfi_restore 19
	lw	s4,88(sp)
	.cfi_restore 20
.LVL129:
	lw	s5,84(sp)
	.cfi_restore 21
.LVL130:
	lw	s6,80(sp)
	.cfi_restore 22
	lw	s7,76(sp)
	.cfi_restore 23
	lw	s8,72(sp)
	.cfi_restore 24
	lw	s9,68(sp)
	.cfi_restore 25
	lw	s10,64(sp)
	.cfi_restore 26
.LVL131:
	lw	s11,60(sp)
	.cfi_restore 27
	addi	sp,sp,112
	.cfi_def_cfa_offset 0
.LVL132:
	jr	ra
.LVL133:
.L165:
	.cfi_restore_state
.LBB153:
.LBB151:
	.loc 1 325 13 is_stmt 1
	.loc 1 328 13
	.loc 1 329 13
	.loc 1 330 13
	.loc 1 330 19 is_stmt 0
	lw	a4,4(s2)
	addi	a2,sp,32
	mv	a1,s3
	mv	a0,s2
	jalr	a4
.LVL134:
	.loc 1 334 17
	lw	a4,4(s2)
	.loc 1 330 19
	mv	s8,a0
	.loc 1 330 45
	srli	s7,a0,31
.LVL135:
	.loc 1 334 13 is_stmt 1
	.loc 1 334 17 is_stmt 0
	addi	a2,sp,32
	mv	a1,s3
	mv	a0,s2
	jalr	a4
.LVL136:
	.loc 1 334 16
	bne	a0,zero,.L156
	mv	s5,s3
.LVL137:
.L156:
	.loc 1 339 13 is_stmt 1
.LBB143:
.LBB144:
	.loc 1 65 5
.LBE144:
.LBE143:
	.loc 1 339 16 is_stmt 0
	lw	a4,0(s3)
	bne	a4,zero,.L157
	slli	a4,s7,2
	add	a4,s3,a4
	lw	a4,4(a4)
.LVL138:
.LBB145:
.LBB146:
	.loc 1 65 5 is_stmt 1 discriminator 1
	.loc 1 65 29 is_stmt 0 discriminator 1
	beq	a4,zero,.L158
.LVL139:
.LBE146:
.LBE145:
	.loc 1 339 36
	lw	a4,0(a4)
	bne	a4,zero,.L157
.L158:
	.loc 1 340 17 is_stmt 1
	.loc 1 340 44 is_stmt 0
	not	s8,s8
	srli	s8,s8,31
	.loc 1 340 43
	slli	s8,s8,2
	add	s8,s3,s8
	lw	a4,4(s8)
.LVL140:
.LBB147:
.LBB148:
	.loc 1 65 5 is_stmt 1
	.loc 1 65 29 is_stmt 0
	beq	a4,zero,.L159
.LVL141:
.LBE148:
.LBE147:
	.loc 1 340 20
	lw	a4,0(a4)
	beq	a4,zero,.L159
	.loc 1 341 21 is_stmt 1
	.loc 1 341 41 is_stmt 0
	mv	a1,s7
	mv	a0,s3
	call	rb_node_rotate
.LVL142:
	mv	s0,a0
.LVL143:
	.loc 1 341 39
	sw	a0,4(s9)
.LVL144:
.L157:
	.loc 1 334 16
	mv	s10,s0
.LVL145:
	mv	s4,s7
.LVL146:
	mv	s0,s3
.LVL147:
	j	.L155
.LVL148:
.L159:
.LBB149:
	.loc 1 343 21 is_stmt 1
	xori	a1,s4,1
	slli	a4,a1,2
	add	s8,s0,a4
	.loc 1 343 37 is_stmt 0
	lw	a0,4(s8)
.LVL149:
	.loc 1 344 21 is_stmt 1
	.loc 1 344 24 is_stmt 0
	beq	a0,zero,.L157
	.loc 1 345 25 is_stmt 1
	.loc 1 345 52 is_stmt 0
	add	a4,a0,a4
	lw	a4,4(a4)
.LVL150:
.LBB138:
.LBB139:
	.loc 1 65 5 is_stmt 1
	.loc 1 65 29 is_stmt 0
	beq	a4,zero,.L160
.LVL151:
.LBE139:
.LBE138:
	.loc 1 345 28
	lw	a3,0(a4)
	bne	a3,zero,.L161
.L160:
	.loc 1 345 87 discriminator 1
	add	a3,a0,s11
	lw	a3,4(a3)
.LVL152:
.LBB140:
.LBB141:
	.loc 1 65 5 is_stmt 1 discriminator 1
	.loc 1 65 29 is_stmt 0 discriminator 1
	beq	a3,zero,.L162
.LVL153:
.LBE141:
.LBE140:
	.loc 1 345 61
	lw	a3,0(a3)
	bne	a3,zero,.L161
.L162:
	.loc 1 348 29 is_stmt 1
	.loc 1 348 36 is_stmt 0
	sw	zero,0(s0)
	.loc 1 349 29 is_stmt 1
	.loc 1 349 36 is_stmt 0
	sw	s6,0(a0)
	.loc 1 350 29 is_stmt 1
	.loc 1 350 36 is_stmt 0
	sw	s6,0(s3)
	j	.L157
.L161:
.LBB142:
	.loc 1 352 29 is_stmt 1
	.loc 1 352 51 is_stmt 0
	lw	s1,8(s10)
	.loc 1 353 55
	add	s11,a0,s11
	lw	a3,4(s11)
	.loc 1 352 51
	sub	s1,s1,s0
	seqz	s1,s1
.LVL154:
	.loc 1 353 29 is_stmt 1
.LBB132:
.LBB133:
	.loc 1 65 5
	slli	s1,s1,2
.LVL155:
	.loc 1 65 29 is_stmt 0
	beq	a3,zero,.L163
.LVL156:
.LBE133:
.LBE132:
	.loc 1 353 32
	lw	a3,0(a3)
	beq	a3,zero,.L163
	.loc 1 354 33 is_stmt 1
.LVL157:
.LBB134:
.LBB135:
	.loc 1 84 5
	.loc 1 86 5
	.loc 1 87 9
	.loc 1 87 28 is_stmt 0
	call	rb_node_rotate
.LVL158:
	.loc 1 87 26
	sw	a0,4(s8)
	.loc 1 88 9 is_stmt 1
.LVL159:
.L213:
.LBE135:
.LBE134:
	.loc 1 356 33
	.loc 1 356 49 is_stmt 0
	mv	a1,s4
	mv	a0,s0
	call	rb_node_rotate
.LVL160:
	.loc 1 356 47
	add	a5,s10,s1
	sw	a0,4(a5)
	j	.L164
.LVL161:
.L163:
	.loc 1 355 36 is_stmt 1
.LBB136:
.LBB137:
	.loc 1 65 5
	.loc 1 65 29 is_stmt 0
	beq	a4,zero,.L164
.LVL162:
.LBE137:
.LBE136:
	.loc 1 355 39
	lw	a4,0(a4)
	bne	a4,zero,.L213
.LVL163:
.L164:
	.loc 1 360 29 is_stmt 1
	add	s1,s10,s1
	.loc 1 360 45 is_stmt 0
	lw	a5,4(s1)
	.loc 1 360 57
	sw	s6,0(a5)
	.loc 1 360 36
	sw	s6,0(s3)
	.loc 1 361 29 is_stmt 1
	.loc 1 361 48 is_stmt 0
	lw	a5,4(s1)
	lw	a5,4(a5)
	.loc 1 361 57
	sw	zero,0(a5)
	.loc 1 362 29 is_stmt 1
	.loc 1 362 48 is_stmt 0
	lw	a5,4(s1)
	lw	a5,8(a5)
	.loc 1 362 57
	sw	zero,0(a5)
	j	.L157
.LVL164:
.L210:
	.cfi_def_cfa_offset 0
	.cfi_restore 1
	.cfi_restore 8
	.cfi_restore 9
	.cfi_restore 18
	.cfi_restore 19
	.cfi_restore 20
	.cfi_restore 21
	.cfi_restore 22
	.cfi_restore 23
	.cfi_restore 24
	.cfi_restore 25
	.cfi_restore 26
	.cfi_restore 27
.LBE142:
.LBE149:
.LBE151:
.LBE153:
	.loc 1 393 5 is_stmt 1
	.loc 1 394 1 is_stmt 0
	li	a0,1
.LVL165:
	ret
	.cfi_endproc
.LFE21:
	.size	rb_tree_remove_with_cb, .-rb_tree_remove_with_cb
	.section	.text.rb_tree_remove,"ax",@progbits
	.align	1
	.globl	rb_tree_remove
	.type	rb_tree_remove, @function
rb_tree_remove:
.LFB22:
	.loc 1 397 1 is_stmt 1
	.cfi_startproc
.LVL166:
	.loc 1 398 5
	.loc 1 400 5
	.loc 1 400 8 is_stmt 0
	beq	a0,zero,.L215
	.loc 1 401 9 is_stmt 1
	.loc 1 401 18 is_stmt 0
	lui	a2,%hi(rb_tree_node_dealloc_cb)
	addi	a2,a2,%lo(rb_tree_node_dealloc_cb)
	tail	rb_tree_remove_with_cb
.LVL167:
.L215:
	.loc 1 403 5 is_stmt 1
	.loc 1 404 1 is_stmt 0
	ret
	.cfi_endproc
.LFE22:
	.size	rb_tree_remove, .-rb_tree_remove
	.section	.text.rb_tree_size,"ax",@progbits
	.align	1
	.globl	rb_tree_size
	.type	rb_tree_size, @function
rb_tree_size:
.LFB23:
	.loc 1 407 1 is_stmt 1
	.cfi_startproc
.LVL168:
	.loc 1 408 5
	.loc 1 410 5
	.loc 1 410 8 is_stmt 0
	beq	a0,zero,.L218
	.loc 1 411 9 is_stmt 1
	.loc 1 411 16 is_stmt 0
	lw	a0,8(a0)
.LVL169:
	ret
.LVL170:
.L218:
	.loc 1 408 12
	li	a0,0
.LVL171:
	.loc 1 413 5 is_stmt 1
	.loc 1 414 1 is_stmt 0
	ret
	.cfi_endproc
.LFE23:
	.size	rb_tree_size, .-rb_tree_size
	.section	.text.rb_iter_alloc,"ax",@progbits
	.align	1
	.globl	rb_iter_alloc
	.type	rb_iter_alloc, @function
rb_iter_alloc:
.LFB24:
	.loc 1 418 1 is_stmt 1
	.cfi_startproc
	.loc 1 419 5
	.loc 1 419 12 is_stmt 0
	li	a0,272
	tail	pvPortMalloc
.LVL172:
	.cfi_endproc
.LFE24:
	.size	rb_iter_alloc, .-rb_iter_alloc
	.section	.text.rb_iter_init,"ax",@progbits
	.align	1
	.globl	rb_iter_init
	.type	rb_iter_init, @function
rb_iter_init:
.LFB25:
	.loc 1 423 1 is_stmt 1
	.cfi_startproc
.LVL173:
	.loc 1 424 5
	.loc 1 424 8 is_stmt 0
	beq	a0,zero,.L221
	.loc 1 425 9 is_stmt 1
	.loc 1 425 20 is_stmt 0
	sw	zero,0(a0)
	.loc 1 426 9 is_stmt 1
	.loc 1 426 20 is_stmt 0
	sw	zero,4(a0)
	.loc 1 427 9 is_stmt 1
	.loc 1 427 19 is_stmt 0
	sw	zero,264(a0)
.L221:
	.loc 1 429 5 is_stmt 1
	.loc 1 430 1 is_stmt 0
	ret
	.cfi_endproc
.LFE25:
	.size	rb_iter_init, .-rb_iter_init
	.section	.text.rb_iter_create,"ax",@progbits
	.align	1
	.globl	rb_iter_create
	.type	rb_iter_create, @function
rb_iter_create:
.LFB26:
	.loc 1 433 1 is_stmt 1
	.cfi_startproc
	.loc 1 434 5
	.loc 1 433 1 is_stmt 0
	addi	sp,sp,-16
	.cfi_def_cfa_offset 16
	sw	ra,12(sp)
	.cfi_offset 1, -4
	.loc 1 434 12
	call	rb_iter_alloc
.LVL174:
	.loc 1 435 1
	lw	ra,12(sp)
	.cfi_restore 1
	addi	sp,sp,16
	.cfi_def_cfa_offset 0
	.loc 1 434 12
	tail	rb_iter_init
.LVL175:
	.cfi_endproc
.LFE26:
	.size	rb_iter_create, .-rb_iter_create
	.section	.text.rb_iter_dealloc,"ax",@progbits
	.align	1
	.globl	rb_iter_dealloc
	.type	rb_iter_dealloc, @function
rb_iter_dealloc:
.LFB27:
	.loc 1 438 1 is_stmt 1
	.cfi_startproc
.LVL176:
	.loc 1 439 5
	.loc 1 439 8 is_stmt 0
	beq	a0,zero,.L227
	.loc 1 440 9 is_stmt 1
	tail	vPortFree
.LVL177:
.L227:
	.loc 1 442 1 is_stmt 0
	ret
	.cfi_endproc
.LFE27:
	.size	rb_iter_dealloc, .-rb_iter_dealloc
	.section	.text.rb_iter_first,"ax",@progbits
	.align	1
	.globl	rb_iter_first
	.type	rb_iter_first, @function
rb_iter_first:
.LFB30:
	.loc 1 495 1 is_stmt 1
	.cfi_startproc
.LVL178:
	.loc 1 496 5
.LBB156:
.LBB157:
	.loc 1 448 5
	.loc 1 450 5
	.loc 1 450 8 is_stmt 0
	bne	a0,zero,.L230
.L234:
	.loc 1 448 11
	li	a0,0
.LVL179:
	ret
.LVL180:
.L230:
	.loc 1 451 9 is_stmt 1
	.loc 1 451 20 is_stmt 0
	sw	a1,0(a0)
	.loc 1 452 9 is_stmt 1
	.loc 1 452 26 is_stmt 0
	lw	a5,0(a1)
	.loc 1 453 19
	sw	zero,264(a0)
	.loc 1 452 20
	sw	a5,4(a0)
	.loc 1 453 9 is_stmt 1
	.loc 1 456 9
	.loc 1 456 12 is_stmt 0
	bne	a5,zero,.L232
.L236:
	.loc 1 462 9 is_stmt 1
	.loc 1 462 22 is_stmt 0
	lw	a5,4(a0)
	.loc 1 462 43
	beq	a5,zero,.L234
	lw	a0,12(a5)
.LVL181:
	.loc 1 465 5 is_stmt 1
.LBE157:
.LBE156:
	.loc 1 497 1 is_stmt 0
	ret
.LVL182:
.L235:
.LBB159:
.LBB158:
	.loc 1 458 17 is_stmt 1
	.loc 1 458 32 is_stmt 0
	lw	a5,264(a0)
	.loc 1 458 37
	addi	a3,a5,1
	.loc 1 458 41
	slli	a5,a5,2
	.loc 1 458 37
	sw	a3,264(a0)
	.loc 1 458 41
	add	a5,a0,a5
	sw	a4,8(a5)
	.loc 1 459 17 is_stmt 1
	.loc 1 459 46 is_stmt 0
	lw	a5,4(a4)
	.loc 1 459 28
	sw	a5,4(a0)
.L232:
	.loc 1 457 24
	lw	a4,4(a0)
	.loc 1 457 19
	lw	a5,4(a4)
	bne	a5,zero,.L235
	j	.L236
.LBE158:
.LBE159:
	.cfi_endproc
.LFE30:
	.size	rb_iter_first, .-rb_iter_first
	.section	.text.rb_iter_last,"ax",@progbits
	.align	1
	.globl	rb_iter_last
	.type	rb_iter_last, @function
rb_iter_last:
.LFB31:
	.loc 1 500 1 is_stmt 1
	.cfi_startproc
.LVL183:
	.loc 1 501 5
.LBB162:
.LBB163:
	.loc 1 448 5
	.loc 1 450 5
	.loc 1 450 8 is_stmt 0
	bne	a0,zero,.L239
.L243:
	.loc 1 448 11
	li	a0,0
.LVL184:
	ret
.LVL185:
.L239:
	.loc 1 451 9 is_stmt 1
	.loc 1 451 20 is_stmt 0
	sw	a1,0(a0)
	.loc 1 452 9 is_stmt 1
	.loc 1 452 26 is_stmt 0
	lw	a5,0(a1)
	.loc 1 453 19
	sw	zero,264(a0)
	.loc 1 452 20
	sw	a5,4(a0)
	.loc 1 453 9 is_stmt 1
	.loc 1 456 9
	.loc 1 456 12 is_stmt 0
	bne	a5,zero,.L241
.L245:
	.loc 1 462 9 is_stmt 1
	.loc 1 462 22 is_stmt 0
	lw	a5,4(a0)
	.loc 1 462 43
	beq	a5,zero,.L243
	lw	a0,12(a5)
.LVL186:
	.loc 1 465 5 is_stmt 1
.LBE163:
.LBE162:
	.loc 1 502 1 is_stmt 0
	ret
.LVL187:
.L244:
.LBB165:
.LBB164:
	.loc 1 458 17 is_stmt 1
	.loc 1 458 32 is_stmt 0
	lw	a5,264(a0)
	.loc 1 458 37
	addi	a3,a5,1
	.loc 1 458 41
	slli	a5,a5,2
	.loc 1 458 37
	sw	a3,264(a0)
	.loc 1 458 41
	add	a5,a0,a5
	sw	a4,8(a5)
	.loc 1 459 17 is_stmt 1
	.loc 1 459 46 is_stmt 0
	lw	a5,8(a4)
	.loc 1 459 28
	sw	a5,4(a0)
.L241:
	.loc 1 457 24
	lw	a4,4(a0)
	.loc 1 457 19
	lw	a5,8(a4)
	bne	a5,zero,.L244
	j	.L245
.LBE164:
.LBE165:
	.cfi_endproc
.LFE31:
	.size	rb_iter_last, .-rb_iter_last
	.section	.text.rb_iter_next,"ax",@progbits
	.align	1
	.globl	rb_iter_next
	.type	rb_iter_next, @function
rb_iter_next:
.LFB32:
	.loc 1 505 1 is_stmt 1
	.cfi_startproc
.LVL188:
	.loc 1 506 5
	.loc 1 506 12 is_stmt 0
	li	a1,1
	tail	rb_iter_move
.LVL189:
	.cfi_endproc
.LFE32:
	.size	rb_iter_next, .-rb_iter_next
	.section	.text.rb_iter_prev,"ax",@progbits
	.align	1
	.globl	rb_iter_prev
	.type	rb_iter_prev, @function
rb_iter_prev:
.LFB33:
	.loc 1 510 1 is_stmt 1
	.cfi_startproc
.LVL190:
	.loc 1 511 5
	.loc 1 511 12 is_stmt 0
	li	a1,0
	tail	rb_iter_move
.LVL191:
	.cfi_endproc
.LFE33:
	.size	rb_iter_prev, .-rb_iter_prev
	.section	.rodata.rb_tree_test.str1.4,"aMS",@progbits,1
	.align	2
.LC0:
	.string	"Red violation"
	.zero	2
.LC1:
	.string	"Binary tree violation"
	.zero	2
.LC2:
	.string	"Black violation"
	.text
.Letext0:
	.file 2 "/b-l/bl_iot_sdk_new/toolchain/riscv/Linux/lib/gcc/riscv64-unknown-elf/8.3.0/include/stddef.h"
	.file 3 "/b-l/bl_iot_sdk_new/toolchain/riscv/Linux/lib/gcc/riscv64-unknown-elf/8.3.0/include/stdint-gcc.h"
	.file 4 "/b-l/bl_iot_sdk_new/components/bl602/freertos_riscv_ram/portable/GCC/RISC-V/portmacro.h"
	.file 5 "/b-l/bl_iot_sdk_new/toolchain/riscv/Linux/riscv64-unknown-elf/include/sys/_types.h"
	.file 6 "/b-l/bl_iot_sdk_new/toolchain/riscv/Linux/riscv64-unknown-elf/include/sys/reent.h"
	.file 7 "/b-l/bl_iot_sdk_new/toolchain/riscv/Linux/riscv64-unknown-elf/include/sys/lock.h"
	.file 8 "/b-l/bl_iot_sdk_new/components/utils/include/utils_rbtree.h"
	.file 9 "/b-l/bl_iot_sdk_new/components/bl602/freertos_riscv_ram/config/portable.h"
	.file 10 "/b-l/bl_iot_sdk_new/toolchain/riscv/Linux/riscv64-unknown-elf/include/stdio.h"