	.file	"ukey.c"
	.option nopic
	.attribute arch, "rv32i2p0_m2p0_f2p0_c2p0"
	.attribute unaligned_access, 0
	.attribute stack_align, 16
	.text
.Ltext0:
	.cfi_sections	.debug_frame
	.section	.text.keys_get_press_key,"ax",@progbits
	.align	1
	.type	keys_get_press_key, @function
keys_get_press_key:
.LFB6:
	.file 1 "/b-l/dolphin/components/ukey/ukey.c"
	.loc 1 42 54
	.cfi_startproc
.LVL0:
	.loc 1 43 5
	.loc 1 44 5
	.loc 1 44 45 is_stmt 0
	lui	a5,%hi(.LANCHOR0)
	addi	a5,a5,%lo(.LANCHOR0)
	lbu	a6,0(a5)
	.loc 1 45 43
	lw	a7,4(a5)
	.loc 1 44 5
	li	a4,0
	.loc 1 45 28
	li	t1,1
.LVL1:
.L2:
	.loc 1 44 5 discriminator 1
	andi	a5,a4,0xff
	bgtu	a6,a5,.L4
	.loc 1 49 11
	li	a3,0
	j	.L1
.L4:
	.loc 1 45 9 is_stmt 1
	.loc 1 45 52 is_stmt 0
	slli	a5,a4,2
	add	a5,a7,a5
	lw	a3,0(a5)
	addi	a4,a4,1
.LVL2:
	.loc 1 45 28
	lw	a5,4(a3)
	sll	a5,t1,a5
	srai	a2,a5,31
	.loc 1 45 23
	and	a2,a2,a1
	and	a5,a5,a0
	.loc 1 45 11
	or	a5,a5,a2
	beq	a5,zero,.L2
.L1:
	.loc 1 50 1
	mv	a0,a3
.LVL3:
	ret
	.cfi_endproc
.LFE6:
	.size	keys_get_press_key, .-keys_get_press_key
	.section	.text.ukey_handle,"ax",@progbits
	.align	1
	.globl	ukey_handle
	.type	ukey_handle, @function
ukey_handle:
.LFB7:
	.loc 1 53 28 is_stmt 1
	.cfi_startproc
.LVL4:
	addi	sp,sp,-48
	.cfi_def_cfa_offset 48
	sw	s0,40(sp)
	sw	s1,36(sp)
	.cfi_offset 8, -8
	.cfi_offset 9, -12
.LBB7:
	.loc 1 74 27 is_stmt 0
	lui	s0,%hi(.LANCHOR2)
.LBB8:
.LBB9:
	.loc 1 33 33
	lui	s1,%hi(.LANCHOR0)
.LBE9:
.LBE8:
.LBE7:
	.loc 1 53 28
	sw	s2,32(sp)
	sw	s3,28(sp)
	sw	s4,24(sp)
	sw	s5,20(sp)
	sw	ra,44(sp)
	sw	s6,16(sp)
	sw	s7,12(sp)
	.cfi_offset 18, -16
	.cfi_offset 19, -20
	.cfi_offset 20, -24
	.cfi_offset 21, -28
	.cfi_offset 1, -4
	.cfi_offset 22, -32
	.cfi_offset 23, -36
.LBB16:
.LBB13:
.LBB10:
	.loc 1 33 33
	addi	s1,s1,%lo(.LANCHOR0)
	.loc 1 35 34
	li	s2,1
.LBE10:
.LBE13:
	.loc 1 65 9
	lui	s4,%hi(.LANCHOR1)
	.loc 1 83 26
	lui	s3,%hi(.LANCHOR3)
	.loc 1 74 27
	addi	s0,s0,%lo(.LANCHOR2)
	.loc 1 79 28
	li	s5,2
.LVL5:
.L24:
.LBE16:
	.loc 1 54 5 is_stmt 1
	.loc 1 55 5
	.loc 1 56 5
	.loc 1 57 5
	.loc 1 59 5
.LBB17:
	.loc 1 61 9
	.loc 1 63 9
.LBB14:
.LBB11:
	.loc 1 31 5
	.loc 1 32 5
	.loc 1 33 5
	.loc 1 33 12 is_stmt 0
	li	s6,0
.LVL6:
.L6:
	.loc 1 33 5
	lbu	a5,0(s1)
	bgtu	a5,s6,.L9
	.loc 1 39 12
	li	a5,0
	li	a4,0
	j	.L8
.L9:
	.loc 1 34 9 is_stmt 1
	.loc 1 34 58 is_stmt 0
	lw	a4,4(s1)
	slli	s7,s6,2
	add	a4,a4,s7
	.loc 1 34 61
	lw	a5,0(a4)
	.loc 1 34 13
	lbu	a0,4(a5)
	call	bl_gpio_input_get_value
.LVL7:
	.loc 1 34 11
	bne	a0,zero,.L7
	.loc 1 35 13 is_stmt 1
	.loc 1 35 58 is_stmt 0
	lw	a5,4(s1)
	add	a5,a5,s7
	.loc 1 35 61
	lw	a5,0(a5)
	.loc 1 35 34
	lw	a5,4(a5)
	sll	a5,s2,a5
	srai	a4,a5,31
.LVL8:
	.loc 1 36 13 is_stmt 1
.L8:
.LBE11:
.LBE14:
	.loc 1 65 9
	addi	a2,s4,%lo(.LANCHOR1)
	lbu	a3,0(a2)
	addi	s6,s4,%lo(.LANCHOR1)
	beq	a3,s2,.L10
	beq	a3,zero,.L11
	beq	a3,s5,.L12
	li	a2,4
	beq	a3,a2,.L13
.LVL9:
.L14:
	.loc 1 117 9
	li	a0,30
	call	vTaskDelay
.LVL10:
.LBE17:
	.loc 1 60 5 is_stmt 0
	j	.L24
.LVL11:
.L7:
.LBB18:
.LBB15:
.LBB12:
	.loc 1 33 45
	addi	s6,s6,1
.LVL12:
	andi	s6,s6,0xff
.LVL13:
	j	.L6
.LVL14:
.L11:
.LBE12:
.LBE15:
	.loc 1 68 13 is_stmt 1
	.loc 1 68 16 is_stmt 0
	or	a3,a5,a4
	beq	a3,zero,.L14
	.loc 1 69 17 is_stmt 1
	.loc 1 69 26 is_stmt 0
	sw	a5,0(s0)
	sw	a4,4(s0)
	.loc 1 70 17 is_stmt 1
	.loc 1 70 28 is_stmt 0
	sb	s2,0(a2)
	j	.L14
.L10:
	.loc 1 74 13 is_stmt 1
	.loc 1 74 16 is_stmt 0
	lw	a3,0(s0)
	bne	a3,a5,.L16
	lw	a3,4(s0)
	bne	a3,a4,.L16
	.loc 1 75 17 is_stmt 1
	.loc 1 75 23 is_stmt 0
	mv	a0,a5
	mv	a1,a4
	call	keys_get_press_key
.LVL15:
	.loc 1 76 17 is_stmt 1
	.loc 1 76 19 is_stmt 0
	beq	a0,zero,.L17
	.loc 1 76 30 discriminator 1
	lw	a5,12(a0)
	.loc 1 76 24 discriminator 1
	beq	a5,zero,.L17
	.loc 1 77 21 is_stmt 1
	lbu	a0,4(a0)
.LVL16:
	li	a1,0
	jalr	a5
.LVL17:
.L17:
	.loc 1 79 17
	.loc 1 79 28 is_stmt 0
	sb	s5,0(s6)
	.loc 1 80 17 is_stmt 1
.L53:
	.loc 1 83 17
	.loc 1 83 26 is_stmt 0
	sb	zero,%lo(.LANCHOR3)(s3)
	j	.L14
.LVL18:
.L12:
	.loc 1 87 13 is_stmt 1
	.loc 1 87 27 is_stmt 0
	lw	a0,0(s0)
	lw	a1,4(s0)
	.loc 1 87 16
	bne	a0,a5,.L25
	beq	a1,a4,.L51
.L25:
	.loc 1 88 17 is_stmt 1
	.loc 1 88 23 is_stmt 0
	call	keys_get_press_key
.LVL19:
	.loc 1 89 17 is_stmt 1
	.loc 1 89 19 is_stmt 0
	beq	a0,zero,.L16
	.loc 1 89 30 discriminator 1
	lw	a5,12(a0)
	.loc 1 89 24 discriminator 1
	beq	a5,zero,.L16
	.loc 1 90 21 is_stmt 1
	lbu	a0,4(a0)
.LVL20:
	li	a1,1
	jalr	a5
.LVL21:
.L16:
	.loc 1 82 17
	.loc 1 82 28 is_stmt 0
	sb	zero,0(s6)
	j	.L53
.LVL22:
.L51:
	.loc 1 95 17 is_stmt 1
	.loc 1 95 25 is_stmt 0
	addi	a2,s3,%lo(.LANCHOR3)
	lbu	a3,0(a2)
	addi	a3,a3,1
	andi	a3,a3,0xff
	sb	a3,0(a2)
	.loc 1 96 17 is_stmt 1
	.loc 1 96 19 is_stmt 0
	li	a2,100
	bleu	a3,a2,.L14
	.loc 1 97 21 is_stmt 1
	.loc 1 97 27 is_stmt 0
	mv	a0,a5
	mv	a1,a4
	call	keys_get_press_key
.LVL23:
	.loc 1 98 21 is_stmt 1
	.loc 1 98 23 is_stmt 0
	beq	a0,zero,.L21
	.loc 1 98 34 discriminator 1
	lw	a5,12(a0)
	.loc 1 98 28 discriminator 1
	beq	a5,zero,.L21
	.loc 1 99 25 is_stmt 1
	lbu	a0,4(a0)
.LVL24:
	li	a1,2
	jalr	a5
.LVL25:
.L21:
	.loc 1 101 21
	.loc 1 101 32 is_stmt 0
	li	a5,4
	sb	a5,0(s6)
	j	.L14
.LVL26:
.L13:
	.loc 1 106 13 is_stmt 1
	.loc 1 106 27 is_stmt 0
	lw	a0,0(s0)
	lw	a1,4(s0)
	.loc 1 106 16
	bne	a0,a5,.L26
	beq	a1,a4,.L14
.L26:
	.loc 1 107 17 is_stmt 1
	.loc 1 107 23 is_stmt 0
	call	keys_get_press_key
.LVL27:
	.loc 1 108 17 is_stmt 1
	.loc 1 108 19 is_stmt 0
	beq	a0,zero,.L23
	.loc 1 108 30 discriminator 1
	lw	a5,12(a0)
	.loc 1 108 24 discriminator 1
	beq	a5,zero,.L23
	.loc 1 109 21 is_stmt 1
	lbu	a0,4(a0)
.LVL28:
	li	a1,3
	jalr	a5
.LVL29:
.L23:
	.loc 1 111 17
	.loc 1 111 28 is_stmt 0
	sb	zero,0(s6)
	j	.L14
.LBE18:
	.cfi_endproc
.LFE7:
	.size	ukey_handle, .-ukey_handle
	.section	.text.ukey_add,"ax",@progbits
	.align	1
	.globl	ukey_add
	.type	ukey_add, @function
ukey_add:
.LFB8:
	.loc 1 122 60 is_stmt 1
	.cfi_startproc
.LVL30:
	.loc 1 124 5
	.loc 1 122 60 is_stmt 0
	addi	sp,sp,-16
	.cfi_def_cfa_offset 16
	sw	s0,8(sp)
	sw	s1,4(sp)
	.cfi_offset 8, -8
	.cfi_offset 9, -12
	mv	s0,a0
	mv	s1,a1
	.loc 1 124 5
	li	a2,0
	li	a1,1
.LVL31:
	andi	a0,a0,0xff
.LVL32:
	.loc 1 122 60
	sw	ra,12(sp)
	.cfi_offset 1, -4
	.loc 1 124 5
	call	bl_gpio_enable_input
.LVL33:
	.loc 1 126 5 is_stmt 1
	.loc 1 126 39 is_stmt 0
	li	a0,16
	call	malloc
.LVL34:
	.loc 1 127 5 is_stmt 1
	.loc 1 128 41 is_stmt 0
	lui	a3,%hi(.LANCHOR0)
	addi	a3,a3,%lo(.LANCHOR0)
	lbu	a5,0(a3)
	.loc 1 130 43
	lui	a4,%hi(.LANCHOR4)
	addi	a4,a4,%lo(.LANCHOR4)
	slli	a2,a5,2
	.loc 1 128 27
	sb	a5,0(a0)
	.loc 1 130 43
	add	a4,a4,a2
	.loc 1 131 25
	addi	a5,a5,1
	.loc 1 127 29
	sw	s0,4(a0)
	.loc 1 128 5 is_stmt 1
	.loc 1 129 5
	.loc 1 129 26 is_stmt 0
	sw	s1,12(a0)
	.loc 1 130 5 is_stmt 1
	.loc 1 130 43 is_stmt 0
	sw	a0,0(a4)
	.loc 1 131 5 is_stmt 1
	.loc 1 131 25 is_stmt 0
	sb	a5,0(a3)
	.loc 1 132 1
	lw	ra,12(sp)
	.cfi_restore 1
	lw	s0,8(sp)
	.cfi_restore 8
.LVL35:
	lw	s1,4(sp)
	.cfi_restore 9
.LVL36:
	addi	sp,sp,16
	.cfi_def_cfa_offset 0
	jr	ra
	.cfi_endproc
.LFE8:
	.size	ukey_add, .-ukey_add
	.section	.text.ukey_init,"ax",@progbits
	.align	1
	.globl	ukey_init
	.type	ukey_init, @function
ukey_init:
.LFB9:
	.loc 1 135 21 is_stmt 1
	.cfi_startproc
	.loc 1 137 5
	.loc 1 137 9 is_stmt 0
	lui	a1,%hi(.LC0)
	lui	a0,%hi(ukey_handle)
	.loc 1 135 21
	addi	sp,sp,-16
	.cfi_def_cfa_offset 16
	.loc 1 137 9
	li	a5,0
	li	a4,3
	li	a3,0
	li	a2,512
	addi	a1,a1,%lo(.LC0)
	addi	a0,a0,%lo(ukey_handle)
	.loc 1 135 21
	sw	ra,12(sp)
	.cfi_offset 1, -4
	.loc 1 137 9
	call	xTaskCreate
.LVL37:
	.loc 1 137 8
	li	a5,1
	beq	a0,a5,.L56
	.loc 1 138 9 is_stmt 1
	.loc 1 138 14
.LBB19:
.LBB20:
	.file 2 "/b-l/bl_iot_sdk_new/components/bl602/freertos_riscv_ram/portable/GCC/RISC-V/portmacro.h"
	.loc 2 151 5
	.loc 2 151 31 is_stmt 0
	lui	a5,%hi(TrapNetCounter)
.LBE20:
.LBE19:
	.loc 1 138 14
	lw	a5,%lo(TrapNetCounter)(a5)
	beq	a5,zero,.L58
	.loc 1 138 123 discriminator 1
	call	xTaskGetTickCountFromISR
.LVL38:
.L59:
	.loc 1 140 1 discriminator 4
	lw	ra,12(sp)
	.cfi_remember_state
	.cfi_restore 1
	.loc 1 138 14 discriminator 4
	lui	a2,%hi(.LC1)
	mv	a1,a0
	lui	a0,%hi(.LC2)
	.loc 1 140 1 discriminator 4
	.loc 1 138 14 discriminator 4
	addi	a2,a2,%lo(.LC1)
	addi	a0,a0,%lo(.LC2)
	.loc 1 140 1 discriminator 4
	addi	sp,sp,16
	.cfi_def_cfa_offset 0
	.loc 1 138 14 discriminator 4
	tail	bl_printk
.LVL39:
.L58:
	.cfi_restore_state
	.loc 1 138 152 discriminator 2
	call	xTaskGetTickCount
.LVL40:
	j	.L59
.L56:
	.loc 1 140 1
	lw	ra,12(sp)
	.cfi_restore 1
	addi	sp,sp,16
	.cfi_def_cfa_offset 0
	jr	ra
	.cfi_endproc
.LFE9:
	.size	ukey_init, .-ukey_init
	.section	.bss.static_key_list,"aw",@nobits
	.align	2
	.set	.LANCHOR4,. + 0
	.type	static_key_list, @object
	.size	static_key_list, 40
static_key_list:
	.zero	40
	.section	.rodata.ukey_init.str1.4,"aMS",@progbits,1
	.align	2
.LC0:
	.string	"ukey_handle"
.LC1:
	.string	"ukey"
	.zero	3
.LC2:
	.string	"\033[32m[%10u][%s] xTaskCreate(ukey_handle) failed\033[0m\r\n"
	.section	.sbss.key_prev.3111,"aw",@nobits
	.align	3
	.set	.LANCHOR2,. + 0
	.type	key_prev.3111, @object
	.size	key_prev.3111, 8
key_prev.3111:
	.zero	8
	.section	.sbss.key_status.3113,"aw",@nobits
	.set	.LANCHOR1,. + 0
	.type	key_status.3113, @object
	.size	key_status.3113, 1
key_status.3113:
	.zero	1
	.section	.sbss.time_cnt.3110,"aw",@nobits
	.set	.LANCHOR3,. + 0
	.type	time_cnt.3110, @object
	.size	time_cnt.3110, 1
time_cnt.3110:
	.zero	1
	.section	.sdata.static_ukeys,"aw"
	.align	2
	.set	.LANCHOR0,. + 0
	.type	static_ukeys, @object
	.size	static_ukeys, 8
static_ukeys:
	.byte	0
	.zero	3
	.word	static_key_list
	.text
.Letext0:
	.file 3 "/b-l/bl_iot_sdk_new/toolchain/riscv/Linux/lib/gcc/riscv64-unknown-elf/8.3.0/include/stdint-gcc.h"
	.file 4 "/b-l/dolphin/components/ukey/include/ukey.h"
	.file 5 "/b-l/bl_iot_sdk_new/toolchain/riscv/Linux/lib/gcc/riscv64-unknown-elf/8.3.0/include/stddef.h"
	.file 6 "/b-l/bl_iot_sdk_new/toolchain/riscv/Linux/riscv64-unknown-elf/include/sys/_types.h"
	.file 7 "/b-l/bl_iot_sdk_new/toolchain/riscv/Linux/riscv64-unknown-elf/include/sys/reent.h"
	.file 8 "/b-l/bl_iot_sdk_new/toolchain/riscv/Linux/riscv64-unknown-elf/include/sys/lock.h"
	.file 9 "/b-l/bl_iot_sdk_new/toolchain/riscv/Linux/riscv64-unknown-elf/include/stdlib.h"
	.file 10 "/b-l/bl_iot_sdk_new/components/bl602/freertos_riscv_ram/config/task.h"
	.file 11 "/b-l/bl_iot_sdk_new/components/utils/include/utils_log.h"
	.file 12 "/b-l/bl_iot_sdk_new/components/hal_drv/bl602_hal/bl_gpio.h"