	.file	"doit_ota.c"
	.option nopic
	.attribute arch, "rv32i2p0_m2p0_f2p0_c2p0"
	.attribute unaligned_access, 0
	.attribute stack_align, 16
	.text
.Ltext0:
	.cfi_sections	.debug_frame
	.section	.text.ota_server_task,"ax",@progbits
	.align	1
	.type	ota_server_task, @function
ota_server_task:
.LFB10:
	.file 1 "/b-l/DoHome_Light_rgbcw/DoHome_Light_rgbcw/components/doit_server/doit_ota.c"
	.loc 1 367 1
	.cfi_startproc
.LVL0:
	.loc 1 368 2
	.loc 1 369 2
	.loc 1 370 2
	.loc 1 367 1 is_stmt 0
	addi	sp,sp,-176
	.cfi_def_cfa_offset 176
	.loc 1 370 12
	li	a5,16
	.loc 1 367 1
	sw	s1,164(sp)
	.cfi_offset 9, -12
.LBB166:
.LBB167:
	.file 2 "/b-l/bl_iot_sdk/components/bl602/freertos_riscv_ram/portable/GCC/RISC-V/portmacro.h"
	.loc 2 151 31
	lui	s1,%hi(TrapNetCounter)
.LBE167:
.LBE166:
	.loc 1 370 12
	sw	a5,32(sp)
	.loc 1 371 2 is_stmt 1
.LVL1:
	.loc 1 372 2
	.loc 1 373 2
	.loc 1 374 2
	.loc 1 374 7
.LBB169:
.LBB168:
	.loc 2 151 5
.LBE168:
.LBE169:
	.loc 1 374 7 is_stmt 0
	lw	a5,%lo(TrapNetCounter)(s1)
	.loc 1 367 1
	sw	ra,172(sp)
	sw	s0,168(sp)
	sw	s2,160(sp)
	sw	s3,156(sp)
	sw	s4,152(sp)
	sw	s5,148(sp)
	sw	s6,144(sp)
	sw	s7,140(sp)
	sw	s8,136(sp)
	sw	s9,132(sp)
	sw	s10,128(sp)
	sw	s11,124(sp)
	.cfi_offset 1, -4
	.cfi_offset 8, -8
	.cfi_offset 18, -16
	.cfi_offset 19, -20
	.cfi_offset 20, -24
	.cfi_offset 21, -28
	.cfi_offset 22, -32
	.cfi_offset 23, -36
	.cfi_offset 24, -40
	.cfi_offset 25, -44
	.cfi_offset 26, -48
	.cfi_offset 27, -52
	.loc 1 374 7
	beq	a5,zero,.L2
	.loc 1 374 114 discriminator 1
	call	xTaskGetTickCountFromISR
.LVL2:
.L3:
	.loc 1 374 7 discriminator 4
	mv	a1,a0
	li	a3,4096
	lui	s0,%hi(.LC5)
	lui	a0,%hi(.LC6)
	addi	a3,a3,1997
	addi	a2,s0,%lo(.LC5)
	addi	a0,a0,%lo(.LC6)
	call	bl_printk
.LVL3:
	.loc 1 375 2 is_stmt 1 discriminator 4
	.loc 1 375 21 is_stmt 0 discriminator 4
	li	a2,0
	li	a1,1
	li	a0,2
	call	lwip_socket
.LVL4:
	mv	s4,a0
.LVL5:
	.loc 1 377 2 is_stmt 1 discriminator 4
	.loc 1 377 5 is_stmt 0 discriminator 4
	bge	a0,zero,.L4
	.loc 1 378 3 is_stmt 1
	.loc 1 378 8
.LBB170:
.LBB171:
	.loc 2 151 5
.LBE171:
.LBE170:
	.loc 1 378 8 is_stmt 0
	lw	a5,%lo(TrapNetCounter)(s1)
	beq	a5,zero,.L5
	.loc 1 378 116 discriminator 1
	call	xTaskGetTickCountFromISR
.LVL6:
.L6:
	.loc 1 378 8 discriminator 4
	lui	a3,%hi(.LC7)
	mv	a1,a0
	lui	a0,%hi(.LC8)
	mv	a5,s4
	li	a4,378
	addi	a3,a3,%lo(.LC7)
	addi	a2,s0,%lo(.LC5)
	addi	a0,a0,%lo(.LC8)
	call	bl_printk
.LVL7:
.L4:
	.loc 1 381 2 is_stmt 1
	.loc 1 382 25 is_stmt 0
	li	a0,4096
	.loc 1 381 25
	li	a5,2
	.loc 1 382 25
	addi	a0,a0,1997
	.loc 1 381 25
	sb	a5,45(sp)
	.loc 1 382 2 is_stmt 1
	.loc 1 382 25 is_stmt 0
	call	lwip_htons
.LVL8:
	.loc 1 382 23
	sh	a0,46(sp)
	.loc 1 383 2 is_stmt 1
	.loc 1 383 32 is_stmt 0
	li	a0,0
	call	lwip_htonl
.LVL9:
	.loc 1 383 30
	sw	a0,48(sp)
	.loc 1 385 2 is_stmt 1
	.loc 1 385 6 is_stmt 0
	li	a2,16
	addi	a1,sp,44
	mv	a0,s4
	call	lwip_bind
.LVL10:
	.loc 1 385 5
	bge	a0,zero,.L7
	.loc 1 386 3 is_stmt 1
	.loc 1 386 8
.LBB172:
.LBB173:
	.loc 2 151 5
.LBE173:
.LBE172:
	.loc 1 386 8 is_stmt 0
	lw	a5,%lo(TrapNetCounter)(s1)
	beq	a5,zero,.L8
	.loc 1 386 114 discriminator 1
	call	xTaskGetTickCountFromISR
.LVL11:
.L9:
	.loc 1 386 8 discriminator 4
	mv	a1,a0
	lui	a3,%hi(.LC7)
	lui	a0,%hi(.LC9)
	addi	a0,a0,%lo(.LC9)
	mv	a5,s4
	li	a4,386
	addi	a3,a3,%lo(.LC7)
	addi	a2,s0,%lo(.LC5)
	call	bl_printk
.LVL12:
	.loc 1 387 3 is_stmt 1 discriminator 4
	mv	a0,s4
	call	lwip_close
.LVL13:
.L7:
	.loc 1 390 2
	.loc 1 390 6 is_stmt 0
	li	a1,5
	mv	a0,s4
	call	lwip_listen
.LVL14:
	.loc 1 390 5
	bge	a0,zero,.L10
	.loc 1 391 3 is_stmt 1
	.loc 1 391 8
.LBB174:
.LBB175:
	.loc 2 151 5
.LBE175:
.LBE174:
	.loc 1 391 8 is_stmt 0
	lw	a5,%lo(TrapNetCounter)(s1)
	beq	a5,zero,.L11
	.loc 1 391 116 discriminator 1
	call	xTaskGetTickCountFromISR
.LVL15:
.L12:
	.loc 1 391 8 discriminator 4
	mv	a1,a0
	lui	a3,%hi(.LC7)
	lui	a0,%hi(.LC10)
	addi	a0,a0,%lo(.LC10)
	mv	a5,s4
	li	a4,391
	addi	a3,a3,%lo(.LC7)
	addi	a2,s0,%lo(.LC5)
	call	bl_printk
.LVL16:
	.loc 1 392 3 is_stmt 1 discriminator 4
	mv	a0,s4
	call	lwip_close
.LVL17:
.L10:
	.loc 1 395 2
	.loc 1 395 13 is_stmt 0
	li	a0,256
	call	malloc
.LVL18:
	mv	s2,a0
.LVL19:
.L109:
	.loc 1 397 2 is_stmt 1
	.loc 1 398 3
	.loc 1 398 8
.LBB176:
.LBB177:
	.loc 2 151 5
.LBE177:
.LBE176:
	.loc 1 398 8 is_stmt 0
	lw	a5,%lo(TrapNetCounter)(s1)
	beq	a5,zero,.L13
	.loc 1 398 100 discriminator 1
	call	xTaskGetTickCountFromISR
.LVL20:
.L14:
	.loc 1 398 8 discriminator 4
	mv	a1,a0
	lui	a0,%hi(.LC11)
	addi	a2,s0,%lo(.LC5)
	addi	a0,a0,%lo(.LC11)
	call	bl_printk
.LVL21:
	.loc 1 399 3 is_stmt 1 discriminator 4
	.loc 1 399 22 is_stmt 0 discriminator 4
	addi	a2,sp,32
	addi	a1,sp,60
	mv	a0,s4
	call	lwip_accept
.LVL22:
	mv	s6,a0
.LVL23:
	.loc 1 400 3 is_stmt 1 discriminator 4
	.loc 1 400 6 is_stmt 0 discriminator 4
	ble	a0,zero,.L15
	.loc 1 403 3 is_stmt 1
	.loc 1 403 8
.LBB178:
.LBB179:
	.loc 2 151 5
.LBE179:
.LBE178:
	.loc 1 403 8 is_stmt 0
	lw	a5,%lo(TrapNetCounter)(s1)
	beq	a5,zero,.L16
	.loc 1 403 111 discriminator 1
	call	xTaskGetTickCountFromISR
.LVL24:
.L17:
	.loc 1 403 8 discriminator 4
	mv	a1,a0
	lui	a0,%hi(.LC12)
	mv	a3,s6
	addi	a2,s0,%lo(.LC5)
	addi	a0,a0,%lo(.LC12)
.LBB180:
.LBB181:
.LBB182:
.LBB183:
	.loc 1 339 9 discriminator 4
	lui	s11,%hi(.LC2)
.LBE183:
.LBE182:
.LBE181:
.LBE180:
	.loc 1 403 8 discriminator 4
	call	bl_printk
.LVL25:
.LBB269:
.LBB258:
.LBB253:
.LBB197:
	.loc 1 339 9 discriminator 4
	addi	s11,s11,%lo(.LC2)
.L18:
.LBE197:
.LBE253:
.LBE258:
.LBE269:
	.loc 1 405 3 is_stmt 1
.LBB270:
	.loc 1 406 4
	li	a2,256
	li	a1,0
	mv	a0,s2
	call	memset
.LVL26:
	.loc 1 407 4
	.loc 1 407 14 is_stmt 0
	li	a3,0
	li	a2,256
	mv	a1,s2
	mv	a0,s6
	call	lwip_recv
.LVL27:
	mv	s5,a0
.LVL28:
	.loc 1 409 4 is_stmt 1
	.loc 1 409 7 is_stmt 0
	ble	a0,zero,.L19
	.loc 1 411 5 is_stmt 1
.LVL29:
.LBB259:
.LBB254:
	.loc 1 228 2
	.loc 1 228 5 is_stmt 0
	li	a5,8
	bgt	a0,a5,.L20
.LBB198:
	.loc 1 229 3 is_stmt 1
	.loc 1 229 8
.LBB199:
.LBB200:
	.loc 2 151 5
.LBE200:
.LBE199:
	.loc 1 229 8 is_stmt 0
	lw	a5,%lo(TrapNetCounter)(s1)
	beq	a5,zero,.L21
	.loc 1 229 117
	call	xTaskGetTickCountFromISR
.LVL30:
.L22:
	.loc 1 229 8
	mv	a1,a0
	lui	a0,%hi(.LC13)
	mv	a3,s5
	addi	a2,s0,%lo(.LC5)
	addi	a0,a0,%lo(.LC13)
	call	bl_printk
.LVL31:
	.loc 1 230 3 is_stmt 1
	.loc 1 231 3
	.loc 1 231 10 is_stmt 0
	li	s3,0
	.loc 1 231 36
	lui	s7,%hi(.LC14)
.LVL32:
.L25:
	.loc 1 231 31 is_stmt 1
	.loc 1 231 36
.LBB201:
.LBB202:
	.loc 2 151 5
.LBE202:
.LBE201:
	.loc 1 231 36 is_stmt 0
	lw	a5,%lo(TrapNetCounter)(s1)
	beq	a5,zero,.L23
	.loc 1 231 119
	call	xTaskGetTickCountFromISR
.LVL33:
.L24:
	.loc 1 231 181
	add	a5,s2,s3
	.loc 1 231 36
	lbu	a3,0(a5)
	mv	a1,a0
	addi	a2,s0,%lo(.LC5)
	addi	a0,s7,%lo(.LC14)
	.loc 1 231 25
	addi	s3,s3,1
.LVL34:
	.loc 1 231 36
	call	bl_printk
.LVL35:
	.loc 1 231 3
	bne	s5,s3,.L25
	.loc 1 232 3 is_stmt 1
	.loc 1 232 8
.LBB203:
.LBB204:
	.loc 2 151 5
.LBE204:
.LBE203:
	.loc 1 232 8 is_stmt 0
	lw	a5,%lo(TrapNetCounter)(s1)
	beq	a5,zero,.L26
	.loc 1 232 90
	call	xTaskGetTickCountFromISR
.LVL36:
.L27:
	.loc 1 232 8
	mv	a1,a0
	lui	a0,%hi(.LC15)
	addi	a2,s0,%lo(.LC5)
	addi	a0,a0,%lo(.LC15)
	call	bl_printk
.LVL37:
	.loc 1 233 3 is_stmt 1
.L28:
.LBE198:
	.loc 1 359 2
	addi	a0,sp,36
	call	strlen
.LVL38:
	mv	a2,a0
	addi	a1,sp,36
	mv	a0,s6
	call	lwip_write
.LVL39:
	.loc 1 360 2
	call	system_delay_reset
.LVL40:
	j	.L18
.LVL41:
.L2:
.LBE254:
.LBE259:
.LBE270:
	.loc 1 374 143 is_stmt 0 discriminator 2
	call	xTaskGetTickCount
.LVL42:
	j	.L3
.LVL43:
.L5:
	.loc 1 378 145 discriminator 2
	call	xTaskGetTickCount
.LVL44:
	j	.L6
.L8:
	.loc 1 386 143 discriminator 2
	call	xTaskGetTickCount
.LVL45:
	j	.L9
.L11:
	.loc 1 391 145 discriminator 2
	call	xTaskGetTickCount
.LVL46:
	j	.L12
.LVL47:
.L13:
	.loc 1 398 129 discriminator 2
	call	xTaskGetTickCount
.LVL48:
	j	.L14
.LVL49:
.L16:
	.loc 1 403 140 discriminator 2
	call	xTaskGetTickCount
.LVL50:
	j	.L17
.LVL51:
.L21:
.LBB271:
.LBB260:
.LBB255:
.LBB205:
	.loc 1 229 146
	call	xTaskGetTickCount
.LVL52:
	j	.L22
.LVL53:
.L23:
	.loc 1 231 148
	call	xTaskGetTickCount
.LVL54:
	j	.L24
.L26:
	.loc 1 232 119
	call	xTaskGetTickCount
.LVL55:
	j	.L27
.LVL56:
.L20:
.LBE205:
	.loc 1 236 2 is_stmt 1
	.loc 1 236 5 is_stmt 0
	lbu	a5,0(s2)
	addi	s3,a0,-1
	li	a4,241
	add	s3,s2,s3
	bne	a5,a4,.L29
	.loc 1 236 22
	lbu	a4,1(s2)
	beq	a4,a5,.L30
.L29:
	.loc 1 237 3 is_stmt 1
	.loc 1 237 8
.LBB206:
.LBB207:
	.loc 2 151 5
.LBE207:
.LBE206:
	.loc 1 237 8 is_stmt 0
	lw	a5,%lo(TrapNetCounter)(s1)
	beq	a5,zero,.L31
	.loc 1 237 204
	call	xTaskGetTickCountFromISR
.LVL57:
.L32:
	.loc 1 237 8
	sw	s5,12(sp)
	lbu	a5,0(s3)
	.loc 1 237 321
	add	s5,s2,s5
.LVL58:
	.loc 1 237 8
	lbu	a7,2(s2)
	sw	a5,8(sp)
	lbu	a5,-2(s5)
	lbu	a6,1(s2)
	mv	a1,a0
	sw	a5,4(sp)
	lbu	a5,3(s2)
	lui	a3,%hi(.LC7)
	lui	a0,%hi(.LC16)
	sw	a5,0(sp)
	lbu	a5,0(s2)
	li	a4,237
	addi	a3,a3,%lo(.LC7)
	addi	a2,s0,%lo(.LC5)
	addi	a0,a0,%lo(.LC16)
	call	bl_printk
.LVL59:
	.loc 1 238 3 is_stmt 1
	j	.L28
.LVL60:
.L31:
	.loc 1 237 233 is_stmt 0
	call	xTaskGetTickCount
.LVL61:
	j	.L32
.LVL62:
.L30:
	.loc 1 241 2 is_stmt 1
	.loc 1 241 5 is_stmt 0
	lbu	a4,0(s3)
	li	a5,126
	beq	a4,a5,.L33
	.loc 1 242 3 is_stmt 1
	.loc 1 242 8
.LBB208:
.LBB209:
	.loc 2 151 5
.LBE209:
.LBE208:
	.loc 1 242 8 is_stmt 0
	lw	a5,%lo(TrapNetCounter)(s1)
	beq	a5,zero,.L34
	.loc 1 242 117
	call	xTaskGetTickCountFromISR
.LVL63:
.L35:
	.loc 1 242 8
	lui	a3,%hi(.LC7)
	mv	a1,a0
	lui	a0,%hi(.LC17)
	li	a4,242
	addi	a3,a3,%lo(.LC7)
	addi	a2,s0,%lo(.LC5)
	addi	a0,a0,%lo(.LC17)
.LVL64:
.L119:
	.loc 1 353 8
	call	bl_printk
.LVL65:
	.loc 1 354 3 is_stmt 1
	j	.L28
.LVL66:
.L34:
	.loc 1 242 146 is_stmt 0
	call	xTaskGetTickCount
.LVL67:
	j	.L35
.LVL68:
.L33:
	.loc 1 246 2 is_stmt 1
	.loc 1 247 2
	.loc 1 248 5
	.loc 1 249 2
	.loc 1 250 2
	.loc 1 252 2
	.loc 1 250 11 is_stmt 0
	lbu	a5,4(s2)
.LVL69:
	.loc 1 255 7
	lbu	s3,6(s2)
	.loc 1 258 10
	lui	s9,%hi(.LANCHOR0)
	.loc 1 252 6
	slli	a4,a5,24
.LVL70:
	.loc 1 253 2 is_stmt 1
	.loc 1 254 2
	.loc 1 255 2
	.loc 1 256 2
	.loc 1 257 2
	.loc 1 253 7 is_stmt 0
	lbu	a5,5(s2)
	.loc 1 256 14
	slli	s3,s3,8
.LVL71:
	.loc 1 254 14
	slli	a5,a5,16
	.loc 1 254 6
	add	a5,a5,a4
	.loc 1 257 13
	lbu	a4,7(s2)
.LVL72:
	add	a5,a5,a4
	.loc 1 257 6
	add	s3,s3,a5
.LVL73:
	.loc 1 258 2 is_stmt 1
	.loc 1 258 5 is_stmt 0
	lw	a5,%lo(.LANCHOR0)(s9)
	addi	s9,s9,%lo(.LANCHOR0)
	beq	s3,a5,.L36
	.loc 1 259 3 is_stmt 1
	.loc 1 259 6 is_stmt 0
	lbu	a3,2(s2)
	li	a4,3
	lw	a5,%lo(TrapNetCounter)(s1)
	beq	a3,a4,.L37
	.loc 1 260 4 is_stmt 1
	.loc 1 260 9
.LBE255:
.LBE260:
.LBE271:
	.loc 2 151 5
.LBB272:
.LBB261:
.LBB256:
	.loc 1 260 9 is_stmt 0
	beq	a5,zero,.L38
	.loc 1 260 151
	call	xTaskGetTickCountFromISR
.LVL74:
.L39:
	.loc 1 260 9
	lbu	a5,7(s2)
	lbu	a7,4(s2)
	lw	a6,0(s9)
	sw	a5,8(sp)
	lbu	a5,6(s2)
	mv	a1,a0
	lui	a3,%hi(.LC7)
	sw	a5,4(sp)
	lbu	a5,5(s2)
	lui	a0,%hi(.LC18)
	li	a4,260
	sw	a5,0(sp)
	addi	a3,a3,%lo(.LC7)
	mv	a5,s3
	addi	a2,s0,%lo(.LC5)
	addi	a0,a0,%lo(.LC18)
	call	bl_printk
.LVL75:
	.loc 1 261 4 is_stmt 1
	j	.L28
.LVL76:
.L38:
	.loc 1 260 180 is_stmt 0
	call	xTaskGetTickCount
.LVL77:
	j	.L39
.LVL78:
.L37:
	.loc 1 263 4 is_stmt 1
	.loc 1 263 9
.LBE256:
.LBE261:
.LBE272:
	.loc 2 151 5
.LBB273:
.LBB262:
.LBB257:
	.loc 1 263 9 is_stmt 0
	beq	a5,zero,.L40
	.loc 1 263 115
	call	xTaskGetTickCountFromISR
.LVL79:
.L41:
	.loc 1 263 9
	lbu	a3,2(s2)
	mv	a1,a0
	lui	a0,%hi(.LC19)
	addi	a2,s0,%lo(.LC5)
	addi	a0,a0,%lo(.LC19)
	call	bl_printk
.LVL80:
.L36:
	.loc 1 267 2 is_stmt 1
	.loc 1 269 2
	.loc 1 269 7 is_stmt 0
	lui	a1,%hi(.LC0)
	li	a2,7
	addi	a1,a1,%lo(.LC0)
	addi	a0,sp,36
	call	memcpy
.LVL81:
	.loc 1 270 2 is_stmt 1
	.loc 1 270 21 is_stmt 0
	lbu	s3,3(s2)
.LVL82:
	.loc 1 272 2 is_stmt 1
	.loc 1 272 5 is_stmt 0
	li	a5,240
	ble	s3,a5,.L42
	.loc 1 273 3 is_stmt 1
	.loc 1 273 8
.LBB210:
.LBB211:
	.loc 2 151 5
.LBE211:
.LBE210:
	.loc 1 273 8 is_stmt 0
	lw	a5,%lo(TrapNetCounter)(s1)
	beq	a5,zero,.L43
	.loc 1 273 129
	call	xTaskGetTickCountFromISR
.LVL83:
.L44:
	.loc 1 273 8
	lui	a3,%hi(.LC7)
	mv	a1,a0
	lui	a0,%hi(.LC20)
	li	a4,273
	addi	a3,a3,%lo(.LC7)
	addi	a2,s0,%lo(.LC5)
	addi	a0,a0,%lo(.LC20)
	j	.L119
.LVL84:
.L40:
	.loc 1 263 144
	call	xTaskGetTickCount
.LVL85:
	j	.L41
.LVL86:
.L43:
	.loc 1 273 158
	call	xTaskGetTickCount
.LVL87:
	j	.L44
.L42:
	.loc 1 276 2 is_stmt 1
.LVL88:
	.loc 1 283 2
.LBB212:
.LBB213:
	.loc 1 205 2
	.loc 1 205 10 is_stmt 0
	add	s5,s2,s5
.LVL89:
	lbu	a3,-2(s5)
.LVL90:
	.loc 1 206 2 is_stmt 1
	.loc 1 207 2
	.loc 1 210 2
	.loc 1 207 13 is_stmt 0
	li	a5,0
	.loc 1 210 9
	li	a4,2
	.loc 1 210 36
	addi	a2,s3,7
.LVL91:
.L45:
	.loc 1 211 3 is_stmt 1
	.loc 1 211 14 is_stmt 0
	add	a1,s2,a4
	lbu	a1,0(a1)
	.loc 1 210 42
	addi	a4,a4,1
.LVL92:
	.loc 1 211 7
	add	a5,a5,a1
.LVL93:
	.loc 1 210 2
	ble	a4,a2,.L45
	.loc 1 220 2 is_stmt 1
.LVL94:
	.loc 1 222 2
.LBE213:
.LBE212:
	.loc 1 283 5 is_stmt 0
	andi	a5,a5,0xff
	bne	a3,a5,.L46
	.loc 1 284 3 is_stmt 1
	.loc 1 284 11 is_stmt 0
	lbu	a5,2(s2)
	.loc 1 284 6
	li	a4,3
	bne	a5,a4,.L47
	.loc 1 285 4 is_stmt 1
.LBB214:
.LBB215:
	.loc 1 173 2
.LVL95:
	.loc 1 174 2
	.loc 1 175 2
	.loc 1 177 2
	lui	a5,%hi(.LANCHOR1)
	lui	a0,%hi(.LANCHOR2)
	addi	a1,a5,%lo(.LANCHOR1)
	addi	a0,a0,%lo(.LANCHOR2)
	call	utils_sha256_finish
.LVL96:
	.loc 1 178 2
	.loc 1 178 36 is_stmt 0
	lui	a5,%hi(.LANCHOR3)
	lw	a1,%lo(.LANCHOR3)(a5)
	.loc 1 178 2
	li	a2,32
	addi	a0,sp,76
	addi	a1,a1,64
	call	memcpy
.LVL97:
	.loc 1 179 2 is_stmt 1
	lui	a0,%hi(.LC21)
	addi	a0,a0,%lo(.LC21)
	.loc 1 181 3 is_stmt 0
	lui	s7,%hi(.LC22)
	.loc 1 179 2
	call	puts
.LVL98:
	.loc 1 180 2 is_stmt 1
	.loc 1 180 9 is_stmt 0
	li	s3,0
.LVL99:
	.loc 1 180 2
	li	s8,32
	mv	s5,s7
.LVL100:
.L48:
	.loc 1 181 3 is_stmt 1
	.loc 1 181 31 is_stmt 0
	lui	a5,%hi(.LANCHOR1)
	addi	a5,a5,%lo(.LANCHOR1)
	add	a5,a5,s3
	.loc 1 181 3
	lbu	a1,0(a5)
	addi	a0,s7,%lo(.LC22)
	.loc 1 180 42
	addi	s3,s3,1
.LVL101:
	.loc 1 181 3
	call	printf
.LVL102:
	.loc 1 180 2
	bne	s3,s8,.L48
	.loc 1 183 2 is_stmt 1
	lui	a0,%hi(.LC23)
	addi	a0,a0,%lo(.LC23)
	call	puts
.LVL103:
	.loc 1 184 2
	.loc 1 184 9 is_stmt 0
	li	s3,0
	.loc 1 184 2
	li	s7,32
.LVL104:
.L49:
	.loc 1 185 3 is_stmt 1
	.loc 1 185 28 is_stmt 0
	addi	a5,sp,76
	add	a5,a5,s3
	.loc 1 185 3
	lbu	a1,0(a5)
	addi	a0,s5,%lo(.LC22)
	.loc 1 184 39
	addi	s3,s3,1
.LVL105:
	.loc 1 185 3
	call	printf
.LVL106:
	.loc 1 184 2
	bne	s3,s7,.L49
	.loc 1 187 2 is_stmt 1
	lui	a0,%hi(.LC24)
	addi	a0,a0,%lo(.LC24)
	call	puts
.LVL107:
	.loc 1 189 2
	.loc 1 189 6 is_stmt 0
	lui	a5,%hi(.LANCHOR1)
	li	a2,32
	addi	a1,a5,%lo(.LANCHOR1)
	addi	a0,sp,76
	call	memcmp
.LVL108:
	.loc 1 189 5
	beq	a0,zero,.L50
	.loc 1 191 3 is_stmt 1
	.loc 1 191 8
.LBB216:
.LBB217:
	.loc 2 151 5
.LBE217:
.LBE216:
	.loc 1 191 8 is_stmt 0
	lw	a5,%lo(TrapNetCounter)(s1)
	beq	a5,zero,.L51
	.loc 1 191 111
	call	xTaskGetTickCountFromISR
.LVL109:
.L52:
	.loc 1 191 8
	lui	a3,%hi(.LC7)
	mv	a1,a0
	lui	a0,%hi(.LC25)
	li	a4,191
	addi	a3,a3,%lo(.LC7)
	addi	a2,s0,%lo(.LC5)
	addi	a0,a0,%lo(.LC25)
	call	bl_printk
.LVL110:
	.loc 1 192 3 is_stmt 1
.L53:
.LBE215:
.LBE214:
	.loc 1 286 4
	.loc 1 286 9
.LBB221:
.LBB222:
	.loc 2 151 5
.LBE222:
.LBE221:
	.loc 1 286 9 is_stmt 0
	lw	a5,%lo(TrapNetCounter)(s1)
	beq	a5,zero,.L56
	.loc 1 286 103
	call	xTaskGetTickCountFromISR
.LVL111:
.L57:
	.loc 1 286 9
	mv	a1,a0
	lui	a0,%hi(.LC27)
	addi	a2,s0,%lo(.LC5)
	addi	a0,a0,%lo(.LC27)
	call	bl_printk
.LVL112:
	j	.L18
.LVL113:
.L51:
.LBB223:
.LBB220:
	.loc 1 191 140
	call	xTaskGetTickCount
.LVL114:
	j	.L52
.L50:
	.loc 1 195 2 is_stmt 1
	.loc 1 195 14 is_stmt 0
	lui	a4,%hi(.LANCHOR5)
	lw	a4,%lo(.LANCHOR5)(a4)
	lui	a0,%hi(.LANCHOR4)
	addi	a5,a0,%lo(.LANCHOR4)
	.loc 1 197 8
	addi	a0,a0,%lo(.LANCHOR4)
	.loc 1 195 14
	sw	a4,28(a5)
	.loc 1 197 2 is_stmt 1
	.loc 1 197 8 is_stmt 0
	call	hal_boot2_update_ptable
.LVL115:
	.loc 1 198 7
	lw	a5,%lo(TrapNetCounter)(s1)
	.loc 1 197 8
	mv	s3,a0
.LVL116:
	.loc 1 198 2 is_stmt 1
	.loc 1 198 7
.LBB218:
.LBB219:
	.loc 2 151 5
.LBE219:
.LBE218:
	.loc 1 198 7 is_stmt 0
	beq	a5,zero,.L54
	.loc 1 198 105
	call	xTaskGetTickCountFromISR
.LVL117:
.L55:
	.loc 1 198 7
	mv	a1,a0
	lui	a0,%hi(.LC26)
	mv	a3,s3
	addi	a2,s0,%lo(.LC5)
	addi	a0,a0,%lo(.LC26)
	call	bl_printk
.LVL118:
	.loc 1 199 2 is_stmt 1
	call	system_delay_reboot
.LVL119:
	.loc 1 200 2
	j	.L53
.LVL120:
.L54:
	.loc 1 198 134 is_stmt 0
	call	xTaskGetTickCount
.LVL121:
	j	.L55
.LVL122:
.L56:
.LBE220:
.LBE223:
	.loc 1 286 132
	call	xTaskGetTickCount
.LVL123:
	j	.L57
.LVL124:
.L47:
	.loc 1 288 10 is_stmt 1
	.loc 1 288 13 is_stmt 0
	li	a4,1
	bne	a5,a4,.L59
.LBB224:
	.loc 1 289 4 is_stmt 1
.LBB225:
.LBB226:
	.loc 1 133 2
	.loc 1 133 7
.LBB227:
.LBB228:
	.loc 2 151 5
.LBE228:
.LBE227:
	.loc 1 133 7 is_stmt 0
	lw	a5,%lo(TrapNetCounter)(s1)
	beq	a5,zero,.L60
	.loc 1 133 104
	call	xTaskGetTickCountFromISR
.LVL125:
.L61:
	.loc 1 133 7
	mv	a1,a0
	lui	a0,%hi(.LC28)
	addi	a2,s0,%lo(.LC5)
	addi	a0,a0,%lo(.LC28)
	call	bl_printk
.LVL126:
	.loc 1 135 2 is_stmt 1
	.loc 1 136 2
	.loc 1 136 8 is_stmt 0
	lui	s5,%hi(.LANCHOR6)
	lui	a0,%hi(.LC29)
	li	a2,1
	addi	a1,s5,%lo(.LANCHOR6)
	addi	a0,a0,%lo(.LC29)
	call	bl_mtd_open
.LVL127:
	.loc 1 137 5 is_stmt 1
	.loc 1 137 8 is_stmt 0
	beq	a0,zero,.L62
	.loc 1 138 9 is_stmt 1
	.loc 1 138 14
.LBB229:
.LBB230:
	.loc 2 151 5
.LBE230:
.LBE229:
	.loc 1 138 14 is_stmt 0
	lw	a5,%lo(TrapNetCounter)(s1)
	beq	a5,zero,.L63
	.loc 1 138 131
	call	xTaskGetTickCountFromISR
.LVL128:
.L64:
	.loc 1 138 14
	lui	a3,%hi(.LC7)
	mv	a1,a0
	lui	a0,%hi(.LC30)
	li	a4,138
	addi	a3,a3,%lo(.LC7)
	addi	a2,s0,%lo(.LC5)
	addi	a0,a0,%lo(.LC30)
	call	bl_printk
.LVL129:
	.loc 1 139 9 is_stmt 1
.L65:
.LBE226:
.LBE225:
	.loc 1 290 4
	.loc 1 290 9 is_stmt 0
	lui	a5,%hi(.LC1)
	addi	a5,a5,%lo(.LC1)
	lw	a4,0(a5)
	lw	a5,4(a5)
	sw	a4,76(sp)
	sw	a5,80(sp)
	.loc 1 291 4 is_stmt 1
.L98:
.LBE224:
.LBB243:
	.loc 1 345 5
	.loc 1 346 5
	.loc 1 347 5
	addi	a0,sp,76
	call	strlen
.LVL130:
	mv	a2,a0
	addi	a1,sp,76
	mv	a0,s6
	call	lwip_write
.LVL131:
	j	.L18
.LVL132:
.L60:
.LBE243:
.LBB244:
.LBB242:
.LBB241:
	.loc 1 133 133 is_stmt 0
	call	xTaskGetTickCount
.LVL133:
	j	.L61
.LVL134:
.L63:
	.loc 1 138 160
	call	xTaskGetTickCount
.LVL135:
	j	.L64
.LVL136:
.L62:
	.loc 1 142 2 is_stmt 1
	.loc 1 143 2
	.loc 1 143 13 is_stmt 0
	call	hal_boot2_get_active_partition
.LVL137:
	.loc 1 144 7
	lw	a5,%lo(TrapNetCounter)(s1)
	.loc 1 143 13
	mv	s3,a0
.LVL138:
	.loc 1 144 2 is_stmt 1
	.loc 1 144 7
.LBB231:
.LBB232:
	.loc 2 151 5
.LBE232:
.LBE231:
	.loc 1 144 7 is_stmt 0
	beq	a5,zero,.L66
	.loc 1 144 99
	call	xTaskGetTickCountFromISR
.LVL139:
.L67:
	.loc 1 144 7
	mv	a1,a0
	lui	a0,%hi(.LC31)
	mv	a3,s3
	addi	a2,s0,%lo(.LC5)
	addi	a0,a0,%lo(.LC31)
	call	bl_printk
.LVL140:
	.loc 1 147 2 is_stmt 1
	.loc 1 147 6 is_stmt 0
	lui	s3,%hi(.LANCHOR4)
.LVL141:
	addi	a1,s3,%lo(.LANCHOR4)
	li	a0,0
	call	hal_boot2_get_active_entries
.LVL142:
	addi	s3,s3,%lo(.LANCHOR4)
	.loc 1 147 5
	beq	a0,zero,.L68
	.loc 1 148 9 is_stmt 1
	.loc 1 148 14
.LBB233:
.LBB234:
	.loc 2 151 5
.LBE234:
.LBE233:
	.loc 1 148 14 is_stmt 0
	lw	a5,%lo(TrapNetCounter)(s1)
	beq	a5,zero,.L69
	.loc 1 148 130
	call	xTaskGetTickCountFromISR
.LVL143:
.L70:
	.loc 1 148 14
	mv	a1,a0
	lui	a3,%hi(.LC7)
	lui	a0,%hi(.LC32)
	li	a4,148
	addi	a3,a3,%lo(.LC7)
	addi	a2,s0,%lo(.LC5)
	addi	a0,a0,%lo(.LC32)
	call	bl_printk
.LVL144:
	.loc 1 149 9 is_stmt 1
	lw	a0,%lo(.LANCHOR6)(s5)
	call	bl_mtd_close
.LVL145:
	.loc 1 150 9
	j	.L65
.LVL146:
.L66:
	.loc 1 144 128 is_stmt 0
	call	xTaskGetTickCount
.LVL147:
	j	.L67
.LVL148:
.L69:
	.loc 1 148 159
	call	xTaskGetTickCount
.LVL149:
	j	.L70
.L68:
	.loc 1 153 2 is_stmt 1
	.loc 1 154 2
	.loc 1 155 2
	.loc 1 155 29 is_stmt 0
	lbu	a5,2(s3)
	seqz	a5,a5
	.loc 1 155 11
	slli	a4,a5,2
	.loc 1 156 14
	addi	a5,a5,4
	slli	a5,a5,2
	add	a5,s3,a5
	lw	s5,4(a5)
	.loc 1 159 10
	lw	a5,%lo(TrapNetCounter)(s1)
	.loc 1 155 11
	add	a4,s3,a4
	lw	s7,12(a4)
.LVL150:
	.loc 1 156 5 is_stmt 1
	.loc 1 157 5
	.loc 1 158 5
	.loc 1 159 5
	.loc 1 159 10
.LBB235:
.LBB236:
	.loc 2 151 5
.LBE236:
.LBE235:
	.loc 1 159 10 is_stmt 0
	beq	a5,zero,.L71
	.loc 1 159 126
	call	xTaskGetTickCountFromISR
.LVL151:
.L72:
	.loc 1 159 10
	mv	a1,a0
	lui	a0,%hi(.LC33)
	mv	a3,s5
	addi	a2,s0,%lo(.LC5)
	addi	a0,a0,%lo(.LC33)
	call	bl_printk
.LVL152:
	.loc 1 160 5 is_stmt 1
	.loc 1 160 10
.LBB237:
.LBB238:
	.loc 2 151 5
.LBE238:
.LBE237:
	.loc 1 160 10 is_stmt 0
	lw	a5,%lo(TrapNetCounter)(s1)
	beq	a5,zero,.L73
	.loc 1 160 131
	call	xTaskGetTickCountFromISR
.LVL153:
.L74:
	.loc 1 160 10
	lbu	a3,2(s3)
	mv	a1,a0
	lui	a0,%hi(.LC34)
	mv	a4,s7
	addi	a2,s0,%lo(.LC5)
	addi	a0,a0,%lo(.LC34)
	call	bl_printk
.LVL154:
	.loc 1 161 5 is_stmt 1
	.loc 1 161 10
.LBB239:
.LBB240:
	.loc 2 151 5
.LBE240:
.LBE239:
	.loc 1 161 10 is_stmt 0
	lw	a5,%lo(TrapNetCounter)(s1)
	beq	a5,zero,.L75
	.loc 1 161 116
	call	xTaskGetTickCountFromISR
.LVL155:
.L76:
	.loc 1 161 10
	mv	a1,a0
	lui	a0,%hi(.LC35)
	mv	a3,s5
	addi	a2,s0,%lo(.LC5)
	addi	a0,a0,%lo(.LC35)
	call	bl_printk
.LVL156:
	.loc 1 163 2 is_stmt 1
	lui	s3,%hi(.LANCHOR2)
	addi	a0,s3,%lo(.LANCHOR2)
	call	utils_sha256_init
.LVL157:
	.loc 1 164 5
	addi	a0,s3,%lo(.LANCHOR2)
	call	utils_sha256_starts
.LVL158:
	.loc 1 165 2
	lui	a5,%hi(.LANCHOR1)
	addi	a0,a5,%lo(.LANCHOR1)
	li	a2,32
	li	a1,0
	call	memset
.LVL159:
	.loc 1 167 2
	.loc 1 167 22 is_stmt 0
	li	a0,512
	call	pvPortMalloc
.LVL160:
	.loc 1 167 20
	lui	a5,%hi(.LANCHOR7)
	sw	a0,%lo(.LANCHOR7)(a5)
	.loc 1 168 2 is_stmt 1
	j	.L65
.L71:
	.loc 1 159 155 is_stmt 0
	call	xTaskGetTickCount
.LVL161:
	j	.L72
.L73:
	.loc 1 160 160
	call	xTaskGetTickCount
.LVL162:
	j	.L74
.L75:
	.loc 1 161 145
	call	xTaskGetTickCount
.LVL163:
	j	.L76
.LVL164:
.L59:
.LBE241:
.LBE242:
.LBE244:
	.loc 1 293 10 is_stmt 1
	.loc 1 293 13 is_stmt 0
	li	a4,5
	bne	a5,a4,.L77
.LBB245:
	.loc 1 295 4 is_stmt 1
.LVL165:
	.loc 1 296 4
	.loc 1 297 4
	.loc 1 297 9 is_stmt 0
	li	a5,17231872
	addi	a5,a5,754
	sw	a5,76(sp)
	li	a5,8261632
	addi	a5,a5,-2047
	.loc 1 298 4
	addi	a0,sp,76
	.loc 1 297 9
	sw	a5,80(sp)
	.loc 1 298 4 is_stmt 1
	call	strlen
.LVL166:
	mv	a2,a0
	addi	a1,sp,76
	mv	a0,s6
	call	lwip_write
.LVL167:
	.loc 1 299 4
	.loc 1 299 9
.LBB246:
.LBB247:
	.loc 2 151 5
.LBE247:
.LBE246:
	.loc 1 299 9 is_stmt 0
	lw	a5,%lo(TrapNetCounter)(s1)
	beq	a5,zero,.L78
	.loc 1 299 113
	call	xTaskGetTickCountFromISR
.LVL168:
.L117:
	sw	a0,24(sp)
	.loc 1 299 9
	addi	a0,sp,76
	call	strlen
.LVL169:
	lw	a1,24(sp)
	mv	a3,a0
	lui	a0,%hi(.LC36)
	addi	a2,s0,%lo(.LC5)
	addi	a0,a0,%lo(.LC36)
	call	bl_printk
.LVL170:
	j	.L18
.L78:
	.loc 1 299 142
	call	xTaskGetTickCount
.LVL171:
	j	.L117
.LVL172:
.L77:
.LBE245:
	.loc 1 301 10 is_stmt 1
	.loc 1 301 13 is_stmt 0
	li	a4,2
	beq	a5,a4,.L80
	.loc 1 301 30
	li	a4,9
	bne	a5,a4,.L81
.L80:
.LBB248:
	.loc 1 303 4 is_stmt 1
	.loc 1 303 9 is_stmt 0
	lui	a5,%hi(.LANCHOR8)
	lw	s10,%lo(.LANCHOR8)(a5)
	addi	a5,a5,%lo(.LANCHOR8)
	sw	a5,24(sp)
	addi	a3,s2,8
	.loc 1 303 6
	bne	s10,zero,.L82
	.loc 1 304 5 is_stmt 1
	.loc 1 304 26 is_stmt 0
	lui	s5,%hi(.LANCHOR9)
	lw	a5,%lo(.LANCHOR9)(s5)
	lui	s7,%hi(.LANCHOR7)
	lw	a0,%lo(.LANCHOR7)(s7)
	add	a4,s3,a5
	.loc 1 304 7
	li	a2,512
	add	a0,a0,a5
	addi	s7,s7,%lo(.LANCHOR7)
	addi	s5,s5,%lo(.LANCHOR9)
	ble	a4,a2,.L83
	.loc 1 305 6 is_stmt 1
	sub	a2,a2,a5
.L118:
	.loc 1 308 6 is_stmt 0
	mv	a1,a3
	call	memcpy
.LVL173:
	.loc 1 309 6 is_stmt 1
	.loc 1 309 24 is_stmt 0
	lw	a5,0(s5)
	add	a5,a5,s3
	sw	a5,0(s5)
	.loc 1 311 5 is_stmt 1
	.loc 1 311 10
.LBB184:
.LBB185:
	.loc 2 151 5
.LBE185:
.LBE184:
	.loc 1 311 10 is_stmt 0
	lw	a5,%lo(TrapNetCounter)(s1)
	beq	a5,zero,.L85
	.loc 1 311 114
	call	xTaskGetTickCountFromISR
.LVL174:
.L86:
	.loc 1 311 10
	lw	a4,0(s5)
	mv	a1,a0
	lui	a0,%hi(.LC37)
	li	a3,512
	addi	a2,s0,%lo(.LC5)
	addi	a0,a0,%lo(.LC37)
	call	bl_printk
.LVL175:
	.loc 1 313 5 is_stmt 1
	.loc 1 313 7 is_stmt 0
	lw	a4,0(s5)
	li	a5,511
	ble	a4,a5,.L88
	.loc 1 314 6 is_stmt 1
	.loc 1 314 11
.LBB186:
.LBB187:
	.loc 2 151 5
.LBE187:
.LBE186:
	.loc 1 314 11 is_stmt 0
	lw	a5,%lo(TrapNetCounter)(s1)
	beq	a5,zero,.L89
	.loc 1 314 107
	call	xTaskGetTickCountFromISR
.LVL176:
.L90:
	.loc 1 314 11
	mv	a1,a0
	lui	a0,%hi(.LC38)
	addi	a2,s0,%lo(.LC5)
	addi	a0,a0,%lo(.LC38)
	call	bl_printk
.LVL177:
	.loc 1 315 6 is_stmt 1
	.loc 1 315 17 is_stmt 0
	lw	s8,0(s7)
	lui	a5,%hi(.LANCHOR3)
.LBB188:
.LBB189:
	.loc 1 84 5
	li	a2,16
	mv	a1,s8
	addi	a0,sp,76
.LBE189:
.LBE188:
	.loc 1 315 17
	sw	s8,%lo(.LANCHOR3)(a5)
	.loc 1 316 6 is_stmt 1
.LVL178:
.LBB191:
.LBB190:
	.loc 1 81 5
	.loc 1 82 5
	.loc 1 84 5
	call	memcpy
.LVL179:
	.loc 1 85 5
	.loc 1 86 5 is_stmt 0
	lui	a0,%hi(.LC39)
	addi	a0,a0,%lo(.LC39)
	.loc 1 85 41
	sb	zero,92(sp)
	.loc 1 86 5 is_stmt 1
	call	puts
.LVL180:
	.loc 1 87 5
	addi	a0,sp,76
	call	puts
.LVL181:
	.loc 1 88 5
	lui	s7,%hi(.LC24)
	addi	a0,s7,%lo(.LC24)
	call	puts
.LVL182:
	.loc 1 90 5
	li	a2,4
	addi	a1,s8,16
	addi	a0,sp,76
	call	memcpy
.LVL183:
	.loc 1 91 5
	.loc 1 92 5 is_stmt 0
	lui	a0,%hi(.LC40)
	addi	a0,a0,%lo(.LC40)
	.loc 1 91 39
	sb	zero,80(sp)
	.loc 1 92 5 is_stmt 1
	call	puts
.LVL184:
	.loc 1 93 5
	addi	a0,sp,76
	call	puts
.LVL185:
	.loc 1 94 5
	addi	a0,s7,%lo(.LC24)
	call	puts
.LVL186:
	.loc 1 95 5
	.loc 1 95 9 is_stmt 0
	lui	a5,%hi(.LC3)
	addi	a1,a5,%lo(.LC3)
	addi	a0,sp,76
	call	strstr
.LVL187:
	.loc 1 101 5 is_stmt 1
	lui	a3,%hi(.LANCHOR10)
	lui	a4,%hi(.LANCHOR5)
	.loc 1 95 8 is_stmt 0
	snez	a0,a0
	sw	a0,%lo(.LANCHOR10)(a3)
	.loc 1 101 5
	li	a2,4
	addi	a0,a4,%lo(.LANCHOR5)
	addi	a1,s8,20
	call	memcpy
.LVL188:
	.loc 1 102 5 is_stmt 1
	lui	a5,%hi(.LANCHOR5)
	addi	a5,a5,%lo(.LANCHOR5)
	lw	a1,0(a5)
	lui	a0,%hi(.LC41)
	addi	a0,a0,%lo(.LC41)
	call	printf
.LVL189:
	.loc 1 104 5
	addi	a1,s8,32
	li	a2,16
	addi	a0,sp,76
	call	memcpy
.LVL190:
	.loc 1 105 5
	.loc 1 106 5 is_stmt 0
	lui	a0,%hi(.LC42)
	addi	a0,a0,%lo(.LC42)
	.loc 1 105 47
	sb	zero,92(sp)
	.loc 1 106 5 is_stmt 1
	call	puts
.LVL191:
	.loc 1 107 5
	addi	a0,sp,76
	call	puts
.LVL192:
	.loc 1 108 5
	addi	a0,s7,%lo(.LC24)
	call	puts
.LVL193:
	.loc 1 110 5
	addi	a1,s8,48
	li	a2,16
	addi	a0,sp,76
	call	memcpy
.LVL194:
	.loc 1 111 5
	.loc 1 112 5 is_stmt 0
	lui	a0,%hi(.LC43)
	addi	a0,a0,%lo(.LC43)
	.loc 1 111 47
	sb	zero,92(sp)
	.loc 1 112 5 is_stmt 1
	call	puts
.LVL195:
	.loc 1 113 5
	addi	a0,sp,76
	call	puts
.LVL196:
	.loc 1 114 5
	addi	a0,s7,%lo(.LC24)
	call	puts
.LVL197:
	.loc 1 116 5
	li	a2,32
	addi	a1,s8,64
	addi	a0,sp,76
	call	memcpy
.LVL198:
	.loc 1 117 5
	.loc 1 118 2 is_stmt 0
	lui	a0,%hi(.LC44)
	li	a1,32
	addi	a0,a0,%lo(.LC44)
	.loc 1 117 41
	sb	zero,108(sp)
	.loc 1 118 2 is_stmt 1
	call	printf
.LVL199:
	.loc 1 119 5
	lui	a0,%hi(.LC45)
	addi	a0,a0,%lo(.LC45)
	call	puts
.LVL200:
	.loc 1 120 5
	lui	a3,%hi(.LANCHOR10)
	addi	a5,a3,%lo(.LANCHOR10)
	lui	a4,%hi(.LANCHOR5)
	addi	s8,a4,%lo(.LANCHOR5)
.LVL201:
	sw	a5,28(sp)
	.loc 1 121 9 is_stmt 0
	lui	a3,%hi(.LC22)
.LVL202:
.L91:
	.loc 1 121 9 is_stmt 1
	.loc 1 121 27 is_stmt 0
	addi	a5,sp,76
	add	a2,a5,s10
	.loc 1 121 9
	lbu	a1,0(a2)
	addi	a0,a3,%lo(.LC22)
	.loc 1 120 54
	addi	s10,s10,1
.LVL203:
	.loc 1 121 9
	call	printf
.LVL204:
	.loc 1 120 5
	li	a4,32
	lui	a3,%hi(.LC22)
	bne	s10,a4,.L91
	.loc 1 123 5 is_stmt 1
	addi	a0,s7,%lo(.LC24)
	call	puts
.LVL205:
	.loc 1 124 5
	lui	a0,%hi(.LC46)
	addi	a0,a0,%lo(.LC46)
	call	puts
.LVL206:
	.loc 1 126 5
.LBE190:
.LBE191:
	.loc 1 320 6
	.loc 1 320 23 is_stmt 0
	lw	a4,24(sp)
	li	a5,1
	sw	a5,0(a4)
	.loc 1 321 6 is_stmt 1
	.loc 1 321 11
.LBB192:
.LBB193:
	.loc 2 151 5
.LBE193:
.LBE192:
	.loc 1 321 11 is_stmt 0
	lw	a5,%lo(TrapNetCounter)(s1)
	beq	a5,zero,.L92
	.loc 1 321 138
	call	xTaskGetTickCountFromISR
.LVL207:
.L93:
	.loc 1 321 11
	lw	a5,28(sp)
	lui	a4,%hi(.LC3)
	lw	a3,0(s8)
	lw	a5,0(a5)
	addi	a4,a4,%lo(.LC3)
	bne	a5,zero,.L94
	lui	a4,%hi(.LC4)
	addi	a4,a4,%lo(.LC4)
.L94:
	mv	a1,a0
	lui	a2,%hi(.LC5)
	lui	a0,%hi(.LC47)
	addi	a2,a2,%lo(.LC5)
	addi	a0,a0,%lo(.LC47)
	call	bl_printk
.LVL208:
	.loc 1 322 6 is_stmt 1
	.loc 1 322 27 is_stmt 0
	lw	s5,0(s5)
	.loc 1 322 8
	li	a5,512
	ble	s5,a5,.L88
.LBB194:
	.loc 1 323 7 is_stmt 1
.LVL209:
	.loc 1 324 7
	.loc 1 323 11 is_stmt 0
	addi	s5,s5,-512
.LVL210:
	.loc 1 324 54
	sub	s3,s3,s5
.LVL211:
	addi	s3,s3,8
	add	s3,s2,s3
	.loc 1 324 7
	lui	a0,%hi(.LANCHOR2)
	mv	a2,s5
	mv	a1,s3
	addi	a0,a0,%lo(.LANCHOR2)
	call	utils_sha256_update
.LVL212:
	.loc 1 325 7 is_stmt 1
	lui	s7,%hi(.LANCHOR11)
	addi	s7,s7,%lo(.LANCHOR11)
	lui	a5,%hi(.LANCHOR6)
	lw	a0,%lo(.LANCHOR6)(a5)
	lw	a1,0(s7)
	mv	a2,s5
	mv	a3,s3
	call	bl_mtd_write
.LVL213:
	.loc 1 326 7
	.loc 1 326 20 is_stmt 0
	lw	a5,0(s7)
	add	s5,a5,s5
.LVL214:
	sw	s5,0(s7)
.L88:
.LBE194:
	.loc 1 336 4 is_stmt 1
	.loc 1 336 16 is_stmt 0
	lw	a5,0(s9)
	.loc 1 340 7
	lbu	a4,2(s2)
	.loc 1 336 16
	addi	a5,a5,1
	sw	a5,0(s9)
	.loc 1 339 4 is_stmt 1
	.loc 1 339 9 is_stmt 0
	lw	a5,0(s11)
	sw	a5,76(sp)
	lw	a5,4(s11)
	sw	a5,80(sp)
	.loc 1 340 4 is_stmt 1
	.loc 1 340 7 is_stmt 0
	li	a5,9
	bne	a4,a5,.L98
	.loc 1 341 5 is_stmt 1
	.loc 1 341 13 is_stmt 0
	li	a5,10
	sb	a5,78(sp)
	.loc 1 342 5 is_stmt 1
	.loc 1 342 13 is_stmt 0
	li	a5,12
	sb	a5,81(sp)
	.loc 1 343 5 is_stmt 1
	j	.L98
.LVL215:
.L83:
	.loc 1 308 6
	mv	a2,s3
	j	.L118
.L85:
	.loc 1 311 143 is_stmt 0
	call	xTaskGetTickCount
.LVL216:
	j	.L86
.L89:
	.loc 1 314 136
	call	xTaskGetTickCount
.LVL217:
	j	.L90
.L92:
	.loc 1 321 167
	call	xTaskGetTickCount
.LVL218:
	j	.L93
.L82:
	.loc 1 330 5 is_stmt 1
	lui	a0,%hi(.LANCHOR2)
	mv	a2,s3
	mv	a1,a3
	addi	a0,a0,%lo(.LANCHOR2)
	sw	a3,24(sp)
	.loc 1 331 5 is_stmt 0
	lui	s7,%hi(.LANCHOR11)
	.loc 1 330 5
	call	utils_sha256_update
.LVL219:
	.loc 1 331 5 is_stmt 1
	addi	s5,s7,%lo(.LANCHOR11)
	lui	a5,%hi(.LANCHOR6)
	lw	a0,%lo(.LANCHOR6)(a5)
	lw	a3,24(sp)
	lw	a1,0(s5)
	mv	a2,s3
	addi	s7,s7,%lo(.LANCHOR11)
	call	bl_mtd_write
.LVL220:
	.loc 1 332 5
	.loc 1 332 17 is_stmt 0
	lw	a5,0(s5)
	add	s3,a5,s3
.LVL221:
	.loc 1 333 10
	lw	a5,%lo(TrapNetCounter)(s1)
	.loc 1 332 17
	sw	s3,0(s5)
	.loc 1 333 5 is_stmt 1
	.loc 1 333 10
.LBB195:
.LBB196:
	.loc 2 151 5
.LBE196:
.LBE195:
	.loc 1 333 10 is_stmt 0
	beq	a5,zero,.L96
	.loc 1 333 124
	call	xTaskGetTickCountFromISR
.LVL222:
.L97:
	.loc 1 333 10
	lui	a5,%hi(.LANCHOR5)
	lw	a4,0(s7)
	lw	a3,%lo(.LANCHOR5)(a5)
	mv	a1,a0
	lui	a0,%hi(.LC48)
	addi	a2,s0,%lo(.LC5)
	addi	a0,a0,%lo(.LC48)
	call	bl_printk
.LVL223:
	j	.L88
.L96:
	.loc 1 333 153
	call	xTaskGetTickCount
.LVL224:
	j	.L97
.LVL225:
.L81:
.LBE248:
	.loc 1 350 4 is_stmt 1
	.loc 1 350 9
.LBB249:
.LBB250:
	.loc 2 151 5
.LBE250:
.LBE249:
	.loc 1 350 9 is_stmt 0
	lw	a5,%lo(TrapNetCounter)(s1)
	beq	a5,zero,.L100
	.loc 1 350 136
	call	xTaskGetTickCountFromISR
.LVL226:
.L101:
	.loc 1 350 9
	mv	a1,a0
	lui	a3,%hi(.LC7)
	lui	a0,%hi(.LC49)
	li	a4,350
	addi	a3,a3,%lo(.LC7)
	addi	a2,s0,%lo(.LC5)
	addi	a0,a0,%lo(.LC49)
	call	bl_printk
.LVL227:
	j	.L18
.L100:
	.loc 1 350 165
	call	xTaskGetTickCount
.LVL228:
	j	.L101
.L46:
	.loc 1 353 3 is_stmt 1
	.loc 1 353 8
.LBB251:
.LBB252:
	.loc 2 151 5
.LBE252:
.LBE251:
	.loc 1 353 8 is_stmt 0
	lw	a5,%lo(TrapNetCounter)(s1)
	beq	a5,zero,.L102
	.loc 1 353 118
	call	xTaskGetTickCountFromISR
.LVL229:
.L103:
	.loc 1 353 8
	lui	a3,%hi(.LC7)
	mv	a1,a0
	lui	a0,%hi(.LC50)
	li	a4,353
	addi	a3,a3,%lo(.LC7)
	addi	a2,s0,%lo(.LC5)
	addi	a0,a0,%lo(.LC50)
	j	.L119
.L102:
	.loc 1 353 147
	call	xTaskGetTickCount
.LVL230:
	j	.L103
.LVL231:
.L19:
.LBE257:
.LBE262:
.LBB263:
	.loc 1 414 5 is_stmt 1
	.loc 1 414 10
.LBB264:
.LBB265:
	.loc 2 151 5
.LBE265:
.LBE264:
	.loc 1 414 10 is_stmt 0
	lw	a5,%lo(TrapNetCounter)(s1)
	beq	a5,zero,.L105
	.loc 1 414 109 discriminator 1
	call	xTaskGetTickCountFromISR
.LVL232:
.L106:
	.loc 1 414 10 discriminator 4
	mv	a1,a0
	lui	a0,%hi(.LC51)
	addi	a2,s0,%lo(.LC5)
	addi	a0,a0,%lo(.LC51)
	call	bl_printk
.LVL233:
	.loc 1 415 5 is_stmt 1 discriminator 4
	.loc 1 415 15 is_stmt 0 discriminator 4
	mv	a0,s6
	call	lwip_close
.LVL234:
	.loc 1 416 10 discriminator 4
	lw	a5,%lo(TrapNetCounter)(s1)
	.loc 1 415 15 discriminator 4
	mv	s3,a0
.LVL235:
	.loc 1 416 5 is_stmt 1 discriminator 4
	.loc 1 416 10 discriminator 4
.LBB266:
.LBB267:
	.loc 2 151 5 discriminator 4
.LBE267:
.LBE266:
	.loc 1 416 10 is_stmt 0 discriminator 4
	beq	a5,zero,.L107
	.loc 1 416 101 discriminator 1
	call	xTaskGetTickCountFromISR
.LVL236:
.L108:
	.loc 1 416 10 discriminator 4
	mv	a1,a0
	lui	a0,%hi(.LC52)
	mv	a3,s3
	addi	a2,s0,%lo(.LC5)
	addi	a0,a0,%lo(.LC52)
	call	bl_printk
.LVL237:
	.loc 1 417 5 is_stmt 1 discriminator 4
.LBE263:
.LBE273:
	.loc 1 398 8 is_stmt 0 discriminator 4
	j	.L109
.LVL238:
.L105:
.LBB274:
.LBB268:
	.loc 1 414 138 discriminator 2
	call	xTaskGetTickCount
.LVL239:
	j	.L106
.LVL240:
.L107:
	.loc 1 416 130 discriminator 2
	call	xTaskGetTickCount
.LVL241:
	j	.L108
.LVL242:
.L15:
.LBE268:
.LBE274:
	.loc 1 422 2 is_stmt 1
	mv	a0,s2
.LVL243:
	call	free
.LVL244:
	.loc 1 423 2
	mv	a0,s4
	call	lwip_close
.LVL245:
	.loc 1 424 2
	li	a0,0
	call	vTaskDelete
.LVL246:
	.loc 1 425 2
	.loc 1 426 1 is_stmt 0
	lw	ra,172(sp)
	.cfi_restore 1
	lw	s0,168(sp)
	.cfi_restore 8
	.loc 1 425 18
	lui	a5,%hi(.LANCHOR12)
	sw	zero,%lo(.LANCHOR12)(a5)
	.loc 1 426 1
	lw	s1,164(sp)
	.cfi_restore 9
	lw	s2,160(sp)
	.cfi_restore 18
.LVL247:
	lw	s3,156(sp)
	.cfi_restore 19
	lw	s4,152(sp)
	.cfi_restore 20
.LVL248:
	lw	s5,148(sp)
	.cfi_restore 21
	lw	s6,144(sp)
	.cfi_restore 22
.LVL249:
	lw	s7,140(sp)
	.cfi_restore 23
	lw	s8,136(sp)
	.cfi_restore 24
	lw	s9,132(sp)
	.cfi_restore 25
	lw	s10,128(sp)
	.cfi_restore 26
	lw	s11,124(sp)
	.cfi_restore 27
	addi	sp,sp,176
	.cfi_def_cfa_offset 0
	jr	ra
	.cfi_endproc
.LFE10:
	.size	ota_server_task, .-ota_server_task
	.section	.text.doit_ota_server_init,"ax",@progbits
	.align	1
	.globl	doit_ota_server_init
	.type	doit_ota_server_init, @function
doit_ota_server_init:
.LFB11:
	.loc 1 430 1 is_stmt 1
	.cfi_startproc
	.loc 1 431 2
	.loc 1 431 7
.LBB275:
.LBB276:
	.loc 2 151 5
	.loc 2 151 31 is_stmt 0
	lui	a5,%hi(TrapNetCounter)
.LBE276:
.LBE275:
	.loc 1 431 7
	lw	a4,%lo(TrapNetCounter)(a5)
	.loc 1 430 1
	addi	sp,sp,-16
	.cfi_def_cfa_offset 16
	sw	s1,4(sp)
	sw	ra,12(sp)
	sw	s0,8(sp)
	.cfi_offset 9, -12
	.cfi_offset 1, -4
	.cfi_offset 8, -8
	mv	s1,a5
	.loc 1 431 7
	beq	a4,zero,.L121
	.loc 1 431 106 discriminator 1
	call	xTaskGetTickCountFromISR
.LVL250:
.L122:
	.loc 1 431 7 discriminator 4
	mv	a1,a0
	lui	s0,%hi(.LC5)
	lui	a0,%hi(.LC53)
	addi	a2,s0,%lo(.LC5)
	addi	a0,a0,%lo(.LC53)
	call	bl_printk
.LVL251:
	.loc 1 433 2 is_stmt 1 discriminator 4
	.loc 1 433 5 is_stmt 0 discriminator 4
	lui	a5,%hi(.LANCHOR12)
	.loc 1 433 4 discriminator 4
	lw	a4,%lo(.LANCHOR12)(a5)
	bne	a4,zero,.L120
	.loc 1 434 3 is_stmt 1
	.loc 1 434 7 is_stmt 0
	lui	a1,%hi(.LC54)
	lui	a0,%hi(ota_server_task)
	addi	a5,a5,%lo(.LANCHOR12)
	li	a4,10
	li	a3,0
	li	a2,1024
	addi	a1,a1,%lo(.LC54)
	addi	a0,a0,%lo(ota_server_task)
	call	xTaskCreate
.LVL252:
	.loc 1 434 6
	li	a5,1
	beq	a0,a5,.L120
	.loc 1 435 4 is_stmt 1
	.loc 1 435 9
.LBB277:
.LBB278:
	.loc 2 151 5
.LBE278:
.LBE277:
	.loc 1 435 9 is_stmt 0
	lw	a5,%lo(TrapNetCounter)(s1)
	beq	a5,zero,.L126
	.loc 1 435 121 discriminator 1
	call	xTaskGetTickCountFromISR
.LVL253:
.L127:
	.loc 1 435 9 discriminator 4
	addi	a2,s0,%lo(.LC5)
	.loc 1 438 1 discriminator 4
	lw	s0,8(sp)
	.cfi_remember_state
	.cfi_restore 8
	lw	ra,12(sp)
	.cfi_restore 1
	lw	s1,4(sp)
	.cfi_restore 9
	.loc 1 435 9 discriminator 4
	lui	a3,%hi(.LC7)
	mv	a1,a0
	lui	a0,%hi(.LC55)
	.loc 1 438 1 discriminator 4
	.loc 1 435 9 discriminator 4
	li	a4,435
	addi	a3,a3,%lo(.LC7)
	addi	a0,a0,%lo(.LC55)
	.loc 1 438 1 discriminator 4
	addi	sp,sp,16
	.cfi_def_cfa_offset 0
	.loc 1 435 9 discriminator 4
	tail	bl_printk
.LVL254:
.L121:
	.cfi_restore_state
	.loc 1 431 135 discriminator 2
	call	xTaskGetTickCount
.LVL255:
	j	.L122
.L126:
	.loc 1 435 150 discriminator 2
	call	xTaskGetTickCount
.LVL256:
	j	.L127
.L120:
	.loc 1 438 1
	lw	ra,12(sp)
	.cfi_restore 1
	lw	s0,8(sp)
	.cfi_restore 8
	lw	s1,4(sp)
	.cfi_restore 9
	addi	sp,sp,16
	.cfi_def_cfa_offset 0
	jr	ra
	.cfi_endproc
.LFE11:
	.size	doit_ota_server_init, .-doit_ota_server_init
	.globl	ota_task_handle
	.globl	written_data
	.comm	sig_backup,32,4
	.section	.bss.ctx,"aw",@nobits
	.align	2
	.set	.LANCHOR2,. + 0
	.type	ctx, @object
	.size	ctx, 108
ctx:
	.zero	108
	.section	.bss.ptEntry,"aw",@nobits
	.align	2
	.set	.LANCHOR4,. + 0
	.type	ptEntry, @object
	.size	ptEntry, 36
ptEntry:
	.zero	36
	.section	.bss.sha256_result,"aw",@nobits
	.align	2
	.set	.LANCHOR1,. + 0
	.type	sha256_result, @object
	.size	sha256_result, 32
sha256_result:
	.zero	32
	.section	.bss.written_data,"aw",@nobits
	.align	2
	.type	written_data, @object
	.size	written_data, 256
written_data:
	.zero	256
	.section	.rodata.doit_ota_server_init.str1.4,"aMS",@progbits,1
	.align	2
.LC53:
	.string	"\033[32m[%10u][%s] doit_ota_server_init.\033[0m\r\n"
.LC54:
	.string	"ota_server_task"
.LC55:
	.string	"\033[31m[%10u][%s %s:%4d] create ota_server_task fail\033[0m\r\n"
	.section	.rodata.ota_server_task.str1.4,"aMS",@progbits,1
	.align	2
.LC3:
	.string	"XZ"
	.zero	1
.LC4:
	.string	"RAW"
.LC5:
	.string	"ota"
.LC6:
	.string	"\033[32m[%10u][%s] ota server socket....,port=%d\033[0m\r\n"
.LC7:
	.string	"doit_ota.c"
	.zero	1
.LC8:
	.string	"\033[31m[%10u][%s %s:%4d] create_server error: %d\033[0m\r\n"
	.zero	3
.LC9:
	.string	"\033[31m[%10u][%s %s:%4d] bind_server error: %d\033[0m\r\n"
	.zero	1
.LC10:
	.string	"\033[31m[%10u][%s %s:%4d] listen_server error: %d\033[0m\r\n"
	.zero	3
.LC11:
	.string	"\033[32m[%10u][%s] start accept\n\033[0m\r\n"
.LC12:
	.string	"\033[32m[%10u][%s] new client connected %d\n\033[0m\r\n"
	.zero	1
.LC13:
	.string	"\033[32m[%10u][%s] error package len<9, len=%d\r\n\033[0m\r\n"
.LC14:
	.string	"\033[32m[%10u][%s] %02x \033[0m\r\n"
.LC15:
	.string	"\033[32m[%10u][%s] \r\n\033[0m\r\n"
	.zero	3
.LC16:
	.string	"\033[31m[%10u][%s %s:%4d] error package prefix, pkg[0]=%02x, pkg[1]=%02x, pkg[2]=%02x, pkg[3]=%02x, chksum=%02x, last=%02x, pkgLen=%d\r\n\033[0m\r\n"
	.zero	1
.LC17:
	.string	"\033[31m[%10u][%s %s:%4d] error package suffix\r\n\033[0m\r\n"
.LC18:
	.string	"\033[31m[%10u][%s %s:%4d] error sequence number:%d %d, buf:%d %d %d %d, reboot!\r\n\033[0m\r\n"
	.zero	3
.LC19:
	.string	"\033[32m[%10u][%s] skip cmd package, cmd=%d\r\n\033[0m\r\n"
	.zero	3
.LC20:
	.string	"\033[31m[%10u][%s %s:%4d] error OTA pkg size > 240, reboot\r\n\033[0m\r\n"
.LC21:
	.string	"\r\nCalculated SHA256 Checksum:"
	.zero	2
.LC22:
	.string	"%02X"
	.zero	3
.LC23:
	.string	"\r\nHeader SET SHA256 Checksum:"
	.zero	2
.LC24:
	.string	"\r\n"
	.zero	1
.LC25:
	.string	"\033[31m[%10u][%s %s:%4d] SHA256 NOT Correct\033[0m\r\n"
.LC26:
	.string	"\033[32m[%10u][%s] boot2_update ret: %d\033[0m\r\n"
	.zero	1
.LC27:
	.string	"\033[32m[%10u][%s] OTA complete\r\n\033[0m\r\n"
	.zero	3
.LC28:
	.string	"\033[32m[%10u][%s] --------->ota_start\033[0m\r\n"
	.zero	2
.LC29:
	.string	"FW"
	.zero	1
.LC30:
	.string	"\033[31m[%10u][%s %s:%4d] Open Default FW partition failed\033[0m\r\n"
	.zero	2
.LC31:
	.string	"\033[32m[%10u][%s] activeID is %u\033[0m\r\n"
	.zero	3
.LC32:
	.string	"\033[31m[%10u][%s %s:%4d] PtTable_Get_Active_Entries fail\033[0m\r\n"
	.zero	3
.LC33:
	.string	"\033[32m[%10u][%s] Starting OTA test. OTA size is %lu\r\n\033[0m\r\n"
	.zero	1
.LC34:
	.string	"\033[32m[%10u][%s] activeIndex is %u, use OTA address=%08x\r\n\033[0m\r\n"
.LC35:
	.string	"\033[32m[%10u][%s] Erase flash with size %lu...\033[0m\r\n"
	.zero	1
.LC36:
	.string	"\033[32m[%10u][%s] send slot info, len=%d\r\n\033[0m\r\n"
	.zero	1
.LC37:
	.string	"\033[32m[%10u][%s] header size = %d, ret = %d\033[0m\r\n"
	.zero	3
.LC38:
	.string	"\033[32m[%10u][%s] start check header\033[0m\r\n"
	.zero	3
.LC39:
	.string	"[OTA] [HEADER] ota header is "
	.zero	2
.LC40:
	.string	"[OTA] [HEADER] file type is "
	.zero	3
.LC41:
	.string	"[OTA] [HEADER] file length (exclude ota header) is %lu\r\n"
	.zero	3
.LC42:
	.string	"[OTA] [HEADER] ver_hardware is "
.LC43:
	.string	"[OTA] [HEADER] ver_software is "
.LC44:
	.string	"[OTA] [HEADER] sha256 len: %d\r\n"
.LC45:
	.string	"[OTA] [HEADER] sha256 is "
	.zero	2
.LC46:
	.string	"[OTA] [HEADER] OK!!!\r\n"
	.zero	1
.LC47:
	.string	"\033[32m[%10u][%s] check_ota_header ok bin_size: %lu, file status %s\033[0m\r\n"
.LC48:
	.string	"\033[32m[%10u][%s] bin ota_header_offset = %d, ret = %d\033[0m\r\n"
	.zero	1
.LC49:
	.string	"\033[31m[%10u][%s %s:%4d] unknown message! unknown package type!\r\n\033[0m\r\n"
	.zero	2
.LC50:
	.string	"\033[31m[%10u][%s %s:%4d] ~~> checksum failed!!\r\n\033[0m\r\n"
	.zero	3
.LC51:
	.string	"\033[32m[%10u][%s] client disconnected\n\033[0m\r\n"
	.zero	1
.LC52:
	.string	"\033[32m[%10u][%s] close res: %d\033[0m\r\n"
	.section	.sbss.flash_offset.4187,"aw",@nobits
	.align	2
	.set	.LANCHOR11,. + 0
	.type	flash_offset.4187, @object
	.size	flash_offset.4187, 4
flash_offset.4187:
	.zero	4
	.section	.sbss.handle,"aw",@nobits
	.align	2
	.set	.LANCHOR6,. + 0
	.type	handle, @object
	.size	handle, 4
handle:
	.zero	4
	.section	.sbss.ota_bin_size,"aw",@nobits
	.align	2
	.set	.LANCHOR5,. + 0
	.type	ota_bin_size, @object
	.size	ota_bin_size, 4
ota_bin_size:
	.zero	4
	.section	.sbss.ota_header,"aw",@nobits
	.align	2
	.set	.LANCHOR3,. + 0
	.type	ota_header, @object
	.size	ota_header, 4
ota_header:
	.zero	4
	.section	.sbss.ota_header_buffer,"aw",@nobits
	.align	2
	.set	.LANCHOR7,. + 0
	.type	ota_header_buffer, @object
	.size	ota_header_buffer, 4
ota_header_buffer:
	.zero	4
	.section	.sbss.ota_header_found.4188,"aw",@nobits
	.align	2
	.set	.LANCHOR8,. + 0
	.type	ota_header_found.4188, @object
	.size	ota_header_found.4188, 4
ota_header_found.4188:
	.zero	4
	.section	.sbss.ota_header_offset.4186,"aw",@nobits
	.align	2
	.set	.LANCHOR9,. + 0
	.type	ota_header_offset.4186, @object
	.size	ota_header_offset.4186, 4
ota_header_offset.4186:
	.zero	4
	.section	.sbss.ota_task_handle,"aw",@nobits
	.align	2
	.set	.LANCHOR12,. + 0
	.type	ota_task_handle, @object
	.size	ota_task_handle, 4
ota_task_handle:
	.zero	4
	.section	.sbss.sequence_num,"aw",@nobits
	.align	2
	.set	.LANCHOR0,. + 0
	.type	sequence_num, @object
	.size	sequence_num, 4
sequence_num:
	.zero	4
	.section	.sbss.use_xz,"aw",@nobits
	.align	2
	.set	.LANCHOR10,. + 0
	.type	use_xz, @object
	.size	use_xz, 4
use_xz:
	.zero	4
	.section	.srodata,"a"
	.align	2
.LC2:
	.byte	-14
	.byte	-14
	.byte	8
	.byte	1
	.byte	1
	.byte	10
	.byte	126
	.byte	0
.LC0:
	.byte	-14
	.byte	-14
	.byte	32
	.byte	0
	.byte	32
	.byte	126
	.byte	0
	.zero	1
.LC1:
	.byte	-14
	.byte	-14
	.byte	7
	.byte	1
	.byte	1
	.byte	9
	.byte	126
	.byte	0
	.text
.Letext0:
	.file 3 "/b-l/bl_iot_sdk/toolchain/riscv/Linux/lib/gcc/riscv64-unknown-elf/8.3.0/include/stddef.h"
	.file 4 "/b-l/bl_iot_sdk/toolchain/riscv/Linux/riscv64-unknown-elf/include/machine/_default_types.h"
	.file 5 "/b-l/bl_iot_sdk/toolchain/riscv/Linux/riscv64-unknown-elf/include/sys/_types.h"
	.file 6 "/b-l/bl_iot_sdk/toolchain/riscv/Linux/riscv64-unknown-elf/include/sys/reent.h"
	.file 7 "/b-l/bl_iot_sdk/toolchain/riscv/Linux/riscv64-unknown-elf/include/sys/lock.h"
	.file 8 "/b-l/bl_iot_sdk/toolchain/riscv/Linux/riscv64-unknown-elf/include/stdlib.h"
	.file 9 "/b-l/bl_iot_sdk/components/network/lwip/lwip-port/arch/cc.h"
	.file 10 "/b-l/bl_iot_sdk/toolchain/riscv/Linux/riscv64-unknown-elf/include/sys/_stdint.h"
	.file 11 "/b-l/bl_iot_sdk/toolchain/riscv/Linux/riscv64-unknown-elf/include/sys/types.h"
	.file 12 "/b-l/bl_iot_sdk/toolchain/riscv/Linux/riscv64-unknown-elf/include/ctype.h"
	.file 13 "/b-l/bl_iot_sdk/components/network/lwip/src/include/lwip/mem.h"
	.file 14 "/b-l/bl_iot_sdk/components/network/lwip/src/include/lwip/priv/memp_priv.h"
	.file 15 "/b-l/bl_iot_sdk/components/network/lwip/src/include/lwip/stats.h"
	.file 16 "/b-l/bl_iot_sdk/components/network/lwip/src/include/lwip/memp.h"
	.file 17 "/b-l/bl_iot_sdk/components/network/lwip/src/include/lwip/ip4_addr.h"
	.file 18 "/b-l/bl_iot_sdk/components/network/lwip/src/include/lwip/ip_addr.h"
	.file 19 "/b-l/bl_iot_sdk/components/network/lwip/src/include/lwip/err.h"
	.file 20 "/b-l/bl_iot_sdk/components/network/lwip/src/include/lwip/pbuf.h"
	.file 21 "/b-l/bl_iot_sdk/components/network/lwip/src/include/lwip/netif.h"
	.file 22 "/b-l/bl_iot_sdk/components/network/lwip/src/include/lwip/inet.h"
	.file 23 "/b-l/bl_iot_sdk/components/network/lwip/src/include/lwip/errno.h"
	.file 24 "/b-l/bl_iot_sdk/components/network/lwip/src/include/lwip/sockets.h"
	.file 25 "/b-l/bl_iot_sdk/components/network/lwip/src/include/lwip/netdb.h"
	.file 26 "/b-l/bl_iot_sdk/components/bl602/freertos_riscv_ram/config/task.h"
	.file 27 "/b-l/bl_iot_sdk/components/hal_drv/bl602_hal/hal_boot2.h"
	.file 28 "/b-l/bl_iot_sdk/components/utils/include/utils_sha256.h"
	.file 29 "/b-l/bl_iot_sdk/components/sys/blmtd/include/bl_mtd.h"
	.file 30 "/b-l/bl_iot_sdk/components/utils/include/utils_log.h"
	.file 31 "/b-l/bl_iot_sdk/toolchain/riscv/Linux/riscv64-unknown-elf/include/string.h"
	.file 32 "/b-l/bl_iot_sdk/toolchain/riscv/Linux/riscv64-unknown-elf/include/stdio.h"
	.file 33 "/b-l/DoHome_Light_rgbcw/DoHome_Light_rgbcw/components/doit_server/include/doit_system.h"
	.file 34 "/b-l/bl_iot_sdk/components/bl602/freertos_riscv_ram/config/portable.h"
	.file 35 "/b-l/bl_iot_sdk/components/network/lwip/src/include/lwip/def.h"
	.file 36 "<built-in>"