	.file	"doit_tcp_client.c"
	.option nopic
	.attribute arch, "rv32i2p0_m2p0_f2p0_c2p0"
	.attribute unaligned_access, 0
	.attribute stack_align, 16
	.text
.Ltext0:
	.cfi_sections	.debug_frame
	.section	.text.vTimerCallback,"ax",@progbits
	.align	1
	.type	vTimerCallback, @function
vTimerCallback:
.LFB7:
	.file 1 "/b-l/DoHome_Light_rgbcw/DoHome_Light_rgbcw/components/doit_server/doit_tcp_client.c"
	.loc 1 100 1
	.cfi_startproc
.LVL0:
	.loc 1 102 2
	.loc 1 102 5 is_stmt 0
	lui	a5,%hi(.LANCHOR0)
	lbu	a5,%lo(.LANCHOR0)(a5)
	beq	a5,zero,.L7
.LVL1:
.LBB10:
.LBB11:
	.loc 1 103 3 is_stmt 1
	.loc 1 104 3
.LBE11:
.LBE10:
	.loc 1 100 1 is_stmt 0
	addi	sp,sp,-272
	.cfi_def_cfa_offset 272
.LBB14:
.LBB12:
	.loc 1 104 3
	li	a2,256
	li	a1,0
	mv	a0,sp
.LVL2:
.LBE12:
.LBE14:
	.loc 1 100 1
	sw	ra,268(sp)
	sw	s0,264(sp)
	.cfi_offset 1, -4
	.cfi_offset 8, -8
.LBB15:
.LBB13:
	.loc 1 104 3
	call	memset
.LVL3:
	.loc 1 105 3 is_stmt 1
	lui	a3,%hi(dev_key)
	lui	a2,%hi(dev_id)
	lui	a1,%hi(.LC1)
	addi	a3,a3,%lo(dev_key)
	addi	a2,a2,%lo(dev_id)
	addi	a1,a1,%lo(.LC1)
	mv	a0,sp
	call	sprintf
.LVL4:
	.loc 1 106 3
	lui	a5,%hi(.LANCHOR1)
	lw	s0,%lo(.LANCHOR1)(a5)
	mv	a0,sp
	call	strlen
.LVL5:
	mv	a2,a0
	mv	a1,sp
	mv	a0,s0
	li	a3,0
	call	lwip_send
.LVL6:
	.loc 1 107 3
.LBE13:
.LBE15:
	.loc 1 110 2
	.loc 1 110 2
	.loc 1 111 1 is_stmt 0
	lw	ra,268(sp)
	.cfi_restore 1
	lw	s0,264(sp)
	.cfi_restore 8
	addi	sp,sp,272
	.cfi_def_cfa_offset 0
	jr	ra
.LVL7:
.L7:
	ret
	.cfi_endproc
.LFE7:
	.size	vTimerCallback, .-vTimerCallback
	.section	.text.tcp_client_conn,"ax",@progbits
	.align	1
	.type	tcp_client_conn, @function
tcp_client_conn:
.LFB8:
	.loc 1 115 1 is_stmt 1
	.cfi_startproc
.LVL8:
	.loc 1 117 40
	.loc 1 118 2
	.loc 1 119 2
	.loc 1 120 2
	.loc 1 115 1 is_stmt 0
	addi	sp,sp,-1104
	.cfi_def_cfa_offset 1104
	.loc 1 120 2
	li	a2,512
	li	a1,0
	addi	a0,sp,528
.LVL9:
	.loc 1 115 1
	sw	ra,1100(sp)
	sw	s1,1092(sp)
	sw	s0,1096(sp)
	sw	s2,1088(sp)
	sw	s3,1084(sp)
	sw	s4,1080(sp)
	sw	s5,1076(sp)
	sw	s6,1072(sp)
	sw	s7,1068(sp)
	sw	s8,1064(sp)
	sw	s9,1060(sp)
	sw	s10,1056(sp)
	sw	s11,1052(sp)
	.cfi_offset 1, -4
	.cfi_offset 9, -12
	.cfi_offset 8, -8
	.cfi_offset 18, -16
	.cfi_offset 19, -20
	.cfi_offset 20, -24
	.cfi_offset 21, -28
	.cfi_offset 22, -32
	.cfi_offset 23, -36
	.cfi_offset 24, -40
	.cfi_offset 25, -44
	.cfi_offset 26, -48
	.cfi_offset 27, -52
	.loc 1 120 2
	call	memset
.LVL10:
	.loc 1 121 2 is_stmt 1
	.loc 1 122 2
	li	a2,200
	li	a1,0
	addi	a0,sp,72
	call	memset
.LVL11:
	.loc 1 123 2
	.loc 1 124 2
	.loc 1 125 2
.LBB30:
.LBB31:
	.loc 1 160 12 is_stmt 0
	lui	a5,%hi(.LC0)
	lw	a5,%lo(.LC0)(a5)
.LBE31:
.LBE30:
	.loc 1 118 7
	li	s1,0
.LBB70:
.LBB32:
	.loc 1 160 12
	sw	a5,8(sp)
.LVL12:
.L11:
.LBE32:
.LBE70:
	.loc 1 126 2 is_stmt 1
.LBB71:
	.loc 1 128 3
	.loc 1 128 8 is_stmt 0
	call	wifi_get_connect_status
.LVL13:
	.loc 1 128 6
	bne	a0,zero,.L12
.L41:
	.loc 1 137 4 is_stmt 1
	.loc 1 138 4
	li	a0,1000
	call	vTaskDelay
.LVL14:
	.loc 1 139 4
	j	.L11
.L12:
	.loc 1 134 3
	.loc 1 134 15 is_stmt 0
	li	a2,0
	li	a1,1
	li	a0,2
	call	lwip_socket
.LVL15:
	mv	s0,a0
.LVL16:
	.loc 1 136 3 is_stmt 1
	.loc 1 136 6 is_stmt 0
	blt	a0,zero,.L41
	.loc 1 142 3 is_stmt 1
	li	a2,16
	li	a1,0
	addi	a0,sp,56
	call	memset
.LVL17:
	.loc 1 143 3
	.loc 1 144 26 is_stmt 0
	li	a0,8192
	.loc 1 143 26
	li	a5,2
	.loc 1 144 26
	addi	a0,a0,707
	.loc 1 143 26
	sb	a5,57(sp)
	.loc 1 144 3 is_stmt 1
	.loc 1 144 26 is_stmt 0
	call	lwip_htons
.LVL18:
	.loc 1 144 24
	sh	a0,58(sp)
	.loc 1 147 3 is_stmt 1
	.loc 1 147 17 is_stmt 0
	lui	a0,%hi(.LC2)
	addi	a0,a0,%lo(.LC2)
	call	lwip_gethostbyname
.LVL19:
	.loc 1 148 3 is_stmt 1
	.loc 1 148 6 is_stmt 0
	bne	a0,zero,.L15
	.loc 1 149 4 is_stmt 1
	li	a0,1000
.LVL20:
	call	vTaskDelay
.LVL21:
	.loc 1 150 4
	.loc 1 150 21 is_stmt 0
	addi	s1,s1,1
.LVL22:
	andi	s1,s1,0xff
.LVL23:
	.loc 1 151 4 is_stmt 1
	.loc 1 152 4
	.loc 1 152 7 is_stmt 0
	li	a5,29
	bleu	s1,a5,.L16
.L18:
.LVL24:
.LBB33:
	.loc 1 159 4 is_stmt 1
	.loc 1 160 4
	.loc 1 160 12 is_stmt 0
	lw	a5,8(sp)
	.loc 1 161 4
	li	a2,4
	addi	a1,sp,272
	.loc 1 160 12
	sw	a5,272(sp)
	.loc 1 161 4 is_stmt 1
.L42:
.LBE33:
	.loc 1 165 4 is_stmt 0
	addi	a0,sp,60
	call	memcpy
.LVL25:
	.loc 1 168 3 is_stmt 1
	.loc 1 169 3
	.loc 1 170 3
	li	a2,4
	addi	a1,sp,60
	addi	a0,sp,28
	call	memcpy
.LVL26:
	.loc 1 172 56
	.loc 1 174 3
.LBB34:
	.loc 1 176 4
	.loc 1 176 8 is_stmt 0
	li	a2,16
	addi	a1,sp,56
	mv	a0,s0
	call	lwip_connect
.LVL27:
	.loc 1 176 7
	bge	a0,zero,.L19
	.loc 1 177 5 is_stmt 1
	.loc 1 178 5
	.loc 1 179 5
	li	a0,4096
	addi	a0,a0,904
	call	vTaskDelay
.LVL28:
	.loc 1 180 5
	mv	a0,s0
	call	lwip_close
.LVL29:
	.loc 1 181 5
.L20:
.LBE34:
	.loc 1 168 21 is_stmt 0
	li	s1,0
	j	.L11
.LVL30:
.L16:
	.loc 1 153 5 is_stmt 1
	mv	a0,s0
	call	lwip_close
.LVL31:
	.loc 1 154 5
	j	.L11
.LVL32:
.L15:
	.loc 1 158 3
	.loc 1 158 6 is_stmt 0
	li	a5,29
	bgtu	s1,a5,.L18
	.loc 1 164 4 is_stmt 1
	.loc 1 165 4
	lw	a5,16(a0)
	lw	a2,12(a0)
	lw	a1,0(a5)
	j	.L42
.LVL33:
.L19:
.LBB69:
	.loc 1 184 4
	.loc 1 185 4
	.loc 1 185 16 is_stmt 0
	lui	a5,%hi(.LANCHOR1)
	sw	s0,%lo(.LANCHOR1)(a5)
	.loc 1 187 4 is_stmt 1
.LVL34:
.LBB35:
.LBB36:
	.loc 1 38 2
	.loc 1 39 6 is_stmt 0
	li	a5,20
	.loc 1 48 7
	li	s1,4096
	.loc 1 39 6
	sw	a5,36(sp)
	.loc 1 40 6
	li	a5,3
	.loc 1 38 6
	li	s3,1
	.loc 1 40 6
	sw	a5,40(sp)
	.loc 1 48 7
	li	a4,4
	.loc 1 41 6
	li	a5,2
	.loc 1 48 7
	addi	a3,sp,32
	li	a2,8
	addi	a1,s1,-1
	mv	a0,s0
	.loc 1 41 6
	sw	a5,272(sp)
	.loc 1 38 6
	sw	s3,32(sp)
	.loc 1 39 2 is_stmt 1
	.loc 1 40 2
	.loc 1 41 2
	.loc 1 48 2
	.loc 1 48 7 is_stmt 0
	call	lwip_setsockopt
.LVL35:
	.loc 1 49 3 is_stmt 1
	.loc 1 51 2
	.loc 1 51 7 is_stmt 0
	li	a4,4
	addi	a3,sp,36
	li	a2,3
	li	a1,6
	mv	a0,s0
	call	lwip_setsockopt
.LVL36:
	.loc 1 52 3 is_stmt 1
	.loc 1 54 2
	.loc 1 54 7 is_stmt 0
	li	a4,4
	addi	a3,sp,40
	li	a2,4
	li	a1,6
	mv	a0,s0
	call	lwip_setsockopt
.LVL37:
	.loc 1 55 3 is_stmt 1
	.loc 1 57 2
	.loc 1 57 7 is_stmt 0
	li	a4,4
	addi	a3,sp,272
	li	a2,5
	li	a1,6
	mv	a0,s0
	call	lwip_setsockopt
.LVL38:
	.loc 1 58 3 is_stmt 1
	.loc 1 60 2
.LBE36:
.LBE35:
	.loc 1 188 4
	.loc 1 188 25 is_stmt 0
	li	a4,10
	li	a5,0
	.loc 1 189 4
	addi	a3,sp,40
	.loc 1 188 25
	sw	a4,40(sp)
	.loc 1 189 4
	addi	a2,s1,6
	li	a4,16
	addi	a1,s1,-1
	mv	a0,s0
	.loc 1 188 25
	sw	a5,44(sp)
	sw	zero,48(sp)
	.loc 1 189 4 is_stmt 1
	call	lwip_setsockopt
.LVL39:
	.loc 1 190 4
	li	a2,200
	li	a1,0
	addi	a0,sp,72
	call	memset
.LVL40:
	.loc 1 192 4
	lui	a3,%hi(dev_key)
	lui	a2,%hi(dev_id)
	lui	a1,%hi(.LC3)
	addi	a3,a3,%lo(dev_key)
	addi	a2,a2,%lo(dev_id)
	addi	a1,a1,%lo(.LC3)
	addi	a0,sp,72
	call	sprintf
.LVL41:
	.loc 1 193 4
	.loc 1 194 4
	addi	a0,sp,72
	call	strlen
.LVL42:
	mv	a2,a0
	.loc 1 196 23 is_stmt 0
	lui	s2,%hi(.LANCHOR0)
	.loc 1 194 4
	li	a3,0
	addi	a1,sp,72
	mv	a0,s0
	call	lwip_send
.LVL43:
	.loc 1 196 4 is_stmt 1
.LBB37:
.LBB38:
.LBB39:
.LBB40:
.LBB41:
	.loc 1 91 13 is_stmt 0
	lui	s10,%hi(.LC8)
.LBE41:
.LBE40:
.LBE39:
.LBE38:
.LBE37:
	.loc 1 196 23
	sb	s3,%lo(.LANCHOR0)(s2)
.LBB67:
.LBB65:
.LBB62:
.LBB56:
.LBB50:
.LBB42:
	.loc 1 83 18
	lui	s4,%hi(.LC7)
	addi	s2,s2,%lo(.LANCHOR0)
.L21:
.LBE42:
.LBE50:
.LBE56:
.LBE62:
.LBE65:
.LBE67:
	.loc 1 198 4 is_stmt 1
.LBB68:
	.loc 1 199 5
	li	a2,512
	li	a1,0
	addi	a0,sp,528
	call	memset
.LVL44:
	.loc 1 206 5
	.loc 1 206 15 is_stmt 0
	li	a3,0
	li	a2,512
	addi	a1,sp,528
	mv	a0,s0
	call	lwip_recv
.LVL45:
	mv	s3,a0
.LVL46:
	.loc 1 207 5 is_stmt 1
	.loc 1 207 8 is_stmt 0
	ble	a0,zero,.L22
	addi	a4,sp,528
.LBB66:
.LBB63:
	.loc 1 211 15
	li	s1,0
.LBE63:
	.loc 1 210 12
	mv	s9,a4
	.loc 1 209 10
	li	s7,0
.LBB64:
	.loc 1 213 10
	li	s11,10
.LBB57:
.LBB51:
.LBB45:
	.loc 1 70 18
	lui	s8,%hi(.LC5)
.LVL47:
.L29:
.LBE45:
.LBE51:
.LBE57:
	.loc 1 213 7 is_stmt 1
	.loc 1 213 10 is_stmt 0
	lbu	a3,0(a4)
	addi	s5,a4,1
	addi	s6,s1,1
	bne	a3,s11,.L23
	.loc 1 215 8 is_stmt 1
.LBB58:
.LBB52:
	.loc 1 69 6 is_stmt 0
	lui	a5,%hi(.LC4)
.LBE52:
.LBE58:
	.loc 1 215 19
	sb	zero,0(a4)
	.loc 1 216 8 is_stmt 1
.LVL48:
.LBB59:
.LBB53:
	.loc 1 69 2
	.loc 1 69 6 is_stmt 0
	addi	a1,a5,%lo(.LC4)
	mv	a0,s9
	call	strstr
.LVL49:
	.loc 1 69 5
	beq	a0,zero,.L24
.LBB47:
	.loc 1 70 3 is_stmt 1
	.loc 1 70 18 is_stmt 0
	addi	a1,s8,%lo(.LC5)
	mv	a0,s9
	call	strstr
.LVL50:
	.loc 1 71 3 is_stmt 1
	.loc 1 71 6 is_stmt 0
	beq	a0,zero,.L26
.LBB46:
	.loc 1 72 4 is_stmt 1
	.loc 1 72 14 is_stmt 0
	addi	a0,s8,%lo(.LC5)
.LVL51:
	call	strlen
.LVL52:
	.loc 1 73 4 is_stmt 1
	.loc 1 74 4
.L26:
.LBE46:
.LBE47:
	.loc 1 94 3
.LBE53:
.LBE59:
	.loc 1 217 8
	mv	s9,s5
.LVL53:
	.loc 1 218 8
	mv	s7,s6
.LVL54:
.L23:
	.loc 1 211 31 is_stmt 0 discriminator 2
	mv	s1,s6
.LVL55:
	mv	a4,s5
	.loc 1 211 6 discriminator 2
	bne	s3,s6,.L29
	j	.L21
.LVL56:
.L24:
.LBB60:
.LBB54:
	.loc 1 82 9 is_stmt 1
	.loc 1 82 13 is_stmt 0
	lui	a5,%hi(.LC6)
	addi	a1,a5,%lo(.LC6)
	mv	a0,s9
	call	strstr
.LVL57:
	.loc 1 82 12
	beq	a0,zero,.L27
.LBB48:
	.loc 1 83 3 is_stmt 1
	.loc 1 83 18 is_stmt 0
	addi	a1,s4,%lo(.LC7)
	mv	a0,s9
	call	strstr
.LVL58:
	.loc 1 84 3 is_stmt 1
	.loc 1 84 6 is_stmt 0
	sw	a0,12(sp)
	beq	a0,zero,.L26
.LBB43:
	.loc 1 85 4 is_stmt 1
	.loc 1 85 14 is_stmt 0
	addi	a0,s4,%lo(.LC7)
.LVL59:
	call	strlen
.LVL60:
	.loc 1 85 11
	lw	a4,12(sp)
.LBE43:
.LBE48:
.LBE54:
.LBE60:
	.loc 1 216 29
	sub	s1,s1,s7
.LVL61:
	.loc 1 216 8
	addi	a1,s1,1
.LBB61:
.LBB55:
.LBB49:
.LBB44:
	.loc 1 85 11
	add	a0,a4,a0
.LVL62:
	.loc 1 86 4 is_stmt 1
	.loc 1 87 4
	.loc 1 87 48 is_stmt 0
	sub	s9,a0,s9
.LVL63:
	.loc 1 87 4
	addi	a2,sp,272
	sub	a1,a1,s9
	call	parse_dohome_protocol
.LVL64:
	j	.L26
.LVL65:
.L27:
.LBE44:
.LBE49:
	.loc 1 91 9 is_stmt 1
	.loc 1 91 13 is_stmt 0
	addi	a1,s10,%lo(.LC8)
	mv	a0,s9
	call	strstr
.LVL66:
	j	.L26
.LVL67:
.L22:
.LBE55:
.LBE61:
.LBE64:
.LBE66:
	.loc 1 222 5 is_stmt 1
	.loc 1 222 8 is_stmt 0
	beq	a0,zero,.L31
	.loc 1 226 5 is_stmt 1
	.loc 1 227 6
	.loc 1 227 22 is_stmt 0
	lui	a5,%hi(errno)
	lw	a5,%lo(errno)(a5)
	.loc 1 227 9
	li	a4,11
	beq	a5,a4,.L21
	.loc 1 227 37 discriminator 1
	li	a4,4
	beq	a5,a4,.L21
.L31:
.LBE68:
	.loc 1 235 4 is_stmt 1
	mv	a0,s0
.LVL68:
	call	lwip_close
.LVL69:
	.loc 1 236 4
	.loc 1 236 23 is_stmt 0
	sb	zero,0(s2)
	.loc 1 237 4 is_stmt 1
	j	.L20
.LBE69:
.LBE71:
	.cfi_endproc
.LFE8:
	.size	tcp_client_conn, .-tcp_client_conn
	.section	.text.doit_tcp_client_init,"ax",@progbits
	.align	1
	.globl	doit_tcp_client_init
	.type	doit_tcp_client_init, @function
doit_tcp_client_init:
.LFB9:
	.loc 1 252 1
	.cfi_startproc
	.loc 1 254 2
	.loc 1 255 2
	.loc 1 255 6 is_stmt 0
	lui	a5,%hi(.LANCHOR2)
	.loc 1 255 5
	lw	a4,%lo(.LANCHOR2)(a5)
	.loc 1 252 1
	addi	sp,sp,-16
	.cfi_def_cfa_offset 16
	sw	ra,12(sp)
	sw	s0,8(sp)
	.cfi_offset 1, -4
	.cfi_offset 8, -8
	.loc 1 255 5
	bne	a4,zero,.L44
	.loc 1 256 3 is_stmt 1
	.loc 1 256 7 is_stmt 0
	lui	a1,%hi(.LC9)
	lui	a0,%hi(tcp_client_conn)
	addi	a5,a5,%lo(.LANCHOR2)
	li	a4,2
	li	a3,0
	li	a2,1024
	addi	a1,a1,%lo(.LC9)
	addi	a0,a0,%lo(tcp_client_conn)
	call	xTaskCreate
.LVL70:
.L44:
	.loc 1 257 4 is_stmt 1
	.loc 1 262 2
	.loc 1 262 18 is_stmt 0
	lui	s0,%hi(.LANCHOR3)
	addi	s0,s0,%lo(.LANCHOR3)
	.loc 1 262 5
	lw	a5,0(s0)
	bne	a5,zero,.L43
	.loc 1 263 3 is_stmt 1
	.loc 1 263 17 is_stmt 0
	lui	a4,%hi(vTimerCallback)
	li	a1,61440
	lui	a0,%hi(.LC10)
	addi	a4,a4,%lo(vTimerCallback)
	li	a3,0
	li	a2,1
	addi	a1,a1,-1440
	addi	a0,a0,%lo(.LC10)
	call	xTimerCreate
.LVL71:
	.loc 1 263 15
	sw	a0,0(s0)
.L43:
	.loc 1 265 1
	lw	ra,12(sp)
	.cfi_restore 1
	lw	s0,8(sp)
	.cfi_restore 8
	addi	sp,sp,16
	.cfi_def_cfa_offset 0
	jr	ra
	.cfi_endproc
.LFE9:
	.size	doit_tcp_client_init, .-doit_tcp_client_init
	.globl	tcpc_task_handle
	.globl	b_start_keep_alive
	.section	.rodata.doit_tcp_client_init.str1.4,"aMS",@progbits,1
	.align	2
.LC9:
	.string	"tcp_client_conn"
.LC10:
	.string	"keepalive"
	.section	.rodata.tcp_client_conn.str1.4,"aMS",@progbits,1
	.align	2
.LC2:
	.string	"led_iot.doit.am"
.LC3:
	.string	"cmd=subscribe&device_id=%s&device_key=%s\r\n"
	.zero	1
.LC4:
	.string	"cmd=subscribe"
	.zero	2
.LC5:
	.string	"res="
	.zero	3
.LC6:
	.string	"cmd=publish"
.LC7:
	.string	"message="
	.zero	3
.LC8:
	.string	"cmd=keep"
	.section	.rodata.vTimerCallback.str1.4,"aMS",@progbits,1
	.align	2
.LC1:
	.string	"cmd=keep&device_id=%s&device_key=%s\r\n"
	.section	.sbss.b_start_keep_alive,"aw",@nobits
	.set	.LANCHOR0,. + 0
	.type	b_start_keep_alive, @object
	.size	b_start_keep_alive, 1
b_start_keep_alive:
	.zero	1
	.section	.sbss.g_client_fd,"aw",@nobits
	.align	2
	.set	.LANCHOR1,. + 0
	.type	g_client_fd, @object
	.size	g_client_fd, 4
g_client_fd:
	.zero	4
	.section	.sbss.tcpc_Handle,"aw",@nobits
	.align	2
	.set	.LANCHOR3,. + 0
	.type	tcpc_Handle, @object
	.size	tcpc_Handle, 4
tcpc_Handle:
	.zero	4
	.section	.sbss.tcpc_task_handle,"aw",@nobits
	.align	2
	.set	.LANCHOR2,. + 0
	.type	tcpc_task_handle, @object
	.size	tcpc_task_handle, 4
tcpc_task_handle:
	.zero	4
	.section	.srodata,"a"
	.align	2
.LC0:
	.byte	115
	.byte	28
	.byte	78
	.byte	23
	.text
.Letext0:
	.file 2 "/b-l/bl_iot_sdk/toolchain/riscv/Linux/lib/gcc/riscv64-unknown-elf/8.3.0/include/stddef.h"
	.file 3 "/b-l/bl_iot_sdk/toolchain/riscv/Linux/lib/gcc/riscv64-unknown-elf/8.3.0/include/stdint-gcc.h"
	.file 4 "/b-l/bl_iot_sdk/components/bl602/freertos_riscv_ram/portable/GCC/RISC-V/portmacro.h"
	.file 5 "/b-l/bl_iot_sdk/components/bl602/freertos_riscv_ram/config/task.h"
	.file 6 "/b-l/bl_iot_sdk/components/bl602/freertos_riscv_ram/config/timers.h"
	.file 7 "/b-l/bl_iot_sdk/components/network/lwip/lwip-port/arch/cc.h"
	.file 8 "/b-l/bl_iot_sdk/toolchain/riscv/Linux/riscv64-unknown-elf/include/machine/_default_types.h"
	.file 9 "/b-l/bl_iot_sdk/toolchain/riscv/Linux/riscv64-unknown-elf/include/sys/_types.h"
	.file 10 "/b-l/bl_iot_sdk/toolchain/riscv/Linux/riscv64-unknown-elf/include/sys/reent.h"
	.file 11 "/b-l/bl_iot_sdk/toolchain/riscv/Linux/riscv64-unknown-elf/include/sys/lock.h"
	.file 12 "/b-l/bl_iot_sdk/toolchain/riscv/Linux/riscv64-unknown-elf/include/sys/_timeval.h"
	.file 13 "/b-l/bl_iot_sdk/toolchain/riscv/Linux/riscv64-unknown-elf/include/sys/types.h"
	.file 14 "/b-l/bl_iot_sdk/toolchain/riscv/Linux/riscv64-unknown-elf/include/stdlib.h"
	.file 15 "/b-l/bl_iot_sdk/toolchain/riscv/Linux/riscv64-unknown-elf/include/ctype.h"
	.file 16 "/b-l/bl_iot_sdk/components/network/lwip/src/include/lwip/ip4_addr.h"
	.file 17 "/b-l/bl_iot_sdk/components/network/lwip/src/include/lwip/ip_addr.h"
	.file 18 "/b-l/bl_iot_sdk/components/network/lwip/src/include/lwip/err.h"
	.file 19 "/b-l/bl_iot_sdk/components/network/lwip/src/include/lwip/pbuf.h"
	.file 20 "/b-l/bl_iot_sdk/components/network/lwip/src/include/lwip/mem.h"
	.file 21 "/b-l/bl_iot_sdk/components/network/lwip/src/include/lwip/priv/memp_priv.h"
	.file 22 "/b-l/bl_iot_sdk/components/network/lwip/src/include/lwip/stats.h"
	.file 23 "/b-l/bl_iot_sdk/components/network/lwip/src/include/lwip/memp.h"
	.file 24 "/b-l/bl_iot_sdk/components/network/lwip/src/include/lwip/netif.h"
	.file 25 "/b-l/bl_iot_sdk/components/network/lwip/src/include/lwip/inet.h"
	.file 26 "/b-l/bl_iot_sdk/components/network/lwip/src/include/lwip/errno.h"
	.file 27 "/b-l/bl_iot_sdk/components/network/lwip/src/include/lwip/sockets.h"
	.file 28 "/b-l/bl_iot_sdk/components/network/lwip/src/include/lwip/netdb.h"
	.file 29 "/b-l/DoHome_Light_rgbcw/DoHome_Light_rgbcw/components/doit_server/include/doit_device_info.h"
	.file 30 "/b-l/bl_iot_sdk/toolchain/riscv/Linux/riscv64-unknown-elf/include/string.h"
	.file 31 "/b-l/DoHome_Light_rgbcw/DoHome_Light_rgbcw/components/doit_server/include/doit_dohome_protocol.h"
	.file 32 "/b-l/bl_iot_sdk/toolchain/riscv/Linux/riscv64-unknown-elf/include/stdio.h"
	.file 33 "/b-l/DoHome_Light_rgbcw/DoHome_Light_rgbcw/components/doit_server/include/doit_wifi.h"
	.file 34 "/b-l/bl_iot_sdk/components/network/lwip/src/include/lwip/def.h"