	.file	"bridgeif.c"
	.option nopic
	.attribute arch, "rv32i2p0_m2p0_f2p0_c2p0"
	.attribute unaligned_access, 0
	.attribute stack_align, 16
	.text
.Ltext0:
	.cfi_sections	.debug_frame
	.section	.text.bridgeif_send_to_ports,"ax",@progbits
	.align	1
	.type	bridgeif_send_to_ports, @function
bridgeif_send_to_ports:
.LFB10:
	.file 1 "/b-l/bl_iot_sdk_new/components/network/lwip/src/netif/bridgeif.c"
	.loc 1 275 1
	.cfi_startproc
.LVL0:
	.loc 1 276 3
	.loc 1 277 3
	.loc 1 278 3
	.loc 1 279 3
	.loc 1 280 3
	.loc 1 281 3
	.loc 1 275 1 is_stmt 0
	addi	sp,sp,-48
	.cfi_def_cfa_offset 48
	sw	s0,40(sp)
	sw	s1,36(sp)
	sw	s2,32(sp)
	sw	s3,28(sp)
	sw	s4,24(sp)
	sw	s5,20(sp)
	sw	s6,16(sp)
	sw	ra,44(sp)
	.cfi_offset 8, -8
	.cfi_offset 9, -12
	.cfi_offset 18, -16
	.cfi_offset 19, -20
	.cfi_offset 20, -24
	.cfi_offset 21, -28
	.cfi_offset 22, -32
	.cfi_offset 1, -4
	.loc 1 275 1
	mv	s3,a0
	mv	s4,a1
	li	s0,0
	.loc 1 278 23
	li	s1,1
	.loc 1 276 14
	li	s2,0
.LBB6:
.LBB7:
.LBB8:
	.loc 1 254 21
	li	s6,12
.LBE8:
.LBE7:
.LBE6:
	.loc 1 281 3
	li	s5,7
.LVL1:
.L3:
	.loc 1 282 5 is_stmt 1
	.loc 1 282 8 is_stmt 0
	and	a5,a2,s1
	beq	a5,zero,.L2
	.loc 1 283 7 is_stmt 1
.LVL2:
.LBB11:
.LBB10:
	.loc 1 251 3
	.loc 1 253 5
	.loc 1 253 8 is_stmt 0
	lbu	a4,10(s3)
	andi	a5,s0,0xff
	bleu	a4,a5,.L2
.LBB9:
	.loc 1 254 7 is_stmt 1
	.loc 1 254 21 is_stmt 0
	mul	a4,s0,s6
	lw	a5,12(s3)
	add	a5,a5,a4
	lw	a0,4(a5)
.LVL3:
	.loc 1 255 7 is_stmt 1
	.loc 1 255 10 is_stmt 0
	beq	a0,zero,.L2
	.loc 1 255 37
	lw	a4,24(a0)
	.loc 1 255 27
	beq	a4,zero,.L2
	.loc 1 257 9 is_stmt 1
	.loc 1 257 14 is_stmt 0
	lbu	a5,68(a0)
	.loc 1 257 12
	lbu	a3,15(s4)
	.loc 1 257 14
	addi	a5,a5,1
	.loc 1 257 12
	andi	a5,a5,0xff
	beq	a3,a5,.L2
	.loc 1 258 11 is_stmt 1
	.loc 1 258 15 is_stmt 0
	lbu	a5,65(a0)
	srli	a5,a5,2
	.loc 1 258 14
	andi	a5,a5,1
	beq	a5,zero,.L2
	.loc 1 260 20
	mv	a1,s4
	sw	a2,12(sp)
	.loc 1 259 13 is_stmt 1
	.loc 1 260 13
	.loc 1 260 20 is_stmt 0
	jalr	a4
.LVL4:
.LBE9:
.LBE10:
.LBE11:
	.loc 1 284 7 is_stmt 1
	.loc 1 284 10 is_stmt 0
	lw	a2,12(sp)
	beq	a0,zero,.L2
	mv	s2,a0
.LVL5:
.L2:
	.loc 1 281 32 discriminator 2
	slli	s1,s1,1
.LVL6:
	addi	s0,s0,1
.LVL7:
	andi	s1,s1,0xff
.LVL8:
	.loc 1 281 3 discriminator 2
	bne	s0,s5,.L3
	.loc 1 289 3 is_stmt 1
	.loc 1 290 3
	.loc 1 291 1 is_stmt 0
	lw	ra,44(sp)
	.cfi_restore 1
	lw	s0,40(sp)
	.cfi_restore 8
	mv	a0,s2
	lw	s1,36(sp)
	.cfi_restore 9
.LVL9:
	lw	s2,32(sp)
	.cfi_restore 18
.LVL10:
	lw	s3,28(sp)
	.cfi_restore 19
.LVL11:
	lw	s4,24(sp)
	.cfi_restore 20
.LVL12:
	lw	s5,20(sp)
	.cfi_restore 21
	lw	s6,16(sp)
	.cfi_restore 22
	addi	sp,sp,48
	.cfi_def_cfa_offset 0
	jr	ra
	.cfi_endproc
.LFE10:
	.size	bridgeif_send_to_ports, .-bridgeif_send_to_ports
	.section	.text.bridgeif_tcpip_input,"ax",@progbits
	.align	1
	.type	bridgeif_tcpip_input, @function
bridgeif_tcpip_input:
.LFB13:
	.loc 1 394 1 is_stmt 1
	.cfi_startproc
.LVL13:
	.loc 1 395 3
	.loc 1 395 10 is_stmt 0
	lui	a2,%hi(bridgeif_input)
	addi	a2,a2,%lo(bridgeif_input)
	tail	tcpip_inpkt
.LVL14:
	.cfi_endproc
.LFE13:
	.size	bridgeif_tcpip_input, .-bridgeif_tcpip_input
	.section	.text.bridgeif_find_dst_ports,"ax",@progbits
	.align	1
	.type	bridgeif_find_dst_ports, @function
bridgeif_find_dst_ports:
.LFB7:
	.loc 1 197 1 is_stmt 1
	.cfi_startproc
.LVL15:
	.loc 1 198 3
	.loc 1 199 3
	.loc 1 200 3
	.loc 1 202 3
	.loc 1 197 1 is_stmt 0
	addi	sp,sp,-32
	.cfi_def_cfa_offset 32
	sw	s0,24(sp)
	sw	s1,20(sp)
	sw	s2,16(sp)
	sw	ra,28(sp)
	sw	s3,12(sp)
	.cfi_offset 8, -8
	.cfi_offset 9, -12
	.cfi_offset 18, -16
	.cfi_offset 1, -4
	.cfi_offset 19, -20
	.loc 1 197 1
	mv	s0,a0
	mv	s2,a1
	.loc 1 202 10
	li	s1,0
.LVL16:
.L23:
	.loc 1 202 21 discriminator 1
	lhu	a5,16(s0)
	.loc 1 202 3 discriminator 1
	bgt	a5,s1,.L26
	.loc 1 211 3 is_stmt 1
	.loc 1 211 6 is_stmt 0
	lbu	a5,0(s2)
	andi	a5,a5,1
	bne	a5,zero,.L27
.LVL17:
.LBB16:
.LBB17:
	.loc 1 216 3 is_stmt 1
	.loc 1 218 3
	.loc 1 218 10 is_stmt 0
	lw	a0,28(s0)
.LBE17:
.LBE16:
	.loc 1 219 1
	lw	s0,24(sp)
	.cfi_remember_state
	.cfi_restore 8
.LVL18:
	lw	ra,28(sp)
	.cfi_restore 1
	lw	s1,20(sp)
	.cfi_restore 9
.LVL19:
	lw	s3,12(sp)
	.cfi_restore 19
.LBB20:
.LBB18:
	.loc 1 218 10
	mv	a1,s2
.LBE18:
.LBE20:
	.loc 1 219 1
	lw	s2,16(sp)
	.cfi_restore 18
.LVL20:
	addi	sp,sp,32
	.cfi_def_cfa_offset 0
.LBB21:
.LBB19:
	.loc 1 218 10
	tail	bridgeif_fdb_get_dst_ports
.LVL21:
.L26:
	.cfi_restore_state
.LBE19:
.LBE21:
	.loc 1 203 5 is_stmt 1
	.loc 1 203 17 is_stmt 0
	lw	a0,20(s0)
	slli	s3,s1,3
	add	a0,a0,s3
	.loc 1 203 8
	lbu	a5,0(a0)
	beq	a5,zero,.L24
	.loc 1 204 7 is_stmt 1
	.loc 1 204 12 is_stmt 0
	li	a2,6
	mv	a1,s2
	addi	a0,a0,2
	call	memcmp
.LVL22:
	.loc 1 204 10
	bne	a0,zero,.L24
.LBB22:
	.loc 1 205 9 is_stmt 1
	.loc 1 205 29 is_stmt 0
	lw	a5,20(s0)
	add	a5,a5,s3
	lbu	a0,1(a5)
.LVL23:
	.loc 1 206 9 is_stmt 1
	.loc 1 207 9
.L25:
.LBE22:
	.loc 1 219 1 is_stmt 0
	lw	ra,28(sp)
	.cfi_remember_state
	.cfi_restore 1
	lw	s0,24(sp)
	.cfi_restore 8
.LVL24:
	lw	s1,20(sp)
	.cfi_restore 9
.LVL25:
	lw	s2,16(sp)
	.cfi_restore 18
.LVL26:
	lw	s3,12(sp)
	.cfi_restore 19
	addi	sp,sp,32
	.cfi_def_cfa_offset 0
	jr	ra
.LVL27:
.L24:
	.cfi_restore_state
	.loc 1 202 42
	addi	s1,s1,1
.LVL28:
	j	.L23
.L27:
	.loc 1 214 12
	li	a0,255
	j	.L25
	.cfi_endproc
.LFE7:
	.size	bridgeif_find_dst_ports, .-bridgeif_find_dst_ports
	.section	.text.bridgeif_output,"ax",@progbits
	.align	1
	.type	bridgeif_output, @function
bridgeif_output:
.LFB11:
	.loc 1 299 1 is_stmt 1
	.cfi_startproc
.LVL29:
	.loc 1 300 3
	.loc 1 301 3
	.loc 1 299 1 is_stmt 0
	addi	sp,sp,-16
	.cfi_def_cfa_offset 16
	sw	ra,12(sp)
	sw	s1,4(sp)
	sw	s0,8(sp)
	.cfi_offset 1, -4
	.cfi_offset 9, -12
	.cfi_offset 8, -8
	.loc 1 301 23
	lw	s0,36(a0)
.LVL30:
	.loc 1 302 3 is_stmt 1
	.loc 1 304 3
	.loc 1 299 1 is_stmt 0
	mv	s1,a1
	.loc 1 304 34
	lw	a1,4(a1)
.LVL31:
	mv	a0,s0
.LVL32:
	call	bridgeif_find_dst_ports
.LVL33:
	.loc 1 305 3 is_stmt 1
	.loc 1 305 9 is_stmt 0
	mv	a2,a0
	mv	a1,s1
	mv	a0,s0
.LVL34:
	call	bridgeif_send_to_ports
.LVL35:
	.loc 1 307 3 is_stmt 1
	.loc 1 308 3
	.loc 1 313 5
	.loc 1 317 3
	lui	a5,%hi(lwip_stats)
	addi	a5,a5,%lo(lwip_stats)
	lhu	a4,0(a5)
	addi	a4,a4,1
	sh	a4,0(a5)
	.loc 1 319 3
	.loc 1 320 1 is_stmt 0
	lw	ra,12(sp)
	.cfi_restore 1
	lw	s0,8(sp)
	.cfi_restore 8
.LVL36:
	lw	s1,4(sp)
	.cfi_restore 9
.LVL37:
	addi	sp,sp,16
	.cfi_def_cfa_offset 0
	jr	ra
	.cfi_endproc
.LFE11:
	.size	bridgeif_output, .-bridgeif_output
	.section	.text.bridgeif_input,"ax",@progbits
	.align	1
	.type	bridgeif_input, @function
bridgeif_input:
.LFB12:
	.loc 1 327 1 is_stmt 1
	.cfi_startproc
.LVL38:
	.loc 1 328 3
	.loc 1 329 3
	.loc 1 330 3
	.loc 1 331 3
	.loc 1 332 3
	.loc 1 333 3
	.loc 1 333 6 is_stmt 0
	beq	a0,zero,.L47
	.loc 1 333 16 discriminator 1
	beq	a1,zero,.L47
	.loc 1 336 3 is_stmt 1
	.loc 1 336 49 is_stmt 0
	lui	a5,%hi(.LANCHOR0)
	lbu	a5,%lo(.LANCHOR0)(a5)
	.loc 1 336 8
	addi	a5,a5,8
	slli	a5,a5,2
	add	a5,a1,a5
	lw	a5,8(a5)
.LVL39:
	.loc 1 337 3 is_stmt 1
	.loc 1 337 8
	.loc 1 337 7
	.loc 1 338 3
	.loc 1 338 6 is_stmt 0
	beq	a5,zero,.L47
	.loc 1 327 1 discriminator 1
	addi	sp,sp,-32
	.cfi_def_cfa_offset 32
	sw	ra,28(sp)
	sw	s0,24(sp)
	sw	s1,20(sp)
	sw	s2,16(sp)
	sw	s3,12(sp)
	sw	s4,8(sp)
	.cfi_offset 1, -4
	.cfi_offset 8, -8
	.cfi_offset 9, -12
	.cfi_offset 18, -16
	.cfi_offset 19, -20
	.cfi_offset 20, -24
	.loc 1 338 26 discriminator 1
	lw	s1,0(a5)
	.loc 1 338 19 discriminator 1
	beq	s1,zero,.L48
	.loc 1 342 10
	lbu	a4,68(a1)
	.loc 1 346 7
	lw	s2,4(a0)
	mv	s0,a0
	.loc 1 341 3 is_stmt 1
.LVL40:
	.loc 1 342 3
	.loc 1 344 3
	.loc 1 342 10 is_stmt 0
	addi	a4,a4,1
	.loc 1 344 13
	sb	a4,15(a0)
.LVL41:
	.loc 1 346 3 is_stmt 1
	.loc 1 347 3
	.loc 1 349 3
	.loc 1 349 6 is_stmt 0
	lbu	a4,6(s2)
.LVL42:
	andi	a4,a4,1
	bne	a4,zero,.L36
	.loc 1 351 5 is_stmt 1
	lbu	a2,8(a5)
	lw	a0,28(s1)
.LVL43:
	addi	a1,s2,6
.LVL44:
	call	bridgeif_fdb_update_src
.LVL45:
.L36:
	.loc 1 354 3
	.loc 1 354 6 is_stmt 0
	lbu	a5,0(s2)
	andi	a5,a5,1
	beq	a5,zero,.L37
	.loc 1 356 5 is_stmt 1
	.loc 1 356 16 is_stmt 0
	mv	a1,s2
	mv	a0,s1
	call	bridgeif_find_dst_ports
.LVL46:
	mv	s2,a0
.LVL47:
	.loc 1 357 5 is_stmt 1
	.loc 1 358 8 is_stmt 0
	slli	s2,s2,24
	.loc 1 357 5
	mv	a2,a0
	mv	a1,s0
	mv	a0,s1
.LVL48:
	.loc 1 358 8
	srai	s2,s2,24
	.loc 1 357 5
	call	bridgeif_send_to_ports
.LVL49:
	.loc 1 358 5 is_stmt 1
	.loc 1 358 8 is_stmt 0
	bge	s2,zero,.L64
	.loc 1 360 7 is_stmt 1
	.loc 1 361 7
	.loc 1 361 13 is_stmt 0
	lw	a1,0(s1)
	.loc 1 361 11
	mv	a0,s0
	lw	a5,16(a1)
	jalr	a5
.LVL50:
	.loc 1 361 10
	beq	a0,zero,.L49
.L64:
	.loc 1 383 5 is_stmt 1
	mv	a0,s0
	call	pbuf_free
.LVL51:
	.loc 1 385 5
	.loc 1 385 12 is_stmt 0
	li	a0,0
	j	.L49
.LVL52:
.L37:
	.loc 1 372 5 is_stmt 1
.LBB26:
.LBB27:
	.loc 1 228 3
	.loc 1 229 3
	.loc 1 230 3
	.loc 1 230 24 is_stmt 0
	lw	a0,0(s1)
	.loc 1 230 8
	li	a2,6
	mv	a1,s2
	addi	a0,a0,58
	call	memcmp
.LVL53:
	.loc 1 230 6
	beq	a0,zero,.L39
	.loc 1 234 10
	li	s3,0
.LBB28:
	.loc 1 235 19
	li	s4,12
.L40:
.LVL54:
.LBE28:
	.loc 1 234 21
	lbu	a5,11(s1)
	.loc 1 234 3
	blt	s3,a5,.L43
.LVL55:
.LBE27:
.LBE26:
	.loc 1 379 5 is_stmt 1
	.loc 1 379 16 is_stmt 0
	mv	a1,s2
	mv	a0,s1
	call	bridgeif_find_dst_ports
.LVL56:
	.loc 1 380 5 is_stmt 1
	mv	a2,a0
	mv	a1,s0
	mv	a0,s1
.LVL57:
	call	bridgeif_send_to_ports
.LVL58:
	j	.L64
.LVL59:
.L43:
.LBB32:
.LBB31:
.LBB29:
	.loc 1 235 5
	.loc 1 235 19 is_stmt 0
	mul	a4,s3,s4
	lw	a5,12(s1)
	add	a5,a5,a4
	lw	a0,4(a5)
.LVL60:
	.loc 1 236 5 is_stmt 1
	.loc 1 236 8 is_stmt 0
	bne	a0,zero,.L41
.LVL61:
.L42:
.LBE29:
	.loc 1 234 35
	addi	s3,s3,1
.LVL62:
	j	.L40
.LVL63:
.L41:
.LBB30:
	.loc 1 237 7 is_stmt 1
	.loc 1 237 12 is_stmt 0
	li	a2,6
	mv	a1,s2
	addi	a0,a0,58
.LVL64:
	call	memcmp
.LVL65:
	.loc 1 237 10
	bne	a0,zero,.L42
.LVL66:
.L39:
.LBE30:
.LBE31:
.LBE32:
	.loc 1 374 7 is_stmt 1
	.loc 1 375 7
	.loc 1 375 16 is_stmt 0
	lw	a1,0(s1)
	.loc 1 375 14
	mv	a0,s0
	.loc 1 387 1
	lw	s0,24(sp)
	.cfi_restore 8
.LVL67:
	lw	ra,28(sp)
	.cfi_restore 1
	lw	s1,20(sp)
	.cfi_restore 9
.LVL68:
	lw	s2,16(sp)
	.cfi_restore 18
.LVL69:
	lw	s3,12(sp)
	.cfi_restore 19
	lw	s4,8(sp)
	.cfi_restore 20
	.loc 1 375 14
	lw	t1,16(a1)
	.loc 1 387 1
	addi	sp,sp,32
	.cfi_def_cfa_offset 0
	.loc 1 375 14
	jr	t1
.LVL70:
.L47:
	.loc 1 334 12
	li	a0,-6
.LVL71:
	.loc 1 387 1
	ret
.LVL72:
.L48:
	.cfi_def_cfa_offset 32
	.cfi_offset 1, -4
	.cfi_offset 8, -8
	.cfi_offset 9, -12
	.cfi_offset 18, -16
	.cfi_offset 19, -20
	.cfi_offset 20, -24
	.loc 1 334 12
	li	a0,-6
.LVL73:
.L49:
	.loc 1 387 1
	lw	ra,28(sp)
	.cfi_restore 1
	lw	s0,24(sp)
	.cfi_restore 8
	lw	s1,20(sp)
	.cfi_restore 9
	lw	s2,16(sp)
	.cfi_restore 18
	lw	s3,12(sp)
	.cfi_restore 19
	lw	s4,8(sp)
	.cfi_restore 20
	addi	sp,sp,32
	.cfi_def_cfa_offset 0
	jr	ra
	.cfi_endproc
.LFE12:
	.size	bridgeif_input, .-bridgeif_input
	.section	.text.bridgeif_fdb_add,"ax",@progbits
	.align	1
	.globl	bridgeif_fdb_add
	.type	bridgeif_fdb_add, @function
bridgeif_fdb_add:
.LFB5:
	.loc 1 136 1 is_stmt 1
	.cfi_startproc
.LVL74:
	.loc 1 137 3
	.loc 1 138 3
	.loc 1 139 3
	.loc 1 140 3
	.loc 1 140 8
	.loc 1 140 7
	.loc 1 141 3
	.loc 1 141 6 is_stmt 0
	lw	a4,36(a0)
.LVL75:
	.loc 1 142 3 is_stmt 1
	.loc 1 142 8
	.loc 1 142 7
	.loc 1 144 3
	.loc 1 145 3
	.loc 1 145 10 is_stmt 0
	li	a5,0
	.loc 1 145 21
	lhu	a0,16(a4)
.LVL76:
.L66:
	.loc 1 145 3 discriminator 1
	bgt	a0,a5,.L69
	.loc 1 160 10
	li	a0,-1
	.loc 1 161 1
	ret
.L69:
	.loc 1 146 5 is_stmt 1
	.loc 1 146 18 is_stmt 0
	lw	a3,20(a4)
	slli	a6,a5,3
	add	a3,a3,a6
	.loc 1 146 8
	lbu	a7,0(a3)
	bne	a7,zero,.L67
	.loc 1 147 7 is_stmt 1
	.loc 1 148 7
	.loc 1 149 9
	.loc 1 136 1 is_stmt 0
	addi	sp,sp,-16
	.cfi_def_cfa_offset 16
	sw	ra,12(sp)
	.cfi_offset 1, -4
	.loc 1 149 26
	li	a5,1
.LVL77:
	sb	a5,0(a3)
	.loc 1 150 9 is_stmt 1
	.loc 1 150 31 is_stmt 0
	lw	a5,20(a4)
	add	a5,a5,a6
	sb	a2,1(a5)
	.loc 1 151 9 is_stmt 1
	.loc 1 151 25 is_stmt 0
	lw	a0,20(a4)
	.loc 1 151 9
	li	a2,6
.LVL78:
	.loc 1 151 25
	add	a0,a0,a6
	.loc 1 151 9
	addi	a0,a0,2
	call	memcpy
.LVL79:
	.loc 1 152 9 is_stmt 1
	.loc 1 153 9
	.loc 1 154 9
	.loc 1 161 1 is_stmt 0
	lw	ra,12(sp)
	.cfi_restore 1
	.loc 1 154 16
	li	a0,0
	.loc 1 161 1
	addi	sp,sp,16
	.cfi_def_cfa_offset 0
	jr	ra
.LVL80:
.L67:
	.loc 1 156 7 is_stmt 1 discriminator 2
	.loc 1 145 42 is_stmt 0 discriminator 2
	addi	a5,a5,1
.LVL81:
	j	.L66
	.cfi_endproc
.LFE5:
	.size	bridgeif_fdb_add, .-bridgeif_fdb_add
	.section	.text.bridgeif_fdb_remove,"ax",@progbits
	.align	1
	.globl	bridgeif_fdb_remove
	.type	bridgeif_fdb_remove, @function
bridgeif_fdb_remove:
.LFB6:
	.loc 1 169 1 is_stmt 1
	.cfi_startproc
.LVL82:
	.loc 1 170 3
	.loc 1 171 3
	.loc 1 172 3
	.loc 1 173 3
	.loc 1 173 8
	.loc 1 173 7
	.loc 1 174 3
	.loc 1 169 1 is_stmt 0
	addi	sp,sp,-32
	.cfi_def_cfa_offset 32
	sw	s0,24(sp)
	sw	s3,12(sp)
	sw	ra,28(sp)
	sw	s1,20(sp)
	sw	s2,16(sp)
	.cfi_offset 8, -8
	.cfi_offset 19, -20
	.cfi_offset 1, -4
	.cfi_offset 9, -12
	.cfi_offset 18, -16
	.loc 1 174 6
	lw	s1,36(a0)
.LVL83:
	.loc 1 175 3 is_stmt 1
	.loc 1 175 8
	.loc 1 175 7
	.loc 1 177 3
	.loc 1 178 3
	.loc 1 169 1 is_stmt 0
	mv	s3,a1
	.loc 1 178 10
	li	s0,0
.LVL84:
.L75:
	.loc 1 178 21 discriminator 1
	lhu	a5,16(s1)
	.loc 1 178 3 discriminator 1
	bgt	a5,s0,.L78
	.loc 1 191 10
	li	a0,-6
	j	.L77
.L78:
	.loc 1 179 5 is_stmt 1
	.loc 1 179 17 is_stmt 0
	lw	a0,20(s1)
	slli	s2,s0,3
	add	a0,a0,s2
	.loc 1 179 8
	lbu	a5,0(a0)
	beq	a5,zero,.L76
	.loc 1 179 30 discriminator 1
	li	a2,6
	mv	a1,s3
	addi	a0,a0,2
	call	memcmp
.LVL85:
	.loc 1 179 26 discriminator 1
	bne	a0,zero,.L76
	.loc 1 180 7 is_stmt 1
	.loc 1 181 7
	.loc 1 181 19 is_stmt 0
	lw	a0,20(s1)
	add	a0,a0,s2
	.loc 1 181 10
	lbu	a5,0(a0)
	beq	a5,zero,.L76
	.loc 1 181 32 discriminator 1
	li	a2,6
	mv	a1,s3
	addi	a0,a0,2
	call	memcmp
.LVL86:
	.loc 1 181 28 discriminator 1
	bne	a0,zero,.L76
	.loc 1 182 9 is_stmt 1
	.loc 1 182 16 is_stmt 0
	lw	a0,20(s1)
	.loc 1 182 9
	li	a2,8
	li	a1,0
	add	a0,a0,s2
	call	memset
.LVL87:
	.loc 1 183 9 is_stmt 1
	.loc 1 184 9
	.loc 1 185 9
	.loc 1 185 16 is_stmt 0
	li	a0,0
.L77:
	.loc 1 192 1
	lw	ra,28(sp)
	.cfi_remember_state
	.cfi_restore 1
	lw	s0,24(sp)
	.cfi_restore 8
.LVL88:
	lw	s1,20(sp)
	.cfi_restore 9
.LVL89:
	lw	s2,16(sp)
	.cfi_restore 18
	lw	s3,12(sp)
	.cfi_restore 19
.LVL90:
	addi	sp,sp,32
	.cfi_def_cfa_offset 0
	jr	ra
.LVL91:
.L76:
	.cfi_restore_state
	.loc 1 187 7 is_stmt 1
	.loc 1 178 42 is_stmt 0
	addi	s0,s0,1
.LVL92:
	j	.L75
	.cfi_endproc
.LFE6:
	.size	bridgeif_fdb_remove, .-bridgeif_fdb_remove
	.section	.text.bridgeif_init,"ax",@progbits
	.align	1
	.globl	bridgeif_init
	.type	bridgeif_init, @function
bridgeif_init:
.LFB14:
	.loc 1 414 1 is_stmt 1
	.cfi_startproc
.LVL93:
	.loc 1 415 3
	.loc 1 416 3
	.loc 1 417 3
	.loc 1 418 3
	.loc 1 420 3
	.loc 1 420 8
	.loc 1 420 8
	.loc 1 421 3
	.loc 1 421 8
	.loc 1 421 8
	.loc 1 423 3
	.loc 1 424 5
	.loc 1 428 3
	.loc 1 414 1 is_stmt 0
	addi	sp,sp,-32
	.cfi_def_cfa_offset 32
	sw	s0,24(sp)
	.cfi_offset 8, -8
	.loc 1 428 32
	lui	s0,%hi(.LANCHOR0)
	.loc 1 414 1
	sw	s1,20(sp)
	sw	ra,28(sp)
	sw	s2,16(sp)
	sw	s3,12(sp)
	sw	s4,8(sp)
	.cfi_offset 9, -12
	.cfi_offset 1, -4
	.cfi_offset 18, -16
	.cfi_offset 19, -20
	.cfi_offset 20, -24
	.loc 1 428 32
	addi	s0,s0,%lo(.LANCHOR0)
	.loc 1 428 6
	lbu	a4,0(s0)
	li	a5,255
	.loc 1 414 1
	mv	s1,a0
	.loc 1 428 6
	bne	a4,a5,.L87
	.loc 1 429 5 is_stmt 1
	.loc 1 429 32 is_stmt 0
	call	netif_alloc_client_data_id
.LVL94:
	.loc 1 429 30
	sb	a0,0(s0)
.L87:
	.loc 1 432 3 is_stmt 1
	.loc 1 432 13 is_stmt 0
	lw	s2,36(s1)
.LVL95:
	.loc 1 433 3 is_stmt 1
	.loc 1 433 8
	.loc 1 433 8
	.loc 1 434 3
	.loc 1 434 8
	.loc 1 434 44
	.loc 1 437 3
	.loc 1 438 3
	.loc 1 439 3
	.loc 1 439 8
	.loc 1 439 47
	.loc 1 440 3
	.loc 1 441 3
	.loc 1 437 72 is_stmt 0
	li	s3,12
	.loc 1 441 30
	li	a0,1
	.loc 1 437 60
	lbu	a1,6(s2)
.LVL96:
	.loc 1 437 110
	lhu	a5,10(s2)
.LVL97:
	.loc 1 437 72
	mul	a1,a1,s3
.LVL98:
	.loc 1 437 135
	slli	a5,a5,3
.LVL99:
	.loc 1 437 98
	add	a1,a1,a5
	.loc 1 437 19
	addi	a1,a1,32
	.loc 1 441 30
	slli	a1,a1,16
	srli	a1,a1,16
	call	mem_calloc
.LVL100:
	mv	s0,a0
.LVL101:
	.loc 1 442 3 is_stmt 1
	.loc 1 444 12 is_stmt 0
	li	a0,-1
	.loc 1 442 6
	beq	s0,zero,.L88
	.loc 1 446 3 is_stmt 1
	.loc 1 446 10 is_stmt 0
	addi	s4,s0,4
	.loc 1 446 3
	li	a2,6
	mv	a1,s2
	mv	a0,s4
	call	memcpy
.LVL102:
	.loc 1 447 3 is_stmt 1
	.loc 1 447 13 is_stmt 0
	sw	s1,0(s0)
	.loc 1 449 3 is_stmt 1
	.loc 1 449 28 is_stmt 0
	lbu	a5,6(s2)
	.loc 1 449 17
	sb	a5,10(s0)
	.loc 1 450 3 is_stmt 1
	.loc 1 450 38 is_stmt 0
	addi	a5,s0,32
	.loc 1 450 13
	sw	a5,12(s0)
	.loc 1 452 3 is_stmt 1
	.loc 1 452 35 is_stmt 0
	lhu	a5,10(s2)
	.loc 1 452 24
	sh	a5,16(s0)
	.loc 1 453 3 is_stmt 1
	.loc 1 453 77 is_stmt 0
	lbu	a5,6(s2)
	.loc 1 453 89
	mul	a5,a5,s3
	.loc 1 453 14
	addi	a5,a5,32
	add	a5,s0,a5
	.loc 1 453 12
	sw	a5,20(s0)
	.loc 1 455 3 is_stmt 1
	.loc 1 455 35 is_stmt 0
	lhu	a0,8(s2)
	.loc 1 455 24
	sh	a0,24(s0)
	.loc 1 456 3 is_stmt 1
	.loc 1 456 14 is_stmt 0
	call	bridgeif_fdb_init
.LVL103:
	.loc 1 456 12
	sw	a0,28(s0)
	.loc 1 457 3 is_stmt 1
	.loc 1 457 6 is_stmt 0
	bne	a0,zero,.L89
	.loc 1 458 5 is_stmt 1
	.loc 1 459 5
	mv	a0,s0
	call	mem_free
.LVL104:
	.loc 1 460 5
	.loc 1 460 12 is_stmt 0
	li	a0,-1
.L88:
	.loc 1 517 1
	lw	ra,28(sp)
	.cfi_remember_state
	.cfi_restore 1
	lw	s0,24(sp)
	.cfi_restore 8
.LVL105:
	lw	s1,20(sp)
	.cfi_restore 9
.LVL106:
	lw	s2,16(sp)
	.cfi_restore 18
.LVL107:
	lw	s3,12(sp)
	.cfi_restore 19
	lw	s4,8(sp)
	.cfi_restore 20
	addi	sp,sp,32
	.cfi_def_cfa_offset 0
	jr	ra
.LVL108:
.L89:
	.cfi_restore_state
	.loc 1 465 3 is_stmt 1
	.loc 1 465 19 is_stmt 0
	lui	a5,%hi(.LC0)
	addi	a5,a5,%lo(.LC0)
	sw	a5,52(s1)
	.loc 1 473 3 is_stmt 1
	.loc 1 475 3
	.loc 1 476 18 is_stmt 0
	li	a5,28672
	addi	a5,a5,610
	sh	a5,66(s1)
	.loc 1 483 17
	lui	a5,%hi(etharp_output)
	addi	a5,a5,%lo(etharp_output)
	sw	a5,20(s1)
	.loc 1 488 21
	lui	a5,%hi(bridgeif_output)
	addi	a5,a5,%lo(bridgeif_output)
	sw	a5,24(s1)
	.loc 1 491 21
	li	a5,6
	sb	a5,64(s1)
	.loc 1 475 16
	sw	s0,36(s1)
	.loc 1 476 3 is_stmt 1
	.loc 1 477 3
	.loc 1 483 3
	.loc 1 488 3
	.loc 1 491 3
	.loc 1 494 3
	li	a2,6
	mv	a1,s4
	addi	a0,s1,58
	call	memcpy
.LVL109:
	.loc 1 497 3
	.loc 1 497 14 is_stmt 0
	li	a5,1500
	sh	a5,56(s1)
	.loc 1 501 3 is_stmt 1
	.loc 1 501 16 is_stmt 0
	li	a5,126
	sb	a5,65(s1)
	.loc 1 516 3 is_stmt 1
	.loc 1 516 10 is_stmt 0
	li	a0,0
	j	.L88
	.cfi_endproc
.LFE14:
	.size	bridgeif_init, .-bridgeif_init
	.section	.text.bridgeif_add_port,"ax",@progbits
	.align	1
	.globl	bridgeif_add_port
	.type	bridgeif_add_port, @function
bridgeif_add_port:
.LFB15:
	.loc 1 525 1 is_stmt 1
	.cfi_startproc
.LVL110:
	.loc 1 526 3
	.loc 1 527 3
	.loc 1 529 3
	.loc 1 529 8
	.loc 1 529 7
	.loc 1 530 3
	.loc 1 530 8
	.loc 1 533 6 is_stmt 0
	lbu	a4,65(a1)
	li	a3,24
	.loc 1 530 22
	lw	a5,36(a0)
	.loc 1 530 7 is_stmt 1
	.loc 1 531 3
	.loc 1 531 8
	.loc 1 531 7
	.loc 1 533 3
	.loc 1 533 6 is_stmt 0
	andi	a4,a4,24
	bne	a4,a3,.L94
	.loc 1 538 3 is_stmt 1
.LVL111:
	.loc 1 540 3
	.loc 1 540 9 is_stmt 0
	lbu	a4,11(a5)
	.loc 1 540 6
	lbu	a3,10(a5)
	.loc 1 535 12
	li	a0,-6
.LVL112:
	.loc 1 540 6
	bleu	a3,a4,.L93
	.loc 1 543 3 is_stmt 1
	.loc 1 543 20 is_stmt 0
	li	a3,12
	mul	a3,a4,a3
	.loc 1 543 8
	lw	a4,12(a5)
	.loc 1 560 10
	li	a0,0
	.loc 1 543 8
	add	a4,a4,a3
.LVL113:
	.loc 1 544 3 is_stmt 1
	.loc 1 544 20 is_stmt 0
	sw	a1,4(a4)
	.loc 1 545 3 is_stmt 1
	.loc 1 545 22 is_stmt 0
	lbu	a3,11(a5)
	.loc 1 546 16
	sw	a5,0(a4)
	.loc 1 545 18
	sb	a3,8(a4)
	.loc 1 546 3 is_stmt 1
	.loc 1 547 3
	.loc 1 547 16 is_stmt 0
	lbu	a3,11(a5)
	addi	a3,a3,1
	sb	a3,11(a5)
	.loc 1 553 3 is_stmt 1
	.loc 1 553 17 is_stmt 0
	lui	a5,%hi(bridgeif_tcpip_input)
.LVL114:
	addi	a5,a5,%lo(bridgeif_tcpip_input)
	sw	a5,16(a1)
	.loc 1 556 3 is_stmt 1
	.loc 1 556 24 is_stmt 0
	lui	a5,%hi(.LANCHOR0)
	lbu	a5,%lo(.LANCHOR0)(a5)
	.loc 1 556 53
	addi	a5,a5,8
	slli	a5,a5,2
	add	a5,a1,a5
	sw	a4,8(a5)
	.loc 1 558 3 is_stmt 1
	.loc 1 558 8
	.loc 1 558 26 is_stmt 0
	lbu	a5,65(a1)
	andi	a5,a5,-9
	.loc 1 558 24
	sb	a5,65(a1)
	.loc 1 560 3 is_stmt 1
	.loc 1 560 10 is_stmt 0
	ret
.LVL115:
.L94:
	.loc 1 535 12
	li	a0,-6
.LVL116:
.L93:
	.loc 1 561 1
	ret
	.cfi_endproc
.LFE15:
	.size	bridgeif_add_port, .-bridgeif_add_port
	.globl	bridgeif_netif_client_id
	.section	.rodata.bridgeif_init.str1.4,"aMS",@progbits,1
	.align	2
.LC0:
	.string	"lwip"
	.section	.sdata.bridgeif_netif_client_id,"aw"
	.set	.LANCHOR0,. + 0
	.type	bridgeif_netif_client_id, @object
	.size	bridgeif_netif_client_id, 1
bridgeif_netif_client_id:
	.byte	-1
	.text
.Letext0:
	.file 2 "/b-l/bl_iot_sdk_new/toolchain/riscv/Linux/riscv64-unknown-elf/include/machine/_default_types.h"
	.file 3 "/b-l/bl_iot_sdk_new/toolchain/riscv/Linux/lib/gcc/riscv64-unknown-elf/8.3.0/include/stddef.h"
	.file 4 "/b-l/bl_iot_sdk_new/toolchain/riscv/Linux/riscv64-unknown-elf/include/sys/_types.h"
	.file 5 "/b-l/bl_iot_sdk_new/toolchain/riscv/Linux/riscv64-unknown-elf/include/sys/reent.h"
	.file 6 "/b-l/bl_iot_sdk_new/toolchain/riscv/Linux/riscv64-unknown-elf/include/sys/lock.h"
	.file 7 "/b-l/bl_iot_sdk_new/toolchain/riscv/Linux/riscv64-unknown-elf/include/sys/_stdint.h"
	.file 8 "/b-l/bl_iot_sdk_new/toolchain/riscv/Linux/riscv64-unknown-elf/include/stdlib.h"
	.file 9 "/b-l/bl_iot_sdk_new/components/network/lwip/src/include/lwip/arch.h"
	.file 10 "/b-l/bl_iot_sdk_new/toolchain/riscv/Linux/riscv64-unknown-elf/include/ctype.h"
	.file 11 "/b-l/bl_iot_sdk_new/components/network/lwip/src/include/lwip/err.h"
	.file 12 "/b-l/bl_iot_sdk_new/components/network/lwip/src/include/lwip/prot/ethernet.h"
	.file 13 "/b-l/bl_iot_sdk_new/components/network/lwip/src/include/netif/bridgeif.h"
	.file 14 "/b-l/bl_iot_sdk_new/components/bl602/freertos_riscv_ram/portable/GCC/RISC-V/portmacro.h"
	.file 15 "/b-l/bl_iot_sdk_new/components/network/lwip/src/include/lwip/timeouts.h"
	.file 16 "/b-l/bl_iot_sdk_new/components/network/lwip/src/include/lwip/ip4_addr.h"
	.file 17 "/b-l/bl_iot_sdk_new/components/network/lwip/src/include/lwip/ip_addr.h"
	.file 18 "/b-l/bl_iot_sdk_new/components/network/lwip/src/include/lwip/pbuf.h"
	.file 19 "/b-l/bl_iot_sdk_new/components/network/lwip/src/include/lwip/mem.h"
	.file 20 "/b-l/bl_iot_sdk_new/components/network/lwip/src/include/lwip/memp.h"
	.file 21 "/b-l/bl_iot_sdk_new/components/network/lwip/src/include/lwip/priv/memp_priv.h"
	.file 22 "/b-l/bl_iot_sdk_new/components/network/lwip/src/include/lwip/stats.h"
	.file 23 "/b-l/bl_iot_sdk_new/components/network/lwip/src/include/lwip/netif.h"
	.file 24 "/b-l/bl_iot_sdk_new/toolchain/riscv/Linux/riscv64-unknown-elf/include/string.h"
	.file 25 "/b-l/bl_iot_sdk_new/components/network/lwip/src/include/lwip/tcpip.h"