	.file	"do_ble.c"
	.option nopic
	.attribute arch, "rv32i2p0_m2p0_f2p0_c2p0"
	.attribute unaligned_access, 0
	.attribute stack_align, 16
	.text
.Ltext0:
	.cfi_sections	.debug_frame
	.section	.text.recv_cb,"ax",@progbits
	.align	1
	.globl	recv_cb
	.type	recv_cb, @function
recv_cb:
.LFB76:
	.file 1 "/b-l/dolphin/components/do_ble/do_ble.c"
	.loc 1 134 1
	.cfi_startproc
.LVL0:
	.loc 1 138 5
	.loc 1 138 27 is_stmt 0
	lui	a5,%hi(.LANCHOR0)
.LVL1:
	lw	a5,%lo(.LANCHOR0)(a5)
	.loc 1 138 7
	beq	a5,zero,.L7
	.loc 1 134 1
	addi	sp,sp,-32
	.cfi_def_cfa_offset 32
	sw	ra,28(sp)
	.cfi_offset 1, -4
	mv	a1,a2
.LVL2:
	.loc 1 139 9 is_stmt 1
	mv	a2,a3
.LVL3:
	sw	a3,12(sp)
	jalr	a5
.LVL4:
	lw	a3,12(sp)
	.loc 1 142 5
	.loc 1 143 1 is_stmt 0
	lw	ra,28(sp)
	.cfi_restore 1
	mv	a0,a3
	addi	sp,sp,32
	.cfi_def_cfa_offset 0
	jr	ra
.LVL5:
.L7:
	.loc 1 142 5 is_stmt 1
	.loc 1 143 1 is_stmt 0
	mv	a0,a3
.LVL6:
	ret
	.cfi_endproc
.LFE76:
	.size	recv_cb, .-recv_cb
	.section	.text.le_param_updated,"ax",@progbits
	.align	1
	.type	le_param_updated, @function
le_param_updated:
.LFB73:
	.loc 1 65 1 is_stmt 1
	.cfi_startproc
.LVL7:
	.loc 1 66 2
	.loc 1 66 7
.LBB24:
.LBB25:
	.file 2 "/b-l/bl_iot_sdk_new/components/bl602/freertos_riscv_ram/portable/GCC/RISC-V/portmacro.h"
	.loc 2 151 5
	.loc 2 151 31 is_stmt 0
	lui	a5,%hi(TrapNetCounter)
.LBE25:
.LBE24:
	.loc 1 66 7
	lw	a5,%lo(TrapNetCounter)(a5)
	.loc 1 65 1
	addi	sp,sp,-16
	.cfi_def_cfa_offset 16
	sw	s0,8(sp)
	sw	s1,4(sp)
	sw	s2,0(sp)
	sw	ra,12(sp)
	.cfi_offset 8, -8
	.cfi_offset 9, -12
	.cfi_offset 18, -16
	.cfi_offset 1, -4
	.loc 1 65 1
	mv	s0,a1
	mv	s1,a2
	mv	s2,a3
	.loc 1 66 7
	beq	a5,zero,.L11
	.loc 1 66 131 discriminator 1
	call	xTaskGetTickCountFromISR
.LVL8:
.L12:
	.loc 1 66 7 discriminator 4
	mv	a3,s0
	.loc 1 67 1 discriminator 4
	lw	s0,8(sp)
	.cfi_remember_state
	.cfi_restore 8
	lw	ra,12(sp)
	.cfi_restore 1
	.loc 1 66 7 discriminator 4
	mv	a5,s2
	mv	a4,s1
	.loc 1 67 1 discriminator 4
	lw	s2,0(sp)
	.cfi_restore 18
	lw	s1,4(sp)
	.cfi_restore 9
	.loc 1 66 7 discriminator 4
	lui	a2,%hi(.LC0)
	mv	a1,a0
	lui	a0,%hi(.LC1)
	.loc 1 67 1 discriminator 4
	.loc 1 66 7 discriminator 4
	addi	a2,a2,%lo(.LC0)
	addi	a0,a0,%lo(.LC1)
	.loc 1 67 1 discriminator 4
	addi	sp,sp,16
	.cfi_def_cfa_offset 0
	.loc 1 66 7 discriminator 4
	tail	bl_printk
.LVL9:
.L11:
	.cfi_restore_state
	.loc 1 66 160 discriminator 2
	call	xTaskGetTickCount
.LVL10:
	j	.L12
	.cfi_endproc
.LFE73:
	.size	le_param_updated, .-le_param_updated
	.section	.text.bt_ready_cb,"ax",@progbits
	.align	1
	.type	bt_ready_cb, @function
bt_ready_cb:
.LFB75:
	.loc 1 123 1 is_stmt 1
	.cfi_startproc
.LVL11:
	.loc 1 124 5
	.loc 1 124 8 is_stmt 0
	bne	a0,zero,.L14
.LVL12:
.LBB30:
.LBB31:
	.loc 1 127 5 is_stmt 1
	.loc 1 127 10
.LBB32:
.LBB33:
	.loc 2 151 5
	.loc 2 151 31 is_stmt 0
	lui	a5,%hi(TrapNetCounter)
.LBE33:
.LBE32:
	.loc 1 127 10
	lw	a5,%lo(TrapNetCounter)(a5)
.LBE31:
.LBE30:
	.loc 1 123 1
	addi	sp,sp,-16
	.cfi_def_cfa_offset 16
	sw	ra,12(sp)
	.cfi_offset 1, -4
.LBB38:
.LBB34:
	.loc 1 127 10
	beq	a5,zero,.L16
	.loc 1 127 96
	call	xTaskGetTickCountFromISR
.LVL13:
.L17:
.LBE34:
.LBE38:
	.loc 1 128 1
	lw	ra,12(sp)
	.cfi_remember_state
	.cfi_restore 1
.LBB39:
.LBB35:
	.loc 1 127 10
	lui	a2,%hi(.LC0)
	mv	a1,a0
	lui	a0,%hi(.LC2)
.LBE35:
.LBE39:
	.loc 1 128 1
.LBB40:
.LBB36:
	.loc 1 127 10
	addi	a2,a2,%lo(.LC0)
	addi	a0,a0,%lo(.LC2)
.LBE36:
.LBE40:
	.loc 1 128 1
	addi	sp,sp,16
	.cfi_def_cfa_offset 0
.LBB41:
.LBB37:
	.loc 1 127 10
	tail	bl_printk
.LVL14:
.L16:
	.cfi_restore_state
	.loc 1 127 125
	call	xTaskGetTickCount
.LVL15:
	j	.L17
.LVL16:
.L14:
	.cfi_def_cfa_offset 0
	.cfi_restore 1
	ret
.LBE37:
.LBE41:
	.cfi_endproc
.LFE75:
	.size	bt_ready_cb, .-bt_ready_cb
	.section	.text.bt_addr_le_to_str.constprop.2,"ax",@progbits
	.align	1
	.type	bt_addr_le_to_str.constprop.2, @function
bt_addr_le_to_str.constprop.2:
.LFB83:
	.file 3 "/b-l/bl_iot_sdk_new/components/network/ble/blestack/src/include/bluetooth/bluetooth.h"
	.loc 3 754 19 is_stmt 1
	.cfi_startproc
.LVL17:
	.loc 3 757 2
	.loc 3 759 2
	.loc 3 754 19 is_stmt 0
	addi	sp,sp,-48
	.cfi_def_cfa_offset 48
	sw	s0,40(sp)
	sw	s1,36(sp)
	sw	s2,32(sp)
	sw	ra,44(sp)
	.cfi_offset 8, -8
	.cfi_offset 9, -12
	.cfi_offset 18, -16
	.cfi_offset 1, -4
	.loc 3 759 14
	lbu	a3,0(a0)
	.loc 3 759 2
	li	a5,1
	.loc 3 754 19
	mv	s0,a0
	mv	s2,a1
	addi	s1,sp,20
	.loc 3 759 2
	beq	a3,a5,.L22
	beq	a3,zero,.L23
	li	a5,2
	beq	a3,a5,.L24
	li	a5,3
	beq	a3,a5,.L25
	.loc 3 773 3 is_stmt 1
	lui	a2,%hi(.LC7)
	addi	a2,a2,%lo(.LC7)
	li	a1,10
.LVL18:
	mv	a0,s1
.LVL19:
	call	snprintf
.LVL20:
	.loc 3 774 3
	j	.L27
.LVL21:
.L23:
	.loc 3 761 3
	lui	a1,%hi(.LC3)
.LVL22:
	addi	a1,a1,%lo(.LC3)
.L30:
	.loc 3 764 3 is_stmt 0
	mv	a0,s1
	call	strcpy
.LVL23:
	.loc 3 765 3 is_stmt 1
.L27:
	.loc 3 777 2
	.loc 3 777 9 is_stmt 0
	lbu	a5,1(s0)
	lbu	a7,2(s0)
	lbu	a6,3(s0)
	sw	a5,0(sp)
	lbu	a4,5(s0)
	lbu	a5,4(s0)
	lbu	a3,6(s0)
	lui	a2,%hi(.LC8)
	sw	s1,4(sp)
	mv	a0,s2
	addi	a2,a2,%lo(.LC8)
	li	a1,30
	call	snprintf
.LVL24:
	.loc 3 780 1
	lw	ra,44(sp)
	.cfi_remember_state
	.cfi_restore 1
	lw	s0,40(sp)
	.cfi_restore 8
.LVL25:
	lw	s1,36(sp)
	.cfi_restore 9
	lw	s2,32(sp)
	.cfi_restore 18
.LVL26:
	addi	sp,sp,48
	.cfi_def_cfa_offset 0
	jr	ra
.LVL27:
.L22:
	.cfi_restore_state
	.loc 3 764 3 is_stmt 1
	lui	a1,%hi(.LC4)
.LVL28:
	addi	a1,a1,%lo(.LC4)
	j	.L30
.LVL29:
.L24:
	.loc 3 767 3
	lui	a1,%hi(.LC5)
.LVL30:
	addi	a1,a1,%lo(.LC5)
	j	.L30
.LVL31:
.L25:
	.loc 3 770 3
	lui	a1,%hi(.LC6)
.LVL32:
	addi	a1,a1,%lo(.LC6)
	j	.L30
	.cfi_endproc
.LFE83:
	.size	bt_addr_le_to_str.constprop.2, .-bt_addr_le_to_str.constprop.2
	.section	.text.connected,"ax",@progbits
	.align	1
	.type	connected, @function
connected:
.LFB71:
	.loc 1 31 1
	.cfi_startproc
.LVL33:
	.loc 1 32 2
	.loc 1 34 5
	.loc 1 31 1 is_stmt 0
	addi	sp,sp,-48
	.cfi_def_cfa_offset 48
	sw	ra,44(sp)
	sw	s0,40(sp)
	sw	s1,36(sp)
	.cfi_offset 1, -4
	.cfi_offset 8, -8
	.cfi_offset 9, -12
	.loc 1 31 1
	mv	s1,a1
	.loc 1 34 5
	call	bt_conn_get_dst
.LVL34:
	mv	a1,sp
	call	bt_addr_le_to_str.constprop.2
.LVL35:
	.loc 1 36 2 is_stmt 1
	lui	a5,%hi(TrapNetCounter)
	lui	s0,%hi(.LC0)
	.loc 1 37 8 is_stmt 0
	lw	a5,%lo(TrapNetCounter)(a5)
	.loc 1 36 5
	beq	s1,zero,.L32
	.loc 1 37 3 is_stmt 1
	.loc 1 37 8
.LBB42:
.LBB43:
	.loc 2 151 5
.LBE43:
.LBE42:
	.loc 1 37 8 is_stmt 0
	beq	a5,zero,.L33
	.loc 1 37 121 discriminator 1
	call	xTaskGetTickCountFromISR
.LVL36:
.L34:
	.loc 1 37 8 discriminator 4
	lui	a3,%hi(.LC9)
	mv	a1,a0
	lui	a0,%hi(.LC10)
	mv	a6,s1
	mv	a5,sp
	li	a4,37
	addi	a3,a3,%lo(.LC9)
	addi	a2,s0,%lo(.LC0)
	addi	a0,a0,%lo(.LC10)
	call	bl_printk
.LVL37:
	.loc 1 38 3 is_stmt 1 discriminator 4
.L31:
	.loc 1 47 1 is_stmt 0
	lw	ra,44(sp)
	.cfi_remember_state
	.cfi_restore 1
	lw	s0,40(sp)
	.cfi_restore 8
	lw	s1,36(sp)
	.cfi_restore 9
	addi	sp,sp,48
	.cfi_def_cfa_offset 0
	jr	ra
.L33:
	.cfi_restore_state
	.loc 1 37 150 discriminator 2
	call	xTaskGetTickCount
.LVL38:
	j	.L34
.L32:
	.loc 1 41 2 is_stmt 1
	.loc 1 41 7
.LBB44:
.LBB45:
	.loc 2 151 5
.LBE45:
.LBE44:
	.loc 1 41 7 is_stmt 0
	beq	a5,zero,.L36
	.loc 1 41 103 discriminator 1
	call	xTaskGetTickCountFromISR
.LVL39:
.L37:
	.loc 1 41 7 discriminator 4
	mv	a1,a0
	lui	a0,%hi(.LC11)
	mv	a3,sp
	addi	a2,s0,%lo(.LC0)
	addi	a0,a0,%lo(.LC11)
	call	bl_printk
.LVL40:
	.loc 1 43 5 is_stmt 1 discriminator 4
	.loc 1 43 29 is_stmt 0 discriminator 4
	lui	a5,%hi(.LANCHOR1)
	lw	a5,%lo(.LANCHOR1)(a5)
	.loc 1 43 7 discriminator 4
	beq	a5,zero,.L31
	.loc 1 44 9 is_stmt 1
	mv	a1,sp
	li	a0,0
	jalr	a5
.LVL41:
	j	.L31
.L36:
	.loc 1 41 132 is_stmt 0 discriminator 2
	call	xTaskGetTickCount
.LVL42:
	j	.L37
	.cfi_endproc
.LFE71:
	.size	connected, .-connected
	.section	.text.disconnected,"ax",@progbits
	.align	1
	.type	disconnected, @function
disconnected:
.LFB72:
	.loc 1 50 1 is_stmt 1
	.cfi_startproc
.LVL43:
	.loc 1 51 2
	.loc 1 53 2
	.loc 1 50 1 is_stmt 0
	addi	sp,sp,-48
	.cfi_def_cfa_offset 48
	sw	ra,44(sp)
	sw	s0,40(sp)
	.cfi_offset 1, -4
	.cfi_offset 8, -8
	.loc 1 50 1
	mv	s0,a1
	.loc 1 53 2
	call	bt_conn_get_dst
.LVL44:
	mv	a1,sp
	call	bt_addr_le_to_str.constprop.2
.LVL45:
	.loc 1 54 2 is_stmt 1
	.loc 1 54 7
.LBB46:
.LBB47:
	.loc 2 151 5
	.loc 2 151 31 is_stmt 0
	lui	a5,%hi(TrapNetCounter)
.LBE47:
.LBE46:
	.loc 1 54 7
	lw	a5,%lo(TrapNetCounter)(a5)
	beq	a5,zero,.L44
	.loc 1 54 113 discriminator 1
	call	xTaskGetTickCountFromISR
.LVL46:
.L45:
	.loc 1 54 7 discriminator 4
	mv	a1,a0
	lui	a2,%hi(.LC0)
	lui	a0,%hi(.LC12)
	mv	a4,s0
	mv	a3,sp
	addi	a2,a2,%lo(.LC0)
	addi	a0,a0,%lo(.LC12)
	call	bl_printk
.LVL47:
	.loc 1 56 5 is_stmt 1 discriminator 4
	.loc 1 56 29 is_stmt 0 discriminator 4
	lui	a5,%hi(.LANCHOR1)
	lw	a5,%lo(.LANCHOR1)(a5)
	.loc 1 56 7 discriminator 4
	beq	a5,zero,.L43
	.loc 1 57 9 is_stmt 1
	mv	a1,sp
	li	a0,1
	jalr	a5
.LVL48:
.L43:
	.loc 1 60 1 is_stmt 0
	lw	ra,44(sp)
	.cfi_remember_state
	.cfi_restore 1
	lw	s0,40(sp)
	.cfi_restore 8
	addi	sp,sp,48
	.cfi_def_cfa_offset 0
	jr	ra
.L44:
	.cfi_restore_state
	.loc 1 54 142 discriminator 2
	call	xTaskGetTickCount
.LVL49:
	j	.L45
	.cfi_endproc
.LFE72:
	.size	disconnected, .-disconnected
	.section	.text.ble_start_advertise,"ax",@progbits
	.align	1
	.globl	ble_start_advertise
	.type	ble_start_advertise, @function
ble_start_advertise:
.LFB74:
	.loc 1 75 1 is_stmt 1
	.cfi_startproc
	.loc 1 76 5
	.loc 1 77 2
	.loc 1 78 2
	.loc 1 79 2
.LVL50:
	.loc 1 80 5
	.loc 1 82 5
	.loc 1 83 5
	.loc 1 84 5
	.loc 1 89 5
	.loc 1 90 5
	.loc 1 91 9
	.loc 1 82 14 is_stmt 0
	li	a5,10489856
	.loc 1 75 1
	addi	sp,sp,-32
	.cfi_def_cfa_offset 32
	.loc 1 82 14
	addi	a5,a5,-1280
	.loc 1 111 15
	lui	a1,%hi(.LANCHOR2)
	.loc 1 82 14
	sw	a5,8(sp)
	.loc 1 111 15
	li	a4,0
	.loc 1 84 24
	li	a5,240
	.loc 1 111 15
	li	a3,0
	li	a2,2
	addi	a1,a1,%lo(.LANCHOR2)
	addi	a0,sp,8
	.loc 1 75 1
	sw	s0,24(sp)
	sw	ra,28(sp)
	sw	s1,20(sp)
	.cfi_offset 8, -8
	.cfi_offset 1, -4
	.cfi_offset 9, -12
	.loc 1 84 24
	sh	a5,12(sp)
	.loc 1 99 5 is_stmt 1
.LVL51:
	.loc 1 100 5
	.loc 1 101 9
	.loc 1 104 9
	.loc 1 105 9
	.loc 1 108 5
	.loc 1 111 9
	.loc 1 111 15 is_stmt 0
	call	bt_le_adv_start
.LVL52:
	.loc 1 114 5 is_stmt 1
	lui	a4,%hi(TrapNetCounter)
	lui	s0,%hi(.LC0)
	.loc 1 114 7 is_stmt 0
	beq	a0,zero,.L52
	.loc 1 115 14
	lw	a5,%lo(TrapNetCounter)(a4)
	mv	s1,a0
	.loc 1 115 9 is_stmt 1
	.loc 1 115 14
.LBB56:
.LBB57:
	.loc 2 151 5
.LBE57:
.LBE56:
	.loc 1 115 14 is_stmt 0
	beq	a5,zero,.L53
	.loc 1 115 135 discriminator 1
	call	xTaskGetTickCountFromISR
.LVL53:
.L54:
	.loc 1 115 14 discriminator 4
	lui	a3,%hi(.LC9)
	mv	a1,a0
	lui	a0,%hi(.LC13)
	mv	a5,s1
	li	a4,115
	addi	a3,a3,%lo(.LC9)
	addi	a2,s0,%lo(.LC0)
	addi	a0,a0,%lo(.LC13)
	call	bl_printk
.LVL54:
.L51:
	.loc 1 120 1
	lw	ra,28(sp)
	.cfi_remember_state
	.cfi_restore 1
	lw	s0,24(sp)
	.cfi_restore 8
	lw	s1,20(sp)
	.cfi_restore 9
	addi	sp,sp,32
	.cfi_def_cfa_offset 0
	jr	ra
.LVL55:
.L53:
	.cfi_restore_state
	.loc 1 115 164 discriminator 2
	call	xTaskGetTickCount
.LVL56:
	j	.L54
.LVL57:
.L52:
.LBB58:
.LBB59:
	.loc 1 117 9 is_stmt 1
	.loc 1 117 14
.LBB60:
.LBB61:
	.loc 2 151 5
.LBE61:
.LBE60:
	.loc 1 117 14 is_stmt 0
	lw	a5,%lo(TrapNetCounter)(a4)
	beq	a5,zero,.L56
	.loc 1 117 111
	call	xTaskGetTickCountFromISR
.LVL58:
.L57:
	.loc 1 117 14
	mv	a1,a0
	lui	a0,%hi(.LC14)
	addi	a2,s0,%lo(.LC0)
	addi	a0,a0,%lo(.LC14)
	call	bl_printk
.LVL59:
.LBE59:
.LBE58:
	.loc 1 120 1
	j	.L51
.LVL60:
.L56:
.LBB63:
.LBB62:
	.loc 1 117 140
	call	xTaskGetTickCount
.LVL61:
	j	.L57
.LBE62:
.LBE63:
	.cfi_endproc
.LFE74:
	.size	ble_start_advertise, .-ble_start_advertise
	.section	.text.do_ble_notify,"ax",@progbits
	.align	1
	.globl	do_ble_notify
	.type	do_ble_notify, @function
do_ble_notify:
.LFB77:
	.loc 1 169 63 is_stmt 1
	.cfi_startproc
.LVL62:
	.loc 1 170 5
	.loc 1 169 63 is_stmt 0
	addi	sp,sp,-64
	.cfi_def_cfa_offset 64
	.loc 1 170 5
	lui	a5,%hi(.LANCHOR3)
	.loc 1 169 63
	sw	s0,56(sp)
	sw	s1,52(sp)
	sw	s2,48(sp)
	sw	s3,44(sp)
	.cfi_offset 8, -8
	.cfi_offset 9, -12
	.cfi_offset 18, -16
	.cfi_offset 19, -20
	mv	s0,a0
	.loc 1 170 5
	lw	s3,%lo(.LANCHOR3)(a5)
.LVL63:
	.loc 1 169 63
	mv	s2,a1
.LVL64:
	mv	s1,a2
.LVL65:
.LBB66:
.LBB67:
	.file 4 "/b-l/bl_iot_sdk_new/components/network/ble/blestack/src/include/bluetooth/gatt.h"
	.loc 4 855 2 is_stmt 1
	.loc 4 857 2
	li	a1,0
.LVL66:
	li	a2,24
.LVL67:
	addi	a0,sp,8
.LVL68:
.LBE67:
.LBE66:
	.loc 1 169 63 is_stmt 0
	sw	ra,60(sp)
	.cfi_offset 1, -4
.LBB69:
.LBB68:
	.loc 4 857 2
	call	memset
.LVL69:
	.loc 4 859 2 is_stmt 1
	.loc 4 863 9 is_stmt 0
	addi	a1,sp,8
	mv	a0,s0
	.loc 4 859 14
	sw	s3,12(sp)
	.loc 4 860 2 is_stmt 1
	.loc 4 860 14 is_stmt 0
	sw	s2,16(sp)
	.loc 4 861 2 is_stmt 1
	.loc 4 861 13 is_stmt 0
	sh	s1,20(sp)
	.loc 4 863 2 is_stmt 1
	.loc 4 863 9 is_stmt 0
	call	bt_gatt_notify_cb
.LVL70:
.LBE68:
.LBE69:
	.loc 1 171 1
	lw	ra,60(sp)
	.cfi_restore 1
	lw	s0,56(sp)
	.cfi_restore 8
.LVL71:
	lw	s1,52(sp)
	.cfi_restore 9
	lw	s2,48(sp)
	.cfi_restore 18
.LVL72:
	lw	s3,44(sp)
	.cfi_restore 19
	addi	sp,sp,64
	.cfi_def_cfa_offset 0
	jr	ra
	.cfi_endproc
.LFE77:
	.size	do_ble_notify, .-do_ble_notify
	.section	.text.do_ble_init,"ax",@progbits
	.align	1
	.globl	do_ble_init
	.type	do_ble_init, @function
do_ble_init:
.LFB78:
	.loc 1 173 23 is_stmt 1
	.cfi_startproc
	.loc 1 175 5
	.loc 1 175 10
.LBB70:
.LBB71:
	.loc 2 151 5
	.loc 2 151 31 is_stmt 0
	lui	a5,%hi(TrapNetCounter)
.LBE71:
.LBE70:
	.loc 1 175 10
	lw	a5,%lo(TrapNetCounter)(a5)
	.loc 1 173 23
	addi	sp,sp,-16
	.cfi_def_cfa_offset 16
	sw	ra,12(sp)
	.cfi_offset 1, -4
	.loc 1 175 10
	beq	a5,zero,.L62
	.loc 1 175 100 discriminator 1
	call	xTaskGetTickCountFromISR
.LVL73:
.L63:
	.loc 1 175 10 discriminator 4
	mv	a1,a0
	lui	a2,%hi(.LC0)
	lui	a0,%hi(.LC15)
	addi	a2,a2,%lo(.LC0)
	addi	a0,a0,%lo(.LC15)
	call	bl_printk
.LVL74:
	.loc 1 176 5 is_stmt 1 discriminator 4
	li	a0,31
	call	ble_controller_init
.LVL75:
	.loc 1 178 5 discriminator 4
	call	hci_driver_init
.LVL76:
	.loc 1 179 5 discriminator 4
	lui	a0,%hi(bt_ready_cb)
	addi	a0,a0,%lo(bt_ready_cb)
	call	bt_enable
.LVL77:
	.loc 1 180 5 discriminator 4
	lui	a0,%hi(.LC16)
	addi	a0,a0,%lo(.LC16)
	call	bt_set_name
.LVL78:
	.loc 1 181 5 discriminator 4
	lui	a0,%hi(.LANCHOR4)
	addi	a0,a0,%lo(.LANCHOR4)
	call	bt_gatt_service_register
.LVL79:
	.loc 1 182 5 discriminator 4
	.loc 1 182 18 is_stmt 0 discriminator 4
	lui	a5,%hi(.LANCHOR5+20)
	.loc 1 183 5 discriminator 4
	lui	a0,%hi(.LANCHOR6)
	.loc 1 182 18 discriminator 4
	lui	a4,%hi(.LANCHOR3)
	addi	a5,a5,%lo(.LANCHOR5+20)
	.loc 1 183 5 discriminator 4
	addi	a0,a0,%lo(.LANCHOR6)
	.loc 1 182 18 discriminator 4
	sw	a5,%lo(.LANCHOR3)(a4)
	.loc 1 183 5 is_stmt 1 discriminator 4
	call	bt_conn_cb_register
.LVL80:
	.loc 1 184 5 discriminator 4
	.loc 1 185 1 is_stmt 0 discriminator 4
	lw	ra,12(sp)
	.cfi_remember_state
	.cfi_restore 1
	addi	sp,sp,16
	.cfi_def_cfa_offset 0
	.loc 1 184 5 discriminator 4
	tail	ble_start_advertise
.LVL81:
.L62:
	.cfi_restore_state
	.loc 1 175 129 discriminator 2
	call	xTaskGetTickCount
.LVL82:
	j	.L63
	.cfi_endproc
.LFE78:
	.size	do_ble_init, .-do_ble_init
	.section	.text.do_ble_set_reve_cb,"ax",@progbits
	.align	1
	.globl	do_ble_set_reve_cb
	.type	do_ble_set_reve_cb, @function
do_ble_set_reve_cb:
.LFB79:
	.loc 1 187 54 is_stmt 1
	.cfi_startproc
.LVL83:
	.loc 1 188 5
	.loc 1 188 24 is_stmt 0
	lui	a5,%hi(.LANCHOR0)
	sw	a0,%lo(.LANCHOR0)(a5)
	.loc 1 189 1
	ret
	.cfi_endproc
.LFE79:
	.size	do_ble_set_reve_cb, .-do_ble_set_reve_cb
	.section	.text.do_ble_set_connect_cb,"ax",@progbits
	.align	1
	.globl	do_ble_set_connect_cb
	.type	do_ble_set_connect_cb, @function
do_ble_set_connect_cb:
.LFB80:
	.loc 1 191 61 is_stmt 1
	.cfi_startproc
.LVL84:
	.loc 1 192 5
	.loc 1 192 26 is_stmt 0
	lui	a5,%hi(.LANCHOR1)
	sw	a0,%lo(.LANCHOR1)(a5)
	.loc 1 193 1
	ret
	.cfi_endproc
.LFE80:
	.size	do_ble_set_connect_cb, .-do_ble_set_connect_cb
	.globl	dis
	.globl	static_ble_connet_cb
	.globl	static_ble_reve_cb
	.section	.data.__compound_literal.11,"aw"
	.align	2
	.type	__compound_literal.11, @object
	.size	__compound_literal.11, 17
__compound_literal.11:
	.byte	2
	.byte	83
	.byte	86
	.byte	76
	.byte	14
	.byte	-110
	.byte	-90
	.byte	-43
	.byte	-69
	.byte	-44
	.byte	75
	.byte	35
	.byte	0
	.byte	2
	.byte	0
	.byte	48
	.byte	83
	.section	.data.__compound_literal.3,"aw"
	.align	2
	.type	__compound_literal.3, @object
	.size	__compound_literal.3, 17
__compound_literal.3:
	.byte	2
	.byte	83
	.byte	86
	.byte	76
	.byte	14
	.byte	-110
	.byte	-90
	.byte	-43
	.byte	-69
	.byte	-44
	.byte	75
	.byte	35
	.byte	0
	.byte	1
	.byte	0
	.byte	48
	.byte	83
	.section	.data.__compound_literal.5,"aw"
	.align	2
	.type	__compound_literal.5, @object
	.size	__compound_literal.5, 17
__compound_literal.5:
	.byte	2
	.byte	83
	.byte	86
	.byte	76
	.byte	14
	.byte	-110
	.byte	-90
	.byte	-43
	.byte	-69
	.byte	-44
	.byte	75
	.byte	35
	.byte	0
	.byte	3
	.byte	0
	.byte	48
	.byte	83
	.section	.data.__compound_literal.7,"aw"
	.align	2
	.type	__compound_literal.7, @object
	.size	__compound_literal.7, 17
__compound_literal.7:
	.byte	2
	.byte	83
	.byte	86
	.byte	76
	.byte	14
	.byte	-110
	.byte	-90
	.byte	-43
	.byte	-69
	.byte	-44
	.byte	75
	.byte	35
	.byte	0
	.byte	3
	.byte	0
	.byte	48
	.byte	83
	.section	.data.__compound_literal.9,"aw"
	.align	2
	.type	__compound_literal.9, @object
	.size	__compound_literal.9, 17
__compound_literal.9:
	.byte	2
	.byte	83
	.byte	86
	.byte	76
	.byte	14
	.byte	-110
	.byte	-90
	.byte	-43
	.byte	-69
	.byte	-44
	.byte	75
	.byte	35
	.byte	0
	.byte	2
	.byte	0
	.byte	48
	.byte	83
	.section	.data.ad_discov,"aw"
	.align	2
	.set	.LANCHOR2,. + 0
	.type	ad_discov, @object
	.size	ad_discov, 16
ad_discov:
	.byte	1
	.byte	1
	.zero	2
	.word	__compound_literal.1
	.zero	8
	.section	.data.ble_attrs,"aw"
	.align	2
	.set	.LANCHOR5,. + 0
	.type	ble_attrs, @object
	.size	ble_attrs, 100
ble_attrs:
	.word	__compound_literal.2
	.word	bt_gatt_attr_read_service
	.word	0
	.word	__compound_literal.3
	.zero	2
	.byte	1
	.zero	1
	.word	__compound_literal.4
	.word	bt_gatt_attr_read_chrc
	.word	0
	.word	__compound_literal.6
	.zero	2
	.byte	1
	.zero	1
	.word	__compound_literal.7
	.word	0
	.word	0
	.word	0
	.zero	2
	.byte	0
	.zero	1
	.word	__compound_literal.8
	.word	bt_gatt_attr_read_chrc
	.word	0
	.word	__compound_literal.10
	.zero	2
	.byte	1
	.zero	1
	.word	__compound_literal.11
	.word	0
	.word	recv_cb
	.word	0
	.zero	2
	.byte	2
	.zero	1
	.section	.data.conn_callbacks,"aw"
	.align	2
	.set	.LANCHOR6,. + 0
	.type	conn_callbacks, @object
	.size	conn_callbacks, 28
conn_callbacks:
	.word	connected
	.word	disconnected
	.zero	4
	.word	le_param_updated
	.zero	12
	.section	.data.dis,"aw"
	.align	2
	.set	.LANCHOR4,. + 0
	.type	dis, @object
	.size	dis, 12
dis:
	.word	ble_attrs
	.word	5
	.zero	4
	.section	.rodata.ble_start_advertise.str1.4,"aMS",@progbits,1
	.align	2
.LC13:
	.string	"\033[31m[%10u][%s %s:%4d] Failed to start advertising (err %d)\033[0m\r\n"
	.zero	2
.LC14:
	.string	"\033[32m[%10u][%s] Advertising started\033[0m\r\n"
	.section	.rodata.bt_addr_le_to_str.constprop.2.str1.4,"aMS",@progbits,1
	.align	2
.LC3:
	.string	"public"
	.zero	1
.LC4:
	.string	"random"
	.zero	1
.LC5:
	.string	"public-id"
	.zero	2
.LC6:
	.string	"random-id"
	.zero	2
.LC7:
	.string	"0x%02x"
	.zero	1
.LC8:
	.string	"%02X:%02X:%02X:%02X:%02X:%02X (%s)"
	.section	.rodata.bt_ready_cb.str1.4,"aMS",@progbits,1
	.align	2
.LC2:
	.string	"\033[32m[%10u][%s] bt_ready\033[0m\r\n"
	.section	.rodata.connected.str1.4,"aMS",@progbits,1
	.align	2
.LC9:
	.string	"do_ble.c"
	.zero	3
.LC10:
	.string	"\033[31m[%10u][%s %s:%4d] Failed to connect to %s (%u)\033[0m\r\n"
	.zero	2
.LC11:
	.string	"\033[32m[%10u][%s] Connected: %s \r\n\033[0m\r\n"
	.section	.rodata.disconnected.str1.4,"aMS",@progbits,1
	.align	2
.LC12:
	.string	"\033[32m[%10u][%s] Disconnected: %s (reason %u)\033[0m\r\n"
	.section	.rodata.do_ble_init.str1.4,"aMS",@progbits,1
	.align	2
.LC15:
	.string	"\033[32m[%10u][%s] do_ble_init \033[0m\r\n"
	.zero	1
.LC16:
	.string	"LVS-Lush122-XT"
	.section	.rodata.le_param_updated.str1.4,"aMS",@progbits,1
	.align	2
.LC0:
	.string	"ble"
.LC1:
	.string	"\033[32m[%10u][%s] LE conn param updated: int 0x%04x lat %d to %d\033[0m\r\n"
	.section	.sbss.notify_attrs,"aw",@nobits
	.align	2
	.set	.LANCHOR3,. + 0
	.type	notify_attrs, @object
	.size	notify_attrs, 4
notify_attrs:
	.zero	4
	.section	.sbss.static_ble_connet_cb,"aw",@nobits
	.align	2
	.set	.LANCHOR1,. + 0
	.type	static_ble_connet_cb, @object
	.size	static_ble_connet_cb, 4
static_ble_connet_cb:
	.zero	4
	.section	.sbss.static_ble_reve_cb,"aw",@nobits
	.align	2
	.set	.LANCHOR0,. + 0
	.type	static_ble_reve_cb, @object
	.size	static_ble_reve_cb, 4
static_ble_reve_cb:
	.zero	4
	.section	.sdata.__compound_literal.1,"aw"
	.align	2
	.type	__compound_literal.1, @object
	.size	__compound_literal.1, 1
__compound_literal.1:
	.byte	6
	.section	.sdata.__compound_literal.10,"aw"
	.align	2
	.type	__compound_literal.10, @object
	.size	__compound_literal.10, 8
__compound_literal.10:
	.word	__compound_literal.9
	.half	0
	.byte	12
	.zero	1
	.section	.sdata.__compound_literal.2,"aw"
	.align	2
	.type	__compound_literal.2, @object
	.size	__compound_literal.2, 4
__compound_literal.2:
	.byte	0
	.zero	1
	.half	10240
	.section	.sdata.__compound_literal.4,"aw"
	.align	2
	.type	__compound_literal.4, @object
	.size	__compound_literal.4, 4
__compound_literal.4:
	.byte	0
	.zero	1
	.half	10243
	.section	.sdata.__compound_literal.6,"aw"
	.align	2
	.type	__compound_literal.6, @object
	.size	__compound_literal.6, 8
__compound_literal.6:
	.word	__compound_literal.5
	.half	0
	.byte	16
	.zero	1
	.section	.sdata.__compound_literal.8,"aw"
	.align	2
	.type	__compound_literal.8, @object
	.size	__compound_literal.8, 4
__compound_literal.8:
	.byte	0
	.zero	1
	.half	10243
	.text
.Letext0:
	.file 5 "/b-l/bl_iot_sdk_new/toolchain/riscv/Linux/lib/gcc/riscv64-unknown-elf/8.3.0/include/stdint-gcc.h"
	.file 6 "/b-l/bl_iot_sdk_new/toolchain/riscv/Linux/lib/gcc/riscv64-unknown-elf/8.3.0/include/stddef.h"
	.file 7 "/b-l/bl_iot_sdk_new/toolchain/riscv/Linux/riscv64-unknown-elf/include/sys/_types.h"
	.file 8 "/b-l/bl_iot_sdk_new/toolchain/riscv/Linux/riscv64-unknown-elf/include/sys/reent.h"
	.file 9 "/b-l/bl_iot_sdk_new/toolchain/riscv/Linux/riscv64-unknown-elf/include/sys/lock.h"
	.file 10 "/b-l/bl_iot_sdk_new/toolchain/riscv/Linux/riscv64-unknown-elf/include/sys/types.h"
	.file 11 "/b-l/bl_iot_sdk_new/components/network/ble/blestack/src/common/include/zephyr/types.h"
	.file 12 "/b-l/bl_iot_sdk_new/components/network/ble/blestack/src/common/include/misc/slist.h"
	.file 13 "/b-l/bl_iot_sdk_new/components/network/ble/blestack/src/port/include/zephyr.h"
	.file 14 "/b-l/bl_iot_sdk_new/components/network/ble/blestack/src/common/include/net/buf.h"
	.file 15 "/b-l/bl_iot_sdk_new/components/network/ble/blestack/src/include/bluetooth/addr.h"
	.file 16 "/b-l/bl_iot_sdk_new/components/network/ble/blestack/src/include/bluetooth/conn.h"
	.file 17 "/b-l/dolphin/components/do_ble/include/do_ble.h"
	.file 18 "/b-l/bl_iot_sdk_new/components/network/ble/blestack/src/include/bluetooth/uuid.h"
	.file 19 "/b-l/bl_iot_sdk_new/components/bl602/freertos_riscv_ram/config/task.h"
	.file 20 "/b-l/bl_iot_sdk_new/components/utils/include/utils_log.h"
	.file 21 "/b-l/bl_iot_sdk_new/components/network/ble/blecontroller/ble_inc/ble_lib_api.h"
	.file 22 "/b-l/bl_iot_sdk_new/components/network/ble/blestack/src/include/drivers/bluetooth/hci_driver.h"
	.file 23 "/b-l/bl_iot_sdk_new/toolchain/riscv/Linux/riscv64-unknown-elf/include/string.h"
	.file 24 "/b-l/bl_iot_sdk_new/toolchain/riscv/Linux/riscv64-unknown-elf/include/stdio.h"