	.file	"yloop.c"
	.option nopic
	.attribute arch, "rv32i2p0_m2p0_f2p0_c2p0"
	.attribute unaligned_access, 0
	.attribute stack_align, 16
	.text
.Ltext0:
	.cfi_sections	.debug_frame
	.section	.text.get_context,"ax",@progbits
	.align	1
	.type	get_context, @function
get_context:
.LFB21:
	.file 1 "/b-l/bl_iot_sdk_new/components/stage/yloop/src/yloop.c"
	.loc 1 46 1
	.cfi_startproc
	.loc 1 47 5
.LBB28:
.LBB29:
	.loc 1 42 5
.LBE29:
.LBE28:
	.loc 1 46 1 is_stmt 0
	addi	sp,sp,-16
	.cfi_def_cfa_offset 16
	sw	s1,4(sp)
	.cfi_offset 9, -12
.LBB32:
.LBB30:
	.loc 1 42 12
	lui	s1,%hi(.LANCHOR0)
	addi	s1,s1,%lo(.LANCHOR0)
	lw	a0,0(s1)
.LBE30:
.LBE32:
	.loc 1 46 1
	sw	ra,12(sp)
	sw	s0,8(sp)
	.cfi_offset 1, -4
	.cfi_offset 8, -8
.LBB33:
.LBB31:
	.loc 1 42 12
	call	aos_task_getspecific
.LVL0:
.LBE31:
.LBE33:
	.loc 1 48 5 is_stmt 1
	.loc 1 48 8 is_stmt 0
	bne	a0,zero,.L1
.LBB34:
.LBB35:
	.loc 1 49 9 is_stmt 1
.LVL1:
.LBB36:
.LBB37:
	.loc 1 37 5
.LBE37:
.LBE36:
	.loc 1 49 9 is_stmt 0
	lui	s0,%hi(.LANCHOR1)
	addi	s0,s0,%lo(.LANCHOR1)
.LBB39:
.LBB38:
	.loc 1 37 5
	lw	a1,0(s0)
	lw	a0,0(s1)
.LVL2:
	call	aos_task_setspecific
.LVL3:
.LBE38:
.LBE39:
	.loc 1 50 9 is_stmt 1
	.loc 1 50 16 is_stmt 0
	lw	a0,0(s0)
.L1:
.LBE35:
.LBE34:
	.loc 1 53 1
	lw	ra,12(sp)
	.cfi_restore 1
	lw	s0,8(sp)
	.cfi_restore 8
	lw	s1,4(sp)
	.cfi_restore 9
	addi	sp,sp,16
	.cfi_def_cfa_offset 0
	jr	ra
	.cfi_endproc
.LFE21:
	.size	get_context, .-get_context
	.section	.text.aos_loop_set_eventfd,"ax",@progbits
	.align	1
	.globl	aos_loop_set_eventfd
	.type	aos_loop_set_eventfd, @function
aos_loop_set_eventfd:
.LFB22:
	.loc 1 56 1 is_stmt 1
	.cfi_startproc
.LVL4:
	.loc 1 57 5
	.loc 1 56 1 is_stmt 0
	addi	sp,sp,-16
	.cfi_def_cfa_offset 16
	sw	s0,8(sp)
	sw	ra,12(sp)
	.cfi_offset 8, -8
	.cfi_offset 1, -4
	.loc 1 56 1
	mv	s0,a0
	.loc 1 57 24
	call	get_context
.LVL5:
	.loc 1 58 5 is_stmt 1
	.loc 1 58 18 is_stmt 0
	sw	s0,16(a0)
	.loc 1 59 1
	lw	ra,12(sp)
	.cfi_restore 1
	lw	s0,8(sp)
	.cfi_restore 8
.LVL6:
	addi	sp,sp,16
	.cfi_def_cfa_offset 0
	jr	ra
	.cfi_endproc
.LFE22:
	.size	aos_loop_set_eventfd, .-aos_loop_set_eventfd
	.section	.text.aos_loop_get_eventfd,"ax",@progbits
	.align	1
	.globl	aos_loop_get_eventfd
	.type	aos_loop_get_eventfd, @function
aos_loop_get_eventfd:
.LFB23:
	.loc 1 62 1 is_stmt 1
	.cfi_startproc
.LVL7:
	.loc 1 63 5
	.loc 1 63 36 is_stmt 0
	bne	a0,zero,.L9
	.loc 1 62 1 discriminator 1
	addi	sp,sp,-16
	.cfi_def_cfa_offset 16
	sw	ra,12(sp)
	.cfi_offset 1, -4
	.loc 1 63 38 discriminator 1
	call	get_context
.LVL8:
	.loc 1 64 5 is_stmt 1 discriminator 1
	.loc 1 65 1 is_stmt 0 discriminator 1
	lw	ra,12(sp)
	.cfi_restore 1
	lw	a0,16(a0)
.LVL9:
	addi	sp,sp,16
	.cfi_def_cfa_offset 0
	jr	ra
.LVL10:
.L9:
	.loc 1 64 5 is_stmt 1
	.loc 1 65 1 is_stmt 0
	lw	a0,16(a0)
.LVL11:
	ret
	.cfi_endproc
.LFE23:
	.size	aos_loop_get_eventfd, .-aos_loop_get_eventfd
	.section	.text.aos_current_loop,"ax",@progbits
	.align	1
	.globl	aos_current_loop
	.type	aos_current_loop, @function
aos_current_loop:
.LFB24:
	.loc 1 68 1 is_stmt 1
	.cfi_startproc
	.loc 1 69 5
	.loc 1 69 12 is_stmt 0
	tail	get_context
.LVL12:
	.cfi_endproc
.LFE24:
	.size	aos_current_loop, .-aos_current_loop
	.section	.text.aos_loop_init,"ax",@progbits
	.align	1
	.globl	aos_loop_init
	.type	aos_loop_init, @function
aos_loop_init:
.LFB25:
	.loc 1 73 1 is_stmt 1
	.cfi_startproc
	.loc 1 74 5
.LBB46:
.LBB47:
	.loc 1 42 5
.LBE47:
.LBE46:
	.loc 1 73 1 is_stmt 0
	addi	sp,sp,-32
	.cfi_def_cfa_offset 32
	sw	s2,16(sp)
	.cfi_offset 18, -16
.LBB50:
.LBB48:
	.loc 1 42 12
	lui	s2,%hi(.LANCHOR0)
	lw	a0,%lo(.LANCHOR0)(s2)
.LBE48:
.LBE50:
	.loc 1 73 1
	sw	s1,20(sp)
	sw	s3,12(sp)
	.cfi_offset 9, -12
	.cfi_offset 19, -20
	.loc 1 76 9
	lui	s1,%hi(.LANCHOR1)
	.loc 1 73 1
	sw	ra,28(sp)
	sw	s0,24(sp)
	.cfi_offset 1, -4
	.cfi_offset 8, -8
.LBB51:
.LBB49:
	.loc 1 42 12
	call	aos_task_getspecific
.LVL13:
.LBE49:
.LBE51:
	.loc 1 76 5 is_stmt 1
	.loc 1 76 8 is_stmt 0
	lw	a5,%lo(.LANCHOR1)(s1)
	addi	s3,s2,%lo(.LANCHOR0)
	addi	s1,s1,%lo(.LANCHOR1)
	bne	a5,zero,.L14
	.loc 1 77 9 is_stmt 1
	addi	a0,s2,%lo(.LANCHOR0)
.LVL14:
	call	aos_task_key_create
.LVL15:
.L15:
	.loc 1 83 5
	.loc 1 83 11 is_stmt 0
	li	a0,28
	call	pvPortMalloc
.LVL16:
	mv	s0,a0
.LVL17:
	.loc 1 84 5 is_stmt 1
	.loc 1 84 8 is_stmt 0
	beq	a0,zero,.L17
	.loc 1 85 9 is_stmt 1
	li	a2,28
	li	a1,0
	call	memset
.LVL18:
.L17:
	.loc 1 87 5
	.loc 1 87 8 is_stmt 0
	lw	a5,0(s1)
	bne	a5,zero,.L18
	.loc 1 88 9 is_stmt 1
	.loc 1 88 20 is_stmt 0
	sw	s0,0(s1)
.L18:
	.loc 1 91 5 is_stmt 1
.LVL19:
.LBB52:
.LBB53:
	.file 2 "/b-l/bl_iot_sdk_new/components/stage/yloop/include/aos/list.h"
	.loc 2 77 5
	.loc 2 77 29 is_stmt 0
	sw	s0,0(s0)
.LBE53:
.LBE52:
.LBB55:
.LBB56:
	.loc 1 37 5
	lw	a0,0(s3)
.LBE56:
.LBE55:
	.loc 1 92 18
	li	a5,-1
	sw	a5,16(s0)
.LBB59:
.LBB57:
	.loc 1 37 5
	mv	a1,s0
.LBE57:
.LBE59:
.LBB60:
.LBB54:
	.loc 2 77 16
	sw	s0,4(s0)
.LVL20:
.LBE54:
.LBE60:
	.loc 1 92 5 is_stmt 1
	.loc 1 93 5
.LBB61:
.LBB58:
	.loc 1 37 5
	call	aos_task_setspecific
.LVL21:
.LBE58:
.LBE61:
	.loc 1 95 5
	call	aos_event_service_init
.LVL22:
	.loc 1 97 5
	.loc 1 97 12 is_stmt 0
	j	.L13
.LVL23:
.L14:
	mv	s0,a0
	.loc 1 78 12 is_stmt 1
	.loc 1 78 15 is_stmt 0
	beq	a0,zero,.L15
.LVL24:
	.loc 1 79 9 is_stmt 1
	lui	a0,%hi(.LC0)
	addi	a0,a0,%lo(.LC0)
	call	printf
.LVL25:
	.loc 1 80 9
.L13:
	.loc 1 98 1 is_stmt 0
	mv	a0,s0
	lw	ra,28(sp)
	.cfi_restore 1
	lw	s0,24(sp)
	.cfi_restore 8
	lw	s1,20(sp)
	.cfi_restore 9
	lw	s2,16(sp)
	.cfi_restore 18
	lw	s3,12(sp)
	.cfi_restore 19
	addi	sp,sp,32
	.cfi_def_cfa_offset 0
	jr	ra
	.cfi_endproc
.LFE25:
	.size	aos_loop_init, .-aos_loop_init
	.section	.text.aos_poll_read_fd,"ax",@progbits
	.align	1
	.globl	aos_poll_read_fd
	.type	aos_poll_read_fd, @function
aos_poll_read_fd:
.LFB26:
	.loc 1 101 1 is_stmt 1
	.cfi_startproc
.LVL26:
	.loc 1 102 5
	.loc 1 101 1 is_stmt 0
	addi	sp,sp,-48
	.cfi_def_cfa_offset 48
	sw	s2,32(sp)
	.cfi_offset 18, -16
	mv	s2,a0
	sw	s6,16(sp)
	sw	s7,12(sp)
	sw	ra,44(sp)
	sw	s0,40(sp)
	sw	s1,36(sp)
	sw	s3,28(sp)
	sw	s4,24(sp)
	sw	s5,20(sp)
	sw	s8,8(sp)
	.cfi_offset 22, -32
	.cfi_offset 23, -36
	.cfi_offset 1, -4
	.cfi_offset 8, -8
	.cfi_offset 9, -12
	.cfi_offset 19, -20
	.cfi_offset 20, -24
	.cfi_offset 21, -28
	.cfi_offset 24, -40
	.loc 1 101 1
	mv	s6,a1
	mv	s7,a2
	.loc 1 102 24
	call	get_context
.LVL27:
	.loc 1 103 5 is_stmt 1
	.loc 1 103 8 is_stmt 0
	blt	s2,zero,.L30
	.loc 1 109 18
	lbu	s5,22(a0)
	.loc 1 111 16
	li	s8,12
	mv	s0,a0
	.loc 1 107 5 is_stmt 1
	.loc 1 108 5
	.loc 1 109 5
.LVL28:
	.loc 1 111 5
	.loc 1 109 9 is_stmt 0
	addi	s4,s5,1
	.loc 1 111 16
	mul	s3,s4,s8
	mv	a0,s3
.LVL29:
	call	pvPortMalloc
.LVL30:
	mv	s1,a0
.LVL31:
	.loc 1 112 5 is_stmt 1
	.loc 1 112 24 is_stmt 0
	slli	a0,s4,3
	call	pvPortMalloc
.LVL32:
	mv	s4,a0
.LVL33:
	.loc 1 114 5 is_stmt 1
	.loc 1 114 8 is_stmt 0
	beq	s1,zero,.L28
	.loc 1 114 25 discriminator 1
	bne	a0,zero,.L29
.L28:
	.loc 1 115 9 is_stmt 1
	lui	a0,%hi(.LC1)
.LVL34:
	addi	a0,a0,%lo(.LC1)
	call	printf
.LVL35:
	.loc 1 116 9
	mv	a0,s1
	call	vPortFree
.LVL36:
	.loc 1 117 9
	mv	a0,s4
	call	vPortFree
.LVL37:
	.loc 1 118 9
	.loc 1 118 16 is_stmt 0
	li	a0,-12
.LVL38:
.L26:
	.loc 1 144 1
	lw	ra,44(sp)
	.cfi_remember_state
	.cfi_restore 1
	lw	s0,40(sp)
	.cfi_restore 8
	lw	s1,36(sp)
	.cfi_restore 9
	lw	s2,32(sp)
	.cfi_restore 18
.LVL39:
	lw	s3,28(sp)
	.cfi_restore 19
	lw	s4,24(sp)
	.cfi_restore 20
	lw	s5,20(sp)
	.cfi_restore 21
	lw	s6,16(sp)
	.cfi_restore 22
.LVL40:
	lw	s7,12(sp)
	.cfi_restore 23
.LVL41:
	lw	s8,8(sp)
	.cfi_restore 24
	addi	sp,sp,48
	.cfi_def_cfa_offset 0
	jr	ra
.LVL42:
.L29:
	.cfi_restore_state
	.loc 1 121 5 is_stmt 1
	.loc 1 121 18 is_stmt 0
	li	a2,0
	li	a1,3
	mv	a0,s2
.LVL43:
	call	aos_fcntl
.LVL44:
	.loc 1 122 5 is_stmt 1
	li	a2,16384
	or	a2,a0,a2
	li	a1,4
	mv	a0,s2
.LVL45:
	call	aos_fcntl
.LVL46:
	.loc 1 124 5
	.loc 1 126 5 is_stmt 0
	mul	a2,s5,s8
	.loc 1 124 22
	lbu	a5,22(s0)
	.loc 1 126 5
	lw	a1,12(s0)
	mv	a0,s1
	.loc 1 124 22
	addi	a5,a5,1
	sb	a5,22(s0)
	.loc 1 126 5 is_stmt 1
	.loc 1 134 14 is_stmt 0
	addi	s3,s3,-12
	.loc 1 126 5
	call	memcpy
.LVL47:
	.loc 1 127 5 is_stmt 1
	lw	a0,12(s0)
	call	vPortFree
.LVL48:
	.loc 1 128 5
	.loc 1 130 5 is_stmt 0
	lw	a1,8(s0)
	.loc 1 128 18
	sw	s1,12(s0)
	.loc 1 130 5 is_stmt 1
	slli	a2,s5,3
	mv	a0,s4
	call	memcpy
.LVL49:
	.loc 1 131 5
	lw	a0,8(s0)
	.loc 1 134 14 is_stmt 0
	add	s1,s1,s3
.LVL50:
	.loc 1 131 5
	call	vPortFree
.LVL51:
	.loc 1 132 5 is_stmt 1
	.loc 1 132 18 is_stmt 0
	sw	s4,8(s0)
	.loc 1 134 5 is_stmt 1
.LVL52:
	.loc 1 135 5
	.loc 1 135 20 is_stmt 0
	sw	s2,0(s1)
	.loc 1 136 5 is_stmt 1
	.loc 1 136 28 is_stmt 0
	sw	s7,4(s1)
	.loc 1 137 5 is_stmt 1
	.loc 1 137 18 is_stmt 0
	sw	s6,8(s1)
	.loc 1 139 5 is_stmt 1
	.loc 1 139 19 is_stmt 0
	lhu	a5,20(s0)
	.loc 1 143 12
	li	a0,0
	.loc 1 139 8
	bge	a5,s2,.L26
	.loc 1 140 9 is_stmt 1
	.loc 1 140 23 is_stmt 0
	sh	s2,20(s0)
	j	.L26
.LVL53:
.L30:
	.loc 1 104 16
	li	a0,-22
.LVL54:
	j	.L26
	.cfi_endproc
.LFE26:
	.size	aos_poll_read_fd, .-aos_poll_read_fd
	.section	.text.aos_cancel_poll_read_fd,"ax",@progbits
	.align	1
	.globl	aos_cancel_poll_read_fd
	.type	aos_cancel_poll_read_fd, @function
aos_cancel_poll_read_fd:
.LFB27:
	.loc 1 147 1 is_stmt 1
	.cfi_startproc
.LVL55:
	.loc 1 148 5
	.loc 1 147 1 is_stmt 0
	addi	sp,sp,-16
	.cfi_def_cfa_offset 16
	sw	s1,4(sp)
	sw	ra,12(sp)
	sw	s0,8(sp)
	.cfi_offset 9, -12
	.cfi_offset 1, -4
	.cfi_offset 8, -8
	.loc 1 147 1
	mv	s1,a0
	.loc 1 148 24
	call	get_context
.LVL56:
	.loc 1 149 5 is_stmt 1
	.loc 1 149 12 is_stmt 0
	lw	a3,12(a0)
	.loc 1 149 8
	beq	a3,zero,.L36
	.loc 1 149 35 discriminator 1
	lbu	a5,22(a0)
	mv	s0,a0
	.loc 1 149 29 discriminator 1
	beq	a5,zero,.L36
	.loc 1 154 12
	li	a4,0
	.loc 1 155 28
	li	a1,12
.L38:
.LVL57:
	.loc 1 154 5 discriminator 1
	bgt	a5,a4,.L42
	.loc 1 160 5 is_stmt 1
	.loc 1 160 8 is_stmt 0
	bne	a5,a4,.L43
.LVL58:
.L36:
	.loc 1 171 1
	lw	ra,12(sp)
	.cfi_remember_state
	.cfi_restore 1
	lw	s0,8(sp)
	.cfi_restore 8
	lw	s1,4(sp)
	.cfi_restore 9
.LVL59:
	addi	sp,sp,16
	.cfi_def_cfa_offset 0
	jr	ra
.LVL60:
.L42:
	.cfi_restore_state
	.loc 1 155 9 is_stmt 1
	.loc 1 155 28 is_stmt 0
	mul	a2,a4,a1
	add	a2,a3,a2
	.loc 1 155 12
	lw	a2,0(a2)
	bne	a2,s1,.L39
.L43:
	.loc 1 164 5 is_stmt 1
	.loc 1 164 32 is_stmt 0
	addi	a2,a5,-1
	.loc 1 164 8
	beq	a2,a4,.L41
	.loc 1 165 9 is_stmt 1
	.loc 1 165 30 is_stmt 0
	li	a2,12
	mul	a0,a4,a2
	.loc 1 166 36
	sub	a5,a5,a4
	.loc 1 166 40
	addi	a5,a5,-1
	.loc 1 165 9
	mul	a2,a5,a2
	addi	a1,a0,12
	add	a1,a3,a1
	add	a0,a3,a0
	call	memmove
.LVL61:
.L41:
	.loc 1 170 5 is_stmt 1
	.loc 1 170 22 is_stmt 0
	lbu	a5,22(s0)
	addi	a5,a5,-1
	sb	a5,22(s0)
	j	.L36
.LVL62:
.L39:
	.loc 1 154 41 discriminator 2
	addi	a4,a4,1
.LVL63:
	j	.L38
	.cfi_endproc
.LFE27:
	.size	aos_cancel_poll_read_fd, .-aos_cancel_poll_read_fd
	.section	.text.aos_post_delayed_action,"ax",@progbits
	.align	1
	.globl	aos_post_delayed_action
	.type	aos_post_delayed_action, @function
aos_post_delayed_action:
.LFB28:
	.loc 1 174 1 is_stmt 1
	.cfi_startproc
.LVL64:
	.loc 1 175 5
	.loc 1 175 8 is_stmt 0
	beq	a1,zero,.L58
	.loc 1 174 1
	addi	sp,sp,-32
	.cfi_def_cfa_offset 32
	sw	ra,28(sp)
	sw	s0,24(sp)
	sw	s1,20(sp)
	sw	s2,16(sp)
	sw	s3,12(sp)
	sw	s4,8(sp)
	.cfi_offset 1, -4
	.cfi_offset 8, -8
	.cfi_offset 9, -12
	.cfi_offset 18, -16
	.cfi_offset 19, -20
	.cfi_offset 20, -24
	mv	s3,a2
	mv	s2,a1
	mv	s1,a0
	.loc 1 179 5 is_stmt 1
	.loc 1 179 24 is_stmt 0
	call	get_context
.LVL65:
	mv	s4,a0
.LVL66:
	.loc 1 180 5 is_stmt 1
	.loc 1 180 32 is_stmt 0
	li	a0,32
.LVL67:
	call	pvPortMalloc
.LVL68:
	mv	s0,a0
.LVL69:
	.loc 1 181 5 is_stmt 1
	.loc 1 182 16 is_stmt 0
	li	a0,-12
	.loc 1 181 8
	beq	s0,zero,.L51
	.loc 1 185 5 is_stmt 1
	.loc 1 185 27 is_stmt 0
	call	aos_now_ms
.LVL70:
	.loc 1 185 40
	srai	a5,s1,31
	add	a0,s1,a0
	add	a1,a5,a1
	sltu	a4,a0,s1
	add	a4,a4,a1
	.loc 1 185 25
	sw	a0,8(s0)
	sw	a4,12(s0)
	.loc 1 186 5 is_stmt 1
	.loc 1 186 27 is_stmt 0
	sw	s3,16(s0)
	.loc 1 187 5 is_stmt 1
	.loc 1 187 17 is_stmt 0
	sw	s2,20(s0)
	.loc 1 188 5 is_stmt 1
	.loc 1 188 17 is_stmt 0
	sw	s1,24(s0)
	.loc 1 190 5 is_stmt 1
	.loc 1 192 5
	.loc 1 192 14 is_stmt 0
	lw	a5,4(s4)
.LVL71:
.L53:
	.loc 1 192 5 discriminator 1
	beq	a5,s4,.L57
	.loc 1 193 9 is_stmt 1
	.loc 1 193 12 is_stmt 0
	lw	a3,12(a5)
	bgt	a3,a4,.L57
	bne	a3,a4,.L54
	lw	a3,8(a5)
	bleu	a3,a0,.L54
.L57:
	.loc 1 198 5 is_stmt 1
.LVL72:
.LBB62:
.LBB63:
	.loc 2 63 5
	.loc 2 63 28 is_stmt 0
	lw	a4,0(a5)
.LVL73:
.LBB64:
.LBB65:
	.loc 2 38 5 is_stmt 1
	.loc 2 38 16 is_stmt 0
	sw	a5,4(s0)
	.loc 2 39 5 is_stmt 1
.LBE65:
.LBE64:
.LBE63:
.LBE62:
	.loc 1 200 12 is_stmt 0
	li	a0,0
.LBB69:
.LBB68:
.LBB67:
.LBB66:
	.loc 2 39 16
	sw	a4,0(s0)
	.loc 2 41 5 is_stmt 1
	.loc 2 41 16 is_stmt 0
	sw	s0,4(a4)
	.loc 2 42 5 is_stmt 1
	.loc 2 42 16 is_stmt 0
	sw	s0,0(a5)
.LVL74:
.LBE66:
.LBE67:
.LBE68:
.LBE69:
	.loc 1 200 5 is_stmt 1
.L51:
	.loc 1 201 1 is_stmt 0
	lw	ra,28(sp)
	.cfi_remember_state
	.cfi_restore 1
	lw	s0,24(sp)
	.cfi_restore 8
.LVL75:
	lw	s1,20(sp)
	.cfi_restore 9
.LVL76:
	lw	s2,16(sp)
	.cfi_restore 18
.LVL77:
	lw	s3,12(sp)
	.cfi_restore 19
.LVL78:
	lw	s4,8(sp)
	.cfi_restore 20
.LVL79:
	addi	sp,sp,32
	.cfi_def_cfa_offset 0
	jr	ra
.LVL80:
.L54:
	.cfi_restore_state
	.loc 1 192 155 discriminator 2
	lw	a5,4(a5)
.LVL81:
	j	.L53
.LVL82:
.L58:
	.cfi_def_cfa_offset 0
	.cfi_restore 1
	.cfi_restore 8
	.cfi_restore 9
	.cfi_restore 18
	.cfi_restore 19
	.cfi_restore 20
	.loc 1 176 16
	li	a0,-22
.LVL83:
	.loc 1 201 1
	ret
	.cfi_endproc
.LFE28:
	.size	aos_post_delayed_action, .-aos_post_delayed_action
	.section	.text.aos_cancel_delayed_action,"ax",@progbits
	.align	1
	.globl	aos_cancel_delayed_action
	.type	aos_cancel_delayed_action, @function
aos_cancel_delayed_action:
.LFB29:
	.loc 1 204 1 is_stmt 1
	.cfi_startproc
.LVL84:
	.loc 1 205 5
	.loc 1 204 1 is_stmt 0
	addi	sp,sp,-32
	.cfi_def_cfa_offset 32
	sw	s0,24(sp)
	sw	a1,12(sp)
	sw	a2,8(sp)
	sw	ra,28(sp)
	.cfi_offset 8, -8
	.cfi_offset 1, -4
	.loc 1 204 1
	mv	s0,a0
	.loc 1 205 24
	call	get_context
.LVL85:
	.loc 1 206 5 is_stmt 1
	.loc 1 208 5
	.loc 1 208 14 is_stmt 0
	lw	a5,4(a0)
.LVL86:
	.loc 1 208 5
	lw	a2,8(sp)
	lw	a1,12(sp)
	.loc 1 209 12
	li	a4,-1
.L65:
	.loc 1 208 5 discriminator 1
	bne	a5,a0,.L68
	.loc 1 225 1
	lw	ra,28(sp)
	.cfi_remember_state
	.cfi_restore 1
	lw	s0,24(sp)
	.cfi_restore 8
.LVL87:
	addi	sp,sp,32
	.cfi_def_cfa_offset 0
.LVL88:
	jr	ra
.LVL89:
.L68:
	.cfi_restore_state
	.loc 1 209 9 is_stmt 1
	.loc 1 209 12 is_stmt 0
	beq	s0,a4,.L66
	.loc 1 209 22 discriminator 1
	lw	a3,24(a5)
	bne	a3,s0,.L67
.L66:
	.loc 1 213 9 is_stmt 1
	.loc 1 213 12 is_stmt 0
	lw	a3,20(a5)
	bne	a3,a1,.L67
	.loc 1 217 9 is_stmt 1
	.loc 1 217 12 is_stmt 0
	lw	a3,16(a5)
	bne	a3,a2,.L67
	.loc 1 221 9 is_stmt 1
.LVL90:
.LBB72:
.LBB73:
	.loc 2 68 5
	.loc 2 68 14 is_stmt 0
	lw	a3,0(a5)
.LVL91:
	.loc 2 69 5 is_stmt 1
	.loc 2 69 14 is_stmt 0
	lw	a4,4(a5)
.LVL92:
	.loc 2 71 5 is_stmt 1
.LBE73:
.LBE72:
	.loc 1 222 9 is_stmt 0
	mv	a0,a5
.LVL93:
.LBB75:
.LBB74:
	.loc 2 71 16
	sw	a4,4(a3)
	.loc 2 72 5 is_stmt 1
	.loc 2 72 16 is_stmt 0
	sw	a3,0(a4)
.LVL94:
.LBE74:
.LBE75:
	.loc 1 222 9 is_stmt 1
	.loc 1 225 1 is_stmt 0
	lw	s0,24(sp)
	.cfi_remember_state
	.cfi_restore 8
.LVL95:
	lw	ra,28(sp)
	.cfi_restore 1
	addi	sp,sp,32
	.cfi_def_cfa_offset 0
.LVL96:
	.loc 1 222 9
	tail	vPortFree
.LVL97:
.L67:
	.cfi_restore_state
	.loc 1 208 155 discriminator 2
	lw	a5,4(a5)
.LVL98:
	j	.L65
	.cfi_endproc
.LFE29:
	.size	aos_cancel_delayed_action, .-aos_cancel_delayed_action
	.section	.text.aos_loop_run,"ax",@progbits
	.align	1
	.globl	aos_loop_run
	.type	aos_loop_run, @function
aos_loop_run:
.LFB30:
	.loc 1 228 1 is_stmt 1
	.cfi_startproc
	.loc 1 229 5
	.loc 1 228 1 is_stmt 0
	addi	sp,sp,-32
	.cfi_def_cfa_offset 32
	sw	s0,24(sp)
	sw	s3,12(sp)
	sw	s4,8(sp)
	sw	s5,4(sp)
	sw	ra,28(sp)
	sw	s1,20(sp)
	sw	s2,16(sp)
	sw	s6,0(sp)
	.cfi_offset 8, -8
	.cfi_offset 19, -20
	.cfi_offset 20, -24
	.cfi_offset 21, -28
	.cfi_offset 1, -4
	.cfi_offset 9, -12
	.cfi_offset 18, -16
	.cfi_offset 22, -32
	.loc 1 229 24
	call	get_context
.LVL99:
	mv	s0,a0
.LVL100:
	.loc 1 231 5 is_stmt 1
.LBB85:
	.loc 1 249 49 is_stmt 0
	li	s3,12
	.loc 1 250 36
	li	s4,1
	.loc 1 255 21
	li	s5,4
.L81:
.LBE85:
	.loc 1 231 11
	lbu	a5,24(s0)
	bne	a5,zero,.L85
.LVL101:
.LBB93:
.LBB94:
	.loc 2 88 5 is_stmt 1 discriminator 1
	.loc 2 88 16 is_stmt 0 discriminator 1
	lw	s1,4(s0)
.LVL102:
	lbu	s2,22(s0)
.LBE94:
.LBE93:
	.loc 1 231 28 discriminator 1
	bne	s0,s1,.L86
	.loc 1 232 42
	bne	s2,zero,.L86
.L85:
	.loc 1 285 5 is_stmt 1
	.loc 1 285 20 is_stmt 0
	sb	zero,24(s0)
	.loc 1 286 1
	lw	ra,28(sp)
	.cfi_remember_state
	.cfi_restore 1
	lw	s0,24(sp)
	.cfi_restore 8
.LVL103:
	lw	s1,20(sp)
	.cfi_restore 9
	lw	s2,16(sp)
	.cfi_restore 18
	lw	s3,12(sp)
	.cfi_restore 19
	lw	s4,8(sp)
	.cfi_restore 20
	lw	s5,4(sp)
	.cfi_restore 21
	lw	s6,0(sp)
	.cfi_restore 22
	addi	sp,sp,32
	.cfi_def_cfa_offset 0
	jr	ra
.LVL104:
.L86:
	.cfi_restore_state
.LBB95:
	.loc 1 233 9 is_stmt 1
	.loc 1 234 9
	.loc 1 235 9
	.loc 1 237 9
.LBE95:
	.loc 2 88 5
.LBB96:
	.loc 1 233 13 is_stmt 0
	li	a2,-1
	.loc 1 237 12
	beq	s0,s1,.L72
.LBB86:
	.loc 1 238 13 is_stmt 1
.LVL105:
	.loc 1 239 13
	.loc 1 239 29 is_stmt 0
	call	aos_now_ms
.LVL106:
	.loc 1 241 13 is_stmt 1
	.loc 1 241 26 is_stmt 0
	lw	a5,12(s1)
	lw	a2,8(s1)
	.loc 1 241 16
	bgt	a5,a1,.L89
	bne	a5,a1,.L88
	bleu	a2,a0,.L88
.L89:
	.loc 1 242 17 is_stmt 1
	.loc 1 242 46 is_stmt 0
	sub	a2,a2,a0
.LVL107:
.L72:
.LBE86:
	.loc 1 248 9 is_stmt 1
	.loc 1 248 16 is_stmt 0
	li	a5,0
.LVL108:
.L74:
	lw	a0,8(s0)
	.loc 1 248 9 discriminator 1
	blt	a5,s2,.L75
	.loc 1 253 9 is_stmt 1
	.loc 1 253 19 is_stmt 0
	mv	a1,s2
	call	aos_poll
.LVL109:
	mv	s6,a0
.LVL110:
	.loc 1 255 9 is_stmt 1
	.loc 1 255 12 is_stmt 0
	bge	a0,zero,.L76
	.loc 1 255 26 discriminator 1
	call	__errno
.LVL111:
	.loc 1 255 21 discriminator 1
	lw	a5,0(a0)
	beq	a5,s5,.L76
	.loc 1 256 13 is_stmt 1
.LBE96:
	.loc 1 286 1 is_stmt 0
	lw	s0,24(sp)
	.cfi_remember_state
	.cfi_restore 8
.LVL112:
	lw	ra,28(sp)
	.cfi_restore 1
	lw	s1,20(sp)
	.cfi_restore 9
	lw	s2,16(sp)
	.cfi_restore 18
.LVL113:
	lw	s3,12(sp)
	.cfi_restore 19
	lw	s4,8(sp)
	.cfi_restore 20
	lw	s5,4(sp)
	.cfi_restore 21
	lw	s6,0(sp)
	.cfi_restore 22
.LVL114:
.LBB97:
	.loc 1 256 13
	lui	a0,%hi(.LC2)
.LBE97:
	.loc 1 286 1
.LBB98:
	.loc 1 256 13
	addi	a0,a0,%lo(.LC2)
.LBE98:
	.loc 1 286 1
	addi	sp,sp,32
	.cfi_def_cfa_offset 0
.LBB99:
	.loc 1 256 13
	tail	printf
.LVL115:
.L88:
	.cfi_restore_state
.LBB87:
	.loc 1 244 28
	li	a2,0
	j	.L72
.LVL116:
.L75:
.LBE87:
	.loc 1 249 13 is_stmt 1 discriminator 3
	.loc 1 249 49 is_stmt 0 discriminator 3
	mul	a4,a5,s3
	lw	a3,12(s0)
	slli	a1,a5,3
	.loc 1 249 32 discriminator 3
	add	a0,a0,a1
	.loc 1 248 35 discriminator 3
	addi	a5,a5,1
.LVL117:
	.loc 1 249 49 discriminator 3
	add	a3,a3,a4
	lw	a4,0(a3)
	.loc 1 249 32 discriminator 3
	sw	a4,0(a0)
	.loc 1 250 13 is_stmt 1 discriminator 3
.LVL118:
	.loc 1 250 36 is_stmt 0 discriminator 3
	lw	a4,8(s0)
	add	a4,a4,a1
	sh	s4,4(a4)
	j	.L74
.LVL119:
.L76:
	.loc 1 261 9 is_stmt 1
.LBB88:
.LBB89:
	.loc 2 88 5
	.loc 2 88 16 is_stmt 0
	lw	s1,4(s0)
.LVL120:
.LBE89:
.LBE88:
	.loc 1 261 12
	beq	s0,s1,.L78
.LBB90:
	.loc 1 262 13 is_stmt 1
.LVL121:
	.loc 1 263 13
	.loc 1 263 29 is_stmt 0
	call	aos_now_ms
.LVL122:
	.loc 1 265 13 is_stmt 1
	.loc 1 265 16 is_stmt 0
	lw	a5,12(s1)
	bgt	a5,a1,.L78
	bne	a5,a1,.L90
	lw	a5,8(s1)
	bgtu	a5,a0,.L78
.L90:
	.loc 1 266 17 is_stmt 1
.LVL123:
.LBB91:
.LBB92:
	.loc 2 68 5
	.loc 2 69 14 is_stmt 0
	lw	a5,4(s1)
	.loc 2 68 14
	lw	a4,0(s1)
.LVL124:
	.loc 2 69 5 is_stmt 1
	.loc 2 71 5
	.loc 2 71 16 is_stmt 0
	sw	a5,4(a4)
	.loc 2 72 5 is_stmt 1
	.loc 2 72 16 is_stmt 0
	sw	a4,0(a5)
.LVL125:
.LBE92:
.LBE91:
	.loc 1 267 17 is_stmt 1
	lw	a0,16(s1)
.LVL126:
	lw	a5,20(s1)
	jalr	a5
.LVL127:
	.loc 1 268 17
	mv	a0,s1
	call	vPortFree
.LVL128:
.L78:
.LBE90:
	.loc 1 272 9
	.loc 1 276 16 is_stmt 0
	li	s1,0
	.loc 1 272 12
	ble	s6,zero,.L81
.L82:
.LVL129:
	.loc 1 276 9 discriminator 1
	beq	s1,s2,.L81
	.loc 1 277 13 is_stmt 1
	.loc 1 277 32 is_stmt 0
	lw	a5,8(s0)
	slli	a4,s1,3
	add	a5,a5,a4
	.loc 1 277 16
	lhu	a5,6(a5)
	andi	a5,a5,1
	beq	a5,zero,.L83
	.loc 1 278 17 is_stmt 1
	.loc 1 278 29 is_stmt 0
	mul	a5,s1,s3
	lw	a4,12(s0)
	add	a5,a4,a5
	.loc 1 278 17
	lw	a4,8(a5)
	lw	a1,4(a5)
	lw	a0,0(a5)
	jalr	a4
.LVL130:
.L83:
	.loc 1 276 35 discriminator 2
	addi	s1,s1,1
.LVL131:
	j	.L82
.LBE99:
	.cfi_endproc
.LFE30:
	.size	aos_loop_run, .-aos_loop_run
	.section	.text.aos_loop_exit,"ax",@progbits
	.align	1
	.globl	aos_loop_exit
	.type	aos_loop_exit, @function
aos_loop_exit:
.LFB31:
	.loc 1 289 1 is_stmt 1
	.cfi_startproc
	.loc 1 290 5
	.loc 1 289 1 is_stmt 0
	addi	sp,sp,-16
	.cfi_def_cfa_offset 16
	sw	ra,12(sp)
	.cfi_offset 1, -4
	.loc 1 290 24
	call	get_context
.LVL132:
	.loc 1 291 5 is_stmt 1
	.loc 1 291 20 is_stmt 0
	li	a5,1
	sb	a5,24(a0)
	.loc 1 292 1
	lw	ra,12(sp)
	.cfi_restore 1
	addi	sp,sp,16
	.cfi_def_cfa_offset 0
	jr	ra
	.cfi_endproc
.LFE31:
	.size	aos_loop_exit, .-aos_loop_exit
	.section	.text.aos_loop_destroy,"ax",@progbits
	.align	1
	.globl	aos_loop_destroy
	.type	aos_loop_destroy, @function
aos_loop_destroy:
.LFB32:
	.loc 1 295 1 is_stmt 1
	.cfi_startproc
	.loc 1 296 5
.LBB109:
.LBB110:
	.loc 1 42 5
.LBE110:
.LBE109:
	.loc 1 295 1 is_stmt 0
	addi	sp,sp,-16
	.cfi_def_cfa_offset 16
	sw	s1,4(sp)
	.cfi_offset 9, -12
.LBB113:
.LBB111:
	.loc 1 42 12
	lui	s1,%hi(.LANCHOR0)
	lw	a0,%lo(.LANCHOR0)(s1)
.LBE111:
.LBE113:
	.loc 1 295 1
	sw	ra,12(sp)
	sw	s0,8(sp)
	.cfi_offset 1, -4
	.cfi_offset 8, -8
.LBB114:
.LBB112:
	.loc 1 42 12
	call	aos_task_getspecific
.LVL133:
.LBE112:
.LBE114:
	.loc 1 298 5 is_stmt 1
	.loc 1 298 8 is_stmt 0
	beq	a0,zero,.L98
	mv	s0,a0
	.loc 1 302 5
	lw	a0,16(a0)
.LVL134:
	addi	s1,s1,%lo(.LANCHOR0)
	.loc 1 302 5 is_stmt 1
	call	aos_event_service_deinit
.LVL135:
	.loc 1 304 5
.L100:
.LBB115:
.LBB116:
	.loc 2 88 5
	.loc 2 88 16 is_stmt 0
	lw	a0,4(s0)
.LVL136:
.LBE116:
.LBE115:
	.loc 1 304 11
	bne	s0,a0,.L101
	.loc 1 311 5 is_stmt 1
	lw	a0,12(s0)
	call	vPortFree
.LVL137:
	.loc 1 312 5
	lw	a0,8(s0)
	call	vPortFree
.LVL138:
	.loc 1 314 5
.LBB117:
.LBB118:
	.loc 1 37 5
	lw	a0,0(s1)
	li	a1,0
	call	aos_task_setspecific
.LVL139:
.LBE118:
.LBE117:
	.loc 1 315 5
	.loc 1 315 13 is_stmt 0
	lui	a5,%hi(.LANCHOR1)
	addi	a5,a5,%lo(.LANCHOR1)
	.loc 1 315 8
	lw	a4,0(a5)
	bne	a4,s0,.L102
	.loc 1 316 9 is_stmt 1
	.loc 1 316 20 is_stmt 0
	sw	zero,0(a5)
.L102:
	.loc 1 318 5 is_stmt 1
	mv	a0,s0
	.loc 1 319 1 is_stmt 0
	lw	s0,8(sp)
	.cfi_remember_state
	.cfi_restore 8
.LVL140:
	lw	ra,12(sp)
	.cfi_restore 1
	lw	s1,4(sp)
	.cfi_restore 9
	addi	sp,sp,16
	.cfi_def_cfa_offset 0
	.loc 1 318 5
	tail	vPortFree
.LVL141:
.L101:
	.cfi_restore_state
.LBB119:
	.loc 1 305 9 is_stmt 1
	.loc 1 307 9
.LBB120:
.LBB121:
	.loc 2 68 5
	.loc 2 68 14 is_stmt 0
	lw	a4,0(a0)
.LVL142:
	.loc 2 69 5 is_stmt 1
	.loc 2 69 14 is_stmt 0
	lw	a5,4(a0)
.LVL143:
	.loc 2 71 5 is_stmt 1
	.loc 2 71 16 is_stmt 0
	sw	a5,4(a4)
	.loc 2 72 5 is_stmt 1
	.loc 2 72 16 is_stmt 0
	sw	a4,0(a5)
.LVL144:
.LBE121:
.LBE120:
	.loc 1 308 9 is_stmt 1
	call	vPortFree
.LVL145:
	j	.L100
.LVL146:
.L98:
.LBE119:
	.loc 1 319 1 is_stmt 0
	lw	ra,12(sp)
	.cfi_restore 1
	lw	s0,8(sp)
	.cfi_restore 8
	lw	s1,4(sp)
	.cfi_restore 9
	addi	sp,sp,16
	.cfi_def_cfa_offset 0
	jr	ra
	.cfi_endproc
.LFE32:
	.size	aos_loop_destroy, .-aos_loop_destroy
	.globl	g_main_ctx
	.section	.rodata.aos_loop_init.str1.4,"aMS",@progbits,1
	.align	2
.LC0:
	.string	"yloopyloop already inited"
	.section	.rodata.aos_loop_run.str1.4,"aMS",@progbits,1
	.align	2
.LC2:
	.string	"yloopaos_poll"
	.section	.rodata.aos_poll_read_fd.str1.4,"aMS",@progbits,1
	.align	2
.LC1:
	.string	"yloopout of memory"
	.section	.sbss.g_loop_key,"aw",@nobits
	.align	2
	.set	.LANCHOR0,. + 0
	.type	g_loop_key, @object
	.size	g_loop_key, 4
g_loop_key:
	.zero	4
	.section	.sbss.g_main_ctx,"aw",@nobits
	.align	2
	.set	.LANCHOR1,. + 0
	.type	g_main_ctx, @object
	.size	g_main_ctx, 4
g_main_ctx:
	.zero	4
	.text
.Letext0:
	.file 3 "/b-l/bl_iot_sdk_new/toolchain/riscv/Linux/lib/gcc/riscv64-unknown-elf/8.3.0/include/stddef.h"
	.file 4 "/b-l/bl_iot_sdk_new/toolchain/riscv/Linux/riscv64-unknown-elf/include/sys/_types.h"
	.file 5 "/b-l/bl_iot_sdk_new/toolchain/riscv/Linux/riscv64-unknown-elf/include/sys/reent.h"
	.file 6 "/b-l/bl_iot_sdk_new/toolchain/riscv/Linux/riscv64-unknown-elf/include/sys/lock.h"
	.file 7 "/b-l/bl_iot_sdk_new/toolchain/riscv/Linux/riscv64-unknown-elf/include/stdlib.h"
	.file 8 "/b-l/bl_iot_sdk_new/toolchain/riscv/Linux/lib/gcc/riscv64-unknown-elf/8.3.0/include/stdint-gcc.h"
	.file 9 "/b-l/bl_iot_sdk_new/components/bl602/freertos_riscv_ram/portable/GCC/RISC-V/portmacro.h"
	.file 10 "/b-l/bl_iot_sdk_new/toolchain/riscv/Linux/riscv64-unknown-elf/include/time.h"
	.file 11 "/b-l/bl_iot_sdk_new/components/stage/yloop/include/aos/kernel.h"
	.file 12 "/b-l/bl_iot_sdk_new/components/stage/yloop/include/aos/yloop.h"
	.file 13 "/b-l/bl_iot_sdk_new/components/stage/yloop/include/yloop_types.h"
	.file 14 "/b-l/bl_iot_sdk_new/components/stage/yloop/include/yloop.h"
	.file 15 "/b-l/bl_iot_sdk_new/components/bl602/freertos_riscv_ram/config/portable.h"
	.file 16 "/b-l/bl_iot_sdk_new/components/fs/vfs/include/vfs.h"
	.file 17 "/b-l/bl_iot_sdk_new/components/network/ble/blestack/src/common/include/errno.h"
	.file 18 "/b-l/bl_iot_sdk_new/toolchain/riscv/Linux/riscv64-unknown-elf/include/stdio.h"
	.file 19 "/b-l/bl_iot_sdk_new/toolchain/riscv/Linux/riscv64-unknown-elf/include/string.h"