	.file	"ef_env.c"
	.option nopic
	.attribute arch, "rv32i2p0_m2p0_f2p0_c2p0"
	.attribute unaligned_access, 0
	.attribute stack_align, 16
	.text
.Ltext0:
	.cfi_sections	.debug_frame
	.section	.text.get_status,"ax",@progbits
	.align	1
	.type	get_status, @function
get_status:
.LFB6:
	.file 1 "/home/hogc/build-tools/sdk/bl/bl_iot_sdk/components/stage/easyflash4/src/ef_env.c"
	.loc 1 248 1
	.cfi_startproc
.LVL0:
	.loc 1 249 5
	.loc 1 249 19 is_stmt 0
	addi	a1,a1,-1
.LVL1:
	.loc 1 251 5 is_stmt 1
	.loc 1 251 11 is_stmt 0
	li	a4,-1
.LVL2:
.L2:
	.loc 1 251 23
	addi	a5,a1,-1
.LVL3:
	.loc 1 251 11
	bne	a5,a4,.L3
.L1:
	.loc 1 266 1
	mv	a0,a1
.LVL4:
	ret
.LVL5:
.L3:
	.loc 1 258 9 is_stmt 1
	.loc 1 258 25 is_stmt 0
	add	a3,a0,a5
	lbu	a3,0(a3)
	.loc 1 258 12
	beq	a3,zero,.L1
	mv	a1,a5
	j	.L2
	.cfi_endproc
.LFE6:
	.size	get_status, .-get_status
	.section	.text.update_sector_cache,"ax",@progbits
	.align	1
	.type	update_sector_cache, @function
update_sector_cache:
.LFB9:
	.loc 1 308 1 is_stmt 1
	.cfi_startproc
.LVL6:
	.loc 1 309 5
	.loc 1 311 5
	lui	a5,%hi(.LANCHOR0)
	.loc 1 312 63 is_stmt 0
	li	a6,4096
	addi	a2,a5,%lo(.LANCHOR0)
	.loc 1 309 15
	li	a3,4
	.loc 1 311 12
	li	a4,0
	addi	a5,a5,%lo(.LANCHOR0)
	.loc 1 312 63
	add	a6,a0,a6
	.loc 1 318 23
	li	t3,-1
	.loc 1 318 67
	li	t1,4
.LVL7:
.L11:
	.loc 1 312 9 is_stmt 1
	lw	a7,0(a2)
	.loc 1 312 12 is_stmt 0
	bleu	a1,a0,.L7
	.loc 1 312 37 discriminator 1
	bleu	a6,a1,.L7
	.loc 1 314 13 is_stmt 1
	.loc 1 314 16 is_stmt 0
	bne	a0,a7,.L8
	.loc 1 315 17 is_stmt 1
	.loc 1 316 17
	.loc 1 316 50 is_stmt 0
	slli	a4,a4,3
.LVL8:
	add	a5,a5,a4
.LVL9:
.L13:
	.loc 1 330 9 is_stmt 1
	.loc 1 330 52 is_stmt 0
	sw	a1,4(a5)
.L6:
	.loc 1 332 1
	ret
.LVL10:
.L8:
	.loc 1 318 20 is_stmt 1
	.loc 1 318 23 is_stmt 0
	bne	a7,t3,.L10
	.loc 1 318 67 discriminator 1
	bne	a3,t1,.L10
	.loc 1 318 67
	mv	a3,a4
.LVL11:
.L10:
	.loc 1 311 25 discriminator 2
	addi	a4,a4,1
.LVL12:
	addi	a2,a2,8
	.loc 1 311 5 discriminator 2
	bne	a4,t1,.L11
	.loc 1 328 5 is_stmt 1
	.loc 1 328 8 is_stmt 0
	beq	a3,a4,.L6
	.loc 1 329 9 is_stmt 1
	.loc 1 329 46 is_stmt 0
	slli	a3,a3,3
.LVL13:
	add	a5,a5,a3
	sw	a0,0(a5)
	j	.L13
.LVL14:
.L7:
	.loc 1 321 16 is_stmt 1
	.loc 1 321 19 is_stmt 0
	bne	a0,a7,.L10
	.loc 1 323 13 is_stmt 1
	.loc 1 323 40 is_stmt 0
	slli	a4,a4,3
.LVL15:
	add	a5,a5,a4
	li	a4,-1
	sw	a4,0(a5)
	.loc 1 324 13 is_stmt 1
	ret
	.cfi_endproc
.LFE9:
	.size	update_sector_cache, .-update_sector_cache
	.section	.text.get_next_sector_addr,"ax",@progbits
	.align	1
	.type	get_next_sector_addr, @function
get_next_sector_addr:
.LFB18:
	.loc 1 659 1
	.cfi_startproc
.LVL16:
	.loc 1 660 5
	.loc 1 662 5
	.loc 1 662 16 is_stmt 0
	lw	a5,4(a0)
	lui	a4,%hi(.LANCHOR1)
	.loc 1 662 8
	li	a3,-1
	lw	a4,%lo(.LANCHOR1)(a4)
	beq	a5,a3,.L18
	.loc 1 666 9 is_stmt 1
	.loc 1 666 20 is_stmt 0
	lw	a0,12(a0)
.LVL17:
	.loc 1 666 12
	bne	a0,a3,.L16
	.loc 1 667 13 is_stmt 1
	.loc 1 667 23 is_stmt 0
	li	a0,4096
.L19:
	.loc 1 669 23
	add	a0,a0,a5
.LVL18:
	.loc 1 672 9 is_stmt 1
	.loc 1 672 40 is_stmt 0
	li	a5,32768
	add	a4,a4,a5
	.loc 1 672 12
	bgtu	a4,a0,.L14
	.loc 1 676 20
	li	a0,-1
.LVL19:
	ret
.L16:
	.loc 1 669 13 is_stmt 1
	.loc 1 669 59 is_stmt 0
	slli	a0,a0,12
	j	.L19
.LVL20:
.L18:
	.loc 1 663 16
	mv	a0,a4
.LVL21:
.L14:
	.loc 1 679 1
	ret
	.cfi_endproc
.LFE18:
	.size	get_next_sector_addr, .-get_next_sector_addr
	.section	.text.gc_check_cb,"ax",@progbits
	.align	1
	.type	gc_check_cb, @function
gc_check_cb:
.LFB40:
	.loc 1 1223 1 is_stmt 1
	.cfi_startproc
.LVL22:
	.loc 1 1224 5
	.loc 1 1226 5
	.loc 1 1226 8 is_stmt 0
	lbu	a5,0(a0)
	beq	a5,zero,.L21
	.loc 1 1227 9 is_stmt 1
	.loc 1 1227 33 is_stmt 0
	lw	a5,0(a1)
	addi	a5,a5,1
	.loc 1 1227 20
	sw	a5,0(a1)
.L21:
	.loc 1 1230 5 is_stmt 1
	.loc 1 1232 1 is_stmt 0
	li	a0,0
.LVL23:
	ret
	.cfi_endproc
.LFE40:
	.size	gc_check_cb, .-gc_check_cb
	.section	.text.update_env_cache,"ax",@progbits
	.align	1
	.type	update_env_cache, @function
update_env_cache:
.LFB11:
	.loc 1 354 1 is_stmt 1
	.cfi_startproc
.LVL24:
	.loc 1 355 5
	.loc 1 356 5
	.loc 1 354 1 is_stmt 0
	addi	sp,sp,-16
	.cfi_def_cfa_offset 16
	sw	s0,8(sp)
	.cfi_offset 8, -8
	mv	s0,a2
	.loc 1 356 37
	mv	a2,a1
.LVL25:
	mv	a1,a0
.LVL26:
	li	a0,0
.LVL27:
	.loc 1 354 1
	sw	ra,12(sp)
	.cfi_offset 1, -4
	.loc 1 356 37
	call	ef_calc_crc32
.LVL28:
	lui	a4,%hi(.LANCHOR2)
	.loc 1 356 78
	li	a7,65536
	.loc 1 356 14
	srli	a0,a0,16
.LVL29:
	.loc 1 358 5 is_stmt 1
	addi	a2,a4,%lo(.LANCHOR2)
	.loc 1 356 78 is_stmt 0
	addi	a7,a7,-1
	.loc 1 355 33
	li	a6,16
	.loc 1 355 15
	li	a1,16
	.loc 1 358 12
	li	a3,0
	addi	a5,a4,%lo(.LANCHOR2)
	.loc 1 359 12
	li	t3,-1
	.loc 1 364 64
	li	t1,16
.LVL30:
.L33:
	.loc 1 359 9 is_stmt 1
	.loc 1 361 16 is_stmt 0
	lhu	a4,0(a2)
	.loc 1 359 12
	beq	s0,t3,.L26
	.loc 1 361 13 is_stmt 1
	.loc 1 361 16 is_stmt 0
	bne	a4,a0,.L27
	.loc 1 362 17 is_stmt 1
	.loc 1 362 41 is_stmt 0
	slli	a3,a3,3
.LVL31:
	add	a5,a5,a3
	sw	s0,4(a5)
	.loc 1 363 17 is_stmt 1
.LVL32:
.L25:
	.loc 1 392 1 is_stmt 0
	lw	ra,12(sp)
	.cfi_remember_state
	.cfi_restore 1
	lw	s0,8(sp)
	.cfi_restore 8
.LVL33:
	addi	sp,sp,16
	.cfi_def_cfa_offset 0
	jr	ra
.LVL34:
.L27:
	.cfi_restore_state
	.loc 1 364 20 is_stmt 1
	.loc 1 364 23 is_stmt 0
	lw	a4,4(a2)
	bne	a4,t3,.L29
	.loc 1 364 64 discriminator 1
	bne	a1,t1,.L31
	.loc 1 364 64
	mv	a1,a3
.LVL35:
	j	.L31
.LVL36:
.L29:
	.loc 1 366 20 is_stmt 1
	.loc 1 367 17
	.loc 1 367 39 is_stmt 0
	lhu	a4,2(a2)
	.loc 1 367 20
	beq	a4,zero,.L32
	.loc 1 368 21 is_stmt 1
	.loc 1 368 46 is_stmt 0
	addi	a4,a4,-1
	sh	a4,2(a2)
.L32:
	.loc 1 370 17 is_stmt 1
	.loc 1 370 39 is_stmt 0
	lhu	a4,2(a2)
	.loc 1 370 20
	bgeu	a4,a7,.L31
	mv	a7,a4
.LVL37:
	mv	a6,a3
.LVL38:
.L31:
	.loc 1 358 26 discriminator 2
	addi	a3,a3,1
.LVL39:
	addi	a2,a2,8
	.loc 1 358 5 discriminator 2
	bne	a3,t1,.L33
	.loc 1 383 5 is_stmt 1
	.loc 1 383 8 is_stmt 0
	beq	a1,a3,.L34
	.loc 1 384 9 is_stmt 1
	.loc 1 384 43 is_stmt 0
	slli	a1,a1,3
.LVL40:
	add	a5,a5,a1
.LVL41:
.L41:
	.loc 1 388 50
	sw	s0,4(a5)
	.loc 1 389 9 is_stmt 1
	.loc 1 389 54 is_stmt 0
	sh	a0,0(a5)
	j	.L40
.LVL42:
.L26:
	.loc 1 375 16 is_stmt 1
	.loc 1 375 19 is_stmt 0
	bne	a4,a0,.L31
	.loc 1 377 13 is_stmt 1
	.loc 1 377 37 is_stmt 0
	slli	a3,a3,3
.LVL43:
	add	a5,a5,a3
	sw	s0,4(a5)
	.loc 1 378 13 is_stmt 1
.LVL44:
.L40:
	.loc 1 390 9
	.loc 1 390 52 is_stmt 0
	sh	zero,2(a5)
	j	.L25
.LVL45:
.L34:
	.loc 1 387 12 is_stmt 1
	.loc 1 387 15 is_stmt 0
	beq	a6,a1,.L25
	.loc 1 388 9 is_stmt 1
	.loc 1 388 50 is_stmt 0
	slli	a6,a6,3
.LVL46:
	add	a5,a5,a6
	j	.L41
	.cfi_endproc
.LFE11:
	.size	update_env_cache, .-update_env_cache
	.section	.text.find_env_cb,"ax",@progbits
	.align	1
	.type	find_env_cb, @function
find_env_cb:
.LFB20:
	.loc 1 712 1 is_stmt 1
	.cfi_startproc
.LVL47:
	.loc 1 713 5
	.loc 1 714 4
	.loc 1 712 1 is_stmt 0
	addi	sp,sp,-32
	.cfi_def_cfa_offset 32
	sw	s0,24(sp)
	.cfi_offset 8, -8
	mv	s0,a0
	.loc 1 715 22
	mv	a0,a1
.LVL48:
	.loc 1 712 1
	sw	s2,16(sp)
	.loc 1 715 22
	sw	a1,12(sp)
	.cfi_offset 18, -16
	.loc 1 712 1
	mv	s2,a2
.LVL49:
	.loc 1 715 5 is_stmt 1
	.loc 1 712 1 is_stmt 0
	sw	ra,28(sp)
	sw	s1,20(sp)
	.cfi_offset 1, -4
	.cfi_offset 9, -12
	.loc 1 715 22
	call	strlen
.LVL50:
	.loc 1 717 5 is_stmt 1
	.loc 1 717 23 is_stmt 0
	lbu	a2,2(s0)
	.loc 1 717 8
	lw	a1,12(sp)
	beq	a2,a0,.L43
.LVL51:
.L45:
	.loc 1 718 15
	li	s1,0
.L44:
	.loc 1 726 1
	lw	ra,28(sp)
	.cfi_remember_state
	.cfi_restore 1
	lw	s0,24(sp)
	.cfi_restore 8
.LVL52:
	mv	a0,s1
	lw	s2,16(sp)
	.cfi_restore 18
.LVL53:
	lw	s1,20(sp)
	.cfi_restore 9
	addi	sp,sp,32
	.cfi_def_cfa_offset 0
.LVL54:
	jr	ra
.LVL55:
.L43:
	.cfi_restore_state
	.loc 1 721 5 is_stmt 1
	.loc 1 721 12 is_stmt 0
	lbu	s1,1(s0)
	.loc 1 721 8
	beq	s1,zero,.L45
	.loc 1 721 24 discriminator 1
	lbu	a4,0(s0)
	li	a5,2
	bne	a4,a5,.L45
	.loc 1 721 56 discriminator 2
	addi	a0,s0,16
.LVL56:
	call	strncmp
.LVL57:
	.loc 1 721 52 discriminator 2
	bne	a0,zero,.L45
	.loc 1 722 9 is_stmt 1
	.loc 1 722 18 is_stmt 0
	li	a5,1
	sb	a5,0(s2)
	.loc 1 723 9 is_stmt 1
	.loc 1 723 15 is_stmt 0
	j	.L44
	.cfi_endproc
.LFE20:
	.size	find_env_cb, .-find_env_cb
	.section	.text.sector_statistics_cb,"ax",@progbits
	.align	1
	.type	sector_statistics_cb, @function
sector_statistics_cb:
.LFB33:
	.loc 1 1023 1 is_stmt 1
	.cfi_startproc
.LVL58:
	.loc 1 1024 5
	.loc 1 1026 5
	.loc 1 1026 8 is_stmt 0
	lbu	a5,0(a0)
	beq	a5,zero,.L51
	.loc 1 1026 43 discriminator 1
	lbu	a5,1(a0)
	.loc 1 1026 26 discriminator 1
	li	a4,1
	bne	a5,a4,.L52
	.loc 1 1027 9 is_stmt 1
	.loc 1 1027 24 is_stmt 0
	lw	a5,0(a1)
	addi	a5,a5,1
	sw	a5,0(a1)
.L51:
	.loc 1 1032 5 is_stmt 1
	.loc 1 1033 1 is_stmt 0
	li	a0,0
.LVL59:
	ret
.LVL60:
.L52:
	.loc 1 1028 12 is_stmt 1
.LBB34:
.LBB35:
	.loc 1 1028 33 is_stmt 0
	li	a4,2
	bne	a5,a4,.L51
	.loc 1 1029 9 is_stmt 1
	.loc 1 1029 24 is_stmt 0
	lw	a5,0(a2)
	addi	a5,a5,1
	sw	a5,0(a2)
	j	.L51
.LBE35:
.LBE34:
	.cfi_endproc
.LFE33:
	.size	sector_statistics_cb, .-sector_statistics_cb
	.section	.text.alloc_env_cb,"ax",@progbits
	.align	1
	.type	alloc_env_cb, @function
alloc_env_cb:
.LFB34:
	.loc 1 1036 1 is_stmt 1
	.cfi_startproc
.LVL61:
	.loc 1 1037 5
	.loc 1 1038 5
	.loc 1 1043 5
	.loc 1 1043 15 is_stmt 0
	lbu	a5,0(a0)
	.loc 1 1043 8
	beq	a5,zero,.L57
	.loc 1 1043 26 discriminator 1
	lw	a3,16(a0)
	lw	a4,0(a1)
	bleu	a3,a4,.L61
.LVL62:
.LBB38:
.LBB39:
	.loc 1 1044 32
	lbu	a4,2(a0)
	.loc 1 1044 13
	li	a3,1
	beq	a4,a3,.L58
	.loc 1 1045 21
	li	a3,2
	bne	a4,a3,.L61
	.loc 1 1045 67
	lui	a4,%hi(.LANCHOR3)
	lbu	a4,%lo(.LANCHOR3)(a4)
	bne	a4,zero,.L61
.L58:
	.loc 1 1046 9 is_stmt 1
	.loc 1 1046 28 is_stmt 0
	lw	a4,20(a0)
	.loc 1 1046 20
	sw	a4,0(a2)
	.loc 1 1047 9 is_stmt 1
.LVL63:
.L57:
.LBE39:
.LBE38:
	.loc 1 1051 1 is_stmt 0
	mv	a0,a5
.LVL64:
	ret
.LVL65:
.L61:
	.loc 1 1050 11
	li	a5,0
	j	.L57
	.cfi_endproc
.LFE34:
	.size	alloc_env_cb, .-alloc_env_cb
	.section	.text.write_status,"ax",@progbits
	.align	1
	.type	write_status, @function
write_status:
.LFB7:
	.loc 1 269 1 is_stmt 1
	.cfi_startproc
.LVL66:
	.loc 1 270 5
	.loc 1 271 5
	.loc 1 273 5
	.loc 1 269 1 is_stmt 0
	addi	sp,sp,-32
	.cfi_def_cfa_offset 32
	sw	ra,28(sp)
	sw	s0,24(sp)
	sw	s1,20(sp)
	.cfi_offset 1, -4
	.cfi_offset 8, -8
	.cfi_offset 9, -12
	.loc 1 273 8
	bltu	a3,a2,.L66
	.loc 1 273 41 is_stmt 1 discriminator 1
	lui	a4,%hi(.LANCHOR4)
	lui	a3,%hi(.LC0)
.LVL67:
	lui	a2,%hi(.LC1)
.LVL68:
	lui	a0,%hi(.LC2)
.LVL69:
	addi	a4,a4,%lo(.LANCHOR4)
	addi	a3,a3,%lo(.LC0)
	addi	a2,a2,%lo(.LC1)
	li	a1,273
.LVL70:
	addi	a0,a0,%lo(.LC2)
	call	ef_log_debug
.LVL71:
.L67:
	.loc 1 273 225 discriminator 1
	.loc 1 273 234 discriminator 1
	j	.L67
.LVL72:
.L66:
	mv	s0,a1
	.loc 1 273 237 discriminator 2
	.loc 1 274 5 discriminator 2
	.loc 1 274 8 is_stmt 0 discriminator 2
	bne	a1,zero,.L68
.LVL73:
.LBB44:
.LBB45:
	.loc 1 274 28 is_stmt 1
	lui	a4,%hi(.LANCHOR4)
	lui	a3,%hi(.LC3)
.LVL74:
	lui	a2,%hi(.LC1)
.LVL75:
	lui	a0,%hi(.LC2)
.LVL76:
	addi	a4,a4,%lo(.LANCHOR4)
	addi	a3,a3,%lo(.LC3)
	addi	a2,a2,%lo(.LC1)
	li	a1,274
	addi	a0,a0,%lo(.LC2)
	call	ef_log_debug
.LVL77:
.L69:
	.loc 1 274 199
	.loc 1 274 208
	j	.L69
.LVL78:
.L68:
.LBE45:
.LBE44:
.LBB46:
.LBB47:
	.loc 1 233 51 is_stmt 0
	slli	a2,a2,3
.LVL79:
	.loc 1 233 61
	addi	a2,a2,-1
	mv	s1,a0
	.loc 1 233 5
	srli	a2,a2,3
	li	a1,255
	mv	a0,s0
.LVL80:
	sw	a3,12(sp)
.LBE47:
.LBE46:
	.loc 1 274 211 is_stmt 1
	.loc 1 277 5
.LVL81:
.LBB50:
.LBB48:
	.loc 1 225 5
	.loc 1 233 5
	call	memset
.LVL82:
	.loc 1 234 5
	.loc 1 239 9
	.loc 1 239 20 is_stmt 0
	lw	a3,12(sp)
.LBE48:
.LBE50:
	.loc 1 288 14
	li	a2,1
.LBB51:
.LBB49:
	.loc 1 239 20
	addi	a3,a3,-1
.LVL83:
	.loc 1 240 9 is_stmt 1
	.loc 1 240 21 is_stmt 0
	add	a1,s0,a3
	.loc 1 240 34
	sb	zero,0(a1)
	.loc 1 244 5 is_stmt 1
.LVL84:
.LBE49:
.LBE51:
	.loc 1 280 5
	.loc 1 288 5
	.loc 1 292 1 is_stmt 0
	lw	s0,24(sp)
	.cfi_restore 8
.LVL85:
	lw	ra,28(sp)
	.cfi_restore 1
	.loc 1 288 14
	add	a0,s1,a3
	.loc 1 292 1
	lw	s1,20(sp)
	.cfi_restore 9
.LVL86:
	addi	sp,sp,32
	.cfi_def_cfa_offset 0
.LVL87:
	.loc 1 288 14
	tail	ef_port_write
.LVL88:
	.cfi_endproc
.LFE7:
	.size	write_status, .-write_status
	.section	.text.read_env,"ax",@progbits
	.align	1
	.type	read_env, @function
read_env:
.LFB16:
	.loc 1 524 1 is_stmt 1
	.cfi_startproc
.LVL89:
	.loc 1 525 5
	.loc 1 526 5
	.loc 1 527 5
	.loc 1 528 5
	.loc 1 529 5
	.loc 1 531 5
	.loc 1 524 1 is_stmt 0
	addi	sp,sp,-96
	.cfi_def_cfa_offset 96
	sw	ra,92(sp)
	sw	s0,88(sp)
	sw	s2,80(sp)
	sw	s1,84(sp)
	sw	s3,76(sp)
	sw	s4,72(sp)
	.cfi_offset 1, -4
	.cfi_offset 8, -8
	.cfi_offset 18, -16
	.cfi_offset 9, -12
	.cfi_offset 19, -20
	.cfi_offset 20, -24
	.loc 1 524 1
	mv	s0,a0
	.loc 1 531 5
	lw	a0,80(a0)
.LVL90:
	li	a2,28
	addi	a1,sp,4
	call	ef_port_read
.LVL91:
	.loc 1 532 5 is_stmt 1
	.loc 1 532 34 is_stmt 0
	li	a1,6
	addi	a0,sp,4
	call	get_status
.LVL92:
	.loc 1 533 23
	lw	a5,16(sp)
	.loc 1 532 19
	andi	a0,a0,0xff
	.loc 1 535 8
	li	a4,32768
	.loc 1 532 17
	sb	a0,0(s0)
	.loc 1 533 5 is_stmt 1
	.loc 1 533 14 is_stmt 0
	sw	a5,8(s0)
	.loc 1 535 5 is_stmt 1
	.loc 1 535 54 is_stmt 0
	addi	s2,a5,-20
	.loc 1 535 8
	addi	a4,a4,-20
	bleu	s2,a4,.L72
	.loc 1 537 9 is_stmt 1
	.loc 1 537 18 is_stmt 0
	li	a5,28
	sw	a5,8(s0)
	.loc 1 538 9 is_stmt 1
	.loc 1 538 12 is_stmt 0
	li	a5,5
	beq	a0,a5,.L73
	.loc 1 539 13 is_stmt 1
	.loc 1 540 13 is_stmt 0
	lw	a3,80(s0)
	lui	a2,%hi(.LC4)
	lui	a0,%hi(.LC2)
	addi	a2,a2,%lo(.LC4)
	li	a1,540
	addi	a0,a0,%lo(.LC2)
	.loc 1 539 25
	sb	a5,0(s0)
	.loc 1 540 13 is_stmt 1
	call	ef_log_debug
.LVL93:
	.loc 1 541 13
	lw	a0,80(s0)
	li	a3,5
	li	a2,6
	addi	a1,sp,4
	call	write_status
.LVL94:
.L73:
	.loc 1 543 9
	.loc 1 543 24 is_stmt 0
	sb	zero,1(s0)
	.loc 1 544 9 is_stmt 1
	.loc 1 544 16 is_stmt 0
	li	a0,2
.L74:
	.loc 1 579 1
	lw	ra,92(sp)
	.cfi_remember_state
	.cfi_restore 1
	lw	s0,88(sp)
	.cfi_restore 8
.LVL95:
	lw	s1,84(sp)
	.cfi_restore 9
	lw	s2,80(sp)
	.cfi_restore 18
	lw	s3,76(sp)
	.cfi_restore 19
	lw	s4,72(sp)
	.cfi_restore 20
	addi	sp,sp,96
	.cfi_def_cfa_offset 0
	jr	ra
.LVL96:
.L72:
	.cfi_restore_state
	.loc 1 545 12 is_stmt 1
	.loc 1 545 128 is_stmt 0
	li	a4,-4096
	addi	a4,a4,19
	add	a5,a5,a4
	.loc 1 545 15
	li	a4,28672
	addi	a4,a4,18
	bgtu	a5,a4,.L79
	.loc 1 547 9 is_stmt 1 discriminator 1
	.loc 1 547 21 discriminator 1
	lui	a4,%hi(.LANCHOR5)
	lui	a3,%hi(.LC5)
	lui	a2,%hi(.LC1)
	lui	a0,%hi(.LC2)
	addi	a4,a4,%lo(.LANCHOR5)
	addi	a3,a3,%lo(.LC5)
	addi	a2,a2,%lo(.LC1)
	li	a1,547
	addi	a0,a0,%lo(.LC2)
	call	ef_log_debug
.LVL97:
.L76:
	.loc 1 547 181 discriminator 1
	.loc 1 547 190 discriminator 1
	j	.L76
.LVL98:
.L78:
	.loc 1 554 9
	.loc 1 554 17 is_stmt 0
	addi	a5,s1,32
	.loc 1 555 18
	li	s3,32
	.loc 1 554 12
	bgtu	s2,a5,.L77
	.loc 1 557 13 is_stmt 1
	.loc 1 557 18 is_stmt 0
	sub	s3,s2,s1
.LVL99:
.L77:
	.loc 1 560 9 is_stmt 1 discriminator 2
	lw	a0,80(s0)
	mv	a2,s3
	addi	a1,sp,32
	addi	a0,a0,20
	add	a0,a0,s1
	call	ef_port_read
.LVL100:
	.loc 1 561 9 discriminator 2
	.loc 1 561 22 is_stmt 0 discriminator 2
	mv	a0,s4
	mv	a2,s3
	addi	a1,sp,32
	call	ef_calc_crc32
.LVL101:
	mv	s4,a0
.LVL102:
	.loc 1 553 53 discriminator 2
	add	s1,s1,s3
.LVL103:
.L75:
	.loc 1 553 5 discriminator 1
	bgtu	s2,s1,.L78
	.loc 1 564 5 is_stmt 1
	.loc 1 564 8 is_stmt 0
	lw	a5,20(sp)
	bne	a5,s4,.L73
	.loc 1 568 9 is_stmt 1
	.loc 1 570 23 is_stmt 0
	lw	s1,80(s0)
.LVL104:
	.loc 1 571 9
	lbu	a2,24(sp)
	.loc 1 568 24
	li	a5,1
	.loc 1 570 23
	addi	s1,s1,28
	.loc 1 568 24
	sb	a5,1(s0)
	.loc 1 570 9 is_stmt 1
.LVL105:
	.loc 1 571 9
	mv	a0,s1
	addi	a1,s0,16
	call	ef_port_read
.LVL106:
	.loc 1 573 9
	.loc 1 573 54 is_stmt 0
	lbu	a5,24(sp)
	.loc 1 574 24
	lw	a4,28(sp)
	.loc 1 528 15
	li	a0,0
	.loc 1 573 41
	add	s1,a5,s1
.LVL107:
	.loc 1 573 25
	sw	s1,84(s0)
	.loc 1 574 9 is_stmt 1
	.loc 1 574 24 is_stmt 0
	sw	a4,12(s0)
	.loc 1 575 9 is_stmt 1
	.loc 1 575 23 is_stmt 0
	sb	a5,2(s0)
	j	.L74
.LVL108:
.L79:
	.loc 1 553 14
	li	s1,0
	.loc 1 527 14
	li	s4,0
	j	.L75
	.cfi_endproc
.LFE16:
	.size	read_env, .-read_env
	.section	.text.update_sec_status,"ax",@progbits
	.align	1
	.type	update_sec_status, @function
update_sec_status:
.LFB31:
	.loc 1 973 1 is_stmt 1
	.cfi_startproc
.LVL109:
	addi	sp,sp,-32
	.cfi_def_cfa_offset 32
	sw	s0,24(sp)
	sw	ra,28(sp)
	sw	s1,20(sp)
	sw	s2,16(sp)
	.cfi_offset 8, -8
	.cfi_offset 1, -4
	.cfi_offset 9, -12
	.cfi_offset 18, -16
	.loc 1 977 23 is_stmt 0
	lbu	a4,1(a0)
	.loc 1 977 8
	li	a5,1
	.loc 1 973 1
	mv	s0,a0
	.loc 1 974 5 is_stmt 1
	.loc 1 975 5
.LVL110:
	.loc 1 977 5
	.loc 1 977 8 is_stmt 0
	bne	a4,a5,.L83
	.loc 1 979 9 is_stmt 1
	.loc 1 979 18 is_stmt 0
	lw	a0,4(a0)
.LVL111:
	li	a3,2
	li	a2,4
.LVL112:
	addi	a1,sp,12
.LVL113:
	call	write_status
.LVL114:
	mv	s2,a0
.LVL115:
.L84:
	.loc 1 999 5 is_stmt 1
	.loc 1 1000 1 is_stmt 0
	lw	ra,28(sp)
	.cfi_remember_state
	.cfi_restore 1
	lw	s0,24(sp)
	.cfi_restore 8
.LVL116:
	mv	a0,s2
	lw	s1,20(sp)
	.cfi_restore 9
	lw	s2,16(sp)
	.cfi_restore 18
.LVL117:
	addi	sp,sp,32
	.cfi_def_cfa_offset 0
	jr	ra
.LVL118:
.L83:
	.cfi_restore_state
	.loc 1 980 12 is_stmt 1
	.loc 1 980 15 is_stmt 0
	li	a5,2
	.loc 1 975 15
	li	s2,0
	.loc 1 980 15
	bne	a4,a5,.L84
	.loc 1 982 19
	lw	a5,16(a0)
	.loc 1 982 12
	li	a4,91
	mv	s1,a2
	.loc 1 982 9 is_stmt 1
	.loc 1 982 12 is_stmt 0
	bleu	a5,a4,.L85
.LVL119:
	.loc 1 982 146 discriminator 1
	sub	a5,a5,a1
	.loc 1 982 128 discriminator 1
	bgtu	a5,a4,.L86
.L85:
.LVL120:
.LBB54:
.LBB55:
	.loc 1 984 13 is_stmt 1
	.loc 1 984 22 is_stmt 0
	lw	a0,4(s0)
	addi	a1,sp,12
.LVL121:
	li	a3,3
	li	a2,4
	call	write_status
.LVL122:
	mv	s2,a0
.LVL123:
	.loc 1 988 13 is_stmt 1
	lw	a0,4(s0)
	li	a1,4096
	add	a1,a0,a1
	call	update_sector_cache
.LVL124:
	.loc 1 991 13
	.loc 1 991 16 is_stmt 0
	beq	s1,zero,.L84
	.loc 1 992 17 is_stmt 1
	.loc 1 992 26 is_stmt 0
	li	a5,1
	sb	a5,0(s1)
	.loc 1 999 5 is_stmt 1
.LVL125:
	j	.L84
.LVL126:
.L86:
.LBE55:
.LBE54:
	.loc 1 994 16
	.loc 1 994 19 is_stmt 0
	beq	a2,zero,.L84
	.loc 1 995 13 is_stmt 1
	.loc 1 995 22 is_stmt 0
	sb	zero,0(a2)
	j	.L84
	.cfi_endproc
.LFE31:
	.size	update_sec_status, .-update_sec_status
	.section	.text.format_sector.constprop.16,"ax",@progbits
	.align	1
	.type	format_sector.constprop.16, @function
format_sector.constprop.16:
.LFB79:
	.loc 1 944 18 is_stmt 1
	.cfi_startproc
.LVL127:
	.loc 1 946 5
	.loc 1 947 5
	.loc 1 949 5
	.loc 1 944 18 is_stmt 0
	addi	sp,sp,-48
	.cfi_def_cfa_offset 48
	sw	ra,44(sp)
	sw	s0,40(sp)
	sw	s1,36(sp)
	.cfi_offset 1, -4
	.cfi_offset 8, -8
	.cfi_offset 9, -12
	.loc 1 949 8
	slli	a5,a0,20
	beq	a5,zero,.L95
	.loc 1 949 34 is_stmt 1
	lui	a4,%hi(.LANCHOR6)
	lui	a3,%hi(.LC6)
	lui	a2,%hi(.LC1)
	lui	a0,%hi(.LC2)
.LVL128:
	addi	a4,a4,%lo(.LANCHOR6)
	addi	a3,a3,%lo(.LC6)
	addi	a2,a2,%lo(.LC1)
	li	a1,949
	addi	a0,a0,%lo(.LC2)
	call	ef_log_debug
.LVL129:
.L96:
	.loc 1 949 216
	.loc 1 949 225
	j	.L96
.LVL130:
.L95:
	.loc 1 951 14 is_stmt 0
	li	a1,4096
	mv	s0,a0
	.loc 1 949 228 is_stmt 1
	.loc 1 951 5
	.loc 1 951 14 is_stmt 0
	call	ef_port_erase
.LVL131:
	mv	s1,a0
.LVL132:
	.loc 1 952 5 is_stmt 1
	.loc 1 952 8 is_stmt 0
	bne	a0,zero,.L97
.LVL133:
.LBB62:
.LBB63:
	.loc 1 954 9 is_stmt 1
	li	a2,20
	li	a1,255
	addi	a0,sp,12
.LVL134:
	call	memset
.LVL135:
	.loc 1 955 9
.LBB64:
.LBB65:
	.loc 1 225 5
	.loc 1 233 5
	li	a2,3
	li	a1,255
	addi	a0,sp,12
.LVL136:
	call	memset
.LVL137:
	.loc 1 234 5
	.loc 1 239 9
	.loc 1 240 9
.LBE65:
.LBE64:
.LBB67:
.LBB68:
	.loc 1 233 5 is_stmt 0
	li	a2,3
	li	a1,255
	addi	a0,sp,15
.LBE68:
.LBE67:
.LBB71:
.LBB66:
	.loc 1 240 34
	sb	zero,12(sp)
	.loc 1 244 5 is_stmt 1
.LVL138:
.LBE66:
.LBE71:
	.loc 1 956 9
.LBB72:
.LBB69:
	.loc 1 225 5
	.loc 1 233 5
	call	memset
.LVL139:
	.loc 1 234 5
	.loc 1 239 9
	.loc 1 240 9
.LBE69:
.LBE72:
	.loc 1 957 23 is_stmt 0
	li	a5,808730624
	addi	a5,a5,1605
	sw	a5,20(sp)
	.loc 1 961 18
	addi	a1,sp,12
	.loc 1 958 26
	li	a5,-1
	.loc 1 961 18
	li	a2,20
	mv	a0,s0
.LBB73:
.LBB70:
	.loc 1 240 34
	sb	zero,15(sp)
	.loc 1 244 5 is_stmt 1
.LVL140:
.LBE70:
.LBE73:
	.loc 1 957 9
	.loc 1 958 9
	.loc 1 958 26 is_stmt 0
	sw	a5,24(sp)
	.loc 1 959 9 is_stmt 1
	.loc 1 959 26 is_stmt 0
	sw	a5,28(sp)
	.loc 1 961 9 is_stmt 1
	.loc 1 961 18 is_stmt 0
	call	ef_port_write
.LVL141:
	.loc 1 965 9
	li	a1,4096
	.loc 1 961 18
	mv	s1,a0
.LVL142:
	.loc 1 965 9 is_stmt 1
	add	a1,s0,a1
	mv	a0,s0
	call	update_sector_cache
.LVL143:
	.loc 1 969 5
.L97:
.LBE63:
.LBE62:
	.loc 1 969 5
	.loc 1 970 1 is_stmt 0
	lw	ra,44(sp)
	.cfi_restore 1
	lw	s0,40(sp)
	.cfi_restore 8
.LVL144:
	mv	a0,s1
	lw	s1,36(sp)
	.cfi_restore 9
.LVL145:
	addi	sp,sp,48
	.cfi_def_cfa_offset 0
	jr	ra
	.cfi_endproc
.LFE79:
	.size	format_sector.constprop.16, .-format_sector.constprop.16
	.section	.text.check_sec_hdr_cb,"ax",@progbits
	.align	1
	.type	check_sec_hdr_cb, @function
check_sec_hdr_cb:
.LFB55:
	.loc 1 1718 1 is_stmt 1
	.cfi_startproc
.LVL146:
	.loc 1 1719 5
	.loc 1 1719 8 is_stmt 0
	lbu	a5,0(a0)
	bne	a5,zero,.L102
	.loc 1 1718 1
	addi	sp,sp,-16
	.cfi_def_cfa_offset 16
	sw	ra,12(sp)
	sw	s0,8(sp)
	sw	s1,4(sp)
	.cfi_offset 1, -4
	.cfi_offset 8, -8
	.cfi_offset 9, -12
	mv	s1,a1
.LBB77:
.LBB78:
	.loc 1 1722 9
	lw	a1,4(a0)
.LVL147:
	mv	s0,a0
.LVL148:
	.loc 1 1720 9 is_stmt 1
	.loc 1 1722 9
	lui	a0,%hi(.LC7)
.LVL149:
	addi	a0,a0,%lo(.LC7)
	call	ef_log_info
.LVL150:
	.loc 1 1723 9
	.loc 1 1723 25 is_stmt 0
	lw	a5,0(s1)
	addi	a5,a5,1
	sw	a5,0(s1)
	.loc 1 1724 9 is_stmt 1
	lw	a0,4(s0)
	call	format_sector.constprop.16
.LVL151:
.LBE78:
.LBE77:
	.loc 1 1727 5
	.loc 1 1728 1 is_stmt 0
	lw	ra,12(sp)
	.cfi_restore 1
	lw	s0,8(sp)
	.cfi_restore 8
.LVL152:
	lw	s1,4(sp)
	.cfi_restore 9
.LVL153:
	li	a0,0
	addi	sp,sp,16
	.cfi_def_cfa_offset 0
	jr	ra
.LVL154:
.L102:
	.loc 1 1727 5 is_stmt 1
	.loc 1 1728 1 is_stmt 0
	li	a0,0
.LVL155:
	ret
	.cfi_endproc
.LFE55:
	.size	check_sec_hdr_cb, .-check_sec_hdr_cb
	.section	.text.print_env_cb,"ax",@progbits
	.align	1
	.type	print_env_cb, @function
print_env_cb:
.LFB53:
	.loc 1 1605 1 is_stmt 1
	.cfi_startproc
.LVL156:
	.loc 1 1606 4
	.loc 1 1607 5
	.loc 1 1609 5
	.loc 1 1605 1 is_stmt 0
	addi	sp,sp,-80
	.cfi_def_cfa_offset 80
	sw	ra,76(sp)
	sw	s0,72(sp)
	sw	s1,68(sp)
	sw	s2,64(sp)
	sw	s3,60(sp)
	sw	s4,56(sp)
	sw	s5,52(sp)
	sw	s6,48(sp)
	sw	s7,44(sp)
	.cfi_offset 1, -4
	.cfi_offset 8, -8
	.cfi_offset 9, -12
	.cfi_offset 18, -16
	.cfi_offset 19, -20
	.cfi_offset 20, -24
	.cfi_offset 21, -28
	.cfi_offset 22, -32
	.cfi_offset 23, -36
	.loc 1 1609 12
	lbu	s4,1(a0)
	.loc 1 1609 8
	beq	s4,zero,.L122
	.loc 1 1611 9 is_stmt 1
	.loc 1 1611 21 is_stmt 0
	lw	a4,8(a0)
	lw	a5,0(a1)
	add	a5,a5,a4
	sw	a5,0(a1)
	.loc 1 1613 9 is_stmt 1
	.loc 1 1613 12 is_stmt 0
	lbu	a4,0(a0)
	li	a5,2
	bne	a4,a5,.L122
.LBB84:
.LBB85:
	.loc 1 1614 13
	lbu	a1,2(a0)
.LVL157:
	mv	s0,a0
.LVL158:
	.loc 1 1614 13 is_stmt 1
	addi	a2,a0,16
.LVL159:
	lui	a0,%hi(.LC8)
.LVL160:
	addi	a0,a0,%lo(.LC8)
	call	ef_print
.LVL161:
	.loc 1 1616 13
	.loc 1 1616 16 is_stmt 0
	lw	a4,12(s0)
	li	a5,4096
	addi	a5,a5,-117
	bgtu	a4,a5,.L109
	li	s3,2
	.loc 1 1606 30
	li	s5,0
.LBB86:
.LBB87:
.LBB88:
	.loc 1 767 12
	li	s6,94
.LBE88:
.LBE87:
	.loc 1 1629 25
	lui	s7,%hi(.LC9)
.L110:
.LVL162:
	.loc 1 1617 17 is_stmt 1
	.loc 1 1618 17
	.loc 1 1621 17
	.loc 1 1621 26 is_stmt 0
	li	s1,0
.LVL163:
.L111:
	.loc 1 1621 50
	lw	a5,12(s0)
	.loc 1 1621 17
	bltu	s1,a5,.L117
.LBE86:
	.loc 1 1638 13 is_stmt 1
	li	a5,1
	.loc 1 1639 29 is_stmt 0
	mv	s5,s4
	.loc 1 1638 30
	beq	s3,a5,.L119
	li	s3,1
	j	.L110
.L117:
.LBB93:
	.loc 1 1622 21 is_stmt 1
	.loc 1 1622 29 is_stmt 0
	addi	a4,s1,32
	.loc 1 1623 30
	li	s2,32
	.loc 1 1622 24
	bltu	a4,a5,.L112
	.loc 1 1625 25 is_stmt 1
	.loc 1 1625 30 is_stmt 0
	sub	s2,a5,s1
.LVL164:
.L112:
	.loc 1 1627 21 is_stmt 1
	lw	a0,84(s0)
	mv	a2,s2
	mv	a1,sp
	add	a0,s1,a0
	call	ef_port_read
.LVL165:
	.loc 1 1628 21
.LBB91:
.LBB89:
	.loc 1 766 12 is_stmt 0
	li	a5,0
.LBE89:
.LBE91:
	.loc 1 1628 24
	beq	s5,zero,.L113
	.loc 1 1629 25 is_stmt 1
	mv	a2,sp
	mv	a1,s2
	addi	a0,s7,%lo(.LC9)
	call	ef_print
.LVL166:
.L114:
	.loc 1 1621 67 is_stmt 0
	add	s1,s1,s2
.LVL167:
	j	.L111
.LVL168:
.L116:
.LBB92:
.LBB90:
	.loc 1 767 9 is_stmt 1
	.loc 1 767 36 is_stmt 0
	add	a4,sp,a5
	lbu	a4,0(a4)
	.loc 1 767 41
	addi	a4,a4,-32
	.loc 1 767 12
	bgtu	a4,s6,.L109
	.loc 1 766 27
	addi	a5,a5,1
.LVL169:
.L113:
	.loc 1 766 5
	bne	s2,a5,.L116
	j	.L114
.LVL170:
.L109:
.LBE90:
.LBE92:
.LBE93:
	.loc 1 1642 17 is_stmt 1
	lw	a2,12(s0)
	lw	a1,84(s0)
	lui	a0,%hi(.LC10)
	addi	a0,a0,%lo(.LC10)
	call	ef_print
.LVL171:
.L119:
	.loc 1 1644 13
	lui	a0,%hi(.LC11)
	addi	a0,a0,%lo(.LC11)
	call	ef_print
.LVL172:
.LBE85:
.LBE84:
	.loc 1 1648 5
.L122:
	.loc 1 1649 1 is_stmt 0
	lw	ra,76(sp)
	.cfi_restore 1
	lw	s0,72(sp)
	.cfi_restore 8
	lw	s1,68(sp)
	.cfi_restore 9
	lw	s2,64(sp)
	.cfi_restore 18
	lw	s3,60(sp)
	.cfi_restore 19
	lw	s4,56(sp)
	.cfi_restore 20
	lw	s5,52(sp)
	.cfi_restore 21
	lw	s6,48(sp)
	.cfi_restore 22
	lw	s7,44(sp)
	.cfi_restore 23
	li	a0,0
	addi	sp,sp,80
	.cfi_def_cfa_offset 0
	jr	ra
	.cfi_endproc
.LFE53:
	.size	print_env_cb, .-print_env_cb
	.section	.text.get_next_env_addr,"ax",@progbits
	.align	1
	.type	get_next_env_addr, @function
get_next_env_addr:
.LFB15:
	.loc 1 488 1 is_stmt 1
	.cfi_startproc
.LVL173:
	.loc 1 489 5
	.loc 1 491 5
	.loc 1 491 8 is_stmt 0
	lbu	a4,1(a0)
	li	a5,1
	bne	a4,a5,.L127
.L151:
	.loc 1 492 16
	li	a0,-1
.LVL174:
	.loc 1 521 1
	ret
.LVL175:
.L127:
	.loc 1 495 5 is_stmt 1
	.loc 1 495 22 is_stmt 0
	lw	a4,80(a1)
	.loc 1 495 8
	li	a3,-1
	lw	a5,4(a0)
	bne	a4,a3,.L129
	.loc 1 497 9 is_stmt 1
	.loc 1 497 14 is_stmt 0
	addi	a0,a5,20
.LVL176:
	ret
.LVL177:
.L129:
	.loc 1 499 9 is_stmt 1
	.loc 1 499 49 is_stmt 0
	li	a3,4096
	add	a3,a5,a3
	.loc 1 499 12
	bgtu	a4,a3,.L151
	.loc 1 500 13 is_stmt 1
	.loc 1 488 1 is_stmt 0
	addi	sp,sp,-64
	.cfi_def_cfa_offset 64
	sw	s0,56(sp)
	sw	ra,60(sp)
	sw	s1,52(sp)
	sw	s2,48(sp)
	sw	s3,44(sp)
	sw	s4,40(sp)
	sw	s5,36(sp)
	sw	s6,32(sp)
	.cfi_offset 8, -8
	.cfi_offset 1, -4
	.cfi_offset 9, -12
	.cfi_offset 18, -16
	.cfi_offset 19, -20
	.cfi_offset 20, -24
	.cfi_offset 21, -28
	.cfi_offset 22, -32
	.loc 1 500 16
	lbu	a3,1(a1)
	.loc 1 505 22
	addi	s0,a4,1
	.loc 1 500 16
	beq	a3,zero,.L132
	.loc 1 501 17 is_stmt 1
	.loc 1 501 22 is_stmt 0
	lw	s0,8(a1)
	add	s0,a4,s0
.LVL178:
.L132:
	.loc 1 508 20
	li	s4,4096
	lui	a3,%hi(.LANCHOR0)
	mv	s5,a1
	addi	s4,s4,-20
.LBB98:
.LBB99:
	.loc 1 465 9
	li	a1,-4096
.LVL179:
	mv	s3,a0
.LVL180:
.LBE99:
.LBE98:
	.loc 1 508 13 is_stmt 1
	addi	a2,a3,%lo(.LANCHOR0)
	.loc 1 508 20 is_stmt 0
	add	s4,a5,s4
.LVL181:
.LBB106:
.LBB104:
	.loc 1 458 5 is_stmt 1
	.loc 1 459 5
	.loc 1 460 5
	.loc 1 463 5
	.loc 1 465 5
	.loc 1 465 9 is_stmt 0
	and	a1,s0,a1
.LVL182:
.LBB100:
.LBB101:
	.loc 1 341 12
	li	a4,0
	addi	a3,a3,%lo(.LANCHOR0)
	.loc 1 341 5
	li	a0,4
.LVL183:
.L136:
	.loc 1 342 9 is_stmt 1
	.loc 1 342 12 is_stmt 0
	lw	a6,0(a2)
	bne	a1,a6,.L133
	.loc 1 343 13 is_stmt 1
	.loc 1 344 17
.LVL184:
	.loc 1 344 52 is_stmt 0
	slli	a4,a4,3
.LVL185:
	add	a4,a3,a4
.LBE101:
.LBE100:
	.loc 1 465 72
	lw	a4,4(a4)
	mv	s1,s0
	bne	s0,a4,.L134
.LVL186:
.L143:
	.loc 1 466 16
	li	a0,-1
.L135:
.LVL187:
.LBE104:
.LBE106:
	.loc 1 510 13 is_stmt 1
	.loc 1 510 37 is_stmt 0
	lw	a4,4(s3)
	li	a5,4096
	add	a5,a5,a4
	.loc 1 510 16
	bltu	a5,a0,.L130
	.loc 1 510 46 discriminator 1
	lw	a5,8(s5)
	bne	a5,zero,.L126
.L130:
	.loc 1 492 16
	li	a0,-1
.LVL188:
.L126:
	.loc 1 521 1
	lw	ra,60(sp)
	.cfi_remember_state
	.cfi_restore 1
	lw	s0,56(sp)
	.cfi_restore 8
.LVL189:
	lw	s1,52(sp)
	.cfi_restore 9
	lw	s2,48(sp)
	.cfi_restore 18
	lw	s3,44(sp)
	.cfi_restore 19
.LVL190:
	lw	s4,40(sp)
	.cfi_restore 20
	lw	s5,36(sp)
	.cfi_restore 21
.LVL191:
	lw	s6,32(sp)
	.cfi_restore 22
	addi	sp,sp,64
	.cfi_def_cfa_offset 0
	jr	ra
.LVL192:
.L133:
	.cfi_restore_state
.LBB107:
.LBB105:
.LBB103:
.LBB102:
	.loc 1 341 25
	addi	a4,a4,1
.LVL193:
	addi	a2,a2,8
	.loc 1 341 5
	bne	a4,a0,.L136
	mv	s1,s0
.LVL194:
.L134:
	li	s2,4096
	addi	s2,s2,-28
.LBE102:
.LBE103:
	.loc 1 478 16
	li	s6,808734720
	add	s2,a5,s2
	addi	s6,s6,1611
	j	.L141
.LVL195:
.L142:
	.loc 1 471 9 is_stmt 1
	li	a2,32
	mv	a1,sp
	mv	a0,s1
	call	ef_port_read
.LVL196:
	.loc 1 472 9
	mv	a4,sp
	addi	a0,s1,-8
	addi	a2,s1,20
.LVL197:
.L137:
	.loc 1 472 56 is_stmt 0
	beq	s2,a0,.L139
	.loc 1 474 13 is_stmt 1
.LVL198:
	.loc 1 478 13
	.loc 1 474 34 is_stmt 0
	lbu	a5,1(a4)
.LVL199:
	.loc 1 474 24
	lbu	a3,0(a4)
	.loc 1 474 42
	slli	a5,a5,8
.LVL200:
	.loc 1 474 28
	add	a5,a5,a3
	.loc 1 474 54
	lbu	a3,2(a4)
	.loc 1 474 62
	slli	a3,a3,16
	.loc 1 474 48
	add	a5,a5,a3
	.loc 1 474 75
	lbu	a3,3(a4)
.LVL201:
	.loc 1 474 83
	slli	a3,a3,24
.LVL202:
	.loc 1 474 69
	add	a5,a5,a3
	.loc 1 478 16
	bne	a5,s6,.L138
	.loc 1 478 37
	bleu	s0,a0,.L135
.L138:
.LVL203:
	addi	a0,a0,1
.LVL204:
	addi	a4,a4,1
.LVL205:
	.loc 1 472 9
	bne	a2,a0,.L137
.LVL206:
.L139:
	.loc 1 470 31
	addi	s1,s1,28
.LVL207:
.L141:
	.loc 1 470 5
	bgtu	s4,s1,.L142
	j	.L143
.LBE105:
.LBE107:
	.cfi_endproc
.LFE15:
	.size	get_next_env_addr, .-get_next_env_addr
	.section	.text.read_sector_meta_data,"ax",@progbits
	.align	1
	.type	read_sector_meta_data, @function
read_sector_meta_data:
.LFB17:
	.loc 1 582 1 is_stmt 1
	.cfi_startproc
.LVL208:
	.loc 1 583 5
	.loc 1 584 5
	.loc 1 586 5
	.loc 1 582 1 is_stmt 0
	addi	sp,sp,-192
	.cfi_def_cfa_offset 192
	sw	ra,188(sp)
	sw	s0,184(sp)
	sw	s1,180(sp)
	sw	s2,176(sp)
	sw	s3,172(sp)
	sw	s4,168(sp)
	sw	s5,164(sp)
	sw	s6,160(sp)
	sw	s7,156(sp)
	sw	s8,152(sp)
	sw	s9,148(sp)
	.cfi_offset 1, -4
	.cfi_offset 8, -8
	.cfi_offset 9, -12
	.cfi_offset 18, -16
	.cfi_offset 19, -20
	.cfi_offset 20, -24
	.cfi_offset 21, -28
	.cfi_offset 22, -32
	.cfi_offset 23, -36
	.cfi_offset 24, -40
	.cfi_offset 25, -44
	.loc 1 586 8
	slli	a5,a0,20
	beq	a5,zero,.L156
	.loc 1 586 34 is_stmt 1 discriminator 1
	lui	a4,%hi(.LANCHOR7)
	lui	a3,%hi(.LC6)
	lui	a2,%hi(.LC1)
.LVL209:
	lui	a0,%hi(.LC2)
.LVL210:
	addi	a4,a4,%lo(.LANCHOR7)
	addi	a3,a3,%lo(.LC6)
	addi	a2,a2,%lo(.LC1)
	li	a1,586
.LVL211:
	addi	a0,a0,%lo(.LC2)
	call	ef_log_debug
.LVL212:
.L157:
	.loc 1 586 216 discriminator 1
	.loc 1 586 225 discriminator 1
	j	.L157
.LVL213:
.L156:
	mv	s0,a1
	mv	s4,a2
	.loc 1 586 228
	.loc 1 587 5
.LBB116:
.LBB117:
	.loc 1 590 5 is_stmt 0
	addi	a1,sp,4
.LVL214:
	li	a2,20
.LVL215:
	mv	s2,a0
.LVL216:
	.loc 1 587 199 is_stmt 1
	.loc 1 590 5
	call	ef_port_read
.LVL217:
	.loc 1 592 5
	.loc 1 593 28 is_stmt 0
	lw	a4,12(sp)
	.loc 1 595 8
	li	a5,808730624
	.loc 1 592 18
	sw	s2,4(s0)
	.loc 1 593 5 is_stmt 1
	.loc 1 593 19 is_stmt 0
	sw	a4,8(s0)
	.loc 1 595 5 is_stmt 1
	.loc 1 595 8 is_stmt 0
	addi	a5,a5,1605
	beq	a4,a5,.L158
	.loc 1 596 9 is_stmt 1
	.loc 1 597 26 is_stmt 0
	li	a5,-1
	.loc 1 596 26
	sb	zero,0(s0)
	.loc 1 597 9 is_stmt 1
	.loc 1 597 26 is_stmt 0
	sw	a5,12(s0)
	.loc 1 598 9 is_stmt 1
	.loc 1 598 16 is_stmt 0
	li	s1,7
.LVL218:
.L159:
.LBE117:
.LBE116:
	.loc 1 656 1
	lw	ra,188(sp)
	.cfi_remember_state
	.cfi_restore 1
	lw	s0,184(sp)
	.cfi_restore 8
.LVL219:
	mv	a0,s1
	lw	s2,176(sp)
	.cfi_restore 18
	lw	s1,180(sp)
	.cfi_restore 9
	lw	s3,172(sp)
	.cfi_restore 19
	lw	s4,168(sp)
	.cfi_restore 20
	lw	s5,164(sp)
	.cfi_restore 21
	lw	s6,160(sp)
	.cfi_restore 22
	lw	s7,156(sp)
	.cfi_restore 23
	lw	s8,152(sp)
	.cfi_restore 24
	lw	s9,148(sp)
	.cfi_restore 25
	addi	sp,sp,192
	.cfi_def_cfa_offset 0
	jr	ra
.LVL220:
.L158:
	.cfi_restore_state
.LBB136:
.LBB135:
	.loc 1 600 5 is_stmt 1
	.loc 1 602 22 is_stmt 0
	lw	a5,16(sp)
	.loc 1 600 22
	li	s3,1
	.loc 1 603 52
	li	a1,4
	.loc 1 602 22
	sw	a5,12(s0)
	.loc 1 600 22
	sb	s3,0(s0)
	.loc 1 602 5 is_stmt 1
	.loc 1 603 5
	.loc 1 603 52 is_stmt 0
	addi	a0,sp,4
	call	get_status
.LVL221:
	.loc 1 603 28
	andi	s1,a0,0xff
	.loc 1 603 26
	sb	s1,1(s0)
	.loc 1 604 5 is_stmt 1
	.loc 1 604 52 is_stmt 0
	li	a1,4
	addi	a0,sp,7
	call	get_status
.LVL222:
	.loc 1 604 28
	sb	a0,2(s0)
	.loc 1 606 5 is_stmt 1
	.loc 1 606 8 is_stmt 0
	bne	s4,zero,.L160
.LVL223:
.L180:
.LBB118:
	.loc 1 617 17 is_stmt 1
	.loc 1 617 24 is_stmt 0
	li	s1,0
	j	.L159
.LVL224:
.L160:
.LBE118:
	.loc 1 607 9 is_stmt 1
	.loc 1 608 42 is_stmt 0
	addi	a5,s2,20
	.loc 1 607 24
	sw	zero,16(s0)
	.loc 1 608 9 is_stmt 1
	.loc 1 608 27 is_stmt 0
	sw	a5,20(s0)
	.loc 1 609 9 is_stmt 1
	.loc 1 609 12 is_stmt 0
	bne	s1,s3,.L161
	.loc 1 610 13 is_stmt 1
	.loc 1 610 28 is_stmt 0
	li	a5,4096
	addi	a5,a5,-20
	sw	a5,16(s0)
	j	.L180
.L161:
	.loc 1 611 16 is_stmt 1
	.loc 1 611 19 is_stmt 0
	li	a5,2
	bne	s1,a5,.L180
	lui	a4,%hi(.LANCHOR0)
	addi	a3,a4,%lo(.LANCHOR0)
.LBB133:
.LBB119:
.LBB120:
	.loc 1 341 12
	li	a5,0
	addi	a4,a4,%lo(.LANCHOR0)
	.loc 1 341 5
	li	a2,4
.L164:
.LVL225:
	.loc 1 342 9 is_stmt 1
	.loc 1 342 12 is_stmt 0
	lw	a1,0(a3)
	bne	s2,a1,.L163
	.loc 1 343 13 is_stmt 1
	.loc 1 344 17
	.loc 1 344 52 is_stmt 0
	slli	a5,a5,3
.LVL226:
	add	a5,a4,a5
	lw	a5,4(a5)
.LBE120:
.LBE119:
	.loc 1 616 41
	li	a4,4096
	add	s2,s2,a4
.LVL227:
	sub	s2,s2,a5
.LBB123:
.LBB121:
	.loc 1 344 29
	sw	a5,20(s0)
.LVL228:
.LBE121:
.LBE123:
	.loc 1 616 17 is_stmt 1
	.loc 1 616 32 is_stmt 0
	sw	s2,16(s0)
	j	.L180
.LVL229:
.L163:
.LBB124:
.LBB122:
	.loc 1 341 25
	addi	a5,a5,1
.LVL230:
	addi	a3,a3,8
	.loc 1 341 5
	bne	a5,a2,.L164
.LVL231:
.LBE122:
.LBE124:
	.loc 1 621 13 is_stmt 1
	.loc 1 621 28 is_stmt 0
	li	a5,4096
	addi	a5,a5,-20
	sw	a5,16(s0)
	.loc 1 622 13 is_stmt 1
	.loc 1 622 33 is_stmt 0
	li	a5,-1
	sw	a5,136(sp)
	.loc 1 623 13 is_stmt 1
	.loc 1 623 19 is_stmt 0
	li	s2,-1
.LVL232:
	.loc 1 626 24
	li	s3,1
.LVL233:
.L165:
	.loc 1 623 43
	addi	a1,sp,56
	mv	a0,s0
	call	get_next_env_addr
.LVL234:
	.loc 1 623 41
	sw	a0,136(sp)
	.loc 1 623 19
	bne	a0,s2,.L168
.LBE133:
	.loc 1 583 15
	li	s1,0
	j	.L167
.L168:
.LBB134:
	.loc 1 624 17 is_stmt 1
	addi	a0,sp,56
	call	read_env
.LVL235:
	.loc 1 625 17
	.loc 1 625 20 is_stmt 0
	lbu	a5,57(sp)
	bne	a5,zero,.L166
	.loc 1 626 21 is_stmt 1
	.loc 1 626 24 is_stmt 0
	lbu	a5,56(sp)
	andi	a5,a5,251
	beq	a5,s3,.L166
	.loc 1 627 25 is_stmt 1
	lw	a1,136(sp)
	lui	a0,%hi(.LC12)
	addi	a0,a0,%lo(.LC12)
	call	ef_log_info
.LVL236:
	.loc 1 628 25
	.loc 1 628 40 is_stmt 0
	sw	zero,16(s0)
	.loc 1 629 25 is_stmt 1
.LVL237:
	.loc 1 630 25
.L167:
.LBB125:
	.loc 1 638 17
	.loc 1 640 17
	.loc 1 640 69 is_stmt 0
	lw	a5,4(s0)
	.loc 1 640 27
	lw	s2,20(s0)
	li	s4,4096
.LVL238:
	add	s5,a5,s4
.LVL239:
.LBB126:
.LBB127:
	.loc 1 428 5 is_stmt 1
	.loc 1 429 5
	.loc 1 431 5
	addi	s4,s4,32
.LBE127:
.LBE126:
	.loc 1 640 27 is_stmt 0
	mv	s3,s2
.LBB130:
.LBB128:
	.loc 1 428 22
	li	s6,0
	add	s4,a5,s4
	.loc 1 439 16
	li	s9,255
.LVL240:
.L169:
	.loc 1 431 5
	bgtu	s5,s3,.L174
	.loc 1 446 5 is_stmt 1
	.loc 1 446 8 is_stmt 0
	li	a5,255
	beq	s6,a5,.L175
	mv	s2,s5
.LVL241:
.L175:
.LBE128:
.LBE130:
	.loc 1 642 17 is_stmt 1
	.loc 1 642 20 is_stmt 0
	lw	a5,20(s0)
	lw	a0,4(s0)
	beq	a5,s2,.L176
	.loc 1 644 21 is_stmt 1
	.loc 1 645 45 is_stmt 0
	li	a5,4096
	add	a5,a0,a5
	.loc 1 644 39
	sw	s2,20(s0)
	.loc 1 645 21 is_stmt 1
	.loc 1 645 45 is_stmt 0
	sub	s2,a5,s2
.LVL242:
	.loc 1 645 36
	sw	s2,16(s0)
.LVL243:
.L176:
.LBE125:
	.loc 1 650 13 is_stmt 1
	lw	a1,20(s0)
	call	update_sector_cache
.LVL244:
	j	.L159
.LVL245:
.L166:
	.loc 1 633 17
	.loc 1 633 46 is_stmt 0
	lw	a3,64(sp)
	.loc 1 633 35
	lw	a4,20(s0)
	.loc 1 634 32
	lw	a5,16(s0)
	.loc 1 633 35
	add	a4,a4,a3
	.loc 1 634 32
	sub	a5,a5,a3
	.loc 1 633 35
	sw	a4,20(s0)
	.loc 1 634 17 is_stmt 1
	.loc 1 634 32 is_stmt 0
	sw	a5,16(s0)
	j	.L165
.LVL246:
.L174:
.LBB132:
.LBB131:
.LBB129:
	.loc 1 432 9 is_stmt 1
	.loc 1 432 19 is_stmt 0
	addi	s7,s3,32
	.loc 1 433 23
	li	s8,32
	.loc 1 432 12
	bgtu	s5,s7,.L170
	.loc 1 435 13 is_stmt 1
	sub	s8,s4,s7
.LVL247:
.L170:
	.loc 1 437 9
	mv	a2,s8
	addi	a1,sp,24
	mv	a0,s3
	call	ef_port_read
.LVL248:
	.loc 1 438 9
	.loc 1 438 16 is_stmt 0
	li	a5,0
.LVL249:
.L171:
	.loc 1 438 9
	bne	s8,a5,.L173
	.loc 1 432 19
	mv	s3,s7
.LVL250:
	j	.L169
.LVL251:
.L173:
	.loc 1 439 13 is_stmt 1
	addi	a4,sp,24
	add	a4,a4,a5
	lbu	a4,0(a4)
	.loc 1 439 16 is_stmt 0
	beq	s6,s9,.L172
	.loc 1 439 35
	bne	a4,s9,.L172
	.loc 1 440 17 is_stmt 1
	add	s2,s3,a5
.LVL252:
.L172:
	.loc 1 442 13
	.loc 1 438 37 is_stmt 0
	addi	a5,a5,1
.LVL253:
	mv	s6,a4
	j	.L171
.LBE129:
.LBE131:
.LBE132:
.LBE134:
.LBE135:
.LBE136:
	.cfi_endproc
.LFE17:
	.size	read_sector_meta_data, .-read_sector_meta_data
	.section	.text.sector_iterator,"ax",@progbits
	.align	1
	.type	sector_iterator, @function
sector_iterator:
.LFB32:
	.loc 1 1003 97 is_stmt 1
	.cfi_startproc
.LVL254:
	.loc 1 1004 5
	.loc 1 1007 5
	.loc 1 1003 97 is_stmt 0
	addi	sp,sp,-48
	.cfi_def_cfa_offset 48
	sw	s0,40(sp)
	sw	s1,36(sp)
	sw	s3,28(sp)
	sw	s4,24(sp)
	sw	s5,20(sp)
	sw	s6,16(sp)
	sw	s7,12(sp)
	sw	ra,44(sp)
	sw	s2,32(sp)
	.cfi_offset 8, -8
	.cfi_offset 9, -12
	.cfi_offset 19, -20
	.cfi_offset 20, -24
	.cfi_offset 21, -28
	.cfi_offset 22, -32
	.cfi_offset 23, -36
	.cfi_offset 1, -4
	.cfi_offset 18, -16
	.loc 1 1003 97
	mv	s6,a5
	.loc 1 1007 18
	li	a5,-1
.LVL255:
	.loc 1 1003 97
	mv	s0,a0
	mv	s1,a1
	mv	s4,a2
	mv	s5,a3
	mv	s3,a4
	.loc 1 1007 18
	sw	a5,4(a0)
	.loc 1 1008 5 is_stmt 1
	.loc 1 1008 11 is_stmt 0
	li	s7,-1
.LVL256:
.L182:
	.loc 1 1008 24
	mv	a0,s0
	call	get_next_sector_addr
.LVL257:
	mv	s2,a0
.LVL258:
	.loc 1 1008 11
	bne	a0,s7,.L186
.LVL259:
.L181:
	.loc 1 1020 1
	lw	ra,44(sp)
	.cfi_remember_state
	.cfi_restore 1
	lw	s0,40(sp)
	.cfi_restore 8
.LVL260:
	lw	s1,36(sp)
	.cfi_restore 9
	lw	s2,32(sp)
	.cfi_restore 18
.LVL261:
	lw	s3,28(sp)
	.cfi_restore 19
.LVL262:
	lw	s4,24(sp)
	.cfi_restore 20
.LVL263:
	lw	s5,20(sp)
	.cfi_restore 21
.LVL264:
	lw	s6,16(sp)
	.cfi_restore 22
	lw	s7,12(sp)
	.cfi_restore 23
	addi	sp,sp,48
	.cfi_def_cfa_offset 0
	jr	ra
.LVL265:
.L186:
	.cfi_restore_state
	.loc 1 1009 9 is_stmt 1
	li	a2,0
	mv	a1,s0
	call	read_sector_meta_data
.LVL266:
	.loc 1 1010 9
	.loc 1 1010 12 is_stmt 0
	beq	s1,zero,.L183
	.loc 1 1010 43 discriminator 1
	lbu	a5,1(s0)
	bne	a5,s1,.L182
.L183:
	.loc 1 1011 13 is_stmt 1
	.loc 1 1011 16 is_stmt 0
	beq	s6,zero,.L185
	.loc 1 1012 17 is_stmt 1
	li	a2,1
	mv	a1,s0
	mv	a0,s2
	call	read_sector_meta_data
.LVL267:
.L185:
	.loc 1 1015 13
	.loc 1 1015 29 is_stmt 0
	mv	a2,s5
	mv	a1,s4
	mv	a0,s0
	jalr	s3
.LVL268:
	.loc 1 1015 26
	beq	a0,zero,.L182
	j	.L181
	.cfi_endproc
.LFE32:
	.size	sector_iterator, .-sector_iterator
	.section	.text.alloc_env,"ax",@progbits
	.align	1
	.type	alloc_env, @function
alloc_env:
.LFB35:
	.loc 1 1054 1 is_stmt 1
	.cfi_startproc
.LVL269:
	.loc 1 1055 5
	.loc 1 1054 1 is_stmt 0
	addi	sp,sp,-48
	.cfi_def_cfa_offset 48
	.loc 1 1055 14
	li	a5,-1
	.loc 1 1059 5
	lui	a4,%hi(sector_statistics_cb)
	.loc 1 1054 1
	sw	a1,12(sp)
	.loc 1 1055 14
	sw	a5,20(sp)
	.loc 1 1056 5 is_stmt 1
	.loc 1 1059 5 is_stmt 0
	addi	a4,a4,%lo(sector_statistics_cb)
	li	a5,0
	addi	a3,sp,28
	addi	a2,sp,24
	li	a1,0
.LVL270:
	.loc 1 1054 1
	sw	s2,32(sp)
	sw	ra,44(sp)
	sw	s0,40(sp)
	sw	s1,36(sp)
	.cfi_offset 18, -16
	.cfi_offset 1, -4
	.cfi_offset 8, -8
	.cfi_offset 9, -12
	.loc 1 1054 1
	mv	s2,a0
	.loc 1 1056 12
	sw	zero,24(sp)
	.loc 1 1056 30
	sw	zero,28(sp)
	.loc 1 1059 5 is_stmt 1
	call	sector_iterator
.LVL271:
	.loc 1 1060 5
	.loc 1 1060 8 is_stmt 0
	lw	a5,28(sp)
	beq	a5,zero,.L196
	.loc 1 1062 9 is_stmt 1
	lui	a4,%hi(alloc_env_cb)
	li	a5,1
	addi	a4,a4,%lo(alloc_env_cb)
	addi	a3,sp,20
	addi	a2,sp,12
	li	a1,2
	mv	a0,s2
	call	sector_iterator
.LVL272:
.L196:
	.loc 1 1064 5
	.loc 1 1064 22 is_stmt 0
	lw	a5,24(sp)
	.loc 1 1064 8
	beq	a5,zero,.L197
	.loc 1 1064 26 discriminator 1
	lw	a3,20(sp)
	li	a4,-1
	bne	a3,a4,.L197
	.loc 1 1065 9 is_stmt 1
	.loc 1 1065 12 is_stmt 0
	li	s1,1
	bgtu	a5,s1,.L198
	.loc 1 1065 30 discriminator 1
	lui	s0,%hi(.LANCHOR3)
	addi	s0,s0,%lo(.LANCHOR3)
	lbu	a5,0(s0)
	beq	a5,zero,.L199
.L198:
	.loc 1 1066 13 is_stmt 1
	lui	a4,%hi(alloc_env_cb)
	li	a5,1
	addi	a4,a4,%lo(alloc_env_cb)
	addi	a3,sp,20
	addi	a2,sp,12
	li	a1,1
	mv	a0,s2
	call	sector_iterator
.LVL273:
.L197:
	.loc 1 1074 5
	.loc 1 1075 1 is_stmt 0
	lw	ra,44(sp)
	.cfi_remember_state
	.cfi_restore 1
	lw	s0,40(sp)
	.cfi_restore 8
	lw	a0,20(sp)
	lw	s1,36(sp)
	.cfi_restore 9
	lw	s2,32(sp)
	.cfi_restore 18
.LVL274:
	addi	sp,sp,48
	.cfi_def_cfa_offset 0
	jr	ra
.LVL275:
.L199:
	.cfi_restore_state
	.loc 1 1069 13 is_stmt 1
	lui	a2,%hi(.LC13)
	lui	a0,%hi(.LC2)
	addi	a2,a2,%lo(.LC13)
	li	a1,1069
	addi	a0,a0,%lo(.LC2)
	call	ef_log_debug
.LVL276:
	.loc 1 1070 13
	.loc 1 1070 24 is_stmt 0
	sb	s1,0(s0)
	j	.L197
	.cfi_endproc
.LFE35:
	.size	alloc_env, .-alloc_env
	.section	.text.gc_collect,"ax",@progbits
	.align	1
	.type	gc_collect, @function
gc_collect:
.LFB42:
	.loc 1 1266 1 is_stmt 1
	.cfi_startproc
	.loc 1 1267 5
	.loc 1 1268 5
	.loc 1 1266 1 is_stmt 0
	addi	sp,sp,-48
	.cfi_def_cfa_offset 48
	.loc 1 1271 5
	lui	a4,%hi(gc_check_cb)
	li	a5,0
	addi	a4,a4,%lo(gc_check_cb)
	li	a3,0
	addi	a2,sp,4
	li	a1,1
	addi	a0,sp,8
	.loc 1 1266 1
	sw	ra,44(sp)
	.cfi_offset 1, -4
	.loc 1 1268 12
	sw	zero,4(sp)
	.loc 1 1271 5 is_stmt 1
	call	sector_iterator
.LVL277:
	.loc 1 1274 5
	lw	a3,4(sp)
	lui	a2,%hi(.LC14)
	lui	a0,%hi(.LC2)
	li	a4,1
	addi	a2,a2,%lo(.LC14)
	li	a1,1274
	addi	a0,a0,%lo(.LC2)
	call	ef_log_debug
.LVL278:
	.loc 1 1275 5
	.loc 1 1275 8 is_stmt 0
	lw	a4,4(sp)
	li	a5,1
	bgtu	a4,a5,.L208
	.loc 1 1276 9 is_stmt 1
	lui	a4,%hi(do_gc)
	li	a5,0
	addi	a4,a4,%lo(do_gc)
	li	a3,0
	li	a2,0
	li	a1,0
	addi	a0,sp,8
	call	sector_iterator
.LVL279:
.L208:
	.loc 1 1279 5
	.loc 1 1280 1 is_stmt 0
	lw	ra,44(sp)
	.cfi_restore 1
	.loc 1 1279 16
	lui	a5,%hi(.LANCHOR3)
	sb	zero,%lo(.LANCHOR3)(a5)
	.loc 1 1280 1
	addi	sp,sp,48
	.cfi_def_cfa_offset 0
	jr	ra
	.cfi_endproc
.LFE42:
	.size	gc_collect, .-gc_collect
	.section	.text.new_env,"ax",@progbits
	.align	1
	.type	new_env, @function
new_env:
.LFB38:
	.loc 1 1199 1 is_stmt 1
	.cfi_startproc
.LVL280:
	.loc 1 1200 4
	.loc 1 1201 5
	.loc 1 1205 5
	.loc 1 1199 1 is_stmt 0
	addi	sp,sp,-16
	.cfi_def_cfa_offset 16
	sw	s0,8(sp)
	sw	s1,4(sp)
	sw	ra,12(sp)
	.cfi_offset 8, -8
	.cfi_offset 9, -12
	.cfi_offset 1, -4
	.loc 1 1199 1
	mv	s1,a0
	mv	s0,a1
	.loc 1 1205 22
	call	alloc_env
.LVL281:
	.loc 1 1205 8
	li	a5,-1
	bne	a0,a5,.L210
	.loc 1 1205 65
	lui	a5,%hi(.LANCHOR3)
	lbu	a5,%lo(.LANCHOR3)(a5)
	beq	a5,zero,.L210
	.loc 1 1206 9 is_stmt 1
	lui	a2,%hi(.LC15)
	lui	a0,%hi(.LC2)
.LVL282:
	li	a1,1206
	addi	a0,a0,%lo(.LC2)
	mv	a3,s0
	addi	a2,a2,%lo(.LC15)
	call	ef_log_debug
.LVL283:
	.loc 1 1207 9
	call	gc_collect
.LVL284:
	.loc 1 1208 9
	.loc 1 1209 9
.LDL1:
	.loc 1 1205 5
	.loc 1 1205 22 is_stmt 0
	mv	a1,s0
	mv	a0,s1
	call	alloc_env
.LVL285:
.L210:
	.loc 1 1213 1
	lw	ra,12(sp)
	.cfi_restore 1
	lw	s0,8(sp)
	.cfi_restore 8
.LVL286:
	lw	s1,4(sp)
	.cfi_restore 9
.LVL287:
	addi	sp,sp,16
	.cfi_def_cfa_offset 0
	jr	ra
	.cfi_endproc
.LFE38:
	.size	new_env, .-new_env
	.section	.text.check_and_recovery_gc_cb,"ax",@progbits
	.align	1
	.type	check_and_recovery_gc_cb, @function
check_and_recovery_gc_cb:
.LFB56:
	.loc 1 1731 1 is_stmt 1
	.cfi_startproc
.LVL288:
	.loc 1 1732 5
	.loc 1 1732 8 is_stmt 0
	lbu	a5,0(a0)
	beq	a5,zero,.L223
.LVL289:
.LBB139:
.LBB140:
	.loc 1 1732 26
	lbu	a4,2(a0)
	li	a5,3
	bne	a4,a5,.L223
	.loc 1 1734 9 is_stmt 1
.LBE140:
.LBE139:
	.loc 1 1731 1 is_stmt 0
	addi	sp,sp,-16
	.cfi_def_cfa_offset 16
.LBB143:
.LBB141:
	.loc 1 1734 20
	lui	a5,%hi(.LANCHOR3)
	li	a4,1
.LBE141:
.LBE143:
	.loc 1 1731 1
	sw	ra,12(sp)
	.cfi_offset 1, -4
.LBB144:
.LBB142:
	.loc 1 1734 20
	sb	a4,%lo(.LANCHOR3)(a5)
	.loc 1 1736 9 is_stmt 1
	call	gc_collect
.LVL290:
.LBE142:
.LBE144:
	.loc 1 1739 5
	.loc 1 1740 1 is_stmt 0
	lw	ra,12(sp)
	.cfi_restore 1
	li	a0,0
	addi	sp,sp,16
	.cfi_def_cfa_offset 0
	jr	ra
.LVL291:
.L223:
	.loc 1 1739 5 is_stmt 1
	.loc 1 1740 1 is_stmt 0
	li	a0,0
.LVL292:
	ret
	.cfi_endproc
.LFE56:
	.size	check_and_recovery_gc_cb, .-check_and_recovery_gc_cb
	.section	.text.env_iterator,"ax",@progbits
	.align	1
	.type	env_iterator, @function
env_iterator:
.LFB19:
	.loc 1 683 1 is_stmt 1
	.cfi_startproc
.LVL293:
	.loc 1 684 5
	.loc 1 685 5
	.loc 1 687 5
	.loc 1 683 1 is_stmt 0
	addi	sp,sp,-64
	.cfi_def_cfa_offset 64
	.loc 1 687 17
	li	a5,-1
	.loc 1 683 1
	sw	s0,56(sp)
	sw	s1,52(sp)
	sw	s2,48(sp)
	sw	s3,44(sp)
	sw	s4,40(sp)
	sw	s5,36(sp)
	sw	ra,60(sp)
	.cfi_offset 8, -8
	.cfi_offset 9, -12
	.cfi_offset 18, -16
	.cfi_offset 19, -20
	.cfi_offset 20, -24
	.cfi_offset 21, -28
	.cfi_offset 1, -4
	.loc 1 683 1
	mv	s0,a0
	mv	s2,a1
	mv	s3,a2
	mv	s4,a3
	.loc 1 687 17
	sw	a5,12(sp)
	.loc 1 689 5 is_stmt 1
	.loc 1 689 11 is_stmt 0
	li	s1,-1
	.loc 1 697 12
	li	s5,1
.LVL294:
.L227:
	.loc 1 689 24
	addi	a0,sp,8
	call	get_next_sector_addr
.LVL295:
	.loc 1 689 11
	beq	a0,s1,.L226
	.loc 1 690 9 is_stmt 1
	.loc 1 690 13 is_stmt 0
	li	a2,0
	addi	a1,sp,8
	call	read_sector_meta_data
.LVL296:
	.loc 1 690 12
	bne	a0,zero,.L227
	.loc 1 693 9 is_stmt 1
	.loc 1 697 9
	.loc 1 697 55 is_stmt 0
	lbu	a5,9(sp)
	addi	a5,a5,-2
	.loc 1 697 12
	andi	a5,a5,0xff
	bgtu	a5,s5,.L227
	.loc 1 698 13 is_stmt 1
	.loc 1 698 29 is_stmt 0
	sw	s1,80(s0)
	.loc 1 700 13 is_stmt 1
.L230:
	.loc 1 700 39 is_stmt 0
	mv	a1,s0
	addi	a0,sp,8
	call	get_next_env_addr
.LVL297:
	.loc 1 700 37
	sw	a0,80(s0)
	.loc 1 700 19
	beq	a0,s1,.L227
	.loc 1 701 17 is_stmt 1
	mv	a0,s0
	call	read_env
.LVL298:
	.loc 1 703 17
	.loc 1 703 21 is_stmt 0
	mv	a2,s3
	mv	a1,s2
	mv	a0,s0
	jalr	s4
.LVL299:
	.loc 1 703 20
	beq	a0,zero,.L230
.L226:
	.loc 1 709 1
	lw	ra,60(sp)
	.cfi_restore 1
	lw	s0,56(sp)
	.cfi_restore 8
.LVL300:
	lw	s1,52(sp)
	.cfi_restore 9
	lw	s2,48(sp)
	.cfi_restore 18
.LVL301:
	lw	s3,44(sp)
	.cfi_restore 19
.LVL302:
	lw	s4,40(sp)
	.cfi_restore 20
.LVL303:
	lw	s5,36(sp)
	.cfi_restore 21
	addi	sp,sp,64
	.cfi_def_cfa_offset 0
	jr	ra
	.cfi_endproc
.LFE19:
	.size	env_iterator, .-env_iterator
	.section	.text.find_env,"ax",@progbits
	.align	1
	.type	find_env, @function
find_env:
.LFB22:
	.loc 1 738 1 is_stmt 1
	.cfi_startproc
.LVL304:
	.loc 1 739 4
	.loc 1 742 5
	.loc 1 738 1 is_stmt 0
	addi	sp,sp,-112
	.cfi_def_cfa_offset 112
	sw	ra,108(sp)
	sw	s0,104(sp)
	sw	s1,100(sp)
	sw	s2,96(sp)
	sw	s3,92(sp)
	sw	s4,88(sp)
	sw	s5,84(sp)
	sw	s6,80(sp)
	sw	s7,76(sp)
	sw	s8,72(sp)
	.cfi_offset 1, -4
	.cfi_offset 8, -8
	.cfi_offset 9, -12
	.cfi_offset 18, -16
	.cfi_offset 19, -20
	.cfi_offset 20, -24
	.cfi_offset 21, -28
	.cfi_offset 22, -32
	.cfi_offset 23, -36
	.cfi_offset 24, -40
	.loc 1 738 1
	mv	s2,a0
	mv	s3,a1
	.loc 1 742 22
	call	strlen
.LVL305:
.LBB150:
.LBB151:
	.loc 1 400 37
	mv	a2,a0
.LBE151:
.LBE150:
	.loc 1 742 22
	mv	s5,a0
.LVL306:
	.loc 1 744 5 is_stmt 1
.LBB155:
.LBB153:
	.loc 1 399 5
	.loc 1 400 5
	.loc 1 400 37 is_stmt 0
	mv	a1,s2
	li	a0,0
.LVL307:
	lui	s1,%hi(.LANCHOR2)
	call	ef_calc_crc32
.LVL308:
	addi	s4,s1,%lo(.LANCHOR2)
	.loc 1 400 14
	srli	s7,a0,16
.LVL309:
	.loc 1 402 5 is_stmt 1
	.loc 1 402 12 is_stmt 0
	li	s0,0
	addi	s1,s1,%lo(.LANCHOR2)
	.loc 1 403 12
	li	s8,-1
	.loc 1 402 5
	li	s6,16
.LVL310:
.L242:
	.loc 1 403 9 is_stmt 1
	.loc 1 403 32 is_stmt 0
	lw	a0,4(s4)
	.loc 1 403 12
	beq	a0,s8,.L238
	.loc 1 403 53
	lhu	a5,0(s4)
	bne	a5,s7,.L238
.LBB152:
	.loc 1 404 13 is_stmt 1
	.loc 1 406 13
	li	a2,64
	mv	a1,sp
	addi	a0,a0,28
	call	ef_port_read
.LVL311:
	.loc 1 407 13
	.loc 1 407 18 is_stmt 0
	mv	a2,s5
	mv	a1,sp
	mv	a0,s2
	call	strncmp
.LVL312:
	.loc 1 407 16
	bne	a0,zero,.L238
	.loc 1 408 17 is_stmt 1
	.loc 1 408 43 is_stmt 0
	slli	s0,s0,3
.LVL313:
	add	a5,s1,s0
	lw	a4,4(a5)
	.loc 1 408 23
	sw	a4,80(s3)
	.loc 1 409 17 is_stmt 1
	.loc 1 409 39 is_stmt 0
	lhu	a4,2(a5)
	.loc 1 409 20
	li	a5,65536
	addi	a3,a5,-18
	.loc 1 410 47
	addi	a5,a5,-1
	.loc 1 409 20
	bgtu	a4,a3,.L240
	.loc 1 412 21 is_stmt 1
	.loc 1 412 47 is_stmt 0
	addi	a5,a4,16
	slli	a5,a5,16
	srli	a5,a5,16
.L240:
	add	s0,s1,s0
	sh	a5,2(s0)
	.loc 1 414 17 is_stmt 1
.LVL314:
.LBE152:
.LBE153:
.LBE155:
	.loc 1 745 9
	mv	a0,s3
	call	read_env
.LVL315:
	.loc 1 746 9
	.loc 1 746 15 is_stmt 0
	li	s0,1
.LVL316:
.L241:
	.loc 1 759 1
	mv	a0,s0
	lw	ra,108(sp)
	.cfi_remember_state
	.cfi_restore 1
	lw	s0,104(sp)
	.cfi_restore 8
	lw	s1,100(sp)
	.cfi_restore 9
	lw	s2,96(sp)
	.cfi_restore 18
.LVL317:
	lw	s3,92(sp)
	.cfi_restore 19
.LVL318:
	lw	s4,88(sp)
	.cfi_restore 20
	lw	s5,84(sp)
	.cfi_restore 21
.LVL319:
	lw	s6,80(sp)
	.cfi_restore 22
	lw	s7,76(sp)
	.cfi_restore 23
	lw	s8,72(sp)
	.cfi_restore 24
	addi	sp,sp,112
	.cfi_def_cfa_offset 0
	jr	ra
.LVL320:
.L238:
	.cfi_restore_state
.LBB156:
.LBB154:
	.loc 1 402 26
	addi	s0,s0,1
.LVL321:
	addi	s4,s4,8
	.loc 1 402 5
	bne	s0,s6,.L242
.LVL322:
.LBE154:
.LBE156:
	.loc 1 750 5 is_stmt 1
.LBB157:
.LBB158:
	.loc 1 730 4
	.loc 1 732 5 is_stmt 0
	lui	a3,%hi(find_env_cb)
	addi	a3,a3,%lo(find_env_cb)
	mv	a2,sp
	mv	a1,s2
	mv	a0,s3
	.loc 1 730 9
	sb	zero,0(sp)
	.loc 1 732 5 is_stmt 1
	call	env_iterator
.LVL323:
	.loc 1 734 5
	.loc 1 734 12 is_stmt 0
	lbu	s0,0(sp)
.LVL324:
.LBE158:
.LBE157:
	.loc 1 753 5 is_stmt 1
	.loc 1 753 8 is_stmt 0
	beq	s0,zero,.L241
	.loc 1 754 9 is_stmt 1
	lw	a2,80(s3)
	mv	a1,s5
	mv	a0,s2
	call	update_env_cache
.LVL325:
	j	.L241
	.cfi_endproc
.LFE22:
	.size	find_env, .-find_env
	.section	.text.del_env,"ax",@progbits
	.align	1
	.type	del_env, @function
del_env:
.LFB36:
	.loc 1 1077 85
	.cfi_startproc
.LVL326:
	.loc 1 1078 5
	.loc 1 1079 5
	.loc 1 1080 5
	.loc 1 1083 5
	.loc 1 1089 5
	.loc 1 1077 85 is_stmt 0
	addi	sp,sp,-144
	.cfi_def_cfa_offset 144
	sw	s0,136(sp)
	sw	s3,124(sp)
	sw	ra,140(sp)
	sw	s1,132(sp)
	sw	s2,128(sp)
	.cfi_offset 8, -8
	.cfi_offset 19, -20
	.cfi_offset 1, -4
	.cfi_offset 9, -12
	.cfi_offset 18, -16
	.loc 1 1077 85
	mv	s3,a0
	mv	s0,a1
	.loc 1 1089 8
	bne	a1,zero,.L250
.LBB162:
	.loc 1 1092 13
	addi	a1,sp,24
.LVL327:
	sw	a2,12(sp)
	.loc 1 1090 9 is_stmt 1
	.loc 1 1092 9
	.loc 1 1092 13 is_stmt 0
	call	find_env
.LVL328:
	.loc 1 1092 12
	beq	a0,zero,.L251
	.loc 1 1093 13 is_stmt 1
.LVL329:
	lw	a2,12(sp)
	.loc 1 1093 21 is_stmt 0
	addi	s0,sp,24
.LVL330:
.L250:
.LBE162:
	.loc 1 1100 5 is_stmt 1
	lui	s2,%hi(.LANCHOR8)
	lw	a0,80(s0)
	addi	s2,s2,%lo(.LANCHOR8)
	.loc 1 1100 8 is_stmt 0
	bne	a2,zero,.L253
	.loc 1 1101 9 is_stmt 1
	.loc 1 1101 18 is_stmt 0
	li	a3,3
	li	a2,6
	addi	a1,sp,16
	call	write_status
.LVL331:
	.loc 1 1102 30
	li	a5,1
	.loc 1 1101 18
	mv	s1,a0
.LVL332:
	.loc 1 1102 9 is_stmt 1
	.loc 1 1102 30 is_stmt 0
	sb	a5,0(s2)
.LVL333:
.L254:
	.loc 1 1122 5 is_stmt 1
	.loc 1 1124 5
	.loc 1 1124 8 is_stmt 0
	bne	s1,zero,.L252
	.loc 1 1122 48
	lw	a5,80(s0)
	li	s0,-4096
.LVL334:
.LBB163:
.LBB164:
	.loc 1 298 5
	li	a2,3
.LBE164:
.LBE163:
	.loc 1 1122 48
	and	s0,s0,a5
	.loc 1 1122 23
	addi	s0,s0,3
.LVL335:
.LBB166:
.LBB165:
	.loc 1 296 5 is_stmt 1
	.loc 1 296 211
	.loc 1 298 5
	addi	a1,sp,16
.LVL336:
	mv	a0,s0
	call	ef_port_read
.LVL337:
	.loc 1 300 5
	.loc 1 300 12 is_stmt 0
	li	a1,4
	addi	a0,sp,16
.LVL338:
	call	get_status
.LVL339:
.LBE165:
.LBE166:
	.loc 1 1125 13
	li	a5,1
	bne	a0,a5,.L252
	.loc 1 1126 9 is_stmt 1
	.loc 1 1126 18 is_stmt 0
	li	a3,2
	li	a2,4
	addi	a1,sp,16
	mv	a0,s0
	call	write_status
.LVL340:
	mv	s1,a0
.LVL341:
	j	.L252
.LVL342:
.L251:
.LBB167:
	.loc 1 1095 13 is_stmt 1
	lui	a2,%hi(.LC16)
	lui	a0,%hi(.LC2)
	mv	a3,s3
	addi	a2,a2,%lo(.LC16)
	li	a1,1095
	addi	a0,a0,%lo(.LC2)
	call	ef_log_debug
.LVL343:
	.loc 1 1096 13
	.loc 1 1096 20 is_stmt 0
	li	s1,4
.LVL344:
.L252:
.LBE167:
	.loc 1 1130 1
	lw	ra,140(sp)
	.cfi_remember_state
	.cfi_restore 1
	lw	s0,136(sp)
	.cfi_restore 8
	mv	a0,s1
	lw	s2,128(sp)
	.cfi_restore 18
	lw	s1,132(sp)
	.cfi_restore 9
	lw	s3,124(sp)
	.cfi_restore 19
.LVL345:
	addi	sp,sp,144
	.cfi_def_cfa_offset 0
	jr	ra
.LVL346:
.L253:
	.cfi_restore_state
	.loc 1 1104 9 is_stmt 1
	.loc 1 1104 18 is_stmt 0
	li	a3,4
	li	a2,6
	addi	a1,sp,16
	call	write_status
.LVL347:
	.loc 1 1106 12
	lbu	a5,0(s2)
	.loc 1 1104 18
	mv	s1,a0
.LVL348:
	.loc 1 1106 9 is_stmt 1
	.loc 1 1106 12 is_stmt 0
	bne	a5,zero,.L255
	.loc 1 1106 35 discriminator 1
	bne	a0,zero,.L255
	.loc 1 1109 13 is_stmt 1
	.loc 1 1109 16 is_stmt 0
	beq	s3,zero,.L256
	.loc 1 1111 17 is_stmt 1
	mv	a0,s3
.LVL349:
	call	strlen
.LVL350:
	mv	a1,a0
	li	a2,-1
	mv	a0,s3
.L259:
	.loc 1 1114 17 is_stmt 0
	call	update_env_cache
.LVL351:
.L255:
	.loc 1 1119 9 is_stmt 1
	.loc 1 1119 30 is_stmt 0
	sb	zero,0(s2)
	j	.L254
.LVL352:
.L256:
	.loc 1 1112 20 is_stmt 1
	.loc 1 1114 17
	li	a2,-1
	lbu	a1,2(s0)
	addi	a0,s0,16
.LVL353:
	j	.L259
	.cfi_endproc
.LFE36:
	.size	del_env, .-del_env
	.section	.text.move_env,"ax",@progbits
	.align	1
	.type	move_env, @function
move_env:
.LFB37:
	.loc 1 1136 1
	.cfi_startproc
.LVL354:
	.loc 1 1137 5
	.loc 1 1138 5
	.loc 1 1139 5
	.loc 1 1140 5
	.loc 1 1143 5
	.loc 1 1136 1 is_stmt 0
	addi	sp,sp,-240
	.cfi_def_cfa_offset 240
	sw	s0,232(sp)
	sw	ra,236(sp)
	sw	s1,228(sp)
	sw	s2,224(sp)
	sw	s3,220(sp)
	sw	s4,216(sp)
	sw	s5,212(sp)
	sw	s6,208(sp)
	sw	s7,204(sp)
	.cfi_offset 8, -8
	.cfi_offset 1, -4
	.cfi_offset 9, -12
	.cfi_offset 18, -16
	.cfi_offset 19, -20
	.cfi_offset 20, -24
	.cfi_offset 21, -28
	.cfi_offset 22, -32
	.cfi_offset 23, -36
	.loc 1 1143 8
	lbu	a4,0(a0)
	li	a5,2
	.loc 1 1136 1
	mv	s0,a0
	.loc 1 1143 8
	bne	a4,a5,.L261
	.loc 1 1144 9 is_stmt 1
	mv	a1,a0
	li	a2,0
	li	a0,0
.LVL355:
	call	del_env
.LVL356:
.L261:
	.loc 1 1147 5
	.loc 1 1147 21 is_stmt 0
	lw	a1,8(s0)
	addi	a0,sp,12
	.loc 1 1160 16
	li	s4,6
	.loc 1 1147 21
	call	alloc_env
.LVL357:
	.loc 1 1147 8
	li	a5,-1
	.loc 1 1147 21
	mv	s1,a0
.LVL358:
	.loc 1 1147 8
	beq	a0,a5,.L262
	.loc 1 1148 9 is_stmt 1
	.loc 1 1148 12 is_stmt 0
	lui	a5,%hi(.LANCHOR9)
	lbu	a5,%lo(.LANCHOR9)(a5)
	addi	s6,s0,16
	beq	a5,zero,.L263
.LBB172:
	.loc 1 1149 13 is_stmt 1
	.loc 1 1150 13
	.loc 1 1150 18 is_stmt 0
	li	a2,65
	li	a1,0
	addi	a0,sp,36
	call	memset
.LVL359:
	.loc 1 1151 13 is_stmt 1
	lbu	a2,2(s0)
	mv	a1,s6
	addi	a0,sp,36
	call	strncpy
.LVL360:
	.loc 1 1153 13
.LBB173:
.LBB174:
	.loc 1 730 4
	.loc 1 732 5 is_stmt 0
	lui	a3,%hi(find_env_cb)
	addi	a3,a3,%lo(find_env_cb)
	addi	a2,sp,11
	addi	a1,sp,36
.LVL361:
	addi	a0,sp,104
.LVL362:
	.loc 1 730 9
	sb	zero,11(sp)
	.loc 1 732 5 is_stmt 1
	call	env_iterator
.LVL363:
	.loc 1 734 5
	.loc 1 734 12 is_stmt 0
	lbu	a5,11(sp)
.LVL364:
.LBE174:
.LBE173:
	.loc 1 1155 24
	li	s4,0
	.loc 1 1153 16
	bne	a5,zero,.L265
.L263:
.LBE172:
.LBB175:
	.loc 1 1164 9 is_stmt 1
	.loc 1 1165 9
	.loc 1 1165 27 is_stmt 0
	lw	s3,8(s0)
.LVL365:
	.loc 1 1168 9 is_stmt 1
	li	a2,0
	addi	a0,sp,12
	mv	a1,s3
	call	update_sec_status
.LVL366:
	.loc 1 1170 9
	li	a3,1
	li	a2,6
	addi	a1,sp,36
	mv	a0,s1
	call	write_status
.LVL367:
	.loc 1 1171 9
	.loc 1 1171 17 is_stmt 0
	addi	s3,s3,-8
.LVL368:
	.loc 1 1172 9 is_stmt 1
	.loc 1 1172 18 is_stmt 0
	li	s2,0
.LBE175:
	.loc 1 1137 15
	li	s4,0
.LBB176:
	.loc 1 1179 22
	addi	s7,s1,8
.LVL369:
.L266:
	.loc 1 1172 9 discriminator 1
	bltu	s2,s3,.L268
	.loc 1 1181 9 is_stmt 1
	li	a3,2
	li	a2,6
	addi	a1,sp,36
	mv	a0,s1
	call	write_status
.LVL370:
	.loc 1 1184 9
	lw	a1,12(s0)
	.loc 1 1185 163 is_stmt 0
	lbu	a5,2(s0)
	.loc 1 1184 9
	li	a0,-4096
	addi	a1,a1,28
	add	a1,a1,a5
	add	a1,a1,s1
	and	a0,s1,a0
	call	update_sector_cache
.LVL371:
	.loc 1 1186 9 is_stmt 1
	lbu	a1,2(s0)
	mv	a2,s1
	mv	a0,s6
	call	update_env_cache
.LVL372:
.LBE176:
	.loc 1 1190 5
	lw	a5,80(s0)
	lbu	a3,2(s0)
	lui	a2,%hi(.LC17)
	lui	a0,%hi(.LC2)
	mv	a6,s1
	mv	a4,s6
	addi	a2,a2,%lo(.LC17)
	li	a1,1190
	addi	a0,a0,%lo(.LC2)
	call	ef_log_debug
.LVL373:
.L265:
	.loc 1 1193 5
	li	a2,1
	mv	a1,s0
	li	a0,0
	call	del_env
.LVL374:
	.loc 1 1195 5
.L262:
	.loc 1 1196 1 is_stmt 0
	lw	ra,236(sp)
	.cfi_remember_state
	.cfi_restore 1
	lw	s0,232(sp)
	.cfi_restore 8
.LVL375:
	mv	a0,s4
	lw	s1,228(sp)
	.cfi_restore 9
.LVL376:
	lw	s2,224(sp)
	.cfi_restore 18
	lw	s3,220(sp)
	.cfi_restore 19
	lw	s4,216(sp)
	.cfi_restore 20
	lw	s5,212(sp)
	.cfi_restore 21
	lw	s6,208(sp)
	.cfi_restore 22
	lw	s7,204(sp)
	.cfi_restore 23
	addi	sp,sp,240
	.cfi_def_cfa_offset 0
	jr	ra
.LVL377:
.L268:
	.cfi_restore_state
.LBB177:
	.loc 1 1173 13 is_stmt 1
	.loc 1 1173 21 is_stmt 0
	addi	a5,s2,32
	.loc 1 1174 22
	li	s5,32
	.loc 1 1173 16
	bltu	a5,s3,.L267
	.loc 1 1176 17 is_stmt 1
	.loc 1 1176 22 is_stmt 0
	sub	s5,s3,s2
.LVL378:
.L267:
	.loc 1 1178 13 is_stmt 1 discriminator 2
	lw	a0,80(s0)
	mv	a2,s5
	addi	a1,sp,104
	addi	a0,a0,8
	add	a0,a0,s2
	call	ef_port_read
.LVL379:
	.loc 1 1179 13 discriminator 2
	.loc 1 1179 22 is_stmt 0 discriminator 2
	add	a0,s7,s2
	mv	a2,s5
	addi	a1,sp,104
	call	ef_port_write
.LVL380:
	mv	s4,a0
.LVL381:
	.loc 1 1172 52 discriminator 2
	add	s2,s2,s5
.LVL382:
	j	.L266
.LBE177:
	.cfi_endproc
.LFE37:
	.size	move_env, .-move_env
	.section	.text.check_and_recovery_env_cb,"ax",@progbits
	.align	1
	.type	check_and_recovery_env_cb, @function
check_and_recovery_env_cb:
.LFB57:
	.loc 1 1743 1 is_stmt 1
	.cfi_startproc
.LVL383:
	.loc 1 1745 5
	.loc 1 1743 1 is_stmt 0
	addi	sp,sp,-32
	.cfi_def_cfa_offset 32
	sw	s0,24(sp)
	sw	ra,28(sp)
	sw	s1,20(sp)
	.cfi_offset 8, -8
	.cfi_offset 1, -4
	.cfi_offset 9, -12
	.loc 1 1745 12
	lbu	s1,1(a0)
	.loc 1 1743 1
	mv	s0,a0
	lbu	a5,0(a0)
	.loc 1 1745 8
	beq	s1,zero,.L279
	.loc 1 1745 24 discriminator 1
	li	a4,3
	bne	a5,a4,.L279
	.loc 1 1746 9 is_stmt 1
	lbu	a1,2(a0)
.LVL384:
	addi	a2,a0,16
.LVL385:
	lui	a0,%hi(.LC18)
.LVL386:
	addi	a0,a0,%lo(.LC18)
	call	ef_log_info
.LVL387:
	.loc 1 1748 9
	.loc 1 1748 13 is_stmt 0
	mv	a0,s0
	call	move_env
.LVL388:
	lui	a5,%hi(.LC2)
	.loc 1 1748 12
	bne	a0,zero,.L280
	.loc 1 1749 13 is_stmt 1
	lui	a2,%hi(.LC19)
	addi	a2,a2,%lo(.LC19)
	li	a1,1749
	addi	a0,a5,%lo(.LC2)
	call	ef_log_debug
.LVL389:
	.loc 1 1762 11 is_stmt 0
	li	s1,0
.L281:
	.loc 1 1763 1 discriminator 1
	lw	ra,28(sp)
	.cfi_remember_state
	.cfi_restore 1
	lw	s0,24(sp)
	.cfi_restore 8
.LVL390:
	mv	a0,s1
	lw	s1,20(sp)
	.cfi_restore 9
	addi	sp,sp,32
	.cfi_def_cfa_offset 0
	jr	ra
.LVL391:
.L280:
	.cfi_restore_state
.LBB182:
.LBB183:
	.loc 1 1751 13 is_stmt 1
	lw	a3,8(s0)
	lui	a2,%hi(.LC20)
	addi	a2,a2,%lo(.LC20)
	li	a1,1751
	addi	a0,a5,%lo(.LC2)
	call	ef_log_debug
.LVL392:
	.loc 1 1752 13
	j	.L281
.LVL393:
.L279:
.LBE183:
.LBE182:
	.loc 1 1754 12
	.loc 1 1754 15 is_stmt 0
	li	a4,1
	.loc 1 1762 11
	li	s1,0
	.loc 1 1754 15
	bne	a5,a4,.L281
.LBB184:
	.loc 1 1755 9 is_stmt 1
	.loc 1 1758 9
	lw	a0,80(s0)
	li	a3,5
	li	a2,6
.LVL394:
	addi	a1,sp,8
.LVL395:
	call	write_status
.LVL396:
	.loc 1 1759 9
	.loc 1 1759 15 is_stmt 0
	li	s1,1
	j	.L281
.LBE184:
	.cfi_endproc
.LFE57:
	.size	check_and_recovery_env_cb, .-check_and_recovery_env_cb
	.section	.text.do_gc,"ax",@progbits
	.align	1
	.type	do_gc, @function
do_gc:
.LFB41:
	.loc 1 1235 1 is_stmt 1
	.cfi_startproc
.LVL397:
	.loc 1 1236 5
	.loc 1 1238 5
	.loc 1 1238 8 is_stmt 0
	lbu	a5,0(a0)
	beq	a5,zero,.L301
	.loc 1 1238 72 discriminator 1
	lbu	a5,2(a0)
	.loc 1 1238 26 discriminator 1
	li	a4,1
	.loc 1 1238 72 discriminator 1
	addi	a5,a5,-2
	.loc 1 1238 26 discriminator 1
	andi	a5,a5,0xff
	bgtu	a5,a4,.L301
	.loc 1 1235 1
	addi	sp,sp,-128
	.cfi_def_cfa_offset 128
	sw	s0,120(sp)
	sw	s1,116(sp)
	sw	s2,112(sp)
	sw	s3,108(sp)
	sw	s4,104(sp)
	sw	ra,124(sp)
	.cfi_offset 8, -8
	.cfi_offset 9, -12
	.cfi_offset 18, -16
	.cfi_offset 19, -20
	.cfi_offset 20, -24
	.cfi_offset 1, -4
	mv	s0,a0
.LVL398:
.LBB188:
.LBB189:
.LBB190:
	.loc 1 1239 9 is_stmt 1
	.loc 1 1241 9
	lw	a0,4(a0)
.LVL399:
	li	a3,3
	li	a2,4
.LVL400:
	addi	a1,sp,4
.LVL401:
	addi	a0,a0,3
	call	write_status
.LVL402:
	.loc 1 1243 9
	.loc 1 1243 24 is_stmt 0
	li	a5,-1
	sw	a5,88(sp)
	.loc 1 1244 9 is_stmt 1
	.loc 1 1244 15 is_stmt 0
	li	s1,-1
	.loc 1 1246 31
	li	s2,1
	.loc 1 1249 21
	lui	s3,%hi(.LC21)
	lui	s4,%hi(.LC2)
.L289:
	.loc 1 1244 34
	addi	a1,sp,8
	mv	a0,s0
	call	get_next_env_addr
.LVL403:
	.loc 1 1244 32
	sw	a0,88(sp)
	.loc 1 1244 15
	bne	a0,s1,.L293
	.loc 1 1253 9 is_stmt 1
	lw	a0,4(s0)
	call	format_sector.constprop.16
.LVL404:
	.loc 1 1254 9
	lw	a3,4(s0)
	lui	a2,%hi(.LC22)
	lui	a0,%hi(.LC2)
	addi	a0,a0,%lo(.LC2)
	addi	a2,a2,%lo(.LC22)
	li	a1,1254
	call	ef_log_debug
.LVL405:
.LBE190:
.LBE189:
.LBE188:
	.loc 1 1257 5
	.loc 1 1258 1 is_stmt 0
	lw	ra,124(sp)
	.cfi_remember_state
	.cfi_restore 1
	lw	s0,120(sp)
	.cfi_restore 8
.LVL406:
	lw	s1,116(sp)
	.cfi_restore 9
	lw	s2,112(sp)
	.cfi_restore 18
	lw	s3,108(sp)
	.cfi_restore 19
	lw	s4,104(sp)
	.cfi_restore 20
	li	a0,0
	addi	sp,sp,128
	.cfi_def_cfa_offset 0
	jr	ra
.LVL407:
.L293:
	.cfi_restore_state
.LBB193:
.LBB192:
.LBB191:
	.loc 1 1245 13 is_stmt 1
	addi	a0,sp,8
	call	read_env
.LVL408:
	.loc 1 1246 13
	.loc 1 1246 16 is_stmt 0
	lbu	a5,9(sp)
	beq	a5,zero,.L289
	.loc 1 1246 59
	lbu	a5,8(sp)
	addi	a5,a5,-2
	.loc 1 1246 31
	andi	a5,a5,0xff
	bgtu	a5,s2,.L289
	.loc 1 1248 17 is_stmt 1
	.loc 1 1248 21 is_stmt 0
	addi	a0,sp,8
	call	move_env
.LVL409:
	.loc 1 1248 20
	beq	a0,zero,.L289
	.loc 1 1249 21 is_stmt 1
	lbu	a3,10(sp)
	addi	a4,sp,24
	addi	a2,s3,%lo(.LC21)
	li	a1,1249
	addi	a0,s4,%lo(.LC2)
	call	ef_log_debug
.LVL410:
	j	.L289
.LVL411:
.L301:
	.cfi_def_cfa_offset 0
	.cfi_restore 1
	.cfi_restore 8
	.cfi_restore 9
	.cfi_restore 18
	.cfi_restore 19
	.cfi_restore 20
.LBE191:
.LBE192:
.LBE193:
	.loc 1 1257 5
	.loc 1 1258 1 is_stmt 0
	li	a0,0
.LVL412:
	ret
	.cfi_endproc
.LFE41:
	.size	do_gc, .-do_gc
	.section	.text.create_env_blob,"ax",@progbits
	.align	1
	.type	create_env_blob, @function
create_env_blob:
.LFB44:
	.loc 1 1309 1 is_stmt 1
	.cfi_startproc
.LVL413:
	.loc 1 1310 5
	.loc 1 1311 5
	.loc 1 1312 4
	.loc 1 1309 1 is_stmt 0
	addi	sp,sp,-64
	.cfi_def_cfa_offset 64
	sw	s0,56(sp)
	sw	s2,48(sp)
	sw	s3,44(sp)
	sw	s4,40(sp)
	sw	ra,60(sp)
	sw	s1,52(sp)
	sw	s5,36(sp)
	.cfi_offset 8, -8
	.cfi_offset 18, -16
	.cfi_offset 19, -20
	.cfi_offset 20, -24
	.cfi_offset 1, -4
	.cfi_offset 9, -12
	.cfi_offset 21, -28
	.loc 1 1313 14
	lw	s1,20(a0)
	.loc 1 1309 1
	mv	s4,a0
	.loc 1 1315 9
	mv	a0,a1
.LVL414:
	.loc 1 1309 1
	mv	s2,a1
	mv	s3,a2
	mv	s0,a3
	.loc 1 1312 9
	sb	zero,3(sp)
	.loc 1 1313 5 is_stmt 1
.LVL415:
	.loc 1 1315 5
	.loc 1 1315 9 is_stmt 0
	call	strlen
.LVL416:
	.loc 1 1315 8
	li	a5,64
	bleu	a0,a5,.L305
	.loc 1 1316 9 is_stmt 1
	lui	a0,%hi(.LC23)
	li	a1,64
	addi	a0,a0,%lo(.LC23)
	call	ef_log_info
.LVL417:
	.loc 1 1317 9
	.loc 1 1317 16 is_stmt 0
	li	s0,4
.LVL418:
.L306:
	.loc 1 1386 1
	mv	a0,s0
	lw	ra,60(sp)
	.cfi_remember_state
	.cfi_restore 1
	lw	s0,56(sp)
	.cfi_restore 8
	lw	s1,52(sp)
	.cfi_restore 9
.LVL419:
	lw	s2,48(sp)
	.cfi_restore 18
	lw	s3,44(sp)
	.cfi_restore 19
.LVL420:
	lw	s4,40(sp)
	.cfi_restore 20
.LVL421:
	lw	s5,36(sp)
	.cfi_restore 21
	addi	sp,sp,64
	.cfi_def_cfa_offset 0
	jr	ra
.LVL422:
.L305:
	.cfi_restore_state
	.loc 1 1320 5 is_stmt 1
	li	a1,255
	li	a2,28
	addi	a0,sp,4
	call	memset
.LVL423:
	.loc 1 1321 5
	.loc 1 1321 19 is_stmt 0
	li	a5,808734720
	addi	a5,a5,1611
	.loc 1 1322 24
	mv	a0,s2
	.loc 1 1321 19
	sw	a5,12(sp)
	.loc 1 1322 5 is_stmt 1
	.loc 1 1322 24 is_stmt 0
	call	strlen
.LVL424:
	.loc 1 1322 22
	sb	a0,24(sp)
	.loc 1 1323 5 is_stmt 1
	.loc 1 1324 186 is_stmt 0
	addi	a1,s0,28
	andi	a0,a0,255
	add	a1,a0,a1
	.loc 1 1326 8
	li	a5,4096
	.loc 1 1323 23
	sw	s0,28(sp)
	.loc 1 1324 5 is_stmt 1
	.loc 1 1324 17 is_stmt 0
	sw	a1,16(sp)
	.loc 1 1326 5 is_stmt 1
	.loc 1 1326 8 is_stmt 0
	addi	a5,a5,-20
	bleu	a1,a5,.L307
	.loc 1 1327 9 is_stmt 1
	lui	a0,%hi(.LC24)
	addi	a0,a0,%lo(.LC24)
	call	ef_log_info
.LVL425:
	.loc 1 1328 9
	.loc 1 1328 16 is_stmt 0
	li	s0,6
.LVL426:
	j	.L306
.LVL427:
.L307:
	.loc 1 1331 5 is_stmt 1
	.loc 1 1331 8 is_stmt 0
	li	s5,-1
	bne	s1,s5,.L308
	.loc 1 1331 47 discriminator 1
	mv	a0,s4
	call	new_env
.LVL428:
	mv	s1,a0
.LVL429:
	.loc 1 1382 16 discriminator 1
	li	s0,6
.LVL430:
	.loc 1 1331 32 discriminator 1
	beq	a0,s5,.L306
.L308:
.LBB202:
	.loc 1 1332 9 is_stmt 1
	.loc 1 1334 9
	.loc 1 1335 13
	.loc 1 1335 22 is_stmt 0
	lw	a1,16(sp)
	addi	a2,sp,3
	mv	a0,s4
	call	update_sec_status
.LVL431:
	mv	s0,a0
.LVL432:
	.loc 1 1337 9 is_stmt 1
	.loc 1 1337 12 is_stmt 0
	bne	a0,zero,.L306
.LBB203:
	.loc 1 1338 13 is_stmt 1
.LVL433:
	.loc 1 1340 13
	.loc 1 1340 29 is_stmt 0
	li	a2,8
	addi	a1,sp,24
	call	ef_calc_crc32
.LVL434:
	.loc 1 1341 29
	lbu	a2,24(sp)
	mv	a1,s2
	.loc 1 1340 27
	sw	a0,20(sp)
	.loc 1 1341 13 is_stmt 1
	.loc 1 1341 29 is_stmt 0
	call	ef_calc_crc32
.LVL435:
	.loc 1 1346 29
	lw	a2,28(sp)
	mv	a1,s3
	.loc 1 1341 27
	sw	a0,20(sp)
	.loc 1 1342 13 is_stmt 1
.LVL436:
	.loc 1 1343 13
	.loc 1 1346 13
	.loc 1 1346 29 is_stmt 0
	call	ef_calc_crc32
.LVL437:
	.loc 1 1346 27
	sw	a0,20(sp)
	.loc 1 1347 13 is_stmt 1
.LVL438:
	.loc 1 1348 13
	.loc 1 1352 13
.LBB204:
.LBB205:
	.loc 1 932 5
	.loc 1 934 5
	.loc 1 934 14 is_stmt 0
	li	a3,1
	li	a2,6
	addi	a1,sp,4
.LVL439:
	mv	a0,s1
	call	write_status
.LVL440:
	mv	s0,a0
.LVL441:
	.loc 1 935 5 is_stmt 1
	.loc 1 935 8 is_stmt 0
	bne	a0,zero,.L306
	.loc 1 939 5 is_stmt 1
	.loc 1 939 14 is_stmt 0
	li	a2,20
	addi	a1,sp,12
	addi	a0,s1,8
.LVL442:
	call	ef_port_write
.LVL443:
	mv	s0,a0
.LVL444:
	.loc 1 941 5 is_stmt 1
.LBE205:
.LBE204:
.LBE203:
	.loc 1 1356 9
	.loc 1 1356 12 is_stmt 0
	bne	a0,zero,.L306
	.loc 1 1357 13 is_stmt 1
	.loc 1 1357 22 is_stmt 0
	lbu	s0,24(sp)
.LVL445:
.LBB206:
.LBB207:
	.loc 1 1284 5 is_stmt 1
	.loc 1 1285 5
	.loc 1 1288 5
	.loc 1 1289 5
	.loc 1 1296 5
	li	a2,1
	li	a1,255
	mv	a0,sp
.LVL446:
	call	memset
.LVL447:
	.loc 1 1297 5
	.loc 1 1297 14 is_stmt 0
	mv	a2,s0
	mv	a1,s2
	addi	a0,s1,28
.LVL448:
	call	ef_port_write
.LVL449:
.LBE207:
.LBE206:
	.loc 1 1360 16
	lbu	a5,3(sp)
.LBB209:
.LBB208:
	.loc 1 1297 14
	mv	s0,a0
.LVL450:
	.loc 1 1299 5 is_stmt 1
	.loc 1 1300 5
	.loc 1 1305 5
.LBE208:
.LBE209:
	.loc 1 1360 13
	.loc 1 1360 16 is_stmt 0
	bne	a5,zero,.L309
	.loc 1 1361 17 is_stmt 1
	lw	a1,28(sp)
	.loc 1 1362 174 is_stmt 0
	lbu	a5,24(sp)
	.loc 1 1361 17
	lw	a0,4(s4)
	addi	a1,a1,28
	add	a1,a1,a5
	add	a1,a1,s1
	call	update_sector_cache
.LVL451:
.L309:
	.loc 1 1364 13 is_stmt 1
	lbu	a1,24(sp)
	mv	a2,s1
	mv	a0,s2
	call	update_env_cache
.LVL452:
	.loc 1 1368 9
	.loc 1 1368 12 is_stmt 0
	bne	s0,zero,.L306
	.loc 1 1369 13 is_stmt 1
	.loc 1 1369 183 is_stmt 0
	lbu	s0,24(sp)
.LVL453:
	.loc 1 1370 28
	lw	s2,28(sp)
.LVL454:
.LBB210:
.LBB211:
	.loc 1 1296 5
	li	a2,1
	li	a1,255
.LBE211:
.LBE210:
	.loc 1 1369 22
	addi	s0,s0,28
.LBB214:
.LBB212:
	.loc 1 1296 5
	mv	a0,sp
	call	memset
.LVL455:
.LBE212:
.LBE214:
	.loc 1 1369 22
	add	s0,s0,s1
.LVL456:
.LBB215:
.LBB213:
	.loc 1 1284 5 is_stmt 1
	.loc 1 1285 5
	.loc 1 1288 5
	.loc 1 1289 5
	.loc 1 1296 5
	.loc 1 1297 5
	.loc 1 1297 14 is_stmt 0
	mv	a0,s0
	mv	a2,s2
	mv	a1,s3
	call	ef_port_write
.LVL457:
	mv	s0,a0
.LVL458:
	.loc 1 1299 5 is_stmt 1
	.loc 1 1300 5
	.loc 1 1305 5
.LBE213:
.LBE215:
	.loc 1 1373 9
	.loc 1 1373 12 is_stmt 0
	bne	a0,zero,.L306
	.loc 1 1374 13 is_stmt 1
	.loc 1 1374 22 is_stmt 0
	li	a3,2
	li	a2,6
	addi	a1,sp,4
.LVL459:
	mv	a0,s1
.LVL460:
	call	write_status
.LVL461:
	mv	s0,a0
.LVL462:
	.loc 1 1377 9 is_stmt 1
	.loc 1 1377 12 is_stmt 0
	bne	a0,zero,.L306
	.loc 1 1377 33 discriminator 1
	lbu	a5,3(sp)
	beq	a5,zero,.L306
	.loc 1 1378 13 is_stmt 1
	lui	a2,%hi(.LC25)
	lui	a0,%hi(.LC2)
.LVL463:
	addi	a2,a2,%lo(.LC25)
	li	a1,1378
	addi	a0,a0,%lo(.LC2)
	call	ef_log_debug
.LVL464:
	.loc 1 1379 13
	.loc 1 1379 24 is_stmt 0
	lui	a5,%hi(.LANCHOR3)
	li	a4,1
	sb	a4,%lo(.LANCHOR3)(a5)
	j	.L306
.LBE202:
	.cfi_endproc
.LFE44:
	.size	create_env_blob, .-create_env_blob
	.section	.text.ef_get_env_obj,"ax",@progbits
	.align	1
	.globl	ef_get_env_obj
	.type	ef_get_env_obj, @function
ef_get_env_obj:
.LFB25:
	.loc 1 805 1 is_stmt 1
	.cfi_startproc
.LVL465:
	.loc 1 806 4
	.loc 1 808 5
	.loc 1 805 1 is_stmt 0
	addi	sp,sp,-32
	.cfi_def_cfa_offset 32
	.loc 1 808 9
	lui	a5,%hi(.LANCHOR10)
	.loc 1 805 1
	sw	s0,24(sp)
	.cfi_offset 8, -8
	.loc 1 808 9
	lbu	s0,%lo(.LANCHOR10)(a5)
	.loc 1 805 1
	sw	ra,28(sp)
	.cfi_offset 1, -4
	.loc 1 808 8
	bne	s0,zero,.L316
	.loc 1 809 9 is_stmt 1
	lui	a0,%hi(.LC26)
.LVL466:
	addi	a0,a0,%lo(.LC26)
	call	ef_log_info
.LVL467:
	.loc 1 810 9
.L317:
	.loc 1 822 1 is_stmt 0
	mv	a0,s0
	lw	ra,28(sp)
	.cfi_remember_state
	.cfi_restore 1
	lw	s0,24(sp)
	.cfi_restore 8
	addi	sp,sp,32
	.cfi_def_cfa_offset 0
	jr	ra
.LVL468:
.L316:
	.cfi_restore_state
	sw	a1,12(sp)
	sw	a0,8(sp)
	.loc 1 814 5 is_stmt 1
	call	ef_port_env_lock
.LVL469:
	.loc 1 816 5
	.loc 1 816 15 is_stmt 0
	lw	a1,12(sp)
	lw	a0,8(sp)
	call	find_env
.LVL470:
	mv	s0,a0
.LVL471:
	.loc 1 819 5 is_stmt 1
	call	ef_port_env_unlock
.LVL472:
	.loc 1 821 5
	.loc 1 821 12 is_stmt 0
	j	.L317
	.cfi_endproc
.LFE25:
	.size	ef_get_env_obj, .-ef_get_env_obj
	.section	.text.ef_get_env_blob,"ax",@progbits
	.align	1
	.globl	ef_get_env_blob
	.type	ef_get_env_blob, @function
ef_get_env_blob:
.LFB26:
	.loc 1 835 1 is_stmt 1
	.cfi_startproc
.LVL473:
	.loc 1 836 5
	.loc 1 838 5
	.loc 1 838 8 is_stmt 0
	lui	a5,%hi(.LANCHOR10)
	lbu	a5,%lo(.LANCHOR10)(a5)
	.loc 1 835 1
	addi	sp,sp,-144
	.cfi_def_cfa_offset 144
	sw	ra,140(sp)
	sw	s0,136(sp)
	sw	s1,132(sp)
	sw	s2,128(sp)
	sw	s3,124(sp)
	.cfi_offset 1, -4
	.cfi_offset 8, -8
	.cfi_offset 9, -12
	.cfi_offset 18, -16
	.cfi_offset 19, -20
	.loc 1 838 8
	bne	a5,zero,.L320
	.loc 1 839 9 is_stmt 1
	lui	a0,%hi(.LC26)
.LVL474:
	addi	a0,a0,%lo(.LC26)
	call	ef_log_info
.LVL475:
	.loc 1 840 9
	.loc 1 840 16 is_stmt 0
	li	s0,0
.L319:
	.loc 1 861 1
	mv	a0,s0
	lw	ra,140(sp)
	.cfi_remember_state
	.cfi_restore 1
	lw	s0,136(sp)
	.cfi_restore 8
	lw	s1,132(sp)
	.cfi_restore 9
	lw	s2,128(sp)
	.cfi_restore 18
	lw	s3,124(sp)
	.cfi_restore 19
	addi	sp,sp,144
	.cfi_def_cfa_offset 0
	jr	ra
.LVL476:
.L320:
	.cfi_restore_state
	mv	s0,a0
	mv	s1,a1
	.loc 1 843 5 is_stmt 1
	.loc 1 843 8 is_stmt 0
	beq	a0,zero,.L322
.LVL477:
	.loc 1 843 14 discriminator 1
	bne	a1,zero,.L323
.L322:
	.loc 1 844 9 is_stmt 1
	.loc 1 844 14
	.loc 1 844 16
.LBB226:
.LBB227:
	.file 2 "/home/hogc/build-tools/sdk/bl/bl_iot_sdk/components/bl602/freertos_riscv_ram/portable/GCC/RISC-V/portmacro.h"
	.loc 2 151 5
	.loc 2 151 31 is_stmt 0
	lui	a5,%hi(TrapNetCounter)
.LBE227:
.LBE226:
	.loc 1 844 16
	lw	a5,%lo(TrapNetCounter)(a5)
	beq	a5,zero,.L324
	.loc 1 844 108 discriminator 1
	call	xTaskGetTickCountFromISR
.LVL478:
.L325:
	.loc 1 844 16 discriminator 4
	lui	a3,%hi(.LC27)
	lui	a2,%hi(.LC28)
	mv	a1,a0
	lui	a0,%hi(.LC29)
	mv	a6,s1
	mv	a5,s0
	li	a4,844
	addi	a3,a3,%lo(.LC27)
	addi	a2,a2,%lo(.LC28)
	addi	a0,a0,%lo(.LC29)
.L342:
.LBB228:
.LBB229:
	.loc 1 849 16
	call	bl_printk
.LVL479:
	.loc 1 849 213 is_stmt 1
	.loc 1 850 9
	.loc 1 850 16 is_stmt 0
	li	s0,8
.LVL480:
	j	.L319
.LVL481:
.L324:
.LBE229:
.LBE228:
	.loc 1 844 137 discriminator 2
	call	xTaskGetTickCount
.LVL482:
	j	.L325
.LVL483:
.L323:
	mv	s3,a2
	mv	s2,a3
.LVL484:
.LBB235:
.LBB234:
	.loc 1 848 5 is_stmt 1
	.loc 1 848 9 is_stmt 0
	call	strlen
.LVL485:
	.loc 1 848 8
	li	a5,64
	bleu	a0,a5,.L326
	.loc 1 849 9 is_stmt 1
	.loc 1 849 14
	.loc 1 849 16
.LBB230:
.LBB231:
	.loc 2 151 5
	.loc 2 151 31 is_stmt 0
	lui	a5,%hi(TrapNetCounter)
.LBE231:
.LBE230:
	.loc 1 849 16
	lw	a5,%lo(TrapNetCounter)(a5)
	beq	a5,zero,.L327
	.loc 1 849 100
	call	xTaskGetTickCountFromISR
.LVL486:
.L341:
	sw	a0,12(sp)
	.loc 1 849 16
	mv	a0,s0
	call	strlen
.LVL487:
	mv	a5,a0
	lui	a3,%hi(.LC27)
	lui	a2,%hi(.LC28)
	lui	a0,%hi(.LC30)
	li	a6,64
	li	a4,849
	addi	a3,a3,%lo(.LC27)
	addi	a2,a2,%lo(.LC28)
	lw	a1,12(sp)
	addi	a0,a0,%lo(.LC30)
	j	.L342
.L327:
	.loc 1 849 129
	call	xTaskGetTickCount
.LVL488:
	j	.L341
.L326:
	.loc 1 853 5 is_stmt 1
	call	ef_port_env_lock
.LVL489:
	.loc 1 855 5
.LBB232:
.LBB233:
	.loc 1 776 5
	.loc 1 777 5
	.loc 1 779 5
	.loc 1 779 9 is_stmt 0
	mv	a0,s0
	addi	a1,sp,24
	call	find_env
.LVL490:
	.loc 1 777 12
	li	s0,0
.LVL491:
	.loc 1 779 8
	beq	a0,zero,.L329
	.loc 1 780 9 is_stmt 1
	lw	a5,36(sp)
	.loc 1 780 12 is_stmt 0
	beq	s2,zero,.L330
	.loc 1 781 13 is_stmt 1
	.loc 1 781 24 is_stmt 0
	sw	a5,0(s2)
.L330:
	.loc 1 783 9 is_stmt 1
	mv	s0,s3
	bleu	s3,a5,.L331
.LVL492:
	mv	s0,a5
.LVL493:
.L331:
	.loc 1 788 9
	.loc 1 789 13
	lw	a0,108(sp)
	mv	a2,s0
	mv	a1,s1
	call	ef_port_read
.LVL494:
.L329:
	.loc 1 793 5
.LBE233:
.LBE232:
	.loc 1 858 5
	call	ef_port_env_unlock
.LVL495:
	.loc 1 860 5
	j	.L319
.LBE234:
.LBE235:
	.cfi_endproc
.LFE26:
	.size	ef_get_env_blob, .-ef_get_env_blob
	.section	.text.ef_get_env,"ax",@progbits
	.align	1
	.globl	ef_get_env
	.type	ef_get_env, @function
ef_get_env:
.LFB27:
	.loc 1 874 1
	.cfi_startproc
.LVL496:
	.loc 1 875 5
	.loc 1 876 5
	.loc 1 878 5
	.loc 1 874 1 is_stmt 0
	addi	sp,sp,-16
	.cfi_def_cfa_offset 16
	sw	s0,8(sp)
	.loc 1 878 21
	li	a2,4096
	.cfi_offset 8, -8
	lui	s0,%hi(value.2983)
	li	a3,0
	addi	a2,a2,-116
	addi	a1,s0,%lo(value.2983)
	.loc 1 874 1
	sw	ra,12(sp)
	.cfi_offset 1, -4
	.loc 1 878 21
	call	ef_get_env_blob
.LVL497:
	.loc 1 878 8
	beq	a0,zero,.L352
.LBB238:
.LBB239:
	.loc 1 767 36
	addi	a5,s0,%lo(value.2983)
	.loc 1 766 12
	li	a4,0
	.loc 1 767 12
	li	a2,94
	addi	s0,s0,%lo(value.2983)
.L346:
.LVL498:
	.loc 1 767 9 is_stmt 1
	.loc 1 767 36 is_stmt 0
	add	a3,a4,a5
	lbu	a3,0(a3)
	.loc 1 767 41
	addi	a3,a3,-32
	.loc 1 767 12
	bgtu	a3,a2,.L345
	.loc 1 766 27
	addi	a4,a4,1
.LVL499:
	.loc 1 766 5
	bne	a0,a4,.L346
.LVL500:
.LBE239:
.LBE238:
	.loc 1 881 13 is_stmt 1
	.loc 1 881 29 is_stmt 0
	add	a5,a5,a0
	sb	zero,0(a5)
	.loc 1 882 13 is_stmt 1
	.loc 1 882 20 is_stmt 0
	mv	a0,s0
.LVL501:
.L343:
	.loc 1 890 1
	lw	ra,12(sp)
	.cfi_remember_state
	.cfi_restore 1
	lw	s0,8(sp)
	.cfi_restore 8
	addi	sp,sp,16
	.cfi_def_cfa_offset 0
	jr	ra
.LVL502:
.L345:
	.cfi_restore_state
	.loc 1 884 13 is_stmt 1
	lui	a0,%hi(.LC31)
.LVL503:
	addi	a0,a0,%lo(.LC31)
	call	ef_log_info
.LVL504:
.L352:
	.loc 1 885 13
	.loc 1 885 19 is_stmt 0
	li	a0,0
	j	.L343
	.cfi_endproc
.LFE27:
	.size	ef_get_env, .-ef_get_env
	.section	.text.ef_read_env_value,"ax",@progbits
	.align	1
	.globl	ef_read_env_value
	.type	ef_read_env_value, @function
ef_read_env_value:
.LFB28:
	.loc 1 902 1 is_stmt 1
	.cfi_startproc
.LVL505:
	.loc 1 903 5
	.loc 1 905 5
	.loc 1 902 1 is_stmt 0
	addi	sp,sp,-32
	.cfi_def_cfa_offset 32
	sw	ra,28(sp)
	sw	s0,24(sp)
	.cfi_offset 1, -4
	.cfi_offset 8, -8
	.loc 1 905 8
	bne	a0,zero,.L354
	.loc 1 905 19 is_stmt 1 discriminator 1
	lui	a4,%hi(.LANCHOR11)
	lui	a3,%hi(.LC32)
	lui	a2,%hi(.LC1)
.LVL506:
	lui	a0,%hi(.LC2)
.LVL507:
	addi	a4,a4,%lo(.LANCHOR11)
	addi	a3,a3,%lo(.LC32)
	addi	a2,a2,%lo(.LC1)
	li	a1,905
.LVL508:
	addi	a0,a0,%lo(.LC2)
	call	ef_log_debug
.LVL509:
.L355:
	.loc 1 905 181 discriminator 1
	.loc 1 905 190 discriminator 1
	j	.L355
.LVL510:
.L354:
	.loc 1 905 193 discriminator 2
	.loc 1 906 5 discriminator 2
	.loc 1 906 8 is_stmt 0 discriminator 2
	bne	a1,zero,.L356
	.loc 1 906 25 is_stmt 1 discriminator 1
	lui	a4,%hi(.LANCHOR11)
	lui	a3,%hi(.LC33)
	lui	a2,%hi(.LC1)
.LVL511:
	lui	a0,%hi(.LC2)
.LVL512:
	addi	a4,a4,%lo(.LANCHOR11)
	addi	a3,a3,%lo(.LC33)
	addi	a2,a2,%lo(.LC1)
	li	a1,906
.LVL513:
	addi	a0,a0,%lo(.LC2)
	call	ef_log_debug
.LVL514:
.L357:
	.loc 1 906 193 discriminator 2
	.loc 1 906 202 discriminator 2
	j	.L357
.LVL515:
.L356:
	.loc 1 906 205 discriminator 2
	.loc 1 908 5 discriminator 2
	.loc 1 908 8 is_stmt 0 discriminator 2
	lui	a5,%hi(.LANCHOR10)
	lbu	a5,%lo(.LANCHOR10)(a5)
	bne	a5,zero,.L358
	.loc 1 909 9 is_stmt 1
	lui	a0,%hi(.LC26)
.LVL516:
	addi	a0,a0,%lo(.LC26)
	call	ef_log_info
.LVL517:
	.loc 1 910 9
	.loc 1 910 16 is_stmt 0
	li	s0,0
.LVL518:
.L353:
	.loc 1 929 1
	mv	a0,s0
	lw	ra,28(sp)
	.cfi_remember_state
	.cfi_restore 1
	lw	s0,24(sp)
	.cfi_restore 8
	addi	sp,sp,32
	.cfi_def_cfa_offset 0
	jr	ra
.LVL519:
.L358:
	.cfi_restore_state
	.loc 1 913 5 is_stmt 1
	.loc 1 913 8 is_stmt 0
	lbu	a5,1(a0)
	.loc 1 903 12
	li	s0,0
	.loc 1 913 8
	beq	a5,zero,.L353
	sw	a2,12(sp)
	sw	a1,8(sp)
	sw	a0,4(sp)
	.loc 1 915 9 is_stmt 1
	call	ef_port_env_lock
.LVL520:
	.loc 1 917 9
	lw	a0,4(sp)
	lw	a2,12(sp)
	lw	a1,8(sp)
	lw	s0,12(a0)
	bleu	s0,a2,.L360
	mv	s0,a2
.L360:
.LVL521:
	.loc 1 923 9
	lw	a0,84(a0)
	mv	a2,s0
	call	ef_port_read
.LVL522:
	.loc 1 925 9
	call	ef_port_env_unlock
.LVL523:
	j	.L353
	.cfi_endproc
.LFE28:
	.size	ef_read_env_value, .-ef_read_env_value
	.section	.text.ef_del_env,"ax",@progbits
	.align	1
	.globl	ef_del_env
	.type	ef_del_env, @function
ef_del_env:
.LFB45:
	.loc 1 1396 1
	.cfi_startproc
.LVL524:
	.loc 1 1397 5
	.loc 1 1399 5
	.loc 1 1399 8 is_stmt 0
	lui	a5,%hi(.LANCHOR10)
	lbu	a5,%lo(.LANCHOR10)(a5)
	.loc 1 1396 1
	addi	sp,sp,-32
	.cfi_def_cfa_offset 32
	sw	ra,28(sp)
	sw	s0,24(sp)
	.cfi_offset 1, -4
	.cfi_offset 8, -8
	.loc 1 1399 8
	bne	a5,zero,.L365
	.loc 1 1400 9 is_stmt 1
	lui	a0,%hi(.LC34)
.LVL525:
	addi	a0,a0,%lo(.LC34)
	call	ef_log_info
.LVL526:
	.loc 1 1401 9
	.loc 1 1401 16 is_stmt 0
	li	a0,7
.L366:
	.loc 1 1418 1
	lw	ra,28(sp)
	.cfi_remember_state
	.cfi_restore 1
	lw	s0,24(sp)
	.cfi_restore 8
	addi	sp,sp,32
	.cfi_def_cfa_offset 0
	jr	ra
.LVL527:
.L365:
	.cfi_restore_state
	mv	s0,a0
	.loc 1 1404 5 is_stmt 1
	.loc 1 1404 8 is_stmt 0
	bne	a0,zero,.L367
.LVL528:
.L370:
	.loc 1 1405 9 is_stmt 1
	.loc 1 1405 14
	.loc 1 1405 16
.LBB246:
.LBB247:
	.loc 2 151 5
	.loc 2 151 31 is_stmt 0
	lui	a5,%hi(TrapNetCounter)
.LBE247:
.LBE246:
	.loc 1 1405 16
	lw	a5,%lo(TrapNetCounter)(a5)
	bne	a5,zero,.L368
	.loc 1 1405 121 discriminator 2
	call	xTaskGetTickCount
.LVL529:
	j	.L372
.L367:
	.loc 1 1404 18 discriminator 1
	call	strlen
.LVL530:
	.loc 1 1404 14 discriminator 1
	li	a5,64
	bgtu	a0,a5,.L370
.LVL531:
.LBB248:
.LBB249:
	.loc 1 1410 5 is_stmt 1
	call	ef_port_env_lock
.LVL532:
	.loc 1 1412 5
	.loc 1 1412 14 is_stmt 0
	li	a2,1
	li	a1,0
	mv	a0,s0
	call	del_env
.LVL533:
	sw	a0,12(sp)
.LVL534:
	.loc 1 1415 5 is_stmt 1
	call	ef_port_env_unlock
.LVL535:
	lw	a0,12(sp)
	.loc 1 1417 5
.LVL536:
	j	.L366
.L368:
.LBE249:
.LBE248:
	.loc 1 1405 92 is_stmt 0 discriminator 1
	call	xTaskGetTickCountFromISR
.LVL537:
.L372:
	.loc 1 1405 16 discriminator 4
	mv	a1,a0
	lui	a3,%hi(.LC27)
	lui	a2,%hi(.LC28)
	lui	a0,%hi(.LC35)
	addi	a0,a0,%lo(.LC35)
	mv	a5,s0
	li	a4,1405
	addi	a3,a3,%lo(.LC27)
	addi	a2,a2,%lo(.LC28)
	call	bl_printk
.LVL538:
	.loc 1 1405 192 is_stmt 1 discriminator 4
	.loc 1 1406 9 discriminator 4
	.loc 1 1406 16 is_stmt 0 discriminator 4
	li	a0,0
	j	.L366
	.cfi_endproc
.LFE45:
	.size	ef_del_env, .-ef_del_env
	.section	.text.ef_del_and_save_env,"ax",@progbits
	.align	1
	.globl	ef_del_and_save_env
	.type	ef_del_and_save_env, @function
ef_del_and_save_env:
.LFB46:
	.loc 1 1431 1 is_stmt 1
	.cfi_startproc
.LVL539:
	.loc 1 1432 5
	.loc 1 1432 12 is_stmt 0
	tail	ef_del_env
.LVL540:
	.cfi_endproc
.LFE46:
	.size	ef_del_and_save_env, .-ef_del_and_save_env
	.section	.text.ef_set_env_blob,"ax",@progbits
	.align	1
	.globl	ef_set_env_blob
	.type	ef_set_env_blob, @function
ef_set_env_blob:
.LFB48:
	.loc 1 1482 1 is_stmt 1
	.cfi_startproc
.LVL541:
	.loc 1 1483 5
	.loc 1 1486 5
	.loc 1 1486 8 is_stmt 0
	lui	a5,%hi(.LANCHOR10)
	lbu	a5,%lo(.LANCHOR10)(a5)
	.loc 1 1482 1
	addi	sp,sp,-48
	.cfi_def_cfa_offset 48
	sw	ra,44(sp)
	sw	s0,40(sp)
	sw	s1,36(sp)
	sw	s2,32(sp)
	sw	s3,28(sp)
	sw	s4,24(sp)
	sw	s5,20(sp)
	sw	s6,16(sp)
	.cfi_offset 1, -4
	.cfi_offset 8, -8
	.cfi_offset 9, -12
	.cfi_offset 18, -16
	.cfi_offset 19, -20
	.cfi_offset 20, -24
	.cfi_offset 21, -28
	.cfi_offset 22, -32
	.loc 1 1486 8
	bne	a5,zero,.L378
	.loc 1 1487 9 is_stmt 1
	lui	a0,%hi(.LC26)
.LVL542:
	addi	a0,a0,%lo(.LC26)
	call	ef_log_info
.LVL543:
	.loc 1 1488 9
	.loc 1 1488 16 is_stmt 0
	li	s0,7
.L379:
	.loc 1 1515 1
	mv	a0,s0
	lw	ra,44(sp)
	.cfi_remember_state
	.cfi_restore 1
	lw	s0,40(sp)
	.cfi_restore 8
	lw	s1,36(sp)
	.cfi_restore 9
	lw	s2,32(sp)
	.cfi_restore 18
	lw	s3,28(sp)
	.cfi_restore 19
	lw	s4,24(sp)
	.cfi_restore 20
	lw	s5,20(sp)
	.cfi_restore 21
	lw	s6,16(sp)
	.cfi_restore 22
	addi	sp,sp,48
	.cfi_def_cfa_offset 0
	jr	ra
.LVL544:
.L378:
	.cfi_restore_state
	mv	s1,a0
	mv	s5,a1
	.loc 1 1491 5 is_stmt 1
	.loc 1 1491 8 is_stmt 0
	beq	a0,zero,.L380
.LVL545:
	.loc 1 1491 14 discriminator 1
	bne	a1,zero,.L381
.L380:
	.loc 1 1492 9 is_stmt 1
	.loc 1 1492 14
	.loc 1 1492 16
.LBB264:
.LBB265:
	.loc 2 151 5
	.loc 2 151 31 is_stmt 0
	lui	a5,%hi(TrapNetCounter)
.LBE265:
.LBE264:
	.loc 1 1492 16
	lw	a5,%lo(TrapNetCounter)(a5)
	beq	a5,zero,.L382
	.loc 1 1492 108 discriminator 1
	call	xTaskGetTickCountFromISR
.LVL546:
.L383:
	.loc 1 1492 16 discriminator 4
	lui	a3,%hi(.LC27)
	lui	a2,%hi(.LC28)
	mv	a1,a0
	lui	a0,%hi(.LC29)
	mv	a6,s5
	mv	a5,s1
	li	a4,1492
	addi	a3,a3,%lo(.LC27)
	addi	a2,a2,%lo(.LC28)
	addi	a0,a0,%lo(.LC29)
.L407:
.LBB266:
.LBB267:
	.loc 1 1502 16
	call	bl_printk
.LVL547:
	.loc 1 1502 216 is_stmt 1
	.loc 1 1503 9
	.loc 1 1503 16 is_stmt 0
	li	s0,8
	j	.L379
.LVL548:
.L382:
.LBE267:
.LBE266:
	.loc 1 1492 137 discriminator 2
	call	xTaskGetTickCount
.LVL549:
	j	.L383
.LVL550:
.L381:
	mv	s3,a2
.LVL551:
.LBB277:
.LBB276:
	.loc 1 1496 5 is_stmt 1
	.loc 1 1496 9 is_stmt 0
	call	strlen
.LVL552:
	.loc 1 1496 8
	li	a5,64
	bleu	a0,a5,.L384
	.loc 1 1497 9 is_stmt 1
	.loc 1 1497 14
	.loc 1 1497 16
.LBB268:
.LBB269:
	.loc 2 151 5
	.loc 2 151 31 is_stmt 0
	lui	a5,%hi(TrapNetCounter)
.LBE269:
.LBE268:
	.loc 1 1497 16
	lw	a5,%lo(TrapNetCounter)(a5)
	beq	a5,zero,.L385
	.loc 1 1497 100
	call	xTaskGetTickCountFromISR
.LVL553:
.L406:
	sw	a0,12(sp)
	.loc 1 1497 16
	mv	a0,s1
	call	strlen
.LVL554:
	mv	a5,a0
	lui	a3,%hi(.LC27)
	lui	a2,%hi(.LC28)
	lui	a0,%hi(.LC30)
	li	a6,64
	li	a4,1497
	addi	a3,a3,%lo(.LC27)
	addi	a2,a2,%lo(.LC28)
	lw	a1,12(sp)
	addi	a0,a0,%lo(.LC30)
	j	.L407
.L385:
	.loc 1 1497 129
	call	xTaskGetTickCount
.LVL555:
	j	.L406
.L384:
	.loc 1 1501 5 is_stmt 1
	.loc 1 1501 8 is_stmt 0
	li	a5,4096
	addi	a5,a5,-116
	bleu	s3,a5,.L387
	.loc 1 1502 9 is_stmt 1
	.loc 1 1502 14
	.loc 1 1502 16
.LBB270:
.LBB271:
	.loc 2 151 5
	.loc 2 151 31 is_stmt 0
	lui	a5,%hi(TrapNetCounter)
.LBE271:
.LBE270:
	.loc 1 1502 16
	lw	a5,%lo(TrapNetCounter)(a5)
	beq	a5,zero,.L388
	.loc 1 1502 104
	call	xTaskGetTickCountFromISR
.LVL556:
.L389:
	.loc 1 1502 16
	li	a6,4096
	lui	a3,%hi(.LC27)
	lui	a2,%hi(.LC28)
	mv	a1,a0
	lui	a0,%hi(.LC36)
	addi	a6,a6,-116
	mv	a5,s3
	li	a4,1502
	addi	a3,a3,%lo(.LC27)
	addi	a2,a2,%lo(.LC28)
	addi	a0,a0,%lo(.LC36)
	j	.L407
.L388:
	.loc 1 1502 133
	call	xTaskGetTickCount
.LVL557:
	j	.L389
.L387:
	.loc 1 1507 5 is_stmt 1
	call	ef_port_env_lock
.LVL558:
	.loc 1 1509 5
.LBB272:
.LBB273:
	.loc 1 1437 5
	.loc 1 1438 5
	.loc 1 1439 5
	.loc 1 1440 4
	.loc 1 1442 5
	.loc 1 1446 9
	.loc 1 1446 13 is_stmt 0
	mv	a0,s1
	call	strlen
.LVL559:
.LBB274:
.LBB275:
	.loc 1 1217 5 is_stmt 1
	.loc 1 1219 5
	.loc 1 1217 12 is_stmt 0
	addi	a1,s3,28
	.loc 1 1219 12
	lui	s4,%hi(.LANCHOR12)
	add	a1,a1,a0
	addi	a0,s4,%lo(.LANCHOR12)
.LVL560:
	call	new_env
.LVL561:
.LBE275:
.LBE274:
	.loc 1 1446 12
	li	a5,-1
	.loc 1 1447 20
	li	s0,6
	.loc 1 1446 12
	beq	a0,a5,.L390
	.loc 1 1449 9 is_stmt 1
	.loc 1 1449 24 is_stmt 0
	lui	s2,%hi(.LANCHOR13)
	addi	a1,s2,%lo(.LANCHOR13)
	mv	a0,s1
	call	find_env
.LVL562:
	mv	s6,a0
.LVL563:
	.loc 1 1451 9 is_stmt 1
	.loc 1 1451 12 is_stmt 0
	bne	a0,zero,.L391
.LVL564:
.L394:
	.loc 1 1456 13 is_stmt 1
	.loc 1 1456 22 is_stmt 0
	mv	a3,s3
	mv	a2,s5
	mv	a1,s1
	addi	a0,s4,%lo(.LANCHOR12)
	call	create_env_blob
.LVL565:
	mv	s0,a0
.LVL566:
	.loc 1 1459 9 is_stmt 1
	.loc 1 1459 12 is_stmt 0
	beq	s6,zero,.L393
	.loc 1 1459 26
	bne	a0,zero,.L393
	.loc 1 1460 13 is_stmt 1
	.loc 1 1460 22 is_stmt 0
	li	a2,1
	addi	a1,s2,%lo(.LANCHOR13)
	mv	a0,s1
.LVL567:
	call	del_env
.LVL568:
	mv	s0,a0
.LVL569:
	j	.L393
.LVL570:
.L391:
	.loc 1 1452 13 is_stmt 1
	.loc 1 1452 22 is_stmt 0
	li	a2,0
	addi	a1,s2,%lo(.LANCHOR13)
	mv	a0,s1
.LVL571:
	call	del_env
.LVL572:
	mv	s0,a0
.LVL573:
	.loc 1 1455 9 is_stmt 1
	.loc 1 1455 12 is_stmt 0
	beq	a0,zero,.L394
.LVL574:
.L393:
	.loc 1 1463 9 is_stmt 1
	.loc 1 1463 12 is_stmt 0
	lui	a5,%hi(.LANCHOR3)
	lbu	a5,%lo(.LANCHOR3)(a5)
	beq	a5,zero,.L390
	.loc 1 1464 13 is_stmt 1
	call	gc_collect
.LVL575:
.L390:
.LBE273:
.LBE272:
	.loc 1 1512 5
	call	ef_port_env_unlock
.LVL576:
	.loc 1 1514 5
	j	.L379
.LBE276:
.LBE277:
	.cfi_endproc
.LFE48:
	.size	ef_set_env_blob, .-ef_set_env_blob
	.section	.text.ef_set_env,"ax",@progbits
	.align	1
	.globl	ef_set_env
	.type	ef_set_env, @function
ef_set_env:
.LFB49:
	.loc 1 1527 1
	.cfi_startproc
.LVL577:
	.loc 1 1528 5
	.loc 1 1527 1 is_stmt 0
	addi	sp,sp,-32
	.cfi_def_cfa_offset 32
	sw	s0,24(sp)
	.cfi_offset 8, -8
	mv	s0,a0
	.loc 1 1528 12
	mv	a0,a1
.LVL578:
	.loc 1 1527 1
	sw	ra,28(sp)
	.cfi_offset 1, -4
	.loc 1 1528 12
	sw	a1,12(sp)
	call	strlen
.LVL579:
	mv	a2,a0
	mv	a0,s0
	.loc 1 1529 1
	lw	s0,24(sp)
	.cfi_restore 8
.LVL580:
	.loc 1 1528 12
	lw	a1,12(sp)
	.loc 1 1529 1
	lw	ra,28(sp)
	.cfi_restore 1
	addi	sp,sp,32
	.cfi_def_cfa_offset 0
.LVL581:
	.loc 1 1528 12
	tail	ef_set_env_blob
.LVL582:
	.cfi_endproc
.LFE49:
	.size	ef_set_env, .-ef_set_env
	.section	.text.ef_set_and_save_env,"ax",@progbits
	.align	1
	.globl	ef_set_and_save_env
	.type	ef_set_and_save_env, @function
ef_set_and_save_env:
.LFB76:
	.cfi_startproc
	tail	ef_set_env
	.cfi_endproc
.LFE76:
	.size	ef_set_and_save_env, .-ef_set_and_save_env
	.section	.text.ef_save_env,"ax",@progbits
	.align	1
	.globl	ef_save_env
	.type	ef_save_env, @function
ef_save_env:
.LFB51:
	.loc 1 1553 1 is_stmt 1
	.cfi_startproc
	.loc 1 1555 5
	.loc 1 1556 1 is_stmt 0
	li	a0,0
	ret
	.cfi_endproc
.LFE51:
	.size	ef_save_env, .-ef_save_env
	.section	.text.ef_env_set_default,"ax",@progbits
	.align	1
	.globl	ef_env_set_default
	.type	ef_env_set_default, @function
ef_env_set_default:
.LFB52:
	.loc 1 1564 1 is_stmt 1
	.cfi_startproc
	.loc 1 1565 5
.LVL583:
	.loc 1 1566 5
	.loc 1 1567 5
	.loc 1 1569 5
	.loc 1 1564 1 is_stmt 0
	addi	sp,sp,-80
	.cfi_def_cfa_offset 80
	sw	s0,72(sp)
	.cfi_offset 8, -8
	.loc 1 1569 9
	lui	s0,%hi(.LANCHOR14)
	.loc 1 1569 8
	lw	a5,%lo(.LANCHOR14)(s0)
	.loc 1 1564 1
	sw	ra,76(sp)
	sw	s1,68(sp)
	sw	s2,64(sp)
	sw	s3,60(sp)
	sw	s4,56(sp)
	sw	s5,52(sp)
	.cfi_offset 1, -4
	.cfi_offset 9, -12
	.cfi_offset 18, -16
	.cfi_offset 19, -20
	.cfi_offset 20, -24
	.cfi_offset 21, -28
	.loc 1 1569 8
	bne	a5,zero,.L413
	.loc 1 1569 31 is_stmt 1 discriminator 1
	lui	a4,%hi(.LANCHOR15)
	lui	a3,%hi(.LC37)
	lui	a2,%hi(.LC1)
	lui	a0,%hi(.LC2)
	addi	a4,a4,%lo(.LANCHOR15)
	addi	a3,a3,%lo(.LC37)
	addi	a2,a2,%lo(.LC1)
	li	a1,1569
	addi	a0,a0,%lo(.LC2)
	call	ef_log_debug
.LVL584:
.L414:
	.loc 1 1569 206 discriminator 1
	.loc 1 1569 215 discriminator 1
	j	.L414
.L413:
	.loc 1 1569 218 discriminator 2
	.loc 1 1570 5 discriminator 2
	.loc 1 1570 9 is_stmt 0 discriminator 2
	lui	s2,%hi(.LANCHOR16)
	.loc 1 1570 8 discriminator 2
	lw	a5,%lo(.LANCHOR16)(s2)
	addi	s2,s2,%lo(.LANCHOR16)
	bne	a5,zero,.L415
	.loc 1 1570 36 is_stmt 1 discriminator 1
	lui	a4,%hi(.LANCHOR15)
	lui	a3,%hi(.LC38)
	lui	a2,%hi(.LC1)
	lui	a0,%hi(.LC2)
	addi	a4,a4,%lo(.LANCHOR15)
	addi	a3,a3,%lo(.LC38)
	addi	a2,a2,%lo(.LC1)
	li	a1,1570
	addi	a0,a0,%lo(.LC2)
	call	ef_log_debug
.LVL585:
.L416:
	.loc 1 1570 216 discriminator 2
	.loc 1 1570 225 discriminator 2
	j	.L416
.L415:
.LBB280:
.LBB281:
	.loc 1 1573 5 is_stmt 0
	call	ef_port_env_lock
.LVL586:
	.loc 1 1575 15
	lui	a5,%hi(.LANCHOR1)
	lw	s1,%lo(.LANCHOR1)(a5)
	addi	s0,s0,%lo(.LANCHOR14)
	.loc 1 1570 228 is_stmt 1
	.loc 1 1573 5
	.loc 1 1575 5
.LVL587:
	addi	s3,a5,%lo(.LANCHOR1)
	.loc 1 1575 55 is_stmt 0
	li	s4,32768
	.loc 1 1575 77
	li	s5,4096
.L417:
.LVL588:
	.loc 1 1575 55
	lw	a5,0(s3)
	add	a5,s4,a5
	.loc 1 1575 5
	bltu	s1,a5,.L419
	.loc 1 1582 12
	li	s1,0
.LVL589:
	li	s4,12
	.loc 1 1590 26
	li	s5,-1
.L420:
.LVL590:
	.loc 1 1582 5
	lw	a5,0(s2)
	bltu	s1,a5,.L422
	li	a0,0
.LVL591:
.L418:
	sw	a0,12(sp)
.LVL592:
	.loc 1 1599 5 is_stmt 1
	call	ef_port_env_unlock
.LVL593:
	.loc 1 1601 5
.LBE281:
.LBE280:
	.loc 1 1602 1 is_stmt 0
	lw	ra,76(sp)
	.cfi_remember_state
	.cfi_restore 1
	lw	s0,72(sp)
	.cfi_restore 8
	lw	a0,12(sp)
	lw	s1,68(sp)
	.cfi_restore 9
	lw	s2,64(sp)
	.cfi_restore 18
	lw	s3,60(sp)
	.cfi_restore 19
	lw	s4,56(sp)
	.cfi_restore 20
	lw	s5,52(sp)
	.cfi_restore 21
	addi	sp,sp,80
	.cfi_def_cfa_offset 0
	jr	ra
.LVL594:
.L419:
	.cfi_restore_state
.LBB283:
.LBB282:
	.loc 1 1576 9 is_stmt 1
	.loc 1 1576 18 is_stmt 0
	mv	a0,s1
	call	format_sector.constprop.16
.LVL595:
	.loc 1 1577 9 is_stmt 1
	.loc 1 1577 12 is_stmt 0
	bne	a0,zero,.L418
	.loc 1 1575 77
	add	s1,s1,s5
.LVL596:
	j	.L417
.LVL597:
.L422:
	.loc 1 1585 9 is_stmt 1
	mul	s3,s1,s4
	.loc 1 1585 28 is_stmt 0
	lw	a4,0(s0)
	add	a4,a4,s3
	.loc 1 1585 31
	lw	a3,8(a4)
	.loc 1 1585 12
	bne	a3,zero,.L421
	.loc 1 1586 13 is_stmt 1
	.loc 1 1586 25 is_stmt 0
	lw	a0,4(a4)
	call	strlen
.LVL598:
	mv	a3,a0
.LVL599:
.L421:
	.loc 1 1590 9 is_stmt 1
	.loc 1 1591 49 is_stmt 0
	lw	a5,0(s0)
	.loc 1 1590 26
	sw	s5,44(sp)
	.loc 1 1591 9 is_stmt 1
	addi	a0,sp,24
	.loc 1 1591 49 is_stmt 0
	add	a5,a5,s3
	.loc 1 1591 9
	lw	a2,4(a5)
	lw	a1,0(a5)
	.loc 1 1582 44
	addi	s1,s1,1
.LVL600:
	.loc 1 1591 9
	call	create_env_blob
.LVL601:
	.loc 1 1592 9 is_stmt 1
	j	.L420
.LBE282:
.LBE283:
	.cfi_endproc
.LFE52:
	.size	ef_env_set_default, .-ef_env_set_default
	.section	.text.ef_print_env,"ax",@progbits
	.align	1
	.globl	ef_print_env
	.type	ef_print_env, @function
ef_print_env:
.LFB54:
	.loc 1 1656 1
	.cfi_startproc
	.loc 1 1657 5
	.loc 1 1658 5
	.loc 1 1660 8 is_stmt 0
	lui	a5,%hi(.LANCHOR10)
	lbu	a5,%lo(.LANCHOR10)(a5)
	.loc 1 1656 1
	addi	sp,sp,-112
	.cfi_def_cfa_offset 112
	sw	ra,108(sp)
	.cfi_offset 1, -4
	.loc 1 1658 12
	sw	zero,4(sp)
	.loc 1 1660 5 is_stmt 1
	.loc 1 1660 8 is_stmt 0
	bne	a5,zero,.L425
	.loc 1 1661 9 is_stmt 1
	lui	a0,%hi(.LC26)
	addi	a0,a0,%lo(.LC26)
	call	ef_log_info
.LVL602:
	.loc 1 1662 9
.L424:
	.loc 1 1676 1 is_stmt 0
	lw	ra,108(sp)
	.cfi_remember_state
	.cfi_restore 1
	addi	sp,sp,112
	.cfi_def_cfa_offset 0
	jr	ra
.L425:
	.cfi_restore_state
	.loc 1 1666 5 is_stmt 1
	call	ef_port_env_lock
.LVL603:
	.loc 1 1668 5
	lui	a3,%hi(print_env_cb)
	addi	a3,a3,%lo(print_env_cb)
	addi	a1,sp,4
	li	a2,0
	addi	a0,sp,8
	call	env_iterator
.LVL604:
	.loc 1 1670 5
	lui	a0,%hi(.LC39)
	addi	a0,a0,%lo(.LC39)
	call	ef_print
.LVL605:
	.loc 1 1671 5
	lw	a1,4(sp)
	lui	a0,%hi(.LC40)
	li	a2,28672
	addi	a1,a1,140
	addi	a0,a0,%lo(.LC40)
	call	ef_print
.LVL606:
	.loc 1 1675 5
	call	ef_port_env_unlock
.LVL607:
	j	.L424
	.cfi_endproc
.LFE54:
	.size	ef_print_env, .-ef_print_env
	.section	.text.ef_load_env,"ax",@progbits
	.align	1
	.globl	ef_load_env
	.type	ef_load_env, @function
ef_load_env:
.LFB58:
	.loc 1 1771 1
	.cfi_startproc
	.loc 1 1772 5
.LVL608:
	.loc 1 1773 5
	.loc 1 1774 5
	.loc 1 1775 5
	.loc 1 1771 1 is_stmt 0
	addi	sp,sp,-144
	.cfi_def_cfa_offset 144
	sw	s0,136(sp)
	.loc 1 1777 23
	li	a5,1
	.cfi_offset 8, -8
	lui	s0,%hi(.LANCHOR9)
	.loc 1 1779 5
	lui	a4,%hi(check_sec_hdr_cb)
	.loc 1 1777 23
	sb	a5,%lo(.LANCHOR9)(s0)
	.loc 1 1779 5
	addi	a4,a4,%lo(check_sec_hdr_cb)
	li	a5,0
	li	a3,0
	addi	a2,sp,12
	li	a1,0
	addi	a0,sp,16
	.loc 1 1771 1
	sw	ra,140(sp)
	sw	s1,132(sp)
	sw	s2,128(sp)
	.cfi_offset 1, -4
	.cfi_offset 9, -12
	.cfi_offset 18, -16
	.loc 1 1775 12
	sw	zero,12(sp)
	.loc 1 1777 5 is_stmt 1
	.loc 1 1779 5
	call	sector_iterator
.LVL609:
	.loc 1 1781 5
	.loc 1 1781 8 is_stmt 0
	lw	a4,12(sp)
	li	a5,8
	addi	s0,s0,%lo(.LANCHOR9)
	bne	a4,a5,.L429
	.loc 1 1782 9 is_stmt 1
	lui	a0,%hi(.LC41)
	addi	a0,a0,%lo(.LC41)
	call	ef_log_info
.LVL610:
	.loc 1 1783 9
	call	ef_env_set_default
.LVL611:
.L429:
	.loc 1 1787 5
	call	ef_port_env_lock
.LVL612:
	.loc 1 1789 5
	lui	a4,%hi(check_and_recovery_gc_cb)
	li	a5,0
	addi	a4,a4,%lo(check_and_recovery_gc_cb)
	li	a3,0
	li	a2,0
	li	a1,0
	addi	a0,sp,16
	call	sector_iterator
.LVL613:
	.loc 1 1793 5 is_stmt 0
	lui	s1,%hi(check_and_recovery_env_cb)
	.loc 1 1794 9
	lui	s2,%hi(.LANCHOR3)
.L430:
	.loc 1 1793 5 is_stmt 1
	addi	a3,s1,%lo(check_and_recovery_env_cb)
	li	a2,0
	li	a1,0
	addi	a0,sp,40
	call	env_iterator
.LVL614:
	.loc 1 1794 5
	.loc 1 1794 8 is_stmt 0
	lbu	a5,%lo(.LANCHOR3)(s2)
	beq	a5,zero,.L431
	.loc 1 1795 9 is_stmt 1
	call	gc_collect
.LVL615:
	.loc 1 1796 9
	j	.L430
.L431:
	.loc 1 1799 5
	.loc 1 1799 23 is_stmt 0
	sb	zero,0(s0)
	.loc 1 1802 5 is_stmt 1
	call	ef_port_env_unlock
.LVL616:
	.loc 1 1804 5
	.loc 1 1805 1 is_stmt 0
	lw	ra,140(sp)
	.cfi_restore 1
	lw	s0,136(sp)
	.cfi_restore 8
	lw	s1,132(sp)
	.cfi_restore 9
	lw	s2,128(sp)
	.cfi_restore 18
	li	a0,0
	addi	sp,sp,144
	.cfi_def_cfa_offset 0
	jr	ra
	.cfi_endproc
.LFE58:
	.size	ef_load_env, .-ef_load_env
	.section	.text.ef_env_init,"ax",@progbits
	.align	1
	.globl	ef_env_init
	.type	ef_env_init, @function
ef_env_init:
.LFB59:
	.loc 1 1815 75 is_stmt 1
	.cfi_startproc
.LVL617:
	.loc 1 1816 5
	.loc 1 1819 5
	.loc 1 1822 5
	.loc 1 1815 75 is_stmt 0
	addi	sp,sp,-16
	.cfi_def_cfa_offset 16
	sw	ra,12(sp)
	sw	s0,8(sp)
	.cfi_offset 1, -4
	.cfi_offset 8, -8
	.loc 1 1822 8
	bne	a0,zero,.L434
	.loc 1 1822 27 is_stmt 1 discriminator 1
	lui	a4,%hi(.LANCHOR17)
	lui	a3,%hi(.LC42)
	lui	a2,%hi(.LC1)
	lui	a0,%hi(.LC2)
.LVL618:
	addi	a4,a4,%lo(.LANCHOR17)
	addi	a3,a3,%lo(.LC42)
	addi	a2,a2,%lo(.LC1)
	li	a1,1822
.LVL619:
	addi	a0,a0,%lo(.LC2)
	call	ef_log_debug
.LVL620:
.L435:
	.loc 1 1822 198 discriminator 1
	.loc 1 1822 207 discriminator 1
	j	.L435
.LVL621:
.L434:
	.loc 1 1831 9 is_stmt 0 discriminator 2
	lui	a5,%hi(.LANCHOR10)
	.loc 1 1831 8 discriminator 2
	lbu	a4,%lo(.LANCHOR10)(a5)
	mv	a3,a0
	.loc 1 1822 210 is_stmt 1 discriminator 2
	.loc 1 1823 5 discriminator 2
	.loc 1 1823 214 discriminator 2
	.loc 1 1825 5 discriminator 2
	.loc 1 1825 253 discriminator 2
	.loc 1 1827 5 discriminator 2
	.loc 1 1827 234 discriminator 2
	.loc 1 1829 5 discriminator 2
	.loc 1 1829 267 discriminator 2
	.loc 1 1831 5 discriminator 2
	addi	s0,a5,%lo(.LANCHOR10)
	.loc 1 1832 16 is_stmt 0 discriminator 2
	li	a0,0
.LVL622:
	.loc 1 1831 8 discriminator 2
	bne	a4,zero,.L436
.LVL623:
	.loc 1 1837 9 is_stmt 1
	.loc 1 1837 36 is_stmt 0
	lui	a5,%hi(.LANCHOR0)
	addi	a5,a5,%lo(.LANCHOR0)
	li	a4,-1
	sw	a4,0(a5)
.LVL624:
	.loc 1 1837 9 is_stmt 1
	.loc 1 1837 36 is_stmt 0
	sw	a4,8(a5)
.LVL625:
	.loc 1 1837 9 is_stmt 1
	.loc 1 1837 36 is_stmt 0
	sw	a4,16(a5)
.LVL626:
	.loc 1 1837 9 is_stmt 1
	.loc 1 1837 36 is_stmt 0
	sw	a4,24(a5)
.LVL627:
	lui	a5,%hi(.LANCHOR2)
	addi	a5,a5,%lo(.LANCHOR2)
	addi	a4,a5,128
	.loc 1 1840 33
	li	a2,-1
.LVL628:
.L437:
	.loc 1 1840 9 is_stmt 1 discriminator 3
	.loc 1 1840 33 is_stmt 0 discriminator 3
	sw	a2,4(a5)
	addi	a5,a5,8
	.loc 1 1839 5 discriminator 3
	bne	a5,a4,.L437
	.loc 1 1844 5 is_stmt 1
	.loc 1 1844 20 is_stmt 0
	lui	a5,%hi(.LANCHOR1)
	sw	zero,%lo(.LANCHOR1)(a5)
	.loc 1 1845 5 is_stmt 1
	.loc 1 1845 21 is_stmt 0
	lui	a5,%hi(.LANCHOR14)
	sw	a3,%lo(.LANCHOR14)(a5)
	.loc 1 1846 5 is_stmt 1
	.loc 1 1848 5 is_stmt 0
	lui	a2,%hi(.LC43)
	.loc 1 1846 26
	lui	a5,%hi(.LANCHOR16)
	.loc 1 1848 5
	lui	a0,%hi(.LC2)
	.loc 1 1846 26
	sw	a1,%lo(.LANCHOR16)(a5)
	.loc 1 1848 5 is_stmt 1
	li	a4,32768
	li	a3,0
.LVL629:
	addi	a2,a2,%lo(.LC43)
	li	a1,1848
.LVL630:
	addi	a0,a0,%lo(.LC2)
	call	ef_log_debug
.LVL631:
	.loc 1 1850 5
	.loc 1 1850 14 is_stmt 0
	call	ef_load_env
.LVL632:
	.loc 1 1858 5 is_stmt 1
	.loc 1 1858 8 is_stmt 0
	bne	a0,zero,.L436
	.loc 1 1859 9 is_stmt 1
	.loc 1 1859 17 is_stmt 0
	li	a5,1
	sb	a5,0(s0)
.LVL633:
.L436:
	.loc 1 1863 1
	lw	ra,12(sp)
	.cfi_restore 1
	lw	s0,8(sp)
	.cfi_restore 8
	addi	sp,sp,16
	.cfi_def_cfa_offset 0
	jr	ra
	.cfi_endproc
.LFE59:
	.size	ef_env_init, .-ef_env_init
	.globl	sector_cache_table
	.globl	env_cache_table
	.section	.bss.env.3151,"aw",@nobits
	.align	2
	.set	.LANCHOR13,. + 0
	.type	env.3151, @object
	.size	env.3151, 88
env.3151:
	.zero	88
	.section	.bss.env_cache_table,"aw",@nobits
	.align	2
	.set	.LANCHOR2,. + 0
	.type	env_cache_table, @object
	.size	env_cache_table, 128
env_cache_table:
	.zero	128
	.section	.bss.sector.3152,"aw",@nobits
	.align	2
	.set	.LANCHOR12,. + 0
	.type	sector.3152, @object
	.size	sector.3152, 24
sector.3152:
	.zero	24
	.section	.bss.sector_cache_table,"aw",@nobits
	.align	2
	.set	.LANCHOR0,. + 0
	.type	sector_cache_table, @object
	.size	sector_cache_table, 32
sector_cache_table:
	.zero	32
	.section	.bss.value.2983,"aw",@nobits
	.align	2
	.type	value.2983, @object
	.size	value.2983, 3981
value.2983:
	.zero	3981
	.section	.rodata.__FUNCTION__.2795,"a"
	.align	2
	.set	.LANCHOR4,. + 0
	.type	__FUNCTION__.2795, @object
	.size	__FUNCTION__.2795, 13
__FUNCTION__.2795:
	.string	"write_status"
	.section	.rodata.__FUNCTION__.2892,"a"
	.align	2
	.set	.LANCHOR5,. + 0
	.type	__FUNCTION__.2892, @object
	.size	__FUNCTION__.2892, 9
__FUNCTION__.2892:
	.string	"read_env"
	.section	.rodata.__FUNCTION__.2904,"a"
	.align	2
	.set	.LANCHOR7,. + 0
	.type	__FUNCTION__.2904, @object
	.size	__FUNCTION__.2904, 22
__FUNCTION__.2904:
	.string	"read_sector_meta_data"
	.section	.rodata.__FUNCTION__.2991,"a"
	.align	2
	.set	.LANCHOR11,. + 0
	.type	__FUNCTION__.2991, @object
	.size	__FUNCTION__.2991, 18
__FUNCTION__.2991:
	.string	"ef_read_env_value"
	.section	.rodata.__FUNCTION__.3005,"a"
	.align	2
	.set	.LANCHOR6,. + 0
	.type	__FUNCTION__.3005, @object
	.size	__FUNCTION__.3005, 14
__FUNCTION__.3005:
	.string	"format_sector"
	.section	.rodata.__FUNCTION__.3179,"a"
	.align	2
	.set	.LANCHOR15,. + 0
	.type	__FUNCTION__.3179, @object
	.size	__FUNCTION__.3179, 19
__FUNCTION__.3179:
	.string	"ef_env_set_default"
	.section	.rodata.__FUNCTION__.3240,"a"
	.align	2
	.set	.LANCHOR17,. + 0
	.type	__FUNCTION__.3240, @object
	.size	__FUNCTION__.3240, 12
__FUNCTION__.3240:
	.string	"ef_env_init"
	.section	.rodata.alloc_env.str1.4,"aMS",@progbits,1
	.align	2
.LC13:
	.string	"Trigger a GC check after alloc ENV failed.\r\n"
	.section	.rodata.check_and_recovery_env_cb.str1.4,"aMS",@progbits,1
	.align	2
.LC18:
	.string	"Found an ENV (%.*s) which has changed value failed. Now will recovery it.\r\n"
.LC19:
	.string	"Recovery the ENV successful.\r\n"
	.zero	1
.LC20:
	.string	"Warning: Moved an ENV (size %d) failed when recovery. Now will GC then retry.\r\n"
	.section	.rodata.check_sec_hdr_cb.str1.4,"aMS",@progbits,1
	.align	2
.LC7:
	.string	"Warning: Sector header check failed. Format this sector (0x%08x).\r\n"
	.section	.rodata.create_env_blob.str1.4,"aMS",@progbits,1
	.align	2
.LC23:
	.string	"Error: The ENV name length is more than %d\r\n"
	.zero	3
.LC24:
	.string	"Error: The ENV size is too big\r\n"
	.zero	3
.LC25:
	.string	"Trigger a GC check after created ENV.\r\n"
	.section	.rodata.del_env.str1.4,"aMS",@progbits,1
	.align	2
.LC16:
	.string	"Not found '%s' in ENV.\r\n"
	.section	.rodata.do_gc.str1.4,"aMS",@progbits,1
	.align	2
.LC21:
	.string	"Error: Moved the ENV (%.*s) for GC failed.\r\n"
	.zero	3
.LC22:
	.string	"Collect a sector @0x%08X\r\n"
	.section	.rodata.ef_del_env.str1.4,"aMS",@progbits,1
	.align	2
.LC34:
	.string	"Error: ENV isn't initialize OK.\r\n"
	.zero	2
.LC35:
	.string	"[%10u][%s: %s:%4d] key = %p\r\n"
	.section	.rodata.ef_env_init.str1.4,"aMS",@progbits,1
	.align	2
.LC42:
	.string	"default_env"
.LC43:
	.string	"ENV start address is 0x%08X, size is %d bytes.\r\n"
	.section	.rodata.ef_env_set_default.str1.4,"aMS",@progbits,1
	.align	2
.LC37:
	.string	"default_env_set"
.LC38:
	.string	"default_env_set_size"
	.section	.rodata.ef_get_env.str1.4,"aMS",@progbits,1
	.align	2
.LC31:
	.string	"Warning: The ENV value isn't string. Could not be returned\r\n"
	.section	.rodata.ef_get_env_blob.str1.4,"aMS",@progbits,1
	.align	2
.LC27:
	.string	"ef_env.c"
	.zero	3
.LC28:
	.string	"\033[33mWARN  \033[0m"
.LC29:
	.string	"[%10u][%s: %s:%4d] key = %p, value_buf = %p\r\n"
	.zero	2
.LC30:
	.string	"[%10u][%s: %s:%4d] key err. %d > %d\r\n"
	.section	.rodata.ef_get_env_obj.str1.4,"aMS",@progbits,1
	.align	2
.LC26:
	.string	"ENV isn't initialize OK.\r\n"
	.section	.rodata.ef_load_env.str1.4,"aMS",@progbits,1
	.align	2
.LC41:
	.string	"Warning: All sector header check failed. Set it to default.\r\n"
	.section	.rodata.ef_print_env.str1.4,"aMS",@progbits,1
	.align	2
.LC39:
	.string	"\r\nmode: next generation\r\n"
	.zero	2
.LC40:
	.string	"size: %lu/%lu bytes.\r\n"
	.section	.rodata.ef_read_env_value.str1.4,"aMS",@progbits,1
	.align	2
.LC32:
	.string	"env"
.LC33:
	.string	"value_buf"
	.section	.rodata.ef_set_env_blob.str1.4,"aMS",@progbits,1
	.align	2
.LC36:
	.string	"[%10u][%s: %s:%4d] buf_len err. %d > %d\r\n"
	.section	.rodata.format_sector.constprop.16.str1.4,"aMS",@progbits,1
	.align	2
.LC6:
	.string	"addr % SECTOR_SIZE == 0"
	.section	.rodata.gc_collect.str1.4,"aMS",@progbits,1
	.align	2
.LC14:
	.string	"The remain empty sector is %d, GC threshold is %d.\r\n"
	.section	.rodata.move_env.str1.4,"aMS",@progbits,1
	.align	2
.LC17:
	.string	"Moved the ENV (%.*s) from 0x%08X to 0x%08X.\r\n"
	.section	.rodata.new_env.str1.4,"aMS",@progbits,1
	.align	2
.LC15:
	.string	"Warning: Alloc an ENV (size %d) failed when new ENV. Now will GC then retry.\r\n"
	.section	.rodata.print_env_cb.str1.4,"aMS",@progbits,1
	.align	2
.LC8:
	.string	"%.*s="
	.zero	2
.LC9:
	.string	"%.*s"
	.zero	3
.LC10:
	.string	"blob @0x%08X %dbytes"
	.zero	3
.LC11:
	.string	"\r\n"
	.section	.rodata.read_env.str1.4,"aMS",@progbits,1
	.align	2
.LC4:
	.string	"Error: The ENV @0x%08X length has an error.\r\n"
	.zero	2
.LC5:
	.string	"0"
	.section	.rodata.read_sector_meta_data.str1.4,"aMS",@progbits,1
	.align	2
.LC12:
	.string	"Error: The ENV (@0x%08X) CRC32 check failed!\r\n"
	.section	.rodata.write_status.str1.4,"aMS",@progbits,1
	.align	2
.LC0:
	.string	"status_index < status_num"
	.zero	2
.LC1:
	.string	"(%s) has assert failed at %s.\r\n"
.LC2:
	.string	"/home/hogc/build-tools/sdk/bl/bl_iot_sdk/components/stage/easyflash4/src/ef_env.c"
	.zero	2
.LC3:
	.string	"status_table"
	.section	.sbss.default_env_set,"aw",@nobits
	.align	2
	.set	.LANCHOR14,. + 0
	.type	default_env_set, @object
	.size	default_env_set, 4
default_env_set:
	.zero	4
	.section	.sbss.default_env_set_size,"aw",@nobits
	.align	2
	.set	.LANCHOR16,. + 0
	.type	default_env_set_size, @object
	.size	default_env_set_size, 4
default_env_set_size:
	.zero	4
	.section	.sbss.env_start_addr,"aw",@nobits
	.align	2
	.set	.LANCHOR1,. + 0
	.type	env_start_addr, @object
	.size	env_start_addr, 4
env_start_addr:
	.zero	4
	.section	.sbss.gc_request,"aw",@nobits
	.set	.LANCHOR3,. + 0
	.type	gc_request, @object
	.size	gc_request, 1
gc_request:
	.zero	1
	.section	.sbss.in_recovery_check,"aw",@nobits
	.set	.LANCHOR9,. + 0
	.type	in_recovery_check, @object
	.size	in_recovery_check, 1
in_recovery_check:
	.zero	1
	.section	.sbss.init_ok,"aw",@nobits
	.set	.LANCHOR10,. + 0
	.type	init_ok, @object
	.size	init_ok, 1
init_ok:
	.zero	1
	.section	.sbss.last_is_complete_del.3057,"aw",@nobits
	.set	.LANCHOR8,. + 0
	.type	last_is_complete_del.3057, @object
	.size	last_is_complete_del.3057, 1
last_is_complete_del.3057:
	.zero	1
	.text
.Letext0:
	.file 3 "/home/hogc/build-tools/sdk/bl/bl_iot_sdk/toolchain/riscv/Linux/lib/gcc/riscv64-unknown-elf/8.3.0/include/stddef.h"
	.file 4 "/home/hogc/build-tools/sdk/bl/bl_iot_sdk/toolchain/riscv/Linux/riscv64-unknown-elf/include/sys/_types.h"
	.file 5 "/home/hogc/build-tools/sdk/bl/bl_iot_sdk/toolchain/riscv/Linux/riscv64-unknown-elf/include/sys/reent.h"
	.file 6 "/home/hogc/build-tools/sdk/bl/bl_iot_sdk/toolchain/riscv/Linux/riscv64-unknown-elf/include/sys/lock.h"
	.file 7 "/home/hogc/build-tools/sdk/bl/bl_iot_sdk/toolchain/riscv/Linux/lib/gcc/riscv64-unknown-elf/8.3.0/include/stdint-gcc.h"
	.file 8 "/home/hogc/build-tools/sdk/bl/bl_iot_sdk/components/stage/easyflash4/inc/ef_def.h"
	.file 9 "/home/hogc/build-tools/sdk/bl/bl_iot_sdk/components/stage/easyflash4/inc/easyflash.h"
	.file 10 "/home/hogc/build-tools/sdk/bl/bl_iot_sdk/toolchain/riscv/Linux/riscv64-unknown-elf/include/string.h"
	.file 11 "/home/hogc/build-tools/sdk/bl/bl_iot_sdk/components/utils/include/utils_log.h"
	.file 12 "/home/hogc/build-tools/sdk/bl/bl_iot_sdk/components/bl602/freertos_riscv_ram/config/task.h"
	.file 13 "<built-in>"