	.file	"aws_iot_main.c"
	.option nopic
	.attribute arch, "rv32i2p0_m2p0_f2p0_c2p0"
	.attribute unaligned_access, 0
	.attribute stack_align, 16
	.text
.Ltext0:
	.cfi_sections	.debug_frame
	.section	.text.ShadowUpdateStatusCallback,"ax",@progbits
	.align	1
	.globl	ShadowUpdateStatusCallback
	.type	ShadowUpdateStatusCallback, @function
ShadowUpdateStatusCallback:
.LFB16:
	.file 1 "/home/hogc/build-tools/sdk/bl/bl_iot_sdk/customer_app/bl602_demo_wifi/bl602_demo_wifi/aws_iot_main.c"
	.loc 1 153 88
	.cfi_startproc
.LVL0:
	.loc 1 154 5
	.loc 1 155 5
	.loc 1 156 5
	.loc 1 157 5
	.loc 1 159 5
	.loc 1 159 28 is_stmt 0
	lui	a5,%hi(.LANCHOR0)
	sb	zero,%lo(.LANCHOR0)(a5)
	.loc 1 161 5 is_stmt 1
	.loc 1 161 7 is_stmt 0
	bne	a2,zero,.L2
	.loc 1 162 9 is_stmt 1
	lui	a0,%hi(.LC0)
.LVL1:
	addi	a0,a0,%lo(.LC0)
.L5:
.LBB4:
.LBB5:
	.loc 1 166 9 is_stmt 0
	tail	printf
.LVL2:
.L2:
.LBE5:
.LBE4:
	.loc 1 163 12 is_stmt 1
	.loc 1 163 14 is_stmt 0
	li	a5,1
	bne	a2,a5,.L3
	.loc 1 164 9 is_stmt 1
	lui	a0,%hi(.LC1)
.LVL3:
	addi	a0,a0,%lo(.LC1)
	j	.L5
.LVL4:
.L3:
.LBB7:
.LBB6:
	.loc 1 165 12
	.loc 1 165 14 is_stmt 0
	li	a5,2
	bne	a2,a5,.L1
	.loc 1 166 9 is_stmt 1
	lui	a0,%hi(.LC2)
.LVL5:
	addi	a0,a0,%lo(.LC2)
	j	.L5
.LVL6:
.L1:
.LBE6:
.LBE7:
	.loc 1 168 1 is_stmt 0
	ret
	.cfi_endproc
.LFE16:
	.size	ShadowUpdateStatusCallback, .-ShadowUpdateStatusCallback
	.section	.text.windowActuate_Callback,"ax",@progbits
	.align	1
	.globl	windowActuate_Callback
	.type	windowActuate_Callback, @function
windowActuate_Callback:
.LFB17:
	.loc 1 170 106 is_stmt 1
	.cfi_startproc
.LVL7:
	.loc 1 171 5
	.loc 1 172 5
	.loc 1 174 5
	.loc 1 174 7 is_stmt 0
	beq	a2,zero,.L6
.LVL8:
.LBB10:
.LBB11:
	.loc 1 175 9 is_stmt 1
	.loc 1 175 58 is_stmt 0
	lw	a5,4(a2)
	.loc 1 175 9
	lui	a0,%hi(.LC3)
.LVL9:
	addi	a0,a0,%lo(.LC3)
	lbu	a1,0(a5)
.LVL10:
	tail	printf
.LVL11:
.L6:
.LBE11:
.LBE10:
	.loc 1 177 1
	ret
	.cfi_endproc
.LFE17:
	.size	windowActuate_Callback, .-windowActuate_Callback
	.section	.text.aws_main_entry,"ax",@progbits
	.align	1
	.globl	aws_main_entry
	.type	aws_main_entry, @function
aws_main_entry:
.LFB20:
	.loc 1 315 1 is_stmt 1
	.cfi_startproc
.LVL12:
	.loc 1 316 5
	.loc 1 317 5
	.loc 1 315 1 is_stmt 0
	addi	sp,sp,-2032
	.cfi_def_cfa_offset 2032
	sw	ra,2028(sp)
	sw	s0,2024(sp)
	sw	s1,2020(sp)
	sw	s2,2016(sp)
	sw	s3,2012(sp)
	sw	s4,2008(sp)
	sw	s5,2004(sp)
	fsw	fs0,1996(sp)
	fsw	fs1,1992(sp)
	fsw	fs2,1988(sp)
	fsw	fs3,1984(sp)
	.loc 1 317 28
	lui	a1,%hi(ShadowInitParametersDefault)
	.loc 1 315 1
	addi	sp,sp,-1408
	.cfi_def_cfa_offset 3440
	.cfi_offset 1, -4
	.cfi_offset 8, -8
	.cfi_offset 9, -12
	.cfi_offset 18, -16
	.cfi_offset 19, -20
	.cfi_offset 20, -24
	.cfi_offset 21, -28
	.cfi_offset 40, -36
	.cfi_offset 41, -40
	.cfi_offset 50, -44
	.cfi_offset 51, -48
	.loc 1 317 28
	li	a2,28
	addi	a1,a1,%lo(ShadowInitParametersDefault)
	addi	a0,sp,92
.LVL13:
	call	memcpy
.LVL14:
	.loc 1 318 5 is_stmt 1
	.loc 1 318 31 is_stmt 0
	lui	a1,%hi(ShadowConnectParametersDefault)
	li	a2,16
	addi	a1,a1,%lo(ShadowConnectParametersDefault)
	addi	a0,sp,36
	call	memcpy
.LVL15:
	.loc 1 320 5 is_stmt 1
	.loc 1 321 5
	.loc 1 322 5
	.loc 1 327 26 is_stmt 0
	li	a3,4096
	.loc 1 326 23
	lui	a5,%hi(windowActuate_Callback)
	.loc 1 327 26
	addi	a2,sp,16
	.loc 1 317 28
	li	s0,-4096
	.loc 1 326 23
	addi	a5,a5,%lo(windowActuate_Callback)
	.loc 1 327 26
	addi	a4,a3,-720
	add	a4,a4,a2
	.loc 1 326 23
	sw	a5,68(sp)
	.loc 1 327 26
	addi	a5,s0,735
	add	a5,a4,a5
	sw	a5,56(sp)
	.loc 1 328 25
	lui	a5,%hi(.LC6)
	addi	a5,a5,%lo(.LC6)
	sw	a5,52(sp)
	.loc 1 329 25
	li	a5,8
	sb	a5,64(sp)
	.loc 1 330 31
	li	a5,1
	sw	a5,60(sp)
	.loc 1 334 29
	lui	a5,%hi(.LC7)
	addi	a5,a5,%lo(.LC7)
	.loc 1 335 30
	addi	a4,a3,-720
	add	a4,a4,a2
	.loc 1 334 29
	sw	a5,72(sp)
	.loc 1 335 30
	addi	a5,s0,736
	add	a5,a4,a5
	sw	a5,76(sp)
	.loc 1 339 5
	lui	a4,%hi(.LC8)
	.loc 1 336 29
	li	a5,6
	.loc 1 339 5
	lui	a0,%hi(.LC9)
	.loc 1 336 29
	sb	a5,84(sp)
	.loc 1 339 5
	li	a1,3
	.loc 1 337 35
	li	a5,4
	.loc 1 339 5
	addi	a4,a4,%lo(.LC8)
	li	a3,1
	li	a2,0
	addi	a0,a0,%lo(.LC9)
	.loc 1 322 11
	sw	zero,32(sp)
	.loc 1 324 4 is_stmt 1
	.loc 1 324 9 is_stmt 0
	sb	zero,31(sp)
	.loc 1 325 5 is_stmt 1
	.loc 1 326 5
	.loc 1 327 5
	.loc 1 328 5
	.loc 1 329 5
	.loc 1 330 5
	.loc 1 332 5
	.loc 1 333 5
	.loc 1 333 27 is_stmt 0
	sw	zero,88(sp)
	.loc 1 334 5 is_stmt 1
	.loc 1 335 5
	.loc 1 336 5
	.loc 1 337 5
	.loc 1 337 35 is_stmt 0
	sw	a5,80(sp)
	.loc 1 339 5 is_stmt 1
.LBB18:
.LBB19:
	.loc 1 186 10 is_stmt 0
	lui	s1,%hi(.LC10)
.LBE19:
.LBE18:
	.loc 1 339 5
	call	printf
.LVL16:
	.loc 1 342 5 is_stmt 1
	.loc 1 344 5
.LBB22:
.LBB20:
	.loc 1 181 5
	.loc 1 182 5
	.loc 1 183 5
	.loc 1 184 5
	.loc 1 186 5
	.loc 1 186 10 is_stmt 0
	li	a1,0
	addi	a0,s1,%lo(.LC10)
	call	aos_open
.LVL17:
	.loc 1 187 5 is_stmt 1
	.loc 1 187 8 is_stmt 0
	bge	a0,zero,.L9
	.loc 1 188 9 is_stmt 1
	lui	a0,%hi(.LC11)
.LVL18:
	addi	a1,s1,%lo(.LC10)
	addi	a0,a0,%lo(.LC11)
	call	printf
.LVL19:
	.loc 1 189 9
.LBE20:
.LBE22:
	.loc 1 345 9
.LBB23:
.LBB24:
	.loc 1 291 5
	.loc 1 291 15 is_stmt 0
	lui	a1,%hi(.LC12)
	.loc 1 292 5
	lui	a0,%hi(.LC13)
	.loc 1 291 15
	addi	a5,a1,%lo(.LC12)
	.loc 1 292 5
	addi	a0,a0,%lo(.LC13)
	addi	a1,a1,%lo(.LC12)
	.loc 1 291 15
	sw	a5,92(sp)
	.loc 1 292 5 is_stmt 1
	call	printf
.LVL20:
	.loc 1 294 5
	.loc 1 295 5 is_stmt 0
	lui	a0,%hi(.LC14)
	.loc 1 294 14
	li	a5,443
	.loc 1 295 5
	li	a1,443
	addi	a0,a0,%lo(.LC14)
	.loc 1 294 14
	sh	a5,96(sp)
	.loc 1 295 5 is_stmt 1
	call	printf
.LVL21:
	.loc 1 297 5
	.loc 1 297 20 is_stmt 0
	lui	a5,%hi(.LC15)
	addi	a5,a5,%lo(.LC15)
	sw	a5,104(sp)
	.loc 1 298 5 is_stmt 1
	.loc 1 298 20 is_stmt 0
	lui	a5,%hi(.LC16)
	addi	a5,a5,%lo(.LC16)
	.loc 1 303 24
	lui	s0,%hi(.LC18)
	.loc 1 298 20
	sw	a5,108(sp)
	.loc 1 299 5 is_stmt 1
	.loc 1 304 5 is_stmt 0
	lui	a0,%hi(.LC19)
	.loc 1 299 17
	lui	a5,%hi(.LC17)
	addi	a5,a5,%lo(.LC17)
	.loc 1 304 5
	addi	a1,s0,%lo(.LC18)
	.loc 1 303 24
	addi	s1,s0,%lo(.LC18)
	.loc 1 304 5
	addi	a0,a0,%lo(.LC19)
	.loc 1 299 17
	sw	a5,100(sp)
	.loc 1 300 5 is_stmt 1
	.loc 1 300 29 is_stmt 0
	sb	zero,112(sp)
	.loc 1 301 5 is_stmt 1
	.loc 1 301 27 is_stmt 0
	sw	zero,116(sp)
	.loc 1 303 5 is_stmt 1
	.loc 1 303 24 is_stmt 0
	sw	s1,40(sp)
	.loc 1 304 5 is_stmt 1
	call	printf
.LVL22:
	.loc 1 305 5
	.loc 1 305 28 is_stmt 0
	lw	a0,40(sp)
	call	strlen
.LVL23:
	.loc 1 305 26
	sh	a0,44(sp)
	.loc 1 307 5 is_stmt 1
	addi	a0,s0,%lo(.LC18)
	call	strlen
.LVL24:
	mv	a1,a0
	lui	a0,%hi(.LC20)
	addi	a0,a0,%lo(.LC20)
	call	printf
.LVL25:
	.loc 1 308 5
	.loc 1 309 5 is_stmt 0
	lui	a0,%hi(.LC21)
	addi	a1,s0,%lo(.LC18)
	addi	a0,a0,%lo(.LC21)
	.loc 1 308 23
	sw	s1,36(sp)
	.loc 1 309 5 is_stmt 1
	call	printf
.LVL26:
	.loc 1 311 5
.L10:
.LBE24:
.LBE23:
	.loc 1 347 5
	lui	a0,%hi(.LC29)
	addi	a0,a0,%lo(.LC29)
	call	printf
.LVL27:
	.loc 1 348 5
	.loc 1 348 10 is_stmt 0
	li	a4,4096
	addi	a3,sp,16
	li	s1,-4096
	addi	a5,a4,-720
	add	a5,a5,a3
	addi	s0,s1,1024
	add	s0,a5,s0
	addi	a5,a4,-720
	add	a5,a5,a3
	addi	a1,s1,796
	add	a1,a5,a1
	mv	a0,s0
	call	aws_iot_shadow_init
.LVL28:
	mv	a1,a0
.LVL29:
	.loc 1 349 5 is_stmt 1
	.loc 1 349 7 is_stmt 0
	beq	a0,zero,.L45
	.loc 1 350 9 is_stmt 1
	lui	a0,%hi(.LC30)
.LVL30:
	addi	a0,a0,%lo(.LC30)
	call	printf
.LVL31:
.L46:
	.loc 1 351 9 discriminator 1
	.loc 1 352 13 discriminator 1
	li	a0,1000
	call	vTaskDelay
.LVL32:
	j	.L46
.LVL33:
.L9:
.LBB25:
.LBB21:
	.loc 1 191 5 is_stmt 0
	li	a5,4096
	addi	a4,sp,16
	addi	a5,a5,-720
	add	a5,a5,a4
	addi	a2,s0,824
	add	a2,a5,a2
	li	a1,1
	mv	s3,a0
	.loc 1 191 5 is_stmt 1
	call	aos_ioctl
.LVL34:
	.loc 1 192 5
	.loc 1 192 11 is_stmt 0
	lw	a3,120(sp)
.LVL35:
	.loc 1 195 5 is_stmt 1
	.loc 1 196 5
	.loc 1 195 9 is_stmt 0
	li	s0,0
	.loc 1 196 11
	li	a2,10
	.loc 1 196 27
	li	a4,13
.LVL36:
.L11:
	add	s1,a3,s0
.LVL37:
	.loc 1 196 12
	lbu	a5,0(s1)
	.loc 1 196 11
	bne	a5,a2,.L12
.L16:
	.loc 1 200 5 is_stmt 1
	lui	a0,%hi(.LC22)
	mv	a1,s0
	addi	a0,a0,%lo(.LC22)
	call	printf
.LVL38:
	.loc 1 201 5
	.loc 1 201 17 is_stmt 0
	mv	a0,s0
	call	pvPortMalloc
.LVL39:
	.loc 1 201 15
	li	a3,4096
	addi	a3,a3,-720
	addi	a2,sp,16
	li	a4,-4096
	add	a3,a3,a2
	add	a4,a3,a4
	sw	a4,12(sp)
	sw	a0,796(a4)
	.loc 1 202 5 is_stmt 1
	.loc 1 202 8 is_stmt 0
	bne	a0,zero,.L74
	.loc 1 204 9 is_stmt 1
	lui	a0,%hi(.LC23)
	li	a1,204
	addi	a0,a0,%lo(.LC23)
	call	printf
.LVL40:
.L17:
	.loc 1 205 9
	.loc 1 206 13
	li	a0,1000
	call	vTaskDelay
.LVL41:
	j	.L17
.L12:
	.loc 1 196 27 is_stmt 0
	beq	a5,a4,.L16
	.loc 1 197 9 is_stmt 1
.LVL42:
	.loc 1 198 9
	.loc 1 198 12 is_stmt 0
	addi	s0,s0,1
.LVL43:
	j	.L11
.LVL44:
.L74:
	.loc 1 209 5 is_stmt 1
	mv	a2,s0
	sub	a1,s1,s0
	call	memcpy
.LVL45:
	.loc 1 210 5
	.loc 1 210 20 is_stmt 0
	lw	a5,12(sp)
	.loc 1 211 5
	lui	a0,%hi(.LC13)
	addi	a0,a0,%lo(.LC13)
	.loc 1 210 20
	lw	a5,796(a5)
	add	s0,a5,s0
.LVL46:
	.loc 1 211 5
	lw	a5,12(sp)
	.loc 1 210 20
	sb	zero,0(s0)
	.loc 1 211 5 is_stmt 1
	lw	a1,796(a5)
	call	printf
.LVL47:
	.loc 1 214 5
	.loc 1 214 11 is_stmt 0
	li	a3,10
	.loc 1 214 27
	li	a4,13
.L18:
	.loc 1 214 12
	lbu	a5,0(s1)
	.loc 1 214 11
	beq	a5,a3,.L19
	.loc 1 214 27
	beq	a5,a4,.L19
	.loc 1 217 9
	li	s0,0
	.loc 1 218 11
	li	a3,10
	.loc 1 218 27
	li	a4,13
.LVL48:
.L20:
	add	s2,s1,s0
.LVL49:
	.loc 1 218 12
	lbu	a5,0(s2)
	.loc 1 218 11
	bne	a5,a3,.L21
.L25:
	.loc 1 222 5 is_stmt 1
	lui	a0,%hi(.LC24)
	mv	a1,s0
	addi	a0,a0,%lo(.LC24)
	call	printf
.LVL50:
	.loc 1 223 5
	.loc 1 223 8 is_stmt 0
	li	a5,5
	bgt	s0,a5,.L22
	.loc 1 229 5 is_stmt 1
	li	s5,4096
	addi	a4,sp,16
	li	s4,-4096
	addi	a5,s5,-720
	add	a5,a5,a4
	addi	s1,s4,1024
	add	s1,a5,s1
	mv	a2,s0
	sub	a1,s2,s0
	mv	a0,s1
	call	memcpy
.LVL51:
	.loc 1 230 5
	.loc 1 230 15 is_stmt 0
	addi	a4,sp,16
	addi	a5,s5,-720
	add	a5,a5,a4
	add	a5,a5,s4
	add	s0,a5,s0
.LVL52:
	.loc 1 231 16
	mv	a0,s1
	.loc 1 230 15
	sw	a5,12(sp)
	sb	zero,1024(s0)
	.loc 1 231 5 is_stmt 1
	.loc 1 231 16 is_stmt 0
	call	atoi
.LVL53:
	.loc 1 231 14
	lw	a5,12(sp)
	.loc 1 232 5
	slli	a1,a0,16
	srli	a1,a1,16
	.loc 1 231 14
	sh	a0,800(a5)
	.loc 1 232 5 is_stmt 1
	lui	a0,%hi(.LC14)
	addi	a0,a0,%lo(.LC14)
	call	printf
.LVL54:
	.loc 1 234 5
	.loc 1 234 20 is_stmt 0
	lw	a4,12(sp)
	lui	a5,%hi(.LC15)
	addi	a5,a5,%lo(.LC15)
	sw	a5,808(a4)
	.loc 1 235 5 is_stmt 1
	.loc 1 235 20 is_stmt 0
	lui	a5,%hi(.LC16)
	addi	a5,a5,%lo(.LC16)
	sw	a5,812(a4)
	.loc 1 236 5 is_stmt 1
	.loc 1 236 17 is_stmt 0
	lui	a5,%hi(.LC17)
	addi	a5,a5,%lo(.LC17)
	sw	a5,804(a4)
	.loc 1 237 5 is_stmt 1
	.loc 1 237 29 is_stmt 0
	sb	zero,816(a4)
	.loc 1 238 5 is_stmt 1
	.loc 1 238 27 is_stmt 0
	sw	zero,820(a4)
	.loc 1 241 5 is_stmt 1
	.loc 1 241 11 is_stmt 0
	li	a3,10
	.loc 1 241 27
	li	a4,13
.L27:
	.loc 1 241 12
	lbu	a5,0(s2)
	.loc 1 241 11
	beq	a5,a3,.L28
	.loc 1 241 27
	beq	a5,a4,.L28
	.loc 1 244 9
	li	s0,0
	.loc 1 245 11
	li	a3,10
	.loc 1 245 27
	li	a4,13
.LVL55:
.L29:
	add	s1,s2,s0
.LVL56:
	.loc 1 245 12
	lbu	a5,0(s1)
	.loc 1 245 11
	bne	a5,a3,.L30
.L34:
	.loc 1 249 5 is_stmt 1
	lui	a0,%hi(.LC26)
	mv	a1,s0
	addi	a0,a0,%lo(.LC26)
	call	printf
.LVL57:
	.loc 1 250 5
	.loc 1 250 26 is_stmt 0
	mv	a0,s0
	call	pvPortMalloc
.LVL58:
	.loc 1 250 24
	li	a3,4096
	addi	a3,a3,-720
	addi	a2,sp,16
	li	a4,-4096
	add	a3,a3,a2
	add	a4,a3,a4
	sw	a4,12(sp)
	sw	a0,744(a4)
	.loc 1 251 5 is_stmt 1
	.loc 1 251 8 is_stmt 0
	bne	a0,zero,.L76
	.loc 1 253 9 is_stmt 1
	lui	a0,%hi(.LC27)
	li	a1,253
	addi	a0,a0,%lo(.LC27)
	call	printf
.LVL59:
.L35:
	.loc 1 254 9
	.loc 1 255 13
	li	a0,1000
	call	vTaskDelay
.LVL60:
	j	.L35
.LVL61:
.L19:
	.loc 1 215 9
	.loc 1 215 14 is_stmt 0
	addi	s1,s1,1
.LVL62:
	j	.L18
.LVL63:
.L21:
	.loc 1 218 27
	beq	a5,a4,.L25
	.loc 1 219 9 is_stmt 1
.LVL64:
	.loc 1 220 9
	.loc 1 220 12 is_stmt 0
	addi	s0,s0,1
.LVL65:
	j	.L20
.LVL66:
.L22:
	.loc 1 224 9 is_stmt 1
	lui	a0,%hi(.LC25)
	addi	a0,a0,%lo(.LC25)
	call	printf
.LVL67:
.L26:
	.loc 1 225 9
	.loc 1 226 13
	li	a0,1000
	call	vTaskDelay
.LVL68:
	j	.L26
.LVL69:
.L28:
	.loc 1 242 9
	.loc 1 242 14 is_stmt 0
	addi	s2,s2,1
.LVL70:
	j	.L27
.LVL71:
.L30:
	.loc 1 245 27
	beq	a5,a4,.L34
	.loc 1 246 9 is_stmt 1
.LVL72:
	.loc 1 247 9
	.loc 1 247 12 is_stmt 0
	addi	s0,s0,1
.LVL73:
	j	.L29
.LVL74:
.L76:
	.loc 1 258 5 is_stmt 1
	mv	a2,s0
	sub	a1,s1,s0
	call	memcpy
.LVL75:
	.loc 1 259 5
	.loc 1 259 38 is_stmt 0
	lw	a5,12(sp)
	.loc 1 260 5
	lui	a0,%hi(.LC19)
	addi	a0,a0,%lo(.LC19)
	.loc 1 259 38
	lw	a5,744(a5)
	add	s0,a5,s0
.LVL76:
	.loc 1 260 5
	lw	a5,12(sp)
	.loc 1 259 38
	sb	zero,0(s0)
	.loc 1 260 5 is_stmt 1
	lw	a1,744(a5)
	call	printf
.LVL77:
	.loc 1 261 5
	.loc 1 261 28 is_stmt 0
	lw	a5,12(sp)
	lw	a0,744(a5)
	call	strlen
.LVL78:
	.loc 1 261 26
	lw	a5,12(sp)
	.loc 1 264 11
	li	a3,10
	.loc 1 264 27
	li	a4,13
	.loc 1 261 26
	sh	a0,748(a5)
	.loc 1 264 5 is_stmt 1
.L36:
	.loc 1 264 12 is_stmt 0
	lbu	a5,0(s1)
	.loc 1 264 11
	beq	a5,a3,.L37
	.loc 1 264 27
	beq	a5,a4,.L37
	.loc 1 267 9
	li	s0,0
	.loc 1 268 11
	li	a3,10
	.loc 1 268 27
	li	a4,13
.LVL79:
.L38:
	add	s2,s1,s0
.LVL80:
	.loc 1 268 12
	lbu	a5,0(s2)
	.loc 1 268 11
	bne	a5,a3,.L39
.L43:
	.loc 1 272 5 is_stmt 1
	lui	a0,%hi(.LC20)
	mv	a1,s0
	addi	a0,a0,%lo(.LC20)
	call	printf
.LVL81:
	.loc 1 273 5
	.loc 1 273 25 is_stmt 0
	mv	a0,s0
	call	pvPortMalloc
.LVL82:
	.loc 1 273 23
	li	a3,4096
	addi	a3,a3,-720
	addi	a2,sp,16
	li	a4,-4096
	add	a3,a3,a2
	add	a4,a3,a4
	sw	a4,12(sp)
	sw	a0,740(a4)
	.loc 1 274 5 is_stmt 1
	.loc 1 274 8 is_stmt 0
	bne	a0,zero,.L77
	.loc 1 276 9 is_stmt 1
	lui	a0,%hi(.LC28)
	li	a1,276
	addi	a0,a0,%lo(.LC28)
	call	printf
.LVL83:
.L44:
	.loc 1 277 9
	.loc 1 278 13
	li	a0,1000
	call	vTaskDelay
.LVL84:
	j	.L44
.LVL85:
.L37:
	.loc 1 265 9
	.loc 1 265 14 is_stmt 0
	addi	s1,s1,1
.LVL86:
	j	.L36
.LVL87:
.L39:
	.loc 1 268 27
	beq	a5,a4,.L43
	.loc 1 269 9 is_stmt 1
.LVL88:
	.loc 1 270 9
	.loc 1 270 12 is_stmt 0
	addi	s0,s0,1
.LVL89:
	j	.L38
.LVL90:
.L77:
	.loc 1 281 5 is_stmt 1
	mv	a2,s0
	sub	a1,s2,s0
	call	memcpy
.LVL91:
	.loc 1 282 5
	.loc 1 282 37 is_stmt 0
	lw	a5,12(sp)
	.loc 1 283 5
	lui	a0,%hi(.LC21)
	addi	a0,a0,%lo(.LC21)
	.loc 1 282 37
	lw	a5,740(a5)
	add	s0,a5,s0
.LVL92:
	.loc 1 283 5
	lw	a5,12(sp)
	.loc 1 282 37
	sb	zero,0(s0)
	.loc 1 283 5 is_stmt 1
	lw	a1,740(a5)
	call	printf
.LVL93:
	.loc 1 285 5
	mv	a0,s3
	call	aos_close
.LVL94:
	.loc 1 286 5
	j	.L10
.LVL95:
.L45:
.LBE21:
.LBE25:
	.loc 1 356 5
	lui	a0,%hi(.LC31)
.LVL96:
	addi	a0,a0,%lo(.LC31)
	call	printf
.LVL97:
	.loc 1 357 5
	.loc 1 357 10 is_stmt 0
	li	a5,4096
	addi	a4,sp,16
	addi	a5,a5,-720
	add	a5,a5,a4
	addi	a1,s1,740
	add	a1,a5,a1
	mv	a0,s0
	call	aws_iot_shadow_connect
.LVL98:
	mv	a1,a0
.LVL99:
	.loc 1 358 5 is_stmt 1
	.loc 1 358 7 is_stmt 0
	beq	a0,zero,.L47
	.loc 1 359 9 is_stmt 1
	lui	a0,%hi(.LC32)
.LVL100:
	addi	a0,a0,%lo(.LC32)
	call	printf
.LVL101:
.L48:
	.loc 1 360 9 discriminator 1
	.loc 1 361 13 discriminator 1
	li	a0,1000
	call	vTaskDelay
.LVL102:
	j	.L48
.LVL103:
.L47:
	.loc 1 370 5
	.loc 1 370 10 is_stmt 0
	li	a1,1
	mv	a0,s0
.LVL104:
	call	aws_iot_shadow_set_autoreconnect_status
.LVL105:
	mv	a1,a0
.LVL106:
	.loc 1 371 5 is_stmt 1
	.loc 1 371 7 is_stmt 0
	beq	a0,zero,.L49
	.loc 1 372 9 is_stmt 1
	lui	a0,%hi(.LC33)
.LVL107:
	addi	a0,a0,%lo(.LC33)
	call	printf
.LVL108:
.L50:
	.loc 1 373 9 discriminator 1
	.loc 1 374 13 discriminator 1
	li	a0,1000
	call	vTaskDelay
.LVL109:
	j	.L50
.LVL110:
.L49:
	.loc 1 378 5
	.loc 1 378 10 is_stmt 0
	li	a5,4096
	addi	a4,sp,16
	addi	a5,a5,-720
	add	a5,a5,a4
	addi	a1,s1,756
	mv	a0,s0
.LVL111:
	add	a1,a5,a1
	call	aws_iot_shadow_register_delta
.LVL112:
	mv	s0,a0
.LVL113:
	.loc 1 380 5 is_stmt 1
	.loc 1 380 7 is_stmt 0
	beq	a0,zero,.L51
	.loc 1 381 9 is_stmt 1
	lui	a0,%hi(.LC34)
.LVL114:
	addi	a0,a0,%lo(.LC34)
	call	printf
.LVL115:
.L52:
	.loc 1 382 9 discriminator 1
	.loc 1 383 13 discriminator 1
	li	a0,1000
	call	vTaskDelay
.LVL116:
	j	.L52
.LVL117:
.L51:
	.loc 1 386 5
	.loc 1 386 17 is_stmt 0
	li	a5,4096
	addi	a5,a5,-720
	addi	a4,sp,16
	add	a5,a5,a4
	add	a5,a5,s1
	sw	a5,12(sp)
	lui	a5,%hi(.LC35)
	flw	fs0,%lo(.LC35)(a5)
	lw	a5,12(sp)
	.loc 1 391 47
	lui	s3,%hi(.LANCHOR0)
	.loc 1 386 17
	fsw	fs0,736(a5)
	.loc 1 389 5 is_stmt 1
.LBB26:
.LBB27:
	.loc 1 141 7 is_stmt 0
	lui	a5,%hi(.LC38)
	flw	fs1,%lo(.LC38)(a5)
	.loc 1 144 21
	lui	a5,%hi(.LC40)
	flw	fs2,%lo(.LC40)(a5)
	.loc 1 142 21
	lui	a5,%hi(.LC39)
	flw	fs3,%lo(.LC39)(a5)
.LVL118:
.L53:
.LBE27:
.LBE26:
	.loc 1 389 46
	addi	a5,s0,-3
	.loc 1 389 10
	andi	a5,a5,0xff
	li	a4,1
	bleu	a5,a4,.L63
	.loc 1 389 75 discriminator 1
	beq	s0,zero,.L63
	.loc 1 421 5 is_stmt 1
	.loc 1 422 9
	lui	a0,%hi(.LC44)
	mv	a1,s0
	addi	a0,a0,%lo(.LC44)
	call	printf
.LVL119:
	.loc 1 425 5
	lui	a0,%hi(.LC45)
	addi	a0,a0,%lo(.LC45)
	call	printf
.LVL120:
	.loc 1 426 5
	.loc 1 426 10 is_stmt 0
	li	a5,4096
	addi	a4,sp,16
	li	a0,-4096
	addi	a5,a5,-720
	add	a5,a5,a4
	addi	a0,a0,1024
	add	a0,a5,a0
	call	aws_iot_shadow_disconnect
.LVL121:
	mv	a1,a0
.LVL122:
	.loc 1 428 5 is_stmt 1
	.loc 1 428 7 is_stmt 0
	beq	a0,zero,.L64
	.loc 1 429 9 is_stmt 1
	lui	a0,%hi(.LC46)
.LVL123:
	addi	a0,a0,%lo(.LC46)
	call	printf
.LVL124:
.L64:
	.loc 1 432 5
	li	a0,0
	call	vTaskDelete
.LVL125:
	.loc 1 433 1 is_stmt 0
	addi	sp,sp,1408
	.cfi_remember_state
	.cfi_def_cfa_offset 2032
	lw	ra,2028(sp)
	.cfi_restore 1
	lw	s0,2024(sp)
	.cfi_restore 8
	lw	s1,2020(sp)
	.cfi_restore 9
	lw	s2,2016(sp)
	.cfi_restore 18
	lw	s3,2012(sp)
	.cfi_restore 19
	lw	s4,2008(sp)
	.cfi_restore 20
	lw	s5,2004(sp)
	.cfi_restore 21
	flw	fs0,1996(sp)
	.cfi_restore 40
	flw	fs1,1992(sp)
	.cfi_restore 41
	flw	fs2,1988(sp)
	.cfi_restore 50
	flw	fs3,1984(sp)
	.cfi_restore 51
	addi	sp,sp,2032
	.cfi_def_cfa_offset 0
	jr	ra
.LVL126:
.L63:
	.cfi_restore_state
	.loc 1 390 9 is_stmt 1
	.loc 1 390 14 is_stmt 0
	li	a5,4096
	addi	a4,sp,16
	li	s0,-4096
.LVL127:
	addi	a5,a5,-720
	add	a5,a5,a4
	addi	a0,s0,1024
	add	a0,a5,a0
	li	a1,200
	call	aws_iot_shadow_yield
.LVL128:
	.loc 1 391 9 is_stmt 1
	.loc 1 391 11 is_stmt 0
	li	a5,4
	beq	a0,a5,.L54
	.loc 1 391 47 discriminator 1
	lbu	a5,%lo(.LANCHOR0)(s3)
	addi	s4,s3,%lo(.LANCHOR0)
	beq	a5,zero,.L55
.L54:
	.loc 1 392 13 is_stmt 1
	.loc 1 392 18 is_stmt 0
	li	a5,4096
	addi	a4,sp,16
	li	a0,-4096
.LVL129:
	addi	a5,a5,-720
	add	a5,a5,a4
	addi	a0,a0,1024
	li	a1,1000
	add	a0,a5,a0
	call	aws_iot_shadow_yield
.LVL130:
	mv	s0,a0
.LVL131:
	.loc 1 395 13 is_stmt 1
	j	.L53
.LVL132:
.L55:
	.loc 1 397 9
	lui	a0,%hi(.LC36)
.LVL133:
	addi	a0,a0,%lo(.LC36)
	call	printf
.LVL134:
	.loc 1 398 9
	.loc 1 398 61 is_stmt 0
	li	a5,4096
	addi	a5,a5,-720
	addi	a4,sp,16
	add	a5,a5,a4
	add	a5,a5,s0
	sw	a5,12(sp)
	.loc 1 398 9
	lbu	a5,735(a5)
	bne	a5,zero,.L65
	lui	a1,%hi(.LC5)
	addi	a1,a1,%lo(.LC5)
.L57:
	.loc 1 398 9 discriminator 4
	lui	a0,%hi(.LC37)
	addi	a0,a0,%lo(.LC37)
	call	printf
.LVL135:
	.loc 1 399 9 is_stmt 1 discriminator 4
.LBB32:
.LBB28:
	.loc 1 139 5 discriminator 4
	.loc 1 141 5 discriminator 4
	.loc 1 141 8 is_stmt 0 discriminator 4
	li	a4,4096
	addi	a4,a4,-720
	addi	a3,sp,16
	add	a4,a4,a3
	li	a5,-4096
	add	a5,a4,a5
	flw	fa4,736(a5)
	sw	a5,12(sp)
	lui	a5,%hi(.LANCHOR1)
	.loc 1 141 7 discriminator 4
	fge.s	a4,fa4,fs1
	addi	a5,a5,%lo(.LANCHOR1)
	beq	a4,zero,.L78
	.loc 1 142 9 is_stmt 1
	.loc 1 142 21 is_stmt 0
	fsw	fs3,0(a5)
.L60:
	.loc 1 147 5 is_stmt 1
	.loc 1 147 23 is_stmt 0
	flw	fa5,0(a5)
.LBE28:
.LBE32:
	.loc 1 401 14
	li	a5,4096
	addi	a4,sp,16
.LBB33:
.LBB29:
	.loc 1 147 23
	fadd.s	fa5,fa5,fa4
	li	s1,-4096
.LBE29:
.LBE33:
	.loc 1 401 14
	addi	a5,a5,-720
	add	a5,a5,a4
	addi	s2,s1,824
	add	s2,a5,s2
	li	a1,200
	mv	a0,s2
.LBB34:
.LBB30:
	.loc 1 147 23
	fsw	fa5,32(sp)
.LVL136:
.LBE30:
.LBE34:
	.loc 1 401 9 is_stmt 1
	.loc 1 401 14 is_stmt 0
	call	aws_iot_shadow_init_json_document
.LVL137:
	mv	s0,a0
.LVL138:
	.loc 1 402 9 is_stmt 1
	.loc 1 402 11 is_stmt 0
	bne	a0,zero,.L62
	.loc 1 403 13 is_stmt 1
	.loc 1 403 18 is_stmt 0
	li	a2,4096
	addi	a1,sp,16
	addi	a5,a2,-720
	add	a5,a5,a1
	addi	a4,s1,756
	add	a4,a5,a4
	addi	a5,a2,-720
	add	a5,a5,a1
	addi	a3,s1,776
	add	a3,a5,a3
	li	a2,2
	li	a1,200
	mv	a0,s2
.LVL139:
	call	aws_iot_shadow_add_reported
.LVL140:
	mv	s0,a0
.LVL141:
	.loc 1 405 13 is_stmt 1
	.loc 1 405 15 is_stmt 0
	bne	a0,zero,.L62
	.loc 1 406 17 is_stmt 1
	.loc 1 406 22 is_stmt 0
	li	a1,200
	mv	a0,s2
.LVL142:
	call	aws_iot_finalize_json_document
.LVL143:
	mv	s0,a0
.LVL144:
	.loc 1 407 17 is_stmt 1
	.loc 1 407 19 is_stmt 0
	bne	a0,zero,.L62
	.loc 1 408 21 is_stmt 1
	lui	a0,%hi(.LC41)
.LVL145:
	mv	a1,s2
	addi	a0,a0,%lo(.LC41)
	call	printf
.LVL146:
	.loc 1 409 21
	.loc 1 409 26 is_stmt 0
	li	s0,4096
	addi	a0,s1,1024
	lw	a1,36(sp)
	addi	s0,s0,-720
	addi	s1,sp,16
	add	s0,s0,s1
	lui	a3,%hi(ShadowUpdateStatusCallback)
	li	a5,4
	add	a0,s0,a0
	li	a6,1
	li	a4,0
	addi	a3,a3,%lo(ShadowUpdateStatusCallback)
	mv	a2,s2
	call	aws_iot_shadow_update
.LVL147:
	.loc 1 411 44
	li	a5,1
	.loc 1 409 26
	mv	s0,a0
.LVL148:
	.loc 1 411 21 is_stmt 1
	.loc 1 411 44 is_stmt 0
	sb	a5,0(s4)
.LVL149:
.L62:
	.loc 1 415 9 is_stmt 1
	lui	a0,%hi(.LC42)
	addi	a0,a0,%lo(.LC42)
	call	printf
.LVL150:
	.loc 1 416 9
	li	a0,0
	call	pcTaskGetName
.LVL151:
	sw	a0,12(sp)
	li	a0,0
	call	uxTaskGetStackHighWaterMark
.LVL152:
	lw	a1,12(sp)
	mv	a2,a0
	lui	a0,%hi(.LC43)
	addi	a0,a0,%lo(.LC43)
	call	printf
.LVL153:
	.loc 1 418 9
	li	a0,1000
	call	vTaskDelay
.LVL154:
	j	.L53
.LVL155:
.L65:
	.loc 1 398 9 is_stmt 0
	lui	a1,%hi(.LC4)
	addi	a1,a1,%lo(.LC4)
	j	.L57
.LVL156:
.L78:
.LBB35:
.LBB31:
	.loc 1 143 12 is_stmt 1
	.loc 1 143 14 is_stmt 0
	fle.s	a4,fa4,fs0
	beq	a4,zero,.L60
	.loc 1 144 9 is_stmt 1
	.loc 1 144 21 is_stmt 0
	fsw	fs2,0(a5)
	j	.L60
.LBE31:
.LBE35:
	.cfi_endproc
.LFE20:
	.size	aws_main_entry, .-aws_main_entry
	.section	.rodata.ShadowUpdateStatusCallback.str1.4,"aMS",@progbits,1
	.align	2
.LC0:
	.string	"Update timed out\r\n"
	.zero	1
.LC1:
	.string	"Update rejected\r\n"
	.zero	2
.LC2:
	.string	"Update accepted\r\n"
	.section	.rodata.aws_main_entry.cst4,"aM",@progbits,4
	.align	2
.LC35:
	.word	1103626240
.LC38:
	.word	1107296256
.LC39:
	.word	3204448256
.LC40:
	.word	1056964608
	.section	.rodata.aws_main_entry.str1.4,"aMS",@progbits,1
	.align	2
.LC4:
	.string	"true"
	.zero	3
.LC5:
	.string	"false"
	.zero	2
.LC6:
	.string	"windowOpen"
	.zero	1
.LC7:
	.string	"temperature"
.LC8:
	.string	""
	.zero	3
.LC9:
	.string	"AWS IoT SDK Version %d.%d.%d-%s\r\n"
	.zero	2
.LC10:
	.string	"/romfs/aws/config"
	.zero	2
.LC11:
	.string	"Open config file %s failed\r\n"
	.zero	3
.LC12:
	.string	"ap3im43fimllm-ats.iot.us-east-1.amazonaws.com"
	.zero	2
.LC13:
	.string	" URL:%s\r\n"
	.zero	2
.LC14:
	.string	", port is %d\r\n"
	.zero	1
.LC15:
	.ascii	"-----BEGIN CERTIFICATE-----\r\nMIIDWjCCAkKgAwIBAgIVAOosWE2Km"
	.ascii	"3IxrIwFACK/p1K1hvclMA0GCSqGSIb3DQEB\r\nCwUAME0xSzBJBgNVBAsMQ"
	.ascii	"kFtYXpvbiBXZWIgU2VydmljZXMgTz1BbWF6b24uY29t\r\nIEluYy4gTD1TZ"
	.ascii	"WF0dGxlIFNUPVdhc2hpbmd0b24gQz1VUzAeFw0xOTA5MDQwNjUw\r\nNTFaF"
	.ascii	"w00OTEyMzEyMzU5NTlaMB4xHDAaBgNVBAMME0FXUyBJb1QgQ2VydGlmaWNh\r"
	.ascii	"\ndGUwggEiMA0GCSqGSIb3DQEBAQUAA4IBDwAwggEKAoIBAQDOLZXvbTzYCv"
	.ascii	"zEhyxP\r\nGtF8chZ+r3FZszUdqicDnUqIcKAZiiUC2P/errXnaK/eEye2QU"
	.ascii	"SZmUDpn1xybde4\r\neG1Kz8BvSnp6UYuoF1hPnLQvnm02ILwANcdjScql6C"
	.ascii	"pYIwuGNvCxP1re+iOnOx7V\r\nkFP02d0w36voNMZHyK755IjjWz5PSEIzXx"
	.ascii	"6RCP/wqkJlz+oZvIrDZZ1dXa5X3ffV\r\nbftYCPj2gDW8AohWYMapDJpRfE"
	.ascii	"do6g6NkP4VOPS+nZ9Fp9rY6BZqJR6m4otjdMna\r\nI7p3FY5wqOdcF3DPXY"
	.ascii	"MHR0j5SjtDLIeNpX8AP6ekpZsO9k1/VLSK+wxXIHltsYW/\r\nlQtzAgMBAA"
	.ascii	"GjYDBeMB8GA1UdIwQYMBaAFLcyZBzcJOBSL0d+yMxZh3trcG7rMB0G\r\nA1"
	.ascii	"UdDgQWBBSgGPuINfSBCTZxtcV3epnSuxPdlTAMBgNVHRMBAf8EAjAAMA4GA1"
	.ascii	"Ud\r\nDwEB/wQEAwIHgDANBgkqhkiG9w0BAQsFAAOCAQEAki9Ito1X7mxn8w"
	.ascii	"CFqmhhXMnh\r\nU6GPvTJTBuTTO+exe8zPiBwHqE0GwJi7Gpu7mlXdlb0vCe"
	.ascii	"NDPBIaDmdcXF/UvTQb\r\nebD3ifawME605r2DFb4IYXVypZzZ2/gKY1K"
	.string	"7uKqL9dvyyPdWQJtQY2Kf5AZmKfQ0\r\nPhM6ed1GoMyoW6FRBhjds/znMAduxzvCGaJntKHLppDxl6YrzewgDHsc4iGRnjd2\r\nC8cX+aw7EwNrBwFCYKz+5kA4UFD6coAuMQlAqTSYvD6MJvFSKp8JvlvUVCqPTSHh\r\nPb9Nq++uF9n+F+X8lzA6ul6IoPt5DkzNhOJRdvkggKYuVCUGkMdkZJVKeUHq1g==\r\n-----END CERTIFICATE-----\r\n"
	.zero	3
.LC16:
	.ascii	"-----BEGIN RSA PRIVATE KEY-----\r\nMIIEpgIBAAKCAQEAzi2V72082"
	.ascii	"Ar8xIcsTxrRfHIWfq9xWbM1HaonA51KiHCgGYol\r\nAtj/3q6152iv3hMnt"
	.ascii	"kFEmZlA6Z9ccm3XuHhtSs/Ab0p6elGLqBdYT5y0L55tNiC8\r\nADXHY0nKp"
	.ascii	"egqWCMLhjbwsT9a3vojpzse1ZBT9NndMN+r6DTGR8iu+eSI41s+T0hC\r\nM"
	.ascii	"18ekQj/8KpCZc/qGbyKw2WdXV2uV9331W37WAj49oA1vAKIVmDGqQyaUXxHa"
	.ascii	"OoO\r\njZD+FTj0vp2fRafa2OgWaiUepuKLY3TJ2iO6dxWOcKjnXBdwz12DB"
	.ascii	"0dI+Uo7QyyH\r\njaV/AD+npKWbDvZNf1S0ivsMVyB5bbGFv5ULcwIDAQABA"
	.ascii	"oIBAQCkRtoibU1/bjG8\r\nfV+mn92uZFDcG/oa2JlHy51OWfNbBzHpZ5LZ1"
	.ascii	"AD7cwVpHpaSQXzw0MxR/jQkcV99\r\npVuulfWvGB1iD1vLPlIiWod414kSM"
	.ascii	"A8gg7CIElGOIOugiX3DwBiclgXtlGdZJsFl\r\nq8uDqn3aqAR/vpgAapxZ8"
	.ascii	"eLJJXiUfV7IaAu7dXr0Es1WEmyXV0xbtppEm9BIgjw9\r\n33YmSvTkBRMMf"
	.ascii	"SBN5u0xp53axiwZ77I8ZNRROlUy/ki5myWazTcjAYdDnzO7M8of\r\n/iMaO"
	.ascii	"Y7UOcROKEzWCzTOucncrGg+Uv+YD0kMe37Aj3g3wK4BZcMA0LdiY9N31S0F\r"
	.ascii	"\nl5IVbzfxAoGBAOv+4rURrsjyvbyqaWS3Y30k5bGsaA/m7Bwmyey/0NXOza"
	.ascii	"02KqRa\r\n/ZfIB8jCChVkNmMFfc4Aqp4VsV8YZCxnQzjteiIRWurfZD9Xgf"
	.ascii	"8fF4OYmZpUqZ6S\r\nU8GX8rd88RTkb5N6VlDRKK8aqhKRJ/OE4VF+c6p0PH"
	.ascii	"ITzaN42LEGldCFAoGBAN+n\r\nqFUyO9k0SvYz1LQFVgXF3kzIjzjI4ca/CY"
	.ascii	"g8vYllS9n0wE0/m4KrA3wA0Qxpl5tI\r\nD8H1Br1G4iy+4n3Zwtb2wEa+KX"
	.ascii	"YjSmHzxJNKiBOK5Ks6k4CbScswy7wV2fgPqUIK\r\nyoBLfdNlnhbcDHdWXw"
	.ascii	"y84ea59pcRdjVMBVFrFumXAoGBAOHaDR08zwmBRhRJApRg\r\n7dXWefyQAw"
	.ascii	"c0+MH4XUc2S6ZTRIOAU073xbp8tPZsvTm7rlEV8FA2UxL3r8hSj4vv\r\nR2"
	.ascii	"Yz36667UfagxYbqU1/dAF9CYOpgqs/XujngmIYMKDN/fomGnU9trHd0uXyBU"
	.ascii	"oI\r\n4ZocapW2qCKE0UihXsAMjVQBAoGBALH8n/blGkHZ3soeJ2j4UiQX+r"
	.ascii	"hKZ8g9/YeI\r\nIpLcG85K4dlbcOpI835CkGxPzg29vpwh9gBZ+foJfhcz9d"
	.ascii	"VHxkoCZrQlw6MzpI9d\r\nSpQZHT/IKgCmhhoz+r8MXyaYkTVbaUy"
	.string	"Yf90ntsPUO8JfbkBOaSge7PwMBFTm3Za+\r\noADSY5KTAoGBAK3f+otZPfZA1LTpWYbOpCl10Ci/R/xU13Ak7omahkpXX/dMHt3s\r\nd0fpsuduQwrQOGJLEZG/Z1zeNSp8QtGKH/RH57tWJBFR1XWEJ9kyH/FPVaighzPU\r\nT9VIJw2g//PLTT7yV/D9HmiNMj0hQYkTP3bGKvaiOrhC7a0Us4KhMGFc\r\n-----END RSA PRIVATE KEY-----\r\n"
	.zero	1
.LC17:
	.ascii	"-----BEGIN CERTIFICATE-----\r\nMIIDQTCCAimgAwIBAgITBmyfz5m/j"
	.ascii	"Ao54vB4ikPmljZbyjANBgkqhkiG9w0BAQsF\r\nADA5MQswCQYDVQQGEwJVU"
	.ascii	"zEPMA0GA1UEChMGQW1hem9uMRkwFwYDVQQDExBBbWF6\r\nb24gUm9vdCBDQ"
	.ascii	"SAxMB4XDTE1MDUyNjAwMDAwMFoXDTM4MDExNzAwMDAwMFowOTEL\r\nMAkGA"
	.ascii	"1UEBhMCVVMxDzANBgNVBAoTBkFtYXpvbjEZMBcGA1UEAxMQQW1hem9uIFJv\r"
	.ascii	"\nb3QgQ0EgMTCCASIwDQYJKoZIhvcNAQEBBQADggEPADCCAQoCggEBALJ4gH"
	.ascii	"HKeNXj\r\nca9HgFB0fW7Y14h29Jlo91ghYPl0hAEvrAIthtOgQ3pOsqTQNr"
	.ascii	"oBvo3bSMgHFzZM\r\n9O6II8c+6zf1tRn4SWiw3te5djgdYZ6k/oI2peVKVu"
	.ascii	"RF4fn9tBb6dNqcmzU5L/qw\r\nIFAGbHrQgLKm+a/sRxmPUDgH3KKHOVj4ut"
	.ascii	"Wp+UhnMJbulHheb4mjUcAwhmahRWa6\r\nVOujw5H5SNz/0egwLX0tdHA114"
	.ascii	"gk957EWW67c4cX8jJGKLhD+rcdqsq08p8kDi1L\r\n93FcXmn/6pUCyziKrl"
	.ascii	"A4b9v7LWIbxcceVOF34GfID5yHI9Y/QCB/IIDEgEw+OyQm\r\njgSubJrIqg"
	.ascii	"0CAwEAAaNCMEAwDwYDVR0TAQH/BAUwAwEB/zAOBgNVHQ8BAf8EBAMC\r\nAY"
	.ascii	"YwHQYDVR0OBBYEFIQYzIU07LwMlJQuCFmcx7IQTgoIMA0GCSqGSIb3DQEBCw"
	.ascii	"UA\r\nA4IBAQCY8jdaQZChGsV2USggNiMOruYou6r4lK5IpDB/G/wkjUu0yK"
	.ascii	"GX9rbxenDI\r\nU5PMCCjjmCXPI6T53iHTfIUJrU6adTrCC2qJeHZERxhlbI"
	.ascii	"1Bjjt/msv0tadQ1wUs\r"
	.string	"\nN+gDS63pYaACbvXy8MWy7Vu33PqUXHeeE6V/Uq2V8viTO96LXFvKWlJbYK8U90vv\r\no/ufQJVtMVT8QtPHRh8jrdkPSHCa2XV4cdFyQzR1bldZwgJcJmApzyMZFo6IQ6XU\r\n5MsI+yMRQ+hDKXJioaldXgjUkK642M4UwtBV8ob2xJNDd2ZhwLnoQdeXeGADbkpy\r\nrqXRfboQnoZsG4q5WTP468SQvvG5\r\n-----END CERTIFICATE-----\r\n"
	.zero	3
.LC18:
	.string	"bl60xDevRjwang"
	.zero	1
.LC19:
	.string	", THING ID is %s\r\n"
	.zero	1
.LC20:
	.string	"thing name len is %d"
	.zero	3
.LC21:
	.string	", THING name is %s\r\n"
	.zero	3
.LC22:
	.string	"URL len is %d,"
	.zero	1
.LC23:
	.string	"NULL pHost %d\r\n"
.LC24:
	.string	"port len is %d"
	.zero	1
.LC25:
	.string	"Too long port\r\n"
.LC26:
	.string	"thing id len is %d"
	.zero	1
.LC27:
	.string	"NULL pMqttClientId %d\r\n"
.LC28:
	.string	"NULL pMyThingName %d\r\n"
	.zero	1
.LC29:
	.string	"Shadow Init\r\n"
	.zero	2
.LC30:
	.string	"aws_iot_shadow_init returned error %d, aborting...\r\n"
	.zero	3
.LC31:
	.string	"Shadow Connect\r\n"
	.zero	3
.LC32:
	.string	"aws_iot_shadow_connect returned error %d, aborting...\r\n"
.LC33:
	.string	"Unable to set Auto Reconnect to true - %d, aborting...\r\n"
	.zero	3
.LC34:
	.string	"Shadow Register Delta Error\r\n"
	.zero	2
.LC36:
	.string	"=======================================================================================\r\n"
	.zero	2
.LC37:
	.string	"On Device: window state %s\r\n"
	.zero	3
.LC41:
	.string	"Update Shadow: %s\r\n"
.LC42:
	.string	"*****************************************************************************************\r\n"
.LC43:
	.string	"Stack remaining for task '%s' is %ld bytes\r\n"
	.zero	3
.LC44:
	.string	"An error occurred in the loop %d\r\n"
	.zero	1
.LC45:
	.string	"Disconnecting\r\n"
.LC46:
	.string	"Disconnect error %d\r\n"
	.section	.rodata.windowActuate_Callback.str1.4,"aMS",@progbits,1
	.align	2
.LC3:
	.string	"Delta - Window state changed to %d\r\n"
	.section	.sbss.deltaChange.6515,"aw",@nobits
	.align	2
	.set	.LANCHOR1,. + 0
	.type	deltaChange.6515, @object
	.size	deltaChange.6515, 4
deltaChange.6515:
	.zero	4
	.section	.sbss.shadowUpdateInProgress,"aw",@nobits
	.set	.LANCHOR0,. + 0
	.type	shadowUpdateInProgress, @object
	.size	shadowUpdateInProgress, 1
shadowUpdateInProgress:
	.zero	1
	.text
.Letext0:
	.file 2 "/home/hogc/build-tools/sdk/bl/bl_iot_sdk/toolchain/riscv/Linux/riscv64-unknown-elf/include/machine/_default_types.h"
	.file 3 "/home/hogc/build-tools/sdk/bl/bl_iot_sdk/toolchain/riscv/Linux/lib/gcc/riscv64-unknown-elf/8.3.0/include/stddef.h"
	.file 4 "/home/hogc/build-tools/sdk/bl/bl_iot_sdk/toolchain/riscv/Linux/riscv64-unknown-elf/include/sys/_types.h"
	.file 5 "/home/hogc/build-tools/sdk/bl/bl_iot_sdk/toolchain/riscv/Linux/riscv64-unknown-elf/include/sys/reent.h"
	.file 6 "/home/hogc/build-tools/sdk/bl/bl_iot_sdk/toolchain/riscv/Linux/riscv64-unknown-elf/include/sys/lock.h"
	.file 7 "/home/hogc/build-tools/sdk/bl/bl_iot_sdk/toolchain/riscv/Linux/riscv64-unknown-elf/include/sys/_stdint.h"
	.file 8 "/home/hogc/build-tools/sdk/bl/bl_iot_sdk/toolchain/riscv/Linux/riscv64-unknown-elf/include/stdlib.h"
	.file 9 "/home/hogc/build-tools/sdk/bl/bl_iot_sdk/toolchain/riscv/Linux/riscv64-unknown-elf/include/ctype.h"
	.file 10 "/home/hogc/build-tools/sdk/bl/bl_iot_sdk/toolchain/riscv/Linux/riscv64-unknown-elf/include/sys/unistd.h"
	.file 11 "/home/hogc/build-tools/sdk/bl/bl_iot_sdk/components/bl602/freertos_riscv_ram/portable/GCC/RISC-V/portmacro.h"
	.file 12 "/home/hogc/build-tools/sdk/bl/bl_iot_sdk/toolchain/riscv/Linux/riscv64-unknown-elf/include/time.h"
	.file 13 "/home/hogc/build-tools/sdk/bl/bl_iot_sdk/components/fs/vfs/include/fs/vfs_romfs.h"
	.file 14 "/home/hogc/build-tools/sdk/bl/bl_iot_sdk/components/3rdparty/aws-iot/aws-iot-device-sdk-embedded-C/include/aws_iot_error.h"
	.file 15 "/home/hogc/build-tools/sdk/bl/bl_iot_sdk/components/3rdparty/aws-iot/port/include/timer_platform.h"
	.file 16 "/home/hogc/build-tools/sdk/bl/bl_iot_sdk/components/3rdparty/aws-iot/aws-iot-device-sdk-embedded-C/include/timer_interface.h"
	.file 17 "/home/hogc/build-tools/sdk/bl/bl_iot_sdk/components/security/mbedtls/include/mbedtls/ecp.h"
	.file 18 "/home/hogc/build-tools/sdk/bl/bl_iot_sdk/components/security/mbedtls/include/mbedtls/md.h"
	.file 19 "/home/hogc/build-tools/sdk/bl/bl_iot_sdk/components/security/mbedtls/include/mbedtls/pk.h"
	.file 20 "/home/hogc/build-tools/sdk/bl/bl_iot_sdk/components/security/mbedtls/include/mbedtls/asn1.h"
	.file 21 "/home/hogc/build-tools/sdk/bl/bl_iot_sdk/components/security/mbedtls/include/mbedtls/x509.h"
	.file 22 "/home/hogc/build-tools/sdk/bl/bl_iot_sdk/components/security/mbedtls/include/mbedtls/x509_crl.h"
	.file 23 "/home/hogc/build-tools/sdk/bl/bl_iot_sdk/components/security/mbedtls/include/mbedtls/x509_crt.h"
	.file 24 "/home/hogc/build-tools/sdk/bl/bl_iot_sdk/components/security/mbedtls/include/mbedtls/ssl.h"
	.file 25 "/home/hogc/build-tools/sdk/bl/bl_iot_sdk/components/security/mbedtls/include/mbedtls/net_sockets.h"
	.file 26 "/home/hogc/build-tools/sdk/bl/bl_iot_sdk/components/security/mbedtls/include/mbedtls/sha256.h"
	.file 27 "/home/hogc/build-tools/sdk/bl/bl_iot_sdk/components/security/mbedtls/include/mbedtls/entropy.h"
	.file 28 "/home/hogc/build-tools/sdk/bl/bl_iot_sdk/components/security/mbedtls/include/mbedtls/aes.h"
	.file 29 "/home/hogc/build-tools/sdk/bl/bl_iot_sdk/components/security/mbedtls/include/mbedtls/ctr_drbg.h"
	.file 30 "/home/hogc/build-tools/sdk/bl/bl_iot_sdk/components/security/mbedtls/include/mbedtls/certs.h"
	.file 31 "/home/hogc/build-tools/sdk/bl/bl_iot_sdk/components/security/mbedtls/include/mbedtls/timing.h"
	.file 32 "/home/hogc/build-tools/sdk/bl/bl_iot_sdk/components/3rdparty/aws-iot/port/include/network_platform.h"
	.file 33 "/home/hogc/build-tools/sdk/bl/bl_iot_sdk/components/3rdparty/aws-iot/aws-iot-device-sdk-embedded-C/include/network_interface.h"
	.file 34 "/home/hogc/build-tools/sdk/bl/bl_iot_sdk/components/bl602/freertos_riscv_ram/config/queue.h"
	.file 35 "/home/hogc/build-tools/sdk/bl/bl_iot_sdk/components/bl602/freertos_riscv_ram/config/semphr.h"
	.file 36 "/home/hogc/build-tools/sdk/bl/bl_iot_sdk/components/3rdparty/aws-iot/port/include/threads_platform.h"
	.file 37 "/home/hogc/build-tools/sdk/bl/bl_iot_sdk/components/3rdparty/aws-iot/aws-iot-device-sdk-embedded-C/include/threads_interface.h"
	.file 38 "/home/hogc/build-tools/sdk/bl/bl_iot_sdk/components/3rdparty/aws-iot/aws-iot-device-sdk-embedded-C/include/aws_iot_mqtt_client.h"
	.file 39 "/home/hogc/build-tools/sdk/bl/bl_iot_sdk/components/3rdparty/aws-iot/aws-iot-device-sdk-embedded-C/include/aws_iot_shadow_json_data.h"
	.file 40 "/home/hogc/build-tools/sdk/bl/bl_iot_sdk/components/3rdparty/aws-iot/aws-iot-device-sdk-embedded-C/include/aws_iot_shadow_interface.h"
	.file 41 "/home/hogc/build-tools/sdk/bl/bl_iot_sdk/components/fs/vfs/include/vfs.h"
	.file 42 "/home/hogc/build-tools/sdk/bl/bl_iot_sdk/toolchain/riscv/Linux/riscv64-unknown-elf/include/stdio.h"
	.file 43 "/home/hogc/build-tools/sdk/bl/bl_iot_sdk/components/bl602/freertos_riscv_ram/config/portable.h"
	.file 44 "/home/hogc/build-tools/sdk/bl/bl_iot_sdk/components/bl602/freertos_riscv_ram/config/task.h"
	.file 45 "/home/hogc/build-tools/sdk/bl/bl_iot_sdk/toolchain/riscv/Linux/riscv64-unknown-elf/include/string.h"
	.file 46 "<built-in>"