	.file	"stateMachine.c"
	.option nopic
	.attribute arch, "rv32i2p0_m2p0_f2p0_c2p0"
	.attribute unaligned_access, 0
	.attribute stack_align, 16
	.text
.Ltext0:
	.cfi_sections	.debug_frame
	.section	.text.goToErrorState,"ax",@progbits
	.align	1
	.type	goToErrorState, @function
goToErrorState:
.LFB4:
	.file 1 "/home/hogc/build-tools/sdk/bl/bl_iot_sdk/components/bl602/bl602_wifidrv/bl60x_wifi_driver/stateMachine.c"
	.loc 1 150 1
	.cfi_startproc
.LVL0:
	.loc 1 151 4
	.loc 1 151 23 is_stmt 0
	lw	a5,0(a0)
	sw	a5,4(a0)
	.loc 1 152 4 is_stmt 1
	.loc 1 152 27 is_stmt 0
	lw	a5,8(a0)
	.loc 1 152 22
	sw	a5,0(a0)
	.loc 1 154 4 is_stmt 1
	.loc 1 154 7 is_stmt 0
	beq	a5,zero,.L1
	.loc 1 154 47 discriminator 1
	lw	t1,20(a5)
	.loc 1 154 27 discriminator 1
	beq	t1,zero,.L1
	.loc 1 155 7 is_stmt 1
	lw	a0,16(a5)
.LVL1:
	jr	t1
.LVL2:
.L1:
	.loc 1 156 1 is_stmt 0
	ret
	.cfi_endproc
.LFE4:
	.size	goToErrorState, .-goToErrorState
	.section	.text.stateM_init,"ax",@progbits
	.align	1
	.globl	stateM_init
	.type	stateM_init, @function
stateM_init:
.LFB0:
	.loc 1 42 1 is_stmt 1
	.cfi_startproc
.LVL3:
	.loc 1 43 4
	.loc 1 43 7 is_stmt 0
	beq	a0,zero,.L9
	.loc 1 46 4 is_stmt 1
	.loc 1 46 22 is_stmt 0
	sw	a1,0(a0)
	.loc 1 47 4 is_stmt 1
	.loc 1 47 23 is_stmt 0
	sw	zero,4(a0)
	.loc 1 48 4 is_stmt 1
	.loc 1 48 20 is_stmt 0
	sw	a2,8(a0)
.L9:
	.loc 1 49 1
	ret
	.cfi_endproc
.LFE0:
	.size	stateM_init, .-stateM_init
	.section	.text.stateM_handleEvent,"ax",@progbits
	.align	1
	.globl	stateM_handleEvent
	.type	stateM_handleEvent, @function
stateM_handleEvent:
.LFB1:
	.loc 1 53 1 is_stmt 1
	.cfi_startproc
.LVL4:
	.loc 1 54 4
	.loc 1 54 7 is_stmt 0
	beq	a0,zero,.L30
	.loc 1 53 1 discriminator 1
	addi	sp,sp,-32
	.cfi_def_cfa_offset 32
	sw	s0,24(sp)
	sw	ra,28(sp)
	sw	s1,20(sp)
	sw	s2,16(sp)
	sw	s3,12(sp)
	sw	s4,8(sp)
	sw	s5,4(sp)
	.cfi_offset 8, -8
	.cfi_offset 1, -4
	.cfi_offset 9, -12
	.cfi_offset 18, -16
	.cfi_offset 19, -20
	.cfi_offset 20, -24
	.cfi_offset 21, -28
	mv	s0,a0
	.loc 1 55 14 discriminator 1
	li	a0,-2
.LVL5:
	.loc 1 54 14 discriminator 1
	beq	a1,zero,.L14
	.loc 1 57 13
	lw	s1,0(s0)
	mv	s2,a1
	.loc 1 57 4 is_stmt 1
	.loc 1 57 7 is_stmt 0
	bne	s1,zero,.L16
.LVL6:
.L28:
	.loc 1 59 7 is_stmt 1
	mv	a0,s0
	mv	a1,s2
	call	goToErrorState
.LVL7:
	.loc 1 60 7
	.loc 1 60 14 is_stmt 0
	li	a0,-1
.LVL8:
.L14:
	.loc 1 129 1
	lw	ra,28(sp)
	.cfi_remember_state
	.cfi_restore 1
	lw	s0,24(sp)
	.cfi_restore 8
.LVL9:
	lw	s1,20(sp)
	.cfi_restore 9
	lw	s2,16(sp)
	.cfi_restore 18
	lw	s3,12(sp)
	.cfi_restore 19
	lw	s4,8(sp)
	.cfi_restore 20
	lw	s5,4(sp)
	.cfi_restore 21
	addi	sp,sp,32
	.cfi_def_cfa_offset 0
	jr	ra
.LVL10:
.L16:
	.cfi_restore_state
	.loc 1 63 4 is_stmt 1
	.loc 1 63 7 is_stmt 0
	lw	a5,12(s1)
.LBB7:
.LBB8:
.LBB9:
.LBB10:
	.loc 1 165 26
	li	s5,20
.LBE10:
.LBE9:
.LBE8:
.LBE7:
	.loc 1 63 7
	bne	a5,zero,.L17
.LVL11:
.L29:
	.loc 1 64 14
	li	a0,2
	j	.L14
.L17:
.LVL12:
	.loc 1 67 4 is_stmt 1
.LBB17:
	.loc 1 68 7
.LBB15:
.LBB13:
	.loc 1 163 12 is_stmt 0
	li	s4,0
.L18:
.LVL13:
	.loc 1 163 4
	lw	a5,12(s1)
	bltu	s4,a5,.L22
.LVL14:
.LBE13:
.LBE15:
	.loc 1 73 7 is_stmt 1
	.loc 1 75 10
	.loc 1 75 20 is_stmt 0
	lw	s1,0(s1)
.LVL15:
	.loc 1 76 10 is_stmt 1
.LBE17:
	.loc 1 126 4 is_stmt 0
	bne	s1,zero,.L17
	j	.L29
.LVL16:
.L22:
.LBB18:
.LBB16:
.LBB14:
.LBB11:
	.loc 1 165 7 is_stmt 1
	.loc 1 165 26 is_stmt 0
	mul	s3,s4,s5
	lw	a5,8(s1)
	add	s3,a5,s3
.LVL17:
	.loc 1 168 7 is_stmt 1
	.loc 1 168 10 is_stmt 0
	lw	a4,0(s3)
	lw	a5,0(s2)
	beq	a4,a5,.L19
.L21:
.LBE11:
	.loc 1 163 44
	addi	s4,s4,1
.LVL18:
	j	.L18
.L19:
.LBB12:
	.loc 1 170 10 is_stmt 1
	.loc 1 170 17 is_stmt 0
	lw	a5,8(s3)
	.loc 1 170 13
	beq	a5,zero,.L20
	.loc 1 173 15 is_stmt 1
	.loc 1 173 20 is_stmt 0
	lw	a0,4(s3)
	mv	a1,s2
	jalr	a5
.LVL19:
	.loc 1 173 18
	beq	a0,zero,.L21
.L20:
.LVL20:
.LBE12:
.LBE14:
.LBE16:
	.loc 1 73 7 is_stmt 1
	.loc 1 81 7
	.loc 1 81 23 is_stmt 0
	lw	s1,16(s3)
.LVL21:
	.loc 1 81 10
	bne	s1,zero,.L24
	j	.L28
.LVL22:
.L32:
	mv	s1,a5
.LVL23:
.L24:
	.loc 1 92 24
	lw	a5,4(s1)
	.loc 1 92 13
	bne	a5,zero,.L32
	.loc 1 97 7 is_stmt 1
	.loc 1 97 28 is_stmt 0
	lw	a5,0(s0)
	.loc 1 97 10
	beq	a5,s1,.L25
	.loc 1 97 63 discriminator 1
	lw	a4,24(a5)
	.loc 1 97 43 discriminator 1
	beq	a4,zero,.L25
	.loc 1 98 10 is_stmt 1
	lw	a0,16(a5)
	mv	a1,s2
	jalr	a4
.LVL24:
.L25:
	.loc 1 101 7
	.loc 1 101 22 is_stmt 0
	lw	a5,12(s3)
	.loc 1 101 10
	beq	a5,zero,.L26
	.loc 1 102 10 is_stmt 1
	lw	a4,0(s0)
	lw	a2,16(s1)
	mv	a1,s2
	lw	a0,16(a4)
	jalr	a5
.LVL25:
.L26:
	.loc 1 107 7
	.loc 1 107 10 is_stmt 0
	lw	a5,0(s0)
	beq	a5,s1,.L27
	.loc 1 107 55 discriminator 1
	lw	a5,20(s1)
	.loc 1 107 43 discriminator 1
	beq	a5,zero,.L27
	.loc 1 108 10 is_stmt 1
	lw	a0,16(s1)
	mv	a1,s2
	jalr	a5
.LVL26:
.L27:
	.loc 1 110 7
	.loc 1 110 31 is_stmt 0
	lw	a5,0(s0)
	.loc 1 111 25
	sw	s1,0(s0)
	.loc 1 115 17
	li	a0,1
	.loc 1 110 26
	sw	a5,4(s0)
	.loc 1 111 7 is_stmt 1
	.loc 1 114 7
	.loc 1 114 10 is_stmt 0
	beq	a5,s1,.L14
	.loc 1 117 7 is_stmt 1
	.loc 1 117 10 is_stmt 0
	lw	a5,8(s0)
	.loc 1 118 17
	li	a0,-1
	.loc 1 117 10
	beq	a5,s1,.L14
	.loc 1 122 7 is_stmt 1
	.loc 1 122 10 is_stmt 0
	lw	a5,12(s1)
	.loc 1 125 14
	li	a0,0
	.loc 1 122 10
	bne	a5,zero,.L14
	.loc 1 123 17
	li	a0,3
	j	.L14
.LVL27:
.L30:
	.cfi_def_cfa_offset 0
	.cfi_restore 1
	.cfi_restore 8
	.cfi_restore 9
	.cfi_restore 18
	.cfi_restore 19
	.cfi_restore 20
	.cfi_restore 21
.LBE18:
	.loc 1 55 14
	li	a0,-2
.LVL28:
	.loc 1 129 1
	ret
	.cfi_endproc
.LFE1:
	.size	stateM_handleEvent, .-stateM_handleEvent
	.section	.text.stateM_currentState,"ax",@progbits
	.align	1
	.globl	stateM_currentState
	.type	stateM_currentState, @function
stateM_currentState:
.LFB2:
	.loc 1 132 1 is_stmt 1
	.cfi_startproc
.LVL29:
	.loc 1 133 4
	.loc 1 133 7 is_stmt 0
	beq	a0,zero,.L59
	.loc 1 136 4 is_stmt 1
	.loc 1 136 14 is_stmt 0
	lw	a0,0(a0)
.LVL30:
.L59:
	.loc 1 137 1
	ret
	.cfi_endproc
.LFE2:
	.size	stateM_currentState, .-stateM_currentState
	.section	.text.stateM_previousState,"ax",@progbits
	.align	1
	.globl	stateM_previousState
	.type	stateM_previousState, @function
stateM_previousState:
.LFB3:
	.loc 1 140 1 is_stmt 1
	.cfi_startproc
.LVL31:
	.loc 1 141 4
	.loc 1 141 7 is_stmt 0
	beq	a0,zero,.L64
	.loc 1 144 4 is_stmt 1
	.loc 1 144 14 is_stmt 0
	lw	a0,4(a0)
.LVL32:
.L64:
	.loc 1 145 1
	ret
	.cfi_endproc
.LFE3:
	.size	stateM_previousState, .-stateM_previousState
	.section	.text.stateM_stopped,"ax",@progbits
	.align	1
	.globl	stateM_stopped
	.type	stateM_stopped, @function
stateM_stopped:
.LFB6:
	.loc 1 183 1 is_stmt 1
	.cfi_startproc
.LVL33:
	.loc 1 184 4
	.loc 1 184 7 is_stmt 0
	beq	a0,zero,.L70
	.loc 1 187 4 is_stmt 1
	.loc 1 187 37 is_stmt 0
	lw	a5,0(a0)
	.loc 1 187 54
	lw	a0,12(a5)
.LVL34:
	seqz	a0,a0
	ret
.LVL35:
.L70:
	.loc 1 185 13
	li	a0,1
.LVL36:
	.loc 1 188 1
	ret
	.cfi_endproc
.LFE6:
	.size	stateM_stopped, .-stateM_stopped
	.text
.Letext0:
	.file 2 "/home/hogc/build-tools/sdk/bl/bl_iot_sdk/components/bl602/bl602_wifidrv/bl60x_wifi_driver/stateMachine.h"
	.file 3 "/home/hogc/build-tools/sdk/bl/bl_iot_sdk/toolchain/riscv/Linux/lib/gcc/riscv64-unknown-elf/8.3.0/include/stddef.h"