	.file	"cJSON.c"
	.option nopic
	.attribute arch, "rv32i2p0_m2p0_f2p0_c2p0"
	.attribute unaligned_access, 0
	.attribute stack_align, 16
	.text
.Ltext0:
	.cfi_sections	.debug_frame
	.section	.text.parse_hex4,"ax",@progbits
	.align	1
	.type	parse_hex4, @function
parse_hex4:
.LFB15:
	.file 1 "/b-l/DoHome_Light_rgbcw/DoHome_Light_rgbcw/components/cjson/cJSON.c"
	.loc 1 178 1
	.cfi_startproc
.LVL0:
	.loc 1 179 2
	.loc 1 180 2
	.loc 1 180 6 is_stmt 0
	lbu	a3,0(a0)
	.loc 1 180 5
	li	a4,9
	.loc 1 180 16
	addi	a5,a3,-48
	.loc 1 180 5
	andi	a2,a5,0xff
	bleu	a2,a4,.L3
	.loc 1 180 50 is_stmt 1 discriminator 2
	.loc 1 180 64 is_stmt 0 discriminator 2
	addi	a5,a3,-65
	.loc 1 180 53 discriminator 2
	andi	a5,a5,0xff
	li	a2,5
	bgtu	a5,a2,.L4
	.loc 1 180 78 is_stmt 1 discriminator 3
	.loc 1 180 79 is_stmt 0 discriminator 3
	addi	a5,a3,-55
.LVL1:
.L3:
	.loc 1 181 2 is_stmt 1
	.loc 1 182 6 is_stmt 0
	lbu	a3,1(a0)
	.loc 1 182 5
	li	a2,9
	.loc 1 181 3
	slli	a5,a5,4
.LVL2:
	.loc 1 181 9 is_stmt 1
	.loc 1 182 2
	.loc 1 182 16 is_stmt 0
	addi	a4,a3,-48
	.loc 1 182 5
	andi	a1,a4,0xff
	bgtu	a1,a2,.L6
	.loc 1 182 30 is_stmt 1 discriminator 1
	.loc 1 182 31 is_stmt 0 discriminator 1
	add	a5,a4,a5
.LVL3:
.L7:
	.loc 1 183 2 is_stmt 1
	.loc 1 184 6 is_stmt 0
	lbu	a3,2(a0)
	.loc 1 184 5
	li	a2,9
	.loc 1 183 3
	slli	a5,a5,4
.LVL4:
	.loc 1 183 9 is_stmt 1
	.loc 1 184 2
	.loc 1 184 16 is_stmt 0
	addi	a4,a3,-48
	.loc 1 184 5
	andi	a1,a4,0xff
	bgtu	a1,a2,.L9
	.loc 1 184 30 is_stmt 1 discriminator 1
	.loc 1 184 31 is_stmt 0 discriminator 1
	add	a5,a4,a5
.LVL5:
.L10:
	.loc 1 185 2 is_stmt 1
	.loc 1 186 6 is_stmt 0
	lbu	a0,3(a0)
.LVL6:
	.loc 1 186 5
	li	a3,9
	.loc 1 185 3
	slli	a5,a5,4
.LVL7:
	.loc 1 185 9 is_stmt 1
	.loc 1 186 2
	.loc 1 186 16 is_stmt 0
	addi	a4,a0,-48
	.loc 1 186 5
	andi	a2,a4,0xff
	bgtu	a2,a3,.L12
.L20:
	.loc 1 186 130 discriminator 5
	add	a4,a4,a5
.LVL8:
.L1:
	.loc 1 188 1
	mv	a0,a4
	ret
.LVL9:
.L4:
	.loc 1 180 101 is_stmt 1 discriminator 4
	.loc 1 180 115 is_stmt 0 discriminator 4
	addi	a5,a3,-97
	.loc 1 180 104 discriminator 4
	andi	a5,a5,0xff
	.loc 1 180 159 discriminator 4
	li	a4,0
	.loc 1 180 104 discriminator 4
	bgtu	a5,a2,.L1
	.loc 1 180 129 is_stmt 1 discriminator 5
	.loc 1 180 130 is_stmt 0 discriminator 5
	addi	a5,a3,-87
.LVL10:
	j	.L3
.LVL11:
.L6:
	.loc 1 182 50 is_stmt 1 discriminator 2
	.loc 1 182 64 is_stmt 0 discriminator 2
	addi	a4,a3,-65
	.loc 1 182 53 discriminator 2
	andi	a4,a4,0xff
	li	a1,5
	bgtu	a4,a1,.L8
	.loc 1 182 78 is_stmt 1 discriminator 3
	.loc 1 182 79 is_stmt 0 discriminator 3
	addi	a3,a3,-55
.L18:
	.loc 1 182 130 discriminator 5
	add	a5,a3,a5
.LVL12:
	j	.L7
.L8:
	.loc 1 182 101 is_stmt 1 discriminator 4
	.loc 1 182 115 is_stmt 0 discriminator 4
	addi	a2,a3,-97
	.loc 1 182 104 discriminator 4
	andi	a2,a2,0xff
	.loc 1 180 159 discriminator 4
	li	a4,0
	.loc 1 182 104 discriminator 4
	bgtu	a2,a1,.L1
	.loc 1 182 129 is_stmt 1 discriminator 5
	.loc 1 182 130 is_stmt 0 discriminator 5
	addi	a3,a3,-87
	j	.L18
.LVL13:
.L9:
	.loc 1 184 50 is_stmt 1 discriminator 2
	.loc 1 184 64 is_stmt 0 discriminator 2
	addi	a4,a3,-65
	.loc 1 184 53 discriminator 2
	andi	a4,a4,0xff
	li	a1,5
	bgtu	a4,a1,.L11
	.loc 1 184 78 is_stmt 1 discriminator 3
	.loc 1 184 79 is_stmt 0 discriminator 3
	addi	a3,a3,-55
.L19:
	.loc 1 184 130 discriminator 5
	add	a5,a3,a5
.LVL14:
	j	.L10
.L11:
	.loc 1 184 101 is_stmt 1 discriminator 4
	.loc 1 184 115 is_stmt 0 discriminator 4
	addi	a2,a3,-97
	.loc 1 184 104 discriminator 4
	andi	a2,a2,0xff
	.loc 1 180 159 discriminator 4
	li	a4,0
	.loc 1 184 104 discriminator 4
	bgtu	a2,a1,.L1
	.loc 1 184 129 is_stmt 1 discriminator 5
	.loc 1 184 130 is_stmt 0 discriminator 5
	addi	a3,a3,-87
	j	.L19
.LVL15:
.L12:
	.loc 1 186 50 is_stmt 1 discriminator 2
	.loc 1 186 64 is_stmt 0 discriminator 2
	addi	a4,a0,-65
	.loc 1 186 53 discriminator 2
	andi	a4,a4,0xff
	li	a2,5
	bgtu	a4,a2,.L13
	.loc 1 186 78 is_stmt 1 discriminator 3
	.loc 1 186 79 is_stmt 0 discriminator 3
	addi	a4,a0,-55
	j	.L20
.L13:
	.loc 1 186 101 is_stmt 1 discriminator 4
	.loc 1 186 115 is_stmt 0 discriminator 4
	addi	a3,a0,-97
	.loc 1 186 104 discriminator 4
	andi	a3,a3,0xff
	.loc 1 180 159 discriminator 4
	li	a4,0
	.loc 1 186 104 discriminator 4
	bgtu	a3,a2,.L1
	.loc 1 186 129 is_stmt 1 discriminator 5
	.loc 1 186 130 is_stmt 0 discriminator 5
	addi	a4,a0,-87
	j	.L20
	.cfi_endproc
.LFE15:
	.size	parse_hex4, .-parse_hex4
	.section	.text.parse_string,"ax",@progbits
	.align	1
	.type	parse_string, @function
parse_string:
.LFB16:
	.loc 1 193 1 is_stmt 1
	.cfi_startproc
.LVL16:
	.loc 1 194 2
	.loc 1 194 24
	.loc 1 194 35
	.loc 1 194 45
	.loc 1 194 55
	.loc 1 195 2
	.loc 1 193 1 is_stmt 0
	addi	sp,sp,-80
	.cfi_def_cfa_offset 80
	sw	ra,76(sp)
	sw	s0,72(sp)
	sw	s1,68(sp)
	sw	s2,64(sp)
	sw	s3,60(sp)
	sw	s4,56(sp)
	sw	s5,52(sp)
	sw	s6,48(sp)
	sw	s7,44(sp)
	sw	s8,40(sp)
	sw	s9,36(sp)
	sw	s10,32(sp)
	sw	s11,28(sp)
	.cfi_offset 1, -4
	.cfi_offset 8, -8
	.cfi_offset 9, -12
	.cfi_offset 18, -16
	.cfi_offset 19, -20
	.cfi_offset 20, -24
	.cfi_offset 21, -28
	.cfi_offset 22, -32
	.cfi_offset 23, -36
	.cfi_offset 24, -40
	.cfi_offset 25, -44
	.cfi_offset 26, -48
	.cfi_offset 27, -52
	.loc 1 195 5
	lbu	a4,0(a1)
	li	a5,34
	bne	a4,a5,.L22
	.loc 1 194 14
	addi	s10,a1,1
.LVL17:
	mv	a5,s10
	.loc 1 194 49
	li	a4,0
	.loc 1 197 8
	li	a2,34
	.loc 1 197 41
	li	a6,92
.LVL18:
.L23:
	.loc 1 197 9 discriminator 3
	lbu	a3,0(a5)
	addi	a4,a4,1
.LVL19:
	.loc 1 197 8 discriminator 3
	beq	a3,a2,.L25
	.loc 1 197 20 discriminator 4
	beq	a3,zero,.L25
.LVL20:
	.loc 1 197 38 is_stmt 1 discriminator 5
	.loc 1 197 41 is_stmt 0 discriminator 5
	beq	a3,a6,.L26
	.loc 1 197 46
	addi	a5,a5,1
.LVL21:
	j	.L23
.LVL22:
.L22:
	.loc 1 195 19 is_stmt 1 discriminator 1
	.loc 1 195 21 is_stmt 0 discriminator 1
	lui	a5,%hi(.LANCHOR0)
	sw	a1,%lo(.LANCHOR0)(a5)
	.loc 1 195 26 is_stmt 1 discriminator 1
	.loc 1 195 33 is_stmt 0 discriminator 1
	li	s9,0
.LVL23:
.L21:
	.loc 1 249 1
	lw	ra,76(sp)
	.cfi_remember_state
	.cfi_restore 1
	lw	s0,72(sp)
	.cfi_restore 8
	mv	a0,s9
	lw	s1,68(sp)
	.cfi_restore 9
	lw	s2,64(sp)
	.cfi_restore 18
	lw	s3,60(sp)
	.cfi_restore 19
	lw	s4,56(sp)
	.cfi_restore 20
	lw	s5,52(sp)
	.cfi_restore 21
	lw	s6,48(sp)
	.cfi_restore 22
	lw	s7,44(sp)
	.cfi_restore 23
	lw	s8,40(sp)
	.cfi_restore 24
	lw	s9,36(sp)
	.cfi_restore 25
	lw	s10,32(sp)
	.cfi_restore 26
	lw	s11,28(sp)
	.cfi_restore 27
	addi	sp,sp,80
	.cfi_def_cfa_offset 0
	jr	ra
.LVL24:
.L26:
	.cfi_restore_state
	.loc 1 197 58 is_stmt 1 discriminator 1
	.loc 1 197 61 is_stmt 0 discriminator 1
	addi	a5,a5,2
.LVL25:
	j	.L23
.LVL26:
.L25:
	.loc 1 199 13
	lui	a5,%hi(.LANCHOR1)
.LVL27:
	lw	a5,%lo(.LANCHOR1)(a5)
	sw	a0,8(sp)
.LVL28:
	.loc 1 199 2 is_stmt 1
	.loc 1 199 13 is_stmt 0
	mv	a0,a4
.LVL29:
	jalr	a5
.LVL30:
	mv	s9,a0
.LVL31:
	.loc 1 200 2 is_stmt 1
	.loc 1 200 5 is_stmt 0
	beq	a0,zero,.L21
	.loc 1 219 22
	li	s1,-57344
	.loc 1 221 21
	li	s2,-53248
	.loc 1 235 43
	lui	s3,%hi(.LANCHOR2)
	.loc 1 226 32
	li	s4,1048576
	mv	s11,a0
	.loc 1 205 6
	li	s5,92
	.loc 1 209 4
	li	s6,110
	li	s7,117
	.loc 1 219 22
	addi	s1,s1,1024
	.loc 1 219 9
	li	s0,1023
	.loc 1 221 21
	addi	s2,s2,-2048
	.loc 1 235 43
	addi	s3,s3,%lo(.LANCHOR2)
	.loc 1 229 64
	li	s8,65536
	.loc 1 226 32
	addi	s4,s4,-1024
.LVL32:
.L28:
	.loc 1 203 9
	lbu	a4,0(s10)
	.loc 1 203 8
	li	a5,34
	beq	a4,a5,.L47
	.loc 1 203 20 discriminator 1
	bne	a4,zero,.L48
.L47:
	.loc 1 244 2 is_stmt 1
	.loc 1 244 7 is_stmt 0
	sb	zero,0(s11)
	.loc 1 245 2 is_stmt 1
	.loc 1 245 5 is_stmt 0
	lbu	a4,0(s10)
	li	a5,34
	bne	a4,a5,.L49
	.loc 1 245 18 is_stmt 1 discriminator 1
.LVL33:
	.loc 1 245 21 is_stmt 0 discriminator 1
	addi	s10,s10,1
.LVL34:
.L49:
	.loc 1 246 2 is_stmt 1
	.loc 1 246 19 is_stmt 0
	lw	a5,8(sp)
	.loc 1 247 12
	lw	a4,8(sp)
	.loc 1 246 19
	sw	s9,16(a5)
	.loc 1 247 2 is_stmt 1
	.loc 1 247 12 is_stmt 0
	li	a5,4
	sw	a5,12(a4)
	.loc 1 248 2 is_stmt 1
	.loc 1 248 9 is_stmt 0
	mv	s9,s10
.LVL35:
	j	.L21
.LVL36:
.L48:
	.loc 1 205 3 is_stmt 1
	addi	a2,s10,1
	.loc 1 205 6 is_stmt 0
	beq	a4,s5,.L29
	.loc 1 205 19 is_stmt 1 discriminator 1
.LVL37:
	.loc 1 205 26 is_stmt 0 discriminator 1
	sb	a4,0(s11)
	.loc 1 205 24 discriminator 1
	addi	s11,s11,1
.LVL38:
.L30:
	.loc 1 205 24
	mv	s10,a2
	j	.L28
.LVL39:
.L29:
	.loc 1 208 4 is_stmt 1
	.loc 1 209 4
	.loc 1 209 12 is_stmt 0
	lbu	a4,1(s10)
	.loc 1 209 4
	beq	a4,s6,.L31
	bgtu	a4,s6,.L32
	li	a0,98
	addi	a1,s11,1
	beq	a4,a0,.L33
	li	a0,102
	beq	a4,a0,.L34
.LVL40:
.L35:
	.loc 1 239 14 is_stmt 1
	.loc 1 239 21 is_stmt 0
	sb	a4,0(s11)
	j	.L61
.LVL41:
.L32:
	.loc 1 209 4
	li	a5,116
	beq	a4,a5,.L36
	beq	a4,s7,.L37
	li	a1,114
	bne	a4,a1,.L35
	.loc 1 214 15 is_stmt 1
.LVL42:
	.loc 1 214 22 is_stmt 0
	li	a4,13
	j	.L35
.LVL43:
.L33:
	.loc 1 211 15 is_stmt 1
	.loc 1 211 22 is_stmt 0
	li	a4,8
.L60:
	.loc 1 212 22
	sb	a4,0(s11)
	.loc 1 212 29 is_stmt 1
	.loc 1 212 20 is_stmt 0
	mv	s11,a1
.LVL44:
.L39:
	.loc 1 241 4 is_stmt 1
	.loc 1 241 7 is_stmt 0
	addi	a2,a2,1
.LVL45:
	j	.L30
.LVL46:
.L34:
	.loc 1 212 15 is_stmt 1
	.loc 1 212 22 is_stmt 0
	li	a4,12
	j	.L60
.LVL47:
.L31:
	.loc 1 213 15 is_stmt 1
	.loc 1 213 22 is_stmt 0
	li	a5,10
.LVL48:
.L62:
	.loc 1 215 22
	sb	a5,0(s11)
	.loc 1 215 29 is_stmt 1
.L61:
	.loc 1 239 28
	.loc 1 239 19 is_stmt 0
	addi	s11,s11,1
	.loc 1 239 5
	j	.L39
.LVL49:
.L36:
	.loc 1 215 15 is_stmt 1
	.loc 1 215 22 is_stmt 0
	li	a5,9
	j	.L62
.LVL50:
.L37:
	.loc 1 217 6 is_stmt 1
	.loc 1 217 9 is_stmt 0
	addi	a0,s10,2
	call	parse_hex4
.LVL51:
	.loc 1 219 22
	add	a4,a0,s1
	.loc 1 217 9
	mv	a7,a0
.LVL52:
	.loc 1 217 27 is_stmt 1
	.loc 1 217 30 is_stmt 0
	addi	a2,s10,5
.LVL53:
	.loc 1 219 6 is_stmt 1
	.loc 1 219 9 is_stmt 0
	bleu	a4,s0,.L39
	.loc 1 219 37 discriminator 1
	beq	a0,zero,.L39
	.loc 1 221 6 is_stmt 1
	.loc 1 221 21 is_stmt 0
	add	a4,a0,s2
	.loc 1 221 9
	bgtu	a4,s0,.L40
	.loc 1 223 7 is_stmt 1
	.loc 1 223 10 is_stmt 0
	lbu	a4,6(s10)
	bne	a4,s5,.L39
	.loc 1 223 24 discriminator 1
	lbu	a4,7(s10)
	bne	a4,s7,.L39
	sw	a0,12(sp)
	.loc 1 224 7 is_stmt 1
	.loc 1 224 11 is_stmt 0
	addi	a0,s10,8
.LVL54:
	call	parse_hex4
.LVL55:
	.loc 1 224 29 is_stmt 1
	.loc 1 225 22 is_stmt 0
	add	a4,a0,s1
	.loc 1 224 32
	addi	a2,s10,11
.LVL56:
	.loc 1 225 7 is_stmt 1
	.loc 1 225 10 is_stmt 0
	bgtu	a4,s0,.L39
	.loc 1 226 7 is_stmt 1
	.loc 1 226 32 is_stmt 0
	lw	a7,12(sp)
	.loc 1 226 44
	andi	a0,a0,1023
.LVL57:
	.loc 1 226 32
	slli	a4,a7,10
	and	a4,a4,s4
	.loc 1 226 38
	or	a4,a4,a0
	.loc 1 226 9
	add	a7,a4,s8
.LVL58:
	.loc 1 229 6 is_stmt 1
	.loc 1 229 12
	.loc 1 229 36
.L41:
	.loc 1 229 84
	.loc 1 231 6
	.loc 1 232 15
	.loc 1 232 37 is_stmt 0
	andi	a4,a7,63
	ori	a4,a4,-128
	.loc 1 232 23
	sb	a4,3(s11)
	addi	a0,s11,3
.LVL59:
	.loc 1 232 46 is_stmt 1
	.loc 1 232 49 is_stmt 0
	srli	a7,a7,6
.LVL60:
	.loc 1 229 9
	li	a4,4
	j	.L45
.LVL61:
.L40:
	.loc 1 229 6 is_stmt 1
	.loc 1 229 12
	.loc 1 229 15 is_stmt 0
	li	a5,127
	bgtu	a0,a5,.L42
.LVL62:
	.loc 1 229 84 is_stmt 1
	.loc 1 229 88 is_stmt 0
	addi	a5,s11,1
.LVL63:
	.loc 1 231 6 is_stmt 1
	.loc 1 229 28 is_stmt 0
	li	a4,1
.LVL64:
.L43:
	.loc 1 235 15 is_stmt 1
	.loc 1 235 43 is_stmt 0
	add	a1,s3,a4
	.loc 1 235 28
	lbu	a0,0(a1)
	.loc 1 237 10
	addi	a4,a4,-1
	add	s11,a5,a4
	.loc 1 235 28
	or	a0,a7,a0
	.loc 1 235 23
	sb	a0,-1(a5)
	.loc 1 237 6 is_stmt 1
.LVL65:
	.loc 1 238 6
	j	.L39
.LVL66:
.L42:
	.loc 1 229 36 discriminator 2
	.loc 1 229 39 is_stmt 0 discriminator 2
	li	a5,2047
	bleu	a0,a5,.L44
	.loc 1 229 61 is_stmt 1 discriminator 5
	.loc 1 229 64 is_stmt 0 discriminator 5
	bgeu	a0,s8,.L41
	.loc 1 229 77 is_stmt 1
.LVL67:
	.loc 1 229 84
	.loc 1 229 88 is_stmt 0
	addi	a0,s11,3
.LVL68:
	.loc 1 231 6 is_stmt 1
	.loc 1 229 80 is_stmt 0
	li	a4,3
.LVL69:
.L45:
	.loc 1 233 15 is_stmt 1
	.loc 1 233 37 is_stmt 0
	andi	a5,a7,63
	ori	a5,a5,-128
	.loc 1 233 23
	addi	a1,a0,-1
.LVL70:
	sb	a5,-1(a0)
	.loc 1 233 46 is_stmt 1
	.loc 1 233 49 is_stmt 0
	srli	a7,a7,6
.LVL71:
	j	.L46
.LVL72:
.L44:
	.loc 1 229 84 is_stmt 1
	.loc 1 229 88 is_stmt 0
	addi	a1,s11,2
.LVL73:
	.loc 1 231 6 is_stmt 1
	.loc 1 229 53 is_stmt 0
	li	a4,2
.LVL74:
.L46:
	.loc 1 234 15 is_stmt 1
	.loc 1 234 37 is_stmt 0
	andi	a0,a7,63
	ori	a0,a0,-128
	.loc 1 234 23
	addi	a5,a1,-1
.LVL75:
	sb	a0,-1(a1)
	.loc 1 234 46 is_stmt 1
	.loc 1 234 49 is_stmt 0
	srli	a7,a7,6
.LVL76:
	j	.L43
	.cfi_endproc
.LFE16:
	.size	parse_string, .-parse_string
	.section	.text.skip,"ax",@progbits
	.align	1
	.type	skip, @function
skip:
.LFB19:
	.loc 1 320 41 is_stmt 1
	.cfi_startproc
.LVL77:
	.loc 1 320 42
	.loc 1 320 52 is_stmt 0
	li	a4,31
.L64:
	.loc 1 320 48 discriminator 1
	beq	a0,zero,.L63
	.loc 1 320 52 discriminator 2
	lbu	a5,0(a0)
	addi	a5,a5,-1
	andi	a5,a5,0xff
	bleu	a5,a4,.L66
.L63:
	.loc 1 320 1
	ret
.L66:
	.loc 1 320 86 is_stmt 1 discriminator 6
	.loc 1 320 88 is_stmt 0 discriminator 6
	addi	a0,a0,1
.LVL78:
	j	.L64
	.cfi_endproc
.LFE19:
	.size	skip, .-skip
	.section	.text.cJSON_New_Item,"ax",@progbits
	.align	1
	.type	cJSON_New_Item, @function
cJSON_New_Item:
.LFB8:
	.loc 1 74 1 is_stmt 1
	.cfi_startproc
	.loc 1 75 2
	.loc 1 75 24 is_stmt 0
	lui	a5,%hi(.LANCHOR1)
	lw	a5,%lo(.LANCHOR1)(a5)
	.loc 1 74 1
	addi	sp,sp,-16
	.cfi_def_cfa_offset 16
	sw	s0,8(sp)
	sw	ra,12(sp)
	.cfi_offset 8, -8
	.cfi_offset 1, -4
	.loc 1 75 24
	li	a0,40
	jalr	a5
.LVL79:
	mv	s0,a0
.LVL80:
	.loc 1 76 2 is_stmt 1
	.loc 1 76 5 is_stmt 0
	beq	a0,zero,.L70
	.loc 1 76 12 is_stmt 1 discriminator 1
	li	a2,40
	li	a1,0
	call	memset
.LVL81:
	.loc 1 77 2 discriminator 1
.L70:
	.loc 1 78 1 is_stmt 0
	mv	a0,s0
	lw	ra,12(sp)
	.cfi_restore 1
	lw	s0,8(sp)
	.cfi_restore 8
.LVL82:
	addi	sp,sp,16
	.cfi_def_cfa_offset 0
	jr	ra
	.cfi_endproc
.LFE8:
	.size	cJSON_New_Item, .-cJSON_New_Item
	.section	.text.ensure,"ax",@progbits
	.align	1
	.type	ensure, @function
ensure:
.LFB12:
	.loc 1 122 1 is_stmt 1
	.cfi_startproc
.LVL83:
	.loc 1 123 2
	.loc 1 123 18
	.loc 1 124 2
	.loc 1 122 1 is_stmt 0
	addi	sp,sp,-32
	.cfi_def_cfa_offset 32
	sw	s2,16(sp)
	sw	ra,28(sp)
	sw	s0,24(sp)
	sw	s1,20(sp)
	sw	s3,12(sp)
	.cfi_offset 18, -16
	.cfi_offset 1, -4
	.cfi_offset 8, -8
	.cfi_offset 9, -12
	.cfi_offset 19, -20
	.loc 1 124 31
	li	s2,0
	.loc 1 124 5
	beq	a0,zero,.L76
	.loc 1 124 14 discriminator 2
	lw	s2,0(a0)
	.loc 1 124 9 discriminator 2
	beq	s2,zero,.L76
	.loc 1 125 2 is_stmt 1
	.loc 1 125 11 is_stmt 0
	lw	a5,8(a0)
	.loc 1 126 5
	lw	a4,4(a0)
	.loc 1 125 8
	add	a1,a5,a1
.LVL84:
	.loc 1 126 2 is_stmt 1
	.loc 1 126 5 is_stmt 0
	blt	a4,a1,.L78
.LVL85:
.L85:
	.loc 1 135 18 discriminator 1
	add	s2,s2,a5
	j	.L76
.LVL86:
.L78:
.LBB22:
.LBB23:
	.loc 1 117 29
	addi	s0,a1,-1
	.loc 1 117 38
	srai	a1,s0,1
.LVL87:
	.loc 1 117 35
	or	s0,s0,a1
.LVL88:
	.loc 1 117 47
	srai	a1,s0,2
	.loc 1 117 44
	or	s0,s0,a1
	.loc 1 117 56
	srai	a1,s0,4
	.loc 1 117 53
	or	s0,s0,a1
	.loc 1 117 65
	srai	a5,s0,8
.LVL89:
	.loc 1 117 62
	or	s0,s0,a5
	.loc 1 117 74
	srai	a5,s0,16
	.loc 1 117 71
	or	s0,s0,a5
.LBE23:
.LBE22:
	.loc 1 129 19
	lui	a5,%hi(.LANCHOR1)
	lw	a5,%lo(.LANCHOR1)(a5)
.LBB26:
.LBB24:
	.loc 1 117 88
	addi	s0,s0,1
	mv	s1,a0
.LBE24:
.LBE26:
	.loc 1 128 2 is_stmt 1
.LBB27:
.LBB25:
	.loc 1 117 29
	.loc 1 117 34
	.loc 1 117 43
	.loc 1 117 52
	.loc 1 117 61
	.loc 1 117 70
	.loc 1 117 80
.LVL90:
.LBE25:
.LBE27:
	.loc 1 129 2
	.loc 1 129 19 is_stmt 0
	mv	a0,s0
.LVL91:
	jalr	a5
.LVL92:
	lui	s3,%hi(.LANCHOR3)
	mv	s2,a0
.LVL93:
	.loc 1 130 2 is_stmt 1
	lw	a1,0(s1)
	addi	s3,s3,%lo(.LANCHOR3)
	.loc 1 130 5 is_stmt 0
	bne	a0,zero,.L79
	.loc 1 130 19 is_stmt 1 discriminator 1
	lw	a5,0(s3)
	mv	a0,a1
.LVL94:
	jalr	a5
.LVL95:
	.loc 1 130 41 discriminator 1
	.loc 1 130 50 is_stmt 0 discriminator 1
	sw	zero,4(s1)
	.loc 1 130 62 discriminator 1
	sw	zero,0(s1)
	.loc 1 130 65 is_stmt 1 discriminator 1
.LVL96:
.L76:
	.loc 1 136 1 is_stmt 0
	lw	ra,28(sp)
	.cfi_remember_state
	.cfi_restore 1
	lw	s0,24(sp)
	.cfi_restore 8
	mv	a0,s2
	lw	s1,20(sp)
	.cfi_restore 9
	lw	s2,16(sp)
	.cfi_restore 18
	lw	s3,12(sp)
	.cfi_restore 19
	addi	sp,sp,32
	.cfi_def_cfa_offset 0
	jr	ra
.LVL97:
.L79:
	.cfi_restore_state
	.loc 1 131 2 is_stmt 1 discriminator 1
	.loc 1 131 17 discriminator 1
	lw	a2,4(s1)
	call	memcpy
.LVL98:
	.loc 1 132 2 discriminator 1
	lw	a5,0(s3)
	lw	a0,0(s1)
	jalr	a5
.LVL99:
	.loc 1 133 2 discriminator 1
	.loc 1 135 18 is_stmt 0 discriminator 1
	lw	a5,8(s1)
	.loc 1 133 11 discriminator 1
	sw	s0,4(s1)
	.loc 1 134 2 is_stmt 1 discriminator 1
	.loc 1 134 11 is_stmt 0 discriminator 1
	sw	s2,0(s1)
	.loc 1 135 2 is_stmt 1 discriminator 1
	j	.L85
	.cfi_endproc
.LFE12:
	.size	ensure, .-ensure
	.section	.text.create_reference,"ax",@progbits
	.align	1
	.type	create_reference, @function
create_reference:
.LFB35:
	.loc 1 668 45
	.cfi_startproc
.LVL100:
	.loc 1 668 46
	.loc 1 668 45 is_stmt 0
	addi	sp,sp,-32
	.cfi_def_cfa_offset 32
	sw	s0,24(sp)
	sw	ra,28(sp)
	.cfi_offset 8, -8
	.cfi_offset 1, -4
	.loc 1 668 45
	sw	a0,12(sp)
	.loc 1 668 57
	call	cJSON_New_Item
.LVL101:
	mv	s0,a0
.LVL102:
	.loc 1 668 74 is_stmt 1
	.loc 1 668 77 is_stmt 0
	beq	a0,zero,.L86
	.loc 1 668 93 is_stmt 1 discriminator 2
	lw	a1,12(sp)
	li	a2,40
	call	memcpy
.LVL103:
	.loc 1 668 124 discriminator 2
	.loc 1 668 147 is_stmt 0 discriminator 2
	lw	a5,12(s0)
	.loc 1 668 135 discriminator 2
	sw	zero,32(s0)
	.loc 1 668 138 is_stmt 1 discriminator 2
	.loc 1 668 172 is_stmt 0 discriminator 2
	sw	zero,4(s0)
	.loc 1 668 147 discriminator 2
	ori	a5,a5,256
	sw	a5,12(s0)
	.loc 1 668 153 is_stmt 1 discriminator 2
	.loc 1 668 162 is_stmt 0 discriminator 2
	sw	zero,0(s0)
	.loc 1 668 175 is_stmt 1 discriminator 2
.L86:
	.loc 1 668 1 is_stmt 0
	mv	a0,s0
	lw	ra,28(sp)
	.cfi_restore 1
	lw	s0,24(sp)
	.cfi_restore 8
.LVL104:
	addi	sp,sp,32
	.cfi_def_cfa_offset 0
.LVL105:
	jr	ra
	.cfi_endproc
.LFE35:
	.size	create_reference, .-create_reference
	.section	.text.cJSON_strdup,"ax",@progbits
	.align	1
	.type	cJSON_strdup, @function
cJSON_strdup:
.LFB6:
	.loc 1 50 1 is_stmt 1
	.cfi_startproc
.LVL106:
	.loc 1 51 7
	.loc 1 52 7
	.loc 1 54 7
	.loc 1 50 1 is_stmt 0
	addi	sp,sp,-32
	.cfi_def_cfa_offset 32
	sw	ra,28(sp)
	sw	s0,24(sp)
	.cfi_offset 1, -4
	.cfi_offset 8, -8
	.loc 1 50 1
	sw	a0,12(sp)
	.loc 1 54 13
	call	strlen
.LVL107:
	.loc 1 55 27
	lui	a5,%hi(.LANCHOR1)
	lw	a5,%lo(.LANCHOR1)(a5)
	.loc 1 54 11
	addi	a2,a0,1
.LVL108:
	.loc 1 55 7 is_stmt 1
	.loc 1 55 27 is_stmt 0
	mv	a0,a2
	sw	a2,8(sp)
	jalr	a5
.LVL109:
	mv	s0,a0
.LVL110:
	.loc 1 55 10
	beq	a0,zero,.L92
	.loc 1 56 7 is_stmt 1
	lw	a2,8(sp)
	lw	a1,12(sp)
	call	memcpy
.LVL111:
	.loc 1 57 7
.L92:
	.loc 1 58 1 is_stmt 0
	mv	a0,s0
	lw	ra,28(sp)
	.cfi_restore 1
	lw	s0,24(sp)
	.cfi_restore 8
.LVL112:
	addi	sp,sp,32
	.cfi_def_cfa_offset 0
.LVL113:
	jr	ra
	.cfi_endproc
.LFE6:
	.size	cJSON_strdup, .-cJSON_strdup
	.section	.text.update,"ax",@progbits
	.align	1
	.type	update, @function
update:
.LFB13:
	.loc 1 139 1 is_stmt 1
	.cfi_startproc
.LVL114:
	.loc 1 140 2
	.loc 1 141 2
	.loc 1 139 1 is_stmt 0
	addi	sp,sp,-16
	.cfi_def_cfa_offset 16
	sw	s0,8(sp)
	sw	ra,12(sp)
	.cfi_offset 8, -8
	.cfi_offset 1, -4
	.loc 1 141 31
	li	s0,0
	.loc 1 141 5
	beq	a0,zero,.L98
	.loc 1 141 14 discriminator 2
	lw	a4,0(a0)
	.loc 1 141 31 discriminator 2
	li	s0,0
	.loc 1 141 9 discriminator 2
	beq	a4,zero,.L98
	.loc 1 142 2 is_stmt 1
	.loc 1 142 17 is_stmt 0
	lw	s0,8(a0)
.LVL115:
	.loc 1 143 2 is_stmt 1
	.loc 1 143 19 is_stmt 0
	add	a0,a4,s0
.LVL116:
	call	strlen
.LVL117:
	.loc 1 143 18
	add	s0,s0,a0
.L98:
	.loc 1 144 1
	mv	a0,s0
	lw	ra,12(sp)
	.cfi_restore 1
	lw	s0,8(sp)
	.cfi_restore 8
	addi	sp,sp,16
	.cfi_def_cfa_offset 0
	jr	ra
	.cfi_endproc
.LFE13:
	.size	update, .-update
	.globl	__eqdf2
	.globl	__floatsidf
	.globl	__subdf3
	.globl	__ledf2
	.globl	__gedf2
	.globl	__ltdf2
	.globl	__gtdf2
	.section	.text.print_number,"ax",@progbits
	.align	1
	.type	print_number, @function
print_number:
.LFB14:
	.loc 1 148 1 is_stmt 1
	.cfi_startproc
.LVL118:
	.loc 1 149 2
	.loc 1 150 2
	.loc 1 148 1 is_stmt 0
	addi	sp,sp,-32
	.cfi_def_cfa_offset 32
	sw	s0,24(sp)
	sw	s4,8(sp)
	sw	ra,28(sp)
	sw	s1,20(sp)
	sw	s2,16(sp)
	sw	s3,12(sp)
	.cfi_offset 8, -8
	.cfi_offset 20, -24
	.cfi_offset 1, -4
	.cfi_offset 9, -12
	.cfi_offset 18, -16
	.cfi_offset 19, -20
	.loc 1 150 9
	lw	s3,28(a0)
	lw	s2,24(a0)
.LVL119:
	.loc 1 151 2 is_stmt 1
	.loc 1 148 1 is_stmt 0
	mv	s4,a0
	mv	s0,a1
	.loc 1 151 5
	li	a2,0
	li	a3,0
	mv	a0,s2
.LVL120:
	mv	a1,s3
.LVL121:
	call	__eqdf2
.LVL122:
	bne	a0,zero,.L138
	.loc 1 153 3 is_stmt 1
	.loc 1 153 6 is_stmt 0
	beq	s0,zero,.L106
	.loc 1 153 10 is_stmt 1 discriminator 1
	.loc 1 153 14 is_stmt 0 discriminator 1
	li	a1,2
	mv	a0,s0
	call	ensure
.LVL123:
.L141:
	.loc 1 154 19
	mv	s0,a0
.LVL124:
	.loc 1 155 3 is_stmt 1
	.loc 1 155 6 is_stmt 0
	beq	a0,zero,.L103
	.loc 1 155 12 is_stmt 1 discriminator 1
	lui	a1,%hi(.LC0)
	addi	a1,a1,%lo(.LC0)
	call	strcpy
.LVL125:
.L103:
	.loc 1 175 1 is_stmt 0
	mv	a0,s0
	lw	ra,28(sp)
	.cfi_remember_state
	.cfi_restore 1
	lw	s0,24(sp)
	.cfi_restore 8
.LVL126:
	lw	s1,20(sp)
	.cfi_restore 9
	lw	s2,16(sp)
	.cfi_restore 18
.LVL127:
	lw	s3,12(sp)
	.cfi_restore 19
	lw	s4,8(sp)
	.cfi_restore 20
.LVL128:
	addi	sp,sp,32
	.cfi_def_cfa_offset 0
	jr	ra
.LVL129:
.L106:
	.cfi_restore_state
	.loc 1 154 8 is_stmt 1
	.loc 1 154 19 is_stmt 0
	lui	a5,%hi(.LANCHOR1)
	lw	a5,%lo(.LANCHOR1)(a5)
	li	a0,2
	jalr	a5
.LVL130:
	j	.L141
.L138:
	.loc 1 157 7 is_stmt 1
	.loc 1 157 17 is_stmt 0
	lw	a0,20(s4)
	.loc 1 157 10
	lui	s1,%hi(.LC1)
	.loc 1 157 17
	call	__floatsidf
.LVL131:
	.loc 1 157 11
	mv	a2,s2
	mv	a3,s3
	call	__subdf3
.LVL132:
	call	fabs
.LVL133:
	.loc 1 157 10
	lw	a2,%lo(.LC1)(s1)
	lw	a3,%lo(.LC1+4)(s1)
	call	__ledf2
.LVL134:
	bgt	a0,zero,.L109
	.loc 1 157 98 discriminator 1
	lui	a5,%hi(.LC2)
	lw	a2,%lo(.LC2)(a5)
	lw	a3,%lo(.LC2+4)(a5)
	mv	a0,s2
	mv	a1,s3
	call	__ledf2
.LVL135:
	bgt	a0,zero,.L109
	.loc 1 157 115 discriminator 2
	lui	a5,%hi(.LC3)
	lw	a2,%lo(.LC3)(a5)
	lw	a3,%lo(.LC3+4)(a5)
	mv	a0,s2
	mv	a1,s3
	call	__gedf2
.LVL136:
	blt	a0,zero,.L109
	.loc 1 159 3 is_stmt 1
	.loc 1 159 6 is_stmt 0
	beq	s0,zero,.L113
	.loc 1 159 10 is_stmt 1 discriminator 1
	.loc 1 159 14 is_stmt 0 discriminator 1
	li	a1,21
	mv	a0,s0
	call	ensure
.LVL137:
.L142:
	.loc 1 160 19
	mv	s0,a0
.LVL138:
	.loc 1 161 3 is_stmt 1
	.loc 1 161 6 is_stmt 0
	beq	a0,zero,.L103
	.loc 1 161 12 is_stmt 1 discriminator 1
	lw	a2,20(s4)
	lui	a1,%hi(.LC4)
	addi	a1,a1,%lo(.LC4)
	call	sprintf
.LVL139:
	j	.L103
.LVL140:
.L113:
	.loc 1 160 8
	.loc 1 160 19 is_stmt 0
	lui	a5,%hi(.LANCHOR1)
	lw	a5,%lo(.LANCHOR1)(a5)
	li	a0,21
	jalr	a5
.LVL141:
	j	.L142
.L109:
	.loc 1 165 3 is_stmt 1
	.loc 1 165 6 is_stmt 0
	beq	s0,zero,.L115
	.loc 1 165 10 is_stmt 1 discriminator 1
	.loc 1 165 14 is_stmt 0 discriminator 1
	li	a1,64
	mv	a0,s0
	call	ensure
.LVL142:
.L143:
	.loc 1 166 19
	mv	s0,a0
.LVL143:
	.loc 1 167 3 is_stmt 1
	.loc 1 167 6 is_stmt 0
	beq	a0,zero,.L103
	.loc 1 169 4 is_stmt 1
	.loc 1 169 13 is_stmt 0
	mv	a0,s2
	mv	a1,s3
	call	floor
.LVL144:
	.loc 1 169 8
	mv	a2,s2
	mv	a3,s3
	call	__subdf3
.LVL145:
	call	fabs
.LVL146:
	.loc 1 169 7
	lw	a2,%lo(.LC1)(s1)
	lw	a3,%lo(.LC1+4)(s1)
	call	__ledf2
.LVL147:
	bgt	a0,zero,.L117
	.loc 1 169 82 discriminator 1
	mv	a0,s2
	mv	a1,s3
	call	fabs
.LVL148:
	.loc 1 169 79 discriminator 1
	lui	a5,%hi(.LC5)
	lw	a2,%lo(.LC5)(a5)
	lw	a3,%lo(.LC5+4)(a5)
	call	__ltdf2
.LVL149:
	bge	a0,zero,.L117
	.loc 1 169 97 is_stmt 1 discriminator 2
	lui	a1,%hi(.LC6)
	mv	a2,s2
	mv	a3,s3
	addi	a1,a1,%lo(.LC6)
.L144:
	.loc 1 171 9 is_stmt 0
	mv	a0,s0
	call	sprintf
.LVL150:
	.loc 1 174 2 is_stmt 1
	.loc 1 174 9 is_stmt 0
	j	.L103
.LVL151:
.L115:
	.loc 1 166 8 is_stmt 1
	.loc 1 166 19 is_stmt 0
	lui	a5,%hi(.LANCHOR1)
	lw	a5,%lo(.LANCHOR1)(a5)
	li	a0,64
	jalr	a5
.LVL152:
	j	.L143
.LVL153:
.L117:
	.loc 1 170 9 is_stmt 1
	.loc 1 170 13 is_stmt 0
	mv	a0,s2
	mv	a1,s3
	call	fabs
.LVL154:
	.loc 1 170 12
	lui	a5,%hi(.LC7)
	lw	a2,%lo(.LC7)(a5)
	lw	a3,%lo(.LC7+4)(a5)
	call	__ltdf2
.LVL155:
	bge	a0,zero,.L139
.L122:
	.loc 1 170 46 is_stmt 1
	lui	a1,%hi(.LC8)
	mv	a2,s2
	mv	a3,s3
	addi	a1,a1,%lo(.LC8)
	j	.L144
.L139:
	.loc 1 170 31 is_stmt 0 discriminator 2
	mv	a0,s2
	mv	a1,s3
	call	fabs
.LVL156:
	.loc 1 170 28 discriminator 2
	lui	a5,%hi(.LC9)
	lw	a2,%lo(.LC9)(a5)
	lw	a3,%lo(.LC9+4)(a5)
	call	__gtdf2
.LVL157:
	bgt	a0,zero,.L122
	.loc 1 171 9 is_stmt 1
	lui	a1,%hi(.LC10)
	mv	a2,s2
	mv	a3,s3
	addi	a1,a1,%lo(.LC10)
	j	.L144
	.cfi_endproc
.LFE14:
	.size	print_number, .-print_number
	.section	.text.print_string_ptr,"ax",@progbits
	.align	1
	.type	print_string_ptr, @function
print_string_ptr:
.LFB17:
	.loc 1 253 1
	.cfi_startproc
.LVL158:
	.loc 1 254 2
	.loc 1 254 18
	.loc 1 254 34
	.loc 1 254 51
	.loc 1 256 2
	.loc 1 253 1 is_stmt 0
	addi	sp,sp,-48
	.cfi_def_cfa_offset 48
	sw	s0,40(sp)
	sw	s1,36(sp)
	sw	s2,32(sp)
	.cfi_offset 8, -8
	.cfi_offset 9, -12
	.cfi_offset 18, -16
	mv	s1,a1
	mv	s2,a0
	.loc 1 256 2
	mv	s0,a0
	.loc 1 253 1
	sw	ra,44(sp)
	sw	s3,28(sp)
	sw	s4,24(sp)
	sw	s5,20(sp)
	sw	s6,16(sp)
	sw	s7,12(sp)
	sw	s8,8(sp)
	sw	s9,4(sp)
	sw	s10,0(sp)
	.cfi_offset 1, -4
	.cfi_offset 19, -20
	.cfi_offset 20, -24
	.cfi_offset 21, -28
	.cfi_offset 22, -32
	.cfi_offset 23, -36
	.cfi_offset 24, -40
	.cfi_offset 25, -44
	.cfi_offset 26, -48
	.loc 1 254 44
	li	a4,0
	.loc 1 256 84
	li	a1,30
.LVL159:
	.loc 1 256 53
	li	a0,34
.LVL160:
.L146:
	.loc 1 256 15 discriminator 10
	lbu	a5,0(s0)
	.loc 1 256 2 discriminator 10
	bne	a5,zero,.L148
	.loc 1 257 2 is_stmt 1
	.loc 1 257 5 is_stmt 0
	bne	a4,zero,.L149
	.loc 1 259 3 is_stmt 1
	.loc 1 259 6 is_stmt 0
	sub	s3,s0,s2
.LVL161:
	.loc 1 260 3 is_stmt 1
	addi	a1,s3,3
	.loc 1 260 6 is_stmt 0
	beq	s1,zero,.L150
	.loc 1 260 10 is_stmt 1 discriminator 1
	.loc 1 260 14 is_stmt 0 discriminator 1
	mv	a0,s1
	call	ensure
.LVL162:
.L190:
	.loc 1 261 19
	mv	s1,a0
.LVL163:
	.loc 1 262 3 is_stmt 1
	.loc 1 262 6 is_stmt 0
	beq	a0,zero,.L145
	.loc 1 263 3 is_stmt 1
.LVL164:
	.loc 1 263 12
	.loc 1 263 17 is_stmt 0
	addi	s0,a0,1
.LVL165:
	.loc 1 263 19
	li	s4,34
	sb	s4,0(a0)
	.loc 1 264 3 is_stmt 1
	mv	a1,s2
	mv	a0,s0
	.loc 1 265 12 is_stmt 0
	add	s0,s0,s3
	.loc 1 264 3
	call	strcpy
.LVL166:
	.loc 1 265 3 is_stmt 1
	.loc 1 265 12 is_stmt 0
	sb	s4,0(s0)
	.loc 1 266 3 is_stmt 1
.LVL167:
.L194:
	.loc 1 305 15
	.loc 1 305 22 is_stmt 0
	sb	zero,1(s0)
	.loc 1 306 2 is_stmt 1
	.loc 1 306 9 is_stmt 0
	j	.L145
.LVL168:
.L148:
	.loc 1 256 27 is_stmt 1 discriminator 11
	.loc 1 256 42 is_stmt 0 discriminator 11
	addi	a3,a5,-1
	.loc 1 256 84 discriminator 11
	andi	a3,a3,0xff
	li	a2,1
	bleu	a3,a1,.L147
	.loc 1 256 53 discriminator 3
	beq	a5,a0,.L147
	.loc 1 256 84 discriminator 5
	addi	a5,a5,-92
	seqz	a2,a5
.L147:
	.loc 1 256 31 discriminator 9
	or	a4,a4,a2
.LVL169:
	.loc 1 256 23 discriminator 9
	addi	s0,s0,1
.LVL170:
	j	.L146
.LVL171:
.L150:
	.loc 1 261 8 is_stmt 1
	.loc 1 261 19 is_stmt 0
	lui	a5,%hi(.LANCHOR1)
	lw	a5,%lo(.LANCHOR1)(a5)
	mv	a0,a1
	jalr	a5
.LVL172:
	j	.L190
.LVL173:
.L149:
	.loc 1 270 2 is_stmt 1
	.loc 1 270 5 is_stmt 0
	bne	s2,zero,.L178
	.loc 1 272 3 is_stmt 1
	.loc 1 272 6 is_stmt 0
	beq	s1,zero,.L154
	.loc 1 272 10 is_stmt 1 discriminator 1
	.loc 1 272 14 is_stmt 0 discriminator 1
	li	a1,3
	mv	a0,s1
	call	ensure
.LVL174:
.L191:
	.loc 1 273 19
	mv	s1,a0
.LVL175:
	.loc 1 274 3 is_stmt 1
	.loc 1 274 6 is_stmt 0
	beq	a0,zero,.L145
	.loc 1 275 3 is_stmt 1
	lui	a1,%hi(.LC11)
	addi	a1,a1,%lo(.LC11)
	call	strcpy
.LVL176:
	.loc 1 276 3
.L145:
	.loc 1 307 1 is_stmt 0
	lw	ra,44(sp)
	.cfi_remember_state
	.cfi_restore 1
	lw	s0,40(sp)
	.cfi_restore 8
	mv	a0,s1
	lw	s2,32(sp)
	.cfi_restore 18
	lw	s1,36(sp)
	.cfi_restore 9
.LVL177:
	lw	s3,28(sp)
	.cfi_restore 19
	lw	s4,24(sp)
	.cfi_restore 20
	lw	s5,20(sp)
	.cfi_restore 21
	lw	s6,16(sp)
	.cfi_restore 22
	lw	s7,12(sp)
	.cfi_restore 23
	lw	s8,8(sp)
	.cfi_restore 24
	lw	s9,4(sp)
	.cfi_restore 25
	lw	s10,0(sp)
	.cfi_restore 26
	addi	sp,sp,48
	.cfi_def_cfa_offset 0
	jr	ra
.LVL178:
.L154:
	.cfi_restore_state
	.loc 1 273 8 is_stmt 1
	.loc 1 273 19 is_stmt 0
	lui	a5,%hi(.LANCHOR1)
	lw	a5,%lo(.LANCHOR1)(a5)
	li	a0,3
	jalr	a5
.LVL179:
	j	.L191
.LVL180:
.L159:
	.loc 1 278 77 is_stmt 1 discriminator 2
	.loc 1 278 80 is_stmt 0 discriminator 2
	addi	s0,s0,2
.LVL181:
.L156:
	.loc 1 278 110 is_stmt 1 discriminator 7
	.loc 1 278 113 is_stmt 0 discriminator 7
	addi	s3,s3,1
.LVL182:
.L153:
	.loc 1 278 23 discriminator 8
	lbu	s4,0(s3)
.LVL183:
	.loc 1 278 16 discriminator 8
	beq	s4,zero,.L158
.LVL184:
	.loc 1 278 41 is_stmt 1 discriminator 9
	.loc 1 278 45 is_stmt 0 discriminator 9
	mv	a1,s4
	addi	a0,s5,%lo(.LC12)
	call	strchr
.LVL185:
	.loc 1 278 44 discriminator 9
	bne	a0,zero,.L159
	.loc 1 278 89 is_stmt 1 discriminator 3
	.loc 1 278 92 is_stmt 0 discriminator 3
	bleu	s4,s6,.L157
	.loc 1 278 30
	addi	s0,s0,1
.LVL186:
	j	.L156
.LVL187:
.L157:
	.loc 1 278 103 is_stmt 1 discriminator 5
	.loc 1 278 106 is_stmt 0 discriminator 5
	addi	s0,s0,6
.LVL188:
	j	.L156
.LVL189:
.L178:
	mv	s3,s2
	.loc 1 254 38
	li	s0,0
.LVL190:
	.loc 1 278 45
	lui	s5,%hi(.LC12)
	.loc 1 278 92
	li	s6,31
	j	.L153
.LVL191:
.L158:
	.loc 1 280 2 is_stmt 1
	addi	a1,s0,3
	.loc 1 280 5 is_stmt 0
	beq	s1,zero,.L161
	.loc 1 280 9 is_stmt 1 discriminator 1
	.loc 1 280 13 is_stmt 0 discriminator 1
	mv	a0,s1
	call	ensure
.LVL192:
.L192:
	.loc 1 281 18
	mv	s1,a0
.LVL193:
	.loc 1 282 2 is_stmt 1
	.loc 1 282 5 is_stmt 0
	beq	a0,zero,.L145
	.loc 1 284 2 is_stmt 1
.LVL194:
	.loc 1 284 11
	.loc 1 285 2
	.loc 1 285 9 is_stmt 0
	li	a5,34
	.loc 1 285 7
	addi	s0,a0,1
.LVL195:
	.loc 1 285 9
	sb	a5,0(a0)
	.loc 1 286 2 is_stmt 1
	.loc 1 288 6 is_stmt 0
	li	s6,31
	.loc 1 291 11
	li	s3,92
	.loc 1 292 4
	li	s5,12
	.loc 1 297 23
	li	s7,102
	.loc 1 301 14
	lui	s8,%hi(.LC13)
	.loc 1 292 4
	li	s4,34
.LVL196:
	li	s9,13
	.loc 1 299 23
	li	s10,114
.LVL197:
.L163:
	.loc 1 286 9
	lbu	a5,0(s2)
	.loc 1 286 8
	bne	a5,zero,.L175
	.loc 1 305 2 is_stmt 1
.LVL198:
	.loc 1 305 9 is_stmt 0
	li	a5,34
	sb	a5,0(s0)
	j	.L194
.LVL199:
.L161:
	.loc 1 281 7 is_stmt 1
	.loc 1 281 18 is_stmt 0
	lui	a5,%hi(.LANCHOR1)
	lw	a5,%lo(.LANCHOR1)(a5)
	mv	a0,a1
	jalr	a5
.LVL200:
	j	.L192
.LVL201:
.L175:
	.loc 1 288 3 is_stmt 1
	addi	a0,s0,1
	addi	s2,s2,1
.LVL202:
	.loc 1 288 6 is_stmt 0
	bleu	a5,s6,.L164
	.loc 1 288 30 discriminator 1
	beq	a5,s4,.L164
	.loc 1 288 44 discriminator 2
	beq	a5,s3,.L164
	.loc 1 288 59 is_stmt 1 discriminator 3
.LVL203:
	.loc 1 288 66 is_stmt 0 discriminator 3
	sb	a5,0(s0)
.LVL204:
.L165:
	.loc 1 254 38
	mv	s0,a0
	j	.L163
.LVL205:
.L164:
	.loc 1 291 4 is_stmt 1
	.loc 1 291 11 is_stmt 0
	sb	s3,0(s0)
	.loc 1 292 4 is_stmt 1
.LVL206:
	.loc 1 292 17 is_stmt 0
	lbu	a2,-1(s2)
.LVL207:
	.loc 1 292 4
	beq	a2,s5,.L166
	bgtu	a2,s5,.L167
	li	a5,9
	beq	a2,a5,.L168
	li	a5,10
	beq	a2,a5,.L169
	li	a5,8
	bne	a2,a5,.L171
	.loc 1 296 16 is_stmt 1
	.loc 1 296 21 is_stmt 0
	addi	a0,s0,2
.LVL208:
	.loc 1 296 23
	li	a5,98
.L193:
	.loc 1 300 23
	sb	a5,1(s0)
	.loc 1 300 29 is_stmt 1
	.loc 1 300 5 is_stmt 0
	j	.L165
.LVL209:
.L167:
	.loc 1 292 4
	beq	a2,s4,.L172
	beq	a2,s3,.L173
	bne	a2,s9,.L171
	.loc 1 299 16 is_stmt 1
	.loc 1 299 21 is_stmt 0
	addi	a0,s0,2
.LVL210:
	.loc 1 299 23
	sb	s10,1(s0)
	.loc 1 299 29 is_stmt 1
	.loc 1 299 5 is_stmt 0
	j	.L165
.LVL211:
.L173:
	.loc 1 294 16 is_stmt 1
	.loc 1 294 21 is_stmt 0
	addi	a0,s0,2
.LVL212:
	.loc 1 294 23
	sb	s3,1(s0)
	.loc 1 294 30 is_stmt 1
	.loc 1 294 5 is_stmt 0
	j	.L165
.LVL213:
.L172:
	.loc 1 295 16 is_stmt 1
	.loc 1 295 21 is_stmt 0
	addi	a0,s0,2
.LVL214:
	.loc 1 295 23
	sb	s4,1(s0)
	.loc 1 295 30 is_stmt 1
	.loc 1 295 5 is_stmt 0
	j	.L165
.LVL215:
.L166:
	.loc 1 297 16 is_stmt 1
	.loc 1 297 21 is_stmt 0
	addi	a0,s0,2
.LVL216:
	.loc 1 297 23
	sb	s7,1(s0)
	.loc 1 297 29 is_stmt 1
	.loc 1 297 5 is_stmt 0
	j	.L165
.LVL217:
.L169:
	.loc 1 298 16 is_stmt 1
	.loc 1 298 21 is_stmt 0
	addi	a0,s0,2
.LVL218:
	.loc 1 298 23
	li	a5,110
	j	.L193
.LVL219:
.L168:
	.loc 1 300 16 is_stmt 1
	.loc 1 300 21 is_stmt 0
	addi	a0,s0,2
.LVL220:
	.loc 1 300 23
	li	a5,116
	j	.L193
.LVL221:
.L171:
	.loc 1 301 14 is_stmt 1
	addi	a1,s8,%lo(.LC13)
	call	sprintf
.LVL222:
	.loc 1 301 42
	.loc 1 301 46 is_stmt 0
	addi	a0,s0,6
.LVL223:
	.loc 1 301 51 is_stmt 1
	.loc 1 301 5 is_stmt 0
	j	.L165
	.cfi_endproc
.LFE17:
	.size	print_string_ptr, .-print_string_ptr
	.section	.text.cJSON_strcasecmp,"ax",@progbits
	.align	1
	.type	cJSON_strcasecmp, @function
cJSON_strcasecmp:
.LFB5:
	.loc 1 40 1 is_stmt 1
	.cfi_startproc
.LVL224:
	.loc 1 41 2
	.loc 1 41 28 is_stmt 0
	snez	a5,a1
	.loc 1 41 5
	beq	a0,zero,.L195
	.loc 1 41 31 is_stmt 1 discriminator 2
	.loc 1 41 47 is_stmt 0 discriminator 2
	li	a5,1
	.loc 1 41 34 discriminator 2
	beq	a1,zero,.L195
.LBB34:
.LBB35:
.LBB36:
	.loc 1 42 40
	lui	a2,%hi(_ctype_+1)
	addi	a2,a2,%lo(_ctype_+1)
	.loc 1 42 92
	li	a7,1
.LVL225:
.L198:
	.loc 1 42 24 is_stmt 1
	.loc 1 42 9 is_stmt 0
	lbu	a3,0(a0)
.LVL226:
	.loc 1 42 10 is_stmt 1
	.loc 1 42 40 is_stmt 0
	add	a4,a3,a2
	.loc 1 42 92
	lbu	a4,0(a4)
	mv	a5,a3
	andi	a4,a4,3
	bne	a4,a7,.L199
	addi	a5,a3,32
.L199:
.LBE36:
.LBB37:
	.loc 1 42 40 is_stmt 1
	.loc 1 42 25 is_stmt 0
	lbu	a4,0(a1)
.LVL227:
	.loc 1 42 26 is_stmt 1
	.loc 1 42 56 is_stmt 0
	add	a6,a2,a4
	.loc 1 42 108
	lbu	a6,0(a6)
	andi	a6,a6,3
	bne	a6,a7,.L200
	addi	a4,a4,32
.LVL228:
.L200:
.LBE37:
	.loc 1 42 2
	beq	a5,a4,.L201
	.loc 1 43 2 is_stmt 1
.LBE35:
.LBE34:
	.loc 1 43 25
.LVL229:
	.loc 1 43 11
	.loc 1 43 63
	.loc 1 43 49
.LBB40:
.LBB38:
	.loc 1 43 44 is_stmt 0
	sub	a5,a5,a4
.LVL230:
.L195:
.LBE38:
.LBE40:
	.loc 1 44 1
	mv	a0,a5
	ret
.LVL231:
.L201:
.LBB41:
.LBB39:
	.loc 1 42 49 is_stmt 1
	.loc 1 42 51 is_stmt 0
	beq	a3,zero,.L203
	.loc 1 42 37
	addi	a0,a0,1
.LVL232:
	.loc 1 42 43
	addi	a1,a1,1
.LVL233:
	j	.L198
.LVL234:
.L203:
	.loc 1 42 69
	li	a5,0
	j	.L195
.LBE39:
.LBE41:
	.cfi_endproc
.LFE5:
	.size	cJSON_strcasecmp, .-cJSON_strcasecmp
	.globl	__muldf3
	.globl	__adddf3
	.globl	__fixdfsi
	.section	.text.parse_value,"ax",@progbits
	.align	1
	.type	parse_value, @function
parse_value:
.LFB25:
	.loc 1 358 1 is_stmt 1
	.cfi_startproc
.LVL235:
	.loc 1 359 2
	.loc 1 359 5 is_stmt 0
	bne	a1,zero,.L205
	.loc 1 359 21
	li	a0,0
.LVL236:
	.loc 1 369 1
	ret
.LVL237:
.L205:
	.loc 1 358 1
	addi	sp,sp,-80
	.cfi_def_cfa_offset 80
	sw	s0,72(sp)
	.cfi_offset 8, -8
	mv	s0,a1
	.loc 1 360 2 is_stmt 1
	.loc 1 360 7 is_stmt 0
	lui	a1,%hi(.LC16)
.LVL238:
	.loc 1 358 1
	sw	s1,68(sp)
	.loc 1 360 7
	li	a2,4
	.cfi_offset 9, -12
	mv	s1,a0
	addi	a1,a1,%lo(.LC16)
	mv	a0,s0
.LVL239:
	.loc 1 358 1
	sw	ra,76(sp)
	sw	s2,64(sp)
	sw	s3,60(sp)
	sw	s4,56(sp)
	sw	s5,52(sp)
	sw	s6,48(sp)
	sw	s7,44(sp)
	sw	s8,40(sp)
	sw	s9,36(sp)
	sw	s10,32(sp)
	sw	s11,28(sp)
	.cfi_offset 1, -4
	.cfi_offset 18, -16
	.cfi_offset 19, -20
	.cfi_offset 20, -24
	.cfi_offset 21, -28
	.cfi_offset 22, -32
	.cfi_offset 23, -36
	.cfi_offset 24, -40
	.cfi_offset 25, -44
	.cfi_offset 26, -48
	.cfi_offset 27, -52
	.loc 1 360 7
	call	strncmp
.LVL240:
	.loc 1 360 5
	bne	a0,zero,.L207
	.loc 1 360 34 is_stmt 1 discriminator 1
	.loc 1 360 44 is_stmt 0 discriminator 1
	li	a5,2
	sw	a5,12(s1)
	.loc 1 360 48 is_stmt 1 discriminator 1
.L282:
	.loc 1 362 66 discriminator 1
	.loc 1 362 78 is_stmt 0 discriminator 1
	addi	a0,s0,4
	j	.L204
.L207:
	.loc 1 361 2 is_stmt 1
	.loc 1 361 7 is_stmt 0
	lui	a1,%hi(.LC17)
	li	a2,5
	addi	a1,a1,%lo(.LC17)
	mv	a0,s0
	call	strncmp
.LVL241:
	.loc 1 361 5
	bne	a0,zero,.L208
	.loc 1 361 35 is_stmt 1 discriminator 1
	.loc 1 361 45 is_stmt 0 discriminator 1
	sw	zero,12(s1)
	.loc 1 361 49 is_stmt 1 discriminator 1
	.loc 1 361 61 is_stmt 0 discriminator 1
	addi	a0,s0,5
.LVL242:
.L204:
	.loc 1 369 1
	lw	ra,76(sp)
	.cfi_remember_state
	.cfi_restore 1
	lw	s0,72(sp)
	.cfi_restore 8
	lw	s1,68(sp)
	.cfi_restore 9
	lw	s2,64(sp)
	.cfi_restore 18
	lw	s3,60(sp)
	.cfi_restore 19
	lw	s4,56(sp)
	.cfi_restore 20
	lw	s5,52(sp)
	.cfi_restore 21
	lw	s6,48(sp)
	.cfi_restore 22
	lw	s7,44(sp)
	.cfi_restore 23
	lw	s8,40(sp)
	.cfi_restore 24
	lw	s9,36(sp)
	.cfi_restore 25
	lw	s10,32(sp)
	.cfi_restore 26
	lw	s11,28(sp)
	.cfi_restore 27
	addi	sp,sp,80
	.cfi_def_cfa_offset 0
	jr	ra
.LVL243:
.L208:
	.cfi_restore_state
	.loc 1 362 2 is_stmt 1
	.loc 1 362 7 is_stmt 0
	lui	a1,%hi(.LC18)
	li	a2,4
	addi	a1,a1,%lo(.LC18)
	mv	a0,s0
	call	strncmp
.LVL244:
	.loc 1 362 5
	bne	a0,zero,.L209
	.loc 1 362 34 is_stmt 1 discriminator 1
	.loc 1 362 44 is_stmt 0 discriminator 1
	li	a5,1
	sw	a5,12(s1)
	.loc 1 362 48 is_stmt 1 discriminator 1
	.loc 1 362 62 is_stmt 0 discriminator 1
	sw	a5,20(s1)
	j	.L282
.L209:
.LVL245:
.LBB52:
.LBB53:
	.loc 1 363 2 is_stmt 1
	.loc 1 363 6 is_stmt 0
	lbu	a5,0(s0)
	.loc 1 363 5
	li	a4,34
	bne	a5,a4,.L210
	.loc 1 363 22 is_stmt 1
	.loc 1 363 29 is_stmt 0
	mv	a1,s0
.LBE53:
.LBE52:
	.loc 1 369 1
	lw	s0,72(sp)
	.cfi_remember_state
	.cfi_restore 8
.LVL246:
	lw	ra,76(sp)
	.cfi_restore 1
	lw	s2,64(sp)
	.cfi_restore 18
	lw	s3,60(sp)
	.cfi_restore 19
	lw	s4,56(sp)
	.cfi_restore 20
	lw	s5,52(sp)
	.cfi_restore 21
	lw	s6,48(sp)
	.cfi_restore 22
	lw	s7,44(sp)
	.cfi_restore 23
	lw	s8,40(sp)
	.cfi_restore 24
	lw	s9,36(sp)
	.cfi_restore 25
	lw	s10,32(sp)
	.cfi_restore 26
	lw	s11,28(sp)
	.cfi_restore 27
.LBB78:
.LBB76:
	.loc 1 363 29
	mv	a0,s1
.LBE76:
.LBE78:
	.loc 1 369 1
	lw	s1,68(sp)
	.cfi_restore 9
.LVL247:
	addi	sp,sp,80
	.cfi_def_cfa_offset 0
.LBB79:
.LBB77:
	.loc 1 363 29
	tail	parse_string
.LVL248:
.L210:
	.cfi_restore_state
	.loc 1 364 2 is_stmt 1
	.loc 1 364 5 is_stmt 0
	li	a4,45
	beq	a5,a4,.L211
	.loc 1 364 34
	addi	a4,a5,-48
	.loc 1 364 18
	andi	a4,a4,0xff
	li	a3,9
	bgtu	a4,a3,.L275
.LBB54:
.LBB55:
	.loc 1 98 13
	lui	a5,%hi(.LC15)
	lw	s4,%lo(.LC15)(a5)
	lw	s5,%lo(.LC15+4)(a5)
	j	.L212
.L211:
.LBE55:
.LBE54:
	.loc 1 364 53 is_stmt 1
.LVL249:
.LBB58:
.LBB56:
	.loc 1 98 2
	.loc 1 98 28
	.loc 1 100 2
	.loc 1 100 17
	.loc 1 100 21 is_stmt 0
	lui	a5,%hi(.LC14)
	lw	s4,%lo(.LC14)(a5)
	lw	s5,%lo(.LC14+4)(a5)
	.loc 1 100 28
	addi	s0,s0,1
.LVL250:
.L212:
	.loc 1 101 2 is_stmt 1
	.loc 1 101 5 is_stmt 0
	lbu	a4,0(s0)
	li	a5,48
	bne	a4,a5,.L214
	.loc 1 101 17 is_stmt 1
	.loc 1 101 20 is_stmt 0
	addi	s0,s0,1
.LVL251:
.L214:
	.loc 1 102 2 is_stmt 1
	.loc 1 102 16 is_stmt 0
	lbu	a5,0(s0)
	.loc 1 102 5
	li	a4,8
	.loc 1 98 9
	li	s10,0
	.loc 1 102 16
	addi	a5,a5,-49
	.loc 1 102 5
	andi	a5,a5,0xff
	.loc 1 98 9
	li	s11,0
	.loc 1 102 5
	bgtu	a5,a4,.L215
	.loc 1 102 37
	lui	a5,%hi(.LC19)
	lw	s2,%lo(.LC19)(a5)
	lw	s3,%lo(.LC19+4)(a5)
	.loc 1 102 2
	li	s6,9
.L216:
.LVL252:
	.loc 1 102 30 is_stmt 1
	.loc 1 102 33
	.loc 1 102 37 is_stmt 0
	mv	a2,s2
	mv	a3,s3
	mv	a0,s10
	mv	a1,s11
	call	__muldf3
.LVL253:
	.loc 1 102 49
	addi	s0,s0,1
.LVL254:
	.loc 1 102 37
	sw	a0,8(sp)
	.loc 1 102 45
	lbu	a0,-1(s0)
	.loc 1 102 37
	sw	a1,12(sp)
	.loc 1 102 43
	addi	a0,a0,-48
	call	__floatsidf
.LVL255:
	.loc 1 102 34
	lw	a2,8(sp)
	lw	a3,12(sp)
	call	__adddf3
.LVL256:
	.loc 1 102 76
	lbu	a5,0(s0)
	.loc 1 102 34
	mv	s10,a0
.LVL257:
	mv	s11,a1
.LVL258:
	.loc 1 102 76
	addi	a5,a5,-48
	.loc 1 102 2
	andi	a5,a5,0xff
	bleu	a5,s6,.L216
.LVL259:
.L215:
	.loc 1 103 2 is_stmt 1
	.loc 1 103 5 is_stmt 0
	lbu	a4,0(s0)
	li	a5,46
	.loc 1 98 20
	li	s6,0
	li	s7,0
	.loc 1 103 5
	bne	a4,a5,.L217
	.loc 1 103 16
	lbu	a5,1(s0)
	li	a4,9
	addi	a5,a5,-48
	andi	a5,a5,0xff
	bgtu	a5,a4,.L217
	.loc 1 103 48 is_stmt 1
	.loc 1 103 62 is_stmt 0
	lui	a5,%hi(.LC19)
	lw	s8,%lo(.LC19)(a5)
	lw	s9,%lo(.LC19+4)(a5)
	.loc 1 103 88
	lui	a5,%hi(.LC15)
	lw	s2,%lo(.LC15)(a5)
	lw	s3,%lo(.LC15+4)(a5)
	.loc 1 103 51
	addi	s0,s0,1
.LVL260:
.L218:
	.loc 1 103 55 is_stmt 1
	.loc 1 103 58
	.loc 1 103 62 is_stmt 0
	mv	a2,s8
	mv	a3,s9
	mv	a0,s10
	mv	a1,s11
	call	__muldf3
.LVL261:
	.loc 1 103 74
	addi	s0,s0,1
.LVL262:
	.loc 1 103 62
	sw	a0,8(sp)
	.loc 1 103 70
	lbu	a0,-1(s0)
	.loc 1 103 62
	sw	a1,12(sp)
	.loc 1 103 68
	addi	a0,a0,-48
	call	__floatsidf
.LVL263:
	.loc 1 103 59
	lw	a2,8(sp)
	lw	a3,12(sp)
	call	__adddf3
.LVL264:
	mv	s10,a0
.LVL265:
	mv	s11,a1
.LVL266:
	.loc 1 103 88
	mv	a0,s6
	mv	a1,s7
	mv	a2,s2
	mv	a3,s3
	call	__subdf3
.LVL267:
	.loc 1 103 109
	lbu	a5,0(s0)
	.loc 1 103 2
	li	a4,9
	.loc 1 103 88
	mv	s6,a0
.LVL268:
	.loc 1 103 109
	addi	a5,a5,-48
	.loc 1 103 2
	andi	a5,a5,0xff
	.loc 1 103 88
	mv	s7,a1
.LVL269:
	.loc 1 103 2
	bleu	a5,a4,.L218
.LVL270:
.L217:
	.loc 1 104 2 is_stmt 1
	.loc 1 104 16 is_stmt 0
	lbu	a5,0(s0)
	li	a4,69
	andi	a5,a5,223
	bne	a5,a4,.L242
	.loc 1 105 4 is_stmt 1
.LVL271:
	.loc 1 105 10
	.loc 1 105 14 is_stmt 0
	lbu	a5,1(s0)
	.loc 1 105 13
	li	a4,43
	bne	a5,a4,.L220
	.loc 1 105 25 is_stmt 1
	.loc 1 105 28 is_stmt 0
	addi	s0,s0,2
.LVL272:
.L279:
	.loc 1 98 43
	li	s3,1
	j	.L221
.LVL273:
.L220:
	.loc 1 105 37 is_stmt 1
	.loc 1 105 40 is_stmt 0
	li	a4,45
	bne	a5,a4,.L222
	.loc 1 105 52 is_stmt 1
.LVL274:
	.loc 1 105 71 is_stmt 0
	addi	s0,s0,2
.LVL275:
	.loc 1 105 64
	li	s3,-1
.LVL276:
.L221:
	.loc 1 98 43
	li	s2,0
	.loc 1 106 9
	li	a4,9
	.loc 1 106 52
	li	a2,10
	j	.L223
.LVL277:
.L224:
	.loc 1 106 34 is_stmt 1
	.loc 1 106 52 is_stmt 0
	mul	s2,s2,a2
.LVL278:
	.loc 1 106 62
	addi	s0,s0,1
.LVL279:
	.loc 1 106 42
	add	s2,a5,s2
.LVL280:
.L223:
	.loc 1 106 10
	lbu	a5,0(s0)
	.loc 1 106 20
	addi	a5,a5,-48
	.loc 1 106 9
	andi	a3,a5,0xff
	bleu	a3,a4,.L224
.LVL281:
.L219:
	.loc 1 109 2 is_stmt 1
	.loc 1 109 8 is_stmt 0
	mv	a2,s4
	mv	a3,s5
	mv	a0,s10
	mv	a1,s11
	call	__muldf3
.LVL282:
	mv	s4,a0
.LVL283:
	.loc 1 109 11
	mul	a0,s2,s3
	.loc 1 109 8
	mv	s5,a1
	.loc 1 109 11
	call	__floatsidf
.LVL284:
	mv	a2,s6
	mv	a3,s7
	call	__adddf3
.LVL285:
	lui	a5,%hi(.LC19)
	mv	a2,a0
	mv	a3,a1
	lw	a0,%lo(.LC19)(a5)
	lw	a1,%lo(.LC19+4)(a5)
	call	pow
.LVL286:
	.loc 1 109 3
	mv	a2,a0
	mv	a3,a1
	mv	a0,s4
	mv	a1,s5
	call	__muldf3
.LVL287:
	.loc 1 111 2 is_stmt 1
	.loc 1 111 19 is_stmt 0
	sw	a0,24(s1)
	sw	a1,28(s1)
	.loc 1 112 2 is_stmt 1
	.loc 1 112 17 is_stmt 0
	call	__fixdfsi
.LVL288:
	.loc 1 113 12
	li	a5,3
	.loc 1 112 17
	sw	a0,20(s1)
	.loc 1 113 2 is_stmt 1
	.loc 1 113 12 is_stmt 0
	sw	a5,12(s1)
	.loc 1 114 2 is_stmt 1
.LVL289:
.LBE56:
.LBE58:
	.loc 1 364 60 is_stmt 0
	mv	a0,s0
	j	.L204
.LVL290:
.L222:
.LBB59:
.LBB57:
	.loc 1 105 7
	addi	s0,s0,1
.LVL291:
	j	.L279
.L242:
	.loc 1 98 43
	li	s3,1
	.loc 1 98 32
	li	s2,0
	j	.L219
.LVL292:
.L275:
.LBE57:
.LBE59:
	.loc 1 365 2 is_stmt 1
	.loc 1 365 5 is_stmt 0
	li	a4,91
	bne	a5,a4,.L225
	.loc 1 365 21 is_stmt 1
.LVL293:
.LBB60:
.LBB61:
	.loc 1 408 2
	.loc 1 409 2
	.loc 1 411 2
	.loc 1 411 12 is_stmt 0
	li	a5,5
	sw	a5,12(s1)
	.loc 1 412 2 is_stmt 1
	.loc 1 412 8 is_stmt 0
	addi	a0,s0,1
	call	skip
.LVL294:
	.loc 1 413 5
	lbu	a4,0(a0)
	li	a5,93
	.loc 1 412 8
	mv	s0,a0
.LVL295:
	.loc 1 413 2 is_stmt 1
	.loc 1 413 5 is_stmt 0
	bne	a4,a5,.L226
.LVL296:
.L281:
.LBE61:
.LBE60:
.LBB65:
.LBB66:
	.loc 1 545 19 is_stmt 1
	.loc 1 545 31 is_stmt 0
	addi	a0,s0,1
	j	.L204
.LVL297:
.L226:
.LBE66:
.LBE65:
.LBB72:
.LBB63:
	.loc 1 415 2 is_stmt 1
	.loc 1 415 20 is_stmt 0
	call	cJSON_New_Item
.LVL298:
	.loc 1 415 13
	sw	a0,8(s1)
	.loc 1 415 20
	mv	s2,a0
.LVL299:
	.loc 1 416 2 is_stmt 1
	.loc 1 416 5 is_stmt 0
	beq	a0,zero,.L280
	.loc 1 417 2 is_stmt 1
	.loc 1 417 8 is_stmt 0
	mv	a0,s0
.LVL300:
	call	skip
.LVL301:
	mv	a1,a0
	mv	a0,s2
	call	parse_value
.LVL302:
	call	skip
.LVL303:
	mv	s0,a0
.LVL304:
	.loc 1 418 2 is_stmt 1
	.loc 1 420 8 is_stmt 0
	li	s3,44
	.loc 1 418 5
	bne	a0,zero,.L228
.LVL305:
.L280:
.LBE63:
.LBE72:
	.loc 1 368 11 is_stmt 1
	.loc 1 368 18 is_stmt 0
	li	a0,0
	j	.L204
.LVL306:
.L229:
.LBB73:
.LBB64:
.LBB62:
	.loc 1 422 3 is_stmt 1
	.loc 1 423 3
	.loc 1 423 18 is_stmt 0
	call	cJSON_New_Item
.LVL307:
	mv	s1,a0
.LVL308:
	.loc 1 423 6
	beq	a0,zero,.L280
	.loc 1 424 3 is_stmt 1
	.loc 1 424 14 is_stmt 0
	sw	a0,0(s2)
	.loc 1 424 24 is_stmt 1
	.loc 1 424 38 is_stmt 0
	sw	s2,4(a0)
	.loc 1 424 45 is_stmt 1
.LVL309:
	.loc 1 425 3
	.loc 1 425 9 is_stmt 0
	addi	a0,s0,1
	call	skip
.LVL310:
	mv	a1,a0
	mv	a0,s1
	call	parse_value
.LVL311:
	call	skip
.LVL312:
	mv	s0,a0
.LVL313:
	.loc 1 426 3 is_stmt 1
	mv	s2,s1
	.loc 1 426 6 is_stmt 0
	beq	a0,zero,.L280
.LVL314:
.L228:
.LBE62:
	.loc 1 420 9
	lbu	a5,0(s0)
	.loc 1 420 8
	beq	a5,s3,.L229
	.loc 1 429 2 is_stmt 1
	.loc 1 429 5 is_stmt 0
	li	a4,93
.LVL315:
.L284:
.LBE64:
.LBE73:
.LBB74:
.LBB70:
	.loc 1 545 5
	beq	a5,a4,.L281
.L231:
.LBE70:
.LBE74:
	.loc 1 368 2 is_stmt 1
	.loc 1 368 4 is_stmt 0
	lui	a5,%hi(.LANCHOR0)
	sw	s0,%lo(.LANCHOR0)(a5)
	j	.L280
.LVL316:
.L225:
	.loc 1 366 2 is_stmt 1
	.loc 1 366 5 is_stmt 0
	li	a4,123
	bne	a5,a4,.L231
	.loc 1 366 21 is_stmt 1
.LVL317:
.LBB75:
.LBB71:
	.loc 1 516 2
	.loc 1 517 2
	.loc 1 519 2
	.loc 1 519 12 is_stmt 0
	li	a5,6
	sw	a5,12(s1)
	.loc 1 520 2 is_stmt 1
	.loc 1 520 8 is_stmt 0
	addi	a0,s0,1
	call	skip
.LVL318:
	.loc 1 521 5
	lbu	a4,0(a0)
	li	a5,125
	.loc 1 520 8
	mv	s0,a0
.LVL319:
	.loc 1 521 2 is_stmt 1
	.loc 1 521 5 is_stmt 0
	beq	a4,a5,.L281
	.loc 1 523 2 is_stmt 1
	.loc 1 523 20 is_stmt 0
	call	cJSON_New_Item
.LVL320:
	.loc 1 523 13
	sw	a0,8(s1)
	.loc 1 523 20
	mv	s2,a0
.LVL321:
	.loc 1 524 2 is_stmt 1
	.loc 1 524 5 is_stmt 0
	beq	a0,zero,.L280
	.loc 1 525 2 is_stmt 1
	.loc 1 525 8 is_stmt 0
	mv	a0,s0
.LVL322:
	call	skip
.LVL323:
	mv	a1,a0
	mv	a0,s2
	call	parse_string
.LVL324:
	call	skip
.LVL325:
	.loc 1 526 2 is_stmt 1
	.loc 1 526 5 is_stmt 0
	beq	a0,zero,.L280
	.loc 1 527 2 is_stmt 1
	.loc 1 527 15 is_stmt 0
	lw	a5,16(s2)
	.loc 1 527 53
	sw	zero,16(s2)
	.loc 1 527 15
	sw	a5,32(s2)
	.loc 1 527 35 is_stmt 1
	.loc 1 528 2
	.loc 1 528 5 is_stmt 0
	lbu	a4,0(a0)
	li	a5,58
	beq	a4,a5,.L233
.LVL326:
.L285:
.LBB67:
	.loc 1 540 21 is_stmt 1
	.loc 1 540 23 is_stmt 0
	lui	a5,%hi(.LANCHOR0)
	sw	a0,%lo(.LANCHOR0)(a5)
	.loc 1 540 30 is_stmt 1
	j	.L280
.LVL327:
.L233:
.LBE67:
	.loc 1 529 2
	.loc 1 529 8 is_stmt 0
	addi	a0,a0,1
.LVL328:
	call	skip
.LVL329:
	mv	a1,a0
	mv	a0,s2
	call	parse_value
.LVL330:
	call	skip
.LVL331:
	mv	s0,a0
.LVL332:
	.loc 1 530 2 is_stmt 1
	.loc 1 530 5 is_stmt 0
	beq	a0,zero,.L280
	.loc 1 532 8
	li	s3,44
.LBB68:
	.loc 1 540 6
	li	s4,58
.LVL333:
.L234:
.LBE68:
	.loc 1 532 9
	lbu	a5,0(s0)
	.loc 1 532 8
	beq	a5,s3,.L236
	.loc 1 545 2 is_stmt 1
	.loc 1 545 5 is_stmt 0
	li	a4,125
	j	.L284
.L236:
.LBB69:
	.loc 1 534 3 is_stmt 1
	.loc 1 535 3
	.loc 1 535 18 is_stmt 0
	call	cJSON_New_Item
.LVL334:
	mv	s1,a0
.LVL335:
	.loc 1 535 6
	beq	a0,zero,.L280
	.loc 1 536 3 is_stmt 1
	.loc 1 536 14 is_stmt 0
	sw	a0,0(s2)
	.loc 1 536 24 is_stmt 1
	.loc 1 536 38 is_stmt 0
	sw	s2,4(a0)
	.loc 1 536 45 is_stmt 1
.LVL336:
	.loc 1 537 3
	.loc 1 537 9 is_stmt 0
	addi	a0,s0,1
	call	skip
.LVL337:
	mv	a1,a0
	mv	a0,s1
	call	parse_string
.LVL338:
	call	skip
.LVL339:
	.loc 1 538 3 is_stmt 1
	.loc 1 538 6 is_stmt 0
	beq	a0,zero,.L280
	.loc 1 539 3 is_stmt 1
	.loc 1 539 16 is_stmt 0
	lw	a5,16(s1)
	.loc 1 539 54
	sw	zero,16(s1)
	.loc 1 539 16
	sw	a5,32(s1)
	.loc 1 539 36 is_stmt 1
	.loc 1 540 3
	.loc 1 540 6 is_stmt 0
	lbu	a5,0(a0)
	bne	a5,s4,.L285
	.loc 1 541 3 is_stmt 1
	.loc 1 541 9 is_stmt 0
	addi	a0,a0,1
.LVL340:
	call	skip
.LVL341:
	mv	a1,a0
	mv	a0,s1
	call	parse_value
.LVL342:
	call	skip
.LVL343:
	mv	s0,a0
.LVL344:
	.loc 1 542 3 is_stmt 1
	mv	s2,s1
	.loc 1 542 6 is_stmt 0
	bne	a0,zero,.L234
	j	.L280
.LBE69:
.LBE71:
.LBE75:
.LBE77:
.LBE79:
	.cfi_endproc
.LFE25:
	.size	parse_value, .-parse_value
	.section	.text.print_array.isra.4,"ax",@progbits
	.align	1
	.type	print_array.isra.4, @function
print_array.isra.4:
.LFB66:
	.loc 1 434 14 is_stmt 1
	.cfi_startproc
.LVL345:
	.loc 1 436 2
	.loc 1 437 2
	.loc 1 437 24
	.loc 1 438 2
	.loc 1 434 14 is_stmt 0
	addi	sp,sp,-80
	.cfi_def_cfa_offset 80
	sw	s1,68(sp)
	sw	s2,64(sp)
	sw	s3,60(sp)
	sw	s5,52(sp)
	sw	s6,48(sp)
	sw	ra,76(sp)
	sw	s0,72(sp)
	sw	s4,56(sp)
	sw	s7,44(sp)
	sw	s8,40(sp)
	sw	s9,36(sp)
	sw	s10,32(sp)
	sw	s11,28(sp)
	.cfi_offset 9, -12
	.cfi_offset 18, -16
	.cfi_offset 19, -20
	.cfi_offset 21, -28
	.cfi_offset 22, -32
	.cfi_offset 1, -4
	.cfi_offset 8, -8
	.cfi_offset 20, -24
	.cfi_offset 23, -36
	.cfi_offset 24, -40
	.cfi_offset 25, -44
	.cfi_offset 26, -48
	.cfi_offset 27, -52
	.loc 1 438 9
	lw	s0,0(a0)
.LVL346:
	.loc 1 439 2 is_stmt 1
	.loc 1 440 2
	.loc 1 443 2
	.loc 1 434 14 is_stmt 0
	mv	s2,a0
	mv	s6,a1
	mv	s5,a2
	mv	s1,a3
	.loc 1 439 6
	li	s3,0
.LVL347:
.L287:
	.loc 1 443 8
	bne	s0,zero,.L288
	.loc 1 445 2 is_stmt 1
	.loc 1 445 5 is_stmt 0
	bne	s3,zero,.L289
	.loc 1 447 3 is_stmt 1
	.loc 1 447 6 is_stmt 0
	beq	s1,zero,.L290
	.loc 1 447 10 is_stmt 1
	.loc 1 447 14 is_stmt 0
	li	a1,3
.LVL348:
	mv	a0,s1
	call	ensure
.LVL349:
.L341:
	.loc 1 448 19
	mv	s0,a0
.LVL350:
	.loc 1 449 3 is_stmt 1
	.loc 1 449 6 is_stmt 0
	beq	a0,zero,.L286
	.loc 1 449 12 is_stmt 1
	lui	a1,%hi(.LC20)
	addi	a1,a1,%lo(.LC20)
	call	strcpy
.LVL351:
.L286:
	.loc 1 511 1 is_stmt 0
	mv	a0,s0
	lw	ra,76(sp)
	.cfi_remember_state
	.cfi_restore 1
	lw	s0,72(sp)
	.cfi_restore 8
	lw	s1,68(sp)
	.cfi_restore 9
	lw	s2,64(sp)
	.cfi_restore 18
	lw	s3,60(sp)
	.cfi_restore 19
	lw	s4,56(sp)
	.cfi_restore 20
	lw	s5,52(sp)
	.cfi_restore 21
.LVL352:
	lw	s6,48(sp)
	.cfi_restore 22
	lw	s7,44(sp)
	.cfi_restore 23
	lw	s8,40(sp)
	.cfi_restore 24
	lw	s9,36(sp)
	.cfi_restore 25
	lw	s10,32(sp)
	.cfi_restore 26
	lw	s11,28(sp)
	.cfi_restore 27
	addi	sp,sp,80
	.cfi_def_cfa_offset 0
	jr	ra
.LVL353:
.L288:
	.cfi_restore_state
	.loc 1 443 16 is_stmt 1
	.loc 1 443 26 is_stmt 0
	addi	s3,s3,1
.LVL354:
	.loc 1 443 34
	lw	s0,0(s0)
.LVL355:
	j	.L287
.L290:
	.loc 1 448 8 is_stmt 1
	.loc 1 448 19 is_stmt 0
	lui	a5,%hi(.LANCHOR1)
	lw	a5,%lo(.LANCHOR1)(a5)
	li	a0,3
	jalr	a5
.LVL356:
	j	.L341
.LVL357:
.L289:
	.loc 1 453 2 is_stmt 1
	.loc 1 453 5 is_stmt 0
	beq	s1,zero,.L293
	.loc 1 456 3 is_stmt 1
	.loc 1 457 7 is_stmt 0
	li	a1,1
.LVL358:
	mv	a0,s1
	.loc 1 456 4
	lw	s4,8(s1)
.LVL359:
	.loc 1 457 3 is_stmt 1
	.loc 1 457 7 is_stmt 0
	call	ensure
.LVL360:
	.loc 1 457 19 is_stmt 1
	.loc 1 457 22 is_stmt 0
	beq	a0,zero,.L286
	.loc 1 457 39 is_stmt 1
	.loc 1 457 43 is_stmt 0
	li	a5,91
	sb	a5,0(a0)
	.loc 1 457 49 is_stmt 1
	.loc 1 457 58 is_stmt 0
	lw	a5,8(s1)
	snez	s3,s5
.LVL361:
	addi	s3,s3,1
	addi	a5,a5,1
	sw	a5,8(s1)
	.loc 1 458 3 is_stmt 1
	.loc 1 458 8 is_stmt 0
	lw	s2,0(s2)
.LVL362:
	.loc 1 459 3 is_stmt 1
	.loc 1 463 38 is_stmt 0
	addi	s7,s3,1
	.loc 1 461 4
	addi	s6,s6,1
.LVL363:
	.loc 1 463 79
	li	s8,44
	.loc 1 463 97
	li	s9,32
.LVL364:
.L297:
	.loc 1 459 9
	bne	s2,zero,.L302
	.loc 1 466 3 is_stmt 1
	.loc 1 466 7 is_stmt 0
	li	a1,2
	mv	a0,s1
	call	ensure
.LVL365:
	.loc 1 466 19 is_stmt 1
	.loc 1 466 22 is_stmt 0
	beq	a0,zero,.L286
	.loc 1 466 39 is_stmt 1
.LVL366:
	.loc 1 466 45 is_stmt 0
	li	a5,93
	sb	a5,0(a0)
	.loc 1 466 50 is_stmt 1
	.loc 1 466 54 is_stmt 0
	sb	zero,1(a0)
	.loc 1 467 3 is_stmt 1
	.loc 1 467 6 is_stmt 0
	lw	s0,0(s1)
	add	s0,s0,s4
.LVL367:
	j	.L286
.LVL368:
.L302:
	.loc 1 461 4 is_stmt 1
	mv	a3,s1
	mv	a2,s5
	mv	a1,s6
	mv	a0,s2
	call	print_value
.LVL369:
	.loc 1 462 4
	.loc 1 462 14 is_stmt 0
	mv	a0,s1
	call	update
.LVL370:
	.loc 1 462 13
	sw	a0,8(s1)
	.loc 1 463 4 is_stmt 1
	.loc 1 463 7 is_stmt 0
	lw	a5,0(s2)
	beq	a5,zero,.L298
	.loc 1 463 22 is_stmt 1
.LVL371:
	.loc 1 463 34
	.loc 1 463 38 is_stmt 0
	mv	a1,s7
	mv	a0,s1
	call	ensure
.LVL372:
	.loc 1 463 54 is_stmt 1
	.loc 1 463 57 is_stmt 0
	beq	a0,zero,.L286
	.loc 1 463 73 is_stmt 1
.LVL373:
	.loc 1 463 79 is_stmt 0
	sb	s8,0(a0)
	.loc 1 463 84 is_stmt 1
	.loc 1 463 77 is_stmt 0
	addi	a5,a0,1
.LVL374:
	.loc 1 463 86
	beq	s5,zero,.L301
	.loc 1 463 91 is_stmt 1
	.loc 1 463 95 is_stmt 0
	addi	a5,a0,2
.LVL375:
	.loc 1 463 97
	sb	s9,1(a0)
.LVL376:
.L301:
	.loc 1 463 102 is_stmt 1
	.loc 1 463 106 is_stmt 0
	sb	zero,0(a5)
	.loc 1 463 109 is_stmt 1
	.loc 1 463 118 is_stmt 0
	lw	a5,8(s1)
.LVL377:
	add	a5,a5,s3
	sw	a5,8(s1)
.LVL378:
.L298:
	.loc 1 464 4 is_stmt 1
	.loc 1 464 9 is_stmt 0
	lw	s2,0(s2)
.LVL379:
	j	.L297
.LVL380:
.L293:
	.loc 1 472 3 is_stmt 1
	.loc 1 472 19 is_stmt 0
	lui	s1,%hi(.LANCHOR1)
.LVL381:
	lw	a5,%lo(.LANCHOR1)(s1)
	slli	a2,s3,2
.LVL382:
	mv	a0,a2
	sw	a2,12(sp)
	jalr	a5
.LVL383:
	mv	s4,a0
.LVL384:
	.loc 1 473 3 is_stmt 1
	addi	s1,s1,%lo(.LANCHOR1)
	.loc 1 473 6 is_stmt 0
	beq	a0,zero,.L286
	.loc 1 474 3 is_stmt 1
	lw	a2,12(sp)
	li	a1,0
	.loc 1 481 38 is_stmt 0
	snez	s10,s5
	.loc 1 474 3
	call	memset
.LVL385:
	.loc 1 476 3 is_stmt 1
	mv	s7,s4
	.loc 1 476 8 is_stmt 0
	lw	s8,0(s2)
.LVL386:
	.loc 1 477 3 is_stmt 1
	.loc 1 476 8 is_stmt 0
	mv	s9,s4
	.loc 1 439 23
	li	s2,0
	.loc 1 437 28
	li	s0,5
	.loc 1 479 8
	addi	s6,s6,1
.LVL387:
	.loc 1 481 16
	addi	s10,s10,2
.LVL388:
.L303:
	.loc 1 477 9
	beq	s8,zero,.L305
	.loc 1 477 16
	beq	s2,zero,.L306
.LVL389:
.L308:
	.loc 1 437 28
	li	s0,0
	.loc 1 493 47
	lui	s1,%hi(.LANCHOR3)
.L307:
.LVL390:
	.loc 1 493 31 is_stmt 1
	.loc 1 493 42 is_stmt 0
	slli	a5,s0,2
	add	a5,s4,a5
	lw	a0,0(a5)
	.loc 1 493 34
	beq	a0,zero,.L310
	.loc 1 493 47 is_stmt 1
	lw	a5,%lo(.LANCHOR3)(s1)
	jalr	a5
.LVL391:
.L310:
	.loc 1 493 27 is_stmt 0
	addi	s0,s0,1
.LVL392:
	.loc 1 493 4
	bne	s3,s0,.L307
	.loc 1 494 4 is_stmt 1
	lui	a5,%hi(.LANCHOR3)
	lw	a5,%lo(.LANCHOR3)(a5)
	mv	a0,s4
	.loc 1 495 11 is_stmt 0
	li	s0,0
.LVL393:
	.loc 1 494 4
	jalr	a5
.LVL394:
	.loc 1 495 4 is_stmt 1
	j	.L286
.LVL395:
.L306:
	.loc 1 479 4
	.loc 1 479 8 is_stmt 0
	li	a3,0
	mv	a2,s5
	mv	a1,s6
	mv	a0,s8
	call	print_value
.LVL396:
	.loc 1 480 4 is_stmt 1
	.loc 1 480 16 is_stmt 0
	sw	a0,0(s9)
	.loc 1 481 4 is_stmt 1
	.loc 1 481 7 is_stmt 0
	beq	a0,zero,.L315
	.loc 1 481 13 is_stmt 1
	.loc 1 481 18 is_stmt 0
	call	strlen
.LVL397:
	.loc 1 481 16
	add	s0,s10,s0
.LVL398:
	add	s0,s0,a0
.LVL399:
.L304:
	.loc 1 482 4 is_stmt 1
	.loc 1 482 9 is_stmt 0
	lw	s8,0(s8)
.LVL400:
	addi	s9,s9,4
	j	.L303
.LVL401:
.L315:
	.loc 1 481 52
	li	s2,1
.LVL402:
	j	.L304
.LVL403:
.L305:
	.loc 1 486 3 is_stmt 1
	.loc 1 486 6 is_stmt 0
	bne	s2,zero,.L308
	.loc 1 486 14 is_stmt 1
	.loc 1 486 25 is_stmt 0
	lw	a5,0(s1)
	mv	a0,s0
	jalr	a5
.LVL404:
	mv	s0,a0
.LVL405:
	.loc 1 488 3 is_stmt 1
	.loc 1 488 6 is_stmt 0
	beq	a0,zero,.L308
.LVL406:
	.loc 1 491 3 is_stmt 1
	.loc 1 499 3
	.loc 1 499 7 is_stmt 0
	li	a5,91
	sb	a5,0(a0)
	.loc 1 500 3 is_stmt 1
	.loc 1 500 6 is_stmt 0
	addi	s1,a0,1
.LVL407:
	.loc 1 500 13 is_stmt 1
	.loc 1 500 17 is_stmt 0
	sb	zero,1(a0)
	.loc 1 501 3 is_stmt 1
.LVL408:
	.loc 1 504 21 is_stmt 0
	addi	s9,s3,-1
	.loc 1 504 32
	li	s10,44
	.loc 1 504 50
	li	s11,32
	.loc 1 505 4
	lui	s8,%hi(.LANCHOR3)
.LVL409:
.L314:
	.loc 1 503 4 is_stmt 1
	.loc 1 503 11 is_stmt 0
	lw	a0,0(s7)
	call	strlen
.LVL410:
	.loc 1 503 30
	lw	a1,0(s7)
	.loc 1 503 11
	mv	s6,a0
.LVL411:
	.loc 1 503 30 is_stmt 1
	mv	a2,a0
	mv	a0,s1
.LVL412:
	call	memcpy
.LVL413:
	.loc 1 503 60
	.loc 1 503 63 is_stmt 0
	add	s1,s1,s6
.LVL414:
	.loc 1 504 4 is_stmt 1
	.loc 1 504 7 is_stmt 0
	beq	s9,s2,.L311
	.loc 1 504 26 is_stmt 1
.LVL415:
	.loc 1 504 32 is_stmt 0
	sb	s10,0(s1)
	.loc 1 504 37 is_stmt 1
	.loc 1 504 39 is_stmt 0
	bne	s5,zero,.L312
	.loc 1 504 30
	addi	s1,s1,1
.LVL416:
.L313:
	.loc 1 504 55 is_stmt 1
	.loc 1 504 59 is_stmt 0
	sb	zero,0(s1)
.L311:
	.loc 1 505 4 is_stmt 1
	addi	s6,s8,%lo(.LANCHOR3)
.LVL417:
	lw	a0,0(s7)
	lw	a5,0(s6)
	.loc 1 501 26 is_stmt 0
	addi	s2,s2,1
.LVL418:
	addi	s7,s7,4
	.loc 1 505 4
	jalr	a5
.LVL419:
	.loc 1 501 3
	bne	s3,s2,.L314
	.loc 1 507 3 is_stmt 1
	lw	a5,0(s6)
	mv	a0,s4
	jalr	a5
.LVL420:
	.loc 1 508 3
	.loc 1 508 9 is_stmt 0
	li	a5,93
	sb	a5,0(s1)
	.loc 1 508 14 is_stmt 1
.LVL421:
	.loc 1 508 20 is_stmt 0
	sb	zero,1(s1)
	j	.L286
.LVL422:
.L312:
	.loc 1 504 44 is_stmt 1
	.loc 1 504 50 is_stmt 0
	sb	s11,1(s1)
	.loc 1 504 48
	addi	s1,s1,2
.LVL423:
	j	.L313
	.cfi_endproc
.LFE66:
	.size	print_array.isra.4, .-print_array.isra.4
	.section	.text.print_value,"ax",@progbits
	.align	1
	.type	print_value, @function
print_value:
.LFB26:
	.loc 1 373 1 is_stmt 1
	.cfi_startproc
.LVL424:
	.loc 1 374 2
	.loc 1 375 2
	.loc 1 373 1 is_stmt 0
	addi	sp,sp,-16
	.cfi_def_cfa_offset 16
	sw	s0,8(sp)
	sw	ra,12(sp)
	.cfi_offset 8, -8
	.cfi_offset 1, -4
	.loc 1 373 1
	mv	s0,a0
	.loc 1 375 5
	beq	a0,zero,.L343
	.loc 1 376 2 is_stmt 1
	lbu	a5,12(a0)
	.loc 1 378 3 is_stmt 0
	li	a4,6
	.loc 1 376 5
	beq	a3,zero,.L344
	.loc 1 378 3 is_stmt 1
	bgtu	a5,a4,.L362
	lui	a4,%hi(.L346)
	slli	a5,a5,2
	addi	a4,a4,%lo(.L346)
	add	a5,a5,a4
	lw	a5,0(a5)
	jr	a5
	.section	.rodata.print_value,"a",@progbits
	.align	2
	.align	2
.L346:
	.word	.L352
	.word	.L351
	.word	.L350
	.word	.L349
	.word	.L348
	.word	.L379
	.word	.L380
	.section	.text.print_value
.L350:
	.loc 1 380 13
	.loc 1 380 17 is_stmt 0
	li	a1,5
.LVL425:
	mv	a0,a3
.LVL426:
	call	ensure
.LVL427:
	mv	s0,a0
.LVL428:
	.loc 1 380 30 is_stmt 1
	.loc 1 380 33 is_stmt 0
	beq	a0,zero,.L343
	.loc 1 380 39 is_stmt 1 discriminator 1
	lui	a1,%hi(.LC16)
	addi	a1,a1,%lo(.LC16)
.L376:
	.loc 1 382 39 is_stmt 0 discriminator 1
	call	strcpy
.LVL429:
.L343:
	.loc 1 403 1
	mv	a0,s0
	lw	ra,12(sp)
	.cfi_remember_state
	.cfi_restore 1
	lw	s0,8(sp)
	.cfi_restore 8
	addi	sp,sp,16
	.cfi_def_cfa_offset 0
	jr	ra
.LVL430:
.L352:
	.cfi_restore_state
	.loc 1 381 13 is_stmt 1
	.loc 1 381 17 is_stmt 0
	li	a1,6
.LVL431:
	mv	a0,a3
	call	ensure
.LVL432:
	mv	s0,a0
.LVL433:
	.loc 1 381 30 is_stmt 1
	.loc 1 381 33 is_stmt 0
	beq	a0,zero,.L343
	.loc 1 381 39 is_stmt 1 discriminator 1
	lui	a1,%hi(.LC17)
	addi	a1,a1,%lo(.LC17)
	j	.L376
.LVL434:
.L351:
	.loc 1 382 13
	.loc 1 382 17 is_stmt 0
	li	a1,5
.LVL435:
	mv	a0,a3
	call	ensure
.LVL436:
	mv	s0,a0
.LVL437:
	.loc 1 382 30 is_stmt 1
	.loc 1 382 33 is_stmt 0
	beq	a0,zero,.L343
	.loc 1 382 39 is_stmt 1 discriminator 1
	lui	a1,%hi(.LC18)
	addi	a1,a1,%lo(.LC18)
	j	.L376
.LVL438:
.L349:
	.loc 1 383 12
	.loc 1 383 16 is_stmt 0
	mv	a1,a3
.LVL439:
.L377:
	.loc 1 396 16
	mv	a0,s0
	.loc 1 403 1
	lw	s0,8(sp)
	.cfi_remember_state
	.cfi_restore 8
.LVL440:
	lw	ra,12(sp)
	.cfi_restore 1
	addi	sp,sp,16
	.cfi_def_cfa_offset 0
	.loc 1 396 16
	tail	print_number
.LVL441:
.L348:
	.cfi_restore_state
	.loc 1 384 12 is_stmt 1
.LBB80:
.LBB81:
	.loc 1 309 56
	.loc 1 309 63 is_stmt 0
	mv	a1,a3
.LVL442:
.L378:
.LBE81:
.LBE80:
.LBB82:
.LBB83:
	lw	a0,16(s0)
.LBE83:
.LBE82:
	.loc 1 403 1
	lw	s0,8(sp)
	.cfi_remember_state
	.cfi_restore 8
.LVL443:
	lw	ra,12(sp)
	.cfi_restore 1
	addi	sp,sp,16
	.cfi_def_cfa_offset 0
.LBB86:
.LBB84:
	.loc 1 309 63
	tail	print_string_ptr
.LVL444:
.L344:
	.cfi_restore_state
.LBE84:
.LBE86:
	.loc 1 391 3 is_stmt 1
	bgtu	a5,a4,.L362
	lui	a4,%hi(.L354)
	slli	a5,a5,2
	addi	a4,a4,%lo(.L354)
	add	a5,a5,a4
	lw	a5,0(a5)
	jr	a5
	.section	.rodata.print_value
	.align	2
	.align	2
.L354:
	.word	.L360
	.word	.L359
	.word	.L358
	.word	.L357
	.word	.L356
	.word	.L355
	.word	.L353
	.section	.text.print_value
.L358:
	.loc 1 393 12
	.loc 1 393 16 is_stmt 0
	lui	a0,%hi(.LC16)
	addi	a0,a0,%lo(.LC16)
.L381:
	.loc 1 403 1
	lw	s0,8(sp)
	.cfi_remember_state
	.cfi_restore 8
.LVL445:
	lw	ra,12(sp)
	.cfi_restore 1
	addi	sp,sp,16
	.cfi_def_cfa_offset 0
	.loc 1 394 16
	tail	cJSON_strdup
.LVL446:
.L360:
	.cfi_restore_state
	.loc 1 394 12 is_stmt 1
	.loc 1 394 16 is_stmt 0
	lui	a0,%hi(.LC17)
	addi	a0,a0,%lo(.LC17)
	j	.L381
.L359:
	.loc 1 395 12 is_stmt 1
	.loc 1 395 16 is_stmt 0
	lui	a0,%hi(.LC18)
	addi	a0,a0,%lo(.LC18)
	j	.L381
.L357:
	.loc 1 396 12 is_stmt 1
	.loc 1 396 16 is_stmt 0
	li	a1,0
.LVL447:
	j	.L377
.LVL448:
.L356:
	.loc 1 397 12 is_stmt 1
.LBB87:
.LBB85:
	.loc 1 309 56
	.loc 1 309 63 is_stmt 0
	li	a1,0
.LVL449:
	j	.L378
.LVL450:
.L355:
.LBE85:
.LBE87:
	.loc 1 398 12 is_stmt 1
	.loc 1 398 16 is_stmt 0
	li	a3,0
.LVL451:
.L379:
	addi	a0,s0,8
	.loc 1 403 1
	lw	s0,8(sp)
	.cfi_remember_state
	.cfi_restore 8
.LVL452:
	lw	ra,12(sp)
	.cfi_restore 1
	addi	sp,sp,16
	.cfi_def_cfa_offset 0
	.loc 1 398 16
	tail	print_array.isra.4
.LVL453:
.L353:
	.cfi_restore_state
	.loc 1 399 12 is_stmt 1
	.loc 1 399 16 is_stmt 0
	li	a3,0
.LVL454:
.L380:
	addi	a0,s0,8
	.loc 1 403 1
	lw	s0,8(sp)
	.cfi_remember_state
	.cfi_restore 8
.LVL455:
	lw	ra,12(sp)
	.cfi_restore 1
	addi	sp,sp,16
	.cfi_def_cfa_offset 0
	.loc 1 399 16
	tail	print_object.isra.3
.LVL456:
.L362:
	.cfi_restore_state
	.loc 1 374 8
	li	s0,0
.LVL457:
	j	.L343
	.cfi_endproc
.LFE26:
	.size	print_value, .-print_value
	.section	.text.print_object.isra.3,"ax",@progbits
	.align	1
	.type	print_object.isra.3, @function
print_object.isra.3:
.LFB65:
	.loc 1 550 14 is_stmt 1
	.cfi_startproc
.LVL458:
	.loc 1 552 2
	.loc 1 553 2
	.loc 1 553 29
	.loc 1 554 2
	.loc 1 550 14 is_stmt 0
	addi	sp,sp,-96
	.cfi_def_cfa_offset 96
	sw	s0,88(sp)
	sw	s1,84(sp)
	sw	s2,80(sp)
	sw	s5,68(sp)
	sw	s6,64(sp)
	sw	ra,92(sp)
	sw	s3,76(sp)
	sw	s4,72(sp)
	sw	s7,60(sp)
	sw	s8,56(sp)
	sw	s9,52(sp)
	sw	s10,48(sp)
	sw	s11,44(sp)
	.cfi_offset 8, -8
	.cfi_offset 9, -12
	.cfi_offset 18, -16
	.cfi_offset 21, -28
	.cfi_offset 22, -32
	.cfi_offset 1, -4
	.cfi_offset 19, -20
	.cfi_offset 20, -24
	.cfi_offset 23, -36
	.cfi_offset 24, -40
	.cfi_offset 25, -44
	.cfi_offset 26, -48
	.cfi_offset 27, -52
	.loc 1 554 9
	lw	a5,0(a0)
.LVL459:
	.loc 1 555 2 is_stmt 1
	.loc 1 556 2
	.loc 1 558 2
	.loc 1 550 14 is_stmt 0
	mv	s6,a0
	mv	s1,a1
	mv	s0,a2
	mv	s2,a3
	.loc 1 555 6
	li	s5,0
.LVL460:
.L383:
	.loc 1 558 8
	bne	a5,zero,.L384
	.loc 1 560 2 is_stmt 1
	.loc 1 560 5 is_stmt 0
	bne	s5,zero,.L385
	.loc 1 562 3 is_stmt 1
	.loc 1 562 6 is_stmt 0
	beq	s2,zero,.L386
	.loc 1 562 10 is_stmt 1
	.loc 1 562 14 is_stmt 0
	li	a1,3
.LVL461:
	beq	s0,zero,.L387
	addi	a1,s1,4
.L387:
	mv	a0,s2
	call	ensure
.LVL462:
.L502:
	.loc 1 563 19
	mv	s10,a0
.LVL463:
	.loc 1 564 3 is_stmt 1
	.loc 1 564 6 is_stmt 0
	bne	a0,zero,.L390
.LVL464:
.L504:
	.loc 1 637 4 is_stmt 1
	.loc 1 637 11 is_stmt 0
	li	s10,0
	j	.L382
.LVL465:
.L384:
	.loc 1 558 16 is_stmt 1
	.loc 1 558 26 is_stmt 0
	addi	s5,s5,1
.LVL466:
	.loc 1 558 34
	lw	a5,0(a5)
.LVL467:
	j	.L383
.L386:
	.loc 1 563 8 is_stmt 1
	.loc 1 563 19 is_stmt 0
	lui	a5,%hi(.LANCHOR1)
.LVL468:
	lw	a5,%lo(.LANCHOR1)(a5)
	li	a0,3
	beq	s0,zero,.L389
	.loc 1 563 41
	addi	a0,s1,4
.L389:
	.loc 1 563 19
	jalr	a5
.LVL469:
	j	.L502
.LVL470:
.L390:
	.loc 1 565 3 is_stmt 1
	.loc 1 565 11
	.loc 1 565 17 is_stmt 0
	li	a5,123
	sb	a5,0(a0)
	.loc 1 566 3 is_stmt 1
	.loc 1 565 15 is_stmt 0
	addi	a5,a0,1
.LVL471:
	.loc 1 566 6
	beq	s0,zero,.L393
	.loc 1 566 13 is_stmt 1
	.loc 1 566 19 is_stmt 0
	li	a3,10
	sb	a3,1(a0)
	.loc 1 566 25
	li	a3,-2
	.loc 1 566 17
	addi	a5,a0,2
.LVL472:
	.loc 1 566 25 is_stmt 1
	.loc 1 566 41 is_stmt 0
	addi	s1,s1,-1
.LVL473:
	.loc 1 566 25
	sub	a3,a3,a0
	.loc 1 566 55
	li	a1,9
.LVL474:
.L394:
	.loc 1 566 25
	add	a2,a5,a3
	bgt	s1,a2,.L395
.LVL475:
.L393:
	.loc 1 567 3 is_stmt 1
	.loc 1 567 9 is_stmt 0
	li	a3,125
	sb	a3,0(a5)
	.loc 1 567 14 is_stmt 1
.LVL476:
	.loc 1 567 20 is_stmt 0
	sb	zero,1(a5)
	.loc 1 568 3 is_stmt 1
.LVL477:
.L382:
	.loc 1 658 1 is_stmt 0
	lw	ra,92(sp)
	.cfi_remember_state
	.cfi_restore 1
	lw	s0,88(sp)
	.cfi_restore 8
	mv	a0,s10
	lw	s1,84(sp)
	.cfi_restore 9
	lw	s2,80(sp)
	.cfi_restore 18
	lw	s3,76(sp)
	.cfi_restore 19
	lw	s4,72(sp)
	.cfi_restore 20
	lw	s5,68(sp)
	.cfi_restore 21
	lw	s6,64(sp)
	.cfi_restore 22
	lw	s7,60(sp)
	.cfi_restore 23
	lw	s8,56(sp)
	.cfi_restore 24
	lw	s9,52(sp)
	.cfi_restore 25
	lw	s10,48(sp)
	.cfi_restore 26
	lw	s11,44(sp)
	.cfi_restore 27
	addi	sp,sp,96
	.cfi_def_cfa_offset 0
	jr	ra
.LVL478:
.L395:
	.cfi_restore_state
	.loc 1 566 49 is_stmt 1
	.loc 1 566 53 is_stmt 0
	addi	a5,a5,1
.LVL479:
	.loc 1 566 55
	sb	a1,-1(a5)
.LVL480:
	j	.L394
.LVL481:
.L385:
	.loc 1 570 2 is_stmt 1
	.loc 1 570 5 is_stmt 0
	beq	s2,zero,.L396
	.loc 1 573 3 is_stmt 1
	.loc 1 574 12 is_stmt 0
	snez	s3,s0
	addi	s3,s3,1
	.loc 1 574 20
	addi	a1,s3,1
	mv	a0,s2
	.loc 1 573 4
	lw	s4,8(s2)
.LVL482:
	.loc 1 574 3 is_stmt 1
	.loc 1 574 16
	.loc 1 574 20 is_stmt 0
	call	ensure
.LVL483:
	.loc 1 574 37 is_stmt 1
	.loc 1 574 40 is_stmt 0
	beq	a0,zero,.L504
	.loc 1 575 3 is_stmt 1
.LVL484:
	.loc 1 575 9 is_stmt 0
	li	a5,123
	sb	a5,0(a0)
	.loc 1 575 15 is_stmt 1
	.loc 1 575 7 is_stmt 0
	addi	a5,a0,1
.LVL485:
	.loc 1 575 18
	beq	s0,zero,.L400
	.loc 1 575 24 is_stmt 1
	.loc 1 575 30 is_stmt 0
	li	a4,10
	.loc 1 575 28
	addi	a5,a0,2
.LVL486:
	.loc 1 575 30
	sb	a4,1(a0)
.LVL487:
.L400:
	.loc 1 575 37 is_stmt 1
	.loc 1 575 41 is_stmt 0
	sb	zero,0(a5)
	.loc 1 575 45 is_stmt 1
	.loc 1 575 54 is_stmt 0
	lw	a5,8(s2)
.LVL488:
	.loc 1 576 26
	addi	s5,s1,1
.LVL489:
	.loc 1 590 10
	li	s7,58
	.loc 1 575 54
	add	a5,a5,s3
	sw	a5,8(s2)
	.loc 1 576 3 is_stmt 1
	.loc 1 576 8 is_stmt 0
	lw	s11,0(s6)
.LVL490:
	.loc 1 576 21 is_stmt 1
	.loc 1 577 3
	.loc 1 596 14 is_stmt 0
	snez	s8,s0
	.loc 1 582 33
	li	s6,9
	.loc 1 598 27
	li	s9,44
	.loc 1 599 19
	li	s10,10
.LVL491:
.L401:
	.loc 1 577 9
	bne	s11,zero,.L408
	.loc 1 603 3 is_stmt 1
	.loc 1 603 7 is_stmt 0
	li	a1,2
	beq	s0,zero,.L409
	addi	a1,s1,2
.L409:
	mv	a0,s2
	call	ensure
.LVL492:
	.loc 1 603 34 is_stmt 1
	.loc 1 603 37 is_stmt 0
	beq	a0,zero,.L504
	.loc 1 604 3 is_stmt 1
	.loc 1 604 6 is_stmt 0
	bne	s0,zero,.L445
.LVL493:
.L411:
	.loc 1 605 3 is_stmt 1
	.loc 1 605 9 is_stmt 0
	li	a5,125
	sb	a5,0(a0)
	.loc 1 605 14 is_stmt 1
	.loc 1 605 18 is_stmt 0
	sb	zero,1(a0)
	.loc 1 606 3 is_stmt 1
	.loc 1 606 6 is_stmt 0
	lw	a4,0(s2)
	add	s10,a4,s4
.LVL494:
	j	.L382
.LVL495:
.L408:
	.loc 1 579 4 is_stmt 1
	.loc 1 579 7 is_stmt 0
	beq	s0,zero,.L402
	.loc 1 581 5 is_stmt 1
	.loc 1 581 9 is_stmt 0
	mv	a1,s5
	mv	a0,s2
	call	ensure
.LVL496:
	.loc 1 581 26 is_stmt 1
	.loc 1 581 29 is_stmt 0
	beq	a0,zero,.L504
	.loc 1 582 11
	li	a5,0
.LVL497:
.L403:
	.loc 1 582 5
	bgt	s5,a5,.L404
	.loc 1 583 5 is_stmt 1
	.loc 1 583 14 is_stmt 0
	lw	a5,8(s2)
.LVL498:
	add	a5,a5,s5
	sw	a5,8(s2)
.L402:
	.loc 1 585 4 is_stmt 1
	lw	a0,32(s11)
	mv	a1,s2
	call	print_string_ptr
.LVL499:
	.loc 1 586 4
	.loc 1 586 14 is_stmt 0
	mv	a0,s2
	call	update
.LVL500:
	.loc 1 586 13
	sw	a0,8(s2)
	.loc 1 588 4 is_stmt 1
.LVL501:
	.loc 1 589 4
	.loc 1 589 8 is_stmt 0
	mv	a1,s3
	mv	a0,s2
	call	ensure
.LVL502:
	.loc 1 589 23 is_stmt 1
	.loc 1 589 26 is_stmt 0
	beq	a0,zero,.L504
	.loc 1 590 4 is_stmt 1
.LVL503:
	.loc 1 590 10 is_stmt 0
	sb	s7,0(a0)
	.loc 1 590 15 is_stmt 1
	.loc 1 590 18 is_stmt 0
	beq	s0,zero,.L405
	.loc 1 590 24 is_stmt 1
.LVL504:
	.loc 1 590 30 is_stmt 0
	sb	s6,1(a0)
.LVL505:
.L405:
	.loc 1 591 4 is_stmt 1
	.loc 1 591 13 is_stmt 0
	lw	a5,8(s2)
	.loc 1 593 4
	mv	a1,s5
	mv	a3,s2
	.loc 1 591 13
	add	a5,a5,s3
	sw	a5,8(s2)
	.loc 1 593 4 is_stmt 1
	mv	a2,s0
	mv	a0,s11
	call	print_value
.LVL506:
	.loc 1 594 4
	.loc 1 594 14 is_stmt 0
	mv	a0,s2
	call	update
.LVL507:
	.loc 1 594 13
	sw	a0,8(s2)
	.loc 1 596 4 is_stmt 1
	.loc 1 596 32 is_stmt 0
	lw	a5,0(s11)
	.loc 1 597 8
	mv	a0,s2
	.loc 1 596 32
	snez	a5,a5
	.loc 1 596 7
	add	a5,a5,s8
.LVL508:
	.loc 1 597 4 is_stmt 1
	.loc 1 597 8 is_stmt 0
	addi	a1,a5,1
	sw	a5,8(sp)
	call	ensure
.LVL509:
	.loc 1 597 25 is_stmt 1
	.loc 1 597 28 is_stmt 0
	beq	a0,zero,.L504
	.loc 1 598 4 is_stmt 1
	.loc 1 598 7 is_stmt 0
	lw	a4,0(s11)
	lw	a5,8(sp)
	beq	a4,zero,.L406
	.loc 1 598 21 is_stmt 1
.LVL510:
	.loc 1 598 27 is_stmt 0
	sb	s9,0(a0)
	.loc 1 598 25
	addi	a0,a0,1
.LVL511:
.L406:
	.loc 1 599 4 is_stmt 1
	.loc 1 599 7 is_stmt 0
	beq	s0,zero,.L407
	.loc 1 599 13 is_stmt 1
.LVL512:
	.loc 1 599 19 is_stmt 0
	sb	s10,0(a0)
	.loc 1 599 17
	addi	a0,a0,1
.LVL513:
.L407:
	.loc 1 599 25 is_stmt 1
	.loc 1 599 29 is_stmt 0
	sb	zero,0(a0)
	.loc 1 600 4 is_stmt 1
	.loc 1 600 13 is_stmt 0
	lw	a4,8(s2)
	add	a5,a4,a5
	sw	a5,8(s2)
	.loc 1 601 4 is_stmt 1
	.loc 1 601 9 is_stmt 0
	lw	s11,0(s11)
.LVL514:
	j	.L401
.LVL515:
.L404:
	.loc 1 582 27 is_stmt 1
	.loc 1 582 33 is_stmt 0
	add	a4,a0,a5
	sb	s6,0(a4)
	.loc 1 582 23
	addi	a5,a5,1
.LVL516:
	j	.L403
.LVL517:
.L412:
	.loc 1 604 36 is_stmt 1
	.loc 1 604 42 is_stmt 0
	add	a3,a0,a5
	sb	a4,0(a3)
	.loc 1 604 32
	addi	a5,a5,1
.LVL518:
.L410:
	.loc 1 604 12
	bgt	s1,a5,.L412
	mv	s4,s1
	bge	s1,zero,.L413
	li	s4,0
.L413:
	add	a0,a0,s4
.LVL519:
	j	.L411
.LVL520:
.L445:
	.loc 1 604 18
	li	a5,0
	.loc 1 604 42
	li	a4,9
	j	.L410
.LVL521:
.L396:
	.loc 1 611 3 is_stmt 1
	.loc 1 611 19 is_stmt 0
	lui	s4,%hi(.LANCHOR1)
	addi	s3,s4,%lo(.LANCHOR1)
	lw	a5,0(s3)
.LVL522:
	slli	s8,s5,2
	mv	a0,s8
	jalr	a5
.LVL523:
	addi	a5,s4,%lo(.LANCHOR1)
	sw	a5,16(sp)
	mv	s2,a0
.LVL524:
	.loc 1 612 3 is_stmt 1
	.loc 1 612 6 is_stmt 0
	beq	a0,zero,.L504
	.loc 1 613 3 is_stmt 1
	.loc 1 613 17 is_stmt 0
	lw	a5,0(s3)
	mv	a0,s8
.LVL525:
	jalr	a5
.LVL526:
	mv	s4,a0
.LVL527:
	.loc 1 614 3 is_stmt 1
	.loc 1 614 6 is_stmt 0
	bne	a0,zero,.L414
	.loc 1 614 16 is_stmt 1
	lui	a5,%hi(.LANCHOR3)
	lw	a5,%lo(.LANCHOR3)(a5)
.LVL528:
.L503:
	.loc 1 636 22 is_stmt 0
	mv	a0,s2
	jalr	a5
.LVL529:
	j	.L504
.LVL530:
.L414:
	.loc 1 615 3 is_stmt 1
	mv	a2,s8
	li	a1,0
	mv	a0,s2
.LVL531:
	call	memset
.LVL532:
	.loc 1 616 3
	mv	a2,s8
	li	a1,0
	mv	a0,s4
	call	memset
.LVL533:
	.loc 1 619 3
	.loc 1 619 26 is_stmt 0
	addi	a5,s1,1
	sw	a5,12(sp)
	.loc 1 619 8
	lw	s10,0(s6)
.LVL534:
	.loc 1 619 21 is_stmt 1
	.loc 1 619 29
	.loc 1 619 32 is_stmt 0
	beq	s0,zero,.L446
	.loc 1 619 38 is_stmt 1
	.loc 1 619 41 is_stmt 0
	addi	s11,s1,8
.LVL535:
	.loc 1 624 57
	addi	s9,s1,3
.LVL536:
.L417:
	.loc 1 624 23
	addi	a5,s9,2
.LVL537:
	mv	s7,s4
	mv	s6,s2
	.loc 1 624 57
	mv	a6,s2
	sw	s4,8(sp)
	li	s3,0
	.loc 1 624 23
	sw	a5,20(sp)
.LVL538:
.L418:
	.loc 1 620 9
	bne	s10,zero,.L420
	.loc 1 629 3 is_stmt 1
	.loc 1 629 6 is_stmt 0
	beq	s3,zero,.L421
.LVL539:
.L423:
	.loc 1 624 57
	li	s0,0
.LVL540:
	.loc 1 635 46
	lui	s1,%hi(.LANCHOR3)
.L422:
	.loc 1 635 32 is_stmt 1
	.loc 1 635 41 is_stmt 0
	add	a5,s4,s0
	lw	a0,0(a5)
	.loc 1 635 35
	beq	a0,zero,.L425
	.loc 1 635 46 is_stmt 1
	lw	a5,%lo(.LANCHOR3)(s1)
	jalr	a5
.LVL541:
.L425:
	.loc 1 635 67
	.loc 1 635 78 is_stmt 0
	add	a5,s2,s0
	lw	a0,0(a5)
	.loc 1 635 70
	beq	a0,zero,.L426
	.loc 1 635 83 is_stmt 1
	lw	a5,%lo(.LANCHOR3)(s1)
	jalr	a5
.LVL542:
.L426:
	addi	s0,s0,4
	.loc 1 635 4 is_stmt 0
	bne	s8,s0,.L422
	.loc 1 636 4 is_stmt 1
	lui	s0,%hi(.LANCHOR3)
	addi	s0,s0,%lo(.LANCHOR3)
	lw	a5,0(s0)
	mv	a0,s4
	jalr	a5
.LVL543:
	.loc 1 636 22
	lw	a5,0(s0)
	j	.L503
.LVL544:
.L446:
	.loc 1 553 33 is_stmt 0
	li	s11,7
	li	s9,0
	j	.L417
.LVL545:
.L420:
	.loc 1 622 17
	lw	a0,32(s10)
	li	a1,0
	sw	a6,24(sp)
	.loc 1 622 4 is_stmt 1
	.loc 1 622 17 is_stmt 0
	call	print_string_ptr
.LVL546:
	.loc 1 622 12
	lw	a5,8(sp)
	.loc 1 623 21
	lw	a1,12(sp)
	.loc 1 622 17
	mv	s9,a0
.LVL547:
	.loc 1 622 12
	sw	a0,0(a5)
	.loc 1 623 4 is_stmt 1
	.loc 1 623 21 is_stmt 0
	li	a3,0
	mv	a2,s0
	mv	a0,s10
.LVL548:
	call	print_value
.LVL549:
	.loc 1 623 16
	lw	a6,24(sp)
	sw	a0,0(a6)
	.loc 1 624 4 is_stmt 1
	.loc 1 624 7 is_stmt 0
	beq	s9,zero,.L448
	.loc 1 624 12
	beq	a0,zero,.L448
	sw	a6,28(sp)
	.loc 1 624 20 is_stmt 1
	.loc 1 624 25 is_stmt 0
	call	strlen
.LVL550:
	sw	a0,24(sp)
	.loc 1 624 37
	mv	a0,s9
	call	strlen
.LVL551:
	.loc 1 624 23
	lw	a5,20(sp)
	lw	a3,24(sp)
	lw	a6,28(sp)
	add	a5,a5,s11
	add	a5,a5,a3
	add	s11,a5,a0
.LVL552:
.L419:
	.loc 1 625 4 is_stmt 1
	lw	a5,8(sp)
	.loc 1 625 9 is_stmt 0
	lw	s10,0(s10)
.LVL553:
	addi	a6,a6,4
	addi	a5,a5,4
	sw	a5,8(sp)
	j	.L418
.LVL554:
.L448:
	.loc 1 624 77
	li	s3,1
.LVL555:
	j	.L419
.LVL556:
.L421:
	.loc 1 629 14 is_stmt 1
	.loc 1 629 25 is_stmt 0
	lw	a5,16(sp)
	mv	a0,s11
	lw	a4,0(a5)
	jalr	a4
.LVL557:
	mv	s10,a0
.LVL558:
	.loc 1 630 3 is_stmt 1
	.loc 1 630 6 is_stmt 0
	beq	a0,zero,.L423
.LVL559:
	.loc 1 633 3 is_stmt 1
	.loc 1 641 3
	.loc 1 641 7 is_stmt 0
	li	a5,123
	sb	a5,0(a0)
	.loc 1 641 12 is_stmt 1
.LVL560:
	.loc 1 641 22
	.loc 1 641 15 is_stmt 0
	addi	s9,a0,1
.LVL561:
	.loc 1 641 25
	beq	s0,zero,.L428
	.loc 1 641 30 is_stmt 1
	.loc 1 641 36 is_stmt 0
	li	a3,10
	.loc 1 641 34
	addi	s9,a0,2
.LVL562:
	.loc 1 641 36
	sb	a3,1(a0)
.L428:
	.loc 1 641 42 is_stmt 1
	.loc 1 648 21 is_stmt 0
	addi	a5,s5,-1
	.loc 1 641 46
	sb	zero,0(s9)
	.loc 1 642 3 is_stmt 1
.LVL563:
	.loc 1 642 9 is_stmt 0
	li	s8,0
	.loc 1 648 21
	sw	a5,8(sp)
.LVL564:
.L436:
	.loc 1 644 4 is_stmt 1
	.loc 1 644 7 is_stmt 0
	beq	s0,zero,.L430
	.loc 1 644 19
	li	a3,0
	j	.L429
.LVL565:
.L431:
	.loc 1 644 35 is_stmt 1
	.loc 1 644 41 is_stmt 0
	li	a5,9
	sb	a5,0(a2)
	.loc 1 644 31
	addi	a3,a3,1
.LVL566:
.L429:
	.loc 1 644 13
	lw	a5,12(sp)
	add	a2,s9,a3
.LVL567:
	bgt	a5,a3,.L431
	mv	s9,a2
.LVL568:
.L430:
	.loc 1 645 4 is_stmt 1
	.loc 1 645 11 is_stmt 0
	lw	a0,0(s7)
	call	strlen
.LVL569:
	.loc 1 645 28
	lw	a1,0(s7)
	.loc 1 645 11
	mv	s11,a0
.LVL570:
	.loc 1 645 28 is_stmt 1
	mv	a2,a0
	mv	a0,s9
.LVL571:
	call	memcpy
.LVL572:
	.loc 1 645 56
	.loc 1 645 59 is_stmt 0
	add	a0,s9,s11
.LVL573:
	.loc 1 646 4 is_stmt 1
	.loc 1 646 10 is_stmt 0
	li	a5,58
	sb	a5,0(a0)
	.loc 1 646 15 is_stmt 1
	.loc 1 646 8 is_stmt 0
	addi	s9,a0,1
.LVL574:
	.loc 1 646 18
	beq	s0,zero,.L433
	.loc 1 646 24 is_stmt 1
	.loc 1 646 30 is_stmt 0
	li	a5,9
	.loc 1 646 28
	addi	s9,a0,2
.LVL575:
	.loc 1 646 30
	sb	a5,1(a0)
.LVL576:
.L433:
	.loc 1 647 4 is_stmt 1
	lw	a1,0(s6)
	mv	a0,s9
	call	strcpy
.LVL577:
	.loc 1 647 27
	.loc 1 647 32 is_stmt 0
	lw	a0,0(s6)
	call	strlen
.LVL578:
	.loc 1 648 7
	lw	a5,8(sp)
	.loc 1 647 30
	add	s9,s9,a0
.LVL579:
	.loc 1 648 4 is_stmt 1
	.loc 1 648 7 is_stmt 0
	beq	a5,s8,.L434
	.loc 1 648 25 is_stmt 1
.LVL580:
	.loc 1 648 31 is_stmt 0
	li	a5,44
	sb	a5,0(s9)
	.loc 1 648 29
	addi	s9,s9,1
.LVL581:
.L434:
	.loc 1 649 4 is_stmt 1
	.loc 1 649 7 is_stmt 0
	beq	s0,zero,.L435
	.loc 1 649 13 is_stmt 1
.LVL582:
	.loc 1 649 19 is_stmt 0
	li	a5,10
	sb	a5,0(s9)
	.loc 1 649 17
	addi	s9,s9,1
.LVL583:
.L435:
	.loc 1 649 25 is_stmt 1
	.loc 1 650 4 is_stmt 0
	lui	a5,%hi(.LANCHOR3)
	addi	s11,a5,%lo(.LANCHOR3)
.LVL584:
	.loc 1 649 29
	sb	zero,0(s9)
	.loc 1 650 4 is_stmt 1
	lw	a0,0(s7)
	lw	a2,0(s11)
	.loc 1 642 26 is_stmt 0
	addi	s8,s8,1
.LVL585:
	addi	s7,s7,4
	.loc 1 650 4
	jalr	a2
.LVL586:
	.loc 1 650 25 is_stmt 1
	lw	a0,0(s6)
	lw	a2,0(s11)
	addi	s6,s6,4
	jalr	a2
.LVL587:
	.loc 1 642 3 is_stmt 0
	bne	s5,s8,.L436
	.loc 1 653 3 is_stmt 1
	lw	a2,0(s11)
	mv	a0,s4
	jalr	a2
.LVL588:
	.loc 1 653 21
	lw	a3,0(s11)
	mv	a0,s2
	jalr	a3
.LVL589:
	.loc 1 654 3
	.loc 1 654 42 is_stmt 0
	li	a3,9
	.loc 1 654 6
	bne	s0,zero,.L437
.LVL590:
.L438:
	.loc 1 655 3 is_stmt 1
	.loc 1 655 9 is_stmt 0
	li	a3,125
	sb	a3,0(s9)
	.loc 1 655 14 is_stmt 1
.LVL591:
	.loc 1 655 20 is_stmt 0
	sb	zero,1(s9)
	j	.L382
.LVL592:
.L439:
	.loc 1 654 36 is_stmt 1
	.loc 1 654 42 is_stmt 0
	add	a2,s9,s3
	sb	a3,0(a2)
	.loc 1 654 32
	addi	s3,s3,1
.LVL593:
.L437:
	.loc 1 654 12
	bgt	s1,s3,.L439
	bge	s1,zero,.L440
	li	s1,0
.L440:
	add	s9,s9,s1
.LVL594:
	j	.L438
	.cfi_endproc
.LFE65:
	.size	print_object.isra.3, .-print_object.isra.3
	.section	.text.cJSON_GetErrorPtr,"ax",@progbits
	.align	1
	.globl	cJSON_GetErrorPtr
	.type	cJSON_GetErrorPtr, @function
cJSON_GetErrorPtr:
.LFB4:
	.loc 1 37 37 is_stmt 1
	.cfi_startproc
	.loc 1 37 38
	.loc 1 37 1 is_stmt 0
	lui	a5,%hi(.LANCHOR0)
	lw	a0,%lo(.LANCHOR0)(a5)
	ret
	.cfi_endproc
.LFE4:
	.size	cJSON_GetErrorPtr, .-cJSON_GetErrorPtr
	.section	.text.cJSON_InitHooks,"ax",@progbits
	.align	1
	.globl	cJSON_InitHooks
	.type	cJSON_InitHooks, @function
cJSON_InitHooks:
.LFB7:
	.loc 1 61 1 is_stmt 1
	.cfi_startproc
.LVL595:
	.loc 1 62 5
	lui	a3,%hi(.LANCHOR1)
	lui	a4,%hi(.LANCHOR3)
	addi	a3,a3,%lo(.LANCHOR1)
	addi	a4,a4,%lo(.LANCHOR3)
	.loc 1 62 8 is_stmt 0
	bne	a0,zero,.L507
	.loc 1 63 9 is_stmt 1
	.loc 1 63 22 is_stmt 0
	lui	a5,%hi(malloc)
	addi	a5,a5,%lo(malloc)
	sw	a5,0(a3)
	.loc 1 64 9 is_stmt 1
.L513:
	.loc 1 69 46 is_stmt 0
	lui	a5,%hi(free)
	addi	a5,a5,%lo(free)
	j	.L510
.L507:
	.loc 1 68 2 is_stmt 1
	.loc 1 68 23 is_stmt 0
	lw	a5,0(a0)
	.loc 1 68 52
	bne	a5,zero,.L509
	lui	a5,%hi(malloc)
	addi	a5,a5,%lo(malloc)
.L509:
	.loc 1 68 15 discriminator 4
	sw	a5,0(a3)
	.loc 1 69 2 is_stmt 1 discriminator 4
	.loc 1 69 21 is_stmt 0 discriminator 4
	lw	a5,4(a0)
	.loc 1 69 46 discriminator 4
	beq	a5,zero,.L513
.L510:
	.loc 1 69 13 discriminator 4
	sw	a5,0(a4)
	.loc 1 70 1 discriminator 4
	ret
	.cfi_endproc
.LFE7:
	.size	cJSON_InitHooks, .-cJSON_InitHooks
	.section	.text.cJSON_Delete,"ax",@progbits
	.align	1
	.globl	cJSON_Delete
	.type	cJSON_Delete, @function
cJSON_Delete:
.LFB9:
	.loc 1 82 1 is_stmt 1
	.cfi_startproc
.LVL596:
	.loc 1 83 2
	.loc 1 84 2
	.loc 1 82 1 is_stmt 0
	addi	sp,sp,-32
	.cfi_def_cfa_offset 32
	sw	s0,24(sp)
	sw	s2,16(sp)
	sw	ra,28(sp)
	sw	s1,20(sp)
	sw	s3,12(sp)
	.cfi_offset 8, -8
	.cfi_offset 18, -16
	.cfi_offset 1, -4
	.cfi_offset 9, -12
	.cfi_offset 19, -20
	.loc 1 82 1
	mv	s0,a0
	lui	s2,%hi(.LANCHOR3)
.LVL597:
.L515:
	.loc 1 84 8
	bne	s0,zero,.L523
	.loc 1 93 1
	lw	ra,28(sp)
	.cfi_remember_state
	.cfi_restore 1
	lw	s0,24(sp)
	.cfi_restore 8
.LVL598:
	lw	s1,20(sp)
	.cfi_restore 9
	lw	s2,16(sp)
	.cfi_restore 18
	lw	s3,12(sp)
	.cfi_restore 19
	addi	sp,sp,32
	.cfi_def_cfa_offset 0
	jr	ra
.LVL599:
.L523:
	.cfi_restore_state
	.loc 1 86 3 is_stmt 1
	.loc 1 87 16 is_stmt 0
	lw	a5,12(s0)
	.loc 1 86 7
	lw	s3,0(s0)
.LVL600:
	.loc 1 87 3 is_stmt 1
	addi	s1,s2,%lo(.LANCHOR3)
	.loc 1 87 16 is_stmt 0
	andi	a5,a5,256
	.loc 1 87 6
	bne	a5,zero,.L517
	.loc 1 87 26 discriminator 1
	lw	a0,8(s0)
	.loc 1 87 22 discriminator 1
	bne	a0,zero,.L518
.L521:
	.loc 1 88 26
	lw	a0,16(s0)
	.loc 1 88 22
	bne	a0,zero,.L519
.L517:
	.loc 1 89 3 is_stmt 1
	.loc 1 89 16 is_stmt 0
	lw	a5,12(s0)
	andi	a5,a5,512
	.loc 1 89 6
	bne	a5,zero,.L522
	.loc 1 89 26 discriminator 1
	lw	a0,32(s0)
	.loc 1 89 22 discriminator 1
	beq	a0,zero,.L522
	.loc 1 89 36 is_stmt 1 discriminator 2
	lw	a5,0(s1)
	jalr	a5
.LVL601:
.L522:
	.loc 1 90 3
	lw	a5,0(s1)
	mv	a0,s0
	.loc 1 91 4 is_stmt 0
	mv	s0,s3
.LVL602:
	.loc 1 90 3
	jalr	a5
.LVL603:
	.loc 1 91 3 is_stmt 1
	j	.L515
.L518:
	.loc 1 87 35 discriminator 2
	call	cJSON_Delete
.LVL604:
	.loc 1 88 3 discriminator 2
	.loc 1 88 16 is_stmt 0 discriminator 2
	lw	a5,12(s0)
	andi	a5,a5,256
	.loc 1 88 6 discriminator 2
	beq	a5,zero,.L521
	j	.L517
.L519:
	.loc 1 88 41 is_stmt 1 discriminator 2
	lw	a5,0(s1)
	jalr	a5
.LVL605:
	j	.L517
	.cfi_endproc
.LFE9:
	.size	cJSON_Delete, .-cJSON_Delete
	.section	.text.cJSON_ParseWithOpts,"ax",@progbits
	.align	1
	.globl	cJSON_ParseWithOpts
	.type	cJSON_ParseWithOpts, @function
cJSON_ParseWithOpts:
.LFB20:
	.loc 1 324 1
	.cfi_startproc
.LVL606:
	.loc 1 325 2
	.loc 1 326 2
	.loc 1 324 1 is_stmt 0
	addi	sp,sp,-32
	.cfi_def_cfa_offset 32
	sw	s2,16(sp)
	.cfi_offset 18, -16
	.loc 1 327 4
	lui	s2,%hi(.LANCHOR0)
	addi	s2,s2,%lo(.LANCHOR0)
	.loc 1 324 1
	sw	s0,24(sp)
	sw	s1,20(sp)
	sw	s3,12(sp)
	sw	s4,8(sp)
	sw	ra,28(sp)
	.cfi_offset 8, -8
	.cfi_offset 9, -12
	.cfi_offset 19, -20
	.cfi_offset 20, -24
	.cfi_offset 1, -4
	.loc 1 324 1
	mv	s1,a0
	mv	s3,a1
	mv	s4,a2
	.loc 1 326 11
	call	cJSON_New_Item
.LVL607:
	.loc 1 327 4
	sw	zero,0(s2)
	.loc 1 326 11
	mv	s0,a0
.LVL608:
	.loc 1 327 2 is_stmt 1
	.loc 1 328 2
	.loc 1 328 5 is_stmt 0
	beq	a0,zero,.L531
	.loc 1 330 2 is_stmt 1
	.loc 1 330 6 is_stmt 0
	mv	a0,s1
	call	skip
.LVL609:
	mv	a1,a0
	mv	a0,s0
	call	parse_value
.LVL610:
	mv	s1,a0
.LVL611:
	.loc 1 331 2 is_stmt 1
	.loc 1 331 5 is_stmt 0
	bne	a0,zero,.L533
	.loc 1 331 13 is_stmt 1 discriminator 1
	mv	a0,s0
	call	cJSON_Delete
.LVL612:
	.loc 1 331 29 discriminator 1
.L548:
	.loc 1 334 80 discriminator 2
	.loc 1 334 87 is_stmt 0 discriminator 2
	li	s0,0
.LVL613:
.L531:
	.loc 1 337 1
	mv	a0,s0
	lw	ra,28(sp)
	.cfi_remember_state
	.cfi_restore 1
	lw	s0,24(sp)
	.cfi_restore 8
	lw	s1,20(sp)
	.cfi_restore 9
	lw	s2,16(sp)
	.cfi_restore 18
	lw	s3,12(sp)
	.cfi_restore 19
.LVL614:
	lw	s4,8(sp)
	.cfi_restore 20
.LVL615:
	addi	sp,sp,32
	.cfi_def_cfa_offset 0
	jr	ra
.LVL616:
.L533:
	.cfi_restore_state
	.loc 1 334 2 is_stmt 1
	.loc 1 334 5 is_stmt 0
	beq	s4,zero,.L534
	.loc 1 334 32 is_stmt 1 discriminator 1
	.loc 1 334 36 is_stmt 0 discriminator 1
	call	skip
.LVL617:
	.loc 1 334 49 discriminator 1
	lbu	a5,0(a0)
	.loc 1 334 36 discriminator 1
	mv	s1,a0
.LVL618:
	.loc 1 334 46 is_stmt 1 discriminator 1
	.loc 1 334 49 is_stmt 0 discriminator 1
	beq	a5,zero,.L534
	.loc 1 334 57 is_stmt 1 discriminator 2
	mv	a0,s0
	call	cJSON_Delete
.LVL619:
	.loc 1 334 73 discriminator 2
	.loc 1 334 75 is_stmt 0 discriminator 2
	sw	s1,0(s2)
	j	.L548
.L534:
	.loc 1 335 2 is_stmt 1
	.loc 1 335 5 is_stmt 0
	beq	s3,zero,.L531
	.loc 1 335 24 is_stmt 1 discriminator 1
	.loc 1 335 41 is_stmt 0 discriminator 1
	sw	s1,0(s3)
	j	.L531
	.cfi_endproc
.LFE20:
	.size	cJSON_ParseWithOpts, .-cJSON_ParseWithOpts
	.section	.text.cJSON_Parse,"ax",@progbits
	.align	1
	.globl	cJSON_Parse
	.type	cJSON_Parse, @function
cJSON_Parse:
.LFB21:
	.loc 1 339 39 is_stmt 1
	.cfi_startproc
.LVL620:
	.loc 1 339 40
	.loc 1 339 47 is_stmt 0
	li	a2,0
	li	a1,0
	tail	cJSON_ParseWithOpts
.LVL621:
	.cfi_endproc
.LFE21:
	.size	cJSON_Parse, .-cJSON_Parse
	.section	.text.cJSON_Print,"ax",@progbits
	.align	1
	.globl	cJSON_Print
	.type	cJSON_Print, @function
cJSON_Print:
.LFB22:
	.loc 1 342 32 is_stmt 1
	.cfi_startproc
.LVL622:
	.loc 1 342 33
	.loc 1 342 40 is_stmt 0
	li	a3,0
	li	a2,1
	li	a1,0
	tail	print_value
.LVL623:
	.cfi_endproc
.LFE22:
	.size	cJSON_Print, .-cJSON_Print
	.section	.text.cJSON_PrintUnformatted,"ax",@progbits
	.align	1
	.globl	cJSON_PrintUnformatted
	.type	cJSON_PrintUnformatted, @function
cJSON_PrintUnformatted:
.LFB23:
	.loc 1 343 43 is_stmt 1
	.cfi_startproc
.LVL624:
	.loc 1 343 44
	.loc 1 343 51 is_stmt 0
	li	a3,0
	li	a2,0
	li	a1,0
	tail	print_value
.LVL625:
	.cfi_endproc
.LFE23:
	.size	cJSON_PrintUnformatted, .-cJSON_PrintUnformatted
	.section	.text.cJSON_PrintBuffered,"ax",@progbits
	.align	1
	.globl	cJSON_PrintBuffered
	.type	cJSON_PrintBuffered, @function
cJSON_PrintBuffered:
.LFB24:
	.loc 1 346 1 is_stmt 1
	.cfi_startproc
.LVL626:
	.loc 1 347 2
	.loc 1 348 2
	.loc 1 348 18 is_stmt 0
	lui	a5,%hi(.LANCHOR1)
	lw	a5,%lo(.LANCHOR1)(a5)
	.loc 1 346 1
	addi	sp,sp,-48
	.cfi_def_cfa_offset 48
	sw	ra,44(sp)
	sw	s0,40(sp)
	.cfi_offset 1, -4
	.cfi_offset 8, -8
	.loc 1 346 1
	mv	s0,a0
	.loc 1 348 18
	mv	a0,a1
.LVL627:
	.loc 1 346 1
	sw	a2,12(sp)
	.loc 1 348 18
	sw	a1,8(sp)
	jalr	a5
.LVL628:
	.loc 1 349 10
	lw	a1,8(sp)
	.loc 1 351 9
	lw	a2,12(sp)
	.loc 1 348 10
	sw	a0,20(sp)
	.loc 1 349 2 is_stmt 1
	.loc 1 349 10 is_stmt 0
	sw	a1,24(sp)
	.loc 1 350 2 is_stmt 1
	.loc 1 351 9 is_stmt 0
	addi	a3,sp,20
	mv	a0,s0
	li	a1,0
	.loc 1 350 10
	sw	zero,28(sp)
	.loc 1 351 2 is_stmt 1
	.loc 1 351 9 is_stmt 0
	call	print_value
.LVL629:
	.loc 1 353 1
	lw	ra,44(sp)
	.cfi_restore 1
	lw	s0,40(sp)
	.cfi_restore 8
.LVL630:
	addi	sp,sp,48
	.cfi_def_cfa_offset 0
.LVL631:
	jr	ra
	.cfi_endproc
.LFE24:
	.size	cJSON_PrintBuffered, .-cJSON_PrintBuffered
	.section	.text.cJSON_GetArraySize,"ax",@progbits
	.align	1
	.globl	cJSON_GetArraySize
	.type	cJSON_GetArraySize, @function
cJSON_GetArraySize:
.LFB31:
	.loc 1 661 38 is_stmt 1
	.cfi_startproc
.LVL632:
	.loc 1 661 39
	.loc 1 661 46 is_stmt 0
	lw	a5,8(a0)
.LVL633:
	.loc 1 661 61 is_stmt 1
	.loc 1 661 69
	.loc 1 661 65 is_stmt 0
	li	a0,0
.LVL634:
.L555:
	.loc 1 661 74 discriminator 1
	bne	a5,zero,.L556
	.loc 1 661 1
	ret
.L556:
	.loc 1 661 77 is_stmt 1 discriminator 3
	.loc 1 661 78 is_stmt 0 discriminator 3
	addi	a0,a0,1
.LVL635:
	.loc 1 661 82 discriminator 3
	lw	a5,0(a5)
.LVL636:
	j	.L555
	.cfi_endproc
.LFE31:
	.size	cJSON_GetArraySize, .-cJSON_GetArraySize
	.section	.text.cJSON_GetArrayItem,"ax",@progbits
	.align	1
	.globl	cJSON_GetArrayItem
	.type	cJSON_GetArrayItem, @function
cJSON_GetArrayItem:
.LFB32:
	.loc 1 662 50 is_stmt 1
	.cfi_startproc
.LVL637:
	.loc 1 662 51
	.loc 1 662 58 is_stmt 0
	lw	a0,8(a0)
.LVL638:
	.loc 1 662 74 is_stmt 1
.L558:
	.loc 1 662 80 is_stmt 0 discriminator 1
	beq	a0,zero,.L557
	.loc 1 662 83 discriminator 3
	bgt	a1,zero,.L560
.L557:
	.loc 1 662 1
	ret
.L560:
	.loc 1 662 94 is_stmt 1 discriminator 5
	.loc 1 662 98 is_stmt 0 discriminator 5
	addi	a1,a1,-1
.LVL639:
	.loc 1 662 102 discriminator 5
	lw	a0,0(a0)
.LVL640:
	j	.L558
	.cfi_endproc
.LFE32:
	.size	cJSON_GetArrayItem, .-cJSON_GetArrayItem
	.section	.text.cJSON_GetObjectItem,"ax",@progbits
	.align	1
	.globl	cJSON_GetObjectItem
	.type	cJSON_GetObjectItem, @function
cJSON_GetObjectItem:
.LFB33:
	.loc 1 663 62 is_stmt 1
	.cfi_startproc
.LVL641:
	.loc 1 663 63
	.loc 1 663 62 is_stmt 0
	addi	sp,sp,-16
	.cfi_def_cfa_offset 16
	sw	s1,4(sp)
	sw	ra,12(sp)
	sw	s0,8(sp)
	.cfi_offset 9, -12
	.cfi_offset 1, -4
	.cfi_offset 8, -8
	.loc 1 663 70
	lw	s0,8(a0)
.LVL642:
	.loc 1 663 87 is_stmt 1
	.loc 1 663 62 is_stmt 0
	mv	s1,a1
.LVL643:
.L565:
	.loc 1 663 93 discriminator 1
	beq	s0,zero,.L564
	.loc 1 663 99 discriminator 3
	lw	a0,32(s0)
	mv	a1,s1
	call	cJSON_strcasecmp
.LVL644:
	.loc 1 663 96 discriminator 3
	bne	a0,zero,.L567
.L564:
	.loc 1 663 1
	mv	a0,s0
	lw	ra,12(sp)
	.cfi_remember_state
	.cfi_restore 1
	lw	s0,8(sp)
	.cfi_restore 8
.LVL645:
	lw	s1,4(sp)
	.cfi_restore 9
.LVL646:
	addi	sp,sp,16
	.cfi_def_cfa_offset 0
	jr	ra
.LVL647:
.L567:
	.cfi_restore_state
	.loc 1 663 135 is_stmt 1 discriminator 5
	.loc 1 663 136 is_stmt 0 discriminator 5
	lw	s0,0(s0)
.LVL648:
	j	.L565
	.cfi_endproc
.LFE33:
	.size	cJSON_GetObjectItem, .-cJSON_GetObjectItem
	.section	.text.cJSON_AddItemToArray,"ax",@progbits
	.align	1
	.globl	cJSON_AddItemToArray
	.type	cJSON_AddItemToArray, @function
cJSON_AddItemToArray:
.LFB36:
	.loc 1 671 54 is_stmt 1
	.cfi_startproc
.LVL649:
	.loc 1 671 55
	.loc 1 671 77
	.loc 1 671 80 is_stmt 0
	beq	a1,zero,.L572
	.loc 1 671 62 discriminator 2
	lw	a5,8(a0)
	.loc 1 671 96 is_stmt 1 discriminator 2
	.loc 1 671 99 is_stmt 0 discriminator 2
	bne	a5,zero,.L574
	.loc 1 671 105 is_stmt 1 discriminator 3
	.loc 1 671 117 is_stmt 0 discriminator 3
	sw	a1,8(a0)
.LVL650:
	ret
.L575:
	mv	a5,a4
.LVL651:
.L574:
	.loc 1 671 144 discriminator 6
	lw	a4,0(a5)
	.loc 1 671 140 discriminator 6
	bne	a4,zero,.L575
	.loc 1 671 163 is_stmt 1
.LVL652:
.LBB88:
.LBB89:
	.loc 1 666 53
	.loc 1 666 63 is_stmt 0
	sw	a1,0(a5)
	.loc 1 666 69 is_stmt 1
	.loc 1 666 79 is_stmt 0
	sw	a5,4(a1)
.LVL653:
.L572:
.LBE89:
.LBE88:
	.loc 1 671 1
	ret
	.cfi_endproc
.LFE36:
	.size	cJSON_AddItemToArray, .-cJSON_AddItemToArray
	.section	.text.cJSON_AddItemToObject,"ax",@progbits
	.align	1
	.globl	cJSON_AddItemToObject
	.type	cJSON_AddItemToObject, @function
cJSON_AddItemToObject:
.LFB37:
	.loc 1 672 74 is_stmt 1
	.cfi_startproc
.LVL654:
	.loc 1 672 75
	.loc 1 672 78 is_stmt 0
	beq	a2,zero,.L580
	.loc 1 672 74 discriminator 2
	addi	sp,sp,-16
	.cfi_def_cfa_offset 16
	sw	s1,4(sp)
	.cfi_offset 9, -12
	mv	s1,a0
	.loc 1 672 94 is_stmt 1 discriminator 2
	.loc 1 672 102 is_stmt 0 discriminator 2
	lw	a0,32(a2)
.LVL655:
	.loc 1 672 74 discriminator 2
	sw	s0,8(sp)
	sw	s2,0(sp)
	sw	ra,12(sp)
	.cfi_offset 8, -8
	.cfi_offset 18, -16
	.cfi_offset 1, -4
	mv	s0,a2
	mv	s2,a1
	.loc 1 672 97 discriminator 2
	beq	a0,zero,.L582
	.loc 1 672 112 is_stmt 1 discriminator 3
	lui	a5,%hi(.LANCHOR3)
	lw	a5,%lo(.LANCHOR3)(a5)
	jalr	a5
.LVL656:
.L582:
	.loc 1 672 137 discriminator 5
	.loc 1 672 150 is_stmt 0 discriminator 5
	mv	a0,s2
	call	cJSON_strdup
.LVL657:
	.loc 1 672 149 discriminator 5
	sw	a0,32(s0)
	.loc 1 672 171 is_stmt 1 discriminator 5
	mv	a1,s0
	.loc 1 672 1 is_stmt 0 discriminator 5
	lw	s0,8(sp)
	.cfi_restore 8
.LVL658:
	lw	ra,12(sp)
	.cfi_restore 1
	lw	s2,0(sp)
	.cfi_restore 18
.LVL659:
	.loc 1 672 171 discriminator 5
	mv	a0,s1
	.loc 1 672 1 discriminator 5
	lw	s1,4(sp)
	.cfi_restore 9
.LVL660:
	addi	sp,sp,16
	.cfi_def_cfa_offset 0
	.loc 1 672 171 discriminator 5
	tail	cJSON_AddItemToArray
.LVL661:
.L580:
	ret
	.cfi_endproc
.LFE37:
	.size	cJSON_AddItemToObject, .-cJSON_AddItemToObject
	.section	.text.cJSON_AddItemToObjectCS,"ax",@progbits
	.align	1
	.globl	cJSON_AddItemToObjectCS
	.type	cJSON_AddItemToObjectCS, @function
cJSON_AddItemToObjectCS:
.LFB38:
	.loc 1 673 76 is_stmt 1
	.cfi_startproc
.LVL662:
	.loc 1 673 77
	.loc 1 673 80 is_stmt 0
	beq	a2,zero,.L589
	.loc 1 673 112 discriminator 2
	lw	a5,12(a2)
	.loc 1 673 76 discriminator 2
	addi	sp,sp,-16
	.cfi_def_cfa_offset 16
	sw	s0,8(sp)
	sw	s1,4(sp)
	sw	s2,0(sp)
	sw	ra,12(sp)
	.cfi_offset 8, -8
	.cfi_offset 9, -12
	.cfi_offset 18, -16
	.cfi_offset 1, -4
	.loc 1 673 112 discriminator 2
	andi	a5,a5,512
	mv	s0,a2
	mv	s2,a1
	mv	s1,a0
	.loc 1 673 96 is_stmt 1 discriminator 2
	.loc 1 673 99 is_stmt 0 discriminator 2
	bne	a5,zero,.L591
	.loc 1 673 125 discriminator 3
	lw	a0,32(a2)
.LVL663:
	.loc 1 673 118 discriminator 3
	beq	a0,zero,.L591
	.loc 1 673 135 is_stmt 1 discriminator 5
	lui	a5,%hi(.LANCHOR3)
	lw	a5,%lo(.LANCHOR3)(a5)
	jalr	a5
.LVL664:
.L591:
	.loc 1 673 160 discriminator 7
	.loc 1 673 197 is_stmt 0 discriminator 7
	lw	a5,12(s0)
	.loc 1 673 172 discriminator 7
	sw	s2,32(s0)
	.loc 1 673 187 is_stmt 1 discriminator 7
	.loc 1 673 203 is_stmt 0 discriminator 7
	mv	a1,s0
	.loc 1 673 197 discriminator 7
	ori	a5,a5,512
	sw	a5,12(s0)
	.loc 1 673 203 is_stmt 1 discriminator 7
	.loc 1 673 1 is_stmt 0 discriminator 7
	lw	s0,8(sp)
	.cfi_restore 8
.LVL665:
	lw	ra,12(sp)
	.cfi_restore 1
	lw	s2,0(sp)
	.cfi_restore 18
.LVL666:
	.loc 1 673 203 discriminator 7
	mv	a0,s1
	.loc 1 673 1 discriminator 7
	lw	s1,4(sp)
	.cfi_restore 9
.LVL667:
	addi	sp,sp,16
	.cfi_def_cfa_offset 0
	.loc 1 673 203 discriminator 7
	tail	cJSON_AddItemToArray
.LVL668:
.L589:
	ret
	.cfi_endproc
.LFE38:
	.size	cJSON_AddItemToObjectCS, .-cJSON_AddItemToObjectCS
	.section	.text.cJSON_AddItemReferenceToArray,"ax",@progbits
	.align	1
	.globl	cJSON_AddItemReferenceToArray
	.type	cJSON_AddItemReferenceToArray, @function
cJSON_AddItemReferenceToArray:
.LFB39:
	.loc 1 674 63 is_stmt 1
	.cfi_startproc
.LVL669:
	.loc 1 674 64
	.loc 1 674 63 is_stmt 0
	addi	sp,sp,-16
	.cfi_def_cfa_offset 16
	sw	s0,8(sp)
	.cfi_offset 8, -8
	mv	s0,a0
	.loc 1 674 64
	mv	a0,a1
.LVL670:
	.loc 1 674 63
	sw	ra,12(sp)
	.cfi_offset 1, -4
	.loc 1 674 64
	call	create_reference
.LVL671:
	mv	a1,a0
	mv	a0,s0
	.loc 1 674 1
	lw	s0,8(sp)
	.cfi_restore 8
.LVL672:
	lw	ra,12(sp)
	.cfi_restore 1
	addi	sp,sp,16
	.cfi_def_cfa_offset 0
	.loc 1 674 64
	tail	cJSON_AddItemToArray
.LVL673:
	.cfi_endproc
.LFE39:
	.size	cJSON_AddItemReferenceToArray, .-cJSON_AddItemReferenceToArray
	.section	.text.cJSON_AddItemReferenceToObject,"ax",@progbits
	.align	1
	.globl	cJSON_AddItemReferenceToObject
	.type	cJSON_AddItemReferenceToObject, @function
cJSON_AddItemReferenceToObject:
.LFB40:
	.loc 1 675 83 is_stmt 1
	.cfi_startproc
.LVL674:
	.loc 1 675 84
	.loc 1 675 83 is_stmt 0
	addi	sp,sp,-32
	.cfi_def_cfa_offset 32
	sw	s0,24(sp)
	.cfi_offset 8, -8
	mv	s0,a0
	.loc 1 675 84
	mv	a0,a2
.LVL675:
	.loc 1 675 83
	sw	ra,28(sp)
	.cfi_offset 1, -4
	.loc 1 675 83
	sw	a1,12(sp)
	.loc 1 675 84
	call	create_reference
.LVL676:
	mv	a2,a0
	mv	a0,s0
	.loc 1 675 1
	lw	s0,24(sp)
	.cfi_restore 8
.LVL677:
	.loc 1 675 84
	lw	a1,12(sp)
	.loc 1 675 1
	lw	ra,28(sp)
	.cfi_restore 1
	addi	sp,sp,32
	.cfi_def_cfa_offset 0
.LVL678:
	.loc 1 675 84
	tail	cJSON_AddItemToObject
.LVL679:
	.cfi_endproc
.LFE40:
	.size	cJSON_AddItemReferenceToObject, .-cJSON_AddItemReferenceToObject
	.section	.text.cJSON_DetachItemFromArray,"ax",@progbits
	.align	1
	.globl	cJSON_DetachItemFromArray
	.type	cJSON_DetachItemFromArray, @function
cJSON_DetachItemFromArray:
.LFB41:
	.loc 1 677 58 is_stmt 1
	.cfi_startproc
.LVL680:
	.loc 1 677 59
	.loc 1 677 66 is_stmt 0
	lw	a5,8(a0)
.LVL681:
	.loc 1 677 81 is_stmt 1
.L603:
	.loc 1 677 87 is_stmt 0 discriminator 1
	beq	a5,zero,.L602
	lw	a3,0(a5)
	.loc 1 677 90 discriminator 3
	bgt	a1,zero,.L605
	.loc 1 677 120 is_stmt 1
	.loc 1 678 2
	.loc 1 678 7 is_stmt 0
	lw	a4,4(a5)
	.loc 1 678 5
	beq	a4,zero,.L610
	.loc 1 678 15 is_stmt 1 discriminator 1
	.loc 1 678 28 is_stmt 0 discriminator 1
	sw	a3,0(a4)
.L610:
	.loc 1 678 37 is_stmt 1 discriminator 3
	.loc 1 678 42 is_stmt 0 discriminator 3
	lw	a4,0(a5)
	.loc 1 678 40 discriminator 3
	beq	a4,zero,.L607
	.loc 1 678 50 is_stmt 1 discriminator 4
	.loc 1 678 65 is_stmt 0 discriminator 4
	lw	a3,4(a5)
	.loc 1 678 63 discriminator 4
	sw	a3,4(a4)
.L607:
	.loc 1 678 72 is_stmt 1 discriminator 6
	.loc 1 678 75 is_stmt 0 discriminator 6
	lw	a4,8(a0)
	bne	a4,a5,.L608
	.loc 1 678 93 is_stmt 1 discriminator 7
	.loc 1 678 107 is_stmt 0 discriminator 7
	lw	a4,0(a5)
	.loc 1 678 105 discriminator 7
	sw	a4,8(a0)
.L608:
	.loc 1 678 114 is_stmt 1 discriminator 9
	.loc 1 678 129 is_stmt 0 discriminator 9
	sw	zero,0(a5)
	.loc 1 678 121 discriminator 9
	sw	zero,4(a5)
	.loc 1 678 132 is_stmt 1 discriminator 9
.L602:
	.loc 1 678 2 is_stmt 0
	mv	a0,a5
.LVL682:
	ret
.LVL683:
.L605:
	.loc 1 677 102 is_stmt 1 discriminator 5
	.loc 1 677 117 is_stmt 0 discriminator 5
	addi	a1,a1,-1
.LVL684:
	mv	a5,a3
	j	.L603
	.cfi_endproc
.LFE41:
	.size	cJSON_DetachItemFromArray, .-cJSON_DetachItemFromArray
	.section	.text.cJSON_DeleteItemFromArray,"ax",@progbits
	.align	1
	.globl	cJSON_DeleteItemFromArray
	.type	cJSON_DeleteItemFromArray, @function
cJSON_DeleteItemFromArray:
.LFB42:
	.loc 1 679 56 is_stmt 1
	.cfi_startproc
.LVL685:
	.loc 1 679 57
	.loc 1 679 56 is_stmt 0
	addi	sp,sp,-16
	.cfi_def_cfa_offset 16
	sw	ra,12(sp)
	.cfi_offset 1, -4
	.loc 1 679 57
	call	cJSON_DetachItemFromArray
.LVL686:
	.loc 1 679 1
	lw	ra,12(sp)
	.cfi_restore 1
	addi	sp,sp,16
	.cfi_def_cfa_offset 0
	.loc 1 679 57
	tail	cJSON_Delete
.LVL687:
	.cfi_endproc
.LFE42:
	.size	cJSON_DeleteItemFromArray, .-cJSON_DeleteItemFromArray
	.section	.text.cJSON_DetachItemFromObject,"ax",@progbits
	.align	1
	.globl	cJSON_DetachItemFromObject
	.type	cJSON_DetachItemFromObject, @function
cJSON_DetachItemFromObject:
.LFB43:
	.loc 1 680 69 is_stmt 1
	.cfi_startproc
.LVL688:
	.loc 1 680 70
	.loc 1 680 78
	.loc 1 680 69 is_stmt 0
	addi	sp,sp,-32
	.cfi_def_cfa_offset 32
	sw	s1,20(sp)
	sw	s2,16(sp)
	sw	s3,12(sp)
	sw	ra,28(sp)
	sw	s0,24(sp)
	.cfi_offset 9, -12
	.cfi_offset 18, -16
	.cfi_offset 19, -20
	.cfi_offset 1, -4
	.cfi_offset 8, -8
	.loc 1 680 85
	lw	s0,8(a0)
.LVL689:
	.loc 1 680 101 is_stmt 1
	.loc 1 680 69 is_stmt 0
	mv	s2,a0
	mv	s3,a1
	.loc 1 680 74
	li	s1,0
.LVL690:
.L621:
	.loc 1 680 107 discriminator 1
	beq	s0,zero,.L620
	.loc 1 680 113 discriminator 3
	lw	a0,32(s0)
	mv	a1,s3
	call	cJSON_strcasecmp
.LVL691:
	.loc 1 680 110 discriminator 3
	bne	a0,zero,.L623
	.loc 1 680 163 is_stmt 1
	.loc 1 680 170
	.loc 1 680 1 is_stmt 0
	lw	s0,24(sp)
	.cfi_remember_state
	.cfi_restore 8
.LVL692:
	lw	ra,28(sp)
	.cfi_restore 1
	lw	s3,12(sp)
	.cfi_restore 19
.LVL693:
	.loc 1 680 177
	mv	a1,s1
	mv	a0,s2
	.loc 1 680 1
	lw	s1,20(sp)
	.cfi_restore 9
.LVL694:
	lw	s2,16(sp)
	.cfi_restore 18
.LVL695:
	addi	sp,sp,32
	.cfi_def_cfa_offset 0
	.loc 1 680 177
	tail	cJSON_DetachItemFromArray
.LVL696:
.L623:
	.cfi_restore_state
	.loc 1 680 149 is_stmt 1 discriminator 5
	.loc 1 680 150 is_stmt 0 discriminator 5
	addi	s1,s1,1
.LVL697:
	.loc 1 680 154 discriminator 5
	lw	s0,0(s0)
.LVL698:
	j	.L621
.L620:
	.loc 1 680 1
	lw	ra,28(sp)
	.cfi_restore 1
	lw	s0,24(sp)
	.cfi_restore 8
.LVL699:
	lw	s1,20(sp)
	.cfi_restore 9
.LVL700:
	lw	s2,16(sp)
	.cfi_restore 18
.LVL701:
	lw	s3,12(sp)
	.cfi_restore 19
.LVL702:
	li	a0,0
	addi	sp,sp,32
	.cfi_def_cfa_offset 0
	jr	ra
	.cfi_endproc
.LFE43:
	.size	cJSON_DetachItemFromObject, .-cJSON_DetachItemFromObject
	.section	.text.cJSON_DeleteItemFromObject,"ax",@progbits
	.align	1
	.globl	cJSON_DeleteItemFromObject
	.type	cJSON_DeleteItemFromObject, @function
cJSON_DeleteItemFromObject:
.LFB44:
	.loc 1 681 67 is_stmt 1
	.cfi_startproc
.LVL703:
	.loc 1 681 68
	.loc 1 681 67 is_stmt 0
	addi	sp,sp,-16
	.cfi_def_cfa_offset 16
	sw	ra,12(sp)
	.cfi_offset 1, -4
	.loc 1 681 68
	call	cJSON_DetachItemFromObject
.LVL704:
	.loc 1 681 1
	lw	ra,12(sp)
	.cfi_restore 1
	addi	sp,sp,16
	.cfi_def_cfa_offset 0
	.loc 1 681 68
	tail	cJSON_Delete
.LVL705:
	.cfi_endproc
.LFE44:
	.size	cJSON_DeleteItemFromObject, .-cJSON_DeleteItemFromObject
	.section	.text.cJSON_InsertItemInArray,"ax",@progbits
	.align	1
	.globl	cJSON_InsertItemInArray
	.type	cJSON_InsertItemInArray, @function
cJSON_InsertItemInArray:
.LFB45:
	.loc 1 684 69 is_stmt 1
	.cfi_startproc
.LVL706:
	.loc 1 684 70
	.loc 1 684 77 is_stmt 0
	lw	a5,8(a0)
.LVL707:
	.loc 1 684 92 is_stmt 1
.L629:
	.loc 1 684 98 is_stmt 0 discriminator 1
	beq	a5,zero,.L630
	.loc 1 684 101 discriminator 3
	bgt	a1,zero,.L631
	.loc 1 684 131 is_stmt 1
	.loc 1 685 2
	.loc 1 685 15 is_stmt 0
	sw	a5,0(a2)
	.loc 1 685 18 is_stmt 1
	.loc 1 685 33 is_stmt 0
	lw	a4,4(a5)
	.loc 1 685 31
	sw	a4,4(a2)
	.loc 1 685 40 is_stmt 1
	.loc 1 685 47 is_stmt 0
	sw	a2,4(a5)
	.loc 1 685 56 is_stmt 1
	.loc 1 685 59 is_stmt 0
	lw	a4,8(a0)
	bne	a4,a5,.L637
	.loc 1 685 77 is_stmt 1 discriminator 1
	.loc 1 685 89 is_stmt 0 discriminator 1
	sw	a2,8(a0)
	ret
.L631:
	.loc 1 684 113 is_stmt 1 discriminator 5
	.loc 1 684 114 is_stmt 0 discriminator 5
	lw	a5,0(a5)
.LVL708:
	.loc 1 684 128 discriminator 5
	addi	a1,a1,-1
.LVL709:
	j	.L629
.L637:
	.loc 1 685 104 is_stmt 1 discriminator 2
	.loc 1 685 111 is_stmt 0 discriminator 2
	lw	a5,4(a2)
.LVL710:
	.loc 1 685 123 discriminator 2
	sw	a2,0(a5)
	.loc 1 685 2 discriminator 2
	ret
.LVL711:
.L630:
	.loc 1 684 131 is_stmt 1
	.loc 1 684 140
	mv	a1,a2
.LVL712:
	tail	cJSON_AddItemToArray
.LVL713:
	.cfi_endproc
.LFE45:
	.size	cJSON_InsertItemInArray, .-cJSON_InsertItemInArray
	.section	.text.cJSON_ReplaceItemInArray,"ax",@progbits
	.align	1
	.globl	cJSON_ReplaceItemInArray
	.type	cJSON_ReplaceItemInArray, @function
cJSON_ReplaceItemInArray:
.LFB46:
	.loc 1 686 70
	.cfi_startproc
.LVL714:
	.loc 1 686 71
	.loc 1 686 78 is_stmt 0
	lw	a5,8(a0)
.LVL715:
	.loc 1 686 93 is_stmt 1
.L639:
	.loc 1 686 99 is_stmt 0 discriminator 1
	beq	a5,zero,.L638
	lw	a4,0(a5)
	.loc 1 686 102 discriminator 3
	bgt	a1,zero,.L641
	.loc 1 686 132 is_stmt 1
	.loc 1 687 2
	.loc 1 687 15 is_stmt 0
	sw	a4,0(a2)
	.loc 1 687 24 is_stmt 1
	.loc 1 687 39 is_stmt 0
	lw	a3,4(a5)
	.loc 1 687 37
	sw	a3,4(a2)
	.loc 1 687 46 is_stmt 1
	.loc 1 687 49 is_stmt 0
	beq	a4,zero,.L646
	.loc 1 687 65 is_stmt 1 discriminator 1
	.loc 1 687 84 is_stmt 0 discriminator 1
	sw	a2,4(a4)
.L646:
	.loc 1 688 2 is_stmt 1
	.loc 1 688 5 is_stmt 0
	lw	a4,8(a0)
	bne	a4,a5,.L643
	.loc 1 688 23 is_stmt 1 discriminator 1
	.loc 1 688 35 is_stmt 0 discriminator 1
	sw	a2,8(a0)
.L644:
	.loc 1 688 78 is_stmt 1 discriminator 4
	.loc 1 688 93 is_stmt 0 discriminator 4
	sw	zero,4(a5)
	.loc 1 688 85 discriminator 4
	sw	zero,0(a5)
	.loc 1 688 96 is_stmt 1 discriminator 4
	mv	a0,a5
.LVL716:
	tail	cJSON_Delete
.LVL717:
.L641:
	.loc 1 686 114 discriminator 5
	.loc 1 686 129 is_stmt 0 discriminator 5
	addi	a1,a1,-1
.LVL718:
	mv	a5,a4
	j	.L639
.LVL719:
.L643:
	.loc 1 688 50 is_stmt 1 discriminator 2
	.loc 1 688 57 is_stmt 0 discriminator 2
	lw	a4,4(a2)
	.loc 1 688 69 discriminator 2
	sw	a2,0(a4)
	j	.L644
.L638:
	.loc 1 688 2
	ret
	.cfi_endproc
.LFE46:
	.size	cJSON_ReplaceItemInArray, .-cJSON_ReplaceItemInArray
	.section	.text.cJSON_ReplaceItemInObject,"ax",@progbits
	.align	1
	.globl	cJSON_ReplaceItemInObject
	.type	cJSON_ReplaceItemInObject, @function
cJSON_ReplaceItemInObject:
.LFB47:
	.loc 1 689 80 is_stmt 1
	.cfi_startproc
.LVL720:
	.loc 1 689 81
	.loc 1 689 89
	.loc 1 689 80 is_stmt 0
	addi	sp,sp,-48
	.cfi_def_cfa_offset 48
	sw	s1,36(sp)
	sw	s2,32(sp)
	sw	s3,28(sp)
	sw	ra,44(sp)
	sw	s0,40(sp)
	.cfi_offset 9, -12
	.cfi_offset 18, -16
	.cfi_offset 19, -20
	.cfi_offset 1, -4
	.cfi_offset 8, -8
	.loc 1 689 96
	lw	s0,8(a0)
.LVL721:
	.loc 1 689 112 is_stmt 1
	.loc 1 689 80 is_stmt 0
	mv	s2,a0
	mv	s3,a1
	.loc 1 689 85
	li	s1,0
.LVL722:
.L649:
	sw	a2,12(sp)
.LVL723:
	.loc 1 689 117 discriminator 1
	beq	s0,zero,.L648
	.loc 1 689 123 discriminator 3
	lw	a0,32(s0)
	mv	a1,s3
	call	cJSON_strcasecmp
.LVL724:
	.loc 1 689 120 discriminator 3
	lw	a2,12(sp)
	bne	a0,zero,.L651
	.loc 1 689 172 is_stmt 1
	.loc 1 689 178
	.loc 1 689 194 is_stmt 0
	mv	a0,s3
	call	cJSON_strdup
.LVL725:
	.loc 1 689 193
	lw	a2,12(sp)
	.loc 1 689 215
	mv	a1,s1
	.loc 1 689 193
	sw	a0,32(a2)
	.loc 1 689 215 is_stmt 1
	.loc 1 689 1 is_stmt 0
	lw	s0,40(sp)
	.cfi_remember_state
	.cfi_restore 8
.LVL726:
	lw	ra,44(sp)
	.cfi_restore 1
	lw	s1,36(sp)
	.cfi_restore 9
.LVL727:
	lw	s3,28(sp)
	.cfi_restore 19
.LVL728:
	.loc 1 689 215
	mv	a0,s2
	.loc 1 689 1
	lw	s2,32(sp)
	.cfi_restore 18
.LVL729:
	addi	sp,sp,48
	.cfi_def_cfa_offset 0
	.loc 1 689 215
	tail	cJSON_ReplaceItemInArray
.LVL730:
.L651:
	.cfi_restore_state
	.loc 1 689 158 is_stmt 1 discriminator 5
	.loc 1 689 159 is_stmt 0 discriminator 5
	addi	s1,s1,1
.LVL731:
	.loc 1 689 163 discriminator 5
	lw	s0,0(s0)
.LVL732:
	j	.L649
.L648:
	.loc 1 689 1
	lw	ra,44(sp)
	.cfi_restore 1
	lw	s0,40(sp)
	.cfi_restore 8
.LVL733:
	lw	s1,36(sp)
	.cfi_restore 9
.LVL734:
	lw	s2,32(sp)
	.cfi_restore 18
.LVL735:
	lw	s3,28(sp)
	.cfi_restore 19
.LVL736:
	addi	sp,sp,48
	.cfi_def_cfa_offset 0
	jr	ra
	.cfi_endproc
.LFE47:
	.size	cJSON_ReplaceItemInObject, .-cJSON_ReplaceItemInObject
	.section	.text.cJSON_CreateNull,"ax",@progbits
	.align	1
	.globl	cJSON_CreateNull
	.type	cJSON_CreateNull, @function
cJSON_CreateNull:
.LFB48:
	.loc 1 692 31 is_stmt 1
	.cfi_startproc
	.loc 1 692 32
	.loc 1 692 31 is_stmt 0
	addi	sp,sp,-16
	.cfi_def_cfa_offset 16
	sw	ra,12(sp)
	.cfi_offset 1, -4
	.loc 1 692 44
	call	cJSON_New_Item
.LVL737:
	.loc 1 692 61 is_stmt 1
	.loc 1 692 63 is_stmt 0
	beq	a0,zero,.L654
	.loc 1 692 69 is_stmt 1 discriminator 1
	.loc 1 692 79 is_stmt 0 discriminator 1
	li	a5,2
	sw	a5,12(a0)
	.loc 1 692 82 is_stmt 1 discriminator 1
.L654:
	.loc 1 692 1 is_stmt 0
	lw	ra,12(sp)
	.cfi_restore 1
	addi	sp,sp,16
	.cfi_def_cfa_offset 0
	jr	ra
	.cfi_endproc
.LFE48:
	.size	cJSON_CreateNull, .-cJSON_CreateNull
	.section	.text.cJSON_CreateTrue,"ax",@progbits
	.align	1
	.globl	cJSON_CreateTrue
	.type	cJSON_CreateTrue, @function
cJSON_CreateTrue:
.LFB49:
	.loc 1 693 31 is_stmt 1
	.cfi_startproc
	.loc 1 693 32
	.loc 1 693 31 is_stmt 0
	addi	sp,sp,-16
	.cfi_def_cfa_offset 16
	sw	ra,12(sp)
	.cfi_offset 1, -4
	.loc 1 693 44
	call	cJSON_New_Item
.LVL738:
	.loc 1 693 61 is_stmt 1
	.loc 1 693 63 is_stmt 0
	beq	a0,zero,.L660
	.loc 1 693 69 is_stmt 1 discriminator 1
	.loc 1 693 79 is_stmt 0 discriminator 1
	li	a5,1
	sw	a5,12(a0)
	.loc 1 693 82 is_stmt 1 discriminator 1
.L660:
	.loc 1 693 1 is_stmt 0
	lw	ra,12(sp)
	.cfi_restore 1
	addi	sp,sp,16
	.cfi_def_cfa_offset 0
	jr	ra
	.cfi_endproc
.LFE49:
	.size	cJSON_CreateTrue, .-cJSON_CreateTrue
	.section	.text.cJSON_CreateFalse,"ax",@progbits
	.align	1
	.globl	cJSON_CreateFalse
	.type	cJSON_CreateFalse, @function
cJSON_CreateFalse:
.LFB50:
	.loc 1 694 32 is_stmt 1
	.cfi_startproc
	.loc 1 694 33
	.loc 1 694 32 is_stmt 0
	addi	sp,sp,-16
	.cfi_def_cfa_offset 16
	sw	ra,12(sp)
	.cfi_offset 1, -4
	.loc 1 694 45
	call	cJSON_New_Item
.LVL739:
	.loc 1 694 62 is_stmt 1
	.loc 1 694 64 is_stmt 0
	beq	a0,zero,.L666
	.loc 1 694 70 is_stmt 1 discriminator 1
	.loc 1 694 80 is_stmt 0 discriminator 1
	sw	zero,12(a0)
	.loc 1 694 83 is_stmt 1 discriminator 1
.L666:
	.loc 1 694 1 is_stmt 0
	lw	ra,12(sp)
	.cfi_restore 1
	addi	sp,sp,16
	.cfi_def_cfa_offset 0
	jr	ra
	.cfi_endproc
.LFE50:
	.size	cJSON_CreateFalse, .-cJSON_CreateFalse
	.section	.text.cJSON_CreateBool,"ax",@progbits
	.align	1
	.globl	cJSON_CreateBool
	.type	cJSON_CreateBool, @function
cJSON_CreateBool:
.LFB51:
	.loc 1 695 32 is_stmt 1
	.cfi_startproc
.LVL740:
	.loc 1 695 33
	.loc 1 695 32 is_stmt 0
	addi	sp,sp,-16
	.cfi_def_cfa_offset 16
	sw	s0,8(sp)
	sw	ra,12(sp)
	.cfi_offset 8, -8
	.cfi_offset 1, -4
	.loc 1 695 32
	mv	s0,a0
	.loc 1 695 45
	call	cJSON_New_Item
.LVL741:
	.loc 1 695 62 is_stmt 1
	.loc 1 695 64 is_stmt 0
	beq	a0,zero,.L672
	.loc 1 695 70 is_stmt 1 discriminator 1
	.loc 1 695 84 is_stmt 0 discriminator 1
	snez	s0,s0
.LVL742:
	.loc 1 695 80 discriminator 1
	sw	s0,12(a0)
	.loc 1 695 87 is_stmt 1 discriminator 1
.L672:
	.loc 1 695 1 is_stmt 0
	lw	ra,12(sp)
	.cfi_restore 1
	lw	s0,8(sp)
	.cfi_restore 8
	addi	sp,sp,16
	.cfi_def_cfa_offset 0
	jr	ra
	.cfi_endproc
.LFE51:
	.size	cJSON_CreateBool, .-cJSON_CreateBool
	.section	.text.cJSON_CreateNumber,"ax",@progbits
	.align	1
	.globl	cJSON_CreateNumber
	.type	cJSON_CreateNumber, @function
cJSON_CreateNumber:
.LFB52:
	.loc 1 696 39 is_stmt 1
	.cfi_startproc
.LVL743:
	.loc 1 696 40
	.loc 1 696 39 is_stmt 0
	addi	sp,sp,-16
	.cfi_def_cfa_offset 16
	sw	s0,8(sp)
	sw	s2,4(sp)
	sw	s3,0(sp)
	sw	ra,12(sp)
	.cfi_offset 8, -8
	.cfi_offset 18, -12
	.cfi_offset 19, -16
	.cfi_offset 1, -4
	.loc 1 696 39
	mv	s2,a0
	mv	s3,a1
	.loc 1 696 52
	call	cJSON_New_Item
.LVL744:
	mv	s0,a0
.LVL745:
	.loc 1 696 69 is_stmt 1
	.loc 1 696 71 is_stmt 0
	beq	a0,zero,.L678
	.loc 1 696 78 is_stmt 1 discriminator 1
	.loc 1 696 88 is_stmt 0 discriminator 1
	li	a5,3
	sw	a5,12(a0)
	.loc 1 696 91 is_stmt 1 discriminator 1
	.loc 1 696 108 is_stmt 0 discriminator 1
	sw	s2,24(a0)
	sw	s3,28(a0)
	.loc 1 696 113 is_stmt 1 discriminator 1
	.loc 1 696 128 is_stmt 0 discriminator 1
	mv	a1,s3
	mv	a0,s2
	call	__fixdfsi
.LVL746:
	sw	a0,20(s0)
	.loc 1 696 138 is_stmt 1 discriminator 1
.L678:
	.loc 1 696 1 is_stmt 0
	mv	a0,s0
	lw	ra,12(sp)
	.cfi_restore 1
	lw	s0,8(sp)
	.cfi_restore 8
.LVL747:
	lw	s2,4(sp)
	.cfi_restore 18
	lw	s3,0(sp)
	.cfi_restore 19
	addi	sp,sp,16
	.cfi_def_cfa_offset 0
	jr	ra
	.cfi_endproc
.LFE52:
	.size	cJSON_CreateNumber, .-cJSON_CreateNumber
	.section	.text.cJSON_CreateString,"ax",@progbits
	.align	1
	.globl	cJSON_CreateString
	.type	cJSON_CreateString, @function
cJSON_CreateString:
.LFB53:
	.loc 1 697 47 is_stmt 1
	.cfi_startproc
.LVL748:
	.loc 1 697 48
	.loc 1 697 47 is_stmt 0
	addi	sp,sp,-16
	.cfi_def_cfa_offset 16
	sw	s0,8(sp)
	sw	s1,4(sp)
	sw	ra,12(sp)
	.cfi_offset 8, -8
	.cfi_offset 9, -12
	.cfi_offset 1, -4
	.loc 1 697 47
	mv	s1,a0
	.loc 1 697 60
	call	cJSON_New_Item
.LVL749:
	mv	s0,a0
.LVL750:
	.loc 1 697 77 is_stmt 1
	.loc 1 697 79 is_stmt 0
	beq	a0,zero,.L684
	.loc 1 697 86 is_stmt 1 discriminator 1
	.loc 1 697 96 is_stmt 0 discriminator 1
	li	a5,4
	sw	a5,12(a0)
	.loc 1 697 99 is_stmt 1 discriminator 1
	.loc 1 697 117 is_stmt 0 discriminator 1
	mv	a0,s1
	call	cJSON_strdup
.LVL751:
	.loc 1 697 116 discriminator 1
	sw	a0,16(s0)
	.loc 1 697 139 is_stmt 1 discriminator 1
.L684:
	.loc 1 697 1 is_stmt 0
	mv	a0,s0
	lw	ra,12(sp)
	.cfi_restore 1
	lw	s0,8(sp)
	.cfi_restore 8
.LVL752:
	lw	s1,4(sp)
	.cfi_restore 9
.LVL753:
	addi	sp,sp,16
	.cfi_def_cfa_offset 0
	jr	ra
	.cfi_endproc
.LFE53:
	.size	cJSON_CreateString, .-cJSON_CreateString
	.section	.text.cJSON_CreateArray,"ax",@progbits
	.align	1
	.globl	cJSON_CreateArray
	.type	cJSON_CreateArray, @function
cJSON_CreateArray:
.LFB54:
	.loc 1 698 32 is_stmt 1
	.cfi_startproc
	.loc 1 698 33
	.loc 1 698 32 is_stmt 0
	addi	sp,sp,-16
	.cfi_def_cfa_offset 16
	sw	ra,12(sp)
	.cfi_offset 1, -4
	.loc 1 698 45
	call	cJSON_New_Item
.LVL754:
	.loc 1 698 62 is_stmt 1
	.loc 1 698 64 is_stmt 0
	beq	a0,zero,.L690
	.loc 1 698 70 is_stmt 1 discriminator 1
	.loc 1 698 80 is_stmt 0 discriminator 1
	li	a5,5
	sw	a5,12(a0)
	.loc 1 698 83 is_stmt 1 discriminator 1
.L690:
	.loc 1 698 1 is_stmt 0
	lw	ra,12(sp)
	.cfi_restore 1
	addi	sp,sp,16
	.cfi_def_cfa_offset 0
	jr	ra
	.cfi_endproc
.LFE54:
	.size	cJSON_CreateArray, .-cJSON_CreateArray
	.section	.text.cJSON_CreateObject,"ax",@progbits
	.align	1
	.globl	cJSON_CreateObject
	.type	cJSON_CreateObject, @function
cJSON_CreateObject:
.LFB55:
	.loc 1 699 33 is_stmt 1
	.cfi_startproc
	.loc 1 699 34
	.loc 1 699 33 is_stmt 0
	addi	sp,sp,-16
	.cfi_def_cfa_offset 16
	sw	ra,12(sp)
	.cfi_offset 1, -4
	.loc 1 699 46
	call	cJSON_New_Item
.LVL755:
	.loc 1 699 63 is_stmt 1
	.loc 1 699 65 is_stmt 0
	beq	a0,zero,.L696
	.loc 1 699 71 is_stmt 1 discriminator 1
	.loc 1 699 81 is_stmt 0 discriminator 1
	li	a5,6
	sw	a5,12(a0)
	.loc 1 699 84 is_stmt 1 discriminator 1
.L696:
	.loc 1 699 1 is_stmt 0
	lw	ra,12(sp)
	.cfi_restore 1
	addi	sp,sp,16
	.cfi_def_cfa_offset 0
	jr	ra
	.cfi_endproc
.LFE55:
	.size	cJSON_CreateObject, .-cJSON_CreateObject
	.section	.text.cJSON_CreateIntArray,"ax",@progbits
	.align	1
	.globl	cJSON_CreateIntArray
	.type	cJSON_CreateIntArray, @function
cJSON_CreateIntArray:
.LFB56:
	.loc 1 702 59 is_stmt 1
	.cfi_startproc
.LVL756:
	.loc 1 702 60
	.loc 1 702 66
	.loc 1 702 59 is_stmt 0
	addi	sp,sp,-32
	.cfi_def_cfa_offset 32
	sw	s0,24(sp)
	sw	s1,20(sp)
	sw	s2,16(sp)
	sw	s3,12(sp)
	sw	s4,8(sp)
	sw	ra,28(sp)
	.cfi_offset 8, -8
	.cfi_offset 9, -12
	.cfi_offset 18, -16
	.cfi_offset 19, -20
	.cfi_offset 20, -24
	.cfi_offset 1, -4
	.loc 1 702 59
	mv	s4,a0
	mv	s3,a1
	.loc 1 702 85
	call	cJSON_CreateArray
.LVL757:
	mv	s1,a0
.LVL758:
	.loc 1 702 105 is_stmt 1
	.loc 1 702 78 is_stmt 0
	li	s2,0
	.loc 1 702 110
	li	s0,0
.LVL759:
.L703:
	.loc 1 702 105 discriminator 6
	beq	s1,zero,.L702
	.loc 1 702 115 discriminator 7
	blt	s0,s3,.L707
.L702:
	.loc 1 702 1
	lw	ra,28(sp)
	.cfi_remember_state
	.cfi_restore 1
	lw	s0,24(sp)
	.cfi_restore 8
.LVL760:
	mv	a0,s1
	lw	s2,16(sp)
	.cfi_restore 18
.LVL761:
	lw	s1,20(sp)
	.cfi_restore 9
.LVL762:
	lw	s3,12(sp)
	.cfi_restore 19
.LVL763:
	lw	s4,8(sp)
	.cfi_restore 20
.LVL764:
	addi	sp,sp,32
	.cfi_def_cfa_offset 0
	jr	ra
.LVL765:
.L707:
	.cfi_restore_state
	.loc 1 702 131 is_stmt 1 discriminator 9
	.loc 1 702 159 is_stmt 0 discriminator 9
	slli	a5,s0,2
	add	a5,s4,a5
	.loc 1 702 133 discriminator 9
	lw	a0,0(a5)
	call	__floatsidf
.LVL766:
	call	cJSON_CreateNumber
.LVL767:
	.loc 1 702 164 is_stmt 1 discriminator 9
	.loc 1 702 166 is_stmt 0 discriminator 9
	bne	s0,zero,.L704
	.loc 1 702 170 is_stmt 1 discriminator 2
	.loc 1 702 178 is_stmt 0 discriminator 2
	sw	a0,8(s1)
.L705:
	.loc 1 702 205 is_stmt 1 discriminator 5
.LVL768:
	.loc 1 702 127 is_stmt 0 discriminator 5
	addi	s0,s0,1
.LVL769:
	.loc 1 702 133 discriminator 5
	mv	s2,a0
	j	.L703
.LVL770:
.L704:
	.loc 1 702 186 is_stmt 1
.LBB90:
.LBB91:
	.loc 1 666 53
	.loc 1 666 63 is_stmt 0
	sw	a0,0(s2)
	.loc 1 666 69 is_stmt 1
	.loc 1 666 79 is_stmt 0
	sw	s2,4(a0)
	j	.L705
.LBE91:
.LBE90:
	.cfi_endproc
.LFE56:
	.size	cJSON_CreateIntArray, .-cJSON_CreateIntArray
	.globl	__extendsfdf2
	.section	.text.cJSON_CreateFloatArray,"ax",@progbits
	.align	1
	.globl	cJSON_CreateFloatArray
	.type	cJSON_CreateFloatArray, @function
cJSON_CreateFloatArray:
.LFB57:
	.loc 1 703 63 is_stmt 1
	.cfi_startproc
.LVL771:
	.loc 1 703 64
	.loc 1 703 70
	.loc 1 703 63 is_stmt 0
	addi	sp,sp,-32
	.cfi_def_cfa_offset 32
	sw	s0,24(sp)
	sw	s1,20(sp)
	sw	s2,16(sp)
	sw	s3,12(sp)
	sw	s4,8(sp)
	sw	ra,28(sp)
	.cfi_offset 8, -8
	.cfi_offset 9, -12
	.cfi_offset 18, -16
	.cfi_offset 19, -20
	.cfi_offset 20, -24
	.cfi_offset 1, -4
	.loc 1 703 63
	mv	s4,a0
	mv	s3,a1
	.loc 1 703 89
	call	cJSON_CreateArray
.LVL772:
	mv	s1,a0
.LVL773:
	.loc 1 703 109 is_stmt 1
	.loc 1 703 82 is_stmt 0
	li	s2,0
	.loc 1 703 114
	li	s0,0
.LVL774:
.L713:
	.loc 1 703 109 discriminator 6
	beq	s1,zero,.L712
	.loc 1 703 119 discriminator 7
	blt	s0,s3,.L717
.L712:
	.loc 1 703 1
	lw	ra,28(sp)
	.cfi_remember_state
	.cfi_restore 1
	lw	s0,24(sp)
	.cfi_restore 8
.LVL775:
	mv	a0,s1
	lw	s2,16(sp)
	.cfi_restore 18
.LVL776:
	lw	s1,20(sp)
	.cfi_restore 9
.LVL777:
	lw	s3,12(sp)
	.cfi_restore 19
.LVL778:
	lw	s4,8(sp)
	.cfi_restore 20
.LVL779:
	addi	sp,sp,32
	.cfi_def_cfa_offset 0
	jr	ra
.LVL780:
.L717:
	.cfi_restore_state
	.loc 1 703 135 is_stmt 1 discriminator 9
	.loc 1 703 163 is_stmt 0 discriminator 9
	slli	a5,s0,2
	add	a5,s4,a5
	.loc 1 703 137 discriminator 9
	flw	fa0,0(a5)
	call	__extendsfdf2
.LVL781:
	call	cJSON_CreateNumber
.LVL782:
	.loc 1 703 168 is_stmt 1 discriminator 9
	.loc 1 703 170 is_stmt 0 discriminator 9
	bne	s0,zero,.L714
	.loc 1 703 174 is_stmt 1 discriminator 2
	.loc 1 703 182 is_stmt 0 discriminator 2
	sw	a0,8(s1)
.L715:
	.loc 1 703 209 is_stmt 1 discriminator 5
.LVL783:
	.loc 1 703 131 is_stmt 0 discriminator 5
	addi	s0,s0,1
.LVL784:
	.loc 1 703 137 discriminator 5
	mv	s2,a0
	j	.L713
.LVL785:
.L714:
	.loc 1 703 190 is_stmt 1
.LBB92:
.LBB93:
	.loc 1 666 53
	.loc 1 666 63 is_stmt 0
	sw	a0,0(s2)
	.loc 1 666 69 is_stmt 1
	.loc 1 666 79 is_stmt 0
	sw	s2,4(a0)
	j	.L715
.LBE93:
.LBE92:
	.cfi_endproc
.LFE57:
	.size	cJSON_CreateFloatArray, .-cJSON_CreateFloatArray
	.section	.text.cJSON_CreateDoubleArray,"ax",@progbits
	.align	1
	.globl	cJSON_CreateDoubleArray
	.type	cJSON_CreateDoubleArray, @function
cJSON_CreateDoubleArray:
.LFB58:
	.loc 1 704 65 is_stmt 1
	.cfi_startproc
.LVL786:
	.loc 1 704 66
	.loc 1 704 72
	.loc 1 704 65 is_stmt 0
	addi	sp,sp,-32
	.cfi_def_cfa_offset 32
	sw	s0,24(sp)
	sw	s1,20(sp)
	sw	s2,16(sp)
	sw	s3,12(sp)
	sw	s4,8(sp)
	sw	ra,28(sp)
	.cfi_offset 8, -8
	.cfi_offset 9, -12
	.cfi_offset 18, -16
	.cfi_offset 19, -20
	.cfi_offset 20, -24
	.cfi_offset 1, -4
	.loc 1 704 65
	mv	s4,a0
	mv	s3,a1
	.loc 1 704 91
	call	cJSON_CreateArray
.LVL787:
	mv	s1,a0
.LVL788:
	.loc 1 704 111 is_stmt 1
	.loc 1 704 84 is_stmt 0
	li	s2,0
	.loc 1 704 116
	li	s0,0
.LVL789:
.L723:
	.loc 1 704 111 discriminator 6
	beq	s1,zero,.L722
	.loc 1 704 121 discriminator 7
	blt	s0,s3,.L727
.L722:
	.loc 1 704 1
	lw	ra,28(sp)
	.cfi_remember_state
	.cfi_restore 1
	lw	s0,24(sp)
	.cfi_restore 8
.LVL790:
	mv	a0,s1
	lw	s2,16(sp)
	.cfi_restore 18
.LVL791:
	lw	s1,20(sp)
	.cfi_restore 9
.LVL792:
	lw	s3,12(sp)
	.cfi_restore 19
.LVL793:
	lw	s4,8(sp)
	.cfi_restore 20
.LVL794:
	addi	sp,sp,32
	.cfi_def_cfa_offset 0
	jr	ra
.LVL795:
.L727:
	.cfi_restore_state
	.loc 1 704 137 is_stmt 1 discriminator 9
	.loc 1 704 139 is_stmt 0 discriminator 9
	slli	a5,s0,3
	add	a5,s4,a5
	lw	a0,0(a5)
	lw	a1,4(a5)
	call	cJSON_CreateNumber
.LVL796:
	.loc 1 704 170 is_stmt 1 discriminator 9
	.loc 1 704 172 is_stmt 0 discriminator 9
	bne	s0,zero,.L724
	.loc 1 704 176 is_stmt 1 discriminator 2
	.loc 1 704 184 is_stmt 0 discriminator 2
	sw	a0,8(s1)
.L725:
	.loc 1 704 211 is_stmt 1 discriminator 5
.LVL797:
	.loc 1 704 133 is_stmt 0 discriminator 5
	addi	s0,s0,1
.LVL798:
	.loc 1 704 139 discriminator 5
	mv	s2,a0
	j	.L723
.LVL799:
.L724:
	.loc 1 704 192 is_stmt 1
.LBB94:
.LBB95:
	.loc 1 666 53
	.loc 1 666 63 is_stmt 0
	sw	a0,0(s2)
	.loc 1 666 69 is_stmt 1
	.loc 1 666 79 is_stmt 0
	sw	s2,4(a0)
	j	.L725
.LBE95:
.LBE94:
	.cfi_endproc
.LFE58:
	.size	cJSON_CreateDoubleArray, .-cJSON_CreateDoubleArray
	.section	.text.cJSON_CreateStringArray,"ax",@progbits
	.align	1
	.globl	cJSON_CreateStringArray
	.type	cJSON_CreateStringArray, @function
cJSON_CreateStringArray:
.LFB59:
	.loc 1 705 64 is_stmt 1
	.cfi_startproc
.LVL800:
	.loc 1 705 65
	.loc 1 705 71
	.loc 1 705 64 is_stmt 0
	addi	sp,sp,-32
	.cfi_def_cfa_offset 32
	sw	s0,24(sp)
	sw	s1,20(sp)
	sw	s2,16(sp)
	sw	s3,12(sp)
	sw	s4,8(sp)
	sw	ra,28(sp)
	.cfi_offset 8, -8
	.cfi_offset 9, -12
	.cfi_offset 18, -16
	.cfi_offset 19, -20
	.cfi_offset 20, -24
	.cfi_offset 1, -4
	.loc 1 705 64
	mv	s4,a0
	mv	s3,a1
	.loc 1 705 90
	call	cJSON_CreateArray
.LVL801:
	mv	s1,a0
.LVL802:
	.loc 1 705 110 is_stmt 1
	.loc 1 705 83 is_stmt 0
	li	s2,0
	.loc 1 705 115
	li	s0,0
.LVL803:
.L733:
	.loc 1 705 110 discriminator 6
	beq	s1,zero,.L732
	.loc 1 705 120 discriminator 7
	blt	s0,s3,.L737
.L732:
	.loc 1 705 1
	lw	ra,28(sp)
	.cfi_remember_state
	.cfi_restore 1
	lw	s0,24(sp)
	.cfi_restore 8
.LVL804:
	mv	a0,s1
	lw	s2,16(sp)
	.cfi_restore 18
.LVL805:
	lw	s1,20(sp)
	.cfi_restore 9
.LVL806:
	lw	s3,12(sp)
	.cfi_restore 19
.LVL807:
	lw	s4,8(sp)
	.cfi_restore 20
.LVL808:
	addi	sp,sp,32
	.cfi_def_cfa_offset 0
	jr	ra
.LVL809:
.L737:
	.cfi_restore_state
	.loc 1 705 136 is_stmt 1 discriminator 9
	.loc 1 705 138 is_stmt 0 discriminator 9
	slli	a5,s0,2
	add	a5,s4,a5
	lw	a0,0(a5)
	call	cJSON_CreateString
.LVL810:
	.loc 1 705 169 is_stmt 1 discriminator 9
	.loc 1 705 171 is_stmt 0 discriminator 9
	bne	s0,zero,.L734
	.loc 1 705 175 is_stmt 1 discriminator 2
	.loc 1 705 183 is_stmt 0 discriminator 2
	sw	a0,8(s1)
.L735:
	.loc 1 705 210 is_stmt 1 discriminator 5
.LVL811:
	.loc 1 705 132 is_stmt 0 discriminator 5
	addi	s0,s0,1
.LVL812:
	.loc 1 705 138 discriminator 5
	mv	s2,a0
	j	.L733
.LVL813:
.L734:
	.loc 1 705 191 is_stmt 1
.LBB96:
.LBB97:
	.loc 1 666 53
	.loc 1 666 63 is_stmt 0
	sw	a0,0(s2)
	.loc 1 666 69 is_stmt 1
	.loc 1 666 79 is_stmt 0
	sw	s2,4(a0)
	j	.L735
.LBE97:
.LBE96:
	.cfi_endproc
.LFE59:
	.size	cJSON_CreateStringArray, .-cJSON_CreateStringArray
	.section	.text.cJSON_Duplicate,"ax",@progbits
	.align	1
	.globl	cJSON_Duplicate
	.type	cJSON_Duplicate, @function
cJSON_Duplicate:
.LFB60:
	.loc 1 709 1 is_stmt 1
	.cfi_startproc
.LVL814:
	.loc 1 710 2
	.loc 1 712 2
	.loc 1 709 1 is_stmt 0
	addi	sp,sp,-16
	.cfi_def_cfa_offset 16
	sw	ra,12(sp)
	sw	s0,8(sp)
	sw	s1,4(sp)
	sw	s2,0(sp)
	.cfi_offset 1, -4
	.cfi_offset 8, -8
	.cfi_offset 9, -12
	.cfi_offset 18, -16
	.loc 1 712 5
	bne	a0,zero,.L743
.LVL815:
.L767:
	.loc 1 727 41 is_stmt 1 discriminator 1
	.loc 1 727 48 is_stmt 0 discriminator 1
	li	s0,0
.L742:
	.loc 1 733 1
	mv	a0,s0
	lw	ra,12(sp)
	.cfi_remember_state
	.cfi_restore 1
	lw	s0,8(sp)
	.cfi_restore 8
	lw	s1,4(sp)
	.cfi_restore 9
	lw	s2,0(sp)
	.cfi_restore 18
	addi	sp,sp,16
	.cfi_def_cfa_offset 0
	jr	ra
.LVL816:
.L743:
	.cfi_restore_state
	mv	s2,a1
	mv	s1,a0
	.loc 1 714 2 is_stmt 1
	.loc 1 714 10 is_stmt 0
	call	cJSON_New_Item
.LVL817:
	mv	s0,a0
.LVL818:
	.loc 1 715 2 is_stmt 1
	.loc 1 715 5 is_stmt 0
	beq	a0,zero,.L767
	.loc 1 717 2 is_stmt 1
	.loc 1 717 26 is_stmt 0
	lw	a5,12(s1)
	andi	a5,a5,-257
	.loc 1 717 15
	sw	a5,12(a0)
	.loc 1 717 56
	lw	a5,20(s1)
	.loc 1 717 51
	sw	a5,20(a0)
	.loc 1 717 92
	lw	a4,24(s1)
	lw	a5,28(s1)
	.loc 1 717 87
	sw	a4,24(a0)
	sw	a5,28(a0)
	.loc 1 718 2 is_stmt 1
	.loc 1 718 10 is_stmt 0
	lw	a0,16(s1)
	.loc 1 718 5
	beq	a0,zero,.L746
	.loc 1 718 26 is_stmt 1 discriminator 1
	.loc 1 718 47 is_stmt 0 discriminator 1
	call	cJSON_strdup
.LVL819:
	.loc 1 718 46 discriminator 1
	sw	a0,16(s0)
	.loc 1 718 80 is_stmt 1 discriminator 1
	.loc 1 718 83 is_stmt 0 discriminator 1
	bne	a0,zero,.L746
.LVL820:
.L766:
	.loc 1 727 19 is_stmt 1 discriminator 1
	mv	a0,s0
	call	cJSON_Delete
.LVL821:
	j	.L767
.LVL822:
.L746:
	.loc 1 719 2
	.loc 1 719 10 is_stmt 0
	lw	a0,32(s1)
	.loc 1 719 5
	beq	a0,zero,.L747
	.loc 1 719 21 is_stmt 1 discriminator 1
	.loc 1 719 37 is_stmt 0 discriminator 1
	call	cJSON_strdup
.LVL823:
	.loc 1 719 36 discriminator 1
	sw	a0,32(s0)
	.loc 1 719 65 is_stmt 1 discriminator 1
	.loc 1 719 68 is_stmt 0 discriminator 1
	beq	a0,zero,.L766
.L747:
	.loc 1 721 2 is_stmt 1
	.loc 1 721 5 is_stmt 0
	beq	s2,zero,.L742
	.loc 1 723 2 is_stmt 1
	.loc 1 723 6 is_stmt 0
	lw	s1,8(s1)
.LVL824:
	.loc 1 724 2 is_stmt 1
	.loc 1 710 24 is_stmt 0
	li	s2,0
.LVL825:
.L748:
	.loc 1 724 8
	beq	s1,zero,.L742
	.loc 1 726 3 is_stmt 1
	.loc 1 726 12 is_stmt 0
	li	a1,1
	mv	a0,s1
	call	cJSON_Duplicate
.LVL826:
	.loc 1 727 3 is_stmt 1
	.loc 1 727 6 is_stmt 0
	beq	a0,zero,.L766
	.loc 1 728 3 is_stmt 1
	.loc 1 728 6 is_stmt 0
	beq	s2,zero,.L750
	.loc 1 728 14 is_stmt 1 discriminator 1
	.loc 1 728 24 is_stmt 0 discriminator 1
	sw	a0,0(s2)
	.loc 1 728 48 discriminator 1
	sw	s2,4(a0)
	.loc 1 728 54 is_stmt 1 discriminator 1
.LVL827:
.L751:
	.loc 1 730 3
	.loc 1 730 7 is_stmt 0
	lw	s1,0(s1)
.LVL828:
	mv	s2,a0
	j	.L748
.LVL829:
.L750:
	.loc 1 729 9 is_stmt 1
	.loc 1 729 23 is_stmt 0
	sw	a0,8(s0)
	.loc 1 729 33 is_stmt 1
.LVL830:
	j	.L751
	.cfi_endproc
.LFE60:
	.size	cJSON_Duplicate, .-cJSON_Duplicate
	.section	.text.cJSON_Minify,"ax",@progbits
	.align	1
	.globl	cJSON_Minify
	.type	cJSON_Minify, @function
cJSON_Minify:
.LFB61:
	.loc 1 736 1
	.cfi_startproc
.LVL831:
	.loc 1 737 2
	.loc 1 738 2
	.loc 1 737 8 is_stmt 0
	mv	a5,a0
	.loc 1 740 6
	li	t4,32
	.loc 1 741 11
	li	t5,9
	.loc 1 742 11
	li	t6,13
	.loc 1 743 11
	li	a7,10
	.loc 1 744 11
	li	a1,47
	.loc 1 746 11
	li	a6,34
	.loc 1 746 73
	li	t1,92
	.loc 1 745 23
	li	t3,42
.LVL832:
.L769:
	.loc 1 738 9
	lbu	a4,0(a0)
	.loc 1 738 8
	bne	a4,zero,.L787
	.loc 1 749 2 is_stmt 1
	.loc 1 749 7 is_stmt 0
	sb	zero,0(a5)
	.loc 1 750 1
	ret
.L787:
	.loc 1 740 3 is_stmt 1
	.loc 1 740 6 is_stmt 0
	bne	a4,t4,.L770
.L802:
	.loc 1 743 25 is_stmt 1 discriminator 1
.LVL833:
	.loc 1 743 29 is_stmt 0 discriminator 1
	addi	a0,a0,1
.LVL834:
	j	.L769
.L770:
	.loc 1 741 8 is_stmt 1
	.loc 1 741 11 is_stmt 0
	beq	a4,t5,.L802
	.loc 1 742 8 is_stmt 1
	.loc 1 742 11 is_stmt 0
	beq	a4,t6,.L802
	.loc 1 743 8 is_stmt 1
	.loc 1 743 11 is_stmt 0
	beq	a4,a7,.L802
	.loc 1 744 8 is_stmt 1
	.loc 1 744 11 is_stmt 0
	bne	a4,a1,.L775
	.loc 1 744 30 discriminator 1
	lbu	a3,1(a0)
	.loc 1 744 23 discriminator 1
	bne	a3,a1,.L799
.L776:
	.loc 1 744 47 discriminator 3
	lbu	a4,0(a0)
	.loc 1 744 46 discriminator 3
	beq	a4,zero,.L769
	.loc 1 744 53 discriminator 4
	beq	a4,a7,.L769
	.loc 1 744 69 is_stmt 1 discriminator 5
.LVL835:
	.loc 1 744 73 is_stmt 0 discriminator 5
	addi	a0,a0,1
.LVL836:
	j	.L776
.L799:
	.loc 1 745 8 is_stmt 1 discriminator 1
	.loc 1 745 23 is_stmt 0 discriminator 1
	bne	a3,t3,.L780
.L779:
	.loc 1 745 48 discriminator 3
	lbu	a4,0(a0)
	.loc 1 745 47 discriminator 3
	beq	a4,zero,.L781
	lbu	a3,1(a0)
	.loc 1 745 54 discriminator 4
	bne	a4,t3,.L782
	.loc 1 745 57 discriminator 7
	bne	a3,a1,.L782
.L781:
	.loc 1 745 95 is_stmt 1 discriminator 9
.LVL837:
	.loc 1 745 99 is_stmt 0 discriminator 9
	addi	a0,a0,2
.LVL838:
	j	.L769
.L782:
	.loc 1 745 88 is_stmt 1 discriminator 8
.LVL839:
	.loc 1 745 92 is_stmt 0 discriminator 8
	addi	a0,a0,1
.LVL840:
	j	.L779
.L775:
	.loc 1 745 8 is_stmt 1
	.loc 1 746 8
	.loc 1 746 11 is_stmt 0
	bne	a4,a6,.L780
	addi	a3,a0,1
	addi	a4,a5,1
	.loc 1 746 25 is_stmt 1 discriminator 1
.LVL841:
	.loc 1 746 32 is_stmt 0 discriminator 1
	sb	a6,0(a5)
	.loc 1 746 41 is_stmt 1 discriminator 1
.LVL842:
.L783:
	.loc 1 746 48 is_stmt 0 discriminator 6
	lbu	a2,0(a3)
	addi	a0,a3,1
	addi	a5,a4,1
	.loc 1 746 47 discriminator 6
	beq	a2,zero,.L785
	.loc 1 746 54 discriminator 7
	bne	a2,a6,.L786
.L785:
	.loc 1 746 120 is_stmt 1 discriminator 10
.LVL843:
	.loc 1 746 127 is_stmt 0 discriminator 10
	sb	a2,0(a4)
	j	.L769
.LVL844:
.L786:
	.loc 1 746 70 is_stmt 1 discriminator 9
	.loc 1 746 73 is_stmt 0 discriminator 9
	bne	a2,t1,.L784
	.loc 1 746 87 is_stmt 1 discriminator 3
.LVL845:
	.loc 1 746 94 is_stmt 0 discriminator 3
	sb	t1,0(a4)
	mv	a3,a0
	mv	a4,a5
.LVL846:
.L784:
	.loc 1 746 103 is_stmt 1 discriminator 5
	.loc 1 746 111 is_stmt 0 discriminator 5
	lbu	a5,0(a3)
	.loc 1 746 108 discriminator 5
	addi	a4,a4,1
.LVL847:
	.loc 1 746 116 discriminator 5
	addi	a3,a3,1
.LVL848:
	.loc 1 746 110 discriminator 5
	sb	a5,-1(a4)
	j	.L783
.LVL849:
.L780:
	.loc 1 747 8 is_stmt 1
	.loc 1 747 15 is_stmt 0
	sb	a4,0(a5)
	.loc 1 747 21
	addi	a0,a0,1
.LVL850:
	.loc 1 747 13
	addi	a5,a5,1
.LVL851:
	j	.L769
	.cfi_endproc
.LFE61:
	.size	cJSON_Minify, .-cJSON_Minify
	.section	.rodata.parse_value.cst8,"aM",@progbits,8
	.align	3
.LC14:
	.word	0
	.word	-1074790400
.LC15:
	.word	0
	.word	1072693248
.LC19:
	.word	0
	.word	1076101120
	.section	.rodata.parse_value.str1.4,"aMS",@progbits,1
	.align	2
.LC16:
	.string	"null"
	.zero	3
.LC17:
	.string	"false"
	.zero	2
.LC18:
	.string	"true"
	.section	.rodata.print_array.isra.4.str1.4,"aMS",@progbits,1
	.align	2
.LC20:
	.string	"[]"
	.section	.rodata.print_number.cst8,"aM",@progbits,8
	.align	3
.LC1:
	.word	0
	.word	1018167296
.LC2:
	.word	4290772992
	.word	1105199103
.LC3:
	.word	0
	.word	-1042284544
.LC5:
	.word	3837981508
	.word	1281616356
.LC7:
	.word	2696277389
	.word	1051772663
.LC9:
	.word	0
	.word	1104006501
	.section	.rodata.print_number.str1.4,"aMS",@progbits,1
	.align	2
.LC0:
	.string	"0"
	.zero	2
.LC4:
	.string	"%d"
	.zero	1
.LC6:
	.string	"%.0f"
	.zero	3
.LC8:
	.string	"%e"
	.zero	1
.LC10:
	.string	"%f"
	.section	.rodata.print_string_ptr.str1.4,"aMS",@progbits,1
	.align	2
.LC11:
	.string	"\"\""
	.zero	1
.LC12:
	.string	"\"\\\b\f\n\r\t"
.LC13:
	.string	"u%04x"
	.section	.sbss.ep,"aw",@nobits
	.align	2
	.set	.LANCHOR0,. + 0
	.type	ep, @object
	.size	ep, 4
ep:
	.zero	4
	.section	.sdata.cJSON_free,"aw"
	.align	2
	.set	.LANCHOR3,. + 0
	.type	cJSON_free, @object
	.size	cJSON_free, 4
cJSON_free:
	.word	free
	.section	.sdata.cJSON_malloc,"aw"
	.align	2
	.set	.LANCHOR1,. + 0
	.type	cJSON_malloc, @object
	.size	cJSON_malloc, 4
cJSON_malloc:
	.word	malloc
	.section	.sdata2.firstByteMark,"a"
	.align	2
	.set	.LANCHOR2,. + 0
	.type	firstByteMark, @object
	.size	firstByteMark, 7
firstByteMark:
	.byte	0
	.byte	0
	.byte	-64
	.byte	-32
	.byte	-16
	.byte	-8
	.byte	-4
	.text
.Letext0:
	.file 2 "/b-l/bl_iot_sdk/toolchain/riscv/Linux/lib/gcc/riscv64-unknown-elf/8.3.0/include/stddef.h"
	.file 3 "/b-l/bl_iot_sdk/toolchain/riscv/Linux/riscv64-unknown-elf/include/sys/_types.h"
	.file 4 "/b-l/bl_iot_sdk/toolchain/riscv/Linux/riscv64-unknown-elf/include/sys/reent.h"
	.file 5 "/b-l/bl_iot_sdk/toolchain/riscv/Linux/riscv64-unknown-elf/include/sys/lock.h"
	.file 6 "/b-l/bl_iot_sdk/toolchain/riscv/Linux/riscv64-unknown-elf/include/math.h"
	.file 7 "/b-l/bl_iot_sdk/toolchain/riscv/Linux/riscv64-unknown-elf/include/stdlib.h"
	.file 8 "/b-l/bl_iot_sdk/toolchain/riscv/Linux/riscv64-unknown-elf/include/ctype.h"
	.file 9 "/b-l/DoHome_Light_rgbcw/DoHome_Light_rgbcw/components/cjson/include/cJSON.h"
	.file 10 "/b-l/bl_iot_sdk/toolchain/riscv/Linux/riscv64-unknown-elf/include/string.h"
	.file 11 "/b-l/bl_iot_sdk/toolchain/riscv/Linux/riscv64-unknown-elf/include/stdio.h"