	.file	"bl_romfs.c"
	.option nopic
	.attribute arch, "rv32i2p0_m2p0_f2p0_c2p0"
	.attribute unaligned_access, 0
	.attribute stack_align, 16
	.text
.Ltext0:
	.cfi_sections	.debug_frame
	.section	.text.dirent_type,"ax",@progbits
	.align	1
	.type	dirent_type, @function
dirent_type:
.LFB8:
	.file 1 "/home/hogc/build-tools/sdk/bl/bl_iot_sdk/components/fs/romfs/src/bl_romfs.c"
	.loc 1 158 1
	.cfi_startproc
.LVL0:
	.loc 1 159 5
	.loc 1 159 242 is_stmt 0
	lbu	a5,3(a0)
	.loc 1 159 251
	andi	a5,a5,7
	.loc 1 159 8
	beq	a5,zero,.L3
	.loc 1 161 12 is_stmt 1
	.loc 1 161 15 is_stmt 0
	li	a4,2
	.loc 1 162 16
	li	a0,2
.LVL1:
	.loc 1 161 15
	beq	a5,a4,.L1
	.loc 1 163 12 is_stmt 1
	.loc 1 163 15 is_stmt 0
	li	a4,1
	.loc 1 167 12
	li	a0,3
	.loc 1 163 15
	bne	a5,a4,.L1
	.loc 1 164 16
	li	a0,1
	ret
.LVL2:
.L3:
	.loc 1 160 16
	li	a0,0
.LVL3:
.L1:
	.loc 1 168 1
	ret
	.cfi_endproc
.LFE8:
	.size	dirent_type, .-dirent_type
	.section	.text.dirent_hardfh,"ax",@progbits
	.align	1
	.type	dirent_hardfh, @function
dirent_hardfh:
.LFB10:
	.loc 1 176 1 is_stmt 1
	.cfi_startproc
.LVL4:
	.loc 1 177 5
	.loc 1 177 16 is_stmt 0
	lw	a5,0(a0)
	.loc 1 177 122
	li	a3,16711680
	.loc 1 177 238
	srli	a4,a5,24
	.loc 1 177 63
	slli	a0,a5,24
.LVL5:
	.loc 1 177 186
	or	a0,a0,a4
	.loc 1 177 122
	slli	a4,a5,8
	and	a4,a4,a3
	.loc 1 177 186
	or	a0,a0,a4
	.loc 1 177 180
	li	a4,65536
	addi	a4,a4,-256
	srli	a5,a5,8
	and	a5,a5,a4
	.loc 1 177 186
	or	a0,a0,a5
	.loc 1 178 1
	andi	a0,a0,-16
	ret
	.cfi_endproc
.LFE10:
	.size	dirent_hardfh, .-dirent_hardfh
	.section	.text.dirent_childaddr,"ax",@progbits
	.align	1
	.type	dirent_childaddr, @function
dirent_childaddr:
.LFB11:
	.loc 1 181 1 is_stmt 1
	.cfi_startproc
.LVL6:
	.loc 1 182 5
	.loc 1 182 16 is_stmt 0
	lw	a5,4(a0)
	.loc 1 182 130
	li	a3,16711680
	.loc 1 182 254
	srli	a4,a5,24
	.loc 1 182 67
	slli	a0,a5,24
.LVL7:
	.loc 1 182 198
	or	a0,a0,a4
	.loc 1 182 130
	slli	a4,a5,8
	and	a4,a4,a3
	.loc 1 182 198
	or	a0,a0,a4
	.loc 1 182 192
	li	a4,65536
	addi	a4,a4,-256
	srli	a5,a5,8
	and	a5,a5,a4
	.loc 1 182 198
	or	a0,a0,a5
	.loc 1 183 1
	andi	a0,a0,-16
	ret
	.cfi_endproc
.LFE11:
	.size	dirent_childaddr, .-dirent_childaddr
	.section	.text.dirent_size,"ax",@progbits
	.align	1
	.type	dirent_size, @function
dirent_size:
.LFB12:
	.loc 1 186 1 is_stmt 1
	.cfi_startproc
.LVL8:
	.loc 1 187 5
	.loc 1 187 16 is_stmt 0
	lw	a5,8(a0)
	.loc 1 187 130
	li	a3,16711680
	.loc 1 187 254
	srli	a4,a5,24
	.loc 1 187 67
	slli	a0,a5,24
.LVL9:
	.loc 1 187 198
	or	a0,a0,a4
	.loc 1 187 130
	slli	a4,a5,8
	and	a4,a4,a3
	.loc 1 187 198
	or	a0,a0,a4
	.loc 1 187 192
	li	a4,65536
	addi	a4,a4,-256
	srli	a5,a5,8
	and	a5,a5,a4
	.loc 1 188 1
	or	a0,a0,a5
	ret
	.cfi_endproc
.LFE12:
	.size	dirent_size, .-dirent_size
	.section	.text.romfs_close,"ax",@progbits
	.align	1
	.type	romfs_close, @function
romfs_close:
.LFB16:
	.loc 1 376 1 is_stmt 1
	.cfi_startproc
.LVL10:
	.loc 1 377 5
	.loc 1 379 5
	.loc 1 379 15 is_stmt 0
	sw	zero,4(a0)
	.loc 1 380 5 is_stmt 1
	.loc 1 380 16 is_stmt 0
	sw	zero,8(a0)
	.loc 1 381 5 is_stmt 1
	.loc 1 382 1 is_stmt 0
	li	a0,-1
.LVL11:
	ret
	.cfi_endproc
.LFE16:
	.size	romfs_close, .-romfs_close
	.section	.text.romfs_ioctl,"ax",@progbits
	.align	1
	.globl	romfs_ioctl
	.type	romfs_ioctl, @function
romfs_ioctl:
.LFB18:
	.loc 1 415 1 is_stmt 1
	.cfi_startproc
.LVL12:
	.loc 1 416 5
	.loc 1 417 5
	.loc 1 419 5
	.loc 1 420 16 is_stmt 0
	li	a5,-2
	.loc 1 419 8
	beq	a0,zero,.L16
	.loc 1 419 21 discriminator 1
	beq	a2,zero,.L16
	.loc 1 422 5 is_stmt 1
	li	a4,1
	.loc 1 437 12 is_stmt 0
	li	a5,-3
	.loc 1 422 5
	bne	a1,a4,.L16
	.loc 1 415 1
	addi	sp,sp,-16
	.cfi_def_cfa_offset 16
	sw	ra,12(sp)
	sw	s0,8(sp)
	sw	s1,4(sp)
	sw	s2,0(sp)
	.cfi_offset 1, -4
	.cfi_offset 8, -8
	.cfi_offset 9, -12
	.cfi_offset 18, -16
	.loc 1 426 39
	lw	s2,4(a0)
	mv	s1,a0
	.loc 1 425 13 is_stmt 1
	.loc 1 426 13
	mv	s0,a2
	.loc 1 426 53 is_stmt 0
	addi	a0,s2,16
.LVL13:
	call	strlen
.LVL14:
	.loc 1 426 90
	addi	a0,a0,16
	.loc 1 426 94
	andi	a0,a0,-16
	.loc 1 426 100
	addi	a0,a0,16
	add	a0,s2,a0
	.loc 1 426 26
	sw	a0,0(s0)
	.loc 1 427 13 is_stmt 1
	.loc 1 427 33 is_stmt 0
	lw	a0,4(s1)
	call	dirent_size
.LVL15:
	.loc 1 427 31
	sw	a0,4(s0)
	.loc 1 428 13 is_stmt 1
	.loc 1 438 1 is_stmt 0
	lw	ra,12(sp)
	.cfi_restore 1
	lw	s0,8(sp)
	.cfi_restore 8
.LVL16:
	.loc 1 428 20
	li	a5,0
	.loc 1 438 1
	lw	s1,4(sp)
	.cfi_restore 9
.LVL17:
	lw	s2,0(sp)
	.cfi_restore 18
	mv	a0,a5
	addi	sp,sp,16
	.cfi_def_cfa_offset 0
	jr	ra
.LVL18:
.L16:
	mv	a0,a5
.LVL19:
	ret
	.cfi_endproc
.LFE18:
	.size	romfs_ioctl, .-romfs_ioctl
	.section	.text.romfs_read,"ax",@progbits
	.align	1
	.type	romfs_read, @function
romfs_read:
.LFB17:
	.loc 1 385 1 is_stmt 1
	.cfi_startproc
.LVL20:
	.loc 1 386 5
	.loc 1 387 5
	.loc 1 388 5
	.loc 1 391 5
	.loc 1 385 1 is_stmt 0
	addi	sp,sp,-32
	.cfi_def_cfa_offset 32
	sw	ra,28(sp)
	sw	s0,24(sp)
	sw	s1,20(sp)
	sw	s2,16(sp)
	sw	s5,4(sp)
	sw	s3,12(sp)
	sw	s4,8(sp)
	.cfi_offset 1, -4
	.cfi_offset 8, -8
	.cfi_offset 9, -12
	.cfi_offset 18, -16
	.cfi_offset 21, -28
	.cfi_offset 19, -20
	.cfi_offset 20, -24
	.loc 1 391 30
	lw	s3,4(a0)
	.loc 1 385 1
	mv	s2,a0
	mv	s0,a2
	.loc 1 391 44
	addi	a0,s3,16
.LVL21:
	.loc 1 385 1
	mv	s5,a1
	.loc 1 391 44
	call	strlen
.LVL22:
	mv	s1,a0
.LVL23:
	.loc 1 392 5 is_stmt 1
	.loc 1 392 20 is_stmt 0
	lw	a0,4(s2)
	call	dirent_size
.LVL24:
	.loc 1 395 5 is_stmt 1
	.loc 1 395 11 is_stmt 0
	lw	a2,8(s2)
	.loc 1 395 8
	bgeu	a2,a0,.L22
	.loc 1 391 81
	addi	a1,s1,16
.LVL25:
	.loc 1 391 85
	andi	a1,a1,-16
.LVL26:
	.loc 1 391 91
	addi	a1,a1,16
	add	a1,a1,a2
	.loc 1 401 21
	add	a5,a2,s0
	mv	s4,a0
	.loc 1 401 5 is_stmt 1
	add	a1,s3,a1
	.loc 1 401 8 is_stmt 0
	bgeu	a5,a0,.L21
	.loc 1 402 9 is_stmt 1
.LVL27:
	.loc 1 403 9
	mv	a2,s0
	mv	a0,s5
.LVL28:
	call	memcpy
.LVL29:
	.loc 1 404 9
	.loc 1 404 20 is_stmt 0
	lw	a5,8(s2)
	add	a5,a5,s0
	sw	a5,8(s2)
.LVL30:
.L19:
	.loc 1 412 1
	mv	a0,s0
	lw	ra,28(sp)
	.cfi_remember_state
	.cfi_restore 1
	lw	s0,24(sp)
	.cfi_restore 8
	lw	s1,20(sp)
	.cfi_restore 9
.LVL31:
	lw	s2,16(sp)
	.cfi_restore 18
.LVL32:
	lw	s3,12(sp)
	.cfi_restore 19
	lw	s4,8(sp)
	.cfi_restore 20
	lw	s5,4(sp)
	.cfi_restore 21
.LVL33:
	addi	sp,sp,32
	.cfi_def_cfa_offset 0
	jr	ra
.LVL34:
.L21:
	.cfi_restore_state
	.loc 1 406 9 is_stmt 1
	.loc 1 406 28 is_stmt 0
	sub	s0,a0,a2
.LVL35:
	.loc 1 407 9 is_stmt 1
	mv	a2,s0
	mv	a0,s5
.LVL36:
	call	memcpy
.LVL37:
	.loc 1 408 9
	.loc 1 408 20 is_stmt 0
	sw	s4,8(s2)
	j	.L19
.LVL38:
.L22:
	.loc 1 397 16
	li	s0,0
.LVL39:
	j	.L19
	.cfi_endproc
.LFE17:
	.size	romfs_read, .-romfs_read
	.section	.text.file_info,"ax",@progbits
	.align	1
	.type	file_info, @function
file_info:
.LFB13:
	.loc 1 191 1 is_stmt 1
	.cfi_startproc
.LVL40:
	.loc 1 192 5
	.loc 1 191 1 is_stmt 0
	addi	sp,sp,-64
	.cfi_def_cfa_offset 64
	sw	s2,48(sp)
	sw	s4,40(sp)
	sw	s5,36(sp)
	sw	ra,60(sp)
	sw	s0,56(sp)
	sw	s1,52(sp)
	sw	s3,44(sp)
	sw	s6,32(sp)
	sw	s7,28(sp)
	sw	s8,24(sp)
	.cfi_offset 18, -16
	.cfi_offset 20, -24
	.cfi_offset 21, -28
	.cfi_offset 1, -4
	.cfi_offset 8, -8
	.cfi_offset 9, -12
	.cfi_offset 19, -20
	.cfi_offset 22, -32
	.cfi_offset 23, -36
	.cfi_offset 24, -40
	.loc 1 191 1
	mv	s2,a0
	mv	s5,a1
	mv	s4,a2
	.loc 1 192 11
	lw	s0,0(a1)
.LVL41:
	.loc 1 193 5 is_stmt 1
	.loc 1 193 11 is_stmt 0
	lw	s1,0(a2)
.LVL42:
	.loc 1 194 5 is_stmt 1
	.loc 1 196 5
	.loc 1 199 5
	.loc 1 199 16 is_stmt 0
	call	strlen
.LVL43:
	.loc 1 199 8
	li	a5,64
	bgtu	a0,a5,.L38
	.loc 1 204 5 is_stmt 1
	.loc 1 205 5
	.loc 1 205 20 is_stmt 0
	lui	s3,%hi(.LANCHOR0)
	lw	a5,%lo(.LANCHOR0)(s3)
	addi	s3,s3,%lo(.LANCHOR0)
	.loc 1 205 8
	bne	a5,s0,.L26
	.loc 1 206 9 is_stmt 1
	.loc 1 206 47 is_stmt 0
	addi	a0,s0,16
	call	strlen
.LVL44:
	.loc 1 206 75
	addi	a0,a0,16
	.loc 1 206 79
	andi	a0,a0,-16
	.loc 1 206 90
	addi	a0,a0,80
	.loc 1 206 20
	add	s0,s0,a0
.LVL45:
.L26:
	.loc 1 211 12
	li	s7,1
	.loc 1 222 19
	li	s8,2
.L35:
	.loc 1 209 5 is_stmt 1
	.loc 1 210 5
	.loc 1 211 9
	.loc 1 211 18 is_stmt 0
	mv	a0,s0
	call	dirent_type
.LVL46:
	.loc 1 211 12
	bne	a0,s7,.L27
	.loc 1 212 13 is_stmt 1
	.loc 1 212 22 is_stmt 0
	mv	a0,s2
	call	strlen
.LVL47:
	mv	a2,a0
	addi	a1,s0,16
	mv	a0,s2
	call	memcmp
.LVL48:
	.loc 1 212 16
	bne	a0,zero,.L28
	.loc 1 213 17 is_stmt 1
	.loc 1 213 37 is_stmt 0
	mv	a0,s2
	call	strlen
.LVL49:
	.loc 1 213 31
	add	a0,s0,a0
	.loc 1 213 20
	lbu	a5,16(a0)
	bne	a5,zero,.L28
	.loc 1 214 21 is_stmt 1
	.loc 1 214 30 is_stmt 0
	mv	a0,s0
	call	dirent_hardfh
.LVL50:
	.loc 1 214 24
	beq	a0,zero,.L29
	.loc 1 217 21 is_stmt 1
	.loc 1 217 30 is_stmt 0
	lw	s1,0(s3)
.LVL51:
.L48:
	.loc 1 225 30
	add	s1,s1,a0
.LVL52:
	.loc 1 226 21 is_stmt 1
.L29:
	.loc 1 244 5
	.loc 1 246 5
	.loc 1 246 25 is_stmt 0
	sw	s0,0(s5)
	.loc 1 247 5 is_stmt 1
	.loc 1 247 23 is_stmt 0
	sw	s1,0(s4)
	.loc 1 248 5 is_stmt 1
	.loc 1 248 12 is_stmt 0
	li	a0,0
.LVL53:
.L24:
	.loc 1 249 1
	lw	ra,60(sp)
	.cfi_remember_state
	.cfi_restore 1
	lw	s0,56(sp)
	.cfi_restore 8
.LVL54:
	lw	s1,52(sp)
	.cfi_restore 9
	lw	s2,48(sp)
	.cfi_restore 18
	lw	s3,44(sp)
	.cfi_restore 19
	lw	s4,40(sp)
	.cfi_restore 20
.LVL55:
	lw	s5,36(sp)
	.cfi_restore 21
.LVL56:
	lw	s6,32(sp)
	.cfi_restore 22
	lw	s7,28(sp)
	.cfi_restore 23
	lw	s8,24(sp)
	.cfi_restore 24
	addi	sp,sp,64
	.cfi_def_cfa_offset 0
	jr	ra
.LVL57:
.L27:
	.cfi_restore_state
	.loc 1 222 16 is_stmt 1
	.loc 1 222 19 is_stmt 0
	bne	a0,s8,.L30
	.loc 1 223 13 is_stmt 1
	.loc 1 223 22 is_stmt 0
	mv	a0,s2
	call	strlen
.LVL58:
	mv	a2,a0
	addi	a1,s0,16
	mv	a0,s2
	call	memcmp
.LVL59:
	.loc 1 223 16
	bne	a0,zero,.L28
	.loc 1 224 17 is_stmt 1
	.loc 1 224 37 is_stmt 0
	mv	a0,s2
	call	strlen
.LVL60:
	.loc 1 224 31
	add	a0,s0,a0
	.loc 1 224 20
	lbu	a5,16(a0)
	bne	a5,zero,.L28
	.loc 1 225 21 is_stmt 1
	.loc 1 225 45 is_stmt 0
	mv	a0,s0
	.loc 1 225 43
	lw	s1,0(s3)
.LVL61:
	.loc 1 225 45
	call	dirent_hardfh
.LVL62:
	j	.L48
.LVL63:
.L30:
	.loc 1 229 16 is_stmt 1
	.loc 1 229 19 is_stmt 0
	beq	a0,zero,.L28
	.loc 1 230 13 is_stmt 1
	.loc 1 230 18
	.loc 1 230 20
.LBB156:
.LBB157:
	.file 2 "/home/hogc/build-tools/sdk/bl/bl_iot_sdk/components/bl602/freertos_riscv_ram/portable/GCC/RISC-V/portmacro.h"
	.loc 2 151 5
	.loc 2 151 31 is_stmt 0
	lui	a5,%hi(TrapNetCounter)
.LBE157:
.LBE156:
	.loc 1 230 20
	lw	a4,%lo(TrapNetCounter)(a5)
	mv	s3,a5
	beq	a4,zero,.L31
	.loc 1 230 133 discriminator 1
	call	xTaskGetTickCountFromISR
.LVL64:
.L47:
	sw	a0,12(sp)
	.loc 1 230 20 discriminator 2
	mv	a0,s0
	call	dirent_type
.LVL65:
	lw	a1,12(sp)
	mv	a6,a0
	lui	s1,%hi(.LC8)
.LVL66:
	lui	s2,%hi(.LC9)
.LVL67:
	lui	a0,%hi(.LC10)
	mv	a5,s0
	li	a4,230
	addi	a3,s1,%lo(.LC8)
	addi	a2,s2,%lo(.LC9)
	addi	a0,a0,%lo(.LC10)
	call	bl_printk
.LVL68:
	.loc 1 230 266 is_stmt 1 discriminator 2
	.loc 1 231 13 discriminator 2
	li	a4,0
	li	a3,8
	mv	a2,s0
	li	a1,231
	addi	a0,s1,%lo(.LC8)
	call	log_buf_out
.LVL69:
	.loc 1 232 13 discriminator 2
	.loc 1 232 18 discriminator 2
	.loc 1 232 20 discriminator 2
.LBB158:
.LBB159:
	.loc 2 151 5 discriminator 2
.LBE159:
.LBE158:
	.loc 1 232 20 is_stmt 0 discriminator 2
	lw	a5,%lo(TrapNetCounter)(s3)
	beq	a5,zero,.L33
	.loc 1 232 111 discriminator 1
	call	xTaskGetTickCountFromISR
.LVL70:
.L34:
	.loc 1 232 20 discriminator 4
	mv	a1,a0
	lui	a0,%hi(.LC11)
	li	a4,232
	addi	a3,s1,%lo(.LC8)
	addi	a2,s2,%lo(.LC9)
	addi	a0,a0,%lo(.LC11)
	call	bl_printk
.LVL71:
	.loc 1 232 207 is_stmt 1 discriminator 4
	.loc 1 233 13 discriminator 4
.L38:
	.loc 1 200 16 is_stmt 0
	li	a0,-1
	j	.L24
.LVL72:
.L31:
	.loc 1 230 162 discriminator 2
	call	xTaskGetTickCount
.LVL73:
	j	.L47
.LVL74:
.L33:
	.loc 1 232 140 discriminator 2
	call	xTaskGetTickCount
.LVL75:
	j	.L34
.LVL76:
.L28:
	.loc 1 236 9 is_stmt 1
	.loc 1 237 9
	.loc 1 237 33 is_stmt 0
	lw	s6,0(s3)
	.loc 1 237 35
	mv	a0,s0
	call	dirent_hardfh
.LVL77:
	.loc 1 237 20
	add	s0,s6,a0
.LVL78:
	.loc 1 238 9 is_stmt 1
	.loc 1 238 12 is_stmt 0
	bgtu	s1,s0,.L35
	.loc 1 239 13 is_stmt 1
	.loc 1 239 18
	.loc 1 239 20
.LBB160:
.LBB161:
	.loc 2 151 5
	.loc 2 151 31 is_stmt 0
	lui	a5,%hi(TrapNetCounter)
.LBE161:
.LBE160:
	.loc 1 239 20
	lw	a5,%lo(TrapNetCounter)(a5)
	beq	a5,zero,.L36
	.loc 1 239 153 discriminator 1
	call	xTaskGetTickCountFromISR
.LVL79:
.L37:
	.loc 1 239 20 discriminator 4
	mv	a1,a0
	lui	a3,%hi(.LC8)
	lui	a2,%hi(.LC12)
	lui	a0,%hi(.LC13)
	mv	a7,s1
	mv	a6,s0
	mv	a5,s2
	li	a4,239
	addi	a3,a3,%lo(.LC8)
	addi	a2,a2,%lo(.LC12)
	addi	a0,a0,%lo(.LC13)
	call	bl_printk
.LVL80:
	.loc 1 239 277 is_stmt 1 discriminator 4
	.loc 1 240 13 discriminator 4
	j	.L38
.L36:
	.loc 1 239 182 is_stmt 0 discriminator 2
	call	xTaskGetTickCount
.LVL81:
	j	.L37
	.cfi_endproc
.LFE13:
	.size	file_info, .-file_info
	.section	.text.romfs_closedir,"ax",@progbits
	.align	1
	.type	romfs_closedir, @function
romfs_closedir:
.LFB23:
	.loc 1 623 1 is_stmt 1
	.cfi_startproc
.LVL82:
	.loc 1 624 5
	.loc 1 626 5
	.loc 1 626 8 is_stmt 0
	beq	a1,zero,.L52
	.loc 1 623 1
	addi	sp,sp,-16
	.cfi_def_cfa_offset 16
	mv	a0,a1
.LVL83:
	.loc 1 630 5 is_stmt 1
	.loc 1 623 1 is_stmt 0
	sw	ra,12(sp)
	.cfi_offset 1, -4
	.loc 1 630 5
	call	aos_free
.LVL84:
	.loc 1 631 5 is_stmt 1
	.loc 1 632 1 is_stmt 0
	lw	ra,12(sp)
	.cfi_restore 1
	.loc 1 631 12
	li	a0,0
	.loc 1 632 1
	addi	sp,sp,16
	.cfi_def_cfa_offset 0
	jr	ra
.LVL85:
.L52:
	li	a0,-1
.LVL86:
	ret
	.cfi_endproc
.LFE23:
	.size	romfs_closedir, .-romfs_closedir
	.section	.text.romfs_lseek,"ax",@progbits
	.align	1
	.type	romfs_lseek, @function
romfs_lseek:
.LFB19:
	.loc 1 441 1 is_stmt 1
	.cfi_startproc
.LVL87:
	.loc 1 442 5
	.loc 1 443 5
	.loc 1 445 5
	.loc 1 441 1 is_stmt 0
	addi	sp,sp,-32
	.cfi_def_cfa_offset 32
	sw	a1,12(sp)
	sw	ra,28(sp)
	sw	s0,24(sp)
	.cfi_offset 1, -4
	.cfi_offset 8, -8
	.loc 1 441 1
	sw	a2,8(sp)
	.loc 1 446 16
	li	a1,-1
.LVL88:
	.loc 1 445 8
	beq	a0,zero,.L58
	mv	s0,a0
	.loc 1 449 5 is_stmt 1
	.loc 1 449 20 is_stmt 0
	lw	a0,4(a0)
.LVL89:
	call	dirent_size
.LVL90:
	.loc 1 451 5 is_stmt 1
	.loc 1 451 8 is_stmt 0
	lw	a2,8(sp)
	lw	a1,12(sp)
	bne	a2,zero,.L59
	.loc 1 452 9 is_stmt 1
	.loc 1 452 12 is_stmt 0
	bge	a1,zero,.L60
	.loc 1 453 13 is_stmt 1
	lui	a0,%hi(.LC14)
.LVL91:
	addi	a0,a0,%lo(.LC14)
	call	printf
.LVL92:
	.loc 1 454 13
	.loc 1 454 20 is_stmt 0
	li	a1,-2
.LVL93:
.L58:
	.loc 1 478 1
	lw	ra,28(sp)
	.cfi_remember_state
	.cfi_restore 1
	lw	s0,24(sp)
	.cfi_restore 8
	mv	a0,a1
	addi	sp,sp,32
	.cfi_def_cfa_offset 0
.LVL94:
	jr	ra
.LVL95:
.L59:
	.cfi_restore_state
	.loc 1 457 12 is_stmt 1
	.loc 1 457 15 is_stmt 0
	li	a5,2
	bne	a2,a5,.L61
	.loc 1 458 9 is_stmt 1
	.loc 1 458 12 is_stmt 0
	ble	a1,zero,.L62
	.loc 1 459 13 is_stmt 1
	lui	a0,%hi(.LC14)
.LVL96:
	addi	a0,a0,%lo(.LC14)
	call	printf
.LVL97:
	.loc 1 460 13
	.loc 1 460 20 is_stmt 0
	li	a1,-3
	j	.L58
.LVL98:
.L62:
	.loc 1 462 9 is_stmt 1
	.loc 1 462 19 is_stmt 0
	add	a1,a1,a0
.LVL99:
.L63:
	.loc 1 470 5 is_stmt 1
	.loc 1 470 8 is_stmt 0
	blt	a1,zero,.L65
.LVL100:
.L60:
	.loc 1 470 19 discriminator 1
	bleu	a1,a0,.L66
.L65:
	.loc 1 471 9 is_stmt 1
	lui	a0,%hi(.LC14)
.LVL101:
	addi	a0,a0,%lo(.LC14)
	call	printf
.LVL102:
	.loc 1 472 9
	.loc 1 472 16 is_stmt 0
	li	a1,-5
	j	.L58
.LVL103:
.L61:
	.loc 1 463 12 is_stmt 1
	.loc 1 463 15 is_stmt 0
	li	a5,1
	bne	a2,a5,.L64
	.loc 1 464 9 is_stmt 1
	.loc 1 464 19 is_stmt 0
	lw	a5,8(s0)
	add	a1,a1,a5
.LVL104:
	j	.L63
.LVL105:
.L64:
	.loc 1 466 9 is_stmt 1
	lui	a0,%hi(.LC14)
.LVL106:
	addi	a0,a0,%lo(.LC14)
	call	printf
.LVL107:
	.loc 1 467 9
	.loc 1 467 16 is_stmt 0
	li	a1,-4
	j	.L58
.LVL108:
.L66:
	.loc 1 475 5 is_stmt 1
	.loc 1 475 16 is_stmt 0
	sw	a1,8(s0)
	.loc 1 477 5 is_stmt 1
	.loc 1 477 14 is_stmt 0
	j	.L58
	.cfi_endproc
.LFE19:
	.size	romfs_lseek, .-romfs_lseek
	.section	.text.romfs_readdir,"ax",@progbits
	.align	1
	.type	romfs_readdir, @function
romfs_readdir:
.LFB22:
	.loc 1 559 1 is_stmt 1
	.cfi_startproc
.LVL109:
	.loc 1 560 5
	.loc 1 562 5
	.loc 1 562 8 is_stmt 0
	beq	a1,zero,.L91
	.loc 1 559 1
	addi	sp,sp,-48
	.cfi_def_cfa_offset 48
	sw	s2,32(sp)
	sw	s3,28(sp)
	sw	s4,24(sp)
	.cfi_offset 18, -16
	.cfi_offset 19, -20
	.cfi_offset 20, -24
.LBB164:
.LBB165:
	.loc 1 610 49
	li	s3,16777216
	.loc 1 610 12
	li	s4,3026944
	.loc 1 610 125
	li	s2,12288
.LBE165:
.LBE164:
	.loc 1 559 1
	sw	s0,40(sp)
	sw	s5,20(sp)
	sw	s6,16(sp)
	sw	ra,44(sp)
	sw	s1,36(sp)
	sw	s7,12(sp)
	sw	s8,8(sp)
	sw	s9,4(sp)
	sw	s10,0(sp)
	.cfi_offset 8, -8
	.cfi_offset 21, -28
	.cfi_offset 22, -32
	.cfi_offset 1, -4
	.cfi_offset 9, -12
	.cfi_offset 23, -36
	.cfi_offset 24, -40
	.cfi_offset 25, -44
	.cfi_offset 26, -48
	mv	s0,a1
.LBB168:
.LBB166:
	.loc 1 593 51
	lui	s5,%hi(.LANCHOR0)
	.loc 1 599 31
	addi	s6,a1,25
	.loc 1 610 49
	addi	s3,s3,-256
	.loc 1 610 12
	addi	s4,s4,-512
	.loc 1 610 125
	addi	s2,s2,-512
.LVL110:
.L85:
	.loc 1 566 5 is_stmt 1
	.loc 1 568 9
	.loc 1 568 22 is_stmt 0
	lw	a5,16(s0)
	.loc 1 568 12
	bne	a5,zero,.L72
	.loc 1 569 13 is_stmt 1
	.loc 1 569 30 is_stmt 0
	lw	a5,8(s0)
	sw	a5,16(s0)
.L73:
	.loc 1 598 9 is_stmt 1
	.loc 1 599 9
	.loc 1 599 57 is_stmt 0
	lw	a1,16(s0)
	.loc 1 599 9
	li	a2,64
	mv	a0,s6
	addi	a1,a1,16
	call	strncpy
.LVL111:
	.loc 1 600 9 is_stmt 1
	.loc 1 603 18 is_stmt 0
	lw	a0,16(s0)
	.loc 1 600 37
	sb	zero,89(s0)
	.loc 1 601 9 is_stmt 1
	.loc 1 603 9
	.loc 1 603 18 is_stmt 0
	call	dirent_hardfh
.LVL112:
	.loc 1 603 12
	bne	a0,zero,.L76
	.loc 1 604 13 is_stmt 1
	.loc 1 604 34 is_stmt 0
	lw	a0,12(s0)
.L77:
	.loc 1 610 49
	lw	a5,24(s0)
	sw	a0,16(s0)
	.loc 1 610 9 is_stmt 1
	.loc 1 610 49 is_stmt 0
	and	a5,a5,s3
	.loc 1 610 12
	bne	a5,s4,.L78
	.loc 1 610 86
	lbu	a5,27(s0)
	beq	a5,zero,.L85
.L79:
	.loc 1 619 5 is_stmt 1
	.loc 1 619 12 is_stmt 0
	addi	a0,s0,20
	j	.L69
.L74:
.LBE166:
.LBE168:
	.loc 1 563 15
	li	a0,0
.L69:
	.loc 1 620 1
	lw	ra,44(sp)
	.cfi_remember_state
	.cfi_restore 1
	lw	s0,40(sp)
	.cfi_restore 8
.LVL113:
	lw	s1,36(sp)
	.cfi_restore 9
	lw	s2,32(sp)
	.cfi_restore 18
	lw	s3,28(sp)
	.cfi_restore 19
	lw	s4,24(sp)
	.cfi_restore 20
	lw	s5,20(sp)
	.cfi_restore 21
	lw	s6,16(sp)
	.cfi_restore 22
.LVL114:
	lw	s7,12(sp)
	.cfi_restore 23
	lw	s8,8(sp)
	.cfi_restore 24
	lw	s9,4(sp)
	.cfi_restore 25
	lw	s10,0(sp)
	.cfi_restore 26
	addi	sp,sp,48
	.cfi_def_cfa_offset 0
	jr	ra
.LVL115:
.L72:
	.cfi_restore_state
.LBB169:
.LBB167:
	.loc 1 571 13 is_stmt 1
	.loc 1 571 39 is_stmt 0
	lw	s8,12(s0)
	.loc 1 571 16
	bgeu	a5,s8,.L74
	.loc 1 593 51
	lw	s9,%lo(.LANCHOR0)(s5)
	.loc 1 588 24
	li	s10,1
.L75:
	.loc 1 574 17 is_stmt 1
	.loc 1 575 21
	.loc 1 575 28 is_stmt 0
	lw	s7,16(s0)
	.loc 1 575 24
	bleu	s8,s7,.L74
	.loc 1 580 21 is_stmt 1
	.loc 1 580 30 is_stmt 0
	mv	a0,s7
	call	dirent_hardfh
.LVL116:
	mv	s1,a0
	.loc 1 580 24
	beq	a0,zero,.L73
	.loc 1 584 21 is_stmt 1
	.loc 1 585 21
	.loc 1 585 24 is_stmt 0
	beq	s7,zero,.L74
	.loc 1 588 21 is_stmt 1
	.loc 1 588 31 is_stmt 0
	mv	a0,s7
	call	dirent_type
.LVL117:
	.loc 1 588 24
	addi	a0,a0,-1
	bleu	a0,s10,.L73
	.loc 1 593 21 is_stmt 1
	.loc 1 593 51 is_stmt 0
	add	s1,s9,s1
	.loc 1 593 38
	sw	s1,16(s0)
	j	.L75
.L76:
	.loc 1 606 13 is_stmt 1
	.loc 1 606 43 is_stmt 0
	lw	a5,%lo(.LANCHOR0)(s5)
	add	a0,a5,a0
	j	.L77
.L78:
	.loc 1 610 125
	bne	a5,s2,.L79
	j	.L85
.LVL118:
.L91:
	.cfi_def_cfa_offset 0
	.cfi_restore 1
	.cfi_restore 8
	.cfi_restore 9
	.cfi_restore 18
	.cfi_restore 19
	.cfi_restore 20
	.cfi_restore 21
	.cfi_restore 22
	.cfi_restore 23
	.cfi_restore 24
	.cfi_restore 25
	.cfi_restore 26
.LBE167:
.LBE169:
	.loc 1 563 15
	li	a0,0
.LVL119:
	.loc 1 620 1
	ret
	.cfi_endproc
.LFE22:
	.size	romfs_readdir, .-romfs_readdir
	.section	.text.dirent_file,"ax",@progbits
	.align	1
	.globl	dirent_file
	.type	dirent_file, @function
dirent_file:
.LFB14:
	.loc 1 257 1 is_stmt 1
	.cfi_startproc
.LVL120:
	.loc 1 258 5
	.loc 1 259 5
	.loc 1 261 5
	.loc 1 262 5
	.loc 1 263 5
	.loc 1 264 5
	.loc 1 266 5
	.loc 1 269 5
	.loc 1 257 1 is_stmt 0
	addi	sp,sp,-128
	.cfi_def_cfa_offset 128
	sw	s0,120(sp)
	sw	s1,116(sp)
	sw	s2,112(sp)
	sw	s3,108(sp)
	sw	s4,104(sp)
	sw	ra,124(sp)
	sw	s5,100(sp)
	sw	s6,96(sp)
	sw	s7,92(sp)
	.cfi_offset 8, -8
	.cfi_offset 9, -12
	.cfi_offset 18, -16
	.cfi_offset 19, -20
	.cfi_offset 20, -24
	.cfi_offset 1, -4
	.cfi_offset 21, -28
	.cfi_offset 22, -32
	.cfi_offset 23, -36
	.loc 1 257 1
	mv	s0,a0
	mv	s2,a1
	mv	s1,a2
	.loc 1 269 24
	lui	s3,%hi(.LC15)
	.loc 1 269 9
	call	strlen
.LVL121:
	mv	s4,a0
	.loc 1 269 24
	addi	a0,s3,%lo(.LC15)
	call	strlen
.LVL122:
	.loc 1 269 8
	bltu	s4,a0,.L116
	.loc 1 273 5 is_stmt 1
	.loc 1 276 5
	.loc 1 276 14 is_stmt 0
	addi	a0,s3,%lo(.LC15)
	call	strlen
.LVL123:
	mv	a2,a0
	addi	a1,s3,%lo(.LC15)
	mv	a0,s0
	call	memcmp
.LVL124:
	.loc 1 276 8
	beq	a0,zero,.L96
	.loc 1 277 9 is_stmt 1
	.loc 1 277 14
	.loc 1 277 16
.LBB186:
.LBB187:
	.loc 2 151 5
	.loc 2 151 31 is_stmt 0
	lui	a5,%hi(TrapNetCounter)
.LBE187:
.LBE186:
	.loc 1 277 16
	lw	a5,%lo(TrapNetCounter)(a5)
	beq	a5,zero,.L97
	.loc 1 277 101 discriminator 1
	call	xTaskGetTickCountFromISR
.LVL125:
.L98:
	.loc 1 277 16 discriminator 4
	li	a4,277
.LVL126:
.L128:
.LBB188:
.LBB189:
	.loc 1 282 16
	lui	a3,%hi(.LC8)
	lui	a2,%hi(.LC9)
	mv	a1,a0
	lui	a0,%hi(.LC16)
	addi	a3,a3,%lo(.LC8)
	addi	a2,a2,%lo(.LC9)
	addi	a0,a0,%lo(.LC16)
.L129:
	call	bl_printk
.LVL127:
	.loc 1 282 197 is_stmt 1
	.loc 1 283 9
.L116:
.LBE189:
.LBE188:
	.loc 1 270 15 is_stmt 0
	li	a0,-1
	j	.L94
.LVL128:
.L97:
	.loc 1 277 130 discriminator 2
	call	xTaskGetTickCount
.LVL129:
	j	.L98
.L96:
.LVL130:
.LBB206:
.LBB204:
	.loc 1 280 5 is_stmt 1
	.loc 1 280 21 is_stmt 0
	addi	a0,s3,%lo(.LC15)
	call	strlen
.LVL131:
	.loc 1 280 12
	add	s0,s0,a0
.LVL132:
	.loc 1 281 5 is_stmt 1
	.loc 1 281 10 is_stmt 0
	lbu	a5,0(s0)
	.loc 1 281 8
	li	a4,47
	beq	a5,a4,.L99
	.loc 1 281 26
	beq	a5,zero,.L100
	.loc 1 282 9 is_stmt 1
	.loc 1 282 14
	.loc 1 282 16
.LBB190:
.LBB191:
	.loc 2 151 5
	.loc 2 151 31 is_stmt 0
	lui	a5,%hi(TrapNetCounter)
.LBE191:
.LBE190:
	.loc 1 282 16
	lw	a5,%lo(TrapNetCounter)(a5)
	beq	a5,zero,.L101
	.loc 1 282 101
	call	xTaskGetTickCountFromISR
.LVL133:
.L102:
	.loc 1 282 16
	li	a4,282
	j	.L128
.L101:
	.loc 1 282 130
	call	xTaskGetTickCount
.LVL134:
	j	.L102
.L99:
	.loc 1 285 5 is_stmt 1
	.loc 1 286 9
	.loc 1 286 16 is_stmt 0
	addi	s0,s0,1
.LVL135:
.L100:
	.loc 1 290 5 is_stmt 1
	.loc 1 290 16 is_stmt 0
	lui	a2,%hi(.LANCHOR0)
	lw	a3,%lo(.LANCHOR0)(a2)
.LBB192:
.LBB193:
	.loc 1 172 166
	li	a0,16711680
.LBE193:
.LBE192:
	.loc 1 264 10
	li	s4,0
.LBB196:
.LBB194:
	.loc 1 172 40
	lw	a5,8(a3)
.LBE194:
.LBE196:
	.loc 1 290 16
	sw	a3,4(sp)
	.loc 1 291 5 is_stmt 1
.LBB197:
.LBB195:
	.loc 1 172 5
	addi	s3,a2,%lo(.LANCHOR0)
	.loc 1 172 302 is_stmt 0
	srli	a1,a5,24
	.loc 1 172 97
	slli	a4,a5,24
	.loc 1 172 240
	or	a4,a4,a1
	.loc 1 172 166
	slli	a1,a5,8
	and	a1,a1,a0
	.loc 1 172 240
	or	a4,a4,a1
	.loc 1 172 234
	li	a1,65536
	srli	a5,a5,8
	addi	a1,a1,-256
	and	a5,a5,a1
	.loc 1 172 240
	or	a5,a4,a5
	.loc 1 172 34
	add	a5,a3,a5
.LBE195:
.LBE197:
	.loc 1 291 14
	sw	a5,8(sp)
	.loc 1 300 12
	li	s7,1
.L115:
.LVL136:
	.loc 1 292 5 is_stmt 1
	.loc 1 294 5
	.loc 1 295 9
	.loc 1 295 12 is_stmt 0
	lbu	a5,0(s0)
	beq	a5,zero,.L104
	.loc 1 298 9 is_stmt 1
	.loc 1 298 17 is_stmt 0
	li	a1,47
	mv	a0,s0
	call	strchr
.LVL137:
	mv	s5,a0
.LVL138:
	.loc 1 300 9 is_stmt 1
	.loc 1 300 12 is_stmt 0
	bne	s4,s7,.L105
	.loc 1 301 13 is_stmt 1
	.loc 1 301 45 is_stmt 0
	lw	s6,4(sp)
	.loc 1 301 43
	lw	s4,0(s3)
.LVL139:
	.loc 1 301 45
	mv	a0,s6
.LVL140:
	call	dirent_childaddr
.LVL141:
	.loc 1 301 43
	add	a0,s4,a0
	.loc 1 301 16
	beq	s6,a0,.L117
	.loc 1 304 13 is_stmt 1
	.loc 1 304 24 is_stmt 0
	sw	a0,4(sp)
	.loc 1 305 13 is_stmt 1
.LVL142:
.L105:
	.loc 1 308 9
	.loc 1 308 12 is_stmt 0
	bne	s5,zero,.L106
	.loc 1 310 13 is_stmt 1
	.loc 1 311 13
	.loc 1 311 17 is_stmt 0
	mv	a0,s0
	call	strlen
.LVL143:
	.loc 1 311 16
	li	a5,64
	bleu	a0,a5,.L107
	.loc 1 312 17 is_stmt 1
	.loc 1 312 22
	.loc 1 312 24
.LBB198:
.LBB199:
	.loc 2 151 5
	.loc 2 151 31 is_stmt 0
	lui	a5,%hi(TrapNetCounter)
.LBE199:
.LBE198:
	.loc 1 312 24
	lw	a5,%lo(TrapNetCounter)(a5)
	beq	a5,zero,.L108
	.loc 1 312 106
	call	xTaskGetTickCountFromISR
.LVL144:
.L109:
	.loc 1 312 24
	lui	a3,%hi(.LC8)
	lui	a2,%hi(.LC9)
	mv	a1,a0
	lui	a0,%hi(.LC17)
	li	a4,312
	addi	a3,a3,%lo(.LC8)
	addi	a2,a2,%lo(.LC9)
	addi	a0,a0,%lo(.LC17)
	j	.L129
.L108:
	.loc 1 312 135
	call	xTaskGetTickCount
.LVL145:
	j	.L109
.L107:
	.loc 1 315 13 is_stmt 1
	.loc 1 315 22 is_stmt 0
	addi	a2,sp,8
	addi	a1,sp,4
	mv	a0,s0
	call	file_info
.LVL146:
	.loc 1 315 16
	beq	a0,zero,.L104
	.loc 1 316 17 is_stmt 1
	.loc 1 316 22
	.loc 1 316 24
.LBB200:
.LBB201:
	.loc 2 151 5
	.loc 2 151 31 is_stmt 0
	lui	a5,%hi(TrapNetCounter)
.LBE201:
.LBE200:
	.loc 1 316 24
	lw	a5,%lo(TrapNetCounter)(a5)
	beq	a5,zero,.L110
	.loc 1 316 152
	call	xTaskGetTickCountFromISR
.LVL147:
.L111:
	.loc 1 316 24
	lw	a7,8(sp)
	lw	a6,4(sp)
	mv	a1,a0
	lui	a3,%hi(.LC8)
	lui	a2,%hi(.LC12)
	lui	a0,%hi(.LC18)
	mv	a5,s0
	li	a4,316
	addi	a3,a3,%lo(.LC8)
	addi	a2,a2,%lo(.LC12)
	addi	a0,a0,%lo(.LC18)
	call	bl_printk
.LVL148:
	.loc 1 316 278 is_stmt 1
	.loc 1 317 17
	j	.L116
.L110:
	.loc 1 316 181 is_stmt 0
	call	xTaskGetTickCount
.LVL149:
	j	.L111
.L106:
	.loc 1 322 13 is_stmt 1
	li	a2,65
	li	a1,0
	addi	a0,sp,12
	call	memset
.LVL150:
	.loc 1 323 13
	sub	a2,s5,s0
	mv	a1,s0
	addi	a0,sp,12
	call	memcpy
.LVL151:
	.loc 1 324 13
	.loc 1 326 13
	.loc 1 326 22 is_stmt 0
	addi	a2,sp,8
	addi	a1,sp,4
	addi	a0,sp,12
	call	file_info
.LVL152:
	.loc 1 326 16
	beq	a0,zero,.L112
	.loc 1 327 17 is_stmt 1
	.loc 1 327 22
	.loc 1 327 24
.LBB202:
.LBB203:
	.loc 2 151 5
	.loc 2 151 31 is_stmt 0
	lui	a5,%hi(TrapNetCounter)
.LBE203:
.LBE202:
	.loc 1 327 24
	lw	a5,%lo(TrapNetCounter)(a5)
	beq	a5,zero,.L113
	.loc 1 327 108
	call	xTaskGetTickCountFromISR
.LVL153:
.L114:
	.loc 1 327 24
	lui	a3,%hi(.LC8)
	lui	a2,%hi(.LC9)
	mv	a1,a0
	lui	a0,%hi(.LC19)
	li	a4,327
	addi	a3,a3,%lo(.LC8)
	addi	a2,a2,%lo(.LC9)
	addi	a0,a0,%lo(.LC19)
	j	.L129
.L113:
	.loc 1 327 137
	call	xTaskGetTickCount
.LVL154:
	j	.L114
.L112:
	.loc 1 331 13 is_stmt 1
.LVL155:
	.loc 1 332 13
	.loc 1 332 20 is_stmt 0
	addi	s0,s5,1
.LVL156:
	.loc 1 333 13 is_stmt 1
	.loc 1 331 30 is_stmt 0
	li	s4,1
	j	.L115
.LVL157:
.L104:
	.loc 1 337 5 is_stmt 1
	.loc 1 339 5
	.loc 1 339 25 is_stmt 0
	lw	a5,4(sp)
	.loc 1 342 12
	li	a0,0
	.loc 1 339 25
	sw	a5,0(s2)
	.loc 1 340 5 is_stmt 1
	.loc 1 340 23 is_stmt 0
	lw	a5,8(sp)
	sw	a5,0(s1)
	.loc 1 342 5 is_stmt 1
.LVL158:
.L94:
.LBE204:
.LBE206:
	.loc 1 343 1 is_stmt 0
	lw	ra,124(sp)
	.cfi_remember_state
	.cfi_restore 1
	lw	s0,120(sp)
	.cfi_restore 8
	lw	s1,116(sp)
	.cfi_restore 9
.LVL159:
	lw	s2,112(sp)
	.cfi_restore 18
.LVL160:
	lw	s3,108(sp)
	.cfi_restore 19
	lw	s4,104(sp)
	.cfi_restore 20
	lw	s5,100(sp)
	.cfi_restore 21
	lw	s6,96(sp)
	.cfi_restore 22
	lw	s7,92(sp)
	.cfi_restore 23
	addi	sp,sp,128
	.cfi_def_cfa_offset 0
	jr	ra
.LVL161:
.L117:
	.cfi_restore_state
.LBB207:
.LBB205:
	.loc 1 302 24
	li	a0,-2
.LVL162:
	j	.L94
.LBE205:
.LBE207:
	.cfi_endproc
.LFE14:
	.size	dirent_file, .-dirent_file
	.section	.text.romfs_opendir,"ax",@progbits
	.align	1
	.type	romfs_opendir, @function
romfs_opendir:
.LFB21:
	.loc 1 515 1 is_stmt 1
	.cfi_startproc
.LVL163:
	.loc 1 516 5
	.loc 1 517 5
	.loc 1 518 5
	.loc 1 519 5
	.loc 1 521 5
	.loc 1 524 5
	.loc 1 515 1 is_stmt 0
	addi	sp,sp,-32
	.cfi_def_cfa_offset 32
	sw	s2,16(sp)
	.cfi_offset 18, -16
	.loc 1 524 20
	lui	s2,%hi(.LANCHOR0)
	.loc 1 515 1
	sw	ra,28(sp)
	sw	s0,24(sp)
	sw	s1,20(sp)
	.cfi_offset 1, -4
	.cfi_offset 8, -8
	.cfi_offset 9, -12
	.loc 1 524 20
	addi	s2,s2,%lo(.LANCHOR0)
	lw	s0,0(s2)
	.loc 1 524 8
	bne	s0,zero,.L131
	.loc 1 525 9 is_stmt 1
	.loc 1 525 14
	.loc 1 525 16
.LBB208:
.LBB209:
	.loc 2 151 5
	.loc 2 151 31 is_stmt 0
	lui	a5,%hi(TrapNetCounter)
.LBE209:
.LBE208:
	.loc 1 525 16
	lw	a5,%lo(TrapNetCounter)(a5)
	beq	a5,zero,.L132
	.loc 1 525 103 discriminator 1
	call	xTaskGetTickCountFromISR
.LVL164:
.L133:
	.loc 1 525 16 discriminator 4
	lui	a3,%hi(.LC8)
	lui	a2,%hi(.LC9)
	mv	a1,a0
	lui	a0,%hi(.LC20)
	li	a4,525
	addi	a3,a3,%lo(.LC8)
	addi	a2,a2,%lo(.LC9)
	addi	a0,a0,%lo(.LC20)
	call	bl_printk
.LVL165:
	.loc 1 525 199 is_stmt 1 discriminator 4
	.loc 1 526 9 discriminator 4
.L130:
	.loc 1 556 1 is_stmt 0
	mv	a0,s0
	lw	ra,28(sp)
	.cfi_remember_state
	.cfi_restore 1
	lw	s0,24(sp)
	.cfi_restore 8
	lw	s1,20(sp)
	.cfi_restore 9
	lw	s2,16(sp)
	.cfi_restore 18
	addi	sp,sp,32
	.cfi_def_cfa_offset 0
	jr	ra
.LVL166:
.L132:
	.cfi_restore_state
	.loc 1 525 132 discriminator 2
	call	xTaskGetTickCount
.LVL167:
	j	.L133
.LVL168:
.L131:
	.loc 1 529 25
	li	a0,93
.LVL169:
	mv	s1,a1
	.loc 1 529 5 is_stmt 1
	.loc 1 529 25 is_stmt 0
	call	aos_malloc
.LVL170:
	mv	s0,a0
.LVL171:
	.loc 1 530 5 is_stmt 1
	.loc 1 530 8 is_stmt 0
	bne	a0,zero,.L135
.LVL172:
.L144:
	.loc 1 555 5 is_stmt 1
	.loc 1 555 11 is_stmt 0
	li	s0,0
.LVL173:
	j	.L130
.LVL174:
.L135:
	.loc 1 533 5 is_stmt 1
	li	a2,93
	li	a1,0
	call	memset
.LVL175:
	.loc 1 535 5
	.loc 1 535 11 is_stmt 0
	addi	a2,sp,12
	addi	a1,sp,8
	mv	a0,s1
	call	dirent_file
.LVL176:
	.loc 1 536 5 is_stmt 1
	.loc 1 537 5
	.loc 1 537 8 is_stmt 0
	bne	a0,zero,.L136
	.loc 1 539 9 is_stmt 1
	.loc 1 539 24 is_stmt 0
	lw	s1,8(sp)
.LVL177:
	lw	s2,0(s2)
	.loc 1 539 12
	bne	s1,s2,.L137
	.loc 1 540 13 is_stmt 1
	.loc 1 540 59 is_stmt 0
	addi	a0,s1,16
.LVL178:
	call	strlen
.LVL179:
	.loc 1 540 87
	addi	a0,a0,16
	.loc 1 540 91
	andi	a0,a0,-16
	.loc 1 540 102
	addi	a0,a0,80
	.loc 1 540 34
	add	s1,s1,a0
	.loc 1 540 32
	sw	s1,8(s0)
.L138:
	.loc 1 548 9 is_stmt 1
	.loc 1 548 26 is_stmt 0
	lw	a5,12(sp)
	.loc 1 549 26
	sw	zero,16(s0)
	.loc 1 548 26
	sw	a5,12(s0)
	.loc 1 549 9 is_stmt 1
	.loc 1 550 9
	.loc 1 550 16 is_stmt 0
	j	.L130
.LVL180:
.L137:
	.loc 1 542 13 is_stmt 1
	.loc 1 542 22 is_stmt 0
	mv	a0,s1
.LVL181:
	call	dirent_childaddr
.LVL182:
	.loc 1 542 16
	beq	a0,zero,.L144
	.loc 1 545 17 is_stmt 1
	.loc 1 545 38 is_stmt 0
	add	s2,s2,a0
	.loc 1 545 36
	sw	s2,8(s0)
	j	.L138
.LVL183:
.L136:
	.loc 1 554 5 is_stmt 1
	mv	a0,s0
.LVL184:
	call	aos_free
.LVL185:
	j	.L144
	.cfi_endproc
.LFE21:
	.size	romfs_opendir, .-romfs_opendir
	.section	.text.romfs_stat,"ax",@progbits
	.align	1
	.type	romfs_stat, @function
romfs_stat:
.LFB20:
	.loc 1 481 1
	.cfi_startproc
.LVL186:
	.loc 1 482 5
	.loc 1 481 1 is_stmt 0
	addi	sp,sp,-32
	.cfi_def_cfa_offset 32
	sw	s1,20(sp)
	mv	a0,a1
.LVL187:
	.cfi_offset 9, -12
	mv	s1,a2
	.loc 1 487 11
	addi	a1,sp,8
.LVL188:
	addi	a2,sp,12
.LVL189:
	.loc 1 481 1
	sw	s0,24(sp)
	sw	ra,28(sp)
	sw	s2,16(sp)
	.cfi_offset 8, -8
	.cfi_offset 1, -4
	.cfi_offset 18, -16
	.loc 1 482 11
	sw	zero,8(sp)
	.loc 1 483 5 is_stmt 1
	.loc 1 483 11 is_stmt 0
	sw	zero,12(sp)
	.loc 1 484 5 is_stmt 1
	.loc 1 486 5
	.loc 1 487 5
	.loc 1 487 11 is_stmt 0
	call	dirent_file
.LVL190:
	mv	s0,a0
.LVL191:
	.loc 1 489 5 is_stmt 1
	.loc 1 489 8 is_stmt 0
	beq	a0,zero,.L146
	.loc 1 490 9 is_stmt 1
	.loc 1 490 14
	.loc 1 490 16
.LBB210:
.LBB211:
	.loc 2 151 5
	.loc 2 151 31 is_stmt 0
	lui	a5,%hi(TrapNetCounter)
.LBE211:
.LBE210:
	.loc 1 490 16
	lw	a5,%lo(TrapNetCounter)(a5)
	beq	a5,zero,.L147
	.loc 1 490 104 discriminator 1
	call	xTaskGetTickCountFromISR
.LVL192:
.L148:
	.loc 1 490 16 discriminator 4
	mv	a1,a0
	lui	a3,%hi(.LC8)
	lui	a2,%hi(.LC12)
	lui	a0,%hi(.LC21)
	mv	a5,s0
	li	a4,490
	addi	a3,a3,%lo(.LC8)
	addi	a2,a2,%lo(.LC12)
	addi	a0,a0,%lo(.LC21)
	call	bl_printk
.LVL193:
	.loc 1 490 205 is_stmt 1 discriminator 4
	.loc 1 491 9 discriminator 4
	.loc 1 491 16 is_stmt 0 discriminator 4
	li	s0,-1
.LVL194:
.L145:
	.loc 1 512 1
	mv	a0,s0
	lw	ra,28(sp)
	.cfi_remember_state
	.cfi_restore 1
	lw	s0,24(sp)
	.cfi_restore 8
	lw	s1,20(sp)
	.cfi_restore 9
.LVL195:
	lw	s2,16(sp)
	.cfi_restore 18
	addi	sp,sp,32
	.cfi_def_cfa_offset 0
	jr	ra
.LVL196:
.L147:
	.cfi_restore_state
	.loc 1 490 133 discriminator 2
	call	xTaskGetTickCount
.LVL197:
	j	.L148
.L146:
	.loc 1 494 5 is_stmt 1
	.loc 1 494 8 is_stmt 0
	lui	a5,%hi(.LANCHOR0)
	.loc 1 494 20
	lw	s2,8(sp)
	.loc 1 494 8
	lw	a5,%lo(.LANCHOR0)(a5)
	bne	s2,a5,.L150
	.loc 1 495 9 is_stmt 1
	.loc 1 495 21 is_stmt 0
	sw	zero,16(s1)
	j	.L145
.L150:
	.loc 1 497 9 is_stmt 1
	.loc 1 497 18 is_stmt 0
	mv	a0,s2
	call	dirent_type
.LVL198:
	.loc 1 497 12
	li	a5,1
	bne	a0,a5,.L151
	.loc 1 498 13 is_stmt 1
	.loc 1 498 25 is_stmt 0
	sw	zero,16(s1)
	.loc 1 499 13 is_stmt 1
	.loc 1 499 25 is_stmt 0
	li	a5,16384
.L156:
	.loc 1 504 25
	sw	a5,4(s1)
	j	.L145
.L151:
	.loc 1 501 16 is_stmt 1
	.loc 1 501 19 is_stmt 0
	li	a5,2
	bne	a0,a5,.L152
	.loc 1 502 13 is_stmt 1
	.loc 1 502 27 is_stmt 0
	mv	a0,s2
	call	dirent_size
.LVL199:
	.loc 1 502 25
	sw	a0,16(s1)
	.loc 1 503 13 is_stmt 1
	.loc 1 504 13
	.loc 1 504 25 is_stmt 0
	li	a5,32768
	j	.L156
.L152:
	.loc 1 506 13 is_stmt 1
	.loc 1 506 18
	.loc 1 506 20
.LBB212:
.LBB213:
	.loc 2 151 5
	.loc 2 151 31 is_stmt 0
	lui	a5,%hi(TrapNetCounter)
.LBE213:
.LBE212:
	.loc 1 506 20
	lw	a5,%lo(TrapNetCounter)(a5)
	beq	a5,zero,.L153
	.loc 1 506 104 discriminator 1
	call	xTaskGetTickCountFromISR
.LVL200:
.L154:
	.loc 1 506 20 discriminator 4
	mv	a1,a0
	lui	a3,%hi(.LC8)
	lui	a2,%hi(.LC12)
	lui	a0,%hi(.LC22)
	li	a4,506
	addi	a3,a3,%lo(.LC8)
	addi	a2,a2,%lo(.LC12)
	addi	a0,a0,%lo(.LC22)
	call	bl_printk
.LVL201:
	.loc 1 506 200 is_stmt 1 discriminator 4
	.loc 1 507 13 discriminator 4
	.loc 1 507 20 is_stmt 0 discriminator 4
	li	s0,-2
.LVL202:
	j	.L145
.LVL203:
.L153:
	.loc 1 506 133 discriminator 2
	call	xTaskGetTickCount
.LVL204:
	j	.L154
	.cfi_endproc
.LFE20:
	.size	romfs_stat, .-romfs_stat
	.section	.text.romfs_open,"ax",@progbits
	.align	1
	.type	romfs_open, @function
romfs_open:
.LFB15:
	.loc 1 346 1 is_stmt 1
	.cfi_startproc
.LVL205:
	.loc 1 347 5
	.loc 1 348 5
	.loc 1 350 5
	.loc 1 353 5
	.loc 1 353 8 is_stmt 0
	lui	a5,%hi(.LANCHOR0)
	lw	a5,%lo(.LANCHOR0)(a5)
	.loc 1 346 1
	addi	sp,sp,-48
	.cfi_def_cfa_offset 48
	sw	ra,44(sp)
	sw	s0,40(sp)
	sw	s1,36(sp)
	sw	s2,32(sp)
	sw	s3,28(sp)
	sw	s4,24(sp)
	sw	s5,20(sp)
	.cfi_offset 1, -4
	.cfi_offset 8, -8
	.cfi_offset 9, -12
	.cfi_offset 18, -16
	.cfi_offset 19, -20
	.cfi_offset 20, -24
	.cfi_offset 21, -28
	.loc 1 353 8
	bne	a5,zero,.L158
.LVL206:
.LBB232:
.LBB233:
	.loc 1 354 9 is_stmt 1
	.loc 1 354 14
	.loc 1 354 16
.LBB234:
.LBB235:
	.loc 2 151 5
	.loc 2 151 31 is_stmt 0
	lui	a5,%hi(TrapNetCounter)
.LBE235:
.LBE234:
	.loc 1 354 16
	lw	a5,%lo(TrapNetCounter)(a5)
	beq	a5,zero,.L159
	.loc 1 354 103
	call	xTaskGetTickCountFromISR
.LVL207:
.L160:
	.loc 1 354 16
	lui	a3,%hi(.LC8)
	lui	a2,%hi(.LC9)
	mv	a1,a0
	lui	a0,%hi(.LC20)
	li	a4,354
	addi	a3,a3,%lo(.LC8)
	addi	a2,a2,%lo(.LC9)
	addi	a0,a0,%lo(.LC20)
.LVL208:
.L186:
.LBE233:
.LBE232:
	.loc 1 360 16 discriminator 4
	call	bl_printk
.LVL209:
	.loc 1 360 201 is_stmt 1 discriminator 4
	.loc 1 361 9 discriminator 4
	.loc 1 361 16 is_stmt 0 discriminator 4
	li	s1,-1
.L157:
	.loc 1 373 1
	lw	ra,44(sp)
	.cfi_remember_state
	.cfi_restore 1
	lw	s0,40(sp)
	.cfi_restore 8
	mv	a0,s1
	lw	s2,32(sp)
	.cfi_restore 18
	lw	s1,36(sp)
	.cfi_restore 9
	lw	s3,28(sp)
	.cfi_restore 19
	lw	s4,24(sp)
	.cfi_restore 20
	lw	s5,20(sp)
	.cfi_restore 21
	addi	sp,sp,48
	.cfi_def_cfa_offset 0
	jr	ra
.LVL210:
.L159:
	.cfi_restore_state
.LBB237:
.LBB236:
	.loc 1 354 132
	call	xTaskGetTickCount
.LVL211:
	j	.L160
.LVL212:
.L158:
	mv	s3,a0
.LBE236:
.LBE237:
	.loc 1 359 34
	mv	a0,a1
.LVL213:
	mv	s2,a1
	.loc 1 359 5 is_stmt 1
.LBB238:
.LBB239:
	.loc 1 95 11 is_stmt 0
	lui	s0,%hi(.LC15)
.LBE239:
.LBE238:
	.loc 1 359 34
	call	strlen
.LVL214:
	mv	s5,a0
.LVL215:
.LBB257:
.LBB254:
	.loc 1 90 5 is_stmt 1
	.loc 1 91 5
	.loc 1 92 5
	.loc 1 95 5
	.loc 1 95 11 is_stmt 0
	addi	a0,s0,%lo(.LC15)
.LVL216:
	call	strlen
.LVL217:
	mv	a2,a0
	addi	a1,s0,%lo(.LC15)
	mv	a0,s2
	call	strncmp
.LVL218:
	mv	s1,a0
.LVL219:
	.loc 1 96 5 is_stmt 1
	.loc 1 96 8 is_stmt 0
	bne	a0,zero,.L162
	.loc 1 102 12
	li	s0,0
.LBB240:
.LBB241:
	.loc 1 75 8
	li	a3,25
.LBE241:
.LBE240:
	.loc 1 110 12
	li	a2,47
.LBB245:
.LBB242:
	.loc 1 76 42
	li	a1,9
	.loc 1 79 25
	li	a0,95
	.loc 1 80 25
	li	a6,1
.L163:
.LVL220:
.LBE242:
.LBE245:
	.loc 1 102 5
	bne	s5,s0,.L175
.LVL221:
.LBE254:
.LBE257:
	.loc 1 365 5 is_stmt 1
	.loc 1 365 14 is_stmt 0
	addi	a2,sp,12
	addi	a1,sp,8
	mv	a0,s2
	call	dirent_file
.LVL222:
	.loc 1 365 8
	beq	a0,zero,.L183
	.loc 1 366 16
	li	s1,-2
	j	.L157
.LVL223:
.L162:
.LBB258:
.LBB255:
	.loc 1 97 9 is_stmt 1
	.loc 1 97 14
	.loc 1 97 16
.LBB246:
.LBB247:
	.loc 2 151 5
	.loc 2 151 31 is_stmt 0
	lui	a5,%hi(TrapNetCounter)
.LBE247:
.LBE246:
	.loc 1 97 16
	lw	a5,%lo(TrapNetCounter)(a5)
	beq	a5,zero,.L164
	.loc 1 97 100
	call	xTaskGetTickCountFromISR
.LVL224:
.L165:
	.loc 1 97 16
	lui	a3,%hi(.LC8)
	lui	a2,%hi(.LC9)
	mv	a1,a0
	lui	a0,%hi(.LC23)
	li	a4,97
	addi	a3,a3,%lo(.LC8)
	addi	a2,a2,%lo(.LC9)
	addi	a0,a0,%lo(.LC23)
.L185:
	.loc 1 115 24
	call	bl_printk
.LVL225:
	.loc 1 115 201 is_stmt 1
	.loc 1 116 17
	j	.L166
.LVL226:
.L164:
	.loc 1 97 129 is_stmt 0
	call	xTaskGetTickCount
.LVL227:
	j	.L165
.LVL228:
.L175:
	.loc 1 104 9 is_stmt 1
	.loc 1 104 18 is_stmt 0
	add	a5,s2,s0
	lbu	a4,0(a5)
.LVL229:
.LBB248:
.LBB243:
	.loc 1 75 5 is_stmt 1
	.loc 1 75 22 is_stmt 0
	addi	a5,a4,-97
	.loc 1 75 8
	andi	a5,a5,0xff
	bleu	a5,a3,.L167
	.loc 1 76 26
	addi	a5,a4,-65
	.loc 1 75 38
	andi	a5,a5,0xff
	bleu	a5,a3,.L168
	.loc 1 77 26
	addi	a5,a4,-48
	.loc 1 76 42
	andi	a5,a5,0xff
	bleu	a5,a1,.L168
	.loc 1 77 42
	beq	a4,a2,.L169
	.loc 1 79 25
	beq	a4,a0,.L167
	.loc 1 80 25
	addi	a4,a4,-45
.LVL230:
	andi	a4,a4,0xff
.LVL231:
	bleu	a4,a6,.L167
.LVL232:
.LBE243:
.LBE248:
	.loc 1 105 13 is_stmt 1
	.loc 1 105 18
	.loc 1 105 20
.LBB249:
.LBB250:
	.loc 2 151 5
	.loc 2 151 31 is_stmt 0
	lui	a5,%hi(TrapNetCounter)
.LBE250:
.LBE249:
	.loc 1 105 20
	lw	a5,%lo(TrapNetCounter)(a5)
	bne	a5,zero,.L170
	.loc 1 105 135
	call	xTaskGetTickCount
.LVL233:
	j	.L172
.LVL234:
.L168:
.LBB251:
.LBB244:
	.loc 1 83 9 is_stmt 1
.LBE244:
.LBE251:
	.loc 1 110 9
	.loc 1 110 12 is_stmt 0
	beq	a4,a2,.L169
.LVL235:
.L167:
	.loc 1 102 28
	addi	s0,s0,1
.LVL236:
	j	.L163
.L170:
	.loc 1 105 106
	call	xTaskGetTickCountFromISR
.LVL237:
.L172:
	.loc 1 105 20
	lui	a3,%hi(.LC8)
	lui	a2,%hi(.LC9)
	mv	a1,a0
	lui	a0,%hi(.LC24)
	mv	a5,s0
	li	a4,105
	addi	a3,a3,%lo(.LC8)
	addi	a2,a2,%lo(.LC9)
	addi	a0,a0,%lo(.LC24)
	call	bl_printk
.LVL238:
	.loc 1 105 205 is_stmt 1
	.loc 1 106 13
.L166:
.LBE255:
.LBE258:
	.loc 1 360 9
	.loc 1 360 14
	.loc 1 360 16
.LBB259:
.LBB260:
	.loc 2 151 5
	.loc 2 151 31 is_stmt 0
	lui	a5,%hi(TrapNetCounter)
.LBE260:
.LBE259:
	.loc 1 360 16
	lw	a5,%lo(TrapNetCounter)(a5)
	beq	a5,zero,.L177
	.loc 1 360 105 discriminator 1
	call	xTaskGetTickCountFromISR
.LVL239:
.L178:
	.loc 1 360 16 discriminator 4
	lui	a3,%hi(.LC8)
	lui	a2,%hi(.LC9)
	mv	a1,a0
	lui	a0,%hi(.LC26)
	li	a4,360
	addi	a3,a3,%lo(.LC8)
	addi	a2,a2,%lo(.LC9)
	addi	a0,a0,%lo(.LC26)
	j	.L186
.LVL240:
.L169:
.LBB261:
.LBB256:
	.loc 1 113 9 is_stmt 1
	.loc 1 113 12 is_stmt 0
	beq	s0,zero,.L179
	.loc 1 114 13 is_stmt 1
	.loc 1 114 15 is_stmt 0
	bne	s0,s4,.L180
	.loc 1 115 17 is_stmt 1
	.loc 1 115 22
	.loc 1 115 24
.LBB252:
.LBB253:
	.loc 2 151 5
	.loc 2 151 31 is_stmt 0
	lui	a5,%hi(TrapNetCounter)
.LBE253:
.LBE252:
	.loc 1 115 24
	lw	a5,%lo(TrapNetCounter)(a5)
	beq	a5,zero,.L173
	.loc 1 115 105
	call	xTaskGetTickCountFromISR
.LVL241:
.L174:
	.loc 1 115 24
	lui	a3,%hi(.LC8)
	lui	a2,%hi(.LC9)
	mv	a1,a0
	lui	a0,%hi(.LC25)
	li	a4,115
	addi	a3,a3,%lo(.LC8)
	addi	a2,a2,%lo(.LC9)
	addi	a0,a0,%lo(.LC25)
	j	.L185
.L173:
	.loc 1 115 134
	call	xTaskGetTickCount
.LVL242:
	j	.L174
.L179:
	.loc 1 113 12
	li	s4,0
.LVL243:
	j	.L167
.LVL244:
.L180:
	.loc 1 114 15
	mv	s4,s0
.LVL245:
	j	.L167
.LVL246:
.L177:
.LBE256:
.LBE261:
	.loc 1 360 134 discriminator 2
	call	xTaskGetTickCount
.LVL247:
	j	.L178
.L183:
	.loc 1 369 5 is_stmt 1
	.loc 1 369 15 is_stmt 0
	lw	a5,8(sp)
	.loc 1 370 16
	sw	zero,8(s3)
	.loc 1 369 15
	sw	a5,4(s3)
	.loc 1 370 5 is_stmt 1
	.loc 1 372 5
	.loc 1 372 12 is_stmt 0
	j	.L157
	.cfi_endproc
.LFE15:
	.size	romfs_open, .-romfs_open
	.section	.text.romfs_register,"ax",@progbits
	.align	1
	.globl	romfs_register
	.type	romfs_register, @function
romfs_register:
.LFB24:
	.loc 1 652 1 is_stmt 1
	.cfi_startproc
	.loc 1 653 5
.LBB270:
.LBB271:
	.loc 1 130 5
	.loc 1 131 5
	.loc 1 133 5
.LBE271:
.LBE270:
	.loc 1 652 1 is_stmt 0
	addi	sp,sp,-48
	.cfi_def_cfa_offset 48
.LBB284:
.LBB280:
	.loc 1 133 16
	lui	a1,%hi(.LANCHOR1)
	lui	a0,%hi(.LC27)
.LBE280:
.LBE284:
	.loc 1 652 1
	sw	s2,32(sp)
.LBB285:
.LBB281:
	.loc 1 133 16
	li	a2,2
	.cfi_offset 18, -16
	addi	s2,a1,%lo(.LANCHOR1)
	addi	a0,a0,%lo(.LC27)
	addi	a1,a1,%lo(.LANCHOR1)
.LBE281:
.LBE285:
	.loc 1 652 1
	sw	s0,40(sp)
	sw	ra,44(sp)
	sw	s1,36(sp)
	.cfi_offset 8, -8
	.cfi_offset 1, -4
	.cfi_offset 9, -12
.LBB286:
.LBB282:
	.loc 1 133 16
	call	bl_mtd_open
.LVL248:
	lui	s0,%hi(.LC8)
	.loc 1 133 8
	beq	a0,zero,.L188
.LBB272:
.LBB273:
	.loc 2 151 31
	lui	a5,%hi(TrapNetCounter)
.LBE273:
.LBE272:
	.loc 1 134 16
	lw	a5,%lo(TrapNetCounter)(a5)
	mv	s1,a0
	.loc 1 134 9 is_stmt 1
	.loc 1 134 14
	.loc 1 134 16
.LBB275:
.LBB274:
	.loc 2 151 5
.LBE274:
.LBE275:
	.loc 1 134 16 is_stmt 0
	beq	a5,zero,.L189
	.loc 1 134 135
	call	xTaskGetTickCountFromISR
.LVL249:
.L190:
	.loc 1 134 16
	lui	a2,%hi(.LC9)
	mv	a1,a0
	lui	a0,%hi(.LC28)
	mv	a5,s1
	li	a4,134
	addi	a3,s0,%lo(.LC8)
	addi	a2,a2,%lo(.LC9)
	addi	a0,a0,%lo(.LC28)
	call	bl_printk
.LVL250:
	.loc 1 134 236 is_stmt 1
	.loc 1 135 9
.L200:
	.loc 1 146 206
	.loc 1 147 9
.LBE282:
.LBE286:
	.loc 1 654 16 is_stmt 0
	li	a0,-1
.L187:
	.loc 1 657 1
	lw	ra,44(sp)
	.cfi_remember_state
	.cfi_restore 1
	lw	s0,40(sp)
	.cfi_restore 8
	lw	s1,36(sp)
	.cfi_restore 9
	lw	s2,32(sp)
	.cfi_restore 18
	addi	sp,sp,48
	.cfi_def_cfa_offset 0
	jr	ra
.LVL251:
.L189:
	.cfi_restore_state
.LBB287:
.LBB283:
	.loc 1 134 164
	call	xTaskGetTickCount
.LVL252:
	j	.L190
.LVL253:
.L188:
	.loc 1 137 5 is_stmt 1
	li	a2,28
	li	a1,0
	addi	a0,sp,4
.LVL254:
	call	memset
.LVL255:
	.loc 1 138 5
	lw	a0,0(s2)
	addi	a1,sp,4
	call	bl_mtd_info
.LVL256:
	.loc 1 140 5
	.loc 1 140 18 is_stmt 0
	lw	s1,28(sp)
	.loc 1 140 8
	bne	s1,zero,.L192
	.loc 1 141 9 is_stmt 1
	.loc 1 141 14
	.loc 1 141 16
.LBB276:
.LBB277:
	.loc 2 151 5
	.loc 2 151 31 is_stmt 0
	lui	a5,%hi(TrapNetCounter)
.LBE277:
.LBE276:
	.loc 1 141 16
	lw	a5,%lo(TrapNetCounter)(a5)
	beq	a5,zero,.L193
	.loc 1 141 105
	call	xTaskGetTickCountFromISR
.LVL257:
.L194:
	.loc 1 141 16
	lui	a2,%hi(.LC9)
	mv	a1,a0
	lui	a0,%hi(.LC29)
	li	a4,141
	addi	a3,s0,%lo(.LC8)
	addi	a2,a2,%lo(.LC9)
	addi	a0,a0,%lo(.LC29)
.L199:
	.loc 1 146 16
	call	bl_printk
.LVL258:
	j	.L200
.L193:
	.loc 1 141 134
	call	xTaskGetTickCount
.LVL259:
	j	.L194
.L192:
	.loc 1 145 5 is_stmt 1
	.loc 1 145 14 is_stmt 0
	lui	s2,%hi(.LC30)
	addi	a0,s2,%lo(.LC30)
	call	strlen
.LVL260:
	mv	a2,a0
	addi	a1,s2,%lo(.LC30)
	mv	a0,s1
	call	memcmp
.LVL261:
	.loc 1 145 8
	beq	a0,zero,.L195
	.loc 1 146 9 is_stmt 1
	.loc 1 146 14
	.loc 1 146 16
.LBB278:
.LBB279:
	.loc 2 151 5
	.loc 2 151 31 is_stmt 0
	lui	a5,%hi(TrapNetCounter)
.LBE279:
.LBE278:
	.loc 1 146 16
	lw	a5,%lo(TrapNetCounter)(a5)
	beq	a5,zero,.L196
	.loc 1 146 110
	call	xTaskGetTickCountFromISR
.LVL262:
.L197:
	.loc 1 146 16
	lui	a2,%hi(.LC9)
	mv	a1,a0
	lui	a0,%hi(.LC31)
	li	a4,146
	addi	a3,s0,%lo(.LC8)
	addi	a2,a2,%lo(.LC9)
	addi	a0,a0,%lo(.LC31)
	j	.L199
.L196:
	.loc 1 146 139
	call	xTaskGetTickCount
.LVL263:
	j	.L197
.L195:
	.loc 1 150 5 is_stmt 1
	.loc 1 150 30 is_stmt 0
	lw	a2,28(sp)
	.loc 1 150 16
	lui	a5,%hi(.LANCHOR0)
	.loc 1 152 5
	li	a4,0
	li	a3,64
	li	a1,152
	addi	a0,s0,%lo(.LC8)
	.loc 1 150 16
	sw	a2,%lo(.LANCHOR0)(a5)
	.loc 1 151 5 is_stmt 1
	.loc 1 152 5
	call	log_buf_out
.LVL264:
	.loc 1 154 5
.LBE283:
.LBE287:
	.loc 1 656 5
	.loc 1 656 12 is_stmt 0
	lui	a1,%hi(.LANCHOR2)
	lui	a0,%hi(.LC15)
	li	a2,0
	addi	a1,a1,%lo(.LANCHOR2)
	addi	a0,a0,%lo(.LC15)
	call	aos_register_fs
.LVL265:
	j	.L187
	.cfi_endproc
.LFE24:
	.size	romfs_register, .-romfs_register
	.section	.text.test1_romfs,"ax",@progbits
	.align	1
	.globl	test1_romfs
	.type	test1_romfs, @function
test1_romfs:
.LFB25:
	.loc 1 660 1 is_stmt 1
	.cfi_startproc
	.loc 1 661 5
.LVL266:
	.loc 1 662 5
	.loc 1 663 5
	.loc 1 664 5
	.loc 1 665 5
	.loc 1 667 5
	.loc 1 660 1 is_stmt 0
	addi	sp,sp,-96
	.cfi_def_cfa_offset 96
	.loc 1 667 5
	li	a2,50
	li	a1,0
	addi	a0,sp,12
	.loc 1 660 1
	sw	ra,92(sp)
	sw	s1,84(sp)
	sw	s2,80(sp)
	sw	s0,88(sp)
	sw	s3,76(sp)
	sw	s4,72(sp)
	.cfi_offset 1, -4
	.cfi_offset 9, -12
	.cfi_offset 18, -16
	.cfi_offset 8, -8
	.cfi_offset 19, -20
	.cfi_offset 20, -24
	.loc 1 667 5
	call	memset
.LVL267:
	.loc 1 669 5 is_stmt 1
	.loc 1 669 10 is_stmt 0
	lui	a0,%hi(.LC32)
	li	a1,0
	addi	a0,a0,%lo(.LC32)
	call	aos_open
.LVL268:
.LBB288:
.LBB289:
	.loc 2 151 31
	lui	s1,%hi(TrapNetCounter)
.LBE289:
.LBE288:
	.loc 1 670 12
	lw	a5,%lo(TrapNetCounter)(s1)
	.loc 1 669 10
	mv	s2,a0
.LVL269:
	.loc 1 670 5 is_stmt 1
	.loc 1 670 10
	.loc 1 670 12
.LBB291:
.LBB290:
	.loc 2 151 5
.LBE290:
.LBE291:
	.loc 1 670 12 is_stmt 0
	beq	a5,zero,.L202
	.loc 1 670 87 discriminator 1
	call	xTaskGetTickCountFromISR
.LVL270:
.L203:
	.loc 1 670 12 discriminator 4
	lui	s0,%hi(.LC8)
	lui	s3,%hi(.LC33)
	mv	a1,a0
	lui	a0,%hi(.LC34)
	mv	a5,s2
	li	a4,670
	addi	a3,s0,%lo(.LC8)
	addi	a2,s3,%lo(.LC33)
	addi	a0,a0,%lo(.LC34)
	call	bl_printk
.LVL271:
	.loc 1 670 187 is_stmt 1 discriminator 4
	.loc 1 671 5 discriminator 4
	.loc 1 671 8 is_stmt 0 discriminator 4
	bge	s2,zero,.L204
	.loc 1 672 9 is_stmt 1
	.loc 1 672 14
	.loc 1 672 16
.LBB292:
.LBB293:
	.loc 2 151 5
.LBE293:
.LBE292:
	.loc 1 672 16 is_stmt 0
	lw	a5,%lo(TrapNetCounter)(s1)
	beq	a5,zero,.L205
	.loc 1 672 95 discriminator 1
	call	xTaskGetTickCountFromISR
.LVL272:
.L206:
	.loc 1 672 16 discriminator 4
	lui	a2,%hi(.LC9)
	mv	a1,a0
	lui	a0,%hi(.LC35)
	li	a4,672
	addi	a3,s0,%lo(.LC8)
	addi	a2,a2,%lo(.LC9)
	addi	a0,a0,%lo(.LC35)
	call	bl_printk
.LVL273:
	.loc 1 672 191 is_stmt 1 discriminator 4
	.loc 1 673 9 discriminator 4
.L201:
	.loc 1 710 1 is_stmt 0
	lw	ra,92(sp)
	.cfi_remember_state
	.cfi_restore 1
	lw	s0,88(sp)
	.cfi_restore 8
	lw	s1,84(sp)
	.cfi_restore 9
	lw	s2,80(sp)
	.cfi_restore 18
.LVL274:
	lw	s3,76(sp)
	.cfi_restore 19
	lw	s4,72(sp)
	.cfi_restore 20
	addi	sp,sp,96
	.cfi_def_cfa_offset 0
	jr	ra
.LVL275:
.L202:
	.cfi_restore_state
	.loc 1 670 116 discriminator 2
	call	xTaskGetTickCount
.LVL276:
	j	.L203
.L205:
	.loc 1 672 124 discriminator 2
	call	xTaskGetTickCount
.LVL277:
	j	.L206
.L204:
	.loc 1 676 5 is_stmt 1
	.loc 1 676 11 is_stmt 0
	li	a2,1
	addi	a1,sp,12
	mv	a0,s2
	call	aos_read
.LVL278:
	.loc 1 677 12
	lw	a5,%lo(TrapNetCounter)(s1)
	.loc 1 676 11
	mv	s4,a0
.LVL279:
	.loc 1 677 5 is_stmt 1
	.loc 1 677 10
	.loc 1 677 12
.LBB294:
.LBB295:
	.loc 2 151 5
.LBE295:
.LBE294:
	.loc 1 677 12 is_stmt 0
	beq	a5,zero,.L208
	.loc 1 677 94 discriminator 1
	call	xTaskGetTickCountFromISR
.LVL280:
.L209:
	.loc 1 677 12 discriminator 4
	mv	a1,a0
	lui	a0,%hi(.LC36)
	mv	a5,s4
	li	a4,677
	addi	a3,s0,%lo(.LC8)
	addi	a2,s3,%lo(.LC33)
	addi	a0,a0,%lo(.LC36)
	call	bl_printk
.LVL281:
	.loc 1 677 195 is_stmt 1 discriminator 4
	.loc 1 678 5 discriminator 4
	li	a4,0
	li	a3,1
	addi	a2,sp,12
	li	a1,678
	addi	a0,s0,%lo(.LC8)
	call	log_buf_out
.LVL282:
	.loc 1 680 5 discriminator 4
	li	a2,1
	li	a1,1
	mv	a0,s2
	call	aos_lseek
.LVL283:
	.loc 1 681 5 discriminator 4
	li	a2,50
	li	a1,0
	addi	a0,sp,12
	call	memset
.LVL284:
	.loc 1 682 5 discriminator 4
	.loc 1 682 11 is_stmt 0 discriminator 4
	li	a2,1
	addi	a1,sp,12
	mv	a0,s2
	call	aos_read
.LVL285:
	.loc 1 683 12 discriminator 4
	lw	a5,%lo(TrapNetCounter)(s1)
	.loc 1 682 11 discriminator 4
	mv	s4,a0
.LVL286:
	.loc 1 683 5 is_stmt 1 discriminator 4
	.loc 1 683 10 discriminator 4
	.loc 1 683 12 discriminator 4
.LBB296:
.LBB297:
	.loc 2 151 5 discriminator 4
.LBE297:
.LBE296:
	.loc 1 683 12 is_stmt 0 discriminator 4
	beq	a5,zero,.L210
	.loc 1 683 94 discriminator 1
	call	xTaskGetTickCountFromISR
.LVL287:
.L211:
	.loc 1 683 12 discriminator 4
	mv	a1,a0
	lui	a0,%hi(.LC37)
	mv	a5,s4
	li	a4,683
	addi	a3,s0,%lo(.LC8)
	addi	a2,s3,%lo(.LC33)
	addi	a0,a0,%lo(.LC37)
	call	bl_printk
.LVL288:
	.loc 1 683 195 is_stmt 1 discriminator 4
	.loc 1 684 5 discriminator 4
	li	a4,0
	li	a3,1
	addi	a2,sp,12
	li	a1,684
	addi	a0,s0,%lo(.LC8)
	call	log_buf_out
.LVL289:
	.loc 1 686 5 discriminator 4
	.loc 1 686 11 is_stmt 0 discriminator 4
	li	a2,50
	addi	a1,sp,12
	mv	a0,s2
	call	aos_read
.LVL290:
	.loc 1 687 12 discriminator 4
	lw	a5,%lo(TrapNetCounter)(s1)
	.loc 1 686 11 discriminator 4
	mv	s4,a0
.LVL291:
	.loc 1 687 5 is_stmt 1 discriminator 4
	.loc 1 687 10 discriminator 4
	.loc 1 687 12 discriminator 4
.LBB298:
.LBB299:
	.loc 2 151 5 discriminator 4
.LBE299:
.LBE298:
	.loc 1 687 12 is_stmt 0 discriminator 4
	beq	a5,zero,.L212
	.loc 1 687 94 discriminator 1
	call	xTaskGetTickCountFromISR
.LVL292:
.L213:
	.loc 1 687 12 discriminator 4
	mv	a1,a0
	lui	a0,%hi(.LC38)
	mv	a5,s4
	li	a4,687
	addi	a3,s0,%lo(.LC8)
	addi	a2,s3,%lo(.LC33)
	addi	a0,a0,%lo(.LC38)
	call	bl_printk
.LVL293:
	.loc 1 687 195 is_stmt 1 discriminator 4
	.loc 1 688 5 discriminator 4
	li	a4,0
	li	a3,50
	addi	a2,sp,12
	li	a1,688
	addi	a0,s0,%lo(.LC8)
	call	log_buf_out
.LVL294:
	.loc 1 690 5 discriminator 4
	li	a2,0
	li	a1,0
	mv	a0,s2
	call	aos_lseek
.LVL295:
	.loc 1 691 5 discriminator 4
	li	a2,50
	li	a1,0
	addi	a0,sp,12
	call	memset
.LVL296:
	.loc 1 692 5 discriminator 4
	.loc 1 692 11 is_stmt 0 discriminator 4
	li	a2,50
	addi	a1,sp,12
	mv	a0,s2
	call	aos_read
.LVL297:
	.loc 1 693 12 discriminator 4
	lw	a5,%lo(TrapNetCounter)(s1)
	.loc 1 692 11 discriminator 4
	mv	s4,a0
.LVL298:
	.loc 1 693 5 is_stmt 1 discriminator 4
	.loc 1 693 10 discriminator 4
	.loc 1 693 12 discriminator 4
.LBB300:
.LBB301:
	.loc 2 151 5 discriminator 4
.LBE301:
.LBE300:
	.loc 1 693 12 is_stmt 0 discriminator 4
	beq	a5,zero,.L214
	.loc 1 693 94 discriminator 1
	call	xTaskGetTickCountFromISR
.LVL299:
.L215:
	.loc 1 693 12 discriminator 4
	mv	a1,a0
	lui	a0,%hi(.LC39)
	mv	a5,s4
	li	a4,693
	addi	a3,s0,%lo(.LC8)
	addi	a2,s3,%lo(.LC33)
	addi	a0,a0,%lo(.LC39)
	call	bl_printk
.LVL300:
	.loc 1 693 195 is_stmt 1 discriminator 4
	.loc 1 694 5 discriminator 4
	.loc 1 694 10 discriminator 4
	.loc 1 694 12 discriminator 4
.LBB302:
.LBB303:
	.loc 2 151 5 discriminator 4
.LBE303:
.LBE302:
	.loc 1 694 12 is_stmt 0 discriminator 4
	lw	a5,%lo(TrapNetCounter)(s1)
	beq	a5,zero,.L216
	.loc 1 694 84 discriminator 1
	call	xTaskGetTickCountFromISR
.LVL301:
.L217:
	.loc 1 694 12 discriminator 4
	mv	a1,a0
	lui	a0,%hi(.LC40)
	li	a4,694
	addi	a3,s0,%lo(.LC8)
	addi	a2,s3,%lo(.LC33)
	addi	a0,a0,%lo(.LC40)
	call	bl_printk
.LVL302:
	.loc 1 694 180 is_stmt 1 discriminator 4
	.loc 1 695 5 discriminator 4
	li	a4,0
	li	a3,50
	addi	a2,sp,12
	li	a1,695
	addi	a0,s0,%lo(.LC8)
	call	log_buf_out
.LVL303:
	.loc 1 697 5 discriminator 4
	addi	a2,sp,4
	li	a1,1
	mv	a0,s2
	call	aos_ioctl
.LVL304:
	.loc 1 698 5 discriminator 4
	.loc 1 698 10 discriminator 4
	.loc 1 698 12 discriminator 4
.LBB304:
.LBB305:
	.loc 2 151 5 discriminator 4
.LBE305:
.LBE304:
	.loc 1 698 12 is_stmt 0 discriminator 4
	lw	a5,%lo(TrapNetCounter)(s1)
	beq	a5,zero,.L218
	.loc 1 698 96 discriminator 1
	call	xTaskGetTickCountFromISR
.LVL305:
.L219:
	.loc 1 698 12 discriminator 4
	lw	a5,4(sp)
	mv	a1,a0
	lui	a0,%hi(.LC41)
	li	a4,698
	addi	a3,s0,%lo(.LC8)
	addi	a2,s3,%lo(.LC33)
	addi	a0,a0,%lo(.LC41)
	call	bl_printk
.LVL306:
	.loc 1 698 205 is_stmt 1 discriminator 4
	.loc 1 699 5 discriminator 4
	.loc 1 699 10 discriminator 4
	.loc 1 699 12 discriminator 4
.LBB306:
.LBB307:
	.loc 2 151 5 discriminator 4
.LBE307:
.LBE306:
	.loc 1 699 12 is_stmt 0 discriminator 4
	lw	a5,%lo(TrapNetCounter)(s1)
	beq	a5,zero,.L220
	.loc 1 699 101 discriminator 1
	call	xTaskGetTickCountFromISR
.LVL307:
.L221:
	.loc 1 699 12 discriminator 4
	lw	a5,8(sp)
	mv	a1,a0
	lui	a0,%hi(.LC42)
	li	a4,699
	addi	a3,s0,%lo(.LC8)
	addi	a2,s3,%lo(.LC33)
	addi	a0,a0,%lo(.LC42)
	call	bl_printk
.LVL308:
	.loc 1 699 214 is_stmt 1 discriminator 4
	.loc 1 701 5 discriminator 4
	.loc 1 701 14 is_stmt 0 discriminator 4
	li	a2,2
	li	a1,0
	mv	a0,s2
	call	aos_lseek
.LVL309:
	.loc 1 702 12 discriminator 4
	lw	a5,%lo(TrapNetCounter)(s1)
	.loc 1 701 14 discriminator 4
	mv	s4,a0
.LVL310:
	.loc 1 702 5 is_stmt 1 discriminator 4
	.loc 1 702 10 discriminator 4
	.loc 1 702 12 discriminator 4
.LBB308:
.LBB309:
	.loc 2 151 5 discriminator 4
.LBE309:
.LBE308:
	.loc 1 702 12 is_stmt 0 discriminator 4
	beq	a5,zero,.L222
	.loc 1 702 104 discriminator 1
	call	xTaskGetTickCountFromISR
.LVL311:
.L223:
	.loc 1 702 12 discriminator 4
	mv	a1,a0
	lui	a0,%hi(.LC43)
	mv	a5,s4
	li	a4,702
	addi	a3,s0,%lo(.LC8)
	addi	a2,s3,%lo(.LC33)
	addi	a0,a0,%lo(.LC43)
	call	bl_printk
.LVL312:
	.loc 1 702 208 is_stmt 1 discriminator 4
	.loc 1 704 5 discriminator 4
	li	a2,50
	li	a1,0
	addi	a0,sp,12
	call	memset
.LVL313:
	.loc 1 705 5 discriminator 4
	.loc 1 705 11 is_stmt 0 discriminator 4
	li	a2,50
	addi	a1,sp,12
	mv	a0,s2
	call	aos_read
.LVL314:
	.loc 1 706 12 discriminator 4
	lw	a5,%lo(TrapNetCounter)(s1)
	.loc 1 705 11 discriminator 4
	mv	s4,a0
.LVL315:
	.loc 1 706 5 is_stmt 1 discriminator 4
	.loc 1 706 10 discriminator 4
	.loc 1 706 12 discriminator 4
.LBB310:
.LBB311:
	.loc 2 151 5 discriminator 4
.LBE311:
.LBE310:
	.loc 1 706 12 is_stmt 0 discriminator 4
	beq	a5,zero,.L224
	.loc 1 706 94 discriminator 1
	call	xTaskGetTickCountFromISR
.LVL316:
.L225:
	.loc 1 706 12 discriminator 4
	mv	a1,a0
	lui	a0,%hi(.LC44)
	mv	a5,s4
	addi	a3,s0,%lo(.LC8)
	addi	a2,s3,%lo(.LC33)
	li	a4,706
	addi	a0,a0,%lo(.LC44)
	call	bl_printk
.LVL317:
	.loc 1 706 195 is_stmt 1 discriminator 4
	.loc 1 707 5 discriminator 4
	li	a4,0
	li	a3,50
	addi	a2,sp,12
	li	a1,707
	addi	a0,s0,%lo(.LC8)
	call	log_buf_out
.LVL318:
	.loc 1 709 5 discriminator 4
	mv	a0,s2
	call	aos_close
.LVL319:
	j	.L201
.LVL320:
.L208:
	.loc 1 677 123 is_stmt 0 discriminator 2
	call	xTaskGetTickCount
.LVL321:
	j	.L209
.LVL322:
.L210:
	.loc 1 683 123 discriminator 2
	call	xTaskGetTickCount
.LVL323:
	j	.L211
.LVL324:
.L212:
	.loc 1 687 123 discriminator 2
	call	xTaskGetTickCount
.LVL325:
	j	.L213
.LVL326:
.L214:
	.loc 1 693 123 discriminator 2
	call	xTaskGetTickCount
.LVL327:
	j	.L215
.L216:
	.loc 1 694 113 discriminator 2
	call	xTaskGetTickCount
.LVL328:
	j	.L217
.L218:
	.loc 1 698 125 discriminator 2
	call	xTaskGetTickCount
.LVL329:
	j	.L219
.L220:
	.loc 1 699 130 discriminator 2
	call	xTaskGetTickCount
.LVL330:
	j	.L221
.LVL331:
.L222:
	.loc 1 702 133 discriminator 2
	call	xTaskGetTickCount
.LVL332:
	j	.L223
.LVL333:
.L224:
	.loc 1 706 123 discriminator 2
	call	xTaskGetTickCount
.LVL334:
	j	.L225
	.cfi_endproc
.LFE25:
	.size	test1_romfs, .-test1_romfs
	.section	.text.test2_romfs,"ax",@progbits
	.align	1
	.globl	test2_romfs
	.type	test2_romfs, @function
test2_romfs:
.LFB26:
	.loc 1 713 1 is_stmt 1
	.cfi_startproc
	.loc 1 714 5
	.loc 1 715 5
.LVL335:
	.loc 1 716 5
	.loc 1 717 5
	.loc 1 719 5
	.loc 1 713 1 is_stmt 0
	addi	sp,sp,-208
	.cfi_def_cfa_offset 208
	.loc 1 719 11
	lui	a1,%hi(.LANCHOR3)
	.loc 1 713 1
	sw	s6,176(sp)
	.loc 1 719 11
	li	a2,28
	addi	a1,a1,%lo(.LANCHOR3)
	addi	a0,sp,4
	.cfi_offset 22, -32
	.loc 1 730 16
	lui	s6,%hi(.LC8)
	.loc 1 713 1
	sw	s0,200(sp)
	sw	s1,196(sp)
	sw	s3,188(sp)
	sw	s4,184(sp)
	sw	s7,172(sp)
	sw	s8,168(sp)
	sw	s9,164(sp)
	sw	ra,204(sp)
	sw	s2,192(sp)
	sw	s5,180(sp)
	.cfi_offset 8, -8
	.cfi_offset 9, -12
	.cfi_offset 19, -20
	.cfi_offset 20, -24
	.cfi_offset 23, -36
	.cfi_offset 24, -40
	.cfi_offset 25, -44
	.cfi_offset 1, -4
	.cfi_offset 18, -16
	.cfi_offset 21, -28
	addi	s1,sp,4
	.loc 1 719 11
	call	memcpy
.LVL336:
	.loc 1 729 5 is_stmt 1
	.loc 1 729 12 is_stmt 0
	li	s0,0
.LBB312:
.LBB313:
	.loc 2 151 31
	lui	s3,%hi(TrapNetCounter)
.LBE313:
.LBE312:
	.loc 1 730 16
	lui	s8,%hi(.LC12)
	mv	s4,s6
	.loc 1 738 16
	lui	s7,%hi(.LC33)
	.loc 1 742 20
	lui	s9,%hi(.LC49)
.LVL337:
.L240:
	.loc 1 730 9 is_stmt 1
	.loc 1 730 14
	.loc 1 730 16
.LBB315:
.LBB314:
	.loc 2 151 5
.LBE314:
.LBE315:
	.loc 1 730 16 is_stmt 0
	lw	a5,%lo(TrapNetCounter)(s3)
	beq	a5,zero,.L228
	.loc 1 730 96 discriminator 1
	call	xTaskGetTickCountFromISR
.LVL338:
.L229:
	.loc 1 730 16 discriminator 4
	lw	s5,0(s1)
	mv	a1,a0
	lui	a0,%hi(.LC46)
	mv	a5,s0
	mv	a6,s5
	li	a4,730
	addi	a3,s6,%lo(.LC8)
	addi	a2,s8,%lo(.LC12)
	addi	a0,a0,%lo(.LC46)
	call	bl_printk
.LVL339:
	.loc 1 730 204 is_stmt 1 discriminator 4
	.loc 1 733 9 discriminator 4
	.loc 1 733 14 is_stmt 0 discriminator 4
	li	a1,0
	mv	a0,s5
	call	aos_open
.LVL340:
	mv	s2,a0
.LVL341:
	.loc 1 734 9 is_stmt 1 discriminator 4
	.loc 1 735 20 is_stmt 0 discriminator 4
	lw	a5,%lo(TrapNetCounter)(s3)
	.loc 1 734 12 discriminator 4
	bge	a0,zero,.L230
	.loc 1 735 13 is_stmt 1
	.loc 1 735 18
	.loc 1 735 20
.LBB316:
.LBB317:
	.loc 2 151 5
.LBE317:
.LBE316:
	.loc 1 735 20 is_stmt 0
	beq	a5,zero,.L231
	.loc 1 735 119 discriminator 1
	call	xTaskGetTickCountFromISR
.LVL342:
.L232:
	.loc 1 735 20 discriminator 4
	lui	a2,%hi(.LC9)
	mv	a1,a0
	lui	a0,%hi(.LC47)
	mv	a7,s2
	mv	a6,s5
	mv	a5,s0
	li	a4,735
	addi	a3,s4,%lo(.LC8)
	addi	a2,a2,%lo(.LC9)
	addi	a0,a0,%lo(.LC47)
	call	bl_printk
.LVL343:
	.loc 1 735 231 is_stmt 1 discriminator 4
	.loc 1 736 13 discriminator 4
.L233:
	.loc 1 729 25 is_stmt 0 discriminator 2
	addi	s0,s0,1
.LVL344:
	.loc 1 729 5 discriminator 2
	li	a5,7
	addi	s1,s1,4
	bne	s0,a5,.L240
	.loc 1 748 1
	lw	ra,204(sp)
	.cfi_remember_state
	.cfi_restore 1
	lw	s0,200(sp)
	.cfi_restore 8
.LVL345:
	lw	s1,196(sp)
	.cfi_restore 9
	lw	s2,192(sp)
	.cfi_restore 18
.LVL346:
	lw	s3,188(sp)
	.cfi_restore 19
	lw	s4,184(sp)
	.cfi_restore 20
	lw	s5,180(sp)
	.cfi_restore 21
	lw	s6,176(sp)
	.cfi_restore 22
	lw	s7,172(sp)
	.cfi_restore 23
	lw	s8,168(sp)
	.cfi_restore 24
	lw	s9,164(sp)
	.cfi_restore 25
	addi	sp,sp,208
	.cfi_def_cfa_offset 0
	jr	ra
.LVL347:
.L228:
	.cfi_restore_state
	.loc 1 730 125 discriminator 2
	call	xTaskGetTickCount
.LVL348:
	j	.L229
.LVL349:
.L231:
	.loc 1 735 148 discriminator 2
	call	xTaskGetTickCount
.LVL350:
	j	.L232
.LVL351:
.L230:
	.loc 1 738 9 is_stmt 1
	.loc 1 738 14
	.loc 1 738 16
.LBB318:
.LBB319:
	.loc 2 151 5
.LBE319:
.LBE318:
	.loc 1 738 16 is_stmt 0
	beq	a5,zero,.L234
	.loc 1 738 105 discriminator 1
	call	xTaskGetTickCountFromISR
.LVL352:
.L235:
	.loc 1 738 16 discriminator 4
	mv	a1,a0
	lui	a0,%hi(.LC48)
	mv	a6,s2
	mv	a5,s0
	li	a4,738
	addi	a3,s4,%lo(.LC8)
	addi	a2,s7,%lo(.LC33)
	addi	a0,a0,%lo(.LC48)
	call	bl_printk
.LVL353:
	.loc 1 738 208 is_stmt 1 discriminator 4
	.loc 1 741 9 discriminator 4
.L236:
	.loc 1 741 28 is_stmt 0
	li	a2,128
	addi	a1,sp,32
	mv	a0,s2
	call	aos_read
.LVL354:
	mv	s5,a0
.LVL355:
	.loc 1 741 15
	bgt	a0,zero,.L239
	.loc 1 746 9 is_stmt 1
	mv	a0,s2
.LVL356:
	call	aos_close
.LVL357:
	j	.L233
.LVL358:
.L234:
	.loc 1 738 134 is_stmt 0 discriminator 2
	call	xTaskGetTickCount
.LVL359:
	j	.L235
.LVL360:
.L239:
	.loc 1 742 13 is_stmt 1
	.loc 1 742 18
	.loc 1 742 20
.LBB320:
.LBB321:
	.loc 2 151 5
.LBE321:
.LBE320:
	.loc 1 742 20 is_stmt 0
	lw	a5,%lo(TrapNetCounter)(s3)
	beq	a5,zero,.L237
	.loc 1 742 101 discriminator 1
	call	xTaskGetTickCountFromISR
.LVL361:
.L238:
	.loc 1 742 20 discriminator 4
	addi	a3,s4,%lo(.LC8)
	addi	a2,s7,%lo(.LC33)
	mv	a1,a0
	mv	a5,s0
	addi	a0,s9,%lo(.LC49)
	li	a4,742
	call	bl_printk
.LVL362:
	.loc 1 742 200 is_stmt 1 discriminator 4
	.loc 1 743 13 discriminator 4
	li	a4,0
	mv	a3,s5
	addi	a2,sp,32
	li	a1,743
	addi	a0,s4,%lo(.LC8)
	call	log_buf_out
.LVL363:
	j	.L236
.LVL364:
.L237:
	.loc 1 742 130 is_stmt 0 discriminator 2
	call	xTaskGetTickCount
.LVL365:
	j	.L238
	.cfi_endproc
.LFE26:
	.size	test2_romfs, .-test2_romfs
	.section	.text.test3_romfs,"ax",@progbits
	.align	1
	.globl	test3_romfs
	.type	test3_romfs, @function
test3_romfs:
.LFB27:
	.loc 1 751 1 is_stmt 1
	.cfi_startproc
	.loc 1 752 5
	.loc 1 751 1 is_stmt 0
	addi	sp,sp,-144
	.cfi_def_cfa_offset 144
	sw	s1,132(sp)
	.cfi_offset 9, -12
.LBB322:
.LBB323:
	.loc 2 151 31
	lui	s1,%hi(TrapNetCounter)
.LBE323:
.LBE322:
	.loc 1 757 12
	lw	a5,%lo(TrapNetCounter)(s1)
	.loc 1 751 1
	sw	ra,140(sp)
	sw	s0,136(sp)
	sw	s2,128(sp)
	sw	s3,124(sp)
	sw	s4,120(sp)
	sw	s5,116(sp)
	sw	s6,112(sp)
	sw	s7,108(sp)
	.cfi_offset 1, -4
	.cfi_offset 8, -8
	.cfi_offset 18, -16
	.cfi_offset 19, -20
	.cfi_offset 20, -24
	.cfi_offset 21, -28
	.cfi_offset 22, -32
	.cfi_offset 23, -36
	.loc 1 752 11
	sw	zero,0(sp)
	.loc 1 753 5 is_stmt 1
	.loc 1 753 11 is_stmt 0
	sw	zero,4(sp)
	.loc 1 754 5 is_stmt 1
	.loc 1 755 5
	.loc 1 757 5
	.loc 1 757 10
	.loc 1 757 12
.LBB325:
.LBB324:
	.loc 2 151 5
.LBE324:
.LBE325:
	.loc 1 757 12 is_stmt 0
	beq	a5,zero,.L244
	.loc 1 757 93 discriminator 1
	call	xTaskGetTickCountFromISR
.LVL366:
.L245:
	.loc 1 757 12 discriminator 4
	mv	a1,a0
	lui	s0,%hi(.LC8)
	lui	s5,%hi(.LC12)
	lui	a0,%hi(.LC50)
	li	a4,757
	addi	a3,s0,%lo(.LC8)
	addi	a2,s5,%lo(.LC12)
	addi	a0,a0,%lo(.LC50)
	call	bl_printk
.LVL367:
	.loc 1 757 189 is_stmt 1 discriminator 4
	.loc 1 758 5 discriminator 4
	.loc 1 758 10 discriminator 4
	.loc 1 758 12 discriminator 4
.LBB326:
.LBB327:
	.loc 2 151 5 discriminator 4
.LBE327:
.LBE326:
	.loc 1 758 12 is_stmt 0 discriminator 4
	lw	a5,%lo(TrapNetCounter)(s1)
	beq	a5,zero,.L246
	.loc 1 758 90 discriminator 1
	call	xTaskGetTickCountFromISR
.LVL368:
.L326:
	.loc 1 758 12 discriminator 2
	lui	s6,%hi(.LC15)
	.loc 1 758 119 discriminator 2
	mv	s3,a0
	.loc 1 758 12 discriminator 2
	addi	a2,sp,4
	mv	a1,sp
	addi	a0,s6,%lo(.LC15)
	call	dirent_file
.LVL369:
	lui	s2,%hi(.LC33)
	lui	s4,%hi(.LC51)
	mv	a5,a0
	li	a4,758
	addi	a3,s0,%lo(.LC8)
	addi	a2,s2,%lo(.LC33)
	mv	a1,s3
	addi	a0,s4,%lo(.LC51)
	call	bl_printk
.LVL370:
	.loc 1 758 251 is_stmt 1 discriminator 2
	.loc 1 759 5 discriminator 2
	.loc 1 759 10 discriminator 2
	.loc 1 759 12 discriminator 2
.LBB328:
.LBB329:
	.loc 2 151 5 discriminator 2
.LBE329:
.LBE328:
	.loc 1 759 12 is_stmt 0 discriminator 2
	lw	a5,%lo(TrapNetCounter)(s1)
	beq	a5,zero,.L248
	.loc 1 759 111 discriminator 1
	call	xTaskGetTickCountFromISR
.LVL371:
.L249:
	.loc 1 759 12 discriminator 4
	lw	a6,4(sp)
	lw	a5,0(sp)
	lui	s3,%hi(.LC52)
	mv	a1,a0
	addi	a2,s2,%lo(.LC33)
	addi	a0,s3,%lo(.LC52)
	li	a4,759
	addi	a3,s0,%lo(.LC8)
	call	bl_printk
.LVL372:
	.loc 1 759 229 is_stmt 1 discriminator 4
	.loc 1 760 5 discriminator 4
	.loc 1 760 11 is_stmt 0 discriminator 4
	addi	a2,sp,8
	addi	a1,s6,%lo(.LC15)
	li	a0,0
	call	romfs_stat
.LVL373:
	.loc 1 761 5 is_stmt 1 discriminator 4
	.loc 1 761 8 is_stmt 0 discriminator 4
	bne	a0,zero,.L250
	.loc 1 762 9 is_stmt 1
	.loc 1 762 14
	.loc 1 762 16
.LBB330:
.LBB331:
	.loc 2 151 5
.LBE331:
.LBE330:
	.loc 1 762 16 is_stmt 0
	lw	a5,%lo(TrapNetCounter)(s1)
	beq	a5,zero,.L251
	.loc 1 762 100 discriminator 1
	call	xTaskGetTickCountFromISR
.LVL374:
.L252:
	.loc 1 762 16 discriminator 4
	lw	a5,24(sp)
	mv	a1,a0
	lui	a0,%hi(.LC53)
	li	a4,762
	addi	a3,s0,%lo(.LC8)
	addi	a2,s2,%lo(.LC33)
	addi	a0,a0,%lo(.LC53)
	call	bl_printk
.LVL375:
.L250:
	.loc 1 762 208 is_stmt 1 discriminator 5
	.loc 1 765 5 discriminator 5
	.loc 1 765 10 discriminator 5
	.loc 1 765 12 discriminator 5
.LBB332:
.LBB333:
	.loc 2 151 5 discriminator 5
.LBE333:
.LBE332:
	.loc 1 765 12 is_stmt 0 discriminator 5
	lw	a5,%lo(TrapNetCounter)(s1)
	beq	a5,zero,.L253
	.loc 1 765 94 discriminator 1
	call	xTaskGetTickCountFromISR
.LVL376:
.L254:
	.loc 1 765 12 discriminator 4
	mv	a1,a0
	lui	a0,%hi(.LC54)
	li	a4,765
	addi	a3,s0,%lo(.LC8)
	addi	a2,s5,%lo(.LC12)
	addi	a0,a0,%lo(.LC54)
	call	bl_printk
.LVL377:
	.loc 1 765 190 is_stmt 1 discriminator 4
	.loc 1 766 5 discriminator 4
	.loc 1 766 10 discriminator 4
	.loc 1 766 12 discriminator 4
.LBB334:
.LBB335:
	.loc 2 151 5 discriminator 4
.LBE335:
.LBE334:
	.loc 1 766 12 is_stmt 0 discriminator 4
	lw	a5,%lo(TrapNetCounter)(s1)
	beq	a5,zero,.L255
	.loc 1 766 90 discriminator 1
	call	xTaskGetTickCountFromISR
.LVL378:
.L327:
	.loc 1 766 119 discriminator 2
	mv	s7,a0
	.loc 1 766 12 discriminator 2
	lui	a0,%hi(.LC55)
	addi	a2,sp,4
	mv	a1,sp
	addi	a0,a0,%lo(.LC55)
	call	dirent_file
.LVL379:
	mv	a5,a0
	li	a4,766
	addi	a3,s0,%lo(.LC8)
	addi	a2,s2,%lo(.LC33)
	mv	a1,s7
	addi	a0,s4,%lo(.LC51)
	call	bl_printk
.LVL380:
	.loc 1 766 252 is_stmt 1 discriminator 2
	.loc 1 767 5 discriminator 2
	.loc 1 767 10 discriminator 2
	.loc 1 767 12 discriminator 2
.LBB336:
.LBB337:
	.loc 2 151 5 discriminator 2
.LBE337:
.LBE336:
	.loc 1 767 12 is_stmt 0 discriminator 2
	lw	a5,%lo(TrapNetCounter)(s1)
	beq	a5,zero,.L257
	.loc 1 767 111 discriminator 1
	call	xTaskGetTickCountFromISR
.LVL381:
.L258:
	.loc 1 767 12 discriminator 4
	lw	a6,4(sp)
	lw	a5,0(sp)
	mv	a1,a0
	addi	a2,s2,%lo(.LC33)
	addi	a0,s3,%lo(.LC52)
	li	a4,767
	addi	a3,s0,%lo(.LC8)
	call	bl_printk
.LVL382:
	.loc 1 767 229 is_stmt 1 discriminator 4
	.loc 1 768 5 discriminator 4
	.loc 1 768 11 is_stmt 0 discriminator 4
	addi	a2,sp,8
	addi	a1,s6,%lo(.LC15)
	li	a0,0
	call	romfs_stat
.LVL383:
	.loc 1 769 5 is_stmt 1 discriminator 4
	.loc 1 769 8 is_stmt 0 discriminator 4
	bne	a0,zero,.L259
	.loc 1 770 9 is_stmt 1
	.loc 1 770 14
	.loc 1 770 16
.LBB338:
.LBB339:
	.loc 2 151 5
.LBE339:
.LBE338:
	.loc 1 770 16 is_stmt 0
	lw	a5,%lo(TrapNetCounter)(s1)
	beq	a5,zero,.L260
	.loc 1 770 100 discriminator 1
	call	xTaskGetTickCountFromISR
.LVL384:
.L261:
	.loc 1 770 16 discriminator 4
	lw	a5,24(sp)
	mv	a1,a0
	lui	a0,%hi(.LC53)
	li	a4,770
	addi	a3,s0,%lo(.LC8)
	addi	a2,s2,%lo(.LC33)
	addi	a0,a0,%lo(.LC53)
	call	bl_printk
.LVL385:
.L259:
	.loc 1 770 208 is_stmt 1 discriminator 5
	.loc 1 773 5 discriminator 5
	.loc 1 773 10 discriminator 5
	.loc 1 773 12 discriminator 5
.LBB340:
.LBB341:
	.loc 2 151 5 discriminator 5
.LBE341:
.LBE340:
	.loc 1 773 12 is_stmt 0 discriminator 5
	lw	a5,%lo(TrapNetCounter)(s1)
	beq	a5,zero,.L262
	.loc 1 773 92 discriminator 1
	call	xTaskGetTickCountFromISR
.LVL386:
.L263:
	.loc 1 773 12 discriminator 4
	mv	a1,a0
	lui	a0,%hi(.LC56)
	li	a4,773
	addi	a3,s0,%lo(.LC8)
	addi	a2,s5,%lo(.LC12)
	addi	a0,a0,%lo(.LC56)
	call	bl_printk
.LVL387:
	.loc 1 773 188 is_stmt 1 discriminator 4
	.loc 1 774 5 discriminator 4
	.loc 1 774 10 discriminator 4
	.loc 1 774 12 discriminator 4
.LBB342:
.LBB343:
	.loc 2 151 5 discriminator 4
.LBE343:
.LBE342:
	.loc 1 774 12 is_stmt 0 discriminator 4
	lw	a5,%lo(TrapNetCounter)(s1)
	beq	a5,zero,.L264
	.loc 1 774 90 discriminator 1
	call	xTaskGetTickCountFromISR
.LVL388:
.L328:
	.loc 1 774 12 discriminator 2
	lui	s6,%hi(.LC57)
	.loc 1 774 119 discriminator 2
	mv	s7,a0
	.loc 1 774 12 discriminator 2
	addi	a2,sp,4
	mv	a1,sp
	addi	a0,s6,%lo(.LC57)
	call	dirent_file
.LVL389:
	mv	a5,a0
	li	a4,774
	addi	a3,s0,%lo(.LC8)
	addi	a2,s2,%lo(.LC33)
	mv	a1,s7
	addi	a0,s4,%lo(.LC51)
	call	bl_printk
.LVL390:
	.loc 1 774 250 is_stmt 1 discriminator 2
	.loc 1 775 5 discriminator 2
	.loc 1 775 10 discriminator 2
	.loc 1 775 12 discriminator 2
.LBB344:
.LBB345:
	.loc 2 151 5 discriminator 2
.LBE345:
.LBE344:
	.loc 1 775 12 is_stmt 0 discriminator 2
	lw	a5,%lo(TrapNetCounter)(s1)
	beq	a5,zero,.L266
	.loc 1 775 111 discriminator 1
	call	xTaskGetTickCountFromISR
.LVL391:
.L267:
	.loc 1 775 12 discriminator 4
	lw	a6,4(sp)
	lw	a5,0(sp)
	mv	a1,a0
	addi	a2,s2,%lo(.LC33)
	addi	a0,s3,%lo(.LC52)
	li	a4,775
	addi	a3,s0,%lo(.LC8)
	call	bl_printk
.LVL392:
	.loc 1 775 229 is_stmt 1 discriminator 4
	.loc 1 776 5 discriminator 4
	.loc 1 776 11 is_stmt 0 discriminator 4
	addi	a2,sp,8
	addi	a1,s6,%lo(.LC57)
	li	a0,0
	call	romfs_stat
.LVL393:
	.loc 1 777 5 is_stmt 1 discriminator 4
	.loc 1 777 8 is_stmt 0 discriminator 4
	bne	a0,zero,.L268
	.loc 1 778 9 is_stmt 1
	.loc 1 778 14
	.loc 1 778 16
.LBB346:
.LBB347:
	.loc 2 151 5
.LBE347:
.LBE346:
	.loc 1 778 16 is_stmt 0
	lw	a5,%lo(TrapNetCounter)(s1)
	beq	a5,zero,.L269
	.loc 1 778 100 discriminator 1
	call	xTaskGetTickCountFromISR
.LVL394:
.L270:
	.loc 1 778 16 discriminator 4
	lw	a5,24(sp)
	mv	a1,a0
	lui	a0,%hi(.LC53)
	li	a4,778
	addi	a3,s0,%lo(.LC8)
	addi	a2,s2,%lo(.LC33)
	addi	a0,a0,%lo(.LC53)
	call	bl_printk
.LVL395:
.L268:
	.loc 1 778 208 is_stmt 1 discriminator 5
	.loc 1 782 5 discriminator 5
	.loc 1 782 10 discriminator 5
	.loc 1 782 12 discriminator 5
.LBB348:
.LBB349:
	.loc 2 151 5 discriminator 5
.LBE349:
.LBE348:
	.loc 1 782 12 is_stmt 0 discriminator 5
	lw	a5,%lo(TrapNetCounter)(s1)
	beq	a5,zero,.L271
	.loc 1 782 103 discriminator 1
	call	xTaskGetTickCountFromISR
.LVL396:
.L272:
	.loc 1 782 12 discriminator 4
	mv	a1,a0
	lui	a0,%hi(.LC58)
	li	a4,782
	addi	a3,s0,%lo(.LC8)
	addi	a2,s5,%lo(.LC12)
	addi	a0,a0,%lo(.LC58)
	call	bl_printk
.LVL397:
	.loc 1 782 199 is_stmt 1 discriminator 4
	.loc 1 783 5 discriminator 4
	.loc 1 783 10 discriminator 4
	.loc 1 783 12 discriminator 4
.LBB350:
.LBB351:
	.loc 2 151 5 discriminator 4
.LBE351:
.LBE350:
	.loc 1 783 12 is_stmt 0 discriminator 4
	lw	a5,%lo(TrapNetCounter)(s1)
	beq	a5,zero,.L273
	.loc 1 783 90 discriminator 1
	call	xTaskGetTickCountFromISR
.LVL398:
.L329:
	.loc 1 783 12 discriminator 2
	lui	s6,%hi(.LC59)
	.loc 1 783 119 discriminator 2
	mv	s7,a0
	.loc 1 783 12 discriminator 2
	addi	a2,sp,4
	mv	a1,sp
	addi	a0,s6,%lo(.LC59)
	call	dirent_file
.LVL399:
	mv	a5,a0
	li	a4,783
	addi	a3,s0,%lo(.LC8)
	addi	a2,s2,%lo(.LC33)
	mv	a1,s7
	addi	a0,s4,%lo(.LC51)
	call	bl_printk
.LVL400:
	.loc 1 783 263 is_stmt 1 discriminator 2
	.loc 1 784 5 discriminator 2
	.loc 1 784 10 discriminator 2
	.loc 1 784 12 discriminator 2
.LBB352:
.LBB353:
	.loc 2 151 5 discriminator 2
.LBE353:
.LBE352:
	.loc 1 784 12 is_stmt 0 discriminator 2
	lw	a5,%lo(TrapNetCounter)(s1)
	beq	a5,zero,.L275
	.loc 1 784 111 discriminator 1
	call	xTaskGetTickCountFromISR
.LVL401:
.L276:
	.loc 1 784 12 discriminator 4
	lw	a6,4(sp)
	lw	a5,0(sp)
	mv	a1,a0
	addi	a2,s2,%lo(.LC33)
	addi	a0,s3,%lo(.LC52)
	li	a4,784
	addi	a3,s0,%lo(.LC8)
	call	bl_printk
.LVL402:
	.loc 1 784 229 is_stmt 1 discriminator 4
	.loc 1 785 5 discriminator 4
	.loc 1 785 11 is_stmt 0 discriminator 4
	addi	a2,sp,8
	addi	a1,s6,%lo(.LC59)
	li	a0,0
	call	romfs_stat
.LVL403:
	.loc 1 786 5 is_stmt 1 discriminator 4
	.loc 1 786 8 is_stmt 0 discriminator 4
	bne	a0,zero,.L277
	.loc 1 787 9 is_stmt 1
	.loc 1 787 14
	.loc 1 787 16
.LBB354:
.LBB355:
	.loc 2 151 5
.LBE355:
.LBE354:
	.loc 1 787 16 is_stmt 0
	lw	a5,%lo(TrapNetCounter)(s1)
	beq	a5,zero,.L278
	.loc 1 787 100 discriminator 1
	call	xTaskGetTickCountFromISR
.LVL404:
.L279:
	.loc 1 787 16 discriminator 4
	lw	a5,24(sp)
	mv	a1,a0
	lui	a0,%hi(.LC53)
	li	a4,787
	addi	a3,s0,%lo(.LC8)
	addi	a2,s2,%lo(.LC33)
	addi	a0,a0,%lo(.LC53)
	call	bl_printk
.LVL405:
.L277:
	.loc 1 787 208 is_stmt 1 discriminator 5
	.loc 1 790 5 discriminator 5
	.loc 1 790 10 discriminator 5
	.loc 1 790 12 discriminator 5
.LBB356:
.LBB357:
	.loc 2 151 5 discriminator 5
.LBE357:
.LBE356:
	.loc 1 790 12 is_stmt 0 discriminator 5
	lw	a5,%lo(TrapNetCounter)(s1)
	beq	a5,zero,.L280
	.loc 1 790 109 discriminator 1
	call	xTaskGetTickCountFromISR
.LVL406:
.L281:
	.loc 1 790 12 discriminator 4
	mv	a1,a0
	lui	a0,%hi(.LC60)
	li	a4,790
	addi	a3,s0,%lo(.LC8)
	addi	a2,s5,%lo(.LC12)
	addi	a0,a0,%lo(.LC60)
	call	bl_printk
.LVL407:
	.loc 1 790 205 is_stmt 1 discriminator 4
	.loc 1 791 5 discriminator 4
	.loc 1 791 10 discriminator 4
	.loc 1 791 12 discriminator 4
.LBB358:
.LBB359:
	.loc 2 151 5 discriminator 4
.LBE359:
.LBE358:
	.loc 1 791 12 is_stmt 0 discriminator 4
	lw	a5,%lo(TrapNetCounter)(s1)
	beq	a5,zero,.L282
	.loc 1 791 90 discriminator 1
	call	xTaskGetTickCountFromISR
.LVL408:
.L330:
	.loc 1 791 12 discriminator 2
	lui	s6,%hi(.LC0)
	.loc 1 791 119 discriminator 2
	mv	s7,a0
	.loc 1 791 12 discriminator 2
	addi	a2,sp,4
	mv	a1,sp
	addi	a0,s6,%lo(.LC0)
	call	dirent_file
.LVL409:
	mv	a5,a0
	li	a4,791
	addi	a3,s0,%lo(.LC8)
	addi	a2,s2,%lo(.LC33)
	mv	a1,s7
	addi	a0,s4,%lo(.LC51)
	call	bl_printk
.LVL410:
	.loc 1 791 269 is_stmt 1 discriminator 2
	.loc 1 792 5 discriminator 2
	.loc 1 792 10 discriminator 2
	.loc 1 792 12 discriminator 2
.LBB360:
.LBB361:
	.loc 2 151 5 discriminator 2
.LBE361:
.LBE360:
	.loc 1 792 12 is_stmt 0 discriminator 2
	lw	a5,%lo(TrapNetCounter)(s1)
	beq	a5,zero,.L284
	.loc 1 792 111 discriminator 1
	call	xTaskGetTickCountFromISR
.LVL411:
.L285:
	.loc 1 792 12 discriminator 4
	lw	a6,4(sp)
	lw	a5,0(sp)
	mv	a1,a0
	addi	a2,s2,%lo(.LC33)
	addi	a0,s3,%lo(.LC52)
	li	a4,792
	addi	a3,s0,%lo(.LC8)
	call	bl_printk
.LVL412:
	.loc 1 792 229 is_stmt 1 discriminator 4
	.loc 1 793 5 discriminator 4
	.loc 1 793 11 is_stmt 0 discriminator 4
	addi	a2,sp,8
	addi	a1,s6,%lo(.LC0)
	li	a0,0
	call	romfs_stat
.LVL413:
	.loc 1 794 5 is_stmt 1 discriminator 4
	.loc 1 794 8 is_stmt 0 discriminator 4
	bne	a0,zero,.L286
	.loc 1 795 9 is_stmt 1
	.loc 1 795 14
	.loc 1 795 16
.LBB362:
.LBB363:
	.loc 2 151 5
.LBE363:
.LBE362:
	.loc 1 795 16 is_stmt 0
	lw	a5,%lo(TrapNetCounter)(s1)
	beq	a5,zero,.L287
	.loc 1 795 100 discriminator 1
	call	xTaskGetTickCountFromISR
.LVL414:
.L288:
	.loc 1 795 16 discriminator 4
	lw	a5,24(sp)
	mv	a1,a0
	lui	a0,%hi(.LC53)
	li	a4,795
	addi	a3,s0,%lo(.LC8)
	addi	a2,s2,%lo(.LC33)
	addi	a0,a0,%lo(.LC53)
	call	bl_printk
.LVL415:
.L286:
	.loc 1 795 208 is_stmt 1 discriminator 5
	.loc 1 799 5 discriminator 5
	.loc 1 799 10 discriminator 5
	.loc 1 799 12 discriminator 5
.LBB364:
.LBB365:
	.loc 2 151 5 discriminator 5
.LBE365:
.LBE364:
	.loc 1 799 12 is_stmt 0 discriminator 5
	lw	a5,%lo(TrapNetCounter)(s1)
	beq	a5,zero,.L289
	.loc 1 799 102 discriminator 1
	call	xTaskGetTickCountFromISR
.LVL416:
.L290:
	.loc 1 799 12 discriminator 4
	mv	a1,a0
	lui	a0,%hi(.LC61)
	li	a4,799
	addi	a3,s0,%lo(.LC8)
	addi	a2,s5,%lo(.LC12)
	addi	a0,a0,%lo(.LC61)
	call	bl_printk
.LVL417:
	.loc 1 799 198 is_stmt 1 discriminator 4
	.loc 1 800 5 discriminator 4
	.loc 1 800 10 discriminator 4
	.loc 1 800 12 discriminator 4
.LBB366:
.LBB367:
	.loc 2 151 5 discriminator 4
.LBE367:
.LBE366:
	.loc 1 800 12 is_stmt 0 discriminator 4
	lw	a5,%lo(TrapNetCounter)(s1)
	beq	a5,zero,.L291
	.loc 1 800 90 discriminator 1
	call	xTaskGetTickCountFromISR
.LVL418:
.L331:
	.loc 1 800 12 discriminator 2
	lui	s6,%hi(.LC62)
	.loc 1 800 119 discriminator 2
	mv	s7,a0
	.loc 1 800 12 discriminator 2
	addi	a2,sp,4
	mv	a1,sp
	addi	a0,s6,%lo(.LC62)
	call	dirent_file
.LVL419:
	mv	a5,a0
	li	a4,800
	addi	a3,s0,%lo(.LC8)
	addi	a2,s2,%lo(.LC33)
	mv	a1,s7
	addi	a0,s4,%lo(.LC51)
	call	bl_printk
.LVL420:
	.loc 1 800 262 is_stmt 1 discriminator 2
	.loc 1 801 5 discriminator 2
	.loc 1 801 10 discriminator 2
	.loc 1 801 12 discriminator 2
.LBB368:
.LBB369:
	.loc 2 151 5 discriminator 2
.LBE369:
.LBE368:
	.loc 1 801 12 is_stmt 0 discriminator 2
	lw	a5,%lo(TrapNetCounter)(s1)
	beq	a5,zero,.L293
	.loc 1 801 111 discriminator 1
	call	xTaskGetTickCountFromISR
.LVL421:
.L294:
	.loc 1 801 12 discriminator 4
	lw	a6,4(sp)
	lw	a5,0(sp)
	mv	a1,a0
	addi	a2,s2,%lo(.LC33)
	addi	a0,s3,%lo(.LC52)
	li	a4,801
	addi	a3,s0,%lo(.LC8)
	call	bl_printk
.LVL422:
	.loc 1 801 229 is_stmt 1 discriminator 4
	.loc 1 802 5 discriminator 4
	.loc 1 802 11 is_stmt 0 discriminator 4
	addi	a2,sp,8
	addi	a1,s6,%lo(.LC62)
	li	a0,0
	call	romfs_stat
.LVL423:
	.loc 1 803 5 is_stmt 1 discriminator 4
	.loc 1 803 8 is_stmt 0 discriminator 4
	bne	a0,zero,.L295
	.loc 1 804 9 is_stmt 1
	.loc 1 804 14
	.loc 1 804 16
.LBB370:
.LBB371:
	.loc 2 151 5
.LBE371:
.LBE370:
	.loc 1 804 16 is_stmt 0
	lw	a5,%lo(TrapNetCounter)(s1)
	beq	a5,zero,.L296
	.loc 1 804 100 discriminator 1
	call	xTaskGetTickCountFromISR
.LVL424:
.L297:
	.loc 1 804 16 discriminator 4
	lw	a5,24(sp)
	mv	a1,a0
	lui	a0,%hi(.LC53)
	li	a4,804
	addi	a3,s0,%lo(.LC8)
	addi	a2,s2,%lo(.LC33)
	addi	a0,a0,%lo(.LC53)
	call	bl_printk
.LVL425:
.L295:
	.loc 1 804 208 is_stmt 1 discriminator 5
	.loc 1 807 5 discriminator 5
	.loc 1 807 10 discriminator 5
	.loc 1 807 12 discriminator 5
.LBB372:
.LBB373:
	.loc 2 151 5 discriminator 5
.LBE373:
.LBE372:
	.loc 1 807 12 is_stmt 0 discriminator 5
	lw	a5,%lo(TrapNetCounter)(s1)
	beq	a5,zero,.L298
	.loc 1 807 109 discriminator 1
	call	xTaskGetTickCountFromISR
.LVL426:
.L299:
	.loc 1 807 12 discriminator 4
	mv	a1,a0
	lui	a0,%hi(.LC63)
	li	a4,807
	addi	a3,s0,%lo(.LC8)
	addi	a2,s5,%lo(.LC12)
	addi	a0,a0,%lo(.LC63)
	call	bl_printk
.LVL427:
	.loc 1 807 205 is_stmt 1 discriminator 4
	.loc 1 808 5 discriminator 4
	.loc 1 808 10 discriminator 4
	.loc 1 808 12 discriminator 4
.LBB374:
.LBB375:
	.loc 2 151 5 discriminator 4
.LBE375:
.LBE374:
	.loc 1 808 12 is_stmt 0 discriminator 4
	lw	a5,%lo(TrapNetCounter)(s1)
	beq	a5,zero,.L300
	.loc 1 808 90 discriminator 1
	call	xTaskGetTickCountFromISR
.LVL428:
.L332:
	.loc 1 808 12 discriminator 2
	lui	s6,%hi(.LC2)
	.loc 1 808 119 discriminator 2
	mv	s7,a0
	.loc 1 808 12 discriminator 2
	addi	a2,sp,4
	mv	a1,sp
	addi	a0,s6,%lo(.LC2)
	call	dirent_file
.LVL429:
	mv	a5,a0
	li	a4,808
	addi	a3,s0,%lo(.LC8)
	addi	a2,s2,%lo(.LC33)
	mv	a1,s7
	addi	a0,s4,%lo(.LC51)
	call	bl_printk
.LVL430:
	.loc 1 808 269 is_stmt 1 discriminator 2
	.loc 1 809 5 discriminator 2
	.loc 1 809 10 discriminator 2
	.loc 1 809 12 discriminator 2
.LBB376:
.LBB377:
	.loc 2 151 5 discriminator 2
.LBE377:
.LBE376:
	.loc 1 809 12 is_stmt 0 discriminator 2
	lw	a5,%lo(TrapNetCounter)(s1)
	beq	a5,zero,.L302
	.loc 1 809 111 discriminator 1
	call	xTaskGetTickCountFromISR
.LVL431:
.L303:
	.loc 1 809 12 discriminator 4
	lw	a6,4(sp)
	lw	a5,0(sp)
	mv	a1,a0
	addi	a2,s2,%lo(.LC33)
	addi	a0,s3,%lo(.LC52)
	li	a4,809
	addi	a3,s0,%lo(.LC8)
	call	bl_printk
.LVL432:
	.loc 1 809 229 is_stmt 1 discriminator 4
	.loc 1 810 5 discriminator 4
	.loc 1 810 11 is_stmt 0 discriminator 4
	addi	a2,sp,8
	addi	a1,s6,%lo(.LC2)
	li	a0,0
	call	romfs_stat
.LVL433:
	.loc 1 811 5 is_stmt 1 discriminator 4
	.loc 1 811 8 is_stmt 0 discriminator 4
	bne	a0,zero,.L304
	.loc 1 812 9 is_stmt 1
	.loc 1 812 14
	.loc 1 812 16
.LBB378:
.LBB379:
	.loc 2 151 5
.LBE379:
.LBE378:
	.loc 1 812 16 is_stmt 0
	lw	a5,%lo(TrapNetCounter)(s1)
	beq	a5,zero,.L305
	.loc 1 812 100 discriminator 1
	call	xTaskGetTickCountFromISR
.LVL434:
.L306:
	.loc 1 812 16 discriminator 4
	lw	a5,24(sp)
	mv	a1,a0
	lui	a0,%hi(.LC53)
	li	a4,812
	addi	a3,s0,%lo(.LC8)
	addi	a2,s2,%lo(.LC33)
	addi	a0,a0,%lo(.LC53)
	call	bl_printk
.LVL435:
.L304:
	.loc 1 812 208 is_stmt 1 discriminator 5
	.loc 1 815 5 discriminator 5
	.loc 1 815 10 discriminator 5
	.loc 1 815 12 discriminator 5
.LBB380:
.LBB381:
	.loc 2 151 5 discriminator 5
.LBE381:
.LBE380:
	.loc 1 815 12 is_stmt 0 discriminator 5
	lw	a5,%lo(TrapNetCounter)(s1)
	beq	a5,zero,.L307
	.loc 1 815 110 discriminator 1
	call	xTaskGetTickCountFromISR
.LVL436:
.L308:
	.loc 1 815 12 discriminator 4
	mv	a1,a0
	lui	a0,%hi(.LC64)
	li	a4,815
	addi	a3,s0,%lo(.LC8)
	addi	a2,s5,%lo(.LC12)
	addi	a0,a0,%lo(.LC64)
	call	bl_printk
.LVL437:
	.loc 1 815 206 is_stmt 1 discriminator 4
	.loc 1 816 5 discriminator 4
	.loc 1 816 10 discriminator 4
	.loc 1 816 12 discriminator 4
.LBB382:
.LBB383:
	.loc 2 151 5 discriminator 4
.LBE383:
.LBE382:
	.loc 1 816 12 is_stmt 0 discriminator 4
	lw	a5,%lo(TrapNetCounter)(s1)
	beq	a5,zero,.L309
	.loc 1 816 90 discriminator 1
	call	xTaskGetTickCountFromISR
.LVL438:
.L333:
	.loc 1 816 12 discriminator 2
	lui	s5,%hi(.LC65)
	.loc 1 816 119 discriminator 2
	mv	s6,a0
	.loc 1 816 12 discriminator 2
	addi	a2,sp,4
	mv	a1,sp
	addi	a0,s5,%lo(.LC65)
	call	dirent_file
.LVL439:
	mv	a5,a0
	li	a4,816
	addi	a3,s0,%lo(.LC8)
	addi	a2,s2,%lo(.LC33)
	mv	a1,s6
	addi	a0,s4,%lo(.LC51)
	call	bl_printk
.LVL440:
	.loc 1 816 270 is_stmt 1 discriminator 2
	.loc 1 817 5 discriminator 2
	.loc 1 817 10 discriminator 2
	.loc 1 817 12 discriminator 2
.LBB384:
.LBB385:
	.loc 2 151 5 discriminator 2
.LBE385:
.LBE384:
	.loc 1 817 12 is_stmt 0 discriminator 2
	lw	a5,%lo(TrapNetCounter)(s1)
	beq	a5,zero,.L311
	.loc 1 817 111 discriminator 1
	call	xTaskGetTickCountFromISR
.LVL441:
.L312:
	.loc 1 817 12 discriminator 4
	lw	a6,4(sp)
	lw	a5,0(sp)
	addi	a3,s0,%lo(.LC8)
	addi	a2,s2,%lo(.LC33)
	mv	a1,a0
	li	a4,817
	addi	a0,s3,%lo(.LC52)
	call	bl_printk
.LVL442:
	.loc 1 817 229 is_stmt 1 discriminator 4
	.loc 1 818 5 discriminator 4
	.loc 1 818 11 is_stmt 0 discriminator 4
	addi	a2,sp,8
	addi	a1,s5,%lo(.LC65)
	li	a0,0
	call	romfs_stat
.LVL443:
	.loc 1 819 5 is_stmt 1 discriminator 4
	lui	s1,%hi(TrapNetCounter)
	lui	s0,%hi(.LC8)
	lui	s2,%hi(.LC33)
	.loc 1 819 8 is_stmt 0 discriminator 4
	bne	a0,zero,.L313
	.loc 1 820 9 is_stmt 1
	.loc 1 820 14
	.loc 1 820 16
.LBB386:
.LBB387:
	.loc 2 151 5
.LBE387:
.LBE386:
	.loc 1 820 16 is_stmt 0
	lw	a5,%lo(TrapNetCounter)(s1)
	beq	a5,zero,.L314
	.loc 1 820 100 discriminator 1
	call	xTaskGetTickCountFromISR
.LVL444:
.L315:
	.loc 1 820 16 discriminator 4
	lw	a5,24(sp)
	mv	a1,a0
	lui	a0,%hi(.LC53)
	li	a4,820
	addi	a3,s0,%lo(.LC8)
	addi	a2,s2,%lo(.LC33)
	addi	a0,a0,%lo(.LC53)
	call	bl_printk
.LVL445:
.L313:
	.loc 1 820 208 is_stmt 1 discriminator 5
	.loc 1 823 5 discriminator 5
	.loc 1 823 10 discriminator 5
	.loc 1 823 12 discriminator 5
.LBB388:
.LBB389:
	.loc 2 151 5 discriminator 5
.LBE389:
.LBE388:
	.loc 1 823 12 is_stmt 0 discriminator 5
	lw	a5,%lo(TrapNetCounter)(s1)
	beq	a5,zero,.L316
	.loc 1 823 117 discriminator 1
	call	xTaskGetTickCountFromISR
.LVL446:
.L317:
	.loc 1 823 12 discriminator 4
	mv	a1,a0
	lui	a2,%hi(.LC12)
	lui	a0,%hi(.LC66)
	li	a4,823
	addi	a3,s0,%lo(.LC8)
	addi	a2,a2,%lo(.LC12)
	addi	a0,a0,%lo(.LC66)
	call	bl_printk
.LVL447:
	.loc 1 823 213 is_stmt 1 discriminator 4
	.loc 1 824 5 discriminator 4
	.loc 1 824 10 discriminator 4
	.loc 1 824 12 discriminator 4
.LBB390:
.LBB391:
	.loc 2 151 5 discriminator 4
.LBE391:
.LBE390:
	.loc 1 824 12 is_stmt 0 discriminator 4
	lw	a5,%lo(TrapNetCounter)(s1)
	beq	a5,zero,.L318
	.loc 1 824 90 discriminator 1
	call	xTaskGetTickCountFromISR
.LVL448:
.L334:
	.loc 1 824 12 discriminator 2
	lui	s3,%hi(.LC1)
	.loc 1 824 119 discriminator 2
	mv	s4,a0
	.loc 1 824 12 discriminator 2
	addi	a2,sp,4
	mv	a1,sp
	addi	a0,s3,%lo(.LC1)
	call	dirent_file
.LVL449:
	mv	a5,a0
	lui	a0,%hi(.LC51)
	li	a4,824
	addi	a3,s0,%lo(.LC8)
	addi	a2,s2,%lo(.LC33)
	mv	a1,s4
	addi	a0,a0,%lo(.LC51)
	call	bl_printk
.LVL450:
	.loc 1 824 277 is_stmt 1 discriminator 2
	.loc 1 825 5 discriminator 2
	.loc 1 825 10 discriminator 2
	.loc 1 825 12 discriminator 2
.LBB392:
.LBB393:
	.loc 2 151 5 discriminator 2
.LBE393:
.LBE392:
	.loc 1 825 12 is_stmt 0 discriminator 2
	lw	a5,%lo(TrapNetCounter)(s1)
	beq	a5,zero,.L320
	.loc 1 825 111 discriminator 1
	call	xTaskGetTickCountFromISR
.LVL451:
.L321:
	.loc 1 825 12 discriminator 4
	lw	a6,4(sp)
	lw	a5,0(sp)
	mv	a1,a0
	lui	a0,%hi(.LC52)
	addi	a2,s2,%lo(.LC33)
	addi	a0,a0,%lo(.LC52)
	li	a4,825
	addi	a3,s0,%lo(.LC8)
	call	bl_printk
.LVL452:
	.loc 1 825 229 is_stmt 1 discriminator 4
	.loc 1 826 5 discriminator 4
	.loc 1 826 11 is_stmt 0 discriminator 4
	addi	a2,sp,8
	addi	a1,s3,%lo(.LC1)
	li	a0,0
	call	romfs_stat
.LVL453:
	.loc 1 827 5 is_stmt 1 discriminator 4
	.loc 1 827 8 is_stmt 0 discriminator 4
	bne	a0,zero,.L243
	.loc 1 828 9 is_stmt 1
	.loc 1 828 14
	.loc 1 828 16
.LBB394:
.LBB395:
	.loc 2 151 5
.LBE395:
.LBE394:
	.loc 1 828 16 is_stmt 0
	lw	a5,%lo(TrapNetCounter)(s1)
	beq	a5,zero,.L323
	.loc 1 828 100 discriminator 1
	call	xTaskGetTickCountFromISR
.LVL454:
.L324:
	.loc 1 828 16 discriminator 4
	lw	a5,24(sp)
	mv	a1,a0
	lui	a0,%hi(.LC53)
	li	a4,828
	addi	a3,s0,%lo(.LC8)
	addi	a2,s2,%lo(.LC33)
	addi	a0,a0,%lo(.LC53)
	call	bl_printk
.LVL455:
	.loc 1 828 208 is_stmt 1 discriminator 4
.L243:
	.loc 1 830 1 is_stmt 0
	lw	ra,140(sp)
	.cfi_remember_state
	.cfi_restore 1
	lw	s0,136(sp)
	.cfi_restore 8
	lw	s1,132(sp)
	.cfi_restore 9
	lw	s2,128(sp)
	.cfi_restore 18
	lw	s3,124(sp)
	.cfi_restore 19
	lw	s4,120(sp)
	.cfi_restore 20
	lw	s5,116(sp)
	.cfi_restore 21
	lw	s6,112(sp)
	.cfi_restore 22
	lw	s7,108(sp)
	.cfi_restore 23
	addi	sp,sp,144
	.cfi_def_cfa_offset 0
	jr	ra
.L244:
	.cfi_restore_state
	.loc 1 757 122 discriminator 2
	call	xTaskGetTickCount
.LVL456:
	j	.L245
.L246:
	.loc 1 758 119 discriminator 2
	call	xTaskGetTickCount
.LVL457:
	j	.L326
.L248:
	.loc 1 759 140 discriminator 2
	call	xTaskGetTickCount
.LVL458:
	j	.L249
.LVL459:
.L251:
	.loc 1 762 129 discriminator 2
	call	xTaskGetTickCount
.LVL460:
	j	.L252
.L253:
	.loc 1 765 123 discriminator 2
	call	xTaskGetTickCount
.LVL461:
	j	.L254
.L255:
	.loc 1 766 119 discriminator 2
	call	xTaskGetTickCount
.LVL462:
	j	.L327
.L257:
	.loc 1 767 140 discriminator 2
	call	xTaskGetTickCount
.LVL463:
	j	.L258
.LVL464:
.L260:
	.loc 1 770 129 discriminator 2
	call	xTaskGetTickCount
.LVL465:
	j	.L261
.L262:
	.loc 1 773 121 discriminator 2
	call	xTaskGetTickCount
.LVL466:
	j	.L263
.L264:
	.loc 1 774 119 discriminator 2
	call	xTaskGetTickCount
.LVL467:
	j	.L328
.L266:
	.loc 1 775 140 discriminator 2
	call	xTaskGetTickCount
.LVL468:
	j	.L267
.LVL469:
.L269:
	.loc 1 778 129 discriminator 2
	call	xTaskGetTickCount
.LVL470:
	j	.L270
.L271:
	.loc 1 782 132 discriminator 2
	call	xTaskGetTickCount
.LVL471:
	j	.L272
.L273:
	.loc 1 783 119 discriminator 2
	call	xTaskGetTickCount
.LVL472:
	j	.L329
.L275:
	.loc 1 784 140 discriminator 2
	call	xTaskGetTickCount
.LVL473:
	j	.L276
.LVL474:
.L278:
	.loc 1 787 129 discriminator 2
	call	xTaskGetTickCount
.LVL475:
	j	.L279
.L280:
	.loc 1 790 138 discriminator 2
	call	xTaskGetTickCount
.LVL476:
	j	.L281
.L282:
	.loc 1 791 119 discriminator 2
	call	xTaskGetTickCount
.LVL477:
	j	.L330
.L284:
	.loc 1 792 140 discriminator 2
	call	xTaskGetTickCount
.LVL478:
	j	.L285
.LVL479:
.L287:
	.loc 1 795 129 discriminator 2
	call	xTaskGetTickCount
.LVL480:
	j	.L288
.L289:
	.loc 1 799 131 discriminator 2
	call	xTaskGetTickCount
.LVL481:
	j	.L290
.L291:
	.loc 1 800 119 discriminator 2
	call	xTaskGetTickCount
.LVL482:
	j	.L331
.L293:
	.loc 1 801 140 discriminator 2
	call	xTaskGetTickCount
.LVL483:
	j	.L294
.LVL484:
.L296:
	.loc 1 804 129 discriminator 2
	call	xTaskGetTickCount
.LVL485:
	j	.L297
.L298:
	.loc 1 807 138 discriminator 2
	call	xTaskGetTickCount
.LVL486:
	j	.L299
.L300:
	.loc 1 808 119 discriminator 2
	call	xTaskGetTickCount
.LVL487:
	j	.L332
.L302:
	.loc 1 809 140 discriminator 2
	call	xTaskGetTickCount
.LVL488:
	j	.L303
.LVL489:
.L305:
	.loc 1 812 129 discriminator 2
	call	xTaskGetTickCount
.LVL490:
	j	.L306
.L307:
	.loc 1 815 139 discriminator 2
	call	xTaskGetTickCount
.LVL491:
	j	.L308
.L309:
	.loc 1 816 119 discriminator 2
	call	xTaskGetTickCount
.LVL492:
	j	.L333
.L311:
	.loc 1 817 140 discriminator 2
	call	xTaskGetTickCount
.LVL493:
	j	.L312
.LVL494:
.L314:
	.loc 1 820 129 discriminator 2
	call	xTaskGetTickCount
.LVL495:
	j	.L315
.L316:
	.loc 1 823 146 discriminator 2
	call	xTaskGetTickCount
.LVL496:
	j	.L317
.L318:
	.loc 1 824 119 discriminator 2
	call	xTaskGetTickCount
.LVL497:
	j	.L334
.L320:
	.loc 1 825 140 discriminator 2
	call	xTaskGetTickCount
.LVL498:
	j	.L321
.LVL499:
.L323:
	.loc 1 828 129 discriminator 2
	call	xTaskGetTickCount
.LVL500:
	j	.L324
	.cfi_endproc
.LFE27:
	.size	test3_romfs, .-test3_romfs
	.comm	romfh_t,16,4
	.section	.rodata
	.align	2
	.set	.LANCHOR3,. + 0
.LC45:
	.word	.LC0
	.word	.LC1
	.word	.LC2
	.word	.LC3
	.word	.LC4
	.word	.LC5
	.word	.LC6
	.section	.rodata.dirent_file.str1.4,"aMS",@progbits,1
	.align	2
.LC15:
	.string	"/romfs"
	.zero	1
.LC16:
	.string	"[%10u][%s: %s:%4d] not support path.\r\n"
	.zero	1
.LC17:
	.string	"[%10u][%s: %s:%4d] name too long!\r\n"
.LC18:
	.string	"[%10u][%s: %s:%4d] file info error, p_name = %s, addr_start = %p, addr_end = %p\r\n"
	.zero	2
.LC19:
	.string	"[%10u][%s: %s:%4d] file info error.\r\n"
	.section	.rodata.file_info.str1.4,"aMS",@progbits,1
	.align	2
.LC8:
	.string	"bl_romfs.c"
	.zero	1
.LC9:
	.string	"\033[31mERROR \033[0m"
.LC10:
	.string	"[%10u][%s: %s:%4d] addr_start = %p, dirent_type(addr_start) = %d\r\n"
	.zero	1
.LC11:
	.string	"[%10u][%s: %s:%4d] unknow the dirent_type.\r\n"
	.zero	3
.LC12:
	.string	"\033[33mWARN  \033[0m"
.LC13:
	.string	"[%10u][%s: %s:%4d] start >= end, not found path = %s, addr_start = %p, addr_end = %p\r\n"
	.section	.rodata.romfs_lseek.str1.4,"aMS",@progbits,1
	.align	2
.LC14:
	.string	"not support whence.\r\n"
	.section	.rodata.romfs_open.str1.4,"aMS",@progbits,1
	.align	2
.LC23:
	.string	"[%10u][%s: %s:%4d] format is error.\r\n"
	.zero	2
.LC24:
	.string	"[%10u][%s: %s:%4d] is_path_ch. i = %d\r\n"
.LC25:
	.string	"[%10u][%s: %s:%4d] format error.\r\n"
	.zero	1
.LC26:
	.string	"[%10u][%s: %s:%4d] path format is error.\r\n"
	.section	.rodata.romfs_opendir.str1.4,"aMS",@progbits,1
	.align	2
.LC20:
	.string	"[%10u][%s: %s:%4d] romfs_root is null.\r\n"
	.section	.rodata.romfs_ops,"a"
	.align	2
	.set	.LANCHOR2,. + 0
	.type	romfs_ops, @object
	.size	romfs_ops, 80
romfs_ops:
	.word	romfs_open
	.word	romfs_close
	.word	romfs_read
	.word	0
	.word	romfs_lseek
	.zero	4
	.word	romfs_stat
	.word	0
	.zero	4
	.word	romfs_opendir
	.word	romfs_readdir
	.word	romfs_closedir
	.zero	12
	.word	0
	.word	0
	.word	romfs_ioctl
	.zero	4
	.word	0
	.section	.rodata.romfs_register.str1.4,"aMS",@progbits,1
	.align	2
.LC27:
	.string	"media"
	.zero	2
.LC28:
	.string	"[%10u][%s: %s:%4d] [EF] [PART] [XIP] error when get romfs partition %d\r\n"
	.zero	3
.LC29:
	.string	"[%10u][%s: %s:%4d] romfs has no XIP-Addr\r\n"
	.zero	1
.LC30:
	.string	"-rom1fs-"
	.zero	3
.LC31:
	.string	"[%10u][%s: %s:%4d] romfs magic is NOT correct\r\n"
	.section	.rodata.romfs_stat.str1.4,"aMS",@progbits,1
	.align	2
.LC21:
	.string	"[%10u][%s: %s:%4d] dirent_file res = %d\r\n"
	.zero	2
.LC22:
	.string	"[%10u][%s: %s:%4d] dirent_type err.\r\n"
	.section	.rodata.str1.4,"aMS",@progbits,1
	.align	2
.LC0:
	.string	"/romfs/child_dir1/aa.bin"
	.zero	3
.LC2:
	.string	"/romfs/child_dir2/bb.bin"
	.zero	3
.LC1:
	.string	"/romfs/child_dir2/son_dir/EE.bin"
	.zero	3
.LC3:
	.string	"/romfs/child_dir3/cc.bin"
	.zero	3
.LC4:
	.string	"/romfs/11.bin"
	.zero	2
.LC5:
	.string	"/romfs/22.bin"
	.zero	2
.LC6:
	.string	"/romfs/33.bin"
	.section	.rodata.test1_romfs.str1.4,"aMS",@progbits,1
	.align	2
.LC32:
	.string	"/romfs/child/aa.bin"
.LC33:
	.string	"\033[32mINFO  \033[0m"
.LC34:
	.string	"[%10u][%s: %s:%4d] fd = %d\r\n"
	.zero	3
.LC35:
	.string	"[%10u][%s: %s:%4d] open error.\r\n"
	.zero	3
.LC36:
	.string	"[%10u][%s: %s:%4d] case1:len = %d\r\n"
.LC37:
	.string	"[%10u][%s: %s:%4d] case2:len = %d\r\n"
.LC38:
	.string	"[%10u][%s: %s:%4d] case3:len = %d\r\n"
.LC39:
	.string	"[%10u][%s: %s:%4d] case4:len = %d\r\n"
.LC40:
	.string	"[%10u][%s: %s:%4d] buf:\r\n"
	.zero	2
.LC41:
	.string	"[%10u][%s: %s:%4d] filebuf.buf = %p\r\n"
	.zero	2
.LC42:
	.string	"[%10u][%s: %s:%4d] filebuf.bufsize = %lu\r\n"
	.zero	1
.LC43:
	.string	"[%10u][%s: %s:%4d] aos_lseek(end) = 0x%08lx\r\n"
	.zero	2
.LC44:
	.string	"[%10u][%s: %s:%4d] case5:len = %d\r\n"
	.section	.rodata.test2_romfs.str1.4,"aMS",@progbits,1
	.align	2
.LC46:
	.string	"[%10u][%s: %s:%4d] test[%d] %s \r\n"
	.zero	2
.LC47:
	.string	"[%10u][%s: %s:%4d] test[%d] open %s error, fd = %d\r\n"
	.zero	3
.LC48:
	.string	"[%10u][%s: %s:%4d] test[%d] open fd = %d\r\n"
	.zero	1
.LC49:
	.string	"[%10u][%s: %s:%4d] test[%d] buf:\r\n"
	.section	.rodata.test3_romfs.str1.4,"aMS",@progbits,1
	.align	2
.LC50:
	.string	"[%10u][%s: %s:%4d] test /romfs .\r\n"
	.zero	1
.LC51:
	.string	"[%10u][%s: %s:%4d] addr = %ld\r\n"
.LC52:
	.string	"[%10u][%s: %s:%4d] test start_addr:%p, end_addr:%p\r\n"
	.zero	3
.LC53:
	.string	"[%10u][%s: %s:%4d] st.st_size = %ld\r\n"
	.zero	2
.LC54:
	.string	"[%10u][%s: %s:%4d] test /romfs/ .\r\n"
.LC55:
	.string	"/romfs/"
.LC56:
	.string	"[%10u][%s: %s:%4d] test /romf .\r\n"
	.zero	2
.LC57:
	.string	"/romf"
	.zero	2
.LC58:
	.string	"[%10u][%s: %s:%4d] test /romfs/child_dir1/\r\n"
	.zero	3
.LC59:
	.string	"/romfs/child_dir1/"
	.zero	1
.LC60:
	.string	"[%10u][%s: %s:%4d] test /romfs/child_dir1/aa.bin\r\n"
	.zero	1
.LC61:
	.string	"[%10u][%s: %s:%4d] test /romfs/child_dir2\r\n"
.LC62:
	.string	"/romfs/child_dir2"
	.zero	2
.LC63:
	.string	"[%10u][%s: %s:%4d] test /romfs/child_dir2/bb.bin\r\n"
	.zero	1
.LC64:
	.string	"[%10u][%s: %s:%4d] test /romfs/child_dir2/son_dir\r\n"
.LC65:
	.string	"/romfs/child_dir2/son_dir"
	.zero	2
.LC66:
	.string	"[%10u][%s: %s:%4d] test /romfs/child_dir2/son_dir/EE.bin\r\n"
	.section	.sbss.handle_romfs,"aw",@nobits
	.align	2
	.set	.LANCHOR1,. + 0
	.type	handle_romfs, @object
	.size	handle_romfs, 4
handle_romfs:
	.zero	4
	.section	.sbss.romfs_root,"aw",@nobits
	.align	2
	.set	.LANCHOR0,. + 0
	.type	romfs_root, @object
	.size	romfs_root, 4
romfs_root:
	.zero	4
	.text
.Letext0:
	.file 3 "/home/hogc/build-tools/sdk/bl/bl_iot_sdk/toolchain/riscv/Linux/riscv64-unknown-elf/include/machine/_default_types.h"
	.file 4 "/home/hogc/build-tools/sdk/bl/bl_iot_sdk/toolchain/riscv/Linux/lib/gcc/riscv64-unknown-elf/8.3.0/include/stddef.h"
	.file 5 "/home/hogc/build-tools/sdk/bl/bl_iot_sdk/toolchain/riscv/Linux/riscv64-unknown-elf/include/sys/_types.h"
	.file 6 "/home/hogc/build-tools/sdk/bl/bl_iot_sdk/toolchain/riscv/Linux/riscv64-unknown-elf/include/sys/reent.h"
	.file 7 "/home/hogc/build-tools/sdk/bl/bl_iot_sdk/toolchain/riscv/Linux/riscv64-unknown-elf/include/sys/lock.h"
	.file 8 "/home/hogc/build-tools/sdk/bl/bl_iot_sdk/toolchain/riscv/Linux/riscv64-unknown-elf/include/sys/_stdint.h"
	.file 9 "/home/hogc/build-tools/sdk/bl/bl_iot_sdk/toolchain/riscv/Linux/riscv64-unknown-elf/include/sys/_timeval.h"
	.file 10 "/home/hogc/build-tools/sdk/bl/bl_iot_sdk/toolchain/riscv/Linux/riscv64-unknown-elf/include/sys/types.h"
	.file 11 "/home/hogc/build-tools/sdk/bl/bl_iot_sdk/toolchain/riscv/Linux/riscv64-unknown-elf/include/time.h"
	.file 12 "/home/hogc/build-tools/sdk/bl/bl_iot_sdk/toolchain/riscv/Linux/riscv64-unknown-elf/include/sys/stat.h"
	.file 13 "/home/hogc/build-tools/sdk/bl/bl_iot_sdk/components/fs/vfs/include/vfs_dir.h"
	.file 14 "/home/hogc/build-tools/sdk/bl/bl_iot_sdk/components/fs/vfs/include/vfs_inode.h"
	.file 15 "/home/hogc/build-tools/sdk/bl/bl_iot_sdk/components/fs/vfs/include/fs/vfs_romfs.h"
	.file 16 "/home/hogc/build-tools/sdk/bl/bl_iot_sdk/components/sys/blmtd/include/bl_mtd.h"
	.file 17 "/home/hogc/build-tools/sdk/bl/bl_iot_sdk/components/bl602/freertos_riscv_ram/config/task.h"
	.file 18 "/home/hogc/build-tools/sdk/bl/bl_iot_sdk/components/utils/include/utils_log.h"
	.file 19 "/home/hogc/build-tools/sdk/bl/bl_iot_sdk/components/fs/vfs/include/vfs.h"
	.file 20 "/home/hogc/build-tools/sdk/bl/bl_iot_sdk/toolchain/riscv/Linux/riscv64-unknown-elf/include/string.h"
	.file 21 "/home/hogc/build-tools/sdk/bl/bl_iot_sdk/components/fs/vfs/include/vfs_register.h"
	.file 22 "/home/hogc/build-tools/sdk/bl/bl_iot_sdk/components/stage/yloop/include/aos/kernel.h"
	.file 23 "/home/hogc/build-tools/sdk/bl/bl_iot_sdk/toolchain/riscv/Linux/riscv64-unknown-elf/include/stdio.h"
	.file 24 "<built-in>"