	.file	"stream_buffer.c"
	.option nopic
	.attribute arch, "rv32i2p0_m2p0_f2p0_c2p0"
	.attribute unaligned_access, 0
	.attribute stack_align, 16
	.text
.Ltext0:
	.cfi_sections	.debug_frame
	.section	.text.prvInitialiseNewStreamBuffer,"ax",@progbits
	.align	1
	.type	prvInitialiseNewStreamBuffer, @function
prvInitialiseNewStreamBuffer:
.LFB23:
	.file 1 "/b-l/bl_iot_sdk_new/components/bl602/freertos_riscv_ram/stream_buffer.c"
	.loc 1 1214 1
	.cfi_startproc
.LVL0:
.LBB20:
	.loc 1 1223 3
	.loc 1 1224 3
.LBE20:
	.loc 1 1214 1 is_stmt 0
	addi	sp,sp,-32
	.cfi_def_cfa_offset 32
	sw	s1,20(sp)
	.cfi_offset 9, -12
	mv	s1,a1
	sw	s0,24(sp)
.LBB21:
	.loc 1 1224 9
	li	a1,85
.LVL1:
	.cfi_offset 8, -8
.LBE21:
	.loc 1 1214 1
	mv	s0,a0
.LBB22:
	.loc 1 1224 9
	mv	a0,s1
.LVL2:
.LBE22:
	.loc 1 1214 1
	sw	s2,16(sp)
	sw	s3,12(sp)
	sw	s4,8(sp)
	sw	ra,28(sp)
	.cfi_offset 18, -16
	.cfi_offset 19, -20
	.cfi_offset 20, -24
	.cfi_offset 1, -4
	.loc 1 1214 1
	mv	s4,a2
	mv	s3,a3
	mv	s2,a4
.LBB23:
	.loc 1 1224 9
	call	memset
.LVL3:
	.loc 1 1224 5
	beq	s1,a0,.L2
	.loc 1 1224 90 is_stmt 1 discriminator 1
	call	vAssertCalled
.LVL4:
.L2:
.LBE23:
	.loc 1 1228 2
	.loc 1 1228 11 is_stmt 0
	mv	a0,s0
	li	a2,36
	li	a1,0
	call	memset
.LVL5:
	.loc 1 1229 2 is_stmt 1
	.loc 1 1229 28 is_stmt 0
	sw	s1,24(s0)
	.loc 1 1230 2 is_stmt 1
	.loc 1 1230 26 is_stmt 0
	sw	s4,8(s0)
	.loc 1 1231 2 is_stmt 1
	.loc 1 1231 37 is_stmt 0
	sw	s3,12(s0)
	.loc 1 1232 2 is_stmt 1
	.loc 1 1232 26 is_stmt 0
	sb	s2,28(s0)
	.loc 1 1233 1
	lw	ra,28(sp)
	.cfi_restore 1
	lw	s0,24(sp)
	.cfi_restore 8
.LVL6:
	lw	s1,20(sp)
	.cfi_restore 9
.LVL7:
	lw	s2,16(sp)
	.cfi_restore 18
	lw	s3,12(sp)
	.cfi_restore 19
.LVL8:
	lw	s4,8(sp)
	.cfi_restore 20
.LVL9:
	addi	sp,sp,32
	.cfi_def_cfa_offset 0
	jr	ra
	.cfi_endproc
.LFE23:
	.size	prvInitialiseNewStreamBuffer, .-prvInitialiseNewStreamBuffer
	.section	.text.prvWriteBytesToBuffer,"ax",@progbits
	.align	1
	.type	prvWriteBytesToBuffer, @function
prvWriteBytesToBuffer:
.LFB20:
	.loc 1 1089 1 is_stmt 1
	.cfi_startproc
.LVL10:
	.loc 1 1090 1
	.loc 1 1092 2
	.loc 1 1089 1 is_stmt 0
	addi	sp,sp,-48
	.cfi_def_cfa_offset 48
	sw	s1,36(sp)
	sw	s2,32(sp)
	sw	s4,24(sp)
	sw	ra,44(sp)
	sw	s0,40(sp)
	sw	s3,28(sp)
	.cfi_offset 9, -12
	.cfi_offset 18, -16
	.cfi_offset 20, -24
	.cfi_offset 1, -4
	.cfi_offset 8, -8
	.cfi_offset 19, -20
	.loc 1 1089 1
	mv	s2,a2
	mv	s1,a0
	mv	s4,a1
	.loc 1 1092 4
	beq	a2,zero,.L18
	.loc 1 1094 2 is_stmt 1
	.loc 1 1094 12 is_stmt 0
	lw	s0,4(a0)
.LVL11:
	.loc 1 1099 2 is_stmt 1
	.loc 1 1099 37 is_stmt 0
	lw	a5,8(a0)
	.loc 1 1099 47
	sub	s3,a5,s0
	.loc 1 1099 15
	bgtu	s3,a2,.L19
.LVL12:
	.loc 1 1102 2 is_stmt 1
	.loc 1 1102 20 is_stmt 0
	add	a4,s0,s3
	.loc 1 1102 4
	bltu	a5,a4,.L7
.LVL13:
.L10:
	.loc 1 1103 2 is_stmt 1
	.loc 1 1103 31 is_stmt 0
	lw	a0,24(s1)
	.loc 1 1103 11
	mv	a2,s3
	mv	a1,s4
	add	a0,a0,s0
	call	memcpy
.LVL14:
	.loc 1 1107 2 is_stmt 1
	.loc 1 1107 4 is_stmt 0
	bleu	s2,s3,.L11
	.loc 1 1110 3 is_stmt 1
	.loc 1 1110 5 is_stmt 0
	lw	a5,8(s1)
	.loc 1 1110 18
	sub	a2,s2,s3
	.loc 1 1110 5
	bgtu	a2,a5,.L20
	.loc 1 1111 3 is_stmt 1
	.loc 1 1111 12 is_stmt 0
	lw	a0,24(s1)
	add	a1,s4,s3
	call	memcpy
.LVL15:
.L11:
	.loc 1 1115 3 is_stmt 1
	.loc 1 1118 2
	.loc 1 1119 33 is_stmt 0
	lw	a5,8(s1)
	.loc 1 1118 12
	add	s0,s2,s0
.LVL16:
	.loc 1 1119 2 is_stmt 1
	.loc 1 1119 4 is_stmt 0
	bgtu	a5,s0,.L13
.L22:
	.loc 1 1121 3 is_stmt 1
	.loc 1 1121 13 is_stmt 0
	sub	s0,s0,a5
.LVL17:
.L13:
	.loc 1 1125 3 is_stmt 1
	.loc 1 1128 2
	.loc 1 1128 24 is_stmt 0
	sw	s0,4(s1)
	.loc 1 1130 2 is_stmt 1
	.loc 1 1131 1 is_stmt 0
	lw	ra,44(sp)
	.cfi_remember_state
	.cfi_restore 1
	lw	s0,40(sp)
	.cfi_restore 8
.LVL18:
	mv	a0,s2
	lw	s1,36(sp)
	.cfi_restore 9
.LVL19:
	lw	s2,32(sp)
	.cfi_restore 18
.LVL20:
	lw	s3,28(sp)
	.cfi_restore 19
	lw	s4,24(sp)
	.cfi_restore 20
.LVL21:
	addi	sp,sp,48
	.cfi_def_cfa_offset 0
	jr	ra
.LVL22:
.L19:
	.cfi_restore_state
	.loc 1 1099 15
	mv	s3,a2
.LVL23:
	.loc 1 1102 2 is_stmt 1
	.loc 1 1102 20 is_stmt 0
	add	a4,s0,s3
	.loc 1 1102 4
	bgeu	a5,a4,.L10
.LVL24:
	j	.L7
.LVL25:
.L21:
	.loc 1 1099 15
	li	s3,0
.LVL26:
.L7:
	.loc 1 1102 73 is_stmt 1 discriminator 1
	call	vAssertCalled
.LVL27:
	j	.L10
.LVL28:
.L18:
	.loc 1 1092 39 discriminator 1
	call	vAssertCalled
.LVL29:
	.loc 1 1094 2 discriminator 1
	.loc 1 1102 4 is_stmt 0 discriminator 1
	lw	a5,8(s1)
	.loc 1 1094 12 discriminator 1
	lw	s0,4(s1)
.LVL30:
	.loc 1 1099 2 is_stmt 1 discriminator 1
	.loc 1 1102 2 discriminator 1
	.loc 1 1102 4 is_stmt 0 discriminator 1
	bgtu	s0,a5,.L21
	.loc 1 1103 2 is_stmt 1
	.loc 1 1103 31 is_stmt 0
	lw	a0,24(s1)
	.loc 1 1103 11
	li	a2,0
	mv	a1,s4
	add	a0,a0,s0
	call	memcpy
.LVL31:
	.loc 1 1107 2 is_stmt 1
	.loc 1 1115 3
	.loc 1 1118 2
	.loc 1 1119 33 is_stmt 0
	lw	a5,8(s1)
	.loc 1 1118 12
	add	s0,s2,s0
.LVL32:
	.loc 1 1119 2 is_stmt 1
	.loc 1 1119 4 is_stmt 0
	bgtu	a5,s0,.L13
	j	.L22
.LVL33:
.L20:
	sw	a2,12(sp)
	.loc 1 1110 71 is_stmt 1 discriminator 1
	call	vAssertCalled
.LVL34:
	lw	a2,12(sp)
	.loc 1 1111 3 discriminator 1
	.loc 1 1111 12 is_stmt 0 discriminator 1
	lw	a0,24(s1)
	add	a1,s4,s3
	call	memcpy
.LVL35:
	j	.L11
	.cfi_endproc
.LFE20:
	.size	prvWriteBytesToBuffer, .-prvWriteBytesToBuffer
	.section	.text.prvReadBytesFromBuffer,"ax",@progbits
	.align	1
	.type	prvReadBytesFromBuffer, @function
prvReadBytesFromBuffer:
.LFB21:
	.loc 1 1135 1 is_stmt 1
	.cfi_startproc
.LVL36:
	.loc 1 1136 1
	.loc 1 1139 2
	.loc 1 1135 1 is_stmt 0
	addi	sp,sp,-32
	.cfi_def_cfa_offset 32
	sw	s0,24(sp)
	sw	ra,28(sp)
	sw	s1,20(sp)
	sw	s2,16(sp)
	sw	s3,12(sp)
	sw	s4,8(sp)
	sw	s5,4(sp)
	.cfi_offset 8, -8
	.cfi_offset 1, -4
	.cfi_offset 9, -12
	.cfi_offset 18, -16
	.cfi_offset 19, -20
	.cfi_offset 20, -24
	.cfi_offset 21, -28
	.loc 1 1139 9
	mv	s0,a3
	bgtu	a2,a3,.L24
	mv	s0,a2
.L24:
.LVL37:
	.loc 1 1141 2 is_stmt 1
	.loc 1 1141 4 is_stmt 0
	beq	s0,zero,.L23
	.loc 1 1143 3 is_stmt 1
	.loc 1 1143 13 is_stmt 0
	lw	s3,0(a0)
.LVL38:
	.loc 1 1148 3 is_stmt 1
	.loc 1 1148 38 is_stmt 0
	lw	a5,8(a0)
	.loc 1 1148 48
	sub	s4,a5,s3
	.loc 1 1148 16
	bgtu	s4,s0,.L37
	mv	s5,a1
	mv	s1,a0
	mv	s2,a2
.LVL39:
	.loc 1 1152 3 is_stmt 1
	.loc 1 1152 5 is_stmt 0
	bltu	a2,s4,.L38
.LVL40:
.L27:
	.loc 1 1153 3 is_stmt 1
	.loc 1 1153 21 is_stmt 0
	add	a4,s3,s4
	.loc 1 1153 5
	bgtu	a4,a5,.L39
.LVL41:
.L28:
	.loc 1 1154 3 is_stmt 1
	.loc 1 1154 57 is_stmt 0
	lw	a1,24(s1)
	.loc 1 1154 12
	mv	a2,s4
	mv	a0,s5
	add	a1,a1,s3
	call	memcpy
.LVL42:
	.loc 1 1158 3 is_stmt 1
	.loc 1 1158 5 is_stmt 0
	bleu	s0,s4,.L29
	.loc 1 1161 4 is_stmt 1
	.loc 1 1161 6 is_stmt 0
	bltu	s2,s0,.L40
.L30:
	.loc 1 1162 4 is_stmt 1
	.loc 1 1162 13 is_stmt 0
	lw	a1,24(s1)
	sub	a2,s0,s4
	add	a0,s5,s4
	call	memcpy
.LVL43:
.L29:
	.loc 1 1166 4 is_stmt 1
	.loc 1 1171 3
	.loc 1 1173 34 is_stmt 0
	lw	a5,8(s1)
	.loc 1 1171 13
	add	s3,s0,s3
.LVL44:
	.loc 1 1173 3 is_stmt 1
	.loc 1 1173 5 is_stmt 0
	bgtu	a5,s3,.L31
	.loc 1 1175 4 is_stmt 1
	.loc 1 1175 14 is_stmt 0
	sub	s3,s3,a5
.LVL45:
.L31:
	.loc 1 1178 3 is_stmt 1
	.loc 1 1178 25 is_stmt 0
	sw	s3,0(s1)
	.loc 1 1182 3 is_stmt 1
	.loc 1 1185 2
.LVL46:
.L23:
	.loc 1 1186 1 is_stmt 0
	mv	a0,s0
	lw	ra,28(sp)
	.cfi_remember_state
	.cfi_restore 1
	lw	s0,24(sp)
	.cfi_restore 8
.LVL47:
	lw	s1,20(sp)
	.cfi_restore 9
	lw	s2,16(sp)
	.cfi_restore 18
	lw	s3,12(sp)
	.cfi_restore 19
	lw	s4,8(sp)
	.cfi_restore 20
	lw	s5,4(sp)
	.cfi_restore 21
	addi	sp,sp,32
	.cfi_def_cfa_offset 0
	jr	ra
.LVL48:
.L37:
	.cfi_restore_state
	.loc 1 1148 16
	mv	s4,s0
	mv	s5,a1
	mv	s1,a0
	mv	s2,a2
.LVL49:
	.loc 1 1152 3 is_stmt 1
	.loc 1 1152 5 is_stmt 0
	bgeu	a2,s4,.L27
.LVL50:
.L38:
	.loc 1 1152 44 is_stmt 1 discriminator 1
	call	vAssertCalled
.LVL51:
	lw	a5,8(s1)
	.loc 1 1153 3 discriminator 1
	.loc 1 1153 21 is_stmt 0 discriminator 1
	add	a4,s3,s4
	.loc 1 1153 5 discriminator 1
	bleu	a4,a5,.L28
.L39:
	.loc 1 1153 74 is_stmt 1 discriminator 1
	call	vAssertCalled
.LVL52:
	j	.L28
.L40:
	.loc 1 1161 39 discriminator 1
	call	vAssertCalled
.LVL53:
	j	.L30
	.cfi_endproc
.LFE21:
	.size	prvReadBytesFromBuffer, .-prvReadBytesFromBuffer
	.section	.text.xStreamBufferGenericCreate,"ax",@progbits
	.align	1
	.globl	xStreamBufferGenericCreate
	.type	xStreamBufferGenericCreate, @function
xStreamBufferGenericCreate:
.LFB2:
	.loc 1 220 2
	.cfi_startproc
.LVL54:
	.loc 1 221 2
	.loc 1 222 2
	.loc 1 228 3
	.loc 1 220 2 is_stmt 0
	addi	sp,sp,-32
	.cfi_def_cfa_offset 32
	sw	s0,24(sp)
	sw	s1,20(sp)
	sw	ra,28(sp)
	sw	s2,16(sp)
	sw	s3,12(sp)
	.cfi_offset 8, -8
	.cfi_offset 9, -12
	.cfi_offset 1, -4
	.cfi_offset 18, -16
	.cfi_offset 19, -20
	.loc 1 228 5
	li	a5,1
	.loc 1 220 2
	mv	s0,a0
	mv	s1,a1
	.loc 1 228 5
	beq	a2,a5,.L53
	.loc 1 237 4 is_stmt 1
.LVL55:
	.loc 1 238 4
	.loc 1 237 12 is_stmt 0
	li	s3,0
	.loc 1 238 6
	beq	a0,zero,.L54
.LVL56:
.L43:
	.loc 1 240 3 is_stmt 1
	.loc 1 240 5 is_stmt 0
	bltu	s0,s1,.L55
.LVL57:
.L44:
	.loc 1 244 3 is_stmt 1
	.loc 1 244 5 is_stmt 0
	beq	s1,zero,.L56
.LVL58:
.L45:
	.loc 1 257 3 is_stmt 1
	.loc 1 258 3
	.loc 1 258 38 is_stmt 0
	addi	a0,s0,37
	call	pvPortMalloc
.LVL59:
	mv	s2,a0
.LVL60:
	.loc 1 260 3 is_stmt 1
	.loc 1 260 5 is_stmt 0
	beq	a0,zero,.L41
	.loc 1 262 4 is_stmt 1
	mv	a4,s3
	mv	a3,s1
	addi	a2,s0,1
.LVL61:
	addi	a1,a0,36
	call	prvInitialiseNewStreamBuffer
.LVL62:
	.loc 1 268 4
	.loc 1 272 4
	.loc 1 275 3
.L41:
	.loc 1 276 2 is_stmt 0
	lw	ra,28(sp)
	.cfi_remember_state
	.cfi_restore 1
	lw	s0,24(sp)
	.cfi_restore 8
.LVL63:
	mv	a0,s2
	lw	s1,20(sp)
	.cfi_restore 9
.LVL64:
	lw	s2,16(sp)
	.cfi_restore 18
.LVL65:
	lw	s3,12(sp)
	.cfi_restore 19
.LVL66:
	addi	sp,sp,32
	.cfi_def_cfa_offset 0
	jr	ra
.LVL67:
.L56:
	.cfi_restore_state
	.loc 1 246 23
	li	s1,1
.LVL68:
	j	.L45
.LVL69:
.L55:
	.loc 1 240 57 is_stmt 1 discriminator 1
	call	vAssertCalled
.LVL70:
	.loc 1 244 3 discriminator 1
	.loc 1 244 5 is_stmt 0 discriminator 1
	bne	s1,zero,.L45
	j	.L56
.LVL71:
.L54:
	.loc 1 238 40 is_stmt 1 discriminator 1
	call	vAssertCalled
.LVL72:
	.loc 1 237 12 is_stmt 0 discriminator 1
	mv	s3,s0
.LVL73:
	.loc 1 240 3 is_stmt 1 discriminator 1
	.loc 1 240 5 is_stmt 0 discriminator 1
	bgeu	s0,s1,.L44
	j	.L55
.LVL74:
.L53:
	.loc 1 231 4 is_stmt 1
	.loc 1 232 4
	.loc 1 232 6 is_stmt 0
	li	a5,4
	.loc 1 231 12
	li	s3,1
	.loc 1 232 6
	bgtu	a0,a5,.L43
	.loc 1 232 59 is_stmt 1 discriminator 1
	call	vAssertCalled
.LVL75:
	.loc 1 240 3 discriminator 1
	.loc 1 240 5 is_stmt 0 discriminator 1
	bgeu	s0,s1,.L44
	j	.L55
	.cfi_endproc
.LFE2:
	.size	xStreamBufferGenericCreate, .-xStreamBufferGenericCreate
	.section	.text.xStreamBufferGenericCreateStatic,"ax",@progbits
	.align	1
	.globl	xStreamBufferGenericCreateStatic
	.type	xStreamBufferGenericCreateStatic, @function
xStreamBufferGenericCreateStatic:
.LFB3:
	.loc 1 288 2 is_stmt 1
	.cfi_startproc
.LVL76:
	.loc 1 289 2
	.loc 1 288 2 is_stmt 0
	addi	sp,sp,-48
	.cfi_def_cfa_offset 48
	sw	s0,40(sp)
	sw	s1,36(sp)
	sw	s2,32(sp)
	sw	s3,28(sp)
	sw	s4,24(sp)
	sw	ra,44(sp)
	.cfi_offset 8, -8
	.cfi_offset 9, -12
	.cfi_offset 18, -16
	.cfi_offset 19, -20
	.cfi_offset 20, -24
	.cfi_offset 1, -4
	.loc 1 288 2
	mv	s3,a3
	mv	s4,a0
	mv	s2,a1
	mv	s1,a2
	mv	s0,a4
.LVL77:
	.loc 1 290 2 is_stmt 1
	.loc 1 291 2
	.loc 1 293 3
	.loc 1 293 5 is_stmt 0
	beq	a3,zero,.L72
	.loc 1 294 3 is_stmt 1
	.loc 1 294 5 is_stmt 0
	beq	s0,zero,.L73
.LVL78:
.L59:
	.loc 1 295 3 is_stmt 1
	.loc 1 295 5 is_stmt 0
	bgtu	s2,s4,.L74
.L60:
	.loc 1 299 3 is_stmt 1
	.loc 1 299 5 is_stmt 0
	beq	s2,zero,.L75
.L61:
	.loc 1 304 3 is_stmt 1
	.loc 1 312 12 is_stmt 0
	snez	s1,s1
.LVL79:
	.loc 1 319 5
	li	a5,4
	.loc 1 312 12
	addi	s1,s1,2
.LVL80:
	.loc 1 319 3 is_stmt 1
	.loc 1 319 5 is_stmt 0
	bleu	s4,a5,.L76
.L63:
.LBB24:
	.loc 1 326 4 is_stmt 1
	.loc 1 326 20 is_stmt 0
	li	a5,36
	sw	a5,12(sp)
	.loc 1 327 4 is_stmt 1
	.loc 1 327 46 is_stmt 0
	lw	a4,12(sp)
	.loc 1 327 6
	bne	a4,a5,.L77
.L64:
.LBE24:
	.loc 1 331 3 is_stmt 1
	.loc 1 331 5 is_stmt 0
	beq	s3,zero,.L67
.L78:
	.loc 1 331 45 discriminator 1
	beq	s0,zero,.L65
	.loc 1 333 4 is_stmt 1
	mv	a4,s1
	mv	a3,s2
	mv	a2,s4
	mv	a1,s3
	mv	a0,s0
	call	prvInitialiseNewStreamBuffer
.LVL81:
	.loc 1 341 4
	.loc 1 341 28 is_stmt 0
	lbu	a5,28(s0)
	ori	a5,a5,2
	sb	a5,28(s0)
	.loc 1 343 4 is_stmt 1
	.loc 1 345 4
.LVL82:
.L65:
	.loc 1 350 4
	.loc 1 353 3
	.loc 1 354 2 is_stmt 0
	mv	a0,s0
	lw	ra,44(sp)
	.cfi_remember_state
	.cfi_restore 1
	lw	s0,40(sp)
	.cfi_restore 8
.LVL83:
	lw	s1,36(sp)
	.cfi_restore 9
.LVL84:
	lw	s2,32(sp)
	.cfi_restore 18
.LVL85:
	lw	s3,28(sp)
	.cfi_restore 19
.LVL86:
	lw	s4,24(sp)
	.cfi_restore 20
.LVL87:
	addi	sp,sp,48
	.cfi_def_cfa_offset 0
	jr	ra
.LVL88:
.L75:
	.cfi_restore_state
	.loc 1 312 12
	snez	s1,s1
.LVL89:
	.loc 1 319 5
	li	a5,4
	.loc 1 301 23
	li	s2,1
.LVL90:
	.loc 1 304 3 is_stmt 1
	.loc 1 312 12 is_stmt 0
	addi	s1,s1,2
.LVL91:
	.loc 1 319 3 is_stmt 1
	.loc 1 319 5 is_stmt 0
	bgtu	s4,a5,.L63
.L76:
	.loc 1 319 58 is_stmt 1 discriminator 1
	call	vAssertCalled
.LVL92:
.LBB25:
	.loc 1 326 4 discriminator 1
	.loc 1 326 20 is_stmt 0 discriminator 1
	li	a5,36
	sw	a5,12(sp)
	.loc 1 327 4 is_stmt 1 discriminator 1
	.loc 1 327 46 is_stmt 0 discriminator 1
	lw	a4,12(sp)
	.loc 1 327 6 discriminator 1
	beq	a4,a5,.L64
.L77:
	.loc 1 327 53 is_stmt 1 discriminator 1
	call	vAssertCalled
.LVL93:
.LBE25:
	.loc 1 331 3 discriminator 1
	.loc 1 331 5 is_stmt 0 discriminator 1
	bne	s3,zero,.L78
.L67:
	.loc 1 349 12
	li	s0,0
.LVL94:
	j	.L65
.LVL95:
.L74:
	.loc 1 295 57 is_stmt 1 discriminator 1
	call	vAssertCalled
.LVL96:
	.loc 1 299 3 discriminator 1
	.loc 1 299 5 is_stmt 0 discriminator 1
	bne	s2,zero,.L61
	j	.L75
.L73:
	.loc 1 294 39 is_stmt 1 discriminator 1
	call	vAssertCalled
.LVL97:
	.loc 1 295 3 discriminator 1
	.loc 1 295 5 is_stmt 0 discriminator 1
	bleu	s2,s4,.L60
	j	.L74
.LVL98:
.L72:
	.loc 1 293 45 is_stmt 1 discriminator 1
	call	vAssertCalled
.LVL99:
	.loc 1 294 3 discriminator 1
	.loc 1 294 5 is_stmt 0 discriminator 1
	bne	s0,zero,.L59
	j	.L73
	.cfi_endproc
.LFE3:
	.size	xStreamBufferGenericCreateStatic, .-xStreamBufferGenericCreateStatic
	.section	.text.vStreamBufferDelete,"ax",@progbits
	.align	1
	.globl	vStreamBufferDelete
	.type	vStreamBufferDelete, @function
vStreamBufferDelete:
.LFB4:
	.loc 1 360 1 is_stmt 1
	.cfi_startproc
.LVL100:
	.loc 1 361 1
	.loc 1 363 2
	.loc 1 363 4 is_stmt 0
	beq	a0,zero,.L88
	.loc 1 365 2 is_stmt 1
	.loc 1 367 2
	.loc 1 367 4 is_stmt 0
	lbu	a5,28(a0)
	andi	a5,a5,2
	bne	a5,zero,.L85
	.loc 1 373 4 is_stmt 1
	tail	vPortFree
.LVL101:
.L85:
	.loc 1 387 3
	.loc 1 387 12 is_stmt 0
	li	a2,36
	li	a1,0
	tail	memset
.LVL102:
.L88:
	.loc 1 360 1 discriminator 1
	addi	sp,sp,-32
	.cfi_def_cfa_offset 32
	sw	a0,12(sp)
	.loc 1 363 32 is_stmt 1 discriminator 1
	.loc 1 360 1 is_stmt 0 discriminator 1
	sw	ra,28(sp)
	.cfi_offset 1, -4
	.loc 1 363 32 discriminator 1
	call	vAssertCalled
.LVL103:
	.loc 1 365 2 is_stmt 1 discriminator 1
	.loc 1 367 2 discriminator 1
	.loc 1 363 32 is_stmt 0 discriminator 1
	lw	a0,12(sp)
	.loc 1 367 4 discriminator 1
	lbu	a5,28(a0)
	andi	a5,a5,2
	bne	a5,zero,.L81
	.loc 1 373 4 is_stmt 1
	.loc 1 389 1 is_stmt 0
	lw	ra,28(sp)
	.cfi_remember_state
	.cfi_restore 1
	addi	sp,sp,32
	.cfi_def_cfa_offset 0
.LVL104:
	.loc 1 373 4
	tail	vPortFree
.LVL105:
.L81:
	.cfi_restore_state
	.loc 1 387 3 is_stmt 1
	.loc 1 389 1 is_stmt 0
	lw	ra,28(sp)
	.cfi_restore 1
	.loc 1 387 12
	li	a2,36
	.loc 1 389 1
	.loc 1 387 12
	li	a1,0
	.loc 1 389 1
	addi	sp,sp,32
	.cfi_def_cfa_offset 0
.LVL106:
	.loc 1 387 12
	tail	memset
.LVL107:
	.cfi_endproc
.LFE4:
	.size	vStreamBufferDelete, .-vStreamBufferDelete
	.section	.text.xStreamBufferReset,"ax",@progbits
	.align	1
	.globl	xStreamBufferReset
	.type	xStreamBufferReset, @function
xStreamBufferReset:
.LFB5:
	.loc 1 393 1 is_stmt 1
	.cfi_startproc
.LVL108:
	.loc 1 394 1
	.loc 1 393 1 is_stmt 0
	addi	sp,sp,-16
	.cfi_def_cfa_offset 16
	sw	s0,8(sp)
	sw	ra,12(sp)
	sw	s1,4(sp)
	sw	s2,0(sp)
	.cfi_offset 8, -8
	.cfi_offset 1, -4
	.cfi_offset 9, -12
	.cfi_offset 18, -16
	.loc 1 393 1
	mv	s0,a0
.LVL109:
	.loc 1 395 1 is_stmt 1
	.loc 1 398 2
	.loc 1 401 2
	.loc 1 401 4 is_stmt 0
	beq	a0,zero,.L95
.LVL110:
.L90:
	.loc 1 407 3 is_stmt 1
	.loc 1 407 24 is_stmt 0
	lw	s2,32(s0)
.LVL111:
	.loc 1 412 2 is_stmt 1
	call	vTaskEnterCritical
.LVL112:
	.loc 1 414 3
	.loc 1 414 21 is_stmt 0
	lw	a5,16(s0)
	.loc 1 395 12
	li	s1,0
	.loc 1 414 5
	beq	a5,zero,.L96
.LVL113:
.L91:
	.loc 1 431 5 is_stmt 1
	.loc 1 435 2
	call	vTaskExitCritical
.LVL114:
	.loc 1 437 2
	.loc 1 438 1 is_stmt 0
	lw	ra,12(sp)
	.cfi_remember_state
	.cfi_restore 1
	lw	s0,8(sp)
	.cfi_restore 8
.LVL115:
	mv	a0,s1
	lw	s2,0(sp)
	.cfi_restore 18
.LVL116:
	lw	s1,4(sp)
	.cfi_restore 9
.LVL117:
	addi	sp,sp,16
	.cfi_def_cfa_offset 0
	jr	ra
.LVL118:
.L96:
	.cfi_restore_state
	.loc 1 416 4 is_stmt 1
	.loc 1 416 22 is_stmt 0
	lw	a5,20(s0)
	.loc 1 416 6
	bne	a5,zero,.L91
	.loc 1 418 5 is_stmt 1
	lbu	a4,28(s0)
	lw	a3,12(s0)
	lw	a2,8(s0)
	lw	a1,24(s0)
	mv	a0,s0
	.loc 1 423 13 is_stmt 0
	li	s1,1
	.loc 1 418 5
	call	prvInitialiseNewStreamBuffer
.LVL119:
	.loc 1 423 5 is_stmt 1
	.loc 1 427 6
	.loc 1 427 43 is_stmt 0
	sw	s2,32(s0)
	j	.L91
.LVL120:
.L95:
	.loc 1 401 32 is_stmt 1 discriminator 1
	call	vAssertCalled
.LVL121:
	j	.L90
	.cfi_endproc
.LFE5:
	.size	xStreamBufferReset, .-xStreamBufferReset
	.section	.text.xStreamBufferSetTriggerLevel,"ax",@progbits
	.align	1
	.globl	xStreamBufferSetTriggerLevel
	.type	xStreamBufferSetTriggerLevel, @function
xStreamBufferSetTriggerLevel:
.LFB6:
	.loc 1 442 1
	.cfi_startproc
.LVL122:
	.loc 1 443 1
	.loc 1 442 1 is_stmt 0
	addi	sp,sp,-32
	.cfi_def_cfa_offset 32
	sw	s0,24(sp)
	sw	ra,28(sp)
	.cfi_offset 8, -8
	.cfi_offset 1, -4
	.loc 1 442 1
	mv	s0,a0
.LVL123:
	.loc 1 444 1 is_stmt 1
	.loc 1 446 2
	.loc 1 446 4 is_stmt 0
	beq	a0,zero,.L103
	.loc 1 449 2 is_stmt 1
	.loc 1 449 4 is_stmt 0
	bne	a1,zero,.L99
.LVL124:
.L104:
	.loc 1 451 17
	li	a1,1
.L99:
.LVL125:
	.loc 1 456 2 is_stmt 1
	.loc 1 456 4 is_stmt 0
	lw	a5,8(s0)
	.loc 1 463 11
	li	a0,0
	.loc 1 456 4
	bltu	a5,a1,.L97
	.loc 1 458 3 is_stmt 1
	.loc 1 458 38 is_stmt 0
	sw	a1,12(s0)
	.loc 1 459 3 is_stmt 1
.LVL126:
	.loc 1 459 11 is_stmt 0
	li	a0,1
.LVL127:
.L97:
	.loc 1 467 1
	lw	ra,28(sp)
	.cfi_remember_state
	.cfi_restore 1
	lw	s0,24(sp)
	.cfi_restore 8
.LVL128:
	addi	sp,sp,32
	.cfi_def_cfa_offset 0
	jr	ra
.LVL129:
.L103:
	.cfi_restore_state
	sw	a1,12(sp)
	.loc 1 446 32 is_stmt 1 discriminator 1
	call	vAssertCalled
.LVL130:
	lw	a1,12(sp)
	.loc 1 449 2 discriminator 1
	.loc 1 449 4 is_stmt 0 discriminator 1
	bne	a1,zero,.L99
	j	.L104
	.cfi_endproc
.LFE6:
	.size	xStreamBufferSetTriggerLevel, .-xStreamBufferSetTriggerLevel
	.section	.text.xStreamBufferSpacesAvailable,"ax",@progbits
	.align	1
	.globl	xStreamBufferSpacesAvailable
	.type	xStreamBufferSpacesAvailable, @function
xStreamBufferSpacesAvailable:
.LFB7:
	.loc 1 471 1 is_stmt 1
	.cfi_startproc
.LVL131:
	.loc 1 472 1
	.loc 1 473 1
	.loc 1 475 2
	.loc 1 475 4 is_stmt 0
	beq	a0,zero,.L114
	.loc 1 477 2 is_stmt 1
	.loc 1 477 51 is_stmt 0
	lw	a5,0(a0)
	.loc 1 477 25
	lw	a4,8(a0)
.LVL132:
	.loc 1 478 2 is_stmt 1
	.loc 1 478 26 is_stmt 0
	lw	a3,4(a0)
	.loc 1 477 9
	add	a0,a4,a5
.LVL133:
	addi	a0,a0,-1
.LVL134:
	.loc 1 479 2 is_stmt 1
	.loc 1 479 9 is_stmt 0
	sub	a0,a0,a3
.LVL135:
	.loc 1 481 2 is_stmt 1
	.loc 1 481 4 is_stmt 0
	bgtu	a4,a0,.L111
	.loc 1 483 3 is_stmt 1
	.loc 1 483 10 is_stmt 0
	sub	a0,a0,a4
.LVL136:
	.loc 1 487 3 is_stmt 1
	.loc 1 490 2
	ret
.L111:
	.loc 1 491 1 is_stmt 0
	ret
.LVL137:
.L114:
	.loc 1 471 1 discriminator 1
	addi	sp,sp,-32
	.cfi_def_cfa_offset 32
	sw	a0,12(sp)
	.loc 1 475 32 is_stmt 1 discriminator 1
	.loc 1 471 1 is_stmt 0 discriminator 1
	sw	ra,28(sp)
	.cfi_offset 1, -4
	.loc 1 475 32 discriminator 1
	call	vAssertCalled
.LVL138:
	lw	a0,12(sp)
	.loc 1 477 2 is_stmt 1 discriminator 1
	.loc 1 477 51 is_stmt 0 discriminator 1
	lw	a5,0(a0)
	.loc 1 477 25 discriminator 1
	lw	a4,8(a0)
.LVL139:
	.loc 1 478 2 is_stmt 1 discriminator 1
	.loc 1 478 26 is_stmt 0 discriminator 1
	lw	a3,4(a0)
	.loc 1 477 9 discriminator 1
	add	a0,a4,a5
.LVL140:
	addi	a0,a0,-1
.LVL141:
	.loc 1 479 2 is_stmt 1 discriminator 1
	.loc 1 479 9 is_stmt 0 discriminator 1
	sub	a0,a0,a3
.LVL142:
	.loc 1 481 2 is_stmt 1 discriminator 1
	.loc 1 481 4 is_stmt 0 discriminator 1
	bgtu	a4,a0,.L105
	.loc 1 483 3 is_stmt 1
	.loc 1 483 10 is_stmt 0
	sub	a0,a0,a4
.LVL143:
	.loc 1 487 3 is_stmt 1
	.loc 1 490 2
.L105:
	.loc 1 491 1 is_stmt 0
	lw	ra,28(sp)
	.cfi_restore 1
	addi	sp,sp,32
	.cfi_def_cfa_offset 0
.LVL144:
	jr	ra
	.cfi_endproc
.LFE7:
	.size	xStreamBufferSpacesAvailable, .-xStreamBufferSpacesAvailable
	.section	.text.xStreamBufferBytesAvailable,"ax",@progbits
	.align	1
	.globl	xStreamBufferBytesAvailable
	.type	xStreamBufferBytesAvailable, @function
xStreamBufferBytesAvailable:
.LFB8:
	.loc 1 495 1 is_stmt 1
	.cfi_startproc
.LVL145:
	.loc 1 496 1
	.loc 1 497 1
	.loc 1 499 2
	.loc 1 499 4 is_stmt 0
	beq	a0,zero,.L124
	.loc 1 501 2 is_stmt 1
.LVL146:
.LBB26:
.LBB27:
	.loc 1 1192 1
	.loc 1 1194 2
	.loc 1 1194 51 is_stmt 0
	lw	a5,4(a0)
	.loc 1 1194 25
	lw	a4,8(a0)
	.loc 1 1195 26
	lw	a3,0(a0)
	.loc 1 1194 9
	add	a0,a4,a5
.LVL147:
	.loc 1 1195 2 is_stmt 1
	.loc 1 1195 9 is_stmt 0
	sub	a0,a0,a3
.LVL148:
	.loc 1 1196 2 is_stmt 1
	.loc 1 1196 5 is_stmt 0
	bgtu	a4,a0,.L121
	.loc 1 1198 3 is_stmt 1
	.loc 1 1198 10 is_stmt 0
	sub	a0,a0,a4
.LVL149:
	.loc 1 1202 3 is_stmt 1
	.loc 1 1205 2
.LBE27:
.LBE26:
	.loc 1 502 2
	ret
.LVL150:
.L121:
	.loc 1 503 1 is_stmt 0
	ret
.LVL151:
.L124:
	.loc 1 495 1 discriminator 1
	addi	sp,sp,-32
	.cfi_def_cfa_offset 32
	sw	a0,12(sp)
	.loc 1 499 32 is_stmt 1 discriminator 1
	.loc 1 495 1 is_stmt 0 discriminator 1
	sw	ra,28(sp)
	.cfi_offset 1, -4
	.loc 1 499 32 discriminator 1
	call	vAssertCalled
.LVL152:
	lw	a0,12(sp)
	.loc 1 501 2 is_stmt 1 discriminator 1
.LVL153:
.LBB29:
.LBB28:
	.loc 1 1192 1 discriminator 1
	.loc 1 1194 2 discriminator 1
	.loc 1 1194 51 is_stmt 0 discriminator 1
	lw	a5,4(a0)
	.loc 1 1194 25 discriminator 1
	lw	a4,8(a0)
	.loc 1 1195 26 discriminator 1
	lw	a3,0(a0)
	.loc 1 1194 9 discriminator 1
	add	a0,a4,a5
.LVL154:
	.loc 1 1195 2 is_stmt 1 discriminator 1
	.loc 1 1195 9 is_stmt 0 discriminator 1
	sub	a0,a0,a3
.LVL155:
	.loc 1 1196 2 is_stmt 1 discriminator 1
	.loc 1 1196 5 is_stmt 0 discriminator 1
	bgtu	a4,a0,.L115
	.loc 1 1198 3 is_stmt 1
	.loc 1 1198 10 is_stmt 0
	sub	a0,a0,a4
.LVL156:
	.loc 1 1202 3 is_stmt 1
	.loc 1 1205 2
.LBE28:
.LBE29:
	.loc 1 502 2
.L115:
	.loc 1 503 1 is_stmt 0
	lw	ra,28(sp)
	.cfi_restore 1
	addi	sp,sp,32
	.cfi_def_cfa_offset 0
.LVL157:
	jr	ra
	.cfi_endproc
.LFE8:
	.size	xStreamBufferBytesAvailable, .-xStreamBufferBytesAvailable
	.section	.text.xStreamBufferSend,"ax",@progbits
	.align	1
	.globl	xStreamBufferSend
	.type	xStreamBufferSend, @function
xStreamBufferSend:
.LFB9:
	.loc 1 510 1 is_stmt 1
	.cfi_startproc
.LVL158:
	.loc 1 511 1
	.loc 1 510 1 is_stmt 0
	addi	sp,sp,-64
	.cfi_def_cfa_offset 64
	sw	s0,56(sp)
	sw	s3,44(sp)
	sw	s4,40(sp)
	sw	ra,60(sp)
	sw	s1,52(sp)
	sw	s2,48(sp)
	.cfi_offset 8, -8
	.cfi_offset 19, -20
	.cfi_offset 20, -24
	.cfi_offset 1, -4
	.cfi_offset 9, -12
	.cfi_offset 18, -16
	.loc 1 510 1
	sw	a3,12(sp)
	mv	s4,a1
	mv	s0,a0
.LVL159:
	.loc 1 512 1 is_stmt 1
	.loc 1 513 1
	.loc 1 510 1 is_stmt 0
	mv	s3,a2
.LVL160:
	.loc 1 514 1 is_stmt 1
	.loc 1 516 2
	.loc 1 516 4 is_stmt 0
	beq	a1,zero,.L165
	.loc 1 517 2 is_stmt 1
	.loc 1 517 4 is_stmt 0
	beq	s0,zero,.L166
.LVL161:
.L127:
	.loc 1 523 2 is_stmt 1
	.loc 1 523 4 is_stmt 0
	lbu	a5,28(s0)
	mv	s2,s3
	andi	a5,a5,1
	beq	a5,zero,.L128
.LVL162:
	.loc 1 525 3 is_stmt 1
	.loc 1 525 18 is_stmt 0
	addi	s2,s3,4
.LVL163:
	.loc 1 528 3 is_stmt 1
	.loc 1 528 5 is_stmt 0
	bgeu	s3,s2,.L167
.L128:
	.loc 1 532 3 is_stmt 1
	.loc 1 535 2
	.loc 1 535 4 is_stmt 0
	lw	a5,12(sp)
	beq	a5,zero,.L136
.L129:
	.loc 1 537 3 is_stmt 1
	addi	a0,sp,24
	call	vTaskSetTimeOutState
.LVL164:
	j	.L134
.LVL165:
.L168:
	.loc 1 550 15 is_stmt 0
	call	xTaskNotifyStateClear
.LVL166:
	.loc 1 553 6 is_stmt 1
	.loc 1 553 14
	.loc 1 553 26 is_stmt 0
	lw	a5,20(s0)
	.loc 1 553 8
	beq	a5,zero,.L133
	.loc 1 553 14 discriminator 1
	call	vAssertCalled
.LVL167:
.L133:
	.loc 1 554 6 is_stmt 1
	.loc 1 554 43 is_stmt 0
	call	xTaskGetCurrentTaskHandle
.LVL168:
	.loc 1 554 41
	sw	a0,20(s0)
	.loc 1 562 4 is_stmt 1
	call	vTaskExitCritical
.LVL169:
	.loc 1 564 4
	.loc 1 565 4
	.loc 1 565 13 is_stmt 0
	lw	a3,12(sp)
	li	a1,0
	li	a2,0
	li	a0,0
	call	xTaskNotifyWait
.LVL170:
	.loc 1 566 4 is_stmt 1
	.loc 1 568 12 is_stmt 0
	addi	a1,sp,12
	.loc 1 566 39
	sw	zero,20(s0)
	.loc 1 568 12
	addi	a0,sp,24
	call	xTaskCheckForTimeOut
.LVL171:
	.loc 1 568 3
	bne	a0,zero,.L135
.LVL172:
.L134:
	.loc 1 539 3 is_stmt 1
	.loc 1 543 4
	call	vTaskEnterCritical
.LVL173:
	.loc 1 545 5
	.loc 1 545 14 is_stmt 0
	mv	a0,s0
	call	xStreamBufferSpacesAvailable
.LVL174:
	.loc 1 550 6 is_stmt 1
	.loc 1 545 14 is_stmt 0
	mv	s1,a0
.LVL175:
	.loc 1 547 5 is_stmt 1
	.loc 1 550 15 is_stmt 0
	li	a0,0
	.loc 1 547 7
	bgtu	s2,s1,.L168
	.loc 1 558 6 is_stmt 1
	call	vTaskExitCritical
.LVL176:
	.loc 1 559 6
.L135:
	.loc 1 572 3
	.loc 1 575 2
	.loc 1 575 4 is_stmt 0
	beq	s1,zero,.L136
	.loc 1 581 3 is_stmt 1
	.loc 1 584 2
.LVL177:
	sw	s3,20(sp)
.LVL178:
.LBB34:
.LBB35:
	.loc 1 667 2
	.loc 1 668 2
	.loc 1 670 2
.L131:
	.loc 1 676 7
	.loc 1 676 9 is_stmt 0
	lbu	a5,28(s0)
	andi	a5,a5,1
	bne	a5,zero,.L139
	.loc 1 681 3 is_stmt 1
.LVL179:
	.loc 1 682 3
	.loc 1 682 85 is_stmt 0
	mv	a2,s3
	bgtu	s3,s1,.L169
.L140:
	.loc 1 682 20
	sw	a2,20(sp)
.LVL180:
	.loc 1 699 2 is_stmt 1
.L141:
	.loc 1 702 3
	.loc 1 702 13 is_stmt 0
	mv	a1,s4
	mv	a0,s0
	call	prvWriteBytesToBuffer
.LVL181:
	mv	s1,a0
.LVL182:
	.loc 1 709 2 is_stmt 1
.LBE35:
.LBE34:
	.loc 1 586 2
	.loc 1 586 4 is_stmt 0
	beq	a0,zero,.L125
	.loc 1 588 3 is_stmt 1
	.loc 1 591 3
.LVL183:
.LBB40:
.LBB41:
	.loc 1 1192 1
	.loc 1 1194 2
	.loc 1 1194 51 is_stmt 0
	lw	a5,4(s0)
	.loc 1 1194 25
	lw	a4,8(s0)
	.loc 1 1195 26
	lw	a3,0(s0)
	.loc 1 1194 9
	add	a5,a4,a5
.LVL184:
	.loc 1 1195 2 is_stmt 1
	.loc 1 1195 9 is_stmt 0
	sub	a5,a5,a3
.LVL185:
	.loc 1 1196 2 is_stmt 1
	.loc 1 1196 5 is_stmt 0
	bgtu	a4,a5,.L142
	.loc 1 1198 3 is_stmt 1
	.loc 1 1198 10 is_stmt 0
	sub	a5,a5,a4
.LVL186:
.L142:
	.loc 1 1202 3 is_stmt 1
	.loc 1 1205 2
.LBE41:
.LBE40:
	.loc 1 591 5 is_stmt 0
	lw	a4,12(s0)
	bgtu	a4,a5,.L125
	.loc 1 593 4 is_stmt 1
	call	vTaskSuspendAll
.LVL187:
	.loc 1 593 25
	.loc 1 593 47 is_stmt 0
	lw	a5,16(s0)
	.loc 1 593 27
	beq	a5,zero,.L143
	.loc 1 593 7 is_stmt 1 discriminator 1
	.loc 1 593 16 is_stmt 0 discriminator 1
	lw	a0,16(s0)
	li	a3,0
	li	a2,0
	li	a1,0
	call	xTaskGenericNotify
.LVL188:
	.loc 1 593 6 is_stmt 1 discriminator 1
	.loc 1 593 48 is_stmt 0 discriminator 1
	sw	zero,16(s0)
.L143:
	.loc 1 593 9 is_stmt 1 discriminator 3
	.loc 1 593 18 is_stmt 0 discriminator 3
	call	xTaskResumeAll
.LVL189:
	.loc 1 593 35 is_stmt 1 discriminator 3
	.loc 1 602 3 discriminator 3
	.loc 1 603 3 discriminator 3
	.loc 1 606 2 discriminator 3
	.loc 1 606 9 is_stmt 0 discriminator 3
	j	.L125
.LVL190:
.L136:
	.loc 1 577 3 is_stmt 1
	.loc 1 577 12 is_stmt 0
	mv	a0,s0
	call	xStreamBufferSpacesAvailable
.LVL191:
	sw	s3,20(sp)
	mv	s1,a0
.LVL192:
	.loc 1 581 3 is_stmt 1
	.loc 1 584 2
.LBB42:
.LBB36:
	.loc 1 667 2
	.loc 1 668 2
	.loc 1 670 2
	.loc 1 670 4 is_stmt 0
	bne	a0,zero,.L131
.L130:
.LVL193:
	.loc 1 709 2 is_stmt 1
.LBE36:
.LBE42:
	.loc 1 586 2
.LBB43:
.LBB37:
	.loc 1 706 11 is_stmt 0
	li	s1,0
.LVL194:
.L125:
.LBE37:
.LBE43:
	.loc 1 607 1
	lw	ra,60(sp)
	.cfi_remember_state
	.cfi_restore 1
	lw	s0,56(sp)
	.cfi_restore 8
.LVL195:
	mv	a0,s1
	lw	s2,48(sp)
	.cfi_restore 18
.LVL196:
	lw	s1,52(sp)
	.cfi_restore 9
	lw	s3,44(sp)
	.cfi_restore 19
.LVL197:
	lw	s4,40(sp)
	.cfi_restore 20
.LVL198:
	addi	sp,sp,64
	.cfi_def_cfa_offset 0
	jr	ra
.LVL199:
.L139:
	.cfi_restore_state
.LBB44:
.LBB38:
	.loc 1 684 7 is_stmt 1
	.loc 1 684 9 is_stmt 0
	bgtu	s2,s1,.L130
	.loc 1 690 3 is_stmt 1
.LVL200:
	.loc 1 691 3
	.loc 1 691 12 is_stmt 0
	li	a2,4
	addi	a1,sp,20
.LVL201:
	mv	a0,s0
	call	prvWriteBytesToBuffer
.LVL202:
	.loc 1 699 2 is_stmt 1
	lw	a2,20(sp)
	j	.L141
.LVL203:
.L165:
.LBE38:
.LBE44:
	.loc 1 516 26 discriminator 1
	call	vAssertCalled
.LVL204:
	.loc 1 517 2 discriminator 1
	.loc 1 517 4 is_stmt 0 discriminator 1
	bne	s0,zero,.L127
.L166:
	.loc 1 517 32 is_stmt 1 discriminator 1
	call	vAssertCalled
.LVL205:
	j	.L127
.LVL206:
.L167:
	.loc 1 528 52 discriminator 1
	call	vAssertCalled
.LVL207:
	.loc 1 532 3 discriminator 1
	.loc 1 535 2 discriminator 1
	.loc 1 535 4 is_stmt 0 discriminator 1
	lw	a5,12(sp)
	bne	a5,zero,.L129
	j	.L136
.LVL208:
.L169:
.LBB45:
.LBB39:
	.loc 1 682 85
	mv	a2,s1
.LVL209:
	j	.L140
.LBE39:
.LBE45:
	.cfi_endproc
.LFE9:
	.size	xStreamBufferSend, .-xStreamBufferSend
	.section	.text.xStreamBufferSendFromISR,"ax",@progbits
	.align	1
	.globl	xStreamBufferSendFromISR
	.type	xStreamBufferSendFromISR, @function
xStreamBufferSendFromISR:
.LFB10:
	.loc 1 614 1 is_stmt 1
	.cfi_startproc
.LVL210:
	.loc 1 615 1
	.loc 1 614 1 is_stmt 0
	addi	sp,sp,-48
	.cfi_def_cfa_offset 48
	sw	s0,40(sp)
	sw	s1,36(sp)
	sw	s2,32(sp)
	sw	s3,28(sp)
	sw	ra,44(sp)
	sw	s4,24(sp)
	.cfi_offset 8, -8
	.cfi_offset 9, -12
	.cfi_offset 18, -16
	.cfi_offset 19, -20
	.cfi_offset 1, -4
	.cfi_offset 20, -24
	.loc 1 614 1
	mv	s2,a1
	mv	s0,a0
.LVL211:
	.loc 1 616 1 is_stmt 1
	.loc 1 617 1
	.loc 1 614 1 is_stmt 0
	mv	s1,a2
.LVL212:
	.loc 1 619 2 is_stmt 1
	.loc 1 614 1 is_stmt 0
	mv	s3,a3
	.loc 1 619 4
	beq	a1,zero,.L190
	.loc 1 620 2 is_stmt 1
	.loc 1 620 4 is_stmt 0
	beq	s0,zero,.L191
.LVL213:
.L172:
	.loc 1 626 2 is_stmt 1
	.loc 1 626 4 is_stmt 0
	lbu	a5,28(s0)
	.loc 1 617 8
	mv	s4,s1
	.loc 1 626 4
	andi	a5,a5,1
	beq	a5,zero,.L173
	.loc 1 628 3 is_stmt 1
	.loc 1 628 18 is_stmt 0
	addi	s4,s1,4
.LVL214:
.L173:
	.loc 1 632 3 is_stmt 1
	.loc 1 635 2
	.loc 1 635 11 is_stmt 0
	mv	a0,s0
	call	xStreamBufferSpacesAvailable
.LVL215:
	.loc 1 636 2 is_stmt 1
	sw	s1,12(sp)
.LVL216:
.LBB51:
.LBB52:
	.loc 1 667 2
	.loc 1 668 2
	.loc 1 670 2
	.loc 1 670 4 is_stmt 0
	bne	a0,zero,.L174
.LVL217:
.L179:
	.loc 1 709 2 is_stmt 1
.LBE52:
.LBE51:
	.loc 1 638 2
.LBB57:
.LBB53:
	.loc 1 706 11 is_stmt 0
	li	s1,0
.LVL218:
.L170:
.LBE53:
.LBE57:
	.loc 1 658 1
	lw	ra,44(sp)
	.cfi_remember_state
	.cfi_restore 1
	lw	s0,40(sp)
	.cfi_restore 8
.LVL219:
	mv	a0,s1
	lw	s2,32(sp)
	.cfi_restore 18
.LVL220:
	lw	s1,36(sp)
	.cfi_restore 9
	lw	s3,28(sp)
	.cfi_restore 19
.LVL221:
	lw	s4,24(sp)
	.cfi_restore 20
.LVL222:
	addi	sp,sp,48
	.cfi_def_cfa_offset 0
	jr	ra
.LVL223:
.L174:
	.cfi_restore_state
.LBB58:
.LBB54:
	.loc 1 676 7 is_stmt 1
	.loc 1 676 9 is_stmt 0
	lbu	a5,28(s0)
	andi	a5,a5,1
	bne	a5,zero,.L176
	.loc 1 681 3 is_stmt 1
.LVL224:
	.loc 1 682 3
	.loc 1 682 85 is_stmt 0
	mv	a2,s1
	bgtu	s1,a0,.L192
.L177:
	.loc 1 682 20
	sw	a2,12(sp)
	.loc 1 699 2 is_stmt 1
.LVL225:
.L178:
	.loc 1 702 3
	.loc 1 702 13 is_stmt 0
	mv	a1,s2
	mv	a0,s0
	call	prvWriteBytesToBuffer
.LVL226:
	mv	s1,a0
.LVL227:
	.loc 1 709 2 is_stmt 1
.LBE54:
.LBE58:
	.loc 1 638 2
	.loc 1 638 4 is_stmt 0
	beq	a0,zero,.L170
	.loc 1 641 3 is_stmt 1
.LVL228:
.LBB59:
.LBB60:
	.loc 1 1192 1
	.loc 1 1194 2
	.loc 1 1194 51 is_stmt 0
	lw	a5,4(s0)
	.loc 1 1194 25
	lw	a4,8(s0)
	.loc 1 1195 26
	lw	a3,0(s0)
	.loc 1 1194 9
	add	a5,a4,a5
.LVL229:
	.loc 1 1195 2 is_stmt 1
	.loc 1 1195 9 is_stmt 0
	sub	a5,a5,a3
.LVL230:
	.loc 1 1196 2 is_stmt 1
	.loc 1 1196 5 is_stmt 0
	bgtu	a4,a5,.L180
	.loc 1 1198 3 is_stmt 1
	.loc 1 1198 10 is_stmt 0
	sub	a5,a5,a4
.LVL231:
.L180:
	.loc 1 1202 3 is_stmt 1
	.loc 1 1205 2
.LBE60:
.LBE59:
	.loc 1 641 5 is_stmt 0
	lw	a4,12(s0)
	bgtu	a4,a5,.L170
.LBB61:
	.loc 1 643 6 is_stmt 1
	.loc 1 643 42
.LVL232:
	.loc 1 643 88
	.loc 1 643 110 is_stmt 0
	lw	a5,16(s0)
	.loc 1 643 90
	beq	a5,zero,.L170
	.loc 1 643 7 is_stmt 1 discriminator 1
	.loc 1 643 16 is_stmt 0 discriminator 1
	lw	a0,16(s0)
	mv	a4,s3
	li	a3,0
	li	a2,0
	li	a1,0
	call	xTaskGenericNotifyFromISR
.LVL233:
	.loc 1 643 38 is_stmt 1 discriminator 1
	.loc 1 643 80 is_stmt 0 discriminator 1
	sw	zero,16(s0)
.LBE61:
	.loc 1 652 3 is_stmt 1 discriminator 1
	.loc 1 655 2 discriminator 1
	.loc 1 657 2 discriminator 1
	.loc 1 657 9 is_stmt 0 discriminator 1
	j	.L170
.LVL234:
.L176:
.LBB62:
.LBB55:
	.loc 1 684 7 is_stmt 1
	.loc 1 684 9 is_stmt 0
	bgtu	s4,a0,.L179
	.loc 1 690 3 is_stmt 1
.LVL235:
	.loc 1 691 3
	.loc 1 691 12 is_stmt 0
	li	a2,4
	addi	a1,sp,12
	mv	a0,s0
.LVL236:
	call	prvWriteBytesToBuffer
.LVL237:
	.loc 1 699 2 is_stmt 1
	lw	a2,12(sp)
	j	.L178
.LVL238:
.L190:
.LBE55:
.LBE62:
	.loc 1 619 26 discriminator 1
	call	vAssertCalled
.LVL239:
	.loc 1 620 2 discriminator 1
	.loc 1 620 4 is_stmt 0 discriminator 1
	bne	s0,zero,.L172
.L191:
	.loc 1 620 32 is_stmt 1 discriminator 1
	call	vAssertCalled
.LVL240:
	j	.L172
.LVL241:
.L192:
.LBB63:
.LBB56:
	.loc 1 682 85 is_stmt 0
	mv	a2,a0
	j	.L177
.LBE56:
.LBE63:
	.cfi_endproc
.LFE10:
	.size	xStreamBufferSendFromISR, .-xStreamBufferSendFromISR
	.section	.text.xStreamBufferReceive,"ax",@progbits
	.align	1
	.globl	xStreamBufferReceive
	.type	xStreamBufferReceive, @function
xStreamBufferReceive:
.LFB12:
	.loc 1 717 1 is_stmt 1
	.cfi_startproc
.LVL242:
	.loc 1 718 1
	.loc 1 717 1 is_stmt 0
	addi	sp,sp,-48
	.cfi_def_cfa_offset 48
	sw	s1,36(sp)
	sw	s3,28(sp)
	sw	s4,24(sp)
	sw	s5,20(sp)
	sw	ra,44(sp)
	sw	s0,40(sp)
	sw	s2,32(sp)
	.cfi_offset 9, -12
	.cfi_offset 19, -20
	.cfi_offset 20, -24
	.cfi_offset 21, -28
	.cfi_offset 1, -4
	.cfi_offset 8, -8
	.cfi_offset 18, -16
	.loc 1 717 1
	mv	s3,a1
	mv	s1,a0
.LVL243:
	.loc 1 719 1 is_stmt 1
	.loc 1 721 2
	.loc 1 717 1 is_stmt 0
	mv	s4,a2
	mv	s5,a3
	.loc 1 721 4
	beq	a1,zero,.L224
	.loc 1 722 2 is_stmt 1
	.loc 1 722 4 is_stmt 0
	beq	s1,zero,.L225
.LVL244:
.L195:
	.loc 1 729 2 is_stmt 1
	.loc 1 729 4 is_stmt 0
	lbu	s2,28(s1)
	.loc 1 735 30
	andi	s2,s2,1
	slli	s2,s2,2
.LVL245:
	.loc 1 738 2 is_stmt 1
	.loc 1 738 4 is_stmt 0
	bne	s5,zero,.L226
.L197:
	.loc 1 784 3 is_stmt 1
.LVL246:
.LBB72:
.LBB73:
	.loc 1 1192 1
	.loc 1 1194 2
	.loc 1 1194 51 is_stmt 0
	lw	s0,4(s1)
	.loc 1 1194 25
	lw	a5,8(s1)
	.loc 1 1195 26
	lw	a4,0(s1)
	.loc 1 1194 9
	add	s0,a5,s0
.LVL247:
	.loc 1 1195 2 is_stmt 1
	.loc 1 1195 9 is_stmt 0
	sub	s0,s0,a4
.LVL248:
	.loc 1 1196 2 is_stmt 1
	.loc 1 1196 5 is_stmt 0
	bgtu	a5,s0,.L201
	.loc 1 1198 3 is_stmt 1
	.loc 1 1198 10 is_stmt 0
	sub	s0,s0,a5
.LVL249:
.L201:
.LBE73:
.LBE72:
	.loc 1 792 2 is_stmt 1
	.loc 1 792 4 is_stmt 0
	bgtu	s0,s2,.L202
.LVL250:
.L205:
	.loc 1 719 8
	li	s0,0
.L193:
	.loc 1 814 1
	mv	a0,s0
	lw	ra,44(sp)
	.cfi_remember_state
	.cfi_restore 1
	lw	s0,40(sp)
	.cfi_restore 8
	lw	s1,36(sp)
	.cfi_restore 9
.LVL251:
	lw	s2,32(sp)
	.cfi_restore 18
.LVL252:
	lw	s3,28(sp)
	.cfi_restore 19
.LVL253:
	lw	s4,24(sp)
	.cfi_restore 20
	lw	s5,20(sp)
	.cfi_restore 21
	addi	sp,sp,48
	.cfi_def_cfa_offset 0
	jr	ra
.LVL254:
.L226:
	.cfi_restore_state
	.loc 1 742 3 is_stmt 1
	call	vTaskEnterCritical
.LVL255:
	.loc 1 744 4
.LBB74:
.LBB75:
	.loc 1 1192 1
	.loc 1 1194 2
	.loc 1 1194 25 is_stmt 0
	lw	a5,8(s1)
	.loc 1 1194 51
	lw	s0,4(s1)
	.loc 1 1195 26
	lw	a4,0(s1)
	.loc 1 1194 9
	add	s0,a5,s0
.LVL256:
	.loc 1 1195 2 is_stmt 1
	.loc 1 1195 9 is_stmt 0
	sub	s0,s0,a4
.LVL257:
	.loc 1 1196 2 is_stmt 1
	.loc 1 1196 5 is_stmt 0
	bgtu	a5,s0,.L198
	.loc 1 1198 3 is_stmt 1
	.loc 1 1198 10 is_stmt 0
	sub	s0,s0,a5
.LVL258:
.L198:
	.loc 1 1202 3 is_stmt 1
	.loc 1 1205 2
.LBE75:
.LBE74:
	.loc 1 751 4
	.loc 1 751 6 is_stmt 0
	bgeu	s2,s0,.L227
	.loc 1 762 5 is_stmt 1
	.loc 1 765 3
	call	vTaskExitCritical
.LVL259:
	.loc 1 767 3
	.loc 1 792 2
.L202:
	.loc 1 794 3
.LBB76:
.LBB77:
	.loc 1 924 1
	.loc 1 925 1
	.loc 1 927 2
	.loc 1 927 4 is_stmt 0
	bne	s2,zero,.L228
.LVL260:
.L204:
	.loc 1 964 2 is_stmt 1
	.loc 1 964 20 is_stmt 0
	mv	a3,s0
	mv	a2,s4
	mv	a1,s3
	mv	a0,s1
	call	prvReadBytesFromBuffer
.LVL261:
	mv	s0,a0
.LVL262:
	.loc 1 966 2 is_stmt 1
.LBE77:
.LBE76:
	.loc 1 797 3
	.loc 1 797 5 is_stmt 0
	beq	a0,zero,.L205
	.loc 1 799 4 is_stmt 1
	.loc 1 800 4
	call	vTaskSuspendAll
.LVL263:
	.loc 1 800 25
	.loc 1 800 47 is_stmt 0
	lw	a5,20(s1)
	.loc 1 800 27
	beq	a5,zero,.L206
	.loc 1 800 7 is_stmt 1 discriminator 1
	.loc 1 800 16 is_stmt 0 discriminator 1
	lw	a0,20(s1)
	li	a3,0
	li	a2,0
	li	a1,0
	call	xTaskGenericNotify
.LVL264:
	.loc 1 800 6 is_stmt 1 discriminator 1
	.loc 1 800 45 is_stmt 0 discriminator 1
	sw	zero,20(s1)
.L206:
	.loc 1 800 9 is_stmt 1 discriminator 3
	.loc 1 800 18 is_stmt 0 discriminator 3
	call	xTaskResumeAll
.LVL265:
	.loc 1 800 35 is_stmt 1 discriminator 3
	.loc 1 809 3 discriminator 3
	.loc 1 810 3 discriminator 3
	.loc 1 813 2 discriminator 3
	.loc 1 813 9 is_stmt 0 discriminator 3
	j	.L193
.LVL266:
.L224:
	.loc 1 721 26 is_stmt 1 discriminator 1
	call	vAssertCalled
.LVL267:
	.loc 1 722 2 discriminator 1
	.loc 1 722 4 is_stmt 0 discriminator 1
	bne	s1,zero,.L195
.L225:
	.loc 1 722 32 is_stmt 1 discriminator 1
	call	vAssertCalled
.LVL268:
	j	.L195
.LVL269:
.L228:
.LBB80:
.LBB78:
	.loc 1 933 3
	.loc 1 934 12 is_stmt 0
	mv	a3,s0
	mv	a2,s2
	addi	a1,sp,12
	mv	a0,s1
	.loc 1 933 17
	lw	s5,0(s1)
.LVL270:
	.loc 1 934 3 is_stmt 1
	.loc 1 934 12 is_stmt 0
	call	prvReadBytesFromBuffer
.LVL271:
	.loc 1 935 3 is_stmt 1
	.loc 1 935 22 is_stmt 0
	lw	a5,12(sp)
.LVL272:
	.loc 1 939 3 is_stmt 1
	.loc 1 939 19 is_stmt 0
	sub	s0,s0,s2
.LVL273:
	.loc 1 943 3 is_stmt 1
	.loc 1 943 5 is_stmt 0
	bgeu	s4,a5,.L208
	.loc 1 948 4 is_stmt 1
	.loc 1 948 26 is_stmt 0
	sw	s5,0(s1)
	.loc 1 949 4 is_stmt 1
.LVL274:
	.loc 1 949 23 is_stmt 0
	li	s4,0
.LVL275:
	j	.L204
.LVL276:
.L227:
.LBE78:
.LBE80:
	.loc 1 754 5 is_stmt 1
	.loc 1 754 14 is_stmt 0
	li	a0,0
	call	xTaskNotifyStateClear
.LVL277:
	.loc 1 757 5 is_stmt 1
	.loc 1 757 25 is_stmt 0
	lw	a5,16(s1)
	.loc 1 757 7
	beq	a5,zero,.L200
	.loc 1 757 13 is_stmt 1 discriminator 1
	call	vAssertCalled
.LVL278:
.L200:
	.loc 1 758 5
	.loc 1 758 45 is_stmt 0
	call	xTaskGetCurrentTaskHandle
.LVL279:
	.loc 1 758 43
	sw	a0,16(s1)
	.loc 1 762 5 is_stmt 1
	.loc 1 765 3
	call	vTaskExitCritical
.LVL280:
	.loc 1 767 3
	.loc 1 770 4
	.loc 1 771 4
	.loc 1 771 13 is_stmt 0
	mv	a3,s5
	li	a2,0
	li	a1,0
	li	a0,0
	call	xTaskNotifyWait
.LVL281:
	.loc 1 772 4 is_stmt 1
	.loc 1 772 42 is_stmt 0
	sw	zero,16(s1)
	.loc 1 775 4 is_stmt 1
.LVL282:
.LBB81:
.LBB82:
	.loc 1 1192 1
	.loc 1 1194 2
	j	.L197
.LVL283:
.L208:
.LBE82:
.LBE81:
.LBB83:
.LBB79:
	.loc 1 943 5 is_stmt 0
	mv	s4,a5
.LVL284:
	j	.L204
.LBE79:
.LBE83:
	.cfi_endproc
.LFE12:
	.size	xStreamBufferReceive, .-xStreamBufferReceive
	.section	.text.xStreamBufferNextMessageLengthBytes,"ax",@progbits
	.align	1
	.globl	xStreamBufferNextMessageLengthBytes
	.type	xStreamBufferNextMessageLengthBytes, @function
xStreamBufferNextMessageLengthBytes:
.LFB13:
	.loc 1 818 1 is_stmt 1
	.cfi_startproc
.LVL285:
	.loc 1 819 1
	.loc 1 818 1 is_stmt 0
	addi	sp,sp,-32
	.cfi_def_cfa_offset 32
	sw	s0,24(sp)
	sw	ra,28(sp)
	sw	s1,20(sp)
	.cfi_offset 8, -8
	.cfi_offset 1, -4
	.cfi_offset 9, -12
	.loc 1 818 1
	mv	s0,a0
.LVL286:
	.loc 1 820 1 is_stmt 1
	.loc 1 821 1
	.loc 1 823 2
	.loc 1 823 4 is_stmt 0
	beq	a0,zero,.L240
.LVL287:
.L230:
	.loc 1 826 2 is_stmt 1
	.loc 1 826 4 is_stmt 0
	lbu	a5,28(s0)
	.loc 1 854 11
	li	a0,0
	.loc 1 826 4
	andi	a5,a5,1
	beq	a5,zero,.L229
	.loc 1 828 3 is_stmt 1
.LVL288:
.LBB84:
.LBB85:
	.loc 1 1192 1
	.loc 1 1194 2
	.loc 1 1194 51 is_stmt 0
	lw	a0,4(s0)
	.loc 1 1194 25
	lw	a5,8(s0)
	.loc 1 1195 26
	lw	a3,0(s0)
	.loc 1 1194 9
	add	a0,a5,a0
.LVL289:
	.loc 1 1195 2 is_stmt 1
	.loc 1 1195 9 is_stmt 0
	sub	a0,a0,a3
.LVL290:
	.loc 1 1196 2 is_stmt 1
	.loc 1 1196 5 is_stmt 0
	bgtu	a5,a0,.L232
	.loc 1 1198 3 is_stmt 1
	.loc 1 1198 10 is_stmt 0
	sub	a0,a0,a5
.LVL291:
.L232:
	.loc 1 1202 3 is_stmt 1
	.loc 1 1205 2
.LBE85:
.LBE84:
	.loc 1 829 3
	.loc 1 829 5 is_stmt 0
	li	a5,4
	bgtu	a0,a5,.L241
	.loc 1 848 4 is_stmt 1
	.loc 1 848 6 is_stmt 0
	bne	a0,zero,.L242
.LVL292:
.L229:
	.loc 1 858 1
	lw	ra,28(sp)
	.cfi_remember_state
	.cfi_restore 1
	lw	s0,24(sp)
	.cfi_restore 8
.LVL293:
	lw	s1,20(sp)
	.cfi_restore 9
	addi	sp,sp,32
	.cfi_def_cfa_offset 0
	jr	ra
.LVL294:
.L242:
	.cfi_restore_state
	.loc 1 848 40 is_stmt 1 discriminator 1
	call	vAssertCalled
.LVL295:
	.loc 1 858 1 is_stmt 0 discriminator 1
	lw	ra,28(sp)
	.cfi_remember_state
	.cfi_restore 1
	lw	s0,24(sp)
	.cfi_restore 8
.LVL296:
	lw	s1,20(sp)
	.cfi_restore 9
	.loc 1 849 12 discriminator 1
	li	a0,0
	.loc 1 858 1 discriminator 1
	addi	sp,sp,32
	.cfi_def_cfa_offset 0
	jr	ra
.LVL297:
.L240:
	.cfi_restore_state
	.loc 1 823 32 is_stmt 1 discriminator 1
	call	vAssertCalled
.LVL298:
	j	.L230
.LVL299:
.L241:
	.loc 1 837 4
	.loc 1 837 18 is_stmt 0
	lw	s1,0(s0)
.LVL300:
	.loc 1 838 4 is_stmt 1
	.loc 1 838 13 is_stmt 0
	mv	a3,a0
	addi	a1,sp,12
	mv	a0,s0
.LVL301:
	li	a2,4
	call	prvReadBytesFromBuffer
.LVL302:
	.loc 1 839 4 is_stmt 1
	.loc 1 840 26 is_stmt 0
	sw	s1,0(s0)
	.loc 1 858 1
	lw	ra,28(sp)
	.cfi_restore 1
	lw	s0,24(sp)
	.cfi_restore 8
.LVL303:
	.loc 1 839 12
	lw	a0,12(sp)
.LVL304:
	.loc 1 840 4 is_stmt 1
	.loc 1 858 1 is_stmt 0
	lw	s1,20(sp)
	.cfi_restore 9
.LVL305:
	addi	sp,sp,32
	.cfi_def_cfa_offset 0
	jr	ra
	.cfi_endproc
.LFE13:
	.size	xStreamBufferNextMessageLengthBytes, .-xStreamBufferNextMessageLengthBytes
	.section	.text.xStreamBufferReceiveFromISR,"ax",@progbits
	.align	1
	.globl	xStreamBufferReceiveFromISR
	.type	xStreamBufferReceiveFromISR, @function
xStreamBufferReceiveFromISR:
.LFB14:
	.loc 1 865 1 is_stmt 1
	.cfi_startproc
.LVL306:
	.loc 1 866 1
	.loc 1 865 1 is_stmt 0
	addi	sp,sp,-48
	.cfi_def_cfa_offset 48
	sw	s1,36(sp)
	sw	s3,28(sp)
	sw	s4,24(sp)
	sw	s5,20(sp)
	sw	ra,44(sp)
	sw	s0,40(sp)
	sw	s2,32(sp)
	sw	s6,16(sp)
	.cfi_offset 9, -12
	.cfi_offset 19, -20
	.cfi_offset 20, -24
	.cfi_offset 21, -28
	.cfi_offset 1, -4
	.cfi_offset 8, -8
	.cfi_offset 18, -16
	.cfi_offset 22, -32
	.loc 1 865 1
	mv	s3,a1
	mv	s1,a0
.LVL307:
	.loc 1 867 1 is_stmt 1
	.loc 1 869 2
	.loc 1 865 1 is_stmt 0
	mv	s4,a2
	mv	s5,a3
	.loc 1 869 4
	beq	a1,zero,.L264
	.loc 1 870 2 is_stmt 1
	.loc 1 870 4 is_stmt 0
	beq	s1,zero,.L265
.LVL308:
.L245:
	.loc 1 877 2 is_stmt 1
.LBB91:
.LBB92:
	.loc 1 1194 51 is_stmt 0
	lw	s0,4(s1)
	.loc 1 1194 25
	lw	a5,8(s1)
.LBE92:
.LBE91:
	.loc 1 877 4
	lbu	s2,28(s1)
.LBB96:
.LBB93:
	.loc 1 1195 26
	lw	a4,0(s1)
	.loc 1 1194 9
	add	s0,a5,s0
.LBE93:
.LBE96:
	.loc 1 883 30
	andi	s2,s2,1
.LBB97:
.LBB94:
	.loc 1 1195 9
	sub	s0,s0,a4
.LBE94:
.LBE97:
	.loc 1 883 30
	slli	s2,s2,2
.LVL309:
	.loc 1 886 2 is_stmt 1
.LBB98:
.LBB95:
	.loc 1 1192 1
	.loc 1 1194 2
	.loc 1 1195 2
	.loc 1 1196 2
	.loc 1 1196 5 is_stmt 0
	bgtu	a5,s0,.L247
	.loc 1 1198 3 is_stmt 1
	.loc 1 1198 10 is_stmt 0
	sub	s0,s0,a5
.LVL310:
.L247:
	.loc 1 1202 3 is_stmt 1
	.loc 1 1205 2
.LBE95:
.LBE98:
	.loc 1 893 2
	.loc 1 893 4 is_stmt 0
	bltu	s2,s0,.L248
.LVL311:
.L251:
	.loc 1 867 8
	li	s0,0
.L243:
	.loc 1 915 1
	mv	a0,s0
	lw	ra,44(sp)
	.cfi_remember_state
	.cfi_restore 1
	lw	s0,40(sp)
	.cfi_restore 8
	lw	s1,36(sp)
	.cfi_restore 9
.LVL312:
	lw	s2,32(sp)
	.cfi_restore 18
.LVL313:
	lw	s3,28(sp)
	.cfi_restore 19
.LVL314:
	lw	s4,24(sp)
	.cfi_restore 20
	lw	s5,20(sp)
	.cfi_restore 21
.LVL315:
	lw	s6,16(sp)
	.cfi_restore 22
	addi	sp,sp,48
	.cfi_def_cfa_offset 0
	jr	ra
.LVL316:
.L248:
	.cfi_restore_state
	.loc 1 895 3 is_stmt 1
.LBB99:
.LBB100:
	.loc 1 924 1
	.loc 1 925 1
	.loc 1 927 2
	.loc 1 927 4 is_stmt 0
	bne	s2,zero,.L266
.LVL317:
.L250:
	.loc 1 964 2 is_stmt 1
	.loc 1 964 20 is_stmt 0
	mv	a3,s0
	mv	a2,s4
	mv	a1,s3
	mv	a0,s1
	call	prvReadBytesFromBuffer
.LVL318:
	mv	s0,a0
.LVL319:
	.loc 1 966 2 is_stmt 1
.LBE100:
.LBE99:
	.loc 1 898 3
	.loc 1 898 5 is_stmt 0
	beq	a0,zero,.L251
.LBB102:
	.loc 1 900 6 is_stmt 1
	.loc 1 900 42
.LVL320:
	.loc 1 900 88
	.loc 1 900 110 is_stmt 0
	lw	a5,20(s1)
	.loc 1 900 90
	beq	a5,zero,.L243
	.loc 1 900 7 is_stmt 1 discriminator 1
	.loc 1 900 16 is_stmt 0 discriminator 1
	lw	a0,20(s1)
	mv	a4,s5
	li	a3,0
	li	a2,0
	li	a1,0
	call	xTaskGenericNotifyFromISR
.LVL321:
	.loc 1 900 38 is_stmt 1 discriminator 1
	.loc 1 900 77 is_stmt 0 discriminator 1
	sw	zero,20(s1)
.LBE102:
	.loc 1 909 3 is_stmt 1 discriminator 1
	.loc 1 912 2 discriminator 1
	.loc 1 914 2 discriminator 1
	.loc 1 914 9 is_stmt 0 discriminator 1
	j	.L243
.LVL322:
.L264:
	.loc 1 869 26 is_stmt 1 discriminator 1
	call	vAssertCalled
.LVL323:
	.loc 1 870 2 discriminator 1
	.loc 1 870 4 is_stmt 0 discriminator 1
	bne	s1,zero,.L245
.L265:
	.loc 1 870 32 is_stmt 1 discriminator 1
	call	vAssertCalled
.LVL324:
	j	.L245
.LVL325:
.L266:
.LBB103:
.LBB101:
	.loc 1 933 3
	.loc 1 934 12 is_stmt 0
	mv	a3,s0
	mv	a2,s2
	addi	a1,sp,12
	mv	a0,s1
	.loc 1 933 17
	lw	s6,0(s1)
.LVL326:
	.loc 1 934 3 is_stmt 1
	.loc 1 934 12 is_stmt 0
	call	prvReadBytesFromBuffer
.LVL327:
	.loc 1 935 3 is_stmt 1
	.loc 1 935 22 is_stmt 0
	lw	a5,12(sp)
.LVL328:
	.loc 1 939 3 is_stmt 1
	.loc 1 939 19 is_stmt 0
	sub	s0,s0,s2
.LVL329:
	.loc 1 943 3 is_stmt 1
	.loc 1 943 5 is_stmt 0
	bgeu	s4,a5,.L253
	.loc 1 948 4 is_stmt 1
	.loc 1 948 26 is_stmt 0
	sw	s6,0(s1)
	.loc 1 949 4 is_stmt 1
.LVL330:
	.loc 1 949 23 is_stmt 0
	li	s4,0
.LVL331:
	j	.L250
.LVL332:
.L253:
	.loc 1 943 5
	mv	s4,a5
.LVL333:
	j	.L250
.LBE101:
.LBE103:
	.cfi_endproc
.LFE14:
	.size	xStreamBufferReceiveFromISR, .-xStreamBufferReceiveFromISR
	.section	.text.xStreamBufferIsEmpty,"ax",@progbits
	.align	1
	.globl	xStreamBufferIsEmpty
	.type	xStreamBufferIsEmpty, @function
xStreamBufferIsEmpty:
.LFB16:
	.loc 1 971 1 is_stmt 1
	.cfi_startproc
.LVL334:
	.loc 1 972 1
	.loc 1 973 1
	.loc 1 974 1
	.loc 1 976 2
	.loc 1 976 4 is_stmt 0
	beq	a0,zero,.L273
	.loc 1 979 2 is_stmt 1
	.loc 1 979 8 is_stmt 0
	lw	a5,0(a0)
.LVL335:
	.loc 1 980 2 is_stmt 1
	.loc 1 980 20 is_stmt 0
	lw	a0,4(a0)
.LVL336:
	.loc 1 989 2 is_stmt 1
	.loc 1 980 4 is_stmt 0
	sub	a0,a0,a5
.LVL337:
	.loc 1 990 1
	seqz	a0,a0
	ret
.LVL338:
.L273:
	.loc 1 971 1 discriminator 1
	addi	sp,sp,-32
	.cfi_def_cfa_offset 32
	sw	ra,28(sp)
	.cfi_offset 1, -4
	sw	a0,12(sp)
	.loc 1 976 32 is_stmt 1 discriminator 1
	call	vAssertCalled
.LVL339:
	.loc 1 979 2 discriminator 1
	.loc 1 976 32 is_stmt 0 discriminator 1
	lw	a0,12(sp)
	.loc 1 990 1 discriminator 1
	lw	ra,28(sp)
	.cfi_restore 1
	.loc 1 979 8 discriminator 1
	lw	a5,0(a0)
.LVL340:
	.loc 1 980 2 is_stmt 1 discriminator 1
	.loc 1 980 20 is_stmt 0 discriminator 1
	lw	a0,4(a0)
.LVL341:
	.loc 1 989 2 is_stmt 1 discriminator 1
	.loc 1 990 1 is_stmt 0 discriminator 1
	addi	sp,sp,32
	.cfi_def_cfa_offset 0
.LVL342:
	.loc 1 980 4 discriminator 1
	sub	a0,a0,a5
.LVL343:
	.loc 1 990 1 discriminator 1
	seqz	a0,a0
	jr	ra
	.cfi_endproc
.LFE16:
	.size	xStreamBufferIsEmpty, .-xStreamBufferIsEmpty
	.section	.text.xStreamBufferIsFull,"ax",@progbits
	.align	1
	.globl	xStreamBufferIsFull
	.type	xStreamBufferIsFull, @function
xStreamBufferIsFull:
.LFB17:
	.loc 1 994 1 is_stmt 1
	.cfi_startproc
.LVL344:
	.loc 1 995 1
	.loc 1 996 1
	.loc 1 997 1
	.loc 1 999 2
	.loc 1 994 1 is_stmt 0
	addi	sp,sp,-32
	.cfi_def_cfa_offset 32
	sw	ra,28(sp)
	sw	s0,24(sp)
	.cfi_offset 1, -4
	.cfi_offset 8, -8
	.loc 1 999 4
	beq	a0,zero,.L279
.LVL345:
.L275:
	.loc 1 1005 2 is_stmt 1
	.loc 1 1005 4 is_stmt 0
	lbu	s0,28(a0)
	.loc 1 1015 6
	call	xStreamBufferSpacesAvailable
.LVL346:
	.loc 1 1025 1
	lw	ra,28(sp)
	.cfi_remember_state
	.cfi_restore 1
	.loc 1 1011 30
	andi	s0,s0,1
	slli	s0,s0,2
.LVL347:
	.loc 1 1015 2 is_stmt 1
	.loc 1 1024 2
	.loc 1 1015 4 is_stmt 0
	sgtu	a0,a0,s0
.LVL348:
	.loc 1 1025 1
	lw	s0,24(sp)
	.cfi_restore 8
.LVL349:
	xori	a0,a0,1
	addi	sp,sp,32
	.cfi_def_cfa_offset 0
	jr	ra
.LVL350:
.L279:
	.cfi_restore_state
	sw	a0,12(sp)
	.loc 1 999 32 is_stmt 1 discriminator 1
	call	vAssertCalled
.LVL351:
	lw	a0,12(sp)
	j	.L275
	.cfi_endproc
.LFE17:
	.size	xStreamBufferIsFull, .-xStreamBufferIsFull
	.section	.text.xStreamBufferSendCompletedFromISR,"ax",@progbits
	.align	1
	.globl	xStreamBufferSendCompletedFromISR
	.type	xStreamBufferSendCompletedFromISR, @function
xStreamBufferSendCompletedFromISR:
.LFB18:
	.loc 1 1029 1
	.cfi_startproc
.LVL352:
	.loc 1 1030 1
	.loc 1 1029 1 is_stmt 0
	addi	sp,sp,-32
	.cfi_def_cfa_offset 32
	sw	s0,24(sp)
	sw	ra,28(sp)
	.cfi_offset 8, -8
	.cfi_offset 1, -4
	.loc 1 1029 1
	mv	s0,a0
.LVL353:
	.loc 1 1031 1 is_stmt 1
	.loc 1 1032 1
	.loc 1 1034 2
	.loc 1 1034 4 is_stmt 0
	beq	a0,zero,.L286
.LVL354:
.L281:
	.loc 1 1036 2 is_stmt 1
	.loc 1 1038 3
	.loc 1 1038 25 is_stmt 0
	lw	a5,16(s0)
	.loc 1 1049 12
	li	a0,0
	.loc 1 1038 5
	beq	a5,zero,.L280
	.loc 1 1040 4 is_stmt 1
	.loc 1 1040 13 is_stmt 0
	lw	a0,16(s0)
	mv	a4,a1
	li	a3,0
	li	a2,0
	li	a1,0
	call	xTaskGenericNotifyFromISR
.LVL355:
	.loc 1 1044 4 is_stmt 1
	.loc 1 1045 12 is_stmt 0
	li	a0,1
	.loc 1 1044 46
	sw	zero,16(s0)
	.loc 1 1045 4 is_stmt 1
.LVL356:
.L280:
	.loc 1 1055 1 is_stmt 0
	lw	ra,28(sp)
	.cfi_remember_state
	.cfi_restore 1
	lw	s0,24(sp)
	.cfi_restore 8
.LVL357:
	addi	sp,sp,32
	.cfi_def_cfa_offset 0
	jr	ra
.LVL358:
.L286:
	.cfi_restore_state
	sw	a1,12(sp)
	.loc 1 1034 32 is_stmt 1 discriminator 1
	call	vAssertCalled
.LVL359:
	lw	a1,12(sp)
	j	.L281
	.cfi_endproc
.LFE18:
	.size	xStreamBufferSendCompletedFromISR, .-xStreamBufferSendCompletedFromISR
	.section	.text.xStreamBufferReceiveCompletedFromISR,"ax",@progbits
	.align	1
	.globl	xStreamBufferReceiveCompletedFromISR
	.type	xStreamBufferReceiveCompletedFromISR, @function
xStreamBufferReceiveCompletedFromISR:
.LFB19:
	.loc 1 1059 1
	.cfi_startproc
.LVL360:
	.loc 1 1060 1
	.loc 1 1059 1 is_stmt 0
	addi	sp,sp,-32
	.cfi_def_cfa_offset 32
	sw	s0,24(sp)
	sw	ra,28(sp)
	.cfi_offset 8, -8
	.cfi_offset 1, -4
	.loc 1 1059 1
	mv	s0,a0
.LVL361:
	.loc 1 1061 1 is_stmt 1
	.loc 1 1062 1
	.loc 1 1064 2
	.loc 1 1064 4 is_stmt 0
	beq	a0,zero,.L293
.LVL362:
.L288:
	.loc 1 1066 2 is_stmt 1
	.loc 1 1068 3
	.loc 1 1068 25 is_stmt 0
	lw	a5,20(s0)
	.loc 1 1079 12
	li	a0,0
	.loc 1 1068 5
	beq	a5,zero,.L287
	.loc 1 1070 4 is_stmt 1
	.loc 1 1070 13 is_stmt 0
	lw	a0,20(s0)
	mv	a4,a1
	li	a3,0
	li	a2,0
	li	a1,0
	call	xTaskGenericNotifyFromISR
.LVL363:
	.loc 1 1074 4 is_stmt 1
	.loc 1 1075 12 is_stmt 0
	li	a0,1
	.loc 1 1074 43
	sw	zero,20(s0)
	.loc 1 1075 4 is_stmt 1
.LVL364:
.L287:
	.loc 1 1085 1 is_stmt 0
	lw	ra,28(sp)
	.cfi_remember_state
	.cfi_restore 1
	lw	s0,24(sp)
	.cfi_restore 8
.LVL365:
	addi	sp,sp,32
	.cfi_def_cfa_offset 0
	jr	ra
.LVL366:
.L293:
	.cfi_restore_state
	sw	a1,12(sp)
	.loc 1 1064 32 is_stmt 1 discriminator 1
	call	vAssertCalled
.LVL367:
	lw	a1,12(sp)
	j	.L288
	.cfi_endproc
.LFE19:
	.size	xStreamBufferReceiveCompletedFromISR, .-xStreamBufferReceiveCompletedFromISR
	.section	.text.uxStreamBufferGetStreamBufferNumber,"ax",@progbits
	.align	1
	.globl	uxStreamBufferGetStreamBufferNumber
	.type	uxStreamBufferGetStreamBufferNumber, @function
uxStreamBufferGetStreamBufferNumber:
.LFB24:
	.loc 1 1238 2
	.cfi_startproc
.LVL368:
	.loc 1 1239 3
	.loc 1 1240 2 is_stmt 0
	lw	a0,32(a0)
.LVL369:
	ret
	.cfi_endproc
.LFE24:
	.size	uxStreamBufferGetStreamBufferNumber, .-uxStreamBufferGetStreamBufferNumber
	.section	.text.vStreamBufferSetStreamBufferNumber,"ax",@progbits
	.align	1
	.globl	vStreamBufferSetStreamBufferNumber
	.type	vStreamBufferSetStreamBufferNumber, @function
vStreamBufferSetStreamBufferNumber:
.LFB25:
	.loc 1 1248 2 is_stmt 1
	.cfi_startproc
.LVL370:
	.loc 1 1249 3
	.loc 1 1249 39 is_stmt 0
	sw	a1,32(a0)
	.loc 1 1250 2
	ret
	.cfi_endproc
.LFE25:
	.size	vStreamBufferSetStreamBufferNumber, .-vStreamBufferSetStreamBufferNumber
	.section	.text.ucStreamBufferGetStreamBufferType,"ax",@progbits
	.align	1
	.globl	ucStreamBufferGetStreamBufferType
	.type	ucStreamBufferGetStreamBufferType, @function
ucStreamBufferGetStreamBufferType:
.LFB26:
	.loc 1 1258 2 is_stmt 1
	.cfi_startproc
.LVL371:
	.loc 1 1259 3
	.loc 1 1259 35 is_stmt 0
	lbu	a0,28(a0)
.LVL372:
	.loc 1 1260 2
	andi	a0,a0,1
	ret
	.cfi_endproc
.LFE26:
	.size	ucStreamBufferGetStreamBufferType, .-ucStreamBufferGetStreamBufferType
	.text
.Letext0:
	.file 2 "/b-l/bl_iot_sdk_new/toolchain/riscv/Linux/lib/gcc/riscv64-unknown-elf/8.3.0/include/stdint-gcc.h"
	.file 3 "/b-l/bl_iot_sdk_new/toolchain/riscv/Linux/lib/gcc/riscv64-unknown-elf/8.3.0/include/stddef.h"
	.file 4 "/b-l/bl_iot_sdk_new/toolchain/riscv/Linux/riscv64-unknown-elf/include/sys/_types.h"
	.file 5 "/b-l/bl_iot_sdk_new/toolchain/riscv/Linux/riscv64-unknown-elf/include/sys/reent.h"
	.file 6 "/b-l/bl_iot_sdk_new/toolchain/riscv/Linux/riscv64-unknown-elf/include/sys/lock.h"
	.file 7 "/b-l/bl_iot_sdk_new/components/bl602/freertos_riscv_ram/portable/GCC/RISC-V/portmacro.h"
	.file 8 "/b-l/bl_iot_sdk_new/components/bl602/freertos_riscv_ram/config/FreeRTOS.h"
	.file 9 "/b-l/bl_iot_sdk_new/components/bl602/freertos_riscv_ram/config/task.h"
	.file 10 "/b-l/bl_iot_sdk_new/components/bl602/freertos_riscv_ram/config/stream_buffer.h"
	.file 11 "/b-l/bl_iot_sdk_new/toolchain/riscv/Linux/riscv64-unknown-elf/include/string.h"
	.file 12 "/b-l/bl_iot_sdk_new/components/bl602/freertos_riscv_ram/config/FreeRTOSConfig.h"
	.file 13 "/b-l/bl_iot_sdk_new/components/bl602/freertos_riscv_ram/config/portable.h"