	.file	"bl602_uart.c"
	.option nopic
	.attribute arch, "rv32i2p0_m2p0_f2p0_c2p0"
	.attribute unaligned_access, 0
	.attribute stack_align, 16
	.text
.Ltext0:
	.cfi_sections	.debug_frame
	.section	.text.UART_Init,"ax",@progbits
	.align	1
	.globl	UART_Init
	.type	UART_Init, @function
UART_Init:
.LFB8:
	.file 1 "/home/hogc/build-tools/sdk/bl/bl_iot_sdk/components/bl602/bl602_std/bl602_std/StdDriver/Src/bl602_uart.c"
	.loc 1 188 1
	.cfi_startproc
.LVL0:
	.loc 1 189 5
	.loc 1 190 5
	.loc 1 191 5
	.loc 1 192 5
	.loc 1 193 5
	.loc 1 193 14 is_stmt 0
	lui	a5,%hi(.LANCHOR0)
	slli	a0,a0,2
.LVL1:
	addi	a5,a5,%lo(.LANCHOR0)
	add	a5,a5,a0
	.loc 1 203 23
	lw	a4,0(a1)
	.loc 1 203 47
	lw	a0,4(a1)
	.loc 1 203 33
	li	a3,10
	.loc 1 193 14
	lw	a2,0(a5)
.LVL2:
	.loc 1 196 5 is_stmt 1
	.loc 1 197 5
	.loc 1 198 5
	.loc 1 199 5
	.loc 1 200 5
	.loc 1 203 5
	.loc 1 204 5
	.loc 1 204 21 is_stmt 0
	divu	a5,a4,a0
.LVL3:
	.loc 1 205 5 is_stmt 1
	.loc 1 203 33 is_stmt 0
	mul	a4,a4,a3
.LVL4:
	.loc 1 203 38
	divu	a4,a4,a0
	.loc 1 203 14
	remu	a4,a4,a3
.LVL5:
	.loc 1 205 7
	li	a3,4
	bleu	a4,a3,.L2
	.loc 1 206 9 is_stmt 1
	addi	a5,a5,1
.LVL6:
.L2:
	.loc 1 210 5
	.loc 1 210 61 is_stmt 0
	addi	a5,a5,-1
.LVL7:
	.loc 1 210 64
	slli	a4,a5,16
.LVL8:
	.loc 1 210 92
	slli	a5,a5,16
.LVL9:
	srli	a5,a5,16
	.loc 1 210 71
	or	a5,a4,a5
	.loc 1 210 42
	sw	a5,8(a2)
.LVL10:
	.loc 1 213 5 is_stmt 1
	.loc 1 215 19 is_stmt 0
	lbu	a3,10(a1)
	.loc 1 213 17
	lw	a4,0(a2)
.LVL11:
	.loc 1 214 5 is_stmt 1
	.loc 1 214 17 is_stmt 0
	lw	a5,4(a2)
.LVL12:
	.loc 1 215 5 is_stmt 1
	li	a0,1
	beq	a3,a0,.L3
	beq	a3,zero,.L4
	li	a0,2
	beq	a3,a0,.L5
.L6:
	.loc 1 238 5
	.loc 1 238 85 is_stmt 0
	lbu	a3,8(a1)
	.loc 1 238 35
	andi	a4,a4,-1793
.LVL13:
	.loc 1 239 35
	andi	a5,a5,-1793
.LVL14:
	.loc 1 238 95
	addi	a3,a3,4
	.loc 1 238 99
	slli	a3,a3,8
.LVL15:
	.loc 1 239 5 is_stmt 1
	.loc 1 238 17 is_stmt 0
	or	a4,a4,a3
.LVL16:
	.loc 1 239 17
	or	a5,a3,a5
.LVL17:
	.loc 1 242 5 is_stmt 1
	.loc 1 242 35 is_stmt 0
	li	a3,-12288
	addi	a3,a3,-1
	and	a4,a4,a3
.LVL18:
	.loc 1 242 86
	lbu	a3,9(a1)
	.loc 1 245 7
	lbu	a6,11(a1)
	li	a0,1
	.loc 1 242 96
	addi	a3,a3,1
	.loc 1 242 100
	slli	a3,a3,12
	.loc 1 242 17
	or	a4,a3,a4
.LVL19:
	.loc 1 245 5 is_stmt 1
	.loc 1 248 21 is_stmt 0
	andi	a3,a4,-3
	.loc 1 245 7
	bne	a6,a0,.L8
	.loc 1 246 9 is_stmt 1
	.loc 1 246 21 is_stmt 0
	ori	a3,a4,2
.LVL20:
.L8:
	.loc 1 252 5 is_stmt 1
	.loc 1 252 7 is_stmt 0
	lbu	a0,12(a1)
	li	a4,1
	bne	a0,a4,.L9
	.loc 1 253 9 is_stmt 1
	.loc 1 253 21 is_stmt 0
	li	a4,4096
	addi	a4,a4,-2048
	or	a5,a5,a4
.LVL21:
.L10:
	.loc 1 259 5 is_stmt 1
	.loc 1 259 7 is_stmt 0
	lbu	a6,13(a1)
	li	a0,1
	.loc 1 262 21
	andi	a4,a5,-3
	.loc 1 259 7
	bne	a6,a0,.L12
	.loc 1 260 9 is_stmt 1
	.loc 1 260 21 is_stmt 0
	ori	a4,a5,2
.LVL22:
.L12:
	.loc 1 266 5 is_stmt 1
	.loc 1 266 42 is_stmt 0
	sw	a3,0(a2)
	.loc 1 267 5 is_stmt 1
	.loc 1 267 42 is_stmt 0
	sw	a4,4(a2)
	.loc 1 270 5 is_stmt 1
	.loc 1 270 17 is_stmt 0
	lw	a4,12(a2)
.LVL23:
	.loc 1 271 5 is_stmt 1
	.loc 1 271 7 is_stmt 0
	lbu	a1,14(a1)
.LVL24:
	li	a3,1
	.loc 1 274 21
	andi	a5,a4,-2
	.loc 1 271 7
	bne	a1,a3,.L14
	.loc 1 272 9 is_stmt 1
	.loc 1 272 21 is_stmt 0
	ori	a5,a4,1
.LVL25:
.L14:
	.loc 1 276 5 is_stmt 1
	.loc 1 276 42 is_stmt 0
	sw	a5,12(a2)
.LVL26:
	.loc 1 278 5 is_stmt 1
	.loc 1 279 1 is_stmt 0
	li	a0,0
	ret
.LVL27:
.L4:
	.loc 1 218 13 is_stmt 1
	.loc 1 218 25 is_stmt 0
	andi	a4,a4,-17
.LVL28:
	.loc 1 219 13 is_stmt 1
	.loc 1 219 25 is_stmt 0
	andi	a5,a5,-17
.LVL29:
	.loc 1 220 13 is_stmt 1
	j	.L6
.L3:
	.loc 1 222 13
.LVL30:
	.loc 1 223 13
	.loc 1 223 25 is_stmt 0
	ori	a4,a4,48
.LVL31:
	.loc 1 224 13 is_stmt 1
	.loc 1 225 13
	.loc 1 225 25 is_stmt 0
	ori	a5,a5,48
.LVL32:
	.loc 1 226 13 is_stmt 1
	j	.L6
.L5:
	.loc 1 228 13
.LVL33:
	.loc 1 229 13
	andi	a4,a4,-33
.LVL34:
	andi	a5,a5,-33
.LVL35:
	.loc 1 229 25 is_stmt 0
	ori	a4,a4,16
.LVL36:
	.loc 1 230 13 is_stmt 1
	.loc 1 231 13
	.loc 1 231 25 is_stmt 0
	ori	a5,a5,16
.LVL37:
	.loc 1 232 13 is_stmt 1
	j	.L6
.LVL38:
.L9:
	.loc 1 255 9
	.loc 1 255 21 is_stmt 0
	li	a4,-4096
	addi	a4,a4,2047
	and	a5,a5,a4
.LVL39:
	j	.L10
	.cfi_endproc
.LFE8:
	.size	UART_Init, .-UART_Init
	.section	.text.UART_DeInit,"ax",@progbits
	.align	1
	.globl	UART_DeInit
	.type	UART_DeInit, @function
UART_DeInit:
.LFB9:
	.loc 1 290 1 is_stmt 1
	.cfi_startproc
.LVL40:
	.loc 1 291 5
	.loc 1 290 1 is_stmt 0
	addi	sp,sp,-16
	.cfi_def_cfa_offset 16
	sw	ra,12(sp)
	.cfi_offset 1, -4
	.loc 1 291 7
	bne	a0,zero,.L16
	.loc 1 292 9 is_stmt 1
	li	a0,16
.LVL41:
.L19:
	.loc 1 294 9 is_stmt 0
	call	GLB_AHB_Slave1_Reset
.LVL42:
.L17:
	.loc 1 297 5 is_stmt 1
	.loc 1 298 1 is_stmt 0
	lw	ra,12(sp)
	.cfi_remember_state
	.cfi_restore 1
	li	a0,0
	addi	sp,sp,16
	.cfi_def_cfa_offset 0
	jr	ra
.LVL43:
.L16:
	.cfi_restore_state
	.loc 1 293 11 is_stmt 1
	.loc 1 293 13 is_stmt 0
	li	a5,1
	bne	a0,a5,.L17
	.loc 1 294 9 is_stmt 1
	li	a0,17
.LVL44:
	j	.L19
	.cfi_endproc
.LFE9:
	.size	UART_DeInit, .-UART_DeInit
	.section	.text.UART_FifoConfig,"ax",@progbits
	.align	1
	.globl	UART_FifoConfig
	.type	UART_FifoConfig, @function
UART_FifoConfig:
.LFB10:
	.loc 1 310 1
	.cfi_startproc
.LVL45:
	.loc 1 311 5
	.loc 1 312 5
	.loc 1 312 14 is_stmt 0
	lui	a5,%hi(.LANCHOR0)
	slli	a0,a0,2
.LVL46:
	addi	a5,a5,%lo(.LANCHOR0)
	add	a5,a5,a0
	lw	a3,0(a5)
.LVL47:
	.loc 1 315 5 is_stmt 1
	.loc 1 318 5
	.loc 1 320 25 is_stmt 0
	li	a4,-2031616
	addi	a4,a4,-1
	.loc 1 318 12
	lw	a5,132(a3)
.LVL48:
	.loc 1 320 5 is_stmt 1
	.loc 1 328 7 is_stmt 0
	li	a2,1
	.loc 1 320 25
	and	a4,a5,a4
.LVL49:
	.loc 1 322 5 is_stmt 1
	.loc 1 320 75 is_stmt 0
	lbu	a5,0(a1)
	.loc 1 320 95
	addi	a5,a5,-1
	.loc 1 320 98
	slli	a5,a5,16
	.loc 1 320 12
	or	a5,a5,a4
	.loc 1 322 25
	li	a4,-520093696
.LVL50:
	addi	a4,a4,-1
	and	a5,a5,a4
	.loc 1 322 75
	lbu	a4,1(a1)
	.loc 1 322 95
	addi	a4,a4,-1
	.loc 1 322 98
	slli	a4,a4,24
	.loc 1 322 12
	or	a5,a4,a5
.LVL51:
	.loc 1 324 5 is_stmt 1
	.loc 1 324 43 is_stmt 0
	sw	a5,132(a3)
	.loc 1 327 5 is_stmt 1
	.loc 1 327 12 is_stmt 0
	lw	a4,128(a3)
.LVL52:
	.loc 1 328 5 is_stmt 1
	.loc 1 328 7 is_stmt 0
	lbu	a0,2(a1)
	.loc 1 331 16
	andi	a5,a4,-2
	.loc 1 328 7
	bne	a0,a2,.L22
	.loc 1 329 9 is_stmt 1
	.loc 1 329 16 is_stmt 0
	ori	a5,a4,1
.LVL53:
.L22:
	.loc 1 333 5 is_stmt 1
	.loc 1 333 7 is_stmt 0
	lbu	a1,3(a1)
.LVL54:
	li	a2,1
	.loc 1 336 16
	andi	a4,a5,-3
	.loc 1 333 7
	bne	a1,a2,.L24
	.loc 1 334 9 is_stmt 1
	.loc 1 334 16 is_stmt 0
	ori	a4,a5,2
.LVL55:
.L24:
	.loc 1 338 5 is_stmt 1
	.loc 1 338 43 is_stmt 0
	sw	a4,128(a3)
	.loc 1 340 5 is_stmt 1
	.loc 1 341 1 is_stmt 0
	li	a0,0
	ret
	.cfi_endproc
.LFE10:
	.size	UART_FifoConfig, .-UART_FifoConfig
	.section	.text.UART_IrConfig,"ax",@progbits
	.align	1
	.globl	UART_IrConfig
	.type	UART_IrConfig, @function
UART_IrConfig:
.LFB11:
	.loc 1 353 1 is_stmt 1
	.cfi_startproc
.LVL56:
	.loc 1 354 5
	.loc 1 355 5
	.loc 1 355 14 is_stmt 0
	lui	a5,%hi(.LANCHOR0)
	slli	a0,a0,2
.LVL57:
	addi	a5,a5,%lo(.LANCHOR0)
	add	a5,a5,a0
	lw	a5,0(a5)
.LVL58:
	.loc 1 358 5 is_stmt 1
	.loc 1 361 5
	.loc 1 362 7 is_stmt 0
	lbu	a0,0(a1)
	li	a2,1
	.loc 1 361 12
	lw	a3,0(a5)
.LVL59:
	.loc 1 362 5 is_stmt 1
	.loc 1 365 16 is_stmt 0
	andi	a4,a3,-65
	.loc 1 362 7
	bne	a0,a2,.L27
	.loc 1 363 9 is_stmt 1
	.loc 1 363 16 is_stmt 0
	ori	a4,a3,64
.LVL60:
.L27:
	.loc 1 367 5 is_stmt 1
	.loc 1 367 7 is_stmt 0
	lbu	a0,2(a1)
	li	a2,1
	.loc 1 370 16
	andi	a3,a4,-129
	.loc 1 367 7
	bne	a0,a2,.L29
	.loc 1 368 9 is_stmt 1
	.loc 1 368 16 is_stmt 0
	ori	a3,a4,128
.LVL61:
.L29:
	.loc 1 372 5 is_stmt 1
	.loc 1 372 42 is_stmt 0
	sw	a3,0(a5)
	.loc 1 375 5 is_stmt 1
	.loc 1 375 12 is_stmt 0
	lw	a3,4(a5)
.LVL62:
	.loc 1 376 5 is_stmt 1
	.loc 1 376 7 is_stmt 0
	lbu	a0,1(a1)
	li	a2,1
	.loc 1 379 16
	andi	a4,a3,-65
	.loc 1 376 7
	bne	a0,a2,.L31
	.loc 1 377 9 is_stmt 1
	.loc 1 377 16 is_stmt 0
	ori	a4,a3,64
.LVL63:
.L31:
	.loc 1 381 5 is_stmt 1
	.loc 1 381 7 is_stmt 0
	lbu	a0,3(a1)
	li	a2,1
	.loc 1 384 16
	andi	a3,a4,-129
	.loc 1 381 7
	bne	a0,a2,.L33
	.loc 1 382 9 is_stmt 1
	.loc 1 382 16 is_stmt 0
	ori	a3,a4,128
.LVL64:
.L33:
	.loc 1 386 5 is_stmt 1
	.loc 1 386 42 is_stmt 0
	sw	a3,4(a5)
	.loc 1 389 5 is_stmt 1
	lhu	a4,6(a1)
	lhu	a3,4(a1)
.LVL65:
	.loc 1 395 1 is_stmt 0
	li	a0,0
	slli	a4,a4,16
	or	a4,a4,a3
	.loc 1 389 43
	sw	a4,16(a5)
.LVL66:
	.loc 1 392 5 is_stmt 1
	.loc 1 392 50 is_stmt 0
	lhu	a4,8(a1)
	.loc 1 392 43
	sw	a4,20(a5)
	.loc 1 394 5 is_stmt 1
	.loc 1 395 1 is_stmt 0
	ret
	.cfi_endproc
.LFE11:
	.size	UART_IrConfig, .-UART_IrConfig
	.section	.text.UART_Enable,"ax",@progbits
	.align	1
	.globl	UART_Enable
	.type	UART_Enable, @function
UART_Enable:
.LFB12:
	.loc 1 407 1 is_stmt 1
	.cfi_startproc
.LVL67:
	.loc 1 408 5
	.loc 1 409 5
	.loc 1 409 14 is_stmt 0
	lui	a5,%hi(.LANCHOR0)
	slli	a0,a0,2
.LVL68:
	addi	a5,a5,%lo(.LANCHOR0)
	add	a5,a5,a0
	.loc 1 415 7
	andi	a4,a1,253
	.loc 1 409 14
	lw	a5,0(a5)
.LVL69:
	.loc 1 412 5 is_stmt 1
	.loc 1 413 5
	.loc 1 415 5
	.loc 1 415 7 is_stmt 0
	bne	a4,zero,.L35
	.loc 1 417 9 is_stmt 1
	.loc 1 417 16 is_stmt 0
	lw	a4,0(a5)
.LVL70:
	.loc 1 418 9 is_stmt 1
	.loc 1 418 59 is_stmt 0
	ori	a4,a4,1
.LVL71:
	.loc 1 418 46
	sw	a4,0(a5)
.L35:
	.loc 1 421 5 is_stmt 1
	.loc 1 421 26 is_stmt 0
	addi	a1,a1,-1
.LVL72:
	.loc 1 421 7
	andi	a1,a1,0xff
	li	a4,1
	bgtu	a1,a4,.L36
	.loc 1 423 9 is_stmt 1
	.loc 1 423 16 is_stmt 0
	lw	a4,4(a5)
.LVL73:
	.loc 1 424 9 is_stmt 1
	.loc 1 424 59 is_stmt 0
	ori	a4,a4,1
.LVL74:
	.loc 1 424 46
	sw	a4,4(a5)
.L36:
	.loc 1 427 5 is_stmt 1
	.loc 1 428 1 is_stmt 0
	li	a0,0
	ret
	.cfi_endproc
.LFE12:
	.size	UART_Enable, .-UART_Enable
	.section	.text.UART_Disable,"ax",@progbits
	.align	1
	.globl	UART_Disable
	.type	UART_Disable, @function
UART_Disable:
.LFB13:
	.loc 1 440 1 is_stmt 1
	.cfi_startproc
.LVL75:
	.loc 1 441 5
	.loc 1 442 5
	.loc 1 442 14 is_stmt 0
	lui	a5,%hi(.LANCHOR0)
	slli	a0,a0,2
.LVL76:
	addi	a5,a5,%lo(.LANCHOR0)
	add	a5,a5,a0
	.loc 1 448 7
	andi	a4,a1,253
	.loc 1 442 14
	lw	a5,0(a5)
.LVL77:
	.loc 1 445 5 is_stmt 1
	.loc 1 446 5
	.loc 1 448 5
	.loc 1 448 7 is_stmt 0
	bne	a4,zero,.L38
	.loc 1 450 9 is_stmt 1
	.loc 1 450 16 is_stmt 0
	lw	a4,0(a5)
.LVL78:
	.loc 1 451 9 is_stmt 1
	.loc 1 451 59 is_stmt 0
	andi	a4,a4,-2
.LVL79:
	.loc 1 451 46
	sw	a4,0(a5)
.L38:
	.loc 1 454 5 is_stmt 1
	.loc 1 454 26 is_stmt 0
	addi	a1,a1,-1
.LVL80:
	.loc 1 454 7
	andi	a1,a1,0xff
	li	a4,1
	bgtu	a1,a4,.L39
	.loc 1 456 9 is_stmt 1
	.loc 1 456 16 is_stmt 0
	lw	a4,4(a5)
.LVL81:
	.loc 1 457 9 is_stmt 1
	.loc 1 457 59 is_stmt 0
	andi	a4,a4,-2
.LVL82:
	.loc 1 457 46
	sw	a4,4(a5)
.L39:
	.loc 1 460 5 is_stmt 1
	.loc 1 461 1 is_stmt 0
	li	a0,0
	ret
	.cfi_endproc
.LFE13:
	.size	UART_Disable, .-UART_Disable
	.section	.text.UART_SetTxDataLength,"ax",@progbits
	.align	1
	.globl	UART_SetTxDataLength
	.type	UART_SetTxDataLength, @function
UART_SetTxDataLength:
.LFB14:
	.loc 1 474 1 is_stmt 1
	.cfi_startproc
.LVL83:
	.loc 1 475 5
	.loc 1 476 5
	.loc 1 479 5
	.loc 1 482 5
	.loc 1 476 14 is_stmt 0
	lui	a5,%hi(.LANCHOR0)
	slli	a0,a0,2
.LVL84:
	addi	a5,a5,%lo(.LANCHOR0)
	add	a5,a5,a0
	.loc 1 482 17
	lw	a4,0(a5)
	.loc 1 483 105
	addi	a1,a1,-1
.LVL85:
	.loc 1 483 108
	slli	a1,a1,16
	.loc 1 482 12
	lw	a5,0(a4)
.LVL86:
	.loc 1 483 5 is_stmt 1
	.loc 1 486 1 is_stmt 0
	li	a0,0
	.loc 1 483 55
	slli	a5,a5,16
.LVL87:
	srli	a5,a5,16
	.loc 1 483 85
	or	a1,a1,a5
	.loc 1 483 42
	sw	a1,0(a4)
	.loc 1 485 5 is_stmt 1
	.loc 1 486 1 is_stmt 0
	ret
	.cfi_endproc
.LFE14:
	.size	UART_SetTxDataLength, .-UART_SetTxDataLength
	.section	.text.UART_SetRxDataLength,"ax",@progbits
	.align	1
	.globl	UART_SetRxDataLength
	.type	UART_SetRxDataLength, @function
UART_SetRxDataLength:
.LFB15:
	.loc 1 499 1 is_stmt 1
	.cfi_startproc
.LVL88:
	.loc 1 500 5
	.loc 1 501 5
	.loc 1 504 5
	.loc 1 507 5
	.loc 1 501 14 is_stmt 0
	lui	a5,%hi(.LANCHOR0)
	slli	a0,a0,2
.LVL89:
	addi	a5,a5,%lo(.LANCHOR0)
	add	a5,a5,a0
	.loc 1 507 43
	lw	a4,0(a5)
	.loc 1 508 105
	addi	a1,a1,-1
.LVL90:
	.loc 1 508 108
	slli	a1,a1,16
	.loc 1 507 12
	lw	a5,4(a4)
.LVL91:
	.loc 1 508 5 is_stmt 1
	.loc 1 511 1 is_stmt 0
	li	a0,0
	.loc 1 508 55
	slli	a5,a5,16
.LVL92:
	srli	a5,a5,16
	.loc 1 508 85
	or	a1,a1,a5
	.loc 1 508 42
	sw	a1,4(a4)
	.loc 1 510 5 is_stmt 1
	.loc 1 511 1 is_stmt 0
	ret
	.cfi_endproc
.LFE15:
	.size	UART_SetRxDataLength, .-UART_SetRxDataLength
	.section	.text.UART_SetRxTimeoutValue,"ax",@progbits
	.align	1
	.globl	UART_SetRxTimeoutValue
	.type	UART_SetRxTimeoutValue, @function
UART_SetRxTimeoutValue:
.LFB16:
	.loc 1 523 1 is_stmt 1
	.cfi_startproc
.LVL93:
	.loc 1 524 5
	.loc 1 525 5
	.loc 1 528 5
	.loc 1 531 5
	.loc 1 524 14 is_stmt 0
	lui	a5,%hi(.LANCHOR0)
	slli	a0,a0,2
.LVL94:
	addi	a5,a5,%lo(.LANCHOR0)
	add	a5,a5,a0
	.loc 1 531 43
	lw	a4,0(a5)
	.loc 1 532 71
	addi	a1,a1,-1
.LVL95:
	.loc 1 536 1
	li	a0,0
	.loc 1 531 12
	lw	a5,24(a4)
.LVL96:
	.loc 1 532 5 is_stmt 1
	.loc 1 532 25 is_stmt 0
	andi	a5,a5,-256
.LVL97:
	.loc 1 532 12
	or	a1,a1,a5
.LVL98:
	.loc 1 533 5 is_stmt 1
	.loc 1 533 43 is_stmt 0
	sw	a1,24(a4)
	.loc 1 535 5 is_stmt 1
	.loc 1 536 1 is_stmt 0
	ret
	.cfi_endproc
.LFE16:
	.size	UART_SetRxTimeoutValue, .-UART_SetRxTimeoutValue
	.section	.text.UART_SetDeglitchCount,"ax",@progbits
	.align	1
	.globl	UART_SetDeglitchCount
	.type	UART_SetDeglitchCount, @function
UART_SetDeglitchCount:
.LFB17:
	.loc 1 548 1 is_stmt 1
	.cfi_startproc
.LVL99:
	.loc 1 549 5
	.loc 1 550 5
	.loc 1 553 5
	.loc 1 556 5
	.loc 1 549 14 is_stmt 0
	lui	a5,%hi(.LANCHOR0)
	slli	a0,a0,2
.LVL100:
	addi	a5,a5,%lo(.LANCHOR0)
	add	a5,a5,a0
	.loc 1 556 43
	lw	a3,0(a5)
	.loc 1 557 25
	li	a4,-61440
	addi	a4,a4,-1
	.loc 1 556 12
	lw	a5,4(a3)
.LVL101:
	.loc 1 557 5 is_stmt 1
	.loc 1 557 79 is_stmt 0
	addi	a1,a1,-1
.LVL102:
	.loc 1 557 82
	slli	a1,a1,12
	.loc 1 557 25
	and	a5,a5,a4
.LVL103:
	.loc 1 557 12
	or	a1,a1,a5
.LVL104:
	.loc 1 558 5 is_stmt 1
	.loc 1 558 42 is_stmt 0
	sw	a1,4(a3)
	.loc 1 560 5 is_stmt 1
	.loc 1 561 1 is_stmt 0
	li	a0,0
	ret
	.cfi_endproc
.LFE17:
	.size	UART_SetDeglitchCount, .-UART_SetDeglitchCount
	.section	.text.UART_SetRtsValue,"ax",@progbits
	.align	1
	.globl	UART_SetRtsValue
	.type	UART_SetRtsValue, @function
UART_SetRtsValue:
.LFB19:
	.loc 1 598 1 is_stmt 1
	.cfi_startproc
.LVL105:
	.loc 1 599 5
	.loc 1 600 5
	.loc 1 603 5
	.loc 1 606 5
	.loc 1 599 14 is_stmt 0
	lui	a5,%hi(.LANCHOR0)
	slli	a0,a0,2
.LVL106:
	addi	a5,a5,%lo(.LANCHOR0)
	add	a5,a5,a0
	.loc 1 606 43
	lw	a4,0(a5)
	.loc 1 610 1
	li	a0,0
	.loc 1 606 12
	lw	a5,4(a4)
.LVL107:
	.loc 1 607 5 is_stmt 1
	.loc 1 607 55 is_stmt 0
	ori	a5,a5,4
.LVL108:
	.loc 1 607 42
	sw	a5,4(a4)
	.loc 1 609 5 is_stmt 1
	.loc 1 610 1 is_stmt 0
	ret
	.cfi_endproc
.LFE19:
	.size	UART_SetRtsValue, .-UART_SetRtsValue
	.section	.text.UART_ClrRtsValue,"ax",@progbits
	.align	1
	.globl	UART_ClrRtsValue
	.type	UART_ClrRtsValue, @function
UART_ClrRtsValue:
.LFB20:
	.loc 1 621 1 is_stmt 1
	.cfi_startproc
.LVL109:
	.loc 1 622 5
	.loc 1 623 5
	.loc 1 626 5
	.loc 1 629 5
	.loc 1 622 14 is_stmt 0
	lui	a5,%hi(.LANCHOR0)
	slli	a0,a0,2
.LVL110:
	addi	a5,a5,%lo(.LANCHOR0)
	add	a5,a5,a0
	.loc 1 629 43
	lw	a4,0(a5)
	.loc 1 633 1
	li	a0,0
	.loc 1 629 12
	lw	a5,4(a4)
.LVL111:
	.loc 1 630 5 is_stmt 1
	.loc 1 630 55 is_stmt 0
	andi	a5,a5,-5
.LVL112:
	.loc 1 630 42
	sw	a5,4(a4)
	.loc 1 632 5 is_stmt 1
	.loc 1 633 1 is_stmt 0
	ret
	.cfi_endproc
.LFE20:
	.size	UART_ClrRtsValue, .-UART_ClrRtsValue
	.section	.text.UART_TxFreeRun,"ax",@progbits
	.align	1
	.globl	UART_TxFreeRun
	.type	UART_TxFreeRun, @function
UART_TxFreeRun:
.LFB21:
	.loc 1 645 1 is_stmt 1
	.cfi_startproc
.LVL113:
	.loc 1 646 5
	.loc 1 647 5
	.loc 1 650 5
	.loc 1 653 5
	.loc 1 647 14 is_stmt 0
	lui	a5,%hi(.LANCHOR0)
	slli	a0,a0,2
.LVL114:
	addi	a5,a5,%lo(.LANCHOR0)
	add	a5,a5,a0
	.loc 1 653 17
	lw	a4,0(a5)
	.loc 1 654 7
	li	a3,1
	.loc 1 653 12
	lw	a5,0(a4)
.LVL115:
	.loc 1 654 5 is_stmt 1
	.loc 1 654 7 is_stmt 0
	bne	a1,a3,.L47
	.loc 1 655 9 is_stmt 1
	.loc 1 655 59 is_stmt 0
	ori	a5,a5,4
.LVL116:
.L49:
	.loc 1 657 46
	sw	a5,0(a4)
	.loc 1 660 5 is_stmt 1
	.loc 1 661 1 is_stmt 0
	li	a0,0
	ret
.LVL117:
.L47:
	.loc 1 657 9 is_stmt 1
	.loc 1 657 59 is_stmt 0
	andi	a5,a5,-5
.LVL118:
	j	.L49
	.cfi_endproc
.LFE21:
	.size	UART_TxFreeRun, .-UART_TxFreeRun
	.section	.text.UART_AutoBaudDetection,"ax",@progbits
	.align	1
	.globl	UART_AutoBaudDetection
	.type	UART_AutoBaudDetection, @function
UART_AutoBaudDetection:
.LFB22:
	.loc 1 673 1 is_stmt 1
	.cfi_startproc
.LVL119:
	.loc 1 674 5
	.loc 1 675 5
	.loc 1 678 5
	.loc 1 681 5
	.loc 1 675 14 is_stmt 0
	lui	a5,%hi(.LANCHOR0)
	slli	a0,a0,2
.LVL120:
	addi	a5,a5,%lo(.LANCHOR0)
	add	a5,a5,a0
	.loc 1 681 43
	lw	a4,0(a5)
	.loc 1 682 7
	li	a3,1
	.loc 1 681 12
	lw	a5,4(a4)
.LVL121:
	.loc 1 682 5 is_stmt 1
	.loc 1 682 7 is_stmt 0
	bne	a1,a3,.L51
	.loc 1 683 9 is_stmt 1
	.loc 1 683 59 is_stmt 0
	ori	a5,a5,8
.LVL122:
.L53:
	.loc 1 685 46
	sw	a5,4(a4)
	.loc 1 688 5 is_stmt 1
	.loc 1 689 1 is_stmt 0
	li	a0,0
	ret
.LVL123:
.L51:
	.loc 1 685 9 is_stmt 1
	.loc 1 685 59 is_stmt 0
	andi	a5,a5,-9
.LVL124:
	j	.L53
	.cfi_endproc
.LFE22:
	.size	UART_AutoBaudDetection, .-UART_AutoBaudDetection
	.section	.text.UART_TxFifoClear,"ax",@progbits
	.align	1
	.globl	UART_TxFifoClear
	.type	UART_TxFifoClear, @function
UART_TxFifoClear:
.LFB23:
	.loc 1 700 1 is_stmt 1
	.cfi_startproc
.LVL125:
	.loc 1 701 5
	.loc 1 702 5
	.loc 1 705 5
	.loc 1 708 5
	.loc 1 702 14 is_stmt 0
	lui	a5,%hi(.LANCHOR0)
	slli	a0,a0,2
.LVL126:
	addi	a5,a5,%lo(.LANCHOR0)
	add	a5,a5,a0
	.loc 1 708 43
	lw	a4,0(a5)
	.loc 1 712 1
	li	a0,0
	.loc 1 708 12
	lw	a5,128(a4)
.LVL127:
	.loc 1 709 5 is_stmt 1
	.loc 1 709 56 is_stmt 0
	ori	a5,a5,4
.LVL128:
	.loc 1 709 43
	sw	a5,128(a4)
	.loc 1 711 5 is_stmt 1
	.loc 1 712 1 is_stmt 0
	ret
	.cfi_endproc
.LFE23:
	.size	UART_TxFifoClear, .-UART_TxFifoClear
	.section	.text.UART_RxFifoClear,"ax",@progbits
	.align	1
	.globl	UART_RxFifoClear
	.type	UART_RxFifoClear, @function
UART_RxFifoClear:
.LFB24:
	.loc 1 723 1 is_stmt 1
	.cfi_startproc
.LVL129:
	.loc 1 724 5
	.loc 1 725 5
	.loc 1 728 5
	.loc 1 731 5
	.loc 1 725 14 is_stmt 0
	lui	a5,%hi(.LANCHOR0)
	slli	a0,a0,2
.LVL130:
	addi	a5,a5,%lo(.LANCHOR0)
	add	a5,a5,a0
	.loc 1 731 43
	lw	a4,0(a5)
	.loc 1 735 1
	li	a0,0
	.loc 1 731 12
	lw	a5,128(a4)
.LVL131:
	.loc 1 732 5 is_stmt 1
	.loc 1 732 56 is_stmt 0
	ori	a5,a5,8
.LVL132:
	.loc 1 732 43
	sw	a5,128(a4)
	.loc 1 734 5 is_stmt 1
	.loc 1 735 1 is_stmt 0
	ret
	.cfi_endproc
.LFE24:
	.size	UART_RxFifoClear, .-UART_RxFifoClear
	.section	.text.UART_IntMask,"ax",@progbits
	.align	1
	.globl	UART_IntMask
	.type	UART_IntMask, @function
UART_IntMask:
.LFB25:
	.loc 1 748 1 is_stmt 1
	.cfi_startproc
.LVL133:
	.loc 1 749 5
	.loc 1 750 5
	.loc 1 753 5
	.loc 1 754 5
	.loc 1 755 5
	.loc 1 757 5
	.loc 1 750 14 is_stmt 0
	lui	a5,%hi(.LANCHOR0)
	slli	a0,a0,2
.LVL134:
	addi	a5,a5,%lo(.LANCHOR0)
	add	a5,a5,a0
	.loc 1 757 43
	lw	a4,0(a5)
	.loc 1 760 7
	li	a3,8
	.loc 1 757 12
	lw	a5,36(a4)
.LVL135:
	.loc 1 760 5 is_stmt 1
	.loc 1 760 7 is_stmt 0
	bne	a1,a3,.L57
	.loc 1 761 9 is_stmt 1
	.loc 1 761 11 is_stmt 0
	li	a3,1
	.loc 1 764 20
	li	a1,0
.LVL136:
	.loc 1 761 11
	bne	a2,a3,.L58
	.loc 1 762 13 is_stmt 1
	.loc 1 762 20 is_stmt 0
	ori	a1,a5,255
.LVL137:
.L58:
	.loc 1 775 5 is_stmt 1
	.loc 1 775 43 is_stmt 0
	sw	a1,36(a4)
	.loc 1 777 5 is_stmt 1
	.loc 1 778 1 is_stmt 0
	li	a0,0
	ret
.LVL138:
.L57:
	.loc 1 767 9 is_stmt 1
	li	a3,1
	sll	a1,a3,a1
.LVL139:
	.loc 1 767 11 is_stmt 0
	bne	a2,a3,.L59
	.loc 1 768 13 is_stmt 1
	.loc 1 768 20 is_stmt 0
	or	a1,a1,a5
.LVL140:
	j	.L58
.LVL141:
.L59:
	.loc 1 770 13 is_stmt 1
	.loc 1 770 23 is_stmt 0
	not	a1,a1
	.loc 1 770 20
	and	a1,a1,a5
.LVL142:
	j	.L58
	.cfi_endproc
.LFE25:
	.size	UART_IntMask, .-UART_IntMask
	.section	.text.UART_IntClear,"ax",@progbits
	.align	1
	.globl	UART_IntClear
	.type	UART_IntClear, @function
UART_IntClear:
.LFB26:
	.loc 1 790 1 is_stmt 1
	.cfi_startproc
.LVL143:
	.loc 1 791 5
	.loc 1 792 5
	.loc 1 795 5
	.loc 1 796 5
	.loc 1 798 5
	.loc 1 792 14 is_stmt 0
	lui	a4,%hi(.LANCHOR0)
	slli	a0,a0,2
.LVL144:
	addi	a4,a4,%lo(.LANCHOR0)
	add	a4,a4,a0
	.loc 1 798 43
	lw	a3,0(a4)
	.loc 1 801 7
	li	a4,8
	.loc 1 798 12
	lw	a5,40(a3)
.LVL145:
	.loc 1 801 5 is_stmt 1
	.loc 1 801 7 is_stmt 0
	bne	a1,a4,.L62
	.loc 1 802 9 is_stmt 1
	.loc 1 802 16 is_stmt 0
	ori	a5,a5,255
.LVL146:
.L63:
	.loc 1 808 5 is_stmt 1
	.loc 1 808 43 is_stmt 0
	sw	a5,40(a3)
	.loc 1 810 5 is_stmt 1
	.loc 1 811 1 is_stmt 0
	li	a0,0
	ret
.L62:
	.loc 1 804 9 is_stmt 1
	.loc 1 804 20 is_stmt 0
	li	a4,1
	sll	a4,a4,a1
	.loc 1 804 16
	or	a5,a4,a5
.LVL147:
	j	.L63
	.cfi_endproc
.LFE26:
	.size	UART_IntClear, .-UART_IntClear
	.section	.text.UART_Int_Callback_Install,"ax",@progbits
	.align	1
	.globl	UART_Int_Callback_Install
	.type	UART_Int_Callback_Install, @function
UART_Int_Callback_Install:
.LFB27:
	.loc 1 824 1 is_stmt 1
	.cfi_startproc
.LVL148:
	.loc 1 826 5
	.loc 1 827 5
	.loc 1 829 5
	.loc 1 831 5
	.loc 1 832 1 is_stmt 0
	li	a0,0
.LVL149:
	ret
	.cfi_endproc
.LFE27:
	.size	UART_Int_Callback_Install, .-UART_Int_Callback_Install
	.section	.text.UART_GetAutoBaudCount,"ax",@progbits
	.align	1
	.globl	UART_GetAutoBaudCount
	.type	UART_GetAutoBaudCount, @function
UART_GetAutoBaudCount:
.LFB31:
	.loc 1 942 1 is_stmt 1
	.cfi_startproc
.LVL150:
	.loc 1 943 5
	.loc 1 946 5
	.loc 1 947 5
	.loc 1 950 5
	.loc 1 943 14 is_stmt 0
	lui	a5,%hi(.LANCHOR0)
	slli	a0,a0,2
.LVL151:
	addi	a5,a5,%lo(.LANCHOR0)
	add	a5,a5,a0
	lw	a5,0(a5)
	.loc 1 951 17
	lw	a0,52(a5)
	.loc 1 950 7
	bne	a1,zero,.L66
.L68:
	.loc 1 953 55
	srli	a0,a0,16
	.loc 1 955 1
	ret
.L66:
	.loc 1 953 9 is_stmt 1
	.loc 1 953 55 is_stmt 0
	slli	a0,a0,16
	j	.L68
	.cfi_endproc
.LFE31:
	.size	UART_GetAutoBaudCount, .-UART_GetAutoBaudCount
	.section	.text.UART_SetBaudrate,"ax",@progbits
	.align	1
	.globl	UART_SetBaudrate
	.type	UART_SetBaudrate, @function
UART_SetBaudrate:
.LFB18:
	.loc 1 573 1 is_stmt 1
	.cfi_startproc
.LVL152:
	.loc 1 574 5
	.loc 1 574 14 is_stmt 0
	lui	a5,%hi(.LANCHOR0)
	slli	a4,a0,2
	addi	a5,a5,%lo(.LANCHOR0)
	.loc 1 573 1
	addi	sp,sp,-16
	.cfi_def_cfa_offset 16
	.loc 1 574 14
	add	a5,a5,a4
	.loc 1 573 1
	sw	s0,8(sp)
	sw	ra,12(sp)
	.cfi_offset 8, -8
	.cfi_offset 1, -4
	.loc 1 574 14
	lw	s0,0(a5)
.LVL153:
	.loc 1 575 5 is_stmt 1
	.loc 1 578 5
	.loc 1 581 5
	.loc 1 581 14 is_stmt 0
	call	UART_GetAutoBaudCount
.LVL154:
	.loc 1 584 5 is_stmt 1
	.loc 1 584 50 is_stmt 0
	slli	a5,a0,16
	.loc 1 584 57
	or	a0,a5,a0
.LVL155:
	.loc 1 584 42
	sw	a0,8(s0)
	.loc 1 586 5 is_stmt 1
	.loc 1 587 1 is_stmt 0
	lw	ra,12(sp)
	.cfi_restore 1
	lw	s0,8(sp)
	.cfi_restore 8
.LVL156:
	li	a0,0
	addi	sp,sp,16
	.cfi_def_cfa_offset 0
	jr	ra
	.cfi_endproc
.LFE18:
	.size	UART_SetBaudrate, .-UART_SetBaudrate
	.section	.text.UART_GetTxFifoCount,"ax",@progbits
	.align	1
	.globl	UART_GetTxFifoCount
	.type	UART_GetTxFifoCount, @function
UART_GetTxFifoCount:
.LFB32:
	.loc 1 966 1 is_stmt 1
	.cfi_startproc
.LVL157:
	.loc 1 967 5
	.loc 1 970 5
	.loc 1 972 5
	.loc 1 967 14 is_stmt 0
	lui	a5,%hi(.LANCHOR0)
	slli	a0,a0,2
.LVL158:
	addi	a5,a5,%lo(.LANCHOR0)
	add	a5,a5,a0
	.loc 1 972 45
	lw	a5,0(a5)
	.loc 1 972 17
	lw	a0,132(a5)
	.loc 1 973 1
	andi	a0,a0,63
	ret
	.cfi_endproc
.LFE32:
	.size	UART_GetTxFifoCount, .-UART_GetTxFifoCount
	.section	.text.UART_SendData,"ax",@progbits
	.align	1
	.globl	UART_SendData
	.type	UART_SendData, @function
UART_SendData:
.LFB28:
	.loc 1 845 1 is_stmt 1
	.cfi_startproc
.LVL159:
	.loc 1 846 5
	.loc 1 847 5
	.loc 1 847 14 is_stmt 0
	lui	a5,%hi(.LANCHOR0)
	slli	a4,a0,2
	addi	a5,a5,%lo(.LANCHOR0)
	.loc 1 845 1
	addi	sp,sp,-48
	.cfi_def_cfa_offset 48
	.loc 1 847 14
	add	a5,a5,a4
	.loc 1 845 1
	sw	s3,28(sp)
	.cfi_offset 19, -20
	.loc 1 847 14
	lw	s3,0(a5)
.LVL160:
	.loc 1 848 5 is_stmt 1
	.loc 1 851 5
	.loc 1 854 5
	.loc 1 845 1 is_stmt 0
	sw	s0,40(sp)
	.cfi_offset 8, -8
	.loc 1 848 14
	li	s0,159744
	.loc 1 845 1
	sw	s1,36(sp)
	sw	s2,32(sp)
	sw	s4,24(sp)
	sw	ra,44(sp)
	.cfi_offset 9, -12
	.cfi_offset 18, -16
	.cfi_offset 20, -24
	.cfi_offset 1, -4
	.loc 1 845 1
	mv	s2,a0
	.loc 1 848 14
	addi	s0,s0,256
	.loc 1 846 14
	li	s1,0
	.loc 1 857 24
	li	s4,159744
.LVL161:
.L73:
	.loc 1 854 10
	bltu	s1,a2,.L77
	.loc 1 866 12
	li	a0,0
.L76:
	.loc 1 867 1
	lw	ra,44(sp)
	.cfi_remember_state
	.cfi_restore 1
	lw	s0,40(sp)
	.cfi_restore 8
.LVL162:
	lw	s1,36(sp)
	.cfi_restore 9
.LVL163:
	lw	s2,32(sp)
	.cfi_restore 18
	lw	s3,28(sp)
	.cfi_restore 19
.LVL164:
	lw	s4,24(sp)
	.cfi_restore 20
	addi	sp,sp,48
	.cfi_def_cfa_offset 0
	jr	ra
.LVL165:
.L77:
	.cfi_restore_state
	.loc 1 855 12
	mv	a0,s2
	sw	a2,12(sp)
	sw	a1,8(sp)
	.loc 1 855 9 is_stmt 1
	.loc 1 855 12 is_stmt 0
	call	UART_GetTxFifoCount
.LVL166:
	.loc 1 855 11
	lw	a1,8(sp)
	lw	a2,12(sp)
	beq	a0,zero,.L74
	.loc 1 856 13 is_stmt 1
.LVL167:
	.loc 1 856 56 is_stmt 0
	add	a5,a1,s1
	lbu	a5,0(a5)
	.loc 1 856 62
	addi	s1,s1,1
.LVL168:
	.loc 1 857 24
	addi	s0,s4,256
.LVL169:
	.loc 1 856 50
	sb	a5,136(s3)
	.loc 1 857 13 is_stmt 1
.LVL170:
	j	.L73
.LVL171:
.L74:
	.loc 1 859 13
	.loc 1 859 23 is_stmt 0
	addi	s0,s0,-1
.LVL172:
	.loc 1 860 13 is_stmt 1
	.loc 1 860 15 is_stmt 0
	bne	s0,zero,.L73
	.loc 1 861 24
	li	a0,2
	j	.L76
	.cfi_endproc
.LFE28:
	.size	UART_SendData, .-UART_SendData
	.section	.text.UART_GetRxFifoCount,"ax",@progbits
	.align	1
	.globl	UART_GetRxFifoCount
	.type	UART_GetRxFifoCount, @function
UART_GetRxFifoCount:
.LFB33:
	.loc 1 984 1 is_stmt 1
	.cfi_startproc
.LVL173:
	.loc 1 985 5
	.loc 1 988 5
	.loc 1 990 5
	.loc 1 985 14 is_stmt 0
	lui	a5,%hi(.LANCHOR0)
	slli	a0,a0,2
.LVL174:
	addi	a5,a5,%lo(.LANCHOR0)
	add	a5,a5,a0
	.loc 1 990 45
	lw	a5,0(a5)
	.loc 1 990 17
	lw	a0,132(a5)
	.loc 1 990 83
	srli	a0,a0,8
	.loc 1 991 1
	andi	a0,a0,63
	ret
	.cfi_endproc
.LFE33:
	.size	UART_GetRxFifoCount, .-UART_GetRxFifoCount
	.section	.text.UART_ReceiveData,"ax",@progbits
	.align	1
	.globl	UART_ReceiveData
	.type	UART_ReceiveData, @function
UART_ReceiveData:
.LFB30:
	.loc 1 917 1 is_stmt 1
	.cfi_startproc
.LVL175:
	.loc 1 918 5
	.loc 1 919 5
	.loc 1 919 14 is_stmt 0
	lui	a5,%hi(.LANCHOR0)
	slli	a4,a0,2
	addi	a5,a5,%lo(.LANCHOR0)
	.loc 1 917 1
	addi	sp,sp,-32
	.cfi_def_cfa_offset 32
	.loc 1 919 14
	add	a5,a5,a4
	.loc 1 917 1
	sw	s2,16(sp)
	.cfi_offset 18, -16
	.loc 1 919 14
	lw	s2,0(a5)
.LVL176:
	.loc 1 922 5 is_stmt 1
	.loc 1 925 5
	.loc 1 917 1 is_stmt 0
	sw	s0,24(sp)
	sw	s1,20(sp)
	sw	ra,28(sp)
	.cfi_offset 8, -8
	.cfi_offset 9, -12
	.cfi_offset 1, -4
	.loc 1 917 1
	mv	s1,a0
	.loc 1 925 10
	li	s0,0
.LVL177:
.L82:
	sw	a1,12(sp)
.LVL178:
	sw	a2,8(sp)
	beq	a2,s0,.L81
	.loc 1 925 27 discriminator 1
	mv	a0,s1
	call	UART_GetRxFifoCount
.LVL179:
	.loc 1 925 24 discriminator 1
	lw	a2,8(sp)
	lw	a1,12(sp)
	bne	a0,zero,.L84
.L81:
	.loc 1 930 1
	mv	a0,s0
	lw	ra,28(sp)
	.cfi_remember_state
	.cfi_restore 1
	lw	s0,24(sp)
	.cfi_restore 8
.LVL180:
	lw	s1,20(sp)
	.cfi_restore 9
	lw	s2,16(sp)
	.cfi_restore 18
.LVL181:
	addi	sp,sp,32
	.cfi_def_cfa_offset 0
	jr	ra
.LVL182:
.L84:
	.cfi_restore_state
	.loc 1 926 9 is_stmt 1
	.loc 1 926 26 is_stmt 0
	lbu	a4,140(s2)
	.loc 1 926 23
	add	a5,a1,s0
	addi	s0,s0,1
.LVL183:
	sb	a4,0(a5)
	j	.L82
	.cfi_endproc
.LFE30:
	.size	UART_ReceiveData, .-UART_ReceiveData
	.section	.text.UART_GetIntStatus,"ax",@progbits
	.align	1
	.globl	UART_GetIntStatus
	.type	UART_GetIntStatus, @function
UART_GetIntStatus:
.LFB34:
	.loc 1 1003 1 is_stmt 1
	.cfi_startproc
.LVL184:
	.loc 1 1004 5
	.loc 1 1005 5
	.loc 1 1008 5
	.loc 1 1009 5
	.loc 1 1012 5
	.loc 1 1005 14 is_stmt 0
	lui	a4,%hi(.LANCHOR0)
	slli	a0,a0,2
.LVL185:
	addi	a4,a4,%lo(.LANCHOR0)
	add	a4,a4,a0
	.loc 1 1012 43
	lw	a5,0(a4)
	.loc 1 1012 12
	lw	a4,32(a5)
.LVL186:
	.loc 1 1013 5 is_stmt 1
	.loc 1 1013 7 is_stmt 0
	li	a5,8
	.loc 1 1014 19
	andi	a0,a4,255
	.loc 1 1013 7
	beq	a1,a5,.L90
	.loc 1 1021 9 is_stmt 1
	.loc 1 1021 23 is_stmt 0
	li	a5,1
	sll	a0,a5,a1
	.loc 1 1021 19
	and	a0,a0,a4
.L90:
	.loc 1 1016 20
	snez	a0,a0
	.loc 1 1028 1
	ret
	.cfi_endproc
.LFE34:
	.size	UART_GetIntStatus, .-UART_GetIntStatus
	.section	.text.UART_GetTxBusBusyStatus,"ax",@progbits
	.align	1
	.globl	UART_GetTxBusBusyStatus
	.type	UART_GetTxBusBusyStatus, @function
UART_GetTxBusBusyStatus:
.LFB35:
	.loc 1 1039 1 is_stmt 1
	.cfi_startproc
.LVL187:
	.loc 1 1040 5
	.loc 1 1041 5
	.loc 1 1044 5
	.loc 1 1047 5
	.loc 1 1041 14 is_stmt 0
	lui	a5,%hi(.LANCHOR0)
	slli	a0,a0,2
.LVL188:
	addi	a5,a5,%lo(.LANCHOR0)
	add	a5,a5,a0
	.loc 1 1047 43
	lw	a5,0(a5)
	.loc 1 1047 12
	lw	a0,48(a5)
.LVL189:
	.loc 1 1048 5 is_stmt 1
	.loc 1 1054 1 is_stmt 0
	andi	a0,a0,1
.LVL190:
	ret
	.cfi_endproc
.LFE35:
	.size	UART_GetTxBusBusyStatus, .-UART_GetTxBusBusyStatus
	.section	.text.UART_SendDataBlock,"ax",@progbits
	.align	1
	.globl	UART_SendDataBlock
	.type	UART_SendDataBlock, @function
UART_SendDataBlock:
.LFB29:
	.loc 1 880 1 is_stmt 1
	.cfi_startproc
.LVL191:
	.loc 1 881 5
	.loc 1 882 5
	.loc 1 882 14 is_stmt 0
	lui	a5,%hi(.LANCHOR0)
	slli	a4,a0,2
	addi	a5,a5,%lo(.LANCHOR0)
	.loc 1 880 1
	addi	sp,sp,-48
	.cfi_def_cfa_offset 48
	.loc 1 882 14
	add	a5,a5,a4
	.loc 1 880 1
	sw	s3,28(sp)
	.cfi_offset 19, -20
	.loc 1 882 14
	lw	s3,0(a5)
.LVL192:
	.loc 1 883 5 is_stmt 1
	.loc 1 886 5
	.loc 1 889 5
	.loc 1 880 1 is_stmt 0
	sw	s0,40(sp)
	.cfi_offset 8, -8
	.loc 1 883 14
	li	s0,159744
	.loc 1 880 1
	sw	s1,36(sp)
	sw	s2,32(sp)
	sw	s4,24(sp)
	sw	ra,44(sp)
	.cfi_offset 9, -12
	.cfi_offset 18, -16
	.cfi_offset 20, -24
	.cfi_offset 1, -4
	.loc 1 880 1
	mv	s2,a0
	.loc 1 883 14
	addi	s0,s0,256
	.loc 1 881 14
	li	s1,0
	.loc 1 892 24
	li	s4,159744
.LVL193:
.L93:
	.loc 1 889 10
	bltu	s1,a2,.L97
	.loc 1 901 10
	li	s0,1
.LVL194:
.L98:
	.loc 1 901 51 is_stmt 1 discriminator 1
	.loc 1 901 11 is_stmt 0 discriminator 1
	mv	a0,s2
	call	UART_GetTxBusBusyStatus
.LVL195:
	.loc 1 901 10 discriminator 1
	beq	a0,s0,.L98
	.loc 1 903 12
	li	a0,0
.L96:
	.loc 1 904 1
	lw	ra,44(sp)
	.cfi_remember_state
	.cfi_restore 1
	lw	s0,40(sp)
	.cfi_restore 8
	lw	s1,36(sp)
	.cfi_restore 9
.LVL196:
	lw	s2,32(sp)
	.cfi_restore 18
	lw	s3,28(sp)
	.cfi_restore 19
.LVL197:
	lw	s4,24(sp)
	.cfi_restore 20
	addi	sp,sp,48
	.cfi_def_cfa_offset 0
	jr	ra
.LVL198:
.L97:
	.cfi_restore_state
	.loc 1 890 12
	mv	a0,s2
	sw	a2,12(sp)
	sw	a1,8(sp)
	.loc 1 890 9 is_stmt 1
	.loc 1 890 12 is_stmt 0
	call	UART_GetTxFifoCount
.LVL199:
	.loc 1 890 11
	lw	a1,8(sp)
	lw	a2,12(sp)
	beq	a0,zero,.L94
	.loc 1 891 13 is_stmt 1
.LVL200:
	.loc 1 891 56 is_stmt 0
	add	a5,a1,s1
	lbu	a5,0(a5)
	.loc 1 891 62
	addi	s1,s1,1
.LVL201:
	.loc 1 892 24
	addi	s0,s4,256
.LVL202:
	.loc 1 891 50
	sb	a5,136(s3)
	.loc 1 892 13 is_stmt 1
.LVL203:
	j	.L93
.LVL204:
.L94:
	.loc 1 894 13
	.loc 1 894 23 is_stmt 0
	addi	s0,s0,-1
.LVL205:
	.loc 1 895 13 is_stmt 1
	.loc 1 895 15 is_stmt 0
	bne	s0,zero,.L93
	.loc 1 896 24
	li	a0,2
	j	.L96
	.cfi_endproc
.LFE29:
	.size	UART_SendDataBlock, .-UART_SendDataBlock
	.section	.text.UART_GetRxBusBusyStatus,"ax",@progbits
	.align	1
	.globl	UART_GetRxBusBusyStatus
	.type	UART_GetRxBusBusyStatus, @function
UART_GetRxBusBusyStatus:
.LFB36:
	.loc 1 1065 1 is_stmt 1
	.cfi_startproc
.LVL206:
	.loc 1 1066 5
	.loc 1 1067 5
	.loc 1 1070 5
	.loc 1 1073 5
	.loc 1 1067 14 is_stmt 0
	lui	a5,%hi(.LANCHOR0)
	slli	a0,a0,2
.LVL207:
	addi	a5,a5,%lo(.LANCHOR0)
	add	a5,a5,a0
	.loc 1 1073 43
	lw	a5,0(a5)
	.loc 1 1073 12
	lw	a0,48(a5)
.LVL208:
	.loc 1 1074 5 is_stmt 1
	.loc 1 1074 7 is_stmt 0
	srli	a0,a0,1
.LVL209:
	.loc 1 1080 1
	andi	a0,a0,1
	ret
	.cfi_endproc
.LFE36:
	.size	UART_GetRxBusBusyStatus, .-UART_GetRxBusBusyStatus
	.section	.text.UART_GetOverflowStatus,"ax",@progbits
	.align	1
	.globl	UART_GetOverflowStatus
	.type	UART_GetOverflowStatus, @function
UART_GetOverflowStatus:
.LFB37:
	.loc 1 1092 1 is_stmt 1
	.cfi_startproc
.LVL210:
	.loc 1 1093 5
	.loc 1 1094 5
	.loc 1 1097 5
	.loc 1 1098 5
	.loc 1 1101 5
	.loc 1 1094 14 is_stmt 0
	lui	a5,%hi(.LANCHOR0)
	slli	a0,a0,2
.LVL211:
	addi	a5,a5,%lo(.LANCHOR0)
	add	a5,a5,a0
	.loc 1 1101 43
	lw	a5,0(a5)
	.loc 1 1102 30
	addi	a1,a1,4
.LVL212:
	.loc 1 1101 12
	lw	a0,128(a5)
.LVL213:
	.loc 1 1102 5 is_stmt 1
	.loc 1 1102 19 is_stmt 0
	li	a5,1
	sll	a5,a5,a1
	.loc 1 1102 15
	and	a0,a5,a0
.LVL214:
	.loc 1 1108 1
	snez	a0,a0
	ret
	.cfi_endproc
.LFE37:
	.size	UART_GetOverflowStatus, .-UART_GetOverflowStatus
	.section	.sdata2.uartAddr,"a"
	.align	2
	.set	.LANCHOR0,. + 0
	.type	uartAddr, @object
	.size	uartAddr, 8
uartAddr:
	.word	1073782784
	.word	1073783040
	.text
.Letext0:
	.file 2 "/home/hogc/build-tools/sdk/bl/bl_iot_sdk/toolchain/riscv/Linux/lib/gcc/riscv64-unknown-elf/8.3.0/include/stdint-gcc.h"
	.file 3 "/home/hogc/build-tools/sdk/bl/bl_iot_sdk/toolchain/riscv/Linux/lib/gcc/riscv64-unknown-elf/8.3.0/include/stddef.h"
	.file 4 "/home/hogc/build-tools/sdk/bl/bl_iot_sdk/toolchain/riscv/Linux/riscv64-unknown-elf/include/sys/_types.h"
	.file 5 "/home/hogc/build-tools/sdk/bl/bl_iot_sdk/toolchain/riscv/Linux/riscv64-unknown-elf/include/sys/reent.h"
	.file 6 "/home/hogc/build-tools/sdk/bl/bl_iot_sdk/toolchain/riscv/Linux/riscv64-unknown-elf/include/sys/lock.h"
	.file 7 "/home/hogc/build-tools/sdk/bl/bl_iot_sdk/components/bl602/bl602_std/bl602_std/RISCV/Device/Bouffalo/BL602/Startup/system_bl602.h"
	.file 8 "/home/hogc/build-tools/sdk/bl/bl_iot_sdk/components/bl602/bl602_std/bl602_std/Device/Bouffalo/BL602/Peripherals/bl602.h"
	.file 9 "/home/hogc/build-tools/sdk/bl/bl_iot_sdk/components/bl602/bl602_std/bl602_std/StdDriver/Inc/bl602_common.h"
	.file 10 "/home/hogc/build-tools/sdk/bl/bl_iot_sdk/components/bl602/bl602_std/bl602_std/StdDriver/Inc/bl602_uart.h"
	.file 11 "/home/hogc/build-tools/sdk/bl/bl_iot_sdk/components/bl602/bl602_std/bl602_std/StdDriver/Inc/bl602_glb.h"