	.file	"bl602_adc.c"
	.option nopic
	.attribute arch, "rv32i2p0_m2p0_f2p0_c2p0"
	.attribute unaligned_access, 0
	.attribute stack_align, 16
	.text
.Ltext0:
	.cfi_sections	.debug_frame
	.section	.text.ADC_Reset,"ax",@progbits
	.align	1
	.globl	ADC_Reset
	.type	ADC_Reset, @function
ADC_Reset:
.LFB8:
	.file 1 "/home/hogc/build-tools/sdk/bl/bl_iot_sdk/components/bl602/bl602_std/bl602_std/StdDriver/Src/bl602_adc.c"
	.loc 1 101 1
	.cfi_startproc
	.loc 1 102 5
	.loc 1 105 5
	.loc 1 105 11 is_stmt 0
	li	a4,1073807360
	lw	a5,-1780(a4)
.LVL0:
	.loc 1 106 5 is_stmt 1
	.loc 1 106 74 is_stmt 0
	ori	a3,a5,4
	.loc 1 106 61
	sw	a3,-1780(a4)
	.loc 1 107 6 is_stmt 1
 #APP
# 107 "/home/hogc/build-tools/sdk/bl/bl_iot_sdk/components/bl602/bl602_std/bl602_std/StdDriver/Src/bl602_adc.c" 1
	nop
# 0 "" 2
	.loc 1 107 29
# 107 "/home/hogc/build-tools/sdk/bl/bl_iot_sdk/components/bl602/bl602_std/bl602_std/StdDriver/Src/bl602_adc.c" 1
	nop
# 0 "" 2
	.loc 1 107 52
# 107 "/home/hogc/build-tools/sdk/bl/bl_iot_sdk/components/bl602/bl602_std/bl602_std/StdDriver/Src/bl602_adc.c" 1
	nop
# 0 "" 2
	.loc 1 107 75
# 107 "/home/hogc/build-tools/sdk/bl/bl_iot_sdk/components/bl602/bl602_std/bl602_std/StdDriver/Src/bl602_adc.c" 1
	nop
# 0 "" 2
	.loc 1 107 98
# 107 "/home/hogc/build-tools/sdk/bl/bl_iot_sdk/components/bl602/bl602_std/bl602_std/StdDriver/Src/bl602_adc.c" 1
	nop
# 0 "" 2
	.loc 1 107 121
# 107 "/home/hogc/build-tools/sdk/bl/bl_iot_sdk/components/bl602/bl602_std/bl602_std/StdDriver/Src/bl602_adc.c" 1
	nop
# 0 "" 2
	.loc 1 107 144
# 107 "/home/hogc/build-tools/sdk/bl/bl_iot_sdk/components/bl602/bl602_std/bl602_std/StdDriver/Src/bl602_adc.c" 1
	nop
# 0 "" 2
	.loc 1 107 167
# 107 "/home/hogc/build-tools/sdk/bl/bl_iot_sdk/components/bl602/bl602_std/bl602_std/StdDriver/Src/bl602_adc.c" 1
	nop
# 0 "" 2
	.loc 1 107 191
	.loc 1 108 5
	.loc 1 108 74 is_stmt 0
 #NO_APP
	andi	a5,a5,-5
.LVL1:
	.loc 1 108 61
	sw	a5,-1780(a4)
	.loc 1 109 1
	ret
	.cfi_endproc
.LFE8:
	.size	ADC_Reset, .-ADC_Reset
	.section	.text.ADC_Enable,"ax",@progbits
	.align	1
	.globl	ADC_Enable
	.type	ADC_Enable, @function
ADC_Enable:
.LFB9:
	.loc 1 120 1 is_stmt 1
	.cfi_startproc
	.loc 1 121 5
	.loc 1 123 5
	.loc 1 123 11 is_stmt 0
	li	a4,1073807360
	lw	a5,-1780(a4)
.LVL2:
	.loc 1 124 5 is_stmt 1
	.loc 1 124 11 is_stmt 0
	ori	a5,a5,1
.LVL3:
	.loc 1 125 5 is_stmt 1
	.loc 1 125 61 is_stmt 0
	sw	a5,-1780(a4)
	.loc 1 126 1
	ret
	.cfi_endproc
.LFE9:
	.size	ADC_Enable, .-ADC_Enable
	.section	.text.ADC_Disable,"ax",@progbits
	.align	1
	.globl	ADC_Disable
	.type	ADC_Disable, @function
ADC_Disable:
.LFB10:
	.loc 1 137 1 is_stmt 1
	.cfi_startproc
	.loc 1 138 5
	.loc 1 140 5
	.loc 1 140 11 is_stmt 0
	li	a4,1073807360
	lw	a5,-1780(a4)
.LVL4:
	.loc 1 141 5 is_stmt 1
	.loc 1 141 11 is_stmt 0
	andi	a5,a5,-2
.LVL5:
	.loc 1 142 5 is_stmt 1
	.loc 1 142 61 is_stmt 0
	sw	a5,-1780(a4)
	.loc 1 143 1
	ret
	.cfi_endproc
.LFE10:
	.size	ADC_Disable, .-ADC_Disable
	.section	.text.ADC_Init,"ax",@progbits
	.align	1
	.globl	ADC_Init
	.type	ADC_Init, @function
ADC_Init:
.LFB11:
	.loc 1 155 1 is_stmt 1
	.cfi_startproc
.LVL6:
	.loc 1 156 5
	.loc 1 157 5
	.loc 1 158 5
	.loc 1 160 5
	.loc 1 161 5
	.loc 1 162 5
	.loc 1 163 5
	.loc 1 164 5
	.loc 1 165 5
	.loc 1 166 5
	.loc 1 167 5
	.loc 1 168 5
	.loc 1 169 5
	.loc 1 170 5
	.loc 1 173 5
	.loc 1 173 12 is_stmt 0
	li	a4,1073807360
	lw	a5,-1776(a4)
.LVL7:
	.loc 1 174 5 is_stmt 1
	.loc 1 174 25 is_stmt 0
	li	a3,-1610612736
	addi	a3,a3,-1
	and	a3,a5,a3
.LVL8:
	.loc 1 175 5 is_stmt 1
	.loc 1 174 57 is_stmt 0
	lbu	a5,0(a0)
	.loc 1 181 86
	lbu	a2,11(a0)
	.loc 1 181 25
	li	a1,-131072
	.loc 1 174 80
	slli	a5,a5,29
	.loc 1 174 12
	or	a5,a5,a3
.LVL9:
	.loc 1 175 25
	li	a3,-402653184
	addi	a3,a3,-1
	and	a5,a5,a3
.LVL10:
	.loc 1 176 5 is_stmt 1
	.loc 1 177 5
	.loc 1 178 5
	.loc 1 179 5
	.loc 1 175 57 is_stmt 0
	lbu	a3,1(a0)
	.loc 1 175 80
	slli	a3,a3,27
	.loc 1 175 12
	or	a3,a3,a5
	.loc 1 179 25
	li	a5,-133955584
.LVL11:
	addi	a5,a5,-1
	and	a5,a3,a5
.LVL12:
	.loc 1 180 5 is_stmt 1
	.loc 1 181 5
	.loc 1 179 57 is_stmt 0
	lbu	a3,2(a0)
	.loc 1 179 80
	slli	a3,a3,18
	.loc 1 179 12
	or	a3,a3,a5
	.loc 1 181 25
	addi	a5,a1,-2
.LVL13:
	and	a3,a3,a5
.LVL14:
	.loc 1 182 5 is_stmt 1
	.loc 1 181 12 is_stmt 0
	or	a3,a2,a3
.LVL15:
	.loc 1 182 25
	andi	a2,a3,-29
	.loc 1 182 56
	lbu	a3,10(a0)
.LVL16:
	.loc 1 182 81
	slli	a3,a3,2
	.loc 1 182 12
	or	a3,a3,a2
.LVL17:
	.loc 1 183 5 is_stmt 1
	.loc 1 183 61 is_stmt 0
	sw	a3,-1776(a4)
	.loc 1 184 6 is_stmt 1
 #APP
# 184 "/home/hogc/build-tools/sdk/bl/bl_iot_sdk/components/bl602/bl602_std/bl602_std/StdDriver/Src/bl602_adc.c" 1
	nop
# 0 "" 2
	.loc 1 184 29
# 184 "/home/hogc/build-tools/sdk/bl/bl_iot_sdk/components/bl602/bl602_std/bl602_std/StdDriver/Src/bl602_adc.c" 1
	nop
# 0 "" 2
	.loc 1 184 52
# 184 "/home/hogc/build-tools/sdk/bl/bl_iot_sdk/components/bl602/bl602_std/bl602_std/StdDriver/Src/bl602_adc.c" 1
	nop
# 0 "" 2
	.loc 1 184 75
# 184 "/home/hogc/build-tools/sdk/bl/bl_iot_sdk/components/bl602/bl602_std/bl602_std/StdDriver/Src/bl602_adc.c" 1
	nop
# 0 "" 2
	.loc 1 184 98
# 184 "/home/hogc/build-tools/sdk/bl/bl_iot_sdk/components/bl602/bl602_std/bl602_std/StdDriver/Src/bl602_adc.c" 1
	nop
# 0 "" 2
	.loc 1 184 121
# 184 "/home/hogc/build-tools/sdk/bl/bl_iot_sdk/components/bl602/bl602_std/bl602_std/StdDriver/Src/bl602_adc.c" 1
	nop
# 0 "" 2
	.loc 1 184 144
# 184 "/home/hogc/build-tools/sdk/bl/bl_iot_sdk/components/bl602/bl602_std/bl602_std/StdDriver/Src/bl602_adc.c" 1
	nop
# 0 "" 2
	.loc 1 184 167
# 184 "/home/hogc/build-tools/sdk/bl/bl_iot_sdk/components/bl602/bl602_std/bl602_std/StdDriver/Src/bl602_adc.c" 1
	nop
# 0 "" 2
	.loc 1 184 191
	.loc 1 187 5
	.loc 1 187 12 is_stmt 0
 #NO_APP
	lw	a5,-1772(a4)
.LVL18:
	.loc 1 188 5 is_stmt 1
	.loc 1 189 5
	.loc 1 189 71 is_stmt 0
	lbu	a3,3(a0)
.LVL19:
	.loc 1 189 25
	li	a4,-2113929216
.LVL20:
	addi	a4,a4,-1
	and	a5,a5,a4
.LVL21:
	.loc 1 190 5 is_stmt 1
	.loc 1 190 71 is_stmt 0
	lbu	a2,4(a0)
	.loc 1 189 79
	slli	a4,a3,25
	.loc 1 189 12
	or	a4,a4,a5
	.loc 1 190 25
	li	a5,-29360128
.LVL22:
	addi	a5,a5,-1
	and	a5,a4,a5
.LVL23:
	.loc 1 191 5 is_stmt 1
	.loc 1 190 79 is_stmt 0
	slli	a4,a2,22
	.loc 1 190 12
	or	a4,a4,a5
	.loc 1 191 25
	addi	a5,a1,-1
.LVL24:
	and	a4,a4,a5
.LVL25:
	.loc 1 192 5 is_stmt 1
	.loc 1 191 57 is_stmt 0
	lbu	a5,6(a0)
	.loc 1 195 39
	or	a3,a3,a2
	.loc 1 191 81
	slli	a5,a5,17
	.loc 1 191 12
	or	a5,a5,a4
	.loc 1 192 25
	li	a4,-98304
.LVL26:
	addi	a4,a4,-1
	and	a4,a5,a4
	.loc 1 192 57
	lbu	a5,5(a0)
	.loc 1 192 82
	slli	a5,a5,15
	.loc 1 192 12
	or	a5,a5,a4
.LVL27:
	.loc 1 194 5 is_stmt 1
	.loc 1 195 5
	.loc 1 195 39 is_stmt 0
	beq	a3,zero,.L5
	.loc 1 196 9 is_stmt 1
	.loc 1 194 12 is_stmt 0
	li	a4,-16384
	addi	a4,a4,-1
	and	a5,a5,a4
.LVL28:
	.loc 1 196 16
	li	a4,8192
	or	a5,a5,a4
.LVL29:
.L6:
	.loc 1 201 5 is_stmt 1
	.loc 1 202 5
	.loc 1 203 5
	.loc 1 204 5
	.loc 1 202 56 is_stmt 0
	lbu	a4,7(a0)
	.loc 1 204 25
	li	a3,-8192
	addi	a3,a3,127
	.loc 1 202 76
	slli	a4,a4,7
.LVL30:
	.loc 1 204 25
	and	a5,a5,a3
.LVL31:
	or	a5,a4,a5
	.loc 1 203 56
	lbu	a4,8(a0)
	.loc 1 204 25
	andi	a5,a5,-13
	.loc 1 210 27
	li	a3,-65536
	.loc 1 203 77
	slli	a4,a4,3
	.loc 1 204 25
	or	a5,a5,a4
	li	a4,4096
	or	a5,a5,a4
	.loc 1 204 56
	lbu	a4,9(a0)
	.loc 1 204 82
	slli	a4,a4,2
	.loc 1 204 12
	or	a5,a4,a5
.LVL32:
	.loc 1 206 5 is_stmt 1
	.loc 1 206 61 is_stmt 0
	li	a4,1073807360
.LVL33:
	sw	a5,-1772(a4)
.LVL34:
	.loc 1 209 5 is_stmt 1
	.loc 1 209 13 is_stmt 0
	lw	a5,-1736(a4)
.LVL35:
	.loc 1 210 5 is_stmt 1
	.loc 1 210 27 is_stmt 0
	and	a3,a5,a3
	.loc 1 210 90
	lh	a5,12(a0)
.LVL36:
	.loc 1 210 13
	or	a5,a5,a3
.LVL37:
	.loc 1 211 5 is_stmt 1
	.loc 1 211 61 is_stmt 0
	sw	a5,-1736(a4)
.LVL38:
	.loc 1 216 1
	ret
.LVL39:
.L5:
	.loc 1 198 9 is_stmt 1
	.loc 1 198 16 is_stmt 0
	li	a4,-24576
	addi	a4,a4,-1
	and	a5,a5,a4
.LVL40:
	j	.L6
	.cfi_endproc
.LFE11:
	.size	ADC_Init, .-ADC_Init
	.section	.text.ADC_Channel_Config,"ax",@progbits
	.align	1
	.globl	ADC_Channel_Config
	.type	ADC_Channel_Config, @function
ADC_Channel_Config:
.LFB12:
	.loc 1 229 1 is_stmt 1
	.cfi_startproc
.LVL41:
	.loc 1 230 5
	.loc 1 231 5
	.loc 1 233 5
	.loc 1 234 5
	.loc 1 237 5
	.loc 1 237 11 is_stmt 0
	li	a5,1073807360
	lw	a4,-1780(a5)
.LVL42:
	.loc 1 238 5 is_stmt 1
	.loc 1 238 23 is_stmt 0
	li	a3,-8192
	addi	a3,a3,255
	and	a4,a4,a3
.LVL43:
	.loc 1 239 5 is_stmt 1
	.loc 1 238 71 is_stmt 0
	slli	a0,a0,8
.LVL44:
	.loc 1 238 11
	or	a0,a0,a4
	.loc 1 239 23
	andi	a0,a0,-249
	.loc 1 239 71
	slli	a1,a1,3
.LVL45:
	.loc 1 239 11
	or	a0,a1,a0
.LVL46:
	.loc 1 240 5 is_stmt 1
	.loc 1 240 61 is_stmt 0
	sw	a0,-1780(a5)
	.loc 1 243 5 is_stmt 1
	.loc 1 243 12 is_stmt 0
	lw	a4,-1776(a5)
.LVL47:
	.loc 1 244 5 is_stmt 1
	.loc 1 244 74 is_stmt 0
	slli	a2,a2,1
.LVL48:
	.loc 1 244 25
	andi	a4,a4,-3
.LVL49:
	.loc 1 244 12
	or	a2,a2,a4
.LVL50:
	.loc 1 245 5 is_stmt 1
	.loc 1 245 12 is_stmt 0
	li	a4,-33554432
	addi	a4,a4,-1
	and	a2,a2,a4
.LVL51:
	.loc 1 246 5 is_stmt 1
	.loc 1 246 61 is_stmt 0
	sw	a2,-1776(a5)
	.loc 1 248 1
	ret
	.cfi_endproc
.LFE12:
	.size	ADC_Channel_Config, .-ADC_Channel_Config
	.section	.text.ADC_Scan_Channel_Config,"ax",@progbits
	.align	1
	.globl	ADC_Scan_Channel_Config
	.type	ADC_Scan_Channel_Config, @function
ADC_Scan_Channel_Config:
.LFB13:
	.loc 1 262 1 is_stmt 1
	.cfi_startproc
.LVL52:
	.loc 1 263 5
	.loc 1 264 5
	.loc 1 266 5
	.loc 1 269 5
	.loc 1 270 5
	.loc 1 270 7 is_stmt 0
	li	a4,5
	.loc 1 269 12
	li	a5,6
	.loc 1 270 7
	bgtu	a2,a4,.L9
	.loc 1 270 18
	mv	a5,a2
.L9:
.LVL53:
	.loc 1 274 5 is_stmt 1
	.loc 1 274 11 is_stmt 0
	li	a4,1073807360
	lw	a4,-1768(a4)
.LVL54:
	.loc 1 275 5 is_stmt 1
	.loc 1 275 10 is_stmt 0
	li	a6,0
	li	t4,5
	.loc 1 276 30
	li	t5,31
.LVL55:
.L10:
	.loc 1 275 5 discriminator 1
	bne	a6,a5,.L11
	.loc 1 279 5 is_stmt 1
	.loc 1 279 61 is_stmt 0
	li	a6,1073807360
.LVL56:
	sw	a4,-1768(a6)
	.loc 1 281 5 is_stmt 1
	.loc 1 281 11 is_stmt 0
	lw	a4,-1760(a6)
.LVL57:
	.loc 1 282 5 is_stmt 1
	li	t4,5
	.loc 1 282 10 is_stmt 0
	li	a6,0
	.loc 1 283 30
	li	t5,31
.LVL58:
.L12:
	.loc 1 282 5 discriminator 1
	bne	a6,a5,.L13
	.loc 1 286 5 is_stmt 1
	.loc 1 286 61 is_stmt 0
	li	a6,1073807360
.LVL59:
	sw	a4,-1760(a6)
	.loc 1 289 5 is_stmt 1
	.loc 1 289 7 is_stmt 0
	bleu	a2,a5,.L14
	.loc 1 290 9 is_stmt 1
	.loc 1 290 15 is_stmt 0
	lw	a4,-1764(a6)
.LVL60:
	.loc 1 291 9 is_stmt 1
	.loc 1 291 29 is_stmt 0
	sub	t3,a2,a5
	.loc 1 291 14
	li	a6,0
	li	t5,5
	.loc 1 292 34
	li	t6,31
.LVL61:
.L15:
	.loc 1 291 9 discriminator 1
	bgtu	t3,a6,.L16
	.loc 1 295 9 is_stmt 1
	.loc 1 295 65 is_stmt 0
	li	a0,1073807360
.LVL62:
	sw	a4,-1764(a0)
	.loc 1 297 9 is_stmt 1
	.loc 1 297 15 is_stmt 0
	lw	a4,-1756(a0)
.LVL63:
	.loc 1 298 9 is_stmt 1
	li	t4,5
	.loc 1 298 14 is_stmt 0
	li	a0,0
	.loc 1 299 34
	li	t5,31
.LVL64:
.L17:
	.loc 1 298 9 discriminator 1
	bne	t3,a0,.L18
	.loc 1 302 9 is_stmt 1
	.loc 1 302 65 is_stmt 0
	li	a5,1073807360
.LVL65:
	sw	a4,-1756(a5)
.LVL66:
.L14:
	.loc 1 306 5 is_stmt 1
	.loc 1 306 11 is_stmt 0
	li	a1,1073807360
.LVL67:
	lw	a5,-1776(a1)
.LVL68:
	.loc 1 307 5 is_stmt 1
	.loc 1 307 23 is_stmt 0
	li	a4,-31457280
	addi	a4,a4,-1
	.loc 1 307 76
	addi	a2,a2,-1
.LVL69:
	.loc 1 307 23
	and	a5,a5,a4
.LVL70:
	.loc 1 308 5 is_stmt 1
	.loc 1 307 79 is_stmt 0
	slli	a2,a2,21
	.loc 1 307 11
	or	a2,a2,a5
	.loc 1 308 72
	slli	a3,a3,1
.LVL71:
	.loc 1 308 23
	andi	a2,a2,-3
	.loc 1 308 11
	or	a2,a3,a2
.LVL72:
	.loc 1 309 5 is_stmt 1
	.loc 1 310 5
	.loc 1 310 11 is_stmt 0
	li	a3,33685504
	or	a2,a2,a3
.LVL73:
	.loc 1 311 5 is_stmt 1
	.loc 1 311 61 is_stmt 0
	sw	a2,-1776(a1)
	.loc 1 312 1
	ret
.LVL74:
.L11:
	.loc 1 276 9 is_stmt 1 discriminator 3
	mul	t3,a6,t4
	.loc 1 277 27 is_stmt 0 discriminator 3
	add	a7,a0,a6
	lbu	a7,0(a7)
	.loc 1 275 24 discriminator 3
	addi	a6,a6,1
.LVL75:
	.loc 1 276 30 discriminator 3
	sll	t1,t5,t3
	.loc 1 276 24 discriminator 3
	not	t1,t1
	.loc 1 276 15 discriminator 3
	and	a4,t1,a4
.LVL76:
	.loc 1 277 9 is_stmt 1 discriminator 3
	.loc 1 277 30 is_stmt 0 discriminator 3
	sll	a7,a7,t3
	.loc 1 277 15 discriminator 3
	or	a4,a7,a4
.LVL77:
	j	.L10
.L13:
	.loc 1 283 9 is_stmt 1 discriminator 3
	mul	t3,a6,t4
	.loc 1 284 27 is_stmt 0 discriminator 3
	add	a7,a1,a6
	lbu	a7,0(a7)
	.loc 1 282 24 discriminator 3
	addi	a6,a6,1
.LVL78:
	.loc 1 283 30 discriminator 3
	sll	t1,t5,t3
	.loc 1 283 24 discriminator 3
	not	t1,t1
	.loc 1 283 15 discriminator 3
	and	a4,t1,a4
.LVL79:
	.loc 1 284 9 is_stmt 1 discriminator 3
	.loc 1 284 30 is_stmt 0 discriminator 3
	sll	a7,a7,t3
	.loc 1 284 15 discriminator 3
	or	a4,a7,a4
.LVL80:
	j	.L12
.L16:
	.loc 1 292 13 is_stmt 1 discriminator 3
	mul	t4,a6,t5
	.loc 1 292 34 is_stmt 0 discriminator 3
	sll	t1,t6,t4
	.loc 1 292 28 discriminator 3
	not	t1,t1
	.loc 1 292 19 discriminator 3
	and	a4,t1,a4
.LVL81:
	.loc 1 293 13 is_stmt 1 discriminator 3
	.loc 1 293 31 is_stmt 0 discriminator 3
	add	t1,a6,a5
	add	t1,a0,t1
	lbu	a7,0(t1)
	.loc 1 291 39 discriminator 3
	addi	a6,a6,1
.LVL82:
	.loc 1 293 42 discriminator 3
	sll	a7,a7,t4
	.loc 1 293 19 discriminator 3
	or	a4,a7,a4
.LVL83:
	j	.L15
.LVL84:
.L18:
	.loc 1 299 13 is_stmt 1 discriminator 3
	mul	t1,a0,t4
	.loc 1 299 34 is_stmt 0 discriminator 3
	sll	a7,t5,t1
	.loc 1 299 28 discriminator 3
	not	a7,a7
	.loc 1 299 19 discriminator 3
	and	a4,a7,a4
.LVL85:
	.loc 1 300 13 is_stmt 1 discriminator 3
	.loc 1 300 31 is_stmt 0 discriminator 3
	add	a7,a0,a5
	add	a7,a1,a7
	lbu	a6,0(a7)
	.loc 1 298 39 discriminator 3
	addi	a0,a0,1
.LVL86:
	.loc 1 300 42 discriminator 3
	sll	a6,a6,t1
	.loc 1 300 19 discriminator 3
	or	a4,a6,a4
.LVL87:
	j	.L17
	.cfi_endproc
.LFE13:
	.size	ADC_Scan_Channel_Config, .-ADC_Scan_Channel_Config
	.section	.text.ADC_Start,"ax",@progbits
	.align	1
	.globl	ADC_Start
	.type	ADC_Start, @function
ADC_Start:
.LFB14:
	.loc 1 323 1 is_stmt 1
	.cfi_startproc
	.loc 1 324 5
	.loc 1 327 5
	.loc 1 323 1 is_stmt 0
	addi	sp,sp,-16
	.cfi_def_cfa_offset 16
	sw	s0,8(sp)
	sw	ra,12(sp)
	.cfi_offset 8, -8
	.cfi_offset 1, -4
	.loc 1 327 11
	li	s0,1073807360
	lw	a5,-1780(s0)
.LVL88:
	.loc 1 328 5 is_stmt 1
	.loc 1 331 5 is_stmt 0
	li	a0,100
	.loc 1 328 11
	andi	a5,a5,-3
.LVL89:
	.loc 1 329 5 is_stmt 1
	.loc 1 329 61 is_stmt 0
	sw	a5,-1780(s0)
	.loc 1 331 5 is_stmt 1
	call	BL602_Delay_US
.LVL90:
	.loc 1 334 5
	.loc 1 334 11 is_stmt 0
	lw	a5,-1780(s0)
.LVL91:
	.loc 1 335 5 is_stmt 1
	.loc 1 335 11 is_stmt 0
	ori	a5,a5,2
.LVL92:
	.loc 1 336 5 is_stmt 1
	.loc 1 336 61 is_stmt 0
	sw	a5,-1780(s0)
	.loc 1 338 1
	lw	ra,12(sp)
	.cfi_restore 1
	lw	s0,8(sp)
	.cfi_restore 8
	addi	sp,sp,16
	.cfi_def_cfa_offset 0
	jr	ra
	.cfi_endproc
.LFE14:
	.size	ADC_Start, .-ADC_Start
	.section	.text.ADC_Stop,"ax",@progbits
	.align	1
	.globl	ADC_Stop
	.type	ADC_Stop, @function
ADC_Stop:
.LFB15:
	.loc 1 349 1 is_stmt 1
	.cfi_startproc
	.loc 1 350 5
	.loc 1 353 5
	.loc 1 353 11 is_stmt 0
	li	a4,1073807360
	lw	a5,-1780(a4)
.LVL93:
	.loc 1 354 5 is_stmt 1
	.loc 1 354 11 is_stmt 0
	andi	a5,a5,-3
.LVL94:
	.loc 1 355 5 is_stmt 1
	.loc 1 355 61 is_stmt 0
	sw	a5,-1780(a4)
	.loc 1 356 1
	ret
	.cfi_endproc
.LFE15:
	.size	ADC_Stop, .-ADC_Stop
	.section	.text.ADC_FIFO_Cfg,"ax",@progbits
	.align	1
	.globl	ADC_FIFO_Cfg
	.type	ADC_FIFO_Cfg, @function
ADC_FIFO_Cfg:
.LFB16:
	.loc 1 367 1 is_stmt 1
	.cfi_startproc
.LVL95:
	.loc 1 368 5
	.loc 1 371 5
	.loc 1 378 5
	.loc 1 378 11 is_stmt 0
	li	a4,1073750016
	lw	a5,0(a4)
.LVL96:
	.loc 1 379 5 is_stmt 1
	.loc 1 379 23 is_stmt 0
	li	a3,-12582912
	addi	a3,a3,-1
	and	a3,a5,a3
.LVL97:
	.loc 1 382 5 is_stmt 1
	.loc 1 379 55 is_stmt 0
	lbu	a5,0(a0)
	.loc 1 379 89
	slli	a5,a5,22
	.loc 1 379 11
	or	a5,a5,a3
.LVL98:
	.loc 1 382 80
	lbu	a3,1(a0)
	.loc 1 382 23
	andi	a5,a5,-2
.LVL99:
	.loc 1 382 11
	or	a5,a3,a5
.LVL100:
	.loc 1 384 5 is_stmt 1
	.loc 1 384 59 is_stmt 0
	sw	a5,0(a4)
	.loc 1 387 5 is_stmt 1
	.loc 1 387 11 is_stmt 0
	lw	a5,0(a4)
.LVL101:
	.loc 1 388 5 is_stmt 1
	.loc 1 388 11 is_stmt 0
	ori	a5,a5,2
.LVL102:
	.loc 1 389 5 is_stmt 1
	.loc 1 389 59 is_stmt 0
	sw	a5,0(a4)
	.loc 1 391 1
	ret
	.cfi_endproc
.LFE16:
	.size	ADC_FIFO_Cfg, .-ADC_FIFO_Cfg
	.section	.text.ADC_Get_FIFO_Count,"ax",@progbits
	.align	1
	.globl	ADC_Get_FIFO_Count
	.type	ADC_Get_FIFO_Count, @function
ADC_Get_FIFO_Count:
.LFB17:
	.loc 1 402 1 is_stmt 1
	.cfi_startproc
	.loc 1 403 5
	.loc 1 405 5
	.loc 1 405 11 is_stmt 0
	li	a5,1073750016
	lw	a0,0(a5)
.LVL103:
	.loc 1 407 5 is_stmt 1
	.loc 1 407 51 is_stmt 0
	srli	a0,a0,16
.LVL104:
	.loc 1 408 1
	andi	a0,a0,63
	ret
	.cfi_endproc
.LFE17:
	.size	ADC_Get_FIFO_Count, .-ADC_Get_FIFO_Count
	.section	.text.ADC_FIFO_Is_Full,"ax",@progbits
	.align	1
	.globl	ADC_FIFO_Is_Full
	.type	ADC_FIFO_Is_Full, @function
ADC_FIFO_Is_Full:
.LFB18:
	.loc 1 419 1 is_stmt 1
	.cfi_startproc
	.loc 1 420 5
	.loc 1 422 5
	.loc 1 422 11 is_stmt 0
	li	a5,1073750016
	lw	a0,0(a5)
.LVL105:
	.loc 1 424 5 is_stmt 1
	.loc 1 424 7 is_stmt 0
	srli	a0,a0,3
.LVL106:
	.loc 1 429 1
	andi	a0,a0,1
	ret
	.cfi_endproc
.LFE18:
	.size	ADC_FIFO_Is_Full, .-ADC_FIFO_Is_Full
	.section	.text.ADC_FIFO_Is_Empty,"ax",@progbits
	.align	1
	.globl	ADC_FIFO_Is_Empty
	.type	ADC_FIFO_Is_Empty, @function
ADC_FIFO_Is_Empty:
.LFB19:
	.loc 1 440 1 is_stmt 1
	.cfi_startproc
	.loc 1 441 5
	.loc 1 443 5
	.loc 1 443 11 is_stmt 0
	li	a5,1073750016
	lw	a0,0(a5)
.LVL107:
	.loc 1 445 5 is_stmt 1
	.loc 1 445 7 is_stmt 0
	srli	a0,a0,2
.LVL108:
	xori	a0,a0,1
	.loc 1 450 1
	andi	a0,a0,1
	ret
	.cfi_endproc
.LFE19:
	.size	ADC_FIFO_Is_Empty, .-ADC_FIFO_Is_Empty
	.section	.text.ADC_Read_FIFO,"ax",@progbits
	.align	1
	.globl	ADC_Read_FIFO
	.type	ADC_Read_FIFO, @function
ADC_Read_FIFO:
.LFB20:
	.loc 1 461 1 is_stmt 1
	.cfi_startproc
	.loc 1 462 5
	.loc 1 464 5
	.loc 1 464 11 is_stmt 0
	li	a5,1073750016
	lw	a0,4(a5)
.LVL109:
	.loc 1 466 5 is_stmt 1
	.loc 1 467 1 is_stmt 0
	ret
	.cfi_endproc
.LFE20:
	.size	ADC_Read_FIFO, .-ADC_Read_FIFO
	.globl	__floatsidf
	.globl	__muldf3
	.globl	__extendsfdf2
	.globl	__truncdfsf2
	.section	.text.ADC_Parse_Result,"ax",@progbits
	.align	1
	.globl	ADC_Parse_Result
	.type	ADC_Parse_Result, @function
ADC_Parse_Result:
.LFB21:
	.loc 1 480 1 is_stmt 1
	.cfi_startproc
.LVL110:
	.loc 1 481 5
	.loc 1 482 5
	.loc 1 483 5
	.loc 1 484 5
	.loc 1 485 5
	.loc 1 486 5
	.loc 1 488 5
	.loc 1 480 1 is_stmt 0
	addi	sp,sp,-112
	.cfi_def_cfa_offset 112
	sw	s1,100(sp)
	sw	ra,108(sp)
	sw	s0,104(sp)
	sw	s2,96(sp)
	sw	s3,92(sp)
	sw	s4,88(sp)
	sw	s5,84(sp)
	sw	s6,80(sp)
	sw	s7,76(sp)
	sw	s8,72(sp)
	sw	s9,68(sp)
	sw	s10,64(sp)
	sw	s11,60(sp)
	fsw	fs0,44(sp)
	.cfi_offset 9, -12
	.cfi_offset 1, -4
	.cfi_offset 8, -8
	.cfi_offset 18, -16
	.cfi_offset 19, -20
	.cfi_offset 20, -24
	.cfi_offset 21, -28
	.cfi_offset 22, -32
	.cfi_offset 23, -36
	.cfi_offset 24, -40
	.cfi_offset 25, -44
	.cfi_offset 26, -48
	.cfi_offset 27, -52
	.cfi_offset 40, -68
	.loc 1 488 12
	li	a5,1073807360
	lw	s0,-1776(a5)
.LVL111:
	.loc 1 489 5 is_stmt 1
	.loc 1 489 12 is_stmt 0
	lw	a3,-1772(a5)
.LVL112:
	.loc 1 490 5 is_stmt 1
	.loc 1 490 53 is_stmt 0
	srli	s0,s0,2
.LVL113:
	.loc 1 491 52
	srli	s1,a3,2
	.loc 1 493 56
	andi	a3,a3,8
.LVL114:
	.loc 1 490 13
	andi	s0,s0,7
.LVL115:
	.loc 1 491 5 is_stmt 1
	.loc 1 491 12 is_stmt 0
	andi	s1,s1,1
.LVL116:
	.loc 1 493 5 is_stmt 1
	.loc 1 493 7 is_stmt 0
	bne	a3,zero,.L44
	.loc 1 494 12
	lui	a5,%hi(.LC1)
	flw	fs0,%lo(.LC1)(a5)
.L29:
.LVL117:
	.loc 1 496 5 is_stmt 1
	slli	a1,a1,2
.LVL118:
	.loc 1 496 7 is_stmt 0
	beq	s1,zero,.L30
	add	a5,a0,a1
	.loc 1 528 21
	addi	a3,s0,-2
	sw	a5,8(sp)
	andi	a5,a3,253
	.loc 1 530 47
	lui	a3,%hi(.LC7)
	lw	a6,%lo(.LC7+4)(a3)
	.loc 1 528 21
	sw	a5,12(sp)
	.loc 1 530 47
	lw	a5,%lo(.LC7)(a3)
	.loc 1 527 47
	lui	a3,%hi(.LC6)
	.loc 1 530 47
	sw	a6,20(sp)
	sw	a5,16(sp)
	.loc 1 527 47
	lw	a6,%lo(.LC6+4)(a3)
	lw	a5,%lo(.LC6)(a3)
	.loc 1 524 47
	lui	a3,%hi(.LC5)
	lw	s6,%lo(.LC5)(a3)
	lw	s7,%lo(.LC5+4)(a3)
	.loc 1 530 41
	li	s11,65536
	.loc 1 526 51
	li	s10,16384
	.loc 1 523 51
	li	s2,4096
	mv	s5,a2
	mv	s4,a0
	.loc 1 530 41
	addi	s11,s11,-1
	.loc 1 526 51
	addi	s10,s10,-1
	.loc 1 527 47
	sw	a5,24(sp)
	sw	a6,28(sp)
	.loc 1 523 51
	addi	s2,s2,-1
.LVL119:
.L31:
	.loc 1 512 9 discriminator 1
	lw	a5,8(sp)
	beq	s4,a5,.L28
	.loc 1 513 13 is_stmt 1
.LVL120:
	.loc 1 514 13
	.loc 1 514 40 is_stmt 0
	lw	a3,0(s4)
	.loc 1 513 17
	li	s3,0
	.loc 1 514 40
	srli	a3,a3,21
	.loc 1 514 30
	sb	a3,0(s5)
	.loc 1 515 13 is_stmt 1
	.loc 1 515 41 is_stmt 0
	lhu	a3,2(s4)
	.loc 1 515 46
	andi	a3,a3,31
	.loc 1 515 30
	sb	a3,1(s5)
	.loc 1 517 13 is_stmt 1
	.loc 1 517 22 is_stmt 0
	lw	a3,0(s4)
	.loc 1 517 15
	slli	a5,a3,16
	bge	a5,zero,.L37
	.loc 1 518 17 is_stmt 1
	.loc 1 519 17
	.loc 1 519 27 is_stmt 0
	neg	a3,a3
	sw	a3,0(s4)
	.loc 1 520 17 is_stmt 1
.LVL121:
	.loc 1 520 21 is_stmt 0
	mv	s3,s1
.LVL122:
.L37:
	.loc 1 522 13 is_stmt 1
	.loc 1 522 15 is_stmt 0
	bne	s0,zero,.L38
	.loc 1 523 17 is_stmt 1
	.loc 1 523 51 is_stmt 0
	lw	a0,0(s4)
	srli	a0,a0,4
	and	a0,a0,s2
	slli	a0,a0,16
	srli	a0,a0,16
	.loc 1 523 32
	sh	a0,2(s5)
	.loc 1 524 17 is_stmt 1
	.loc 1 524 47 is_stmt 0
	call	__floatsidf
.LVL123:
	mv	a2,s6
	mv	a3,s7
.L52:
	.loc 1 530 47
	call	__muldf3
.LVL124:
	.loc 1 530 55
	fmv.s	fa0,fs0
	.loc 1 530 47
	mv	s8,a0
	mv	s9,a1
	.loc 1 530 55
	call	__extendsfdf2
.LVL125:
	mv	a2,a0
	mv	a3,a1
	mv	a0,s8
	mv	a1,s9
	call	__muldf3
.LVL126:
	call	__truncdfsf2
.LVL127:
	fsw	fa0,4(s5)
.L39:
	.loc 1 532 13 is_stmt 1
	.loc 1 532 15 is_stmt 0
	beq	s3,zero,.L41
	.loc 1 533 17 is_stmt 1
	.loc 1 533 34 is_stmt 0
	flw	fa5,4(s5)
	fneg.s	fa5,fa5
	.loc 1 533 32
	fsw	fa5,4(s5)
.L41:
	addi	s5,s5,8
	addi	s4,s4,4
	j	.L31
.LVL128:
.L44:
	.loc 1 485 11
	lui	a5,%hi(.LC0)
	flw	fs0,%lo(.LC0)(a5)
	j	.L29
.LVL129:
.L30:
	add	a5,a0,a1
	.loc 1 506 21
	addi	a3,s0,-2
	sw	a5,8(sp)
	andi	a5,a3,253
	.loc 1 508 47
	lui	a3,%hi(.LC4)
	lw	a6,%lo(.LC4+4)(a3)
	.loc 1 506 21
	sw	a5,12(sp)
	.loc 1 508 47
	lw	a5,%lo(.LC4)(a3)
	.loc 1 505 47
	lui	a3,%hi(.LC3)
	lw	s4,%lo(.LC3)(a3)
	lw	s5,%lo(.LC3+4)(a3)
	.loc 1 502 47
	lui	a3,%hi(.LC2)
	lw	s6,%lo(.LC2)(a3)
	lw	s7,%lo(.LC2+4)(a3)
	.loc 1 508 41
	li	s9,65536
	.loc 1 504 51
	li	s1,16384
.LVL130:
	.loc 1 501 51
	li	s8,4096
	mv	s2,a0
	mv	s3,a2
	.loc 1 508 41
	addi	s9,s9,-1
	.loc 1 508 47
	sw	a5,16(sp)
	sw	a6,20(sp)
	.loc 1 504 51
	addi	s1,s1,-1
	.loc 1 501 51
	addi	s8,s8,-1
.LVL131:
.L32:
	.loc 1 497 9 discriminator 1
	lw	a5,8(sp)
	bne	a5,s2,.L36
.LVL132:
.L28:
	.loc 1 537 1
	lw	ra,108(sp)
	.cfi_remember_state
	.cfi_restore 1
	lw	s0,104(sp)
	.cfi_restore 8
.LVL133:
	lw	s1,100(sp)
	.cfi_restore 9
	lw	s2,96(sp)
	.cfi_restore 18
	lw	s3,92(sp)
	.cfi_restore 19
	lw	s4,88(sp)
	.cfi_restore 20
	lw	s5,84(sp)
	.cfi_restore 21
	lw	s6,80(sp)
	.cfi_restore 22
	lw	s7,76(sp)
	.cfi_restore 23
	lw	s8,72(sp)
	.cfi_restore 24
	lw	s9,68(sp)
	.cfi_restore 25
	lw	s10,64(sp)
	.cfi_restore 26
	lw	s11,60(sp)
	.cfi_restore 27
	flw	fs0,44(sp)
	.cfi_restore 40
.LVL134:
	addi	sp,sp,112
	.cfi_def_cfa_offset 0
	jr	ra
.LVL135:
.L36:
	.cfi_restore_state
	.loc 1 498 13 is_stmt 1
	.loc 1 498 40 is_stmt 0
	lw	a3,0(s2)
	.loc 1 499 30
	li	a5,-1
	sb	a5,1(s3)
	.loc 1 498 40
	srli	a3,a3,21
	.loc 1 498 30
	sb	a3,0(s3)
	.loc 1 499 13 is_stmt 1
	.loc 1 500 13
	.loc 1 500 15 is_stmt 0
	bne	s0,zero,.L33
	.loc 1 501 17 is_stmt 1
	.loc 1 501 51 is_stmt 0
	lw	a0,0(s2)
	srli	a0,a0,4
	and	a0,a0,s8
	slli	a0,a0,16
	srli	a0,a0,16
	.loc 1 501 32
	sh	a0,2(s3)
	.loc 1 502 17 is_stmt 1
	.loc 1 502 47 is_stmt 0
	call	__floatsidf
.LVL136:
	mv	a2,s6
	mv	a3,s7
.L51:
	.loc 1 508 47
	call	__muldf3
.LVL137:
	.loc 1 508 55
	fmv.s	fa0,fs0
	.loc 1 508 47
	mv	s10,a0
	mv	s11,a1
	.loc 1 508 55
	call	__extendsfdf2
.LVL138:
	mv	a2,a0
	mv	a3,a1
	mv	a0,s10
	mv	a1,s11
	call	__muldf3
.LVL139:
	call	__truncdfsf2
.LVL140:
	fsw	fa0,4(s3)
.L34:
	addi	s2,s2,4
	addi	s3,s3,8
	j	.L32
.L33:
	.loc 1 503 19 is_stmt 1
	.loc 1 503 21 is_stmt 0
	li	a5,1
	bne	s0,a5,.L35
	.loc 1 504 17 is_stmt 1
	.loc 1 504 51 is_stmt 0
	lw	a0,0(s2)
	srli	a0,a0,2
	and	a0,a0,s1
	slli	a0,a0,16
	srli	a0,a0,16
	.loc 1 504 32
	sh	a0,2(s3)
	.loc 1 505 17 is_stmt 1
	.loc 1 505 47 is_stmt 0
	call	__floatsidf
.LVL141:
	mv	a2,s4
	mv	a3,s5
	j	.L51
.L35:
	.loc 1 506 19 is_stmt 1
	.loc 1 506 21 is_stmt 0
	lw	a5,12(sp)
	bne	a5,zero,.L34
	.loc 1 507 17 is_stmt 1
	.loc 1 507 40 is_stmt 0
	lw	a0,0(s2)
	.loc 1 507 32
	sh	a0,2(s3)
	.loc 1 508 17 is_stmt 1
	.loc 1 508 47 is_stmt 0
	and	a0,a0,s9
	call	__floatsidf
.LVL142:
	lw	a2,16(sp)
	lw	a3,20(sp)
	j	.L51
.LVL143:
.L38:
	.loc 1 525 19 is_stmt 1
	.loc 1 525 21 is_stmt 0
	li	a5,1
	bne	s0,a5,.L40
	.loc 1 526 17 is_stmt 1
	.loc 1 526 51 is_stmt 0
	lw	a0,0(s4)
	srli	a0,a0,2
	and	a0,a0,s10
	slli	a0,a0,16
	srli	a0,a0,16
	.loc 1 526 32
	sh	a0,2(s5)
	.loc 1 527 17 is_stmt 1
	.loc 1 527 47 is_stmt 0
	call	__floatsidf
.LVL144:
	lw	a2,24(sp)
	lw	a3,28(sp)
	j	.L52
.L40:
	.loc 1 528 19 is_stmt 1
	.loc 1 528 21 is_stmt 0
	lw	a5,12(sp)
	bne	a5,zero,.L39
	.loc 1 529 17 is_stmt 1
	.loc 1 529 40 is_stmt 0
	lw	a0,0(s4)
	.loc 1 529 32
	sh	a0,2(s5)
	.loc 1 530 17 is_stmt 1
	.loc 1 530 47 is_stmt 0
	and	a0,a0,s11
	call	__floatsidf
.LVL145:
	lw	a2,16(sp)
	lw	a3,20(sp)
	j	.L52
	.cfi_endproc
.LFE21:
	.size	ADC_Parse_Result, .-ADC_Parse_Result
	.section	.text.ADC_IntMask,"ax",@progbits
	.align	1
	.globl	ADC_IntMask
	.type	ADC_IntMask, @function
ADC_IntMask:
.LFB22:
	.loc 1 549 1 is_stmt 1
	.cfi_startproc
.LVL146:
	.loc 1 550 5
	.loc 1 553 5
	.loc 1 554 5
	.loc 1 556 5
	li	a5,5
	bgtu	a0,a5,.L53
	lui	a5,%hi(.L56)
	addi	a5,a5,%lo(.L56)
	slli	a0,a0,2
.LVL147:
	add	a0,a0,a5
	lw	a5,0(a0)
	jr	a5
	.section	.rodata.ADC_IntMask,"a",@progbits
	.align	2
	.align	2
.L56:
	.word	.L61
	.word	.L60
	.word	.L59
	.word	.L58
	.word	.L57
	.word	.L55
	.section	.text.ADC_IntMask
.L61:
	.loc 1 559 13
	.loc 1 559 19 is_stmt 0
	li	a5,1073807360
	lw	a4,-1748(a5)
.LVL148:
	.loc 1 560 13 is_stmt 1
	.loc 1 565 23 is_stmt 0
	ori	a5,a4,512
	.loc 1 560 15
	bne	a1,zero,.L65
	.loc 1 562 17 is_stmt 1
	.loc 1 562 23 is_stmt 0
	andi	a5,a4,-513
.LVL149:
	.loc 1 567 13 is_stmt 1
.L65:
	.loc 1 578 13
	.loc 1 578 69 is_stmt 0
	li	a4,1073807360
	sw	a5,-1748(a4)
	.loc 1 579 13 is_stmt 1
	ret
.LVL150:
.L60:
	.loc 1 570 13
	.loc 1 570 19 is_stmt 0
	li	a5,1073807360
	lw	a4,-1748(a5)
.LVL151:
	.loc 1 571 13 is_stmt 1
	.loc 1 576 23 is_stmt 0
	ori	a5,a4,256
	.loc 1 571 15
	bne	a1,zero,.L65
	.loc 1 573 17 is_stmt 1
	.loc 1 573 23 is_stmt 0
	andi	a5,a4,-257
.LVL152:
	j	.L65
.LVL153:
.L59:
	.loc 1 581 13 is_stmt 1
	.loc 1 581 19 is_stmt 0
	li	a5,1073750016
	lw	a5,0(a5)
.LVL154:
	.loc 1 582 13 is_stmt 1
	.loc 1 584 23 is_stmt 0
	li	a4,-16384
	.loc 1 582 15
	beq	a1,zero,.L75
	.loc 1 587 17 is_stmt 1
	.loc 1 587 23 is_stmt 0
	li	a4,16384
.L74:
	.loc 1 609 23
	or	a5,a5,a4
.LVL155:
	j	.L71
.LVL156:
.L58:
	.loc 1 592 13 is_stmt 1
	.loc 1 592 19 is_stmt 0
	li	a5,1073750016
	lw	a5,0(a5)
.LVL157:
	.loc 1 593 13 is_stmt 1
	.loc 1 595 23 is_stmt 0
	li	a4,-8192
	.loc 1 593 15
	beq	a1,zero,.L75
	.loc 1 598 17 is_stmt 1
	.loc 1 598 23 is_stmt 0
	li	a4,8192
	j	.L74
.LVL158:
.L57:
	.loc 1 603 13 is_stmt 1
	.loc 1 603 19 is_stmt 0
	li	a5,1073750016
	lw	a5,0(a5)
.LVL159:
	.loc 1 604 13 is_stmt 1
	.loc 1 604 15 is_stmt 0
	bne	a1,zero,.L70
	.loc 1 606 17 is_stmt 1
	.loc 1 606 23 is_stmt 0
	li	a4,-4096
.L75:
	addi	a4,a4,-1
	and	a5,a5,a4
.LVL160:
.L71:
	.loc 1 611 13 is_stmt 1
	.loc 1 611 67 is_stmt 0
	li	a4,1073750016
.LVL161:
.L73:
	.loc 1 637 17 is_stmt 1
	.loc 1 637 71 is_stmt 0
	sw	a5,0(a4)
.LVL162:
.L53:
	.loc 1 643 1
	ret
.LVL163:
.L70:
	.loc 1 609 17 is_stmt 1
	.loc 1 609 23 is_stmt 0
	li	a4,4096
	j	.L74
.LVL164:
.L55:
	.loc 1 614 13 is_stmt 1
	.loc 1 616 23 is_stmt 0
	li	a5,1073754112
	lw	a5,-1748(a5)
	.loc 1 614 15
	bne	a1,zero,.L72
	.loc 1 616 17 is_stmt 1
.LVL165:
	.loc 1 617 17
	.loc 1 618 17
	.loc 1 618 23 is_stmt 0
	andi	a5,a5,-769
.LVL166:
	.loc 1 619 17 is_stmt 1
	.loc 1 619 73 is_stmt 0
	li	a4,1073807360
	sw	a5,-1748(a4)
	.loc 1 621 17 is_stmt 1
	.loc 1 621 23 is_stmt 0
	li	a3,1073750016
	lw	a5,0(a3)
.LVL167:
	.loc 1 622 17 is_stmt 1
	.loc 1 623 17
	.loc 1 624 17
	.loc 1 624 23 is_stmt 0
	li	a4,-28672
	addi	a4,a4,-1
	and	a5,a5,a4
.LVL168:
	.loc 1 625 17 is_stmt 1
	.loc 1 625 71 is_stmt 0
	sw	a5,0(a3)
	ret
.LVL169:
.L72:
	.loc 1 628 17 is_stmt 1
	.loc 1 629 17
	.loc 1 630 17
	.loc 1 630 23 is_stmt 0
	ori	a5,a5,768
.LVL170:
	.loc 1 631 17 is_stmt 1
	.loc 1 631 73 is_stmt 0
	li	a4,1073807360
	sw	a5,-1748(a4)
	.loc 1 633 17 is_stmt 1
	.loc 1 633 23 is_stmt 0
	li	a4,1073750016
	lw	a5,0(a4)
.LVL171:
	.loc 1 634 17 is_stmt 1
	.loc 1 635 17
	.loc 1 636 17
	.loc 1 636 23 is_stmt 0
	li	a3,28672
	or	a5,a5,a3
.LVL172:
	j	.L73
	.cfi_endproc
.LFE22:
	.size	ADC_IntMask, .-ADC_IntMask
	.section	.text.ADC_IntClr,"ax",@progbits
	.align	1
	.globl	ADC_IntClr
	.type	ADC_IntClr, @function
ADC_IntClr:
.LFB23:
	.loc 1 654 1 is_stmt 1
	.cfi_startproc
.LVL173:
	.loc 1 655 5
	.loc 1 658 5
	.loc 1 660 5
	li	a5,5
	bgtu	a0,a5,.L76
	lui	a5,%hi(.L79)
	addi	a5,a5,%lo(.L79)
	slli	a0,a0,2
.LVL174:
	add	a0,a0,a5
	lw	a5,0(a0)
	jr	a5
	.section	.rodata.ADC_IntClr,"a",@progbits
	.align	2
	.align	2
.L79:
	.word	.L84
	.word	.L83
	.word	.L82
	.word	.L81
	.word	.L80
	.word	.L78
	.section	.text.ADC_IntClr
.L84:
	.loc 1 663 13
	.loc 1 663 19 is_stmt 0
	li	a4,1073807360
	lw	a5,-1748(a4)
.LVL175:
	.loc 1 664 13 is_stmt 1
	.loc 1 664 19 is_stmt 0
	andi	a5,a5,-33
.LVL176:
	.loc 1 665 13 is_stmt 1
	.loc 1 665 69 is_stmt 0
	sw	a5,-1748(a4)
	.loc 1 667 13 is_stmt 1
	.loc 1 667 19 is_stmt 0
	ori	a5,a5,32
.LVL177:
	.loc 1 668 13 is_stmt 1
	.loc 1 668 69 is_stmt 0
	sw	a5,-1748(a4)
	.loc 1 671 13 is_stmt 1
	.loc 1 671 19 is_stmt 0
	lw	a5,-1748(a4)
.LVL178:
	.loc 1 672 13 is_stmt 1
	.loc 1 672 19 is_stmt 0
	andi	a5,a5,-33
.LVL179:
	.loc 1 673 13 is_stmt 1
.L85:
	.loc 1 687 13
	.loc 1 687 69 is_stmt 0
	sw	a5,-1748(a4)
	.loc 1 689 13 is_stmt 1
	ret
.LVL180:
.L83:
	.loc 1 677 13
	.loc 1 677 19 is_stmt 0
	li	a4,1073807360
	lw	a5,-1748(a4)
.LVL181:
	.loc 1 678 13 is_stmt 1
	.loc 1 678 19 is_stmt 0
	andi	a5,a5,-17
.LVL182:
	.loc 1 679 13 is_stmt 1
	.loc 1 679 69 is_stmt 0
	sw	a5,-1748(a4)
	.loc 1 681 13 is_stmt 1
	.loc 1 681 19 is_stmt 0
	ori	a5,a5,16
.LVL183:
	.loc 1 682 13 is_stmt 1
	.loc 1 682 69 is_stmt 0
	sw	a5,-1748(a4)
	.loc 1 685 13 is_stmt 1
	.loc 1 685 19 is_stmt 0
	lw	a5,-1748(a4)
.LVL184:
	.loc 1 686 13 is_stmt 1
	.loc 1 686 19 is_stmt 0
	andi	a5,a5,-17
.LVL185:
	j	.L85
.L82:
	.loc 1 691 13 is_stmt 1
	.loc 1 691 19 is_stmt 0
	li	a4,1073750016
	lw	a5,0(a4)
.LVL186:
	.loc 1 692 13 is_stmt 1
	.loc 1 692 19 is_stmt 0
	andi	a5,a5,-1025
.LVL187:
	.loc 1 693 13 is_stmt 1
	.loc 1 693 67 is_stmt 0
	sw	a5,0(a4)
	.loc 1 695 13 is_stmt 1
	.loc 1 695 19 is_stmt 0
	ori	a5,a5,1024
.LVL188:
	.loc 1 696 13 is_stmt 1
	.loc 1 696 67 is_stmt 0
	sw	a5,0(a4)
	.loc 1 699 13 is_stmt 1
	.loc 1 699 19 is_stmt 0
	lw	a5,0(a4)
.LVL189:
	.loc 1 700 13 is_stmt 1
	.loc 1 700 19 is_stmt 0
	andi	a5,a5,-1025
.LVL190:
	.loc 1 701 13 is_stmt 1
.L86:
	.loc 1 765 13
	.loc 1 765 67 is_stmt 0
	sw	a5,0(a4)
	.loc 1 768 13 is_stmt 1
.LVL191:
.L76:
	.loc 1 772 1 is_stmt 0
	ret
.L81:
	.loc 1 705 13 is_stmt 1
	.loc 1 705 19 is_stmt 0
	li	a4,1073750016
	lw	a5,0(a4)
.LVL192:
	.loc 1 706 13 is_stmt 1
	.loc 1 706 19 is_stmt 0
	andi	a5,a5,-513
.LVL193:
	.loc 1 707 13 is_stmt 1
	.loc 1 707 67 is_stmt 0
	sw	a5,0(a4)
	.loc 1 709 13 is_stmt 1
	.loc 1 709 19 is_stmt 0
	ori	a5,a5,512
.LVL194:
	.loc 1 710 13 is_stmt 1
	.loc 1 710 67 is_stmt 0
	sw	a5,0(a4)
	.loc 1 713 13 is_stmt 1
	.loc 1 713 19 is_stmt 0
	lw	a5,0(a4)
.LVL195:
	.loc 1 714 13 is_stmt 1
	.loc 1 714 19 is_stmt 0
	andi	a5,a5,-513
.LVL196:
	.loc 1 715 13 is_stmt 1
	j	.L86
.LVL197:
.L80:
	.loc 1 719 13
	.loc 1 719 19 is_stmt 0
	li	a4,1073750016
	lw	a5,0(a4)
.LVL198:
	.loc 1 720 13 is_stmt 1
	.loc 1 720 19 is_stmt 0
	andi	a5,a5,-257
.LVL199:
	.loc 1 721 13 is_stmt 1
	.loc 1 721 67 is_stmt 0
	sw	a5,0(a4)
	.loc 1 723 13 is_stmt 1
	.loc 1 723 19 is_stmt 0
	ori	a5,a5,256
.LVL200:
	.loc 1 724 13 is_stmt 1
	.loc 1 724 67 is_stmt 0
	sw	a5,0(a4)
	.loc 1 727 13 is_stmt 1
	.loc 1 727 19 is_stmt 0
	lw	a5,0(a4)
.LVL201:
	.loc 1 728 13 is_stmt 1
	.loc 1 728 19 is_stmt 0
	andi	a5,a5,-257
.LVL202:
	.loc 1 729 13 is_stmt 1
	j	.L86
.LVL203:
.L78:
	.loc 1 733 13
	.loc 1 733 19 is_stmt 0
	li	a4,1073807360
	lw	a5,-1748(a4)
.LVL204:
	.loc 1 734 13 is_stmt 1
	.loc 1 735 13
	.loc 1 735 19 is_stmt 0
	andi	a5,a5,-49
.LVL205:
	.loc 1 736 13 is_stmt 1
	.loc 1 736 69 is_stmt 0
	sw	a5,-1748(a4)
	.loc 1 738 13 is_stmt 1
.LVL206:
	.loc 1 739 13
	.loc 1 739 19 is_stmt 0
	ori	a5,a5,48
.LVL207:
	.loc 1 740 13 is_stmt 1
	.loc 1 740 69 is_stmt 0
	sw	a5,-1748(a4)
	.loc 1 743 13 is_stmt 1
	.loc 1 743 19 is_stmt 0
	lw	a5,-1748(a4)
.LVL208:
	.loc 1 744 13 is_stmt 1
	.loc 1 745 13
	.loc 1 745 19 is_stmt 0
	andi	a5,a5,-49
.LVL209:
	.loc 1 746 13 is_stmt 1
	.loc 1 746 69 is_stmt 0
	sw	a5,-1748(a4)
	.loc 1 749 13 is_stmt 1
	.loc 1 749 19 is_stmt 0
	li	a4,1073750016
	lw	a5,0(a4)
.LVL210:
	.loc 1 750 13 is_stmt 1
	.loc 1 751 13
	.loc 1 752 13
	.loc 1 752 19 is_stmt 0
	andi	a5,a5,-1793
.LVL211:
	.loc 1 753 13 is_stmt 1
	.loc 1 753 67 is_stmt 0
	sw	a5,0(a4)
	.loc 1 755 13 is_stmt 1
.LVL212:
	.loc 1 756 13
	.loc 1 757 13
	.loc 1 757 19 is_stmt 0
	ori	a5,a5,1792
.LVL213:
	.loc 1 758 13 is_stmt 1
	.loc 1 758 67 is_stmt 0
	sw	a5,0(a4)
	.loc 1 761 13 is_stmt 1
	.loc 1 761 19 is_stmt 0
	lw	a5,0(a4)
.LVL214:
	.loc 1 762 13 is_stmt 1
	.loc 1 763 13
	.loc 1 764 13
	.loc 1 764 19 is_stmt 0
	andi	a5,a5,-1793
.LVL215:
	j	.L86
	.cfi_endproc
.LFE23:
	.size	ADC_IntClr, .-ADC_IntClr
	.section	.text.ADC_GetIntStatus,"ax",@progbits
	.align	1
	.globl	ADC_GetIntStatus
	.type	ADC_GetIntStatus, @function
ADC_GetIntStatus:
.LFB24:
	.loc 1 783 1 is_stmt 1
	.cfi_startproc
.LVL216:
	.loc 1 784 5
	.loc 1 785 5
	.loc 1 788 5
	.loc 1 790 5
	li	a5,4
	bgtu	a0,a5,.L95
	lui	a5,%hi(.L90)
	addi	a5,a5,%lo(.L90)
	slli	a0,a0,2
.LVL217:
	add	a0,a0,a5
	lw	a5,0(a0)
	jr	a5
	.section	.rodata.ADC_GetIntStatus,"a",@progbits
	.align	2
	.align	2
.L90:
	.word	.L94
	.word	.L93
	.word	.L92
	.word	.L91
	.word	.L89
	.section	.text.ADC_GetIntStatus
.L94:
	.loc 1 793 13
	.loc 1 793 19 is_stmt 0
	li	a5,1073807360
	lw	a0,-1748(a5)
.LVL218:
	.loc 1 794 13 is_stmt 1
	.loc 1 794 62 is_stmt 0
	srli	a0,a0,1
.LVL219:
.L96:
	.loc 1 798 13 is_stmt 1
	.loc 1 798 23 is_stmt 0
	andi	a0,a0,1
.LVL220:
	.loc 1 799 13 is_stmt 1
	ret
.LVL221:
.L93:
	.loc 1 797 13
	.loc 1 797 19 is_stmt 0
	li	a5,1073807360
	lw	a0,-1748(a5)
	j	.L96
.L92:
	.loc 1 801 13 is_stmt 1
	.loc 1 801 19 is_stmt 0
	li	a5,1073750016
	lw	a0,0(a5)
.LVL222:
	.loc 1 802 13 is_stmt 1
	.loc 1 802 65 is_stmt 0
	srli	a0,a0,6
.LVL223:
	j	.L96
.L91:
	.loc 1 805 13 is_stmt 1
	.loc 1 805 19 is_stmt 0
	li	a5,1073750016
	lw	a0,0(a5)
.LVL224:
	.loc 1 806 13 is_stmt 1
	.loc 1 806 65 is_stmt 0
	srli	a0,a0,5
.LVL225:
	j	.L96
.L89:
	.loc 1 809 13 is_stmt 1
	.loc 1 809 19 is_stmt 0
	li	a5,1073750016
	lw	a0,0(a5)
.LVL226:
	.loc 1 810 13 is_stmt 1
	.loc 1 810 65 is_stmt 0
	srli	a0,a0,4
.LVL227:
	j	.L96
.LVL228:
.L95:
	.loc 1 785 17
	li	a0,0
.LVL229:
	.loc 1 818 5 is_stmt 1
	.loc 1 819 1 is_stmt 0
	ret
	.cfi_endproc
.LFE24:
	.size	ADC_GetIntStatus, .-ADC_GetIntStatus
	.section	.text.ADC_Int_Callback_Install,"ax",@progbits
	.align	1
	.globl	ADC_Int_Callback_Install
	.type	ADC_Int_Callback_Install, @function
ADC_Int_Callback_Install:
.LFB25:
	.loc 1 831 1 is_stmt 1
	.cfi_startproc
.LVL230:
	.loc 1 833 5
	.loc 1 835 5
	.loc 1 836 1 is_stmt 0
	ret
	.cfi_endproc
.LFE25:
	.size	ADC_Int_Callback_Install, .-ADC_Int_Callback_Install
	.section	.text.ADC_Vbat_Enable,"ax",@progbits
	.align	1
	.globl	ADC_Vbat_Enable
	.type	ADC_Vbat_Enable, @function
ADC_Vbat_Enable:
.LFB26:
	.loc 1 894 1 is_stmt 1
	.cfi_startproc
	.loc 1 895 5
	.loc 1 897 5
	.loc 1 897 11 is_stmt 0
	li	a4,1073807360
	lw	a5,-1772(a4)
.LVL231:
	.loc 1 898 5 is_stmt 1
	.loc 1 898 11 is_stmt 0
	ori	a5,a5,16
.LVL232:
	.loc 1 899 5 is_stmt 1
	.loc 1 899 61 is_stmt 0
	sw	a5,-1772(a4)
	.loc 1 900 1
	ret
	.cfi_endproc
.LFE26:
	.size	ADC_Vbat_Enable, .-ADC_Vbat_Enable
	.section	.text.ADC_Vbat_Disable,"ax",@progbits
	.align	1
	.globl	ADC_Vbat_Disable
	.type	ADC_Vbat_Disable, @function
ADC_Vbat_Disable:
.LFB27:
	.loc 1 911 1 is_stmt 1
	.cfi_startproc
	.loc 1 912 5
	.loc 1 914 5
	.loc 1 914 11 is_stmt 0
	li	a4,1073807360
	lw	a5,-1772(a4)
.LVL233:
	.loc 1 915 5 is_stmt 1
	.loc 1 915 11 is_stmt 0
	andi	a5,a5,-17
.LVL234:
	.loc 1 916 5 is_stmt 1
	.loc 1 916 61 is_stmt 0
	sw	a5,-1772(a4)
	.loc 1 917 1
	ret
	.cfi_endproc
.LFE27:
	.size	ADC_Vbat_Disable, .-ADC_Vbat_Disable
	.section	.text.ADC_Tsen_Init,"ax",@progbits
	.align	1
	.globl	ADC_Tsen_Init
	.type	ADC_Tsen_Init, @function
ADC_Tsen_Init:
.LFB28:
	.loc 1 928 1 is_stmt 1
	.cfi_startproc
.LVL235:
	.loc 1 929 5
	.loc 1 931 5
	.loc 1 934 5
	.loc 1 934 11 is_stmt 0
	li	a4,1073807360
	lw	a5,-1780(a4)
.LVL236:
	.loc 1 936 5 is_stmt 1
	.loc 1 938 5
	.loc 1 940 5
	.loc 1 940 11 is_stmt 0
	li	a3,-2013265920
	addi	a3,a3,-1
	and	a5,a5,a3
.LVL237:
	.loc 1 942 5 is_stmt 1
	.loc 1 942 11 is_stmt 0
	li	a3,262144
	or	a5,a5,a3
.LVL238:
	.loc 1 943 5 is_stmt 1
	.loc 1 943 61 is_stmt 0
	sw	a5,-1780(a4)
	.loc 1 946 5 is_stmt 1
	.loc 1 946 11 is_stmt 0
	lw	a5,-1772(a4)
.LVL239:
	.loc 1 948 5 is_stmt 1
	.loc 1 950 5
	.loc 1 952 5
	.loc 1 954 5
	.loc 1 956 5
	.loc 1 958 5
	.loc 1 960 5
	.loc 1 962 5
	.loc 1 964 5
	li	a3,264503296
	addi	a3,a3,-33
	and	a5,a5,a3
.LVL240:
	.loc 1 958 73 is_stmt 0
	slli	a0,a0,5
.LVL241:
	or	a5,a5,a0
	li	a0,-24576
	addi	a0,a0,127
	and	a5,a5,a0
	.loc 1 964 11
	li	a0,536870912
	addi	a0,a0,320
	or	a5,a5,a0
.LVL242:
	.loc 1 966 5 is_stmt 1
	.loc 1 966 61 is_stmt 0
	sw	a5,-1772(a4)
	.loc 1 969 5 is_stmt 1
	.loc 1 969 11 is_stmt 0
	lw	a5,-1776(a4)
.LVL243:
	.loc 1 971 5 is_stmt 1
	.loc 1 971 12 is_stmt 0
	li	a3,67108864
	or	a5,a5,a3
.LVL244:
	.loc 1 972 5 is_stmt 1
	.loc 1 972 61 is_stmt 0
	sw	a5,-1776(a4)
	.loc 1 973 1
	ret
	.cfi_endproc
.LFE28:
	.size	ADC_Tsen_Init, .-ADC_Tsen_Init
	.section	.sclock_rlt_code,"ax",@progbits
	.align	1
	.globl	ADC_Trim_TSEN
	.type	ADC_Trim_TSEN, @function
ADC_Trim_TSEN:
.LFB29:
	.loc 1 984 1 is_stmt 1
	.cfi_startproc
.LVL245:
	.loc 1 985 5
	.loc 1 987 5
	.loc 1 984 1 is_stmt 0
	addi	sp,sp,-32
	.cfi_def_cfa_offset 32
	sw	s2,16(sp)
	.cfi_offset 18, -16
	mv	s2,a0
	.loc 1 987 5
	addi	a0,sp,12
.LVL246:
	.loc 1 984 1
	sw	ra,28(sp)
	sw	s0,24(sp)
	sw	s1,20(sp)
	.cfi_offset 1, -4
	.cfi_offset 8, -8
	.cfi_offset 9, -12
	.loc 1 987 5
	call	EF_Ctrl_Read_TSEN_Trim
.LVL247:
	.loc 1 989 5 is_stmt 1
	.loc 1 989 8 is_stmt 0
	lw	a0,12(sp)
	.loc 1 989 7
	slli	a5,a0,18
	blt	a5,zero,.L102
.L104:
	.loc 1 996 12
	li	a0,1
.L103:
	.loc 1 997 1
	lw	ra,28(sp)
	.cfi_remember_state
	.cfi_restore 1
	lw	s0,24(sp)
	.cfi_restore 8
	lw	s1,20(sp)
	.cfi_restore 9
	lw	s2,16(sp)
	.cfi_restore 18
.LVL248:
	addi	sp,sp,32
	.cfi_def_cfa_offset 0
	jr	ra
.LVL249:
.L102:
	.cfi_restore_state
	.loc 1 990 9 is_stmt 1
	.loc 1 990 70 is_stmt 0
	li	s0,4096
	addi	s0,s0,-1
	.loc 1 990 16
	srli	s1,a0,12
	.loc 1 990 70
	and	a0,a0,s0
	.loc 1 990 42
	slli	a0,a0,16
	li	a1,12
	srli	a0,a0,16
	.loc 1 990 16
	andi	s1,s1,1
	.loc 1 990 42
	call	EF_Ctrl_Get_Trim_Parity
.LVL250:
	.loc 1 990 11
	bne	s1,a0,.L104
	.loc 1 991 13 is_stmt 1
	.loc 1 991 32 is_stmt 0
	lw	a5,12(sp)
	.loc 1 992 20
	li	a0,0
	.loc 1 991 32
	and	s0,a5,s0
	.loc 1 991 26
	sh	s0,0(s2)
	.loc 1 992 13 is_stmt 1
	.loc 1 992 20 is_stmt 0
	j	.L103
	.cfi_endproc
.LFE29:
	.size	ADC_Trim_TSEN, .-ADC_Trim_TSEN
	.section	.text.ADC_SET_TSVBE_LOW,"ax",@progbits
	.align	1
	.globl	ADC_SET_TSVBE_LOW
	.type	ADC_SET_TSVBE_LOW, @function
ADC_SET_TSVBE_LOW:
.LFB30:
	.loc 1 1009 1 is_stmt 1
	.cfi_startproc
	.loc 1 1010 5
	.loc 1 1011 5
	.loc 1 1011 11 is_stmt 0
	li	a4,1073807360
	lw	a5,-1772(a4)
.LVL251:
	.loc 1 1012 5 is_stmt 1
	.loc 1 1012 11 is_stmt 0
	slli	a5,a5,1
.LVL252:
	srli	a5,a5,1
.LVL253:
	.loc 1 1013 5 is_stmt 1
	.loc 1 1013 61 is_stmt 0
	sw	a5,-1772(a4)
	.loc 1 1014 1
	ret
	.cfi_endproc
.LFE30:
	.size	ADC_SET_TSVBE_LOW, .-ADC_SET_TSVBE_LOW
	.section	.text.ADC_SET_TSVBE_HIGH,"ax",@progbits
	.align	1
	.globl	ADC_SET_TSVBE_HIGH
	.type	ADC_SET_TSVBE_HIGH, @function
ADC_SET_TSVBE_HIGH:
.LFB31:
	.loc 1 1025 1 is_stmt 1
	.cfi_startproc
	.loc 1 1026 5
	.loc 1 1027 5
	.loc 1 1027 11 is_stmt 0
	li	a4,1073807360
	lw	a5,-1772(a4)
.LVL254:
	.loc 1 1028 5 is_stmt 1
	.loc 1 1028 11 is_stmt 0
	li	a3,-2147483648
	or	a5,a5,a3
.LVL255:
	.loc 1 1029 5 is_stmt 1
	.loc 1 1029 61 is_stmt 0
	sw	a5,-1772(a4)
	.loc 1 1030 1
	ret
	.cfi_endproc
.LFE31:
	.size	ADC_SET_TSVBE_HIGH, .-ADC_SET_TSVBE_HIGH
	.globl	__divdf3
	.section	.text.TSEN_Get_Temp,"ax",@progbits
	.align	1
	.globl	TSEN_Get_Temp
	.type	TSEN_Get_Temp, @function
TSEN_Get_Temp:
.LFB32:
	.loc 1 1041 1 is_stmt 1
	.cfi_startproc
.LVL256:
	.loc 1 1042 5
	.loc 1 1043 5
	.loc 1 1044 5
	.loc 1 1041 1 is_stmt 0
	addi	sp,sp,-32
	.cfi_def_cfa_offset 32
	sw	ra,28(sp)
	sw	s0,24(sp)
	.loc 1 1049 12
	li	a4,1073750016
	.loc 1 1041 1
	sw	s1,20(sp)
	sw	s2,16(sp)
	.cfi_offset 1, -4
	.cfi_offset 8, -8
	.cfi_offset 9, -12
	.cfi_offset 18, -16
	.loc 1 1044 14
	sw	zero,4(sp)
	.loc 1 1045 5 is_stmt 1
	.loc 1 1046 5
	.loc 1 1049 5
	.loc 1 1049 12 is_stmt 0
	lw	a5,0(a4)
.LVL257:
	.loc 1 1050 5 is_stmt 1
	.loc 1 1041 1 is_stmt 0
	mv	s0,a0
	.loc 1 1050 12
	ori	a5,a5,2
.LVL258:
	.loc 1 1051 5 is_stmt 1
	.loc 1 1051 59 is_stmt 0
	sw	a5,0(a4)
	.loc 1 1053 5 is_stmt 1
	call	ADC_SET_TSVBE_LOW
.LVL259:
	.loc 1 1055 5
	call	ADC_Start
.LVL260:
	.loc 1 1056 5
.L109:
	.loc 1 1057 9 discriminator 1
	.loc 1 1056 12 is_stmt 0 discriminator 1
	call	ADC_Get_FIFO_Count
.LVL261:
	.loc 1 1056 11 discriminator 1
	beq	a0,zero,.L109
	.loc 1 1058 5 is_stmt 1
.LBB6:
.LBB7:
	.loc 1 462 5
	.loc 1 464 5
	.loc 1 464 11 is_stmt 0
	li	s1,1073750016
	lw	a5,4(s1)
.LVL262:
	.loc 1 466 5 is_stmt 1
.LBE7:
.LBE6:
	.loc 1 1059 5 is_stmt 0
	addi	a2,sp,8
	li	a1,1
	addi	a0,sp,4
	.loc 1 1058 12
	sw	a5,4(sp)
	.loc 1 1059 5 is_stmt 1
	call	ADC_Parse_Result
.LVL263:
	.loc 1 1060 5
	.loc 1 1063 12 is_stmt 0
	lw	a5,0(s1)
	.loc 1 1060 16
	lhu	s2,10(sp)
.LVL264:
	.loc 1 1063 5 is_stmt 1
	.loc 1 1064 5
	.loc 1 1064 12 is_stmt 0
	ori	a5,a5,2
.LVL265:
	.loc 1 1065 5 is_stmt 1
	.loc 1 1065 59 is_stmt 0
	sw	a5,0(s1)
	.loc 1 1068 5 is_stmt 1
	call	ADC_SET_TSVBE_HIGH
.LVL266:
	.loc 1 1070 5
	call	ADC_Start
.LVL267:
	.loc 1 1071 5
.L110:
	.loc 1 1072 9 discriminator 1
	.loc 1 1071 12 is_stmt 0 discriminator 1
	call	ADC_Get_FIFO_Count
.LVL268:
	.loc 1 1071 11 discriminator 1
	beq	a0,zero,.L110
	.loc 1 1073 5 is_stmt 1
.LBB8:
.LBB9:
	.loc 1 462 5
	.loc 1 464 5
	.loc 1 464 11 is_stmt 0
	li	a5,1073750016
	lw	a5,4(a5)
.LVL269:
	.loc 1 466 5 is_stmt 1
.LBE9:
.LBE8:
	.loc 1 1074 5 is_stmt 0
	addi	a2,sp,8
	li	a1,1
	addi	a0,sp,4
	.loc 1 1073 12
	sw	a5,4(sp)
	.loc 1 1074 5 is_stmt 1
	call	ADC_Parse_Result
.LVL270:
	.loc 1 1075 5
	.loc 1 1075 16 is_stmt 0
	lhu	a5,10(sp)
.LVL271:
	.loc 1 1077 5 is_stmt 1
	fcvt.s.wu	fa5,s0
	fcvt.s.wu	fa4,s2
	fcvt.s.wu	fa0,a5
	lui	s0,%hi(.LC8)
.LVL272:
	.loc 1 1077 8 is_stmt 0
	bleu	s2,a5,.L111
	.loc 1 1079 9 is_stmt 1
	.loc 1 1079 28 is_stmt 0
	fsub.s	fa0,fa4,fa0
.L118:
	.loc 1 1083 41
	fsub.s	fa0,fa0,fa5
	call	__extendsfdf2
.LVL273:
	.loc 1 1083 63
	lw	a2,%lo(.LC8)(s0)
	lw	a3,%lo(.LC8+4)(s0)
	call	__divdf3
.LVL274:
	.loc 1 1083 14
	call	__truncdfsf2
.LVL275:
	.loc 1 1086 5 is_stmt 1
	.loc 1 1087 1 is_stmt 0
	lw	ra,28(sp)
	.cfi_remember_state
	.cfi_restore 1
	lw	s0,24(sp)
	.cfi_restore 8
	lw	s1,20(sp)
	.cfi_restore 9
	lw	s2,16(sp)
	.cfi_restore 18
.LVL276:
	addi	sp,sp,32
	.cfi_def_cfa_offset 0
	jr	ra
.LVL277:
.L111:
	.cfi_restore_state
	.loc 1 1083 9 is_stmt 1
	.loc 1 1083 28 is_stmt 0
	fsub.s	fa0,fa0,fa4
	j	.L118
	.cfi_endproc
.LFE32:
	.size	TSEN_Get_Temp, .-TSEN_Get_Temp
	.section	.text.ADC_Mic_Init,"ax",@progbits
	.align	1
	.globl	ADC_Mic_Init
	.type	ADC_Mic_Init, @function
ADC_Mic_Init:
.LFB33:
	.loc 1 1099 1 is_stmt 1
	.cfi_startproc
.LVL278:
	.loc 1 1100 5
	.loc 1 1102 5
	.loc 1 1103 5
	.loc 1 1104 5
	.loc 1 1105 5
	.loc 1 1106 5
	.loc 1 1107 5
	.loc 1 1108 5
	.loc 1 1109 5
	.loc 1 1111 5
	.loc 1 1111 13 is_stmt 0
	li	a5,1073807360
	lw	a3,-1772(a5)
.LVL279:
	.loc 1 1113 5 is_stmt 1
	.loc 1 1113 12 is_stmt 0
	lw	a5,-1780(a5)
.LVL280:
	.loc 1 1114 5 is_stmt 1
	.loc 1 1114 25 is_stmt 0
	li	a4,-8388608
	addi	a4,a4,-1
	and	a5,a5,a4
.LVL281:
	.loc 1 1115 5 is_stmt 1
	.loc 1 1114 57 is_stmt 0
	lbu	a4,0(a0)
	.loc 1 1121 7
	slli	a2,a3,18
	.loc 1 1114 95
	slli	a4,a4,23
	.loc 1 1114 12
	or	a4,a4,a5
.LVL282:
	.loc 1 1115 25
	li	a5,-6291456
	addi	a5,a5,-1
	and	a5,a4,a5
.LVL283:
	.loc 1 1116 5 is_stmt 1
	.loc 1 1115 57 is_stmt 0
	lbu	a4,1(a0)
	.loc 1 1115 96
	slli	a4,a4,21
	.loc 1 1115 12
	or	a4,a4,a5
	.loc 1 1116 25
	li	a5,-1048576
.LVL284:
	addi	a5,a5,-1
	and	a4,a4,a5
.LVL285:
	.loc 1 1117 5 is_stmt 1
	.loc 1 1116 57 is_stmt 0
	lbu	a5,2(a0)
	.loc 1 1116 93
	slli	a5,a5,20
	.loc 1 1116 12
	or	a5,a5,a4
	.loc 1 1117 25
	li	a4,-524288
.LVL286:
	addi	a4,a4,-1
	and	a4,a5,a4
.LVL287:
	.loc 1 1118 5 is_stmt 1
	.loc 1 1117 57 is_stmt 0
	lbu	a5,3(a0)
	.loc 1 1117 93
	slli	a5,a5,19
	.loc 1 1117 12
	or	a5,a5,a4
	.loc 1 1118 25
	li	a4,-262144
.LVL288:
	addi	a4,a4,-1
	and	a5,a5,a4
.LVL289:
	.loc 1 1119 5 is_stmt 1
	.loc 1 1118 57 is_stmt 0
	lbu	a4,4(a0)
	.loc 1 1118 90
	slli	a4,a4,18
	.loc 1 1118 12
	or	a4,a4,a5
	.loc 1 1119 25
	li	a5,-65536
.LVL290:
	addi	a5,a5,-1
	and	a5,a4,a5
	.loc 1 1119 57
	lbu	a4,5(a0)
	.loc 1 1119 101
	slli	a4,a4,16
	.loc 1 1119 12
	or	a4,a4,a5
.LVL291:
	.loc 1 1121 5 is_stmt 1
	lbu	a5,6(a0)
	.loc 1 1121 7 is_stmt 0
	bge	a2,zero,.L120
	.loc 1 1121 42 discriminator 1
	li	a3,1
.LVL292:
	beq	a5,a3,.L121
.L120:
	.loc 1 1125 9 is_stmt 1
	.loc 1 1125 29 is_stmt 0
	li	a3,-32768
	addi	a3,a3,-1
	and	a4,a4,a3
.LVL293:
	.loc 1 1128 5 is_stmt 1
	.loc 1 1125 97 is_stmt 0
	slli	a5,a5,15
.LVL294:
	.loc 1 1125 16
	or	a5,a5,a4
	.loc 1 1128 25
	li	a4,-16384
	addi	a4,a4,-1
	and	a5,a5,a4
	.loc 1 1128 57
	lbu	a4,7(a0)
	.loc 1 1128 94
	slli	a4,a4,14
	.loc 1 1128 12
	or	a5,a4,a5
.LVL295:
	.loc 1 1130 5 is_stmt 1
	.loc 1 1130 61 is_stmt 0
	li	a4,1073807360
	sw	a5,-1780(a4)
	.loc 1 1132 5 is_stmt 1
	.loc 1 1132 12 is_stmt 0
	li	a5,0
.LVL296:
.L121:
	.loc 1 1134 1
	mv	a0,a5
.LVL297:
	ret
	.cfi_endproc
.LFE33:
	.size	ADC_Mic_Init, .-ADC_Mic_Init
	.section	.text.ADC_MIC_Bias_Enable,"ax",@progbits
	.align	1
	.globl	ADC_MIC_Bias_Enable
	.type	ADC_MIC_Bias_Enable, @function
ADC_MIC_Bias_Enable:
.LFB34:
	.loc 1 1146 1 is_stmt 1
	.cfi_startproc
	.loc 1 1147 5
	.loc 1 1149 5
	.loc 1 1149 11 is_stmt 0
	li	a4,1073807360
	lw	a5,-1780(a4)
.LVL298:
	.loc 1 1150 5 is_stmt 1
	.loc 1 1150 11 is_stmt 0
	li	a3,16384
	or	a5,a5,a3
.LVL299:
	.loc 1 1151 5 is_stmt 1
	.loc 1 1151 61 is_stmt 0
	sw	a5,-1780(a4)
	.loc 1 1152 1
	ret
	.cfi_endproc
.LFE34:
	.size	ADC_MIC_Bias_Enable, .-ADC_MIC_Bias_Enable
	.section	.text.ADC_MIC_Bias_Disable,"ax",@progbits
	.align	1
	.globl	ADC_MIC_Bias_Disable
	.type	ADC_MIC_Bias_Disable, @function
ADC_MIC_Bias_Disable:
.LFB35:
	.loc 1 1164 1 is_stmt 1
	.cfi_startproc
	.loc 1 1165 5
	.loc 1 1167 5
	.loc 1 1167 11 is_stmt 0
	li	a3,1073807360
	lw	a5,-1780(a3)
.LVL300:
	.loc 1 1168 5 is_stmt 1
	.loc 1 1168 11 is_stmt 0
	li	a4,-16384
	addi	a4,a4,-1
	and	a5,a5,a4
.LVL301:
	.loc 1 1169 5 is_stmt 1
	.loc 1 1169 61 is_stmt 0
	sw	a5,-1780(a3)
	.loc 1 1170 1
	ret
	.cfi_endproc
.LFE35:
	.size	ADC_MIC_Bias_Disable, .-ADC_MIC_Bias_Disable
	.section	.rodata.ADC_Parse_Result.cst4,"aM",@progbits,4
	.align	2
.LC0:
	.word	1073741824
.LC1:
	.word	1079194419
	.section	.rodata.ADC_Parse_Result.cst8,"aM",@progbits,8
	.align	3
.LC2:
	.word	0
	.word	1060110336
.LC3:
	.word	0
	.word	1058013184
.LC4:
	.word	0
	.word	1055916032
.LC5:
	.word	0
	.word	1061158912
.LC6:
	.word	0
	.word	1059061760
.LC7:
	.word	0
	.word	1056964608
	.section	.rodata.TSEN_Get_Temp.cst8,"aM",@progbits,8
	.align	3
.LC8:
	.word	1855425872
	.word	1075774226
	.text
.Letext0:
	.file 2 "/home/hogc/build-tools/sdk/bl/bl_iot_sdk/toolchain/riscv/Linux/lib/gcc/riscv64-unknown-elf/8.3.0/include/stdint-gcc.h"
	.file 3 "/home/hogc/build-tools/sdk/bl/bl_iot_sdk/toolchain/riscv/Linux/lib/gcc/riscv64-unknown-elf/8.3.0/include/stddef.h"
	.file 4 "/home/hogc/build-tools/sdk/bl/bl_iot_sdk/toolchain/riscv/Linux/riscv64-unknown-elf/include/sys/_types.h"
	.file 5 "/home/hogc/build-tools/sdk/bl/bl_iot_sdk/toolchain/riscv/Linux/riscv64-unknown-elf/include/sys/reent.h"
	.file 6 "/home/hogc/build-tools/sdk/bl/bl_iot_sdk/toolchain/riscv/Linux/riscv64-unknown-elf/include/sys/lock.h"
	.file 7 "/home/hogc/build-tools/sdk/bl/bl_iot_sdk/components/bl602/bl602_std/bl602_std/RISCV/Device/Bouffalo/BL602/Startup/system_bl602.h"
	.file 8 "/home/hogc/build-tools/sdk/bl/bl_iot_sdk/components/bl602/bl602_std/bl602_std/StdDriver/Inc/bl602_common.h"
	.file 9 "/home/hogc/build-tools/sdk/bl/bl_iot_sdk/components/bl602/bl602_std/bl602_std/StdDriver/Inc/bl602_adc.h"
	.file 10 "/home/hogc/build-tools/sdk/bl/bl_iot_sdk/components/bl602/bl602_std/bl602_std/StdDriver/Inc/bl602_ef_ctrl.h"