	.file	"bflb_ecdsa.c"
	.option nopic
	.attribute arch, "rv32i2p0_m2p0_f2p0_c2p0"
	.attribute unaligned_access, 0
	.attribute stack_align, 16
	.text
.Ltext0:
	.cfi_sections	.debug_frame
	.section	.text.bflb_ecc_basic_parameter_init,"ax",@progbits
	.align	1
	.globl	bflb_ecc_basic_parameter_init
	.type	bflb_ecc_basic_parameter_init, @function
bflb_ecc_basic_parameter_init:
.LFB8:
	.file 1 "/home/hogc/build-tools/sdk/bl/bl_iot_sdk/components/bl602/bl602_std/bl602_std/Common/cipher_suite/src/bflb_ecdsa.c"
	.loc 1 113 1
	.cfi_startproc
.LVL0:
	.loc 1 114 5
	lui	a2,%hi(.LANCHOR0)
	.loc 1 113 1 is_stmt 0
	addi	sp,sp,-16
	.cfi_def_cfa_offset 16
	.loc 1 114 5
	li	a4,0
	li	a3,8
	addi	a2,a2,%lo(.LANCHOR0)
	li	a1,0
	li	a0,3
.LVL1:
	.loc 1 113 1
	sw	ra,12(sp)
	.cfi_offset 1, -4
	.loc 1 114 5
	call	Sec_Eng_PKA_Write_Data
.LVL2:
	.loc 1 115 5 is_stmt 1
	lui	a2,%hi(.LANCHOR1)
	li	a4,0
	li	a3,8
	addi	a2,a2,%lo(.LANCHOR1)
	li	a1,1
	li	a0,3
	call	Sec_Eng_PKA_Write_Data
.LVL3:
	.loc 1 116 5
	lui	a2,%hi(.LANCHOR2)
	li	a0,3
	li	a4,0
	li	a3,8
	addi	a2,a2,%lo(.LANCHOR2)
	li	a1,2
	call	Sec_Eng_PKA_Write_Data
.LVL4:
	.loc 1 118 5
	.loc 1 119 1 is_stmt 0
	lw	ra,12(sp)
	.cfi_restore 1
	li	a0,0
	addi	sp,sp,16
	.cfi_def_cfa_offset 0
	jr	ra
	.cfi_endproc
.LFE8:
	.size	bflb_ecc_basic_parameter_init, .-bflb_ecc_basic_parameter_init
	.section	.text.bflb_ecc_point_mul_init,"ax",@progbits
	.align	1
	.globl	bflb_ecc_point_mul_init
	.type	bflb_ecc_point_mul_init, @function
bflb_ecc_point_mul_init:
.LFB9:
	.loc 1 122 1 is_stmt 1
	.cfi_startproc
.LVL5:
	.loc 1 123 5
	lui	a2,%hi(.LANCHOR3)
	.loc 1 122 1 is_stmt 0
	addi	sp,sp,-16
	.cfi_def_cfa_offset 16
	.loc 1 123 5
	li	a4,0
	li	a3,8
	addi	a2,a2,%lo(.LANCHOR3)
	li	a1,0
	li	a0,3
.LVL6:
	.loc 1 122 1
	sw	ra,12(sp)
	.cfi_offset 1, -4
	.loc 1 123 5
	call	Sec_Eng_PKA_Write_Data
.LVL7:
	.loc 1 124 5 is_stmt 1
	lui	a2,%hi(.LANCHOR4)
	li	a4,0
	li	a3,8
	addi	a2,a2,%lo(.LANCHOR4)
	li	a1,1
	li	a0,3
	call	Sec_Eng_PKA_Write_Data
.LVL8:
	.loc 1 125 5
	lui	a2,%hi(.LANCHOR5)
	li	a4,0
	li	a3,8
	addi	a2,a2,%lo(.LANCHOR5)
	li	a1,8
	li	a0,3
	call	Sec_Eng_PKA_Write_Data
.LVL9:
	.loc 1 126 5
	lui	a2,%hi(.LANCHOR6)
	li	a4,0
	li	a3,8
	addi	a2,a2,%lo(.LANCHOR6)
	li	a1,9
	li	a0,3
	call	Sec_Eng_PKA_Write_Data
.LVL10:
	.loc 1 127 5
	lui	a2,%hi(.LANCHOR7)
	li	a4,0
	li	a3,8
	addi	a2,a2,%lo(.LANCHOR7)
	li	a1,10
	li	a0,3
	call	Sec_Eng_PKA_Write_Data
.LVL11:
	.loc 1 128 5
	lui	a2,%hi(.LANCHOR8)
	li	a4,0
	li	a3,8
	addi	a2,a2,%lo(.LANCHOR8)
	li	a1,11
	li	a0,3
	call	Sec_Eng_PKA_Write_Data
.LVL12:
	.loc 1 129 5
	lui	a2,%hi(.LANCHOR9)
	li	a4,0
	li	a3,8
	addi	a2,a2,%lo(.LANCHOR9)
	li	a1,12
	li	a0,3
	call	Sec_Eng_PKA_Write_Data
.LVL13:
	.loc 1 130 5
	lui	a2,%hi(.LANCHOR10)
	li	a4,0
	li	a3,8
	addi	a2,a2,%lo(.LANCHOR10)
	li	a1,19
	li	a0,3
	call	Sec_Eng_PKA_Write_Data
.LVL14:
	.loc 1 131 5
	lui	a2,%hi(.LANCHOR11)
	li	a0,3
	li	a4,0
	li	a3,8
	addi	a2,a2,%lo(.LANCHOR11)
	li	a1,20
	call	Sec_Eng_PKA_Write_Data
.LVL15:
	.loc 1 133 5
	.loc 1 134 1 is_stmt 0
	lw	ra,12(sp)
	.cfi_restore 1
	li	a0,0
	addi	sp,sp,16
	.cfi_def_cfa_offset 0
	jr	ra
	.cfi_endproc
.LFE9:
	.size	bflb_ecc_point_mul_init, .-bflb_ecc_point_mul_init
	.section	.text.bflb_ecdsa_point_add_inf_check,"ax",@progbits
	.align	1
	.globl	bflb_ecdsa_point_add_inf_check
	.type	bflb_ecdsa_point_add_inf_check, @function
bflb_ecdsa_point_add_inf_check:
.LFB10:
	.loc 1 137 1 is_stmt 1
	.cfi_startproc
.LVL16:
	.loc 1 138 5
	.loc 1 155 5
	.loc 1 137 1 is_stmt 0
	addi	sp,sp,-32
	.cfi_def_cfa_offset 32
	sw	s0,24(sp)
	sw	s1,20(sp)
	.cfi_offset 8, -8
	.cfi_offset 9, -12
	mv	s0,a1
	mv	s1,a0
	.loc 1 155 5
	li	a4,8
	addi	a0,sp,12
.LVL17:
	li	a3,3
	li	a2,2
	li	a1,3
.LVL18:
	.loc 1 137 1
	sw	ra,28(sp)
	.cfi_offset 1, -4
	.loc 1 155 5
	call	Sec_Eng_PKA_LCMP
.LVL19:
	.loc 1 157 5 is_stmt 1
	addi	a0,sp,13
	li	a4,19
	li	a3,3
	li	a2,3
	li	a1,3
	call	Sec_Eng_PKA_LCMP
.LVL20:
	.loc 1 159 5
	addi	a0,sp,14
	li	a4,3
	li	a3,3
	li	a2,20
	li	a1,3
	call	Sec_Eng_PKA_LCMP
.LVL21:
	.loc 1 161 5
	addi	a0,sp,15
	li	a4,8
	li	a3,3
	li	a2,4
	li	a1,3
	call	Sec_Eng_PKA_LCMP
.LVL22:
	.loc 1 162 5
	.loc 1 162 20 is_stmt 0
	lbu	a4,13(sp)
	lbu	a5,12(sp)
	.loc 1 165 5
	addi	a0,sp,12
	li	a3,3
	.loc 1 162 20
	and	a5,a5,a4
	lbu	a4,14(sp)
	.loc 1 165 5
	li	a2,5
	li	a1,3
	.loc 1 162 20
	and	a5,a5,a4
	lbu	a4,15(sp)
	and	a5,a5,a4
	sb	a5,0(s1)
	.loc 1 165 5 is_stmt 1
	li	a4,8
	call	Sec_Eng_PKA_LCMP
.LVL23:
	.loc 1 167 5
	addi	a0,sp,13
	li	a4,19
	li	a3,3
	li	a2,6
	li	a1,3
	call	Sec_Eng_PKA_LCMP
.LVL24:
	.loc 1 169 5
	addi	a0,sp,14
	li	a4,6
	li	a3,3
	li	a2,20
	li	a1,3
	call	Sec_Eng_PKA_LCMP
.LVL25:
	.loc 1 171 5
	li	a4,8
	addi	a0,sp,15
	li	a3,3
	li	a2,7
	li	a1,3
	call	Sec_Eng_PKA_LCMP
.LVL26:
	.loc 1 172 5
	.loc 1 172 20 is_stmt 0
	lbu	a4,13(sp)
	lbu	a5,12(sp)
	.loc 1 173 1
	lw	ra,28(sp)
	.cfi_restore 1
	lw	s1,20(sp)
	.cfi_restore 9
.LVL27:
	.loc 1 172 20
	and	a5,a5,a4
	lbu	a4,14(sp)
	and	a5,a5,a4
	lbu	a4,15(sp)
	and	a5,a5,a4
	sb	a5,0(s0)
	.loc 1 173 1
	lw	s0,24(sp)
	.cfi_restore 8
.LVL28:
	addi	sp,sp,32
	.cfi_def_cfa_offset 0
	jr	ra
	.cfi_endproc
.LFE10:
	.size	bflb_ecdsa_point_add_inf_check, .-bflb_ecdsa_point_add_inf_check
	.section	.text.bflb_ecdsa_copy_x2_to_x1,"ax",@progbits
	.align	1
	.globl	bflb_ecdsa_copy_x2_to_x1
	.type	bflb_ecdsa_copy_x2_to_x1, @function
bflb_ecdsa_copy_x2_to_x1:
.LFB11:
	.loc 1 176 1 is_stmt 1
	.cfi_startproc
.LVL29:
	.loc 1 178 5
	.loc 1 176 1 is_stmt 0
	addi	sp,sp,-16
	.cfi_def_cfa_offset 16
	.loc 1 178 5
	li	a4,0
	li	a3,5
	li	a2,3
	li	a1,2
	li	a0,3
.LVL30:
	.loc 1 176 1
	sw	ra,12(sp)
	.cfi_offset 1, -4
	.loc 1 178 5
	call	Sec_Eng_PKA_Move_Data
.LVL31:
	.loc 1 180 5 is_stmt 1
	li	a4,0
	li	a3,6
	li	a2,3
	li	a1,3
	li	a0,3
	call	Sec_Eng_PKA_Move_Data
.LVL32:
	.loc 1 182 5
	.loc 1 183 1 is_stmt 0
	lw	ra,12(sp)
	.cfi_restore 1
	.loc 1 182 5
	li	a4,1
	.loc 1 183 1
	.loc 1 182 5
	li	a3,7
	li	a2,3
	li	a1,4
	li	a0,3
	.loc 1 183 1
	addi	sp,sp,16
	.cfi_def_cfa_offset 0
	.loc 1 182 5
	tail	Sec_Eng_PKA_Move_Data
.LVL33:
	.cfi_endproc
.LFE11:
	.size	bflb_ecdsa_copy_x2_to_x1, .-bflb_ecdsa_copy_x2_to_x1
	.section	.text.bflb_ecdsa_point_add,"ax",@progbits
	.align	1
	.globl	bflb_ecdsa_point_add
	.type	bflb_ecdsa_point_add, @function
bflb_ecdsa_point_add:
.LFB12:
	.loc 1 186 1 is_stmt 1
	.cfi_startproc
.LVL34:
	.loc 1 203 5
	.loc 1 186 1 is_stmt 0
	addi	sp,sp,-32
	.cfi_def_cfa_offset 32
	.loc 1 203 5
	sw	zero,0(sp)
	li	a7,0
	li	a6,3
	li	a5,4
	li	a4,3
	li	a3,6
	li	a2,3
	li	a1,13
	li	a0,3
.LVL35:
	.loc 1 186 1
	sw	ra,28(sp)
	.cfi_offset 1, -4
	.loc 1 203 5
	call	Sec_Eng_PKA_MMUL
.LVL36:
	.loc 1 207 5 is_stmt 1
	li	a7,0
	sw	zero,0(sp)
	li	a6,3
	li	a5,7
	li	a4,3
	li	a3,3
	li	a2,3
	li	a1,14
	li	a0,3
	call	Sec_Eng_PKA_MMUL
.LVL37:
	.loc 1 211 5
	li	a7,0
	sw	zero,0(sp)
	li	a6,3
	li	a5,4
	li	a4,3
	li	a3,5
	li	a2,3
	li	a1,15
	li	a0,3
	call	Sec_Eng_PKA_MMUL
.LVL38:
	.loc 1 215 5
	li	a7,0
	sw	zero,0(sp)
	li	a6,3
	li	a5,7
	li	a4,3
	li	a3,2
	li	a2,3
	li	a1,16
	li	a0,3
	call	Sec_Eng_PKA_MMUL
.LVL39:
	.loc 1 219 5
	li	a7,0
	sw	zero,0(sp)
	li	a6,3
	li	a5,14
	li	a4,3
	li	a3,13
	li	a2,3
	li	a1,13
	li	a0,3
	call	Sec_Eng_PKA_MSUB
.LVL40:
	.loc 1 223 5
	li	a7,0
	sw	zero,0(sp)
	li	a6,3
	li	a5,16
	li	a4,3
	li	a3,15
	li	a2,3
	li	a1,15
	li	a0,3
	call	Sec_Eng_PKA_MSUB
.LVL41:
	.loc 1 227 5
	li	a7,0
	sw	zero,0(sp)
	li	a6,3
	li	a5,7
	li	a4,3
	li	a3,4
	li	a2,3
	li	a1,2
	li	a0,3
	call	Sec_Eng_PKA_MMUL
.LVL42:
	.loc 1 231 5
	li	a7,0
	sw	zero,0(sp)
	li	a6,3
	li	a5,15
	li	a4,3
	li	a3,15
	li	a2,3
	li	a1,3
	li	a0,3
	call	Sec_Eng_PKA_MMUL
.LVL43:
	.loc 1 235 5
	li	a7,0
	sw	zero,0(sp)
	li	a6,3
	li	a5,15
	li	a4,3
	li	a3,3
	li	a2,3
	li	a1,4
	li	a0,3
	call	Sec_Eng_PKA_MMUL
.LVL44:
	.loc 1 239 5
	li	a7,0
	sw	zero,0(sp)
	li	a6,3
	li	a5,13
	li	a4,3
	li	a3,13
	li	a2,3
	li	a1,17
	li	a0,3
	call	Sec_Eng_PKA_MMUL
.LVL45:
	.loc 1 243 5
	li	a7,0
	sw	zero,0(sp)
	li	a6,3
	li	a5,2
	li	a4,3
	li	a3,17
	li	a2,3
	li	a1,17
	li	a0,3
	call	Sec_Eng_PKA_MMUL
.LVL46:
	.loc 1 247 5
	li	a7,0
	sw	zero,0(sp)
	li	a6,3
	li	a5,4
	li	a4,3
	li	a3,17
	li	a2,3
	li	a1,17
	li	a0,3
	call	Sec_Eng_PKA_MSUB
.LVL47:
	.loc 1 251 5
	li	a7,0
	sw	zero,0(sp)
	li	a6,3
	li	a5,3
	li	a4,3
	li	a3,9
	li	a2,3
	li	a1,18
	li	a0,3
	call	Sec_Eng_PKA_MMUL
.LVL48:
	.loc 1 255 5
	li	a7,0
	sw	zero,0(sp)
	li	a6,3
	li	a5,16
	li	a4,3
	li	a3,18
	li	a2,3
	li	a1,18
	li	a0,3
	call	Sec_Eng_PKA_MMUL
.LVL49:
	.loc 1 259 5
	li	a7,0
	sw	zero,0(sp)
	li	a6,3
	li	a5,18
	li	a4,3
	li	a3,17
	li	a2,3
	li	a1,18
	li	a0,3
	call	Sec_Eng_PKA_MSUB
.LVL50:
	.loc 1 263 5
	li	a7,0
	sw	zero,0(sp)
	li	a6,3
	li	a5,16
	li	a4,3
	li	a3,3
	li	a2,3
	li	a1,3
	li	a0,3
	call	Sec_Eng_PKA_MMUL
.LVL51:
	.loc 1 267 5
	li	a7,0
	sw	zero,0(sp)
	li	a6,3
	li	a5,14
	li	a4,3
	li	a3,4
	li	a2,3
	li	a1,14
	li	a0,3
	call	Sec_Eng_PKA_MMUL
.LVL52:
	.loc 1 271 5
	li	a7,0
	sw	zero,0(sp)
	li	a6,3
	li	a5,2
	li	a4,3
	li	a3,4
	li	a2,3
	li	a1,4
	li	a0,3
	call	Sec_Eng_PKA_MMUL
.LVL53:
	.loc 1 275 5
	li	a7,0
	sw	zero,0(sp)
	li	a6,3
	li	a5,18
	li	a4,3
	li	a3,15
	li	a2,3
	li	a1,2
	li	a0,3
	call	Sec_Eng_PKA_MMUL
.LVL54:
	.loc 1 279 5
	li	a7,0
	sw	zero,0(sp)
	li	a6,3
	li	a5,18
	li	a4,3
	li	a3,3
	li	a2,3
	li	a1,3
	li	a0,3
	call	Sec_Eng_PKA_MSUB
.LVL55:
	.loc 1 283 5
	li	a7,0
	sw	zero,0(sp)
	li	a6,3
	li	a5,3
	li	a4,3
	li	a3,13
	li	a2,3
	li	a1,3
	li	a0,3
	call	Sec_Eng_PKA_MMUL
.LVL56:
	.loc 1 287 5
	li	a5,1
	sw	a5,0(sp)
	li	a7,0
	li	a6,3
	li	a5,14
	li	a4,3
	li	a3,3
	li	a2,3
	li	a1,3
	li	a0,3
	call	Sec_Eng_PKA_MSUB
.LVL57:
	.loc 1 289 1 is_stmt 0
	lw	ra,28(sp)
	.cfi_restore 1
	addi	sp,sp,32
	.cfi_def_cfa_offset 0
	jr	ra
	.cfi_endproc
.LFE12:
	.size	bflb_ecdsa_point_add, .-bflb_ecdsa_point_add
	.section	.text.bflb_ecdsa_point_double,"ax",@progbits
	.align	1
	.globl	bflb_ecdsa_point_double
	.type	bflb_ecdsa_point_double, @function
bflb_ecdsa_point_double:
.LFB13:
	.loc 1 292 1 is_stmt 1
	.cfi_startproc
.LVL58:
	.loc 1 309 5
	.loc 1 292 1 is_stmt 0
	addi	sp,sp,-32
	.cfi_def_cfa_offset 32
	.loc 1 309 5
	sw	zero,0(sp)
	li	a7,0
	li	a6,3
	li	a5,5
	li	a4,3
	li	a3,5
	li	a2,3
	li	a1,13
	li	a0,3
.LVL59:
	.loc 1 292 1
	sw	ra,28(sp)
	.cfi_offset 1, -4
	.loc 1 309 5
	call	Sec_Eng_PKA_MMUL
.LVL60:
	.loc 1 313 5 is_stmt 1
	li	a7,0
	sw	zero,0(sp)
	li	a6,3
	li	a5,7
	li	a4,3
	li	a3,7
	li	a2,3
	li	a1,14
	li	a0,3
	call	Sec_Eng_PKA_MMUL
.LVL61:
	.loc 1 317 5
	li	a7,0
	sw	zero,0(sp)
	li	a6,3
	li	a5,14
	li	a4,3
	li	a3,13
	li	a2,3
	li	a1,13
	li	a0,3
	call	Sec_Eng_PKA_MSUB
.LVL62:
	.loc 1 321 5
	li	a7,0
	sw	zero,0(sp)
	li	a6,3
	li	a5,13
	li	a4,3
	li	a3,10
	li	a2,3
	li	a1,13
	li	a0,3
	call	Sec_Eng_PKA_MMUL
.LVL63:
	.loc 1 325 5
	li	a7,0
	sw	zero,0(sp)
	li	a6,3
	li	a5,7
	li	a4,3
	li	a3,6
	li	a2,3
	li	a1,14
	li	a0,3
	call	Sec_Eng_PKA_MMUL
.LVL64:
	.loc 1 329 5
	li	a7,0
	sw	zero,0(sp)
	li	a6,3
	li	a5,6
	li	a4,3
	li	a3,5
	li	a2,3
	li	a1,15
	li	a0,3
	call	Sec_Eng_PKA_MMUL
.LVL65:
	.loc 1 333 5
	li	a7,0
	sw	zero,0(sp)
	li	a6,3
	li	a5,13
	li	a4,3
	li	a3,13
	li	a2,3
	li	a1,7
	li	a0,3
	call	Sec_Eng_PKA_MMUL
.LVL66:
	.loc 1 337 5
	li	a7,0
	sw	zero,0(sp)
	li	a6,3
	li	a5,14
	li	a4,3
	li	a3,15
	li	a2,3
	li	a1,15
	li	a0,3
	call	Sec_Eng_PKA_MMUL
.LVL67:
	.loc 1 341 5
	li	a7,0
	sw	zero,0(sp)
	li	a6,3
	li	a5,15
	li	a4,3
	li	a3,12
	li	a2,3
	li	a1,5
	li	a0,3
	call	Sec_Eng_PKA_MMUL
.LVL68:
	.loc 1 345 5
	li	a7,0
	sw	zero,0(sp)
	li	a6,3
	li	a5,5
	li	a4,3
	li	a3,7
	li	a2,3
	li	a1,7
	li	a0,3
	call	Sec_Eng_PKA_MSUB
.LVL69:
	.loc 1 349 5
	li	a7,0
	sw	zero,0(sp)
	li	a6,3
	li	a5,7
	li	a4,3
	li	a3,9
	li	a2,3
	li	a1,5
	li	a0,3
	call	Sec_Eng_PKA_MMUL
.LVL70:
	.loc 1 353 5
	li	a7,0
	sw	zero,0(sp)
	li	a6,3
	li	a5,14
	li	a4,3
	li	a3,5
	li	a2,3
	li	a1,5
	li	a0,3
	call	Sec_Eng_PKA_MMUL
.LVL71:
	.loc 1 357 5
	li	a7,0
	sw	zero,0(sp)
	li	a6,3
	li	a5,15
	li	a4,3
	li	a3,11
	li	a2,3
	li	a1,15
	li	a0,3
	call	Sec_Eng_PKA_MMUL
.LVL72:
	.loc 1 361 5
	li	a7,0
	sw	zero,0(sp)
	li	a6,3
	li	a5,14
	li	a4,3
	li	a3,14
	li	a2,3
	li	a1,16
	li	a0,3
	call	Sec_Eng_PKA_MMUL
.LVL73:
	.loc 1 365 5
	li	a7,0
	sw	zero,0(sp)
	li	a6,3
	li	a5,7
	li	a4,3
	li	a3,15
	li	a2,3
	li	a1,15
	li	a0,3
	call	Sec_Eng_PKA_MSUB
.LVL74:
	.loc 1 369 5
	li	a7,0
	sw	zero,0(sp)
	li	a6,3
	li	a5,6
	li	a4,3
	li	a3,6
	li	a2,3
	li	a1,6
	li	a0,3
	call	Sec_Eng_PKA_MMUL
.LVL75:
	.loc 1 373 5
	li	a7,0
	sw	zero,0(sp)
	li	a6,3
	li	a5,13
	li	a4,3
	li	a3,15
	li	a2,3
	li	a1,15
	li	a0,3
	call	Sec_Eng_PKA_MMUL
.LVL76:
	.loc 1 377 5
	li	a7,0
	sw	zero,0(sp)
	li	a6,3
	li	a5,6
	li	a4,3
	li	a3,12
	li	a2,3
	li	a1,6
	li	a0,3
	call	Sec_Eng_PKA_MMUL
.LVL77:
	.loc 1 381 5
	li	a7,0
	sw	zero,0(sp)
	li	a6,3
	li	a5,16
	li	a4,3
	li	a3,6
	li	a2,3
	li	a1,6
	li	a0,3
	call	Sec_Eng_PKA_MMUL
.LVL78:
	.loc 1 385 5
	li	a7,0
	sw	zero,0(sp)
	li	a6,3
	li	a5,6
	li	a4,3
	li	a3,15
	li	a2,3
	li	a1,6
	li	a0,3
	call	Sec_Eng_PKA_MSUB
.LVL79:
	.loc 1 389 5
	li	a7,0
	sw	zero,0(sp)
	li	a6,3
	li	a5,16
	li	a4,3
	li	a3,14
	li	a2,3
	li	a1,7
	li	a0,3
	call	Sec_Eng_PKA_MMUL
.LVL80:
	.loc 1 393 5
	li	a5,1
	sw	a5,0(sp)
	li	a7,0
	li	a6,3
	li	a5,7
	li	a4,3
	li	a3,12
	li	a2,3
	li	a1,7
	li	a0,3
	call	Sec_Eng_PKA_MMUL
.LVL81:
	.loc 1 395 1 is_stmt 0
	lw	ra,28(sp)
	.cfi_restore 1
	addi	sp,sp,32
	.cfi_def_cfa_offset 0
	jr	ra
	.cfi_endproc
.LFE13:
	.size	bflb_ecdsa_point_double, .-bflb_ecdsa_point_double
	.section	.text.bflb_ecdsa_verify_point_mul,"ax",@progbits
	.align	1
	.globl	bflb_ecdsa_verify_point_mul
	.type	bflb_ecdsa_verify_point_mul, @function
bflb_ecdsa_verify_point_mul:
.LFB14:
	.loc 1 421 1 is_stmt 1
	.cfi_startproc
.LVL82:
	.loc 1 422 5
	.loc 1 423 5
	.loc 1 424 5
	.loc 1 425 5
	.loc 1 421 1 is_stmt 0
	addi	sp,sp,-64
	.cfi_def_cfa_offset 64
	sw	s0,56(sp)
	sw	s3,44(sp)
	sw	s5,36(sp)
	sw	ra,60(sp)
	sw	s1,52(sp)
	sw	s2,48(sp)
	sw	s4,40(sp)
	sw	s6,32(sp)
	sw	s7,28(sp)
	sw	s8,24(sp)
	.cfi_offset 8, -8
	.cfi_offset 19, -20
	.cfi_offset 21, -28
	.cfi_offset 1, -4
	.cfi_offset 9, -12
	.cfi_offset 18, -16
	.cfi_offset 20, -24
	.cfi_offset 22, -32
	.cfi_offset 23, -36
	.cfi_offset 24, -40
	.loc 1 421 1
	mv	s3,a0
	mv	s5,a1
.LVL83:
	.loc 1 426 5 is_stmt 1
	.loc 1 429 5
	.loc 1 430 5
	.loc 1 429 6 is_stmt 0
	li	s0,0
	.loc 1 430 18
	li	a5,31
.LVL84:
.L14:
	.loc 1 430 12
	add	a4,s5,s0
	.loc 1 430 10
	lbu	a4,0(a4)
	beq	a4,zero,.L15
.L18:
.LVL85:
	.loc 1 429 6 discriminator 1
	li	s1,31
	.loc 1 450 21 discriminator 1
	lui	s6,%hi(.LC0)
	.loc 1 437 9 discriminator 1
	li	s7,8
.LVL86:
.L16:
	.loc 1 435 9 is_stmt 1
	.loc 1 435 14 is_stmt 0
	add	a5,s5,s1
	.loc 1 435 12
	lbu	s8,0(a5)
.LVL87:
	.loc 1 436 9 is_stmt 1
	.loc 1 437 9
	.loc 1 437 14 is_stmt 0
	li	s2,0
	.loc 1 438 25
	li	s4,1
.LVL88:
.L24:
	.loc 1 438 13 is_stmt 1
	.loc 1 439 13
	.loc 1 438 25 is_stmt 0
	sll	a5,s4,s2
	.loc 1 438 18
	and	a5,a5,s8
	.loc 1 439 15
	beq	a5,zero,.L19
	.loc 1 440 17 is_stmt 1
	addi	a1,sp,15
	addi	a0,sp,14
	call	bflb_ecdsa_point_add_inf_check
.LVL89:
	.loc 1 441 17
	.loc 1 441 33 is_stmt 0
	lbu	a5,14(sp)
	.loc 1 441 19
	bne	a5,s4,.L20
	.loc 1 441 37 discriminator 1
	lbu	a5,15(sp)
	bne	a5,zero,.L21
	.loc 1 443 21 is_stmt 1
	mv	a0,s3
	call	bflb_ecdsa_copy_x2_to_x1
.LVL90:
.L19:
	.loc 1 464 13 discriminator 2
	mv	a0,s3
	.loc 1 437 22 is_stmt 0 discriminator 2
	addi	s2,s2,1
.LVL91:
	.loc 1 464 13 discriminator 2
	call	bflb_ecdsa_point_double
.LVL92:
	.loc 1 437 9 discriminator 2
	bne	s2,s7,.L24
	.loc 1 469 9 is_stmt 1
	.loc 1 469 11 is_stmt 0
	beq	s1,zero,.L25
	.loc 1 434 16
	addi	s1,s1,-1
.LVL93:
	.loc 1 434 5
	bgeu	s1,s0,.L16
.L25:
	.loc 1 475 12
	li	a0,0
	j	.L13
.LVL94:
.L15:
	.loc 1 430 18 discriminator 1
	beq	s0,a5,.L18
	.loc 1 431 9 is_stmt 1
	.loc 1 431 10 is_stmt 0
	addi	s0,s0,1
.LVL95:
	j	.L14
.LVL96:
.L20:
	.loc 1 448 23 is_stmt 1
	.loc 1 448 25 is_stmt 0
	bne	a5,zero,.L21
	.loc 1 448 60 discriminator 1
	lbu	a5,15(sp)
	.loc 1 448 43 discriminator 1
	bne	a5,s4,.L22
	.loc 1 450 21 is_stmt 1
	addi	a0,s6,%lo(.LC0)
	call	bflb_platform_printf
.LVL97:
	j	.L19
.L22:
	.loc 1 451 23 discriminator 1
	.loc 1 451 43 is_stmt 0 discriminator 1
	bne	a5,zero,.L21
	.loc 1 453 21 is_stmt 1
	mv	a0,s3
	call	bflb_ecdsa_point_add
.LVL98:
	j	.L19
.L21:
	.loc 1 459 21
	lui	a0,%hi(.LC1)
	addi	a0,a0,%lo(.LC1)
	call	bflb_platform_printf
.LVL99:
	.loc 1 460 21
	.loc 1 460 28 is_stmt 0
	li	a0,-1
.LVL100:
.L13:
	.loc 1 476 1
	lw	ra,60(sp)
	.cfi_restore 1
	lw	s0,56(sp)
	.cfi_restore 8
.LVL101:
	lw	s1,52(sp)
	.cfi_restore 9
.LVL102:
	lw	s2,48(sp)
	.cfi_restore 18
.LVL103:
	lw	s3,44(sp)
	.cfi_restore 19
	lw	s4,40(sp)
	.cfi_restore 20
	lw	s5,36(sp)
	.cfi_restore 21
.LVL104:
	lw	s6,32(sp)
	.cfi_restore 22
	lw	s7,28(sp)
	.cfi_restore 23
	lw	s8,24(sp)
	.cfi_restore 24
.LVL105:
	addi	sp,sp,64
	.cfi_def_cfa_offset 0
	jr	ra
	.cfi_endproc
.LFE14:
	.size	bflb_ecdsa_verify_point_mul, .-bflb_ecdsa_verify_point_mul
	.section	.text.bflb_ecdsa_init,"ax",@progbits
	.align	1
	.globl	bflb_ecdsa_init
	.type	bflb_ecdsa_init, @function
bflb_ecdsa_init:
.LFB15:
	.loc 1 479 1 is_stmt 1
	.cfi_startproc
.LVL106:
	.loc 1 480 5
	.loc 1 481 1 is_stmt 0
	li	a0,0
.LVL107:
	ret
	.cfi_endproc
.LFE15:
	.size	bflb_ecdsa_init, .-bflb_ecdsa_init
	.section	.text.bflb_ecdsa_verify,"ax",@progbits
	.align	1
	.globl	bflb_ecdsa_verify
	.type	bflb_ecdsa_verify, @function
bflb_ecdsa_verify:
.LFB16:
	.loc 1 484 1 is_stmt 1
	.cfi_startproc
.LVL108:
	.loc 1 485 5
	.loc 1 486 5
	.loc 1 487 5
	.loc 1 488 5
	.loc 1 489 5
	.loc 1 490 5
	.loc 1 491 5
	.loc 1 484 1 is_stmt 0
	addi	sp,sp,-336
	.cfi_def_cfa_offset 336
	sw	s1,324(sp)
	sw	s6,304(sp)
	.loc 1 491 14
	li	a2,32
.LVL109:
	.cfi_offset 9, -12
	.cfi_offset 22, -32
	.loc 1 484 1
	mv	s1,a0
	mv	s6,a1
	.loc 1 491 14
	addi	a0,sp,224
.LVL110:
	li	a1,0
.LVL111:
	.loc 1 484 1
	sw	ra,332(sp)
	sw	s0,328(sp)
	sw	s2,320(sp)
	sw	s4,312(sp)
	sw	s5,308(sp)
	.cfi_offset 1, -4
	.cfi_offset 8, -8
	.cfi_offset 18, -16
	.cfi_offset 20, -24
	.cfi_offset 21, -28
	mv	s4,a4
	mv	s5,a3
	mv	s0,a5
	mv	s2,a6
	sw	s3,316(sp)
	sw	s7,300(sp)
	.cfi_offset 19, -20
	.cfi_offset 23, -36
	.loc 1 491 14
	call	memset
.LVL112:
	.loc 1 492 5 is_stmt 1
	.loc 1 492 14 is_stmt 0
	li	a2,32
	li	a1,0
	addi	a0,sp,256
	call	memset
.LVL113:
	.loc 1 493 5 is_stmt 1
	.loc 1 493 14 is_stmt 0
	sw	zero,28(sp)
	.loc 1 496 5 is_stmt 1
	.loc 1 496 7 is_stmt 0
	beq	s6,zero,.L34
	.loc 1 496 18 discriminator 1
	beq	s5,zero,.L34
	.loc 1 496 31 discriminator 2
	beq	s4,zero,.L34
	.loc 1 496 44 discriminator 3
	beq	s0,zero,.L34
	.loc 1 496 55 discriminator 4
	beq	s2,zero,.L34
	.loc 1 503 5 is_stmt 1
	li	a4,0
	li	a3,8
	mv	a2,s0
	li	a1,5
	li	a0,3
	call	Sec_Eng_PKA_Write_Data
.LVL114:
	.loc 1 504 5
	lui	a2,%hi(.LANCHOR5)
	li	a4,0
	li	a3,8
	addi	a2,a2,%lo(.LANCHOR5)
	li	a1,8
	li	a0,3
	call	Sec_Eng_PKA_Write_Data
.LVL115:
	.loc 1 506 5
	li	a4,8
	li	a3,3
	li	a2,5
	li	a1,3
	addi	a0,sp,28
	call	Sec_Eng_PKA_LCMP
.LVL116:
	.loc 1 507 5
	.loc 1 507 7 is_stmt 0
	lw	a5,28(sp)
	li	s3,1
	beq	a5,s3,.L34
	.loc 1 510 5 is_stmt 1
	li	a4,0
	li	a3,8
	mv	a2,s2
	li	a1,5
	li	a0,3
	call	Sec_Eng_PKA_Write_Data
.LVL117:
	.loc 1 512 5
	li	a4,8
	li	a3,3
	li	a2,5
	li	a1,3
	addi	a0,sp,28
	call	Sec_Eng_PKA_LCMP
.LVL118:
	.loc 1 513 5
	.loc 1 513 7 is_stmt 0
	lw	a5,28(sp)
	beq	a5,s3,.L34
	.loc 1 517 5 is_stmt 1
	mv	a0,s1
	call	bflb_ecc_basic_parameter_init
.LVL119:
	.loc 1 520 5
	li	a4,0
	li	a3,8
	mv	a2,s0
	li	a1,5
	li	a0,3
	call	Sec_Eng_PKA_Write_Data
.LVL120:
	.loc 1 522 5
	li	a4,0
	li	a3,3
	li	a2,5
	li	a1,3
	addi	a0,sp,28
	call	Sec_Eng_PKA_LCMP
.LVL121:
	.loc 1 523 5
	.loc 1 523 7 is_stmt 0
	lw	s7,28(sp)
	bne	s7,s3,.L34
	.loc 1 526 5 is_stmt 1
	li	a4,0
	li	a3,8
	mv	a2,s2
	li	a1,5
	li	a0,3
	call	Sec_Eng_PKA_Write_Data
.LVL122:
	.loc 1 528 5
	li	a4,0
	li	a3,3
	li	a2,5
	li	a1,3
	addi	a0,sp,28
	call	Sec_Eng_PKA_LCMP
.LVL123:
	.loc 1 529 5
	.loc 1 529 7 is_stmt 0
	lw	a5,28(sp)
	bne	a5,s7,.L34
	.loc 1 537 5 is_stmt 1
	li	a4,0
	mv	a2,s2
	li	a3,8
	li	a1,5
	li	a0,3
	call	Sec_Eng_PKA_Write_Data
.LVL124:
	.loc 1 540 5
	li	a3,1
	li	a2,8
	li	a1,13
	li	a0,3
	call	Sec_Eng_PKA_CREG
.LVL125:
	.loc 1 541 5
	li	a3,1
	li	a2,8
	li	a1,14
	li	a0,3
	call	Sec_Eng_PKA_CREG
.LVL126:
	.loc 1 542 5
	li	a7,3
	li	a6,7
	li	a5,4
	li	a4,256
	li	a3,5
	li	a2,3
	li	a1,5
	li	a0,3
	sw	zero,0(sp)
	call	Sec_Eng_PKA_GF2Mont
.LVL127:
	.loc 1 551 5
	li	a6,1
	li	a5,0
	li	a4,3
	li	a3,5
	li	a2,3
	li	a1,6
	li	a0,3
	call	Sec_Eng_PKA_MINV
.LVL128:
	.loc 1 561 5
	li	s2,3
.LVL129:
	li	a7,7
	li	a6,4
	li	a5,2
	li	a4,3
	li	a3,6
	li	a2,3
	li	a1,5
	li	a0,3
	sw	zero,4(sp)
	sw	s2,0(sp)
	call	Sec_Eng_PKA_Mont2GF
.LVL130:
	.loc 1 571 5
	mv	a2,s6
	li	a4,0
	li	a3,8
	li	a1,6
	li	a0,3
	call	Sec_Eng_PKA_Write_Data
.LVL131:
	.loc 1 572 5
	li	a6,0
	li	a5,5
	li	a4,3
	li	a3,6
	li	a2,3
	li	a1,7
	li	a0,4
	call	Sec_Eng_PKA_LMUL
.LVL132:
	.loc 1 574 5
	li	a6,1
	li	a5,0
	li	a4,3
	li	a3,7
	li	a2,4
	li	a1,7
	li	a0,3
	call	Sec_Eng_PKA_MREM
.LVL133:
	.loc 1 576 5
	li	a3,8
	addi	a2,sp,224
	li	a1,7
	li	a0,3
	call	Sec_Eng_PKA_Read_Data
.LVL134:
	.loc 1 585 5
	li	a4,0
	li	a3,8
	mv	a2,s0
	li	a1,6
	li	a0,3
	call	Sec_Eng_PKA_Write_Data
.LVL135:
	.loc 1 586 5
	li	a6,0
	li	a5,5
	li	a4,3
	li	a3,6
	li	a2,3
	li	a1,7
	li	a0,4
	call	Sec_Eng_PKA_LMUL
.LVL136:
	.loc 1 588 5
	li	a6,1
	li	a5,0
	li	a4,3
	li	a3,7
	li	a2,4
	li	a1,7
	li	a0,3
	call	Sec_Eng_PKA_MREM
.LVL137:
	.loc 1 590 5
	li	a3,8
	addi	a2,sp,256
	li	a1,7
	li	a0,3
	call	Sec_Eng_PKA_Read_Data
.LVL138:
	.loc 1 600 5
	li	a3,1
	li	a2,8
	li	a1,7
	li	a0,4
	call	Sec_Eng_PKA_CREG
.LVL139:
	.loc 1 602 5
	mv	a0,s1
	call	bflb_ecc_point_mul_init
.LVL140:
	.loc 1 606 5
	lui	s6,%hi(.LANCHOR12)
.LVL141:
	li	a4,0
	li	a3,8
	addi	a2,s6,%lo(.LANCHOR12)
	li	a1,2
	li	a0,3
	call	Sec_Eng_PKA_Write_Data
.LVL142:
	.loc 1 609 5
	lui	s3,%hi(.LANCHOR13)
	li	a4,0
	li	a3,8
	addi	a2,s3,%lo(.LANCHOR13)
	li	a1,3
	li	a0,3
	call	Sec_Eng_PKA_Write_Data
.LVL143:
	.loc 1 613 5
	li	a4,1
	li	a3,2
	li	a2,3
	li	a1,4
	li	a0,3
	call	Sec_Eng_PKA_Move_Data
.LVL144:
	.loc 1 617 5
	lui	a2,%hi(.LANCHOR14)
	li	a4,0
	li	a3,8
	addi	a2,a2,%lo(.LANCHOR14)
	li	a1,5
	li	a0,3
	call	Sec_Eng_PKA_Write_Data
.LVL145:
	.loc 1 620 5
	lui	a2,%hi(.LANCHOR15)
	li	a4,0
	li	a3,8
	addi	a2,a2,%lo(.LANCHOR15)
	li	a1,6
	li	a0,3
	call	Sec_Eng_PKA_Write_Data
.LVL146:
	.loc 1 624 5
	li	a4,1
	li	a3,3
	li	a2,3
	li	a1,7
	li	a0,3
	call	Sec_Eng_PKA_Move_Data
.LVL147:
	.loc 1 626 5
	addi	a1,sp,224
	mv	a0,s1
	call	bflb_ecdsa_verify_point_mul
.LVL148:
	.loc 1 628 5
	li	a3,8
	addi	a2,sp,32
	li	a1,2
	li	a0,3
	call	Sec_Eng_PKA_Read_Data
.LVL149:
	.loc 1 633 5
	li	a3,8
	addi	a2,sp,64
	li	a1,3
	li	a0,3
	call	Sec_Eng_PKA_Read_Data
.LVL150:
	.loc 1 638 5
	li	a3,8
	addi	a2,sp,96
	li	a1,4
	li	a0,3
	call	Sec_Eng_PKA_Read_Data
.LVL151:
	.loc 1 647 5
	li	a4,0
	li	a3,8
	addi	a2,s6,%lo(.LANCHOR12)
	li	a1,2
	li	a0,3
	call	Sec_Eng_PKA_Write_Data
.LVL152:
	.loc 1 650 5
	li	a4,0
	li	a3,8
	addi	a2,s3,%lo(.LANCHOR13)
	li	a1,3
	li	a0,3
	call	Sec_Eng_PKA_Write_Data
.LVL153:
	.loc 1 654 5
	li	a4,1
	li	a3,2
	li	a2,3
	li	a1,4
	li	a0,3
	call	Sec_Eng_PKA_Move_Data
.LVL154:
	.loc 1 658 5
	li	a4,0
	li	a3,8
	mv	a2,s5
	li	a1,5
	li	a0,3
	call	Sec_Eng_PKA_Write_Data
.LVL155:
	.loc 1 663 5
	li	a3,1
	li	a2,8
	li	a1,13
	li	a0,3
	call	Sec_Eng_PKA_CREG
.LVL156:
	.loc 1 664 5
	li	a3,1
	li	a2,8
	li	a1,14
	li	a0,3
	call	Sec_Eng_PKA_CREG
.LVL157:
	.loc 1 665 5
	li	a7,3
	li	a6,7
	li	a5,4
	li	a4,256
	li	a3,5
	li	a2,3
	li	a1,5
	li	a0,3
	sw	zero,0(sp)
	call	Sec_Eng_PKA_GF2Mont
.LVL158:
	.loc 1 675 5
	li	a4,0
	li	a3,8
	mv	a2,s4
	li	a1,6
	li	a0,3
	call	Sec_Eng_PKA_Write_Data
.LVL159:
	.loc 1 678 5
	li	a3,1
	li	a2,8
	li	a1,13
	li	a0,3
	call	Sec_Eng_PKA_CREG
.LVL160:
	.loc 1 679 5
	li	a3,1
	li	a2,8
	li	a1,14
	li	a0,3
	call	Sec_Eng_PKA_CREG
.LVL161:
	.loc 1 680 5
	li	a7,3
	li	a6,7
	li	a5,4
	li	a4,256
	li	a3,6
	li	a2,3
	li	a1,6
	li	a0,3
	sw	zero,0(sp)
	call	Sec_Eng_PKA_GF2Mont
.LVL162:
	.loc 1 691 5
	li	a4,1
	li	a3,3
	li	a2,3
	li	a1,7
	li	a0,3
	call	Sec_Eng_PKA_Move_Data
.LVL163:
	.loc 1 694 5
	li	a3,1
	li	a2,8
	li	a1,7
	li	a0,4
	call	Sec_Eng_PKA_CREG
.LVL164:
	.loc 1 696 6
	addi	a1,sp,256
	mv	a0,s1
	call	bflb_ecdsa_verify_point_mul
.LVL165:
	.loc 1 698 5
	li	a3,8
	addi	a2,sp,128
	li	a1,2
	li	a0,3
	call	Sec_Eng_PKA_Read_Data
.LVL166:
	.loc 1 703 5
	li	a3,8
	addi	a2,sp,160
	li	a1,3
	li	a0,3
	call	Sec_Eng_PKA_Read_Data
.LVL167:
	.loc 1 708 5
	li	a3,8
	addi	a2,sp,192
	li	a1,4
	li	a0,3
	call	Sec_Eng_PKA_Read_Data
.LVL168:
	.loc 1 717 5
	li	a4,0
	li	a3,2
	li	a2,3
	li	a1,5
	li	a0,3
	call	Sec_Eng_PKA_Move_Data
.LVL169:
	.loc 1 720 5
	li	a4,0
	li	a3,3
	li	a2,3
	li	a1,6
	li	a0,3
	call	Sec_Eng_PKA_Move_Data
.LVL170:
	.loc 1 723 5
	li	a4,1
	li	a3,4
	li	a2,3
	li	a1,7
	li	a0,3
	call	Sec_Eng_PKA_Move_Data
.LVL171:
	.loc 1 727 5
	li	a4,0
	li	a3,8
	addi	a2,sp,32
	li	a1,2
	li	a0,3
	call	Sec_Eng_PKA_Write_Data
.LVL172:
	.loc 1 730 5
	li	a4,0
	li	a3,8
	addi	a2,sp,64
	li	a1,3
	li	a0,3
	call	Sec_Eng_PKA_Write_Data
.LVL173:
	.loc 1 733 5
	li	a4,0
	li	a3,8
	addi	a2,sp,96
	li	a1,4
	li	a0,3
	call	Sec_Eng_PKA_Write_Data
.LVL174:
	.loc 1 737 5
	mv	a0,s1
	call	bflb_ecdsa_point_add
.LVL175:
	.loc 1 742 5
	li	a6,1
	li	a5,0
	li	a4,3
	li	a3,4
	li	a2,3
	li	a1,5
	li	a0,3
	call	Sec_Eng_PKA_MINV
.LVL176:
	.loc 1 745 5
	lui	a2,%hi(.LANCHOR16)
	li	a4,0
	li	a3,8
	addi	a2,a2,%lo(.LANCHOR16)
	li	a1,6
	li	a0,3
	call	Sec_Eng_PKA_Write_Data
.LVL177:
	.loc 1 747 5
	li	a3,1
	li	a2,8
	li	a1,13
	li	a0,3
	call	Sec_Eng_PKA_CREG
.LVL178:
	.loc 1 748 5
	li	a3,1
	li	a2,8
	li	a1,14
	li	a0,3
	call	Sec_Eng_PKA_CREG
.LVL179:
	.loc 1 750 5
	li	a7,7
	li	a6,4
	li	a5,6
	li	a4,3
	li	a3,5
	li	a2,3
	li	a1,5
	li	a0,3
	sw	zero,4(sp)
	sw	s2,0(sp)
	call	Sec_Eng_PKA_Mont2GF
.LVL180:
	.loc 1 755 5
	li	a7,7
	li	a6,4
	li	a5,6
	li	a4,3
	li	a3,2
	li	a2,3
	li	a1,6
	li	a0,3
	sw	zero,4(sp)
	sw	s2,0(sp)
	call	Sec_Eng_PKA_Mont2GF
.LVL181:
	.loc 1 760 5
	li	a5,6
	li	a4,3
	li	a7,7
	li	a6,4
	li	a3,5
	li	a2,3
	li	a1,2
	li	a0,3
	sw	zero,4(sp)
	sw	s2,0(sp)
	call	Sec_Eng_PKA_Mont2GF
.LVL182:
	.loc 1 762 5
	li	a3,8
	addi	a2,sp,128
	li	a1,2
	li	a0,3
	call	Sec_Eng_PKA_Read_Data
.LVL183:
	.loc 1 770 5
	.loc 1 770 10 is_stmt 0
	li	a5,0
	sw	zero,28(sp)
	.loc 1 770 5
	li	a4,32
.L37:
	.loc 1 771 9 is_stmt 1
	.loc 1 771 20 is_stmt 0
	addi	a3,sp,128
	add	a3,a3,a5
	addi	a5,a5,4
	lw	a2,0(a3)
	.loc 1 771 23
	add	a3,s0,a5
	.loc 1 771 11
	lw	a3,-4(a3)
	beq	a2,a3,.L35
.L34:
	.loc 1 772 20
	li	a0,-1
.L33:
	.loc 1 779 1
	lw	ra,332(sp)
	.cfi_remember_state
	.cfi_restore 1
	lw	s0,328(sp)
	.cfi_restore 8
.LVL184:
	lw	s1,324(sp)
	.cfi_restore 9
	lw	s2,320(sp)
	.cfi_restore 18
	lw	s3,316(sp)
	.cfi_restore 19
	lw	s4,312(sp)
	.cfi_restore 20
.LVL185:
	lw	s5,308(sp)
	.cfi_restore 21
.LVL186:
	lw	s6,304(sp)
	.cfi_restore 22
	lw	s7,300(sp)
	.cfi_restore 23
	addi	sp,sp,336
	.cfi_def_cfa_offset 0
	jr	ra
.LVL187:
.L35:
	.cfi_restore_state
	.loc 1 770 5 discriminator 1
	bne	a5,a4,.L37
	.loc 1 778 12
	li	a0,0
	j	.L33
	.cfi_endproc
.LFE16:
	.size	bflb_ecdsa_verify, .-bflb_ecdsa_verify
	.section	.text.bflb_ecdsa_deinit,"ax",@progbits
	.align	1
	.globl	bflb_ecdsa_deinit
	.type	bflb_ecdsa_deinit, @function
bflb_ecdsa_deinit:
.LFB25:
	.cfi_startproc
	li	a0,0
	ret
	.cfi_endproc
.LFE25:
	.size	bflb_ecdsa_deinit, .-bflb_ecdsa_deinit
	.section	.text.bflb_ecc_is_zero,"ax",@progbits
	.align	1
	.globl	bflb_ecc_is_zero
	.type	bflb_ecc_is_zero, @function
bflb_ecc_is_zero:
.LFB18:
	.loc 1 787 1 is_stmt 1
	.cfi_startproc
.LVL188:
	.loc 1 788 5
	.loc 1 789 5
	.loc 1 789 10 is_stmt 0
	li	a5,0
.LVL189:
.L57:
	.loc 1 789 5 discriminator 1
	bne	a5,a1,.L59
	.loc 1 794 12
	li	a0,1
.LVL190:
	ret
.LVL191:
.L59:
	.loc 1 790 9 is_stmt 1
	.loc 1 790 13 is_stmt 0
	add	a4,a0,a5
	.loc 1 790 11
	lbu	a4,0(a4)
	bne	a4,zero,.L60
	.loc 1 789 20 discriminator 2
	addi	a5,a5,1
.LVL192:
	j	.L57
.L60:
	.loc 1 791 20
	li	a0,0
.LVL193:
	.loc 1 795 1
	ret
	.cfi_endproc
.LFE18:
	.size	bflb_ecc_is_zero, .-bflb_ecc_is_zero
	.section	.text.bflb_ecc_cmp,"ax",@progbits
	.align	1
	.globl	bflb_ecc_cmp
	.type	bflb_ecc_cmp, @function
bflb_ecc_cmp:
.LFB19:
	.loc 1 798 1 is_stmt 1
	.cfi_startproc
.LVL194:
	.loc 1 799 5
	.loc 1 801 5
	.loc 1 801 10 is_stmt 0
	li	a5,0
.LVL195:
.L62:
	.loc 1 801 5 discriminator 1
	bne	a5,a2,.L64
.L63:
	li	a4,0
.LVL196:
.L65:
	.loc 1 806 5 discriminator 1
	bne	a4,a2,.L67
	.loc 1 811 5 is_stmt 1
	.loc 1 812 15 is_stmt 0
	li	a3,0
	.loc 1 811 7
	beq	a4,a5,.L61
.L66:
	.loc 1 815 4 is_stmt 1
	.loc 1 815 22 is_stmt 0
	li	a3,-1
	.loc 1 815 6
	bgtu	a5,a4,.L61
	.loc 1 816 4 is_stmt 1
	.loc 1 816 22 is_stmt 0
	li	a3,1
	.loc 1 816 6
	bgeu	a5,a4,.L69
.LVL197:
.L61:
	.loc 1 825 1
	mv	a0,a3
.LVL198:
	ret
.LVL199:
.L64:
	.loc 1 802 9 is_stmt 1
	.loc 1 802 13 is_stmt 0
	add	a4,a0,a5
	.loc 1 802 11
	lbu	a4,0(a4)
	bne	a4,zero,.L63
	.loc 1 801 20 discriminator 2
	addi	a5,a5,1
.LVL200:
	j	.L62
.LVL201:
.L67:
	.loc 1 807 9 is_stmt 1
	.loc 1 807 13 is_stmt 0
	add	a3,a1,a4
	.loc 1 807 11
	lbu	a3,0(a3)
	bne	a3,zero,.L66
	.loc 1 806 20 discriminator 2
	addi	a4,a4,1
.LVL202:
	j	.L65
.LVL203:
.L70:
	.loc 1 820 8 is_stmt 1
	.loc 1 820 13 is_stmt 0
	add	a4,a0,a5
	lbu	a3,0(a4)
	.loc 1 820 20
	add	a4,a1,a5
	lbu	a4,0(a4)
	.loc 1 820 10
	bgtu	a3,a4,.L74
	.loc 1 821 8 is_stmt 1
	.loc 1 821 10 is_stmt 0
	bltu	a3,a4,.L75
	.loc 1 818 20
	addi	a5,a5,1
.LVL204:
.L69:
	.loc 1 818 4 discriminator 1
	bltu	a5,a2,.L70
	.loc 1 812 15
	li	a3,0
	j	.L61
.L74:
	.loc 1 816 22
	li	a3,1
	j	.L61
.L75:
	.loc 1 815 22
	li	a3,-1
	j	.L61
	.cfi_endproc
.LFE19:
	.size	bflb_ecc_cmp, .-bflb_ecc_cmp
	.section	.text.bflb_ecc_get_random_value,"ax",@progbits
	.align	1
	.globl	bflb_ecc_get_random_value
	.type	bflb_ecc_get_random_value, @function
bflb_ecc_get_random_value:
.LFB20:
	.loc 1 828 1 is_stmt 1
	.cfi_startproc
.LVL205:
	.loc 1 829 5
	.loc 1 830 5
	.loc 1 832 5
	.loc 1 828 1 is_stmt 0
	addi	sp,sp,-32
	.cfi_def_cfa_offset 32
	sw	s0,24(sp)
	sw	s1,20(sp)
	sw	s2,16(sp)
	sw	s3,12(sp)
	sw	ra,28(sp)
	.cfi_offset 8, -8
	.cfi_offset 9, -12
	.cfi_offset 18, -16
	.cfi_offset 19, -20
	.cfi_offset 1, -4
	.loc 1 828 1
	mv	s1,a0
	mv	s2,a1
	mv	s3,a2
	.loc 1 832 10
	li	s0,101
.LVL206:
.L77:
	addi	s0,s0,-1
.LVL207:
	beq	s0,zero,.L81
.LVL208:
	.loc 1 833 9 is_stmt 1
	.loc 1 833 13 is_stmt 0
	mv	a1,s3
	mv	a0,s1
	call	bflb_platform_get_random
.LVL209:
	.loc 1 834 9 is_stmt 1
	.loc 1 834 11 is_stmt 0
	bge	a0,zero,.L78
.LVL210:
.L81:
	.loc 1 835 20
	li	a0,-1
.L76:
	.loc 1 846 1
	lw	ra,28(sp)
	.cfi_remember_state
	.cfi_restore 1
	lw	s0,24(sp)
	.cfi_restore 8
	lw	s1,20(sp)
	.cfi_restore 9
.LVL211:
	lw	s2,16(sp)
	.cfi_restore 18
.LVL212:
	lw	s3,12(sp)
	.cfi_restore 19
.LVL213:
	addi	sp,sp,32
	.cfi_def_cfa_offset 0
	jr	ra
.LVL214:
.L78:
	.cfi_restore_state
	.loc 1 837 9 is_stmt 1
	.loc 1 837 11 is_stmt 0
	beq	s2,zero,.L83
	.loc 1 838 13 is_stmt 1
	.loc 1 838 16 is_stmt 0
	mv	a2,s3
	mv	a1,s1
	mv	a0,s2
.LVL215:
	call	bflb_ecc_cmp
.LVL216:
	.loc 1 838 15
	ble	a0,zero,.L77
.L83:
	.loc 1 842 20
	li	a0,0
	j	.L76
	.cfi_endproc
.LFE20:
	.size	bflb_ecc_get_random_value, .-bflb_ecc_get_random_value
	.section	.text.bflb_ecdh_get_public_key,"ax",@progbits
	.align	1
	.globl	bflb_ecdh_get_public_key
	.type	bflb_ecdh_get_public_key, @function
bflb_ecdh_get_public_key:
.LFB21:
	.loc 1 851 1 is_stmt 1
	.cfi_startproc
.LVL217:
	.loc 1 857 5
	.loc 1 857 7 is_stmt 0
	beq	a3,zero,.L89
	.loc 1 851 1
	addi	sp,sp,-48
	.cfi_def_cfa_offset 48
	sw	ra,44(sp)
	sw	s0,40(sp)
	sw	s1,36(sp)
	sw	s2,32(sp)
	.cfi_offset 1, -4
	.cfi_offset 8, -8
	.cfi_offset 9, -12
	.cfi_offset 18, -16
	mv	s1,a5
	mv	s2,a4
	sw	s3,28(sp)
	sw	s4,24(sp)
	sw	s5,20(sp)
	.cfi_offset 19, -20
	.cfi_offset 20, -24
	.cfi_offset 21, -28
	mv	s0,a0
	mv	s5,a3
	mv	s4,a2
	mv	s3,a1
	.loc 1 861 5 is_stmt 1
	call	bflb_ecc_basic_parameter_init
.LVL218:
	.loc 1 865 5
	li	a3,1
	li	a2,8
	li	a1,7
	li	a0,4
	call	Sec_Eng_PKA_CREG
.LVL219:
	.loc 1 867 5
	mv	a0,s0
	call	bflb_ecc_point_mul_init
.LVL220:
	.loc 1 871 5
	lui	a2,%hi(.LANCHOR12)
	li	a4,0
	li	a3,8
	addi	a2,a2,%lo(.LANCHOR12)
	li	a1,2
	li	a0,3
	call	Sec_Eng_PKA_Write_Data
.LVL221:
	.loc 1 874 5
	lui	a2,%hi(.LANCHOR13)
	li	a4,0
	li	a3,8
	addi	a2,a2,%lo(.LANCHOR13)
	li	a1,3
	li	a0,3
	call	Sec_Eng_PKA_Write_Data
.LVL222:
	.loc 1 878 5
	li	a4,1
	li	a3,2
	li	a2,3
	li	a1,4
	li	a0,3
	call	Sec_Eng_PKA_Move_Data
.LVL223:
	.loc 1 880 5
	.loc 1 883 8 is_stmt 0
	li	a4,0
	li	a3,8
	.loc 1 880 7
	bne	s3,zero,.L87
	.loc 1 883 8 is_stmt 1
	lui	a2,%hi(.LANCHOR14)
	addi	a2,a2,%lo(.LANCHOR14)
	li	a1,5
	li	a0,3
	call	Sec_Eng_PKA_Write_Data
.LVL224:
	.loc 1 886 8
	lui	a2,%hi(.LANCHOR15)
	li	a4,0
	li	a3,8
	addi	a2,a2,%lo(.LANCHOR15)
	li	a1,6
	li	a0,3
	call	Sec_Eng_PKA_Write_Data
.LVL225:
.L88:
	.loc 1 925 5
	li	a4,1
	li	a3,3
	li	a2,3
	li	a1,7
	li	a0,3
	call	Sec_Eng_PKA_Move_Data
.LVL226:
	.loc 1 927 5
	li	a3,1
	li	a2,8
	li	a1,7
	li	a0,4
	call	Sec_Eng_PKA_CREG
.LVL227:
	.loc 1 929 5
	mv	a1,s5
	mv	a0,s0
	call	bflb_ecdsa_verify_point_mul
.LVL228:
	.loc 1 931 5
	mv	a2,s2
	li	a3,8
	li	a1,2
	li	a0,3
	call	Sec_Eng_PKA_Read_Data
.LVL229:
	.loc 1 936 5
	mv	a2,s1
	li	a3,8
	li	a1,3
	li	a0,3
	call	Sec_Eng_PKA_Read_Data
.LVL230:
	.loc 1 949 5
	li	a6,1
	li	a5,0
	li	a4,3
	li	a3,4
	li	a2,3
	li	a1,5
	li	a0,3
	call	Sec_Eng_PKA_MINV
.LVL231:
	.loc 1 952 5
	lui	s4,%hi(.LANCHOR16)
.LVL232:
	li	a4,0
	addi	a2,s4,%lo(.LANCHOR16)
	li	a3,8
	li	a1,6
	li	a0,3
	call	Sec_Eng_PKA_Write_Data
.LVL233:
	.loc 1 954 5
	li	a3,1
	li	a2,8
	li	a1,13
	li	a0,3
	call	Sec_Eng_PKA_CREG
.LVL234:
	.loc 1 955 5
	li	a3,1
	li	a2,8
	li	a1,14
	li	a0,3
	call	Sec_Eng_PKA_CREG
.LVL235:
	.loc 1 957 5
	li	s0,3
	sw	s0,0(sp)
	sw	zero,4(sp)
	li	a7,7
	li	a6,4
	li	a5,6
	li	a4,3
	li	a3,5
	li	a2,3
	li	a1,5
	li	a0,3
	call	Sec_Eng_PKA_Mont2GF
.LVL236:
	.loc 1 962 5
	li	a7,7
	sw	s0,0(sp)
	sw	zero,4(sp)
	li	a6,4
	li	a5,6
	li	a4,3
	li	a3,2
	li	a2,3
	li	a1,6
	li	a0,3
	call	Sec_Eng_PKA_Mont2GF
.LVL237:
	.loc 1 967 5
	li	a7,7
	li	a6,4
	li	a5,6
	sw	s0,0(sp)
	li	a4,3
	sw	zero,4(sp)
	li	a3,5
	li	a2,3
	li	a1,2
	li	a0,3
	call	Sec_Eng_PKA_Mont2GF
.LVL238:
	.loc 1 969 5
	mv	a2,s2
	li	a3,8
	li	a1,2
	li	a0,3
	call	Sec_Eng_PKA_Read_Data
.LVL239:
	.loc 1 974 5
	lui	s3,%hi(.LANCHOR0)
.LVL240:
	addi	a2,s3,%lo(.LANCHOR0)
	li	a4,0
	li	a3,8
	li	a1,0
	li	a0,3
	call	Sec_Eng_PKA_Write_Data
.LVL241:
	.loc 1 975 5
	li	a6,1
	li	a5,0
	li	a4,3
	li	a3,2
	li	a2,3
	li	a1,2
	li	a0,3
	call	Sec_Eng_PKA_MREM
.LVL242:
	.loc 1 977 5
	mv	a2,s2
	li	a3,8
	li	a1,2
	li	a0,3
	call	Sec_Eng_PKA_Read_Data
.LVL243:
	.loc 1 984 5
	lui	a2,%hi(.LANCHOR3)
	li	a4,0
	li	a3,8
	addi	a2,a2,%lo(.LANCHOR3)
	li	a1,0
	li	a0,3
	call	Sec_Eng_PKA_Write_Data
.LVL244:
	.loc 1 987 5
	li	a6,1
	li	a5,0
	li	a4,3
	li	a3,4
	li	a2,3
	li	a1,5
	li	a0,3
	call	Sec_Eng_PKA_MINV
.LVL245:
	.loc 1 990 5
	li	a4,0
	addi	a2,s4,%lo(.LANCHOR16)
	li	a3,8
	li	a1,6
	li	a0,3
	call	Sec_Eng_PKA_Write_Data
.LVL246:
	.loc 1 992 5
	li	a3,1
	li	a2,8
	li	a1,13
	li	a0,3
	call	Sec_Eng_PKA_CREG
.LVL247:
	.loc 1 993 5
	li	a3,1
	li	a2,8
	li	a1,14
	li	a0,3
	call	Sec_Eng_PKA_CREG
.LVL248:
	.loc 1 995 5
	li	a7,7
	sw	s0,0(sp)
	sw	zero,4(sp)
	li	a6,4
	li	a5,6
	li	a4,3
	li	a3,5
	li	a2,3
	li	a1,5
	li	a0,3
	call	Sec_Eng_PKA_Mont2GF
.LVL249:
	.loc 1 999 5
	li	a7,7
	sw	s0,0(sp)
	sw	zero,4(sp)
	li	a6,4
	li	a5,6
	li	a4,3
	li	a3,3
	li	a2,3
	li	a1,6
	li	a0,3
	call	Sec_Eng_PKA_Mont2GF
.LVL250:
	.loc 1 1004 5
	li	a7,7
	li	a6,4
	li	a5,6
	sw	s0,0(sp)
	li	a4,3
	sw	zero,4(sp)
	li	a3,5
	li	a2,3
	li	a1,3
	li	a0,3
	call	Sec_Eng_PKA_Mont2GF
.LVL251:
	.loc 1 1006 5
	mv	a2,s1
	li	a3,8
	li	a1,3
	li	a0,3
	call	Sec_Eng_PKA_Read_Data
.LVL252:
	.loc 1 1011 5
	addi	a2,s3,%lo(.LANCHOR0)
	li	a4,0
	li	a3,8
	li	a1,0
	li	a0,3
	call	Sec_Eng_PKA_Write_Data
.LVL253:
	.loc 1 1012 5
	li	a6,1
	li	a5,0
	li	a4,3
	li	a3,3
	li	a2,3
	li	a1,3
	li	a0,3
	call	Sec_Eng_PKA_MREM
.LVL254:
	.loc 1 1014 5
	mv	a2,s1
	li	a0,3
	li	a3,8
	li	a1,3
	call	Sec_Eng_PKA_Read_Data
.LVL255:
	.loc 1 1019 5
	.loc 1 1020 1 is_stmt 0
	lw	ra,44(sp)
	.cfi_remember_state
	.cfi_restore 1
	lw	s0,40(sp)
	.cfi_restore 8
	lw	s1,36(sp)
	.cfi_restore 9
.LVL256:
	lw	s2,32(sp)
	.cfi_restore 18
.LVL257:
	lw	s3,28(sp)
	.cfi_restore 19
	lw	s4,24(sp)
	.cfi_restore 20
	lw	s5,20(sp)
	.cfi_restore 21
.LVL258:
	.loc 1 1019 12
	li	a0,0
	.loc 1 1020 1
	addi	sp,sp,48
	.cfi_def_cfa_offset 0
	jr	ra
.LVL259:
.L87:
	.cfi_restore_state
	.loc 1 891 8 is_stmt 1
	mv	a2,s3
	li	a1,5
	li	a0,3
	call	Sec_Eng_PKA_Write_Data
.LVL260:
	.loc 1 896 8
	li	a3,1
	li	a2,8
	li	a1,13
	li	a0,3
	call	Sec_Eng_PKA_CREG
.LVL261:
	.loc 1 897 8
	li	a3,1
	li	a2,8
	li	a1,14
	li	a0,3
	call	Sec_Eng_PKA_CREG
.LVL262:
	.loc 1 898 8
	li	a7,3
	li	a6,7
	li	a5,4
	sw	zero,0(sp)
	li	a4,256
	li	a3,5
	li	a2,3
	li	a1,5
	li	a0,3
	call	Sec_Eng_PKA_GF2Mont
.LVL263:
	.loc 1 908 8
	li	a4,0
	mv	a2,s4
	li	a3,8
	li	a1,6
	li	a0,3
	call	Sec_Eng_PKA_Write_Data
.LVL264:
	.loc 1 911 8
	li	a3,1
	li	a2,8
	li	a1,13
	li	a0,3
	call	Sec_Eng_PKA_CREG
.LVL265:
	.loc 1 912 8
	li	a3,1
	li	a2,8
	li	a1,14
	li	a0,3
	call	Sec_Eng_PKA_CREG
.LVL266:
	.loc 1 913 8
	li	a7,3
	sw	zero,0(sp)
	li	a6,7
	li	a5,4
	li	a4,256
	li	a3,6
	li	a2,3
	li	a1,6
	li	a0,3
	call	Sec_Eng_PKA_GF2Mont
.LVL267:
	j	.L88
.LVL268:
.L89:
	.cfi_def_cfa_offset 0
	.cfi_restore 1
	.cfi_restore 8
	.cfi_restore 9
	.cfi_restore 18
	.cfi_restore 19
	.cfi_restore 20
	.cfi_restore 21
	.loc 1 858 16 is_stmt 0
	li	a0,-1
.LVL269:
	.loc 1 1020 1
	ret
	.cfi_endproc
.LFE21:
	.size	bflb_ecdh_get_public_key, .-bflb_ecdh_get_public_key
	.section	.text.bflb_ecdsa_get_private_key,"ax",@progbits
	.align	1
	.globl	bflb_ecdsa_get_private_key
	.type	bflb_ecdsa_get_private_key, @function
bflb_ecdsa_get_private_key:
.LFB22:
	.loc 1 1023 1 is_stmt 1
	.cfi_startproc
.LVL270:
	.loc 1 1024 2
	.loc 1 1023 1 is_stmt 0
	mv	a0,a1
.LVL271:
	.loc 1 1024 5
	lui	a1,%hi(.LANCHOR0)
.LVL272:
	.loc 1 1023 1
	addi	sp,sp,-16
	.cfi_def_cfa_offset 16
	.loc 1 1024 5
	li	a2,32
	addi	a1,a1,%lo(.LANCHOR0)
	.loc 1 1023 1
	sw	ra,12(sp)
	.cfi_offset 1, -4
	.loc 1 1024 5
	call	bflb_ecc_get_random_value
.LVL273:
	.loc 1 1028 1
	lw	ra,12(sp)
	.cfi_restore 1
	srai	a0,a0,31
	addi	sp,sp,16
	.cfi_def_cfa_offset 0
	jr	ra
	.cfi_endproc
.LFE22:
	.size	bflb_ecdsa_get_private_key, .-bflb_ecdsa_get_private_key
	.section	.text.bflb_ecdsa_sign,"ax",@progbits
	.align	1
	.globl	bflb_ecdsa_sign
	.type	bflb_ecdsa_sign, @function
bflb_ecdsa_sign:
.LFB23:
	.loc 1 1031 1 is_stmt 1
	.cfi_startproc
.LVL274:
	.loc 1 1032 5
	.loc 1 1033 5
	.loc 1 1034 5
	.loc 1 1035 5
	.loc 1 1036 5
	.loc 1 1039 5
	.loc 1 1039 7 is_stmt 0
	bne	a1,zero,.L97
.L116:
	.loc 1 1040 16
	li	a0,-1
.LVL275:
	.loc 1 1149 1
	ret
.LVL276:
.L97:
	.loc 1 1039 24 discriminator 1
	beq	a3,zero,.L116
	.loc 1 1039 36 discriminator 2
	beq	a4,zero,.L116
	.loc 1 1039 45 discriminator 3
	beq	a5,zero,.L116
	.loc 1 1031 1
	addi	sp,sp,-192
	.cfi_def_cfa_offset 192
	sw	s0,184(sp)
	sw	s1,180(sp)
	sw	s2,176(sp)
	sw	s3,172(sp)
	sw	s4,168(sp)
	sw	s5,164(sp)
	sw	s6,160(sp)
	sw	s7,156(sp)
	sw	ra,188(sp)
	.cfi_offset 8, -8
	.cfi_offset 9, -12
	.cfi_offset 18, -16
	.cfi_offset 19, -20
	.cfi_offset 20, -24
	.cfi_offset 21, -28
	.cfi_offset 22, -32
	.cfi_offset 23, -36
	.cfi_offset 1, -4
	mv	s1,a5
	mv	s0,a4
	mv	s7,a3
	mv	s4,a2
	mv	s3,a1
	mv	s2,a0
	li	s5,101
	.loc 1 1046 16
	lui	s6,%hi(.LANCHOR0)
.LVL277:
.L100:
	addi	s5,s5,-1
.LVL278:
	.loc 1 1043 10
	beq	s5,zero,.L99
.LVL279:
	.loc 1 1045 9 is_stmt 1
	.loc 1 1046 16 is_stmt 0
	li	a2,32
	.loc 1 1045 11
	bne	s4,zero,.L101
	.loc 1 1046 13 is_stmt 1
	.loc 1 1046 16 is_stmt 0
	addi	a1,s6,%lo(.LANCHOR0)
	addi	a0,sp,16
	call	bflb_ecc_get_random_value
.LVL280:
	.loc 1 1046 15
	bge	a0,zero,.L102
.LVL281:
.L99:
	.loc 1 1040 16
	li	a0,-1
.L96:
	.loc 1 1149 1
	lw	ra,188(sp)
	.cfi_remember_state
	.cfi_restore 1
	lw	s0,184(sp)
	.cfi_restore 8
.LVL282:
	lw	s1,180(sp)
	.cfi_restore 9
.LVL283:
	lw	s2,176(sp)
	.cfi_restore 18
	lw	s3,172(sp)
	.cfi_restore 19
.LVL284:
	lw	s4,168(sp)
	.cfi_restore 20
.LVL285:
	lw	s5,164(sp)
	.cfi_restore 21
	lw	s6,160(sp)
	.cfi_restore 22
	lw	s7,156(sp)
	.cfi_restore 23
.LVL286:
	addi	sp,sp,192
	.cfi_def_cfa_offset 0
	jr	ra
.LVL287:
.L101:
	.cfi_restore_state
	.loc 1 1050 13 is_stmt 1
	mv	a1,s4
	addi	a0,sp,16
	call	memcpy
.LVL288:
.L102:
	.loc 1 1057 9
	.loc 1 1057 12 is_stmt 0
	addi	a5,sp,80
	addi	a4,sp,48
	addi	a3,sp,16
	li	a2,0
	li	a1,0
	mv	a0,s2
	call	bflb_ecdh_get_public_key
.LVL289:
	.loc 1 1057 11
	blt	a0,zero,.L99
	.loc 1 1060 9 is_stmt 1
	.loc 1 1060 12 is_stmt 0
	li	a1,32
	addi	a0,sp,48
	call	bflb_ecc_is_zero
.LVL290:
	.loc 1 1060 11
	bne	a0,zero,.L100
	.loc 1 1063 9 is_stmt 1
	li	a2,32
	addi	a1,sp,48
	mv	a0,s0
	call	memcpy
.LVL291:
	.loc 1 1068 9
	mv	a0,s2
	call	bflb_ecc_basic_parameter_init
.LVL292:
	.loc 1 1070 9
	li	a4,0
	li	a3,8
	addi	a2,sp,16
	li	a1,5
	li	a0,3
	call	Sec_Eng_PKA_Write_Data
.LVL293:
	.loc 1 1071 9
	li	a4,0
	li	a3,8
	addi	a2,s6,%lo(.LANCHOR0)
	li	a1,0
	li	a0,3
	call	Sec_Eng_PKA_Write_Data
.LVL294:
	.loc 1 1074 9
	li	a3,1
	li	a2,8
	li	a1,13
	li	a0,3
	call	Sec_Eng_PKA_CREG
.LVL295:
	.loc 1 1075 9
	li	a3,1
	li	a2,8
	li	a1,14
	li	a0,3
	call	Sec_Eng_PKA_CREG
.LVL296:
	.loc 1 1076 9
	li	a7,3
	li	a6,7
	li	a5,4
	li	a4,256
	li	a3,5
	li	a2,3
	li	a1,5
	li	a0,3
	sw	zero,0(sp)
	call	Sec_Eng_PKA_GF2Mont
.LVL297:
	.loc 1 1085 9
	li	a6,1
	li	a5,0
	li	a4,3
	li	a3,5
	li	a2,3
	li	a1,6
	li	a0,3
	call	Sec_Eng_PKA_MINV
.LVL298:
	.loc 1 1095 9
	li	a5,3
	li	a7,7
	li	a6,4
	li	a4,3
	sw	a5,0(sp)
	li	a3,6
	li	a5,2
	li	a2,3
	li	a1,5
	li	a0,3
	sw	zero,4(sp)
	call	Sec_Eng_PKA_Mont2GF
.LVL299:
	.loc 1 1097 9
	li	a3,8
	addi	a2,sp,112
	li	a1,5
	li	a0,3
	call	Sec_Eng_PKA_Read_Data
.LVL300:
	.loc 1 1104 9
	li	a4,0
	li	a3,8
	mv	a2,s3
	li	a1,4
	li	a0,3
	call	Sec_Eng_PKA_Write_Data
.LVL301:
	.loc 1 1105 9
	li	a4,0
	li	a3,8
	mv	a2,s0
	li	a1,5
	li	a0,3
	call	Sec_Eng_PKA_Write_Data
.LVL302:
	.loc 1 1106 9
	li	a6,1
	li	a5,5
	li	a4,3
	li	a3,4
	li	a2,3
	li	a1,3
	li	a0,6
	call	Sec_Eng_PKA_LMUL
.LVL303:
	.loc 1 1115 9
	li	a4,0
	li	a3,8
	mv	a2,s7
	li	a1,5
	li	a0,3
	call	Sec_Eng_PKA_Write_Data
.LVL304:
	.loc 1 1116 9
	li	a6,1
	li	a5,5
	li	a4,3
	li	a3,3
	li	a2,6
	li	a1,3
	li	a0,6
	call	Sec_Eng_PKA_LADD
.LVL305:
	.loc 1 1125 9
	li	a4,0
	li	a3,8
	addi	a2,sp,112
	li	a1,5
	li	a0,3
	call	Sec_Eng_PKA_Write_Data
.LVL306:
	.loc 1 1126 9
	li	a6,1
	li	a5,5
	li	a4,3
	li	a3,3
	li	a2,6
	li	a1,3
	li	a0,6
	call	Sec_Eng_PKA_LMUL
.LVL307:
	.loc 1 1134 9
	li	a4,0
	li	a3,8
	addi	a2,s6,%lo(.LANCHOR0)
	li	a1,0
	li	a0,3
	call	Sec_Eng_PKA_Write_Data
.LVL308:
	.loc 1 1135 9
	li	a6,1
	li	a5,0
	li	a4,3
	li	a3,3
	li	a2,6
	li	a1,4
	li	a0,3
	call	Sec_Eng_PKA_MREM
.LVL309:
	.loc 1 1137 9
	li	a1,4
	li	a0,3
	li	a3,8
	mv	a2,s1
	call	Sec_Eng_PKA_Read_Data
.LVL310:
	.loc 1 1143 9
	.loc 1 1143 12 is_stmt 0
	li	a1,32
	mv	a0,s1
	call	bflb_ecc_is_zero
.LVL311:
	.loc 1 1143 11
	beq	a0,zero,.L96
	j	.L100
	.cfi_endproc
.LFE23:
	.size	bflb_ecdsa_sign, .-bflb_ecdsa_sign
	.globl	secp256r1_Gy
	.globl	secp256r1_Gx
	.globl	secp256r1_Zeroy
	.globl	secp256r1_Zerox
	.globl	secp256r1_1M1
	.globl	secp256r1_1P1
	.globl	secp256r1_BAR8
	.globl	secp256r1_BAR4
	.globl	secp256r1_BAR3
	.globl	secp256r1_BAR2
	.globl	secp256r1_1
	.globl	secp256r1InvR_P
	.globl	secp256r1PrimeN_P
	.globl	secp256r1InvR_N
	.globl	secp256r1PrimeN_N
	.globl	secp256r1N
	.globl	secp256r1Gy
	.globl	secp256r1Gx
	.globl	secp256r1B
	.globl	secp256r1P
	.section	.rodata.bflb_ecdsa_verify_point_mul.str1.4,"aMS",@progbits,1
	.align	2
.LC0:
	.string	"sum = X1\r\n"
	.zero	1
.LC1:
	.string	"Error! infinite point + infinite point\r\n"
	.section	.rodata.secp256r1B,"a"
	.align	2
	.type	secp256r1B, @object
	.size	secp256r1B, 32
secp256r1B:
	.byte	90
	.byte	-58
	.byte	53
	.byte	-40
	.byte	-86
	.byte	58
	.byte	-109
	.byte	-25
	.byte	-77
	.byte	-21
	.byte	-67
	.byte	85
	.byte	118
	.byte	-104
	.byte	-122
	.byte	-68
	.byte	101
	.byte	29
	.byte	6
	.byte	-80
	.byte	-52
	.byte	83
	.byte	-80
	.byte	-10
	.byte	59
	.byte	-50
	.byte	60
	.byte	62
	.byte	39
	.byte	-46
	.byte	96
	.byte	75
	.section	.rodata.secp256r1Gx,"a"
	.align	2
	.type	secp256r1Gx, @object
	.size	secp256r1Gx, 32
secp256r1Gx:
	.byte	107
	.byte	23
	.byte	-47
	.byte	-14
	.byte	-31
	.byte	44
	.byte	66
	.byte	71
	.byte	-8
	.byte	-68
	.byte	-26
	.byte	-27
	.byte	99
	.byte	-92
	.byte	64
	.byte	-14
	.byte	119
	.byte	3
	.byte	125
	.byte	-127
	.byte	45
	.byte	-21
	.byte	51
	.byte	-96
	.byte	-12
	.byte	-95
	.byte	57
	.byte	69
	.byte	-40
	.byte	-104
	.byte	-62
	.byte	-106
	.section	.rodata.secp256r1Gy,"a"
	.align	2
	.type	secp256r1Gy, @object
	.size	secp256r1Gy, 32
secp256r1Gy:
	.byte	79
	.byte	-29
	.byte	66
	.byte	-30
	.byte	-2
	.byte	26
	.byte	127
	.byte	-101
	.byte	-114
	.byte	-25
	.byte	-21
	.byte	74
	.byte	124
	.byte	15
	.byte	-98
	.byte	22
	.byte	43
	.byte	-50
	.byte	51
	.byte	87
	.byte	107
	.byte	49
	.byte	94
	.byte	-50
	.byte	-53
	.byte	-74
	.byte	64
	.byte	104
	.byte	55
	.byte	-65
	.byte	81
	.byte	-11
	.section	.rodata.secp256r1InvR_N,"a"
	.align	2
	.set	.LANCHOR2,. + 0
	.type	secp256r1InvR_N, @object
	.size	secp256r1InvR_N, 32
secp256r1InvR_N:
	.byte	96
	.byte	-48
	.byte	102
	.byte	51
	.byte	73
	.byte	5
	.byte	-63
	.byte	-23
	.byte	7
	.byte	-8
	.byte	-74
	.byte	4
	.byte	30
	.byte	96
	.byte	119
	.byte	37
	.byte	-70
	.byte	-34
	.byte	-13
	.byte	-30
	.byte	67
	.byte	86
	.byte	111
	.byte	-81
	.byte	-50
	.byte	27
	.byte	-56
	.byte	-9
	.byte	-100
	.byte	25
	.byte	124
	.byte	121
	.section	.rodata.secp256r1InvR_P,"a"
	.align	2
	.set	.LANCHOR16,. + 0
	.type	secp256r1InvR_P, @object
	.size	secp256r1InvR_P, 32
secp256r1InvR_P:
	.byte	-1
	.byte	-1
	.byte	-1
	.byte	-2
	.byte	0
	.byte	0
	.byte	0
	.byte	3
	.byte	-1
	.byte	-1
	.byte	-1
	.byte	-3
	.byte	0
	.byte	0
	.byte	0
	.byte	2
	.byte	0
	.byte	0
	.byte	0
	.byte	1
	.byte	-1
	.byte	-1
	.byte	-1
	.byte	-2
	.byte	0
	.byte	0
	.byte	0
	.byte	3
	.byte	0
	.byte	0
	.byte	0
	.byte	0
	.section	.rodata.secp256r1N,"a"
	.align	2
	.set	.LANCHOR0,. + 0
	.type	secp256r1N, @object
	.size	secp256r1N, 32
secp256r1N:
	.byte	-1
	.byte	-1
	.byte	-1
	.byte	-1
	.byte	0
	.byte	0
	.byte	0
	.byte	0
	.byte	-1
	.byte	-1
	.byte	-1
	.byte	-1
	.byte	-1
	.byte	-1
	.byte	-1
	.byte	-1
	.byte	-68
	.byte	-26
	.byte	-6
	.byte	-83
	.byte	-89
	.byte	23
	.byte	-98
	.byte	-124
	.byte	-13
	.byte	-71
	.byte	-54
	.byte	-62
	.byte	-4
	.byte	99
	.byte	37
	.byte	81
	.section	.rodata.secp256r1P,"a"
	.align	2
	.set	.LANCHOR3,. + 0
	.type	secp256r1P, @object
	.size	secp256r1P, 32
secp256r1P:
	.byte	-1
	.byte	-1
	.byte	-1
	.byte	-1
	.byte	0
	.byte	0
	.byte	0
	.byte	1
	.byte	0
	.byte	0
	.byte	0
	.byte	0
	.byte	0
	.byte	0
	.byte	0
	.byte	0
	.byte	0
	.byte	0
	.byte	0
	.byte	0
	.byte	-1
	.byte	-1
	.byte	-1
	.byte	-1
	.byte	-1
	.byte	-1
	.byte	-1
	.byte	-1
	.byte	-1
	.byte	-1
	.byte	-1
	.byte	-1
	.section	.rodata.secp256r1PrimeN_N,"a"
	.align	2
	.set	.LANCHOR1,. + 0
	.type	secp256r1PrimeN_N, @object
	.size	secp256r1PrimeN_N, 32
secp256r1PrimeN_N:
	.byte	96
	.byte	-48
	.byte	102
	.byte	51
	.byte	-87
	.byte	-42
	.byte	40
	.byte	28
	.byte	80
	.byte	-2
	.byte	119
	.byte	-20
	.byte	-59
	.byte	-120
	.byte	-58
	.byte	-10
	.byte	72
	.byte	-55
	.byte	68
	.byte	8
	.byte	125
	.byte	116
	.byte	-46
	.byte	-28
	.byte	-52
	.byte	-47
	.byte	-56
	.byte	-86
	.byte	-18
	.byte	0
	.byte	-68
	.byte	79
	.section	.rodata.secp256r1PrimeN_P,"a"
	.align	2
	.set	.LANCHOR4,. + 0
	.type	secp256r1PrimeN_P, @object
	.size	secp256r1PrimeN_P, 32
secp256r1PrimeN_P:
	.byte	-1
	.byte	-1
	.byte	-1
	.byte	-1
	.byte	0
	.byte	0
	.byte	0
	.byte	2
	.byte	0
	.byte	0
	.byte	0
	.byte	0
	.byte	0
	.byte	0
	.byte	0
	.byte	0
	.byte	0
	.byte	0
	.byte	0
	.byte	1
	.byte	0
	.byte	0
	.byte	0
	.byte	0
	.byte	0
	.byte	0
	.byte	0
	.byte	0
	.byte	0
	.byte	0
	.byte	0
	.byte	1
	.section	.rodata.secp256r1_1,"a"
	.align	2
	.set	.LANCHOR5,. + 0
	.type	secp256r1_1, @object
	.size	secp256r1_1, 32
secp256r1_1:
	.byte	0
	.byte	0
	.byte	0
	.byte	0
	.byte	0
	.byte	0
	.byte	0
	.byte	0
	.byte	0
	.byte	0
	.byte	0
	.byte	0
	.byte	0
	.byte	0
	.byte	0
	.byte	0
	.byte	0
	.byte	0
	.byte	0
	.byte	0
	.byte	0
	.byte	0
	.byte	0
	.byte	0
	.byte	0
	.byte	0
	.byte	0
	.byte	0
	.byte	0
	.byte	0
	.byte	0
	.byte	1
	.section	.rodata.secp256r1_1M1,"a"
	.align	2
	.set	.LANCHOR11,. + 0
	.type	secp256r1_1M1, @object
	.size	secp256r1_1M1, 32
secp256r1_1M1:
	.byte	0
	.byte	0
	.byte	0
	.byte	0
	.byte	-1
	.byte	-1
	.byte	-1
	.byte	-2
	.byte	-1
	.byte	-1
	.byte	-1
	.byte	-1
	.byte	-1
	.byte	-1
	.byte	-1
	.byte	-1
	.byte	-1
	.byte	-1
	.byte	-1
	.byte	-1
	.byte	0
	.byte	0
	.byte	0
	.byte	0
	.byte	0
	.byte	0
	.byte	0
	.byte	0
	.byte	0
	.byte	0
	.byte	0
	.byte	0
	.section	.rodata.secp256r1_1P1,"a"
	.align	2
	.set	.LANCHOR10,. + 0
	.type	secp256r1_1P1, @object
	.size	secp256r1_1P1, 32
secp256r1_1P1:
	.byte	0
	.byte	0
	.byte	0
	.byte	0
	.byte	-1
	.byte	-1
	.byte	-1
	.byte	-2
	.byte	-1
	.byte	-1
	.byte	-1
	.byte	-1
	.byte	-1
	.byte	-1
	.byte	-1
	.byte	-1
	.byte	-1
	.byte	-1
	.byte	-1
	.byte	-1
	.byte	0
	.byte	0
	.byte	0
	.byte	0
	.byte	0
	.byte	0
	.byte	0
	.byte	0
	.byte	0
	.byte	0
	.byte	0
	.byte	2
	.section	.rodata.secp256r1_BAR2,"a"
	.align	2
	.set	.LANCHOR6,. + 0
	.type	secp256r1_BAR2, @object
	.size	secp256r1_BAR2, 32
secp256r1_BAR2:
	.byte	0
	.byte	0
	.byte	0
	.byte	1
	.byte	-1
	.byte	-1
	.byte	-1
	.byte	-3
	.byte	-1
	.byte	-1
	.byte	-1
	.byte	-1
	.byte	-1
	.byte	-1
	.byte	-1
	.byte	-1
	.byte	-1
	.byte	-1
	.byte	-1
	.byte	-2
	.byte	0
	.byte	0
	.byte	0
	.byte	0
	.byte	0
	.byte	0
	.byte	0
	.byte	0
	.byte	0
	.byte	0
	.byte	0
	.byte	2
	.section	.rodata.secp256r1_BAR3,"a"
	.align	2
	.set	.LANCHOR7,. + 0
	.type	secp256r1_BAR3, @object
	.size	secp256r1_BAR3, 32
secp256r1_BAR3:
	.byte	0
	.byte	0
	.byte	0
	.byte	2
	.byte	-1
	.byte	-1
	.byte	-1
	.byte	-4
	.byte	-1
	.byte	-1
	.byte	-1
	.byte	-1
	.byte	-1
	.byte	-1
	.byte	-1
	.byte	-1
	.byte	-1
	.byte	-1
	.byte	-1
	.byte	-3
	.byte	0
	.byte	0
	.byte	0
	.byte	0
	.byte	0
	.byte	0
	.byte	0
	.byte	0
	.byte	0
	.byte	0
	.byte	0
	.byte	3
	.section	.rodata.secp256r1_BAR4,"a"
	.align	2
	.set	.LANCHOR8,. + 0
	.type	secp256r1_BAR4, @object
	.size	secp256r1_BAR4, 32
secp256r1_BAR4:
	.byte	0
	.byte	0
	.byte	0
	.byte	3
	.byte	-1
	.byte	-1
	.byte	-1
	.byte	-5
	.byte	-1
	.byte	-1
	.byte	-1
	.byte	-1
	.byte	-1
	.byte	-1
	.byte	-1
	.byte	-1
	.byte	-1
	.byte	-1
	.byte	-1
	.byte	-4
	.byte	0
	.byte	0
	.byte	0
	.byte	0
	.byte	0
	.byte	0
	.byte	0
	.byte	0
	.byte	0
	.byte	0
	.byte	0
	.byte	4
	.section	.rodata.secp256r1_BAR8,"a"
	.align	2
	.set	.LANCHOR9,. + 0
	.type	secp256r1_BAR8, @object
	.size	secp256r1_BAR8, 32
secp256r1_BAR8:
	.byte	0
	.byte	0
	.byte	0
	.byte	7
	.byte	-1
	.byte	-1
	.byte	-1
	.byte	-9
	.byte	-1
	.byte	-1
	.byte	-1
	.byte	-1
	.byte	-1
	.byte	-1
	.byte	-1
	.byte	-1
	.byte	-1
	.byte	-1
	.byte	-1
	.byte	-8
	.byte	0
	.byte	0
	.byte	0
	.byte	0
	.byte	0
	.byte	0
	.byte	0
	.byte	0
	.byte	0
	.byte	0
	.byte	0
	.byte	8
	.section	.rodata.secp256r1_Gx,"a"
	.align	2
	.set	.LANCHOR14,. + 0
	.type	secp256r1_Gx, @object
	.size	secp256r1_Gx, 32
secp256r1_Gx:
	.byte	24
	.byte	-112
	.byte	95
	.byte	118
	.byte	-91
	.byte	55
	.byte	85
	.byte	-58
	.byte	121
	.byte	-5
	.byte	115
	.byte	43
	.byte	119
	.byte	98
	.byte	37
	.byte	16
	.byte	117
	.byte	-70
	.byte	-107
	.byte	-4
	.byte	95
	.byte	-19
	.byte	-74
	.byte	1
	.byte	121
	.byte	-25
	.byte	48
	.byte	-44
	.byte	24
	.byte	-87
	.byte	20
	.byte	60
	.section	.rodata.secp256r1_Gy,"a"
	.align	2
	.set	.LANCHOR15,. + 0
	.type	secp256r1_Gy, @object
	.size	secp256r1_Gy, 32
secp256r1_Gy:
	.byte	-123
	.byte	113
	.byte	-1
	.byte	24
	.byte	37
	.byte	-120
	.byte	93
	.byte	-123
	.byte	-46
	.byte	-24
	.byte	-122
	.byte	-120
	.byte	-35
	.byte	33
	.byte	-13
	.byte	37
	.byte	-117
	.byte	74
	.byte	-72
	.byte	-28
	.byte	-70
	.byte	25
	.byte	-28
	.byte	92
	.byte	-35
	.byte	-14
	.byte	83
	.byte	87
	.byte	-50
	.byte	-107
	.byte	86
	.byte	10
	.section	.rodata.secp256r1_Zerox,"a"
	.align	2
	.set	.LANCHOR12,. + 0
	.type	secp256r1_Zerox, @object
	.size	secp256r1_Zerox, 32
secp256r1_Zerox:
	.zero	32
	.section	.rodata.secp256r1_Zeroy,"a"
	.align	2
	.set	.LANCHOR13,. + 0
	.type	secp256r1_Zeroy, @object
	.size	secp256r1_Zeroy, 32
secp256r1_Zeroy:
	.byte	0
	.byte	0
	.byte	0
	.byte	0
	.byte	-1
	.byte	-1
	.byte	-1
	.byte	-2
	.byte	-1
	.byte	-1
	.byte	-1
	.byte	-1
	.byte	-1
	.byte	-1
	.byte	-1
	.byte	-1
	.byte	-1
	.byte	-1
	.byte	-1
	.byte	-1
	.byte	0
	.byte	0
	.byte	0
	.byte	0
	.byte	0
	.byte	0
	.byte	0
	.byte	0
	.byte	0
	.byte	0
	.byte	0
	.byte	1
	.text
.Letext0:
	.file 2 "/home/hogc/build-tools/sdk/bl/bl_iot_sdk/toolchain/riscv/Linux/riscv64-unknown-elf/include/machine/_default_types.h"
	.file 3 "/home/hogc/build-tools/sdk/bl/bl_iot_sdk/toolchain/riscv/Linux/lib/gcc/riscv64-unknown-elf/8.3.0/include/stddef.h"
	.file 4 "/home/hogc/build-tools/sdk/bl/bl_iot_sdk/toolchain/riscv/Linux/riscv64-unknown-elf/include/sys/_types.h"
	.file 5 "/home/hogc/build-tools/sdk/bl/bl_iot_sdk/toolchain/riscv/Linux/riscv64-unknown-elf/include/sys/reent.h"
	.file 6 "/home/hogc/build-tools/sdk/bl/bl_iot_sdk/toolchain/riscv/Linux/riscv64-unknown-elf/include/sys/lock.h"
	.file 7 "/home/hogc/build-tools/sdk/bl/bl_iot_sdk/toolchain/riscv/Linux/riscv64-unknown-elf/include/sys/_stdint.h"
	.file 8 "/home/hogc/build-tools/sdk/bl/bl_iot_sdk/toolchain/riscv/Linux/riscv64-unknown-elf/include/stdlib.h"
	.file 9 "/home/hogc/build-tools/sdk/bl/bl_iot_sdk/components/bl602/bl602_std/bl602_std/RISCV/Device/Bouffalo/BL602/Startup/system_bl602.h"
	.file 10 "/home/hogc/build-tools/sdk/bl/bl_iot_sdk/components/bl602/bl602_std/bl602_std/StdDriver/Inc/bl602_common.h"
	.file 11 "/home/hogc/build-tools/sdk/bl/bl_iot_sdk/toolchain/riscv/Linux/riscv64-unknown-elf/include/string.h"
	.file 12 "/home/hogc/build-tools/sdk/bl/bl_iot_sdk/components/bl602/bl602_std/bl602_std/StdDriver/Inc/bl602_sec_eng.h"
	.file 13 "/home/hogc/build-tools/sdk/bl/bl_iot_sdk/components/bl602/bl602_std/bl602_std/Common/platform_print/bflb_platform.h"
	.file 14 "<built-in>"