	.file	"bflb_hash.c"
	.option nopic
	.attribute arch, "rv32i2p0_m2p0_f2p0_c2p0"
	.attribute unaligned_access, 0
	.attribute stack_align, 16
	.text
.Ltext0:
	.cfi_sections	.debug_frame
	.section	.text.bflb_hash_init,"ax",@progbits
	.align	1
	.globl	bflb_hash_init
	.type	bflb_hash_init, @function
bflb_hash_init:
.LFB8:
	.file 1 "/home/hogc/build-tools/sdk/bl/bl_iot_sdk/components/bl602/bl602_std/bl602_std/Common/cipher_suite/src/bflb_hash.c"
	.loc 1 28 1
	.cfi_startproc
.LVL0:
	.loc 1 29 5
	.loc 1 32 5
	.loc 1 28 1 is_stmt 0
	addi	sp,sp,-16
	.cfi_def_cfa_offset 16
	.loc 1 32 5
	addi	a5,a1,-1
	.loc 1 28 1
	sw	ra,12(sp)
	sw	s0,8(sp)
	sw	s1,4(sp)
	.cfi_offset 1, -4
	.cfi_offset 8, -8
	.cfi_offset 9, -12
	.loc 1 32 5
	andi	a5,a5,0xff
	li	a4,1
	bgtu	a5,a4,.L2
	lui	a4,%hi(.L4)
	addi	a4,a4,%lo(.L4)
	slli	a5,a5,2
	add	a5,a5,a4
	lw	a5,0(a5)
	mv	s0,a0
	addi	a4,a0,64
	mv	s1,a1
	lui	a0,%hi(.LANCHOR0)
.LVL1:
	.loc 1 43 13
	mv	a3,s0
	.loc 1 32 5
	jr	a5
	.section	.rodata.bflb_hash_init,"a",@progbits
	.align	2
	.align	2
.L4:
	.word	.L5
	.word	.L3
	.section	.text.bflb_hash_init
.LVL2:
.L2:
	.loc 1 35 10 is_stmt 1
	.loc 1 36 10
	lui	a0,%hi(.LC0)
.LVL3:
	addi	a0,a0,%lo(.LC0)
	call	bflb_platform_printf
.LVL4:
	.loc 1 37 13
	.loc 1 57 5
	.loc 1 35 13 is_stmt 0
	li	a0,-1
.LVL5:
.L1:
	.loc 1 61 1
	lw	ra,12(sp)
	.cfi_remember_state
	.cfi_restore 1
	lw	s0,8(sp)
	.cfi_restore 8
	lw	s1,4(sp)
	.cfi_restore 9
	addi	sp,sp,16
	.cfi_def_cfa_offset 0
	jr	ra
.LVL6:
.L5:
	.cfi_restore_state
	.loc 1 39 13 is_stmt 1
	li	a2,1
.L9:
	.loc 1 43 13 is_stmt 0
	addi	a0,a0,%lo(.LANCHOR0)
	li	a1,0
.LVL7:
	call	Sec_Eng_SHA256_Init
.LVL8:
	.loc 1 45 13 is_stmt 1
	.loc 1 57 5
	.loc 1 58 9
	.loc 1 58 26 is_stmt 0
	li	a0,0
	.loc 1 60 5 is_stmt 1
	.loc 1 58 26 is_stmt 0
	sb	s1,128(s0)
	.loc 1 60 12
	j	.L1
.LVL9:
.L3:
	.loc 1 43 13 is_stmt 1
	li	a2,0
	j	.L9
	.cfi_endproc
.LFE8:
	.size	bflb_hash_init, .-bflb_hash_init
	.section	.text.bflb_hash_start,"ax",@progbits
	.align	1
	.globl	bflb_hash_start
	.type	bflb_hash_start, @function
bflb_hash_start:
.LFB9:
	.loc 1 64 1
	.cfi_startproc
.LVL10:
	.loc 1 65 5
	.loc 1 69 5
	.loc 1 64 1 is_stmt 0
	addi	sp,sp,-16
	.cfi_def_cfa_offset 16
	sw	ra,12(sp)
	.cfi_offset 1, -4
	.loc 1 69 5
	lbu	a5,128(a0)
	li	a4,4
	bgtu	a5,a4,.L11
	lui	a4,%hi(.L13)
	slli	a5,a5,2
	addi	a4,a4,%lo(.L13)
	add	a5,a5,a4
	lw	a5,0(a5)
	.loc 1 74 11
	li	a0,0
.LVL11:
	.loc 1 69 5
	jr	a5
	.section	.rodata.bflb_hash_start,"a",@progbits
	.align	2
	.align	2
.L13:
	.word	.L10
	.word	.L14
	.word	.L14
	.word	.L10
	.word	.L10
	.section	.text.bflb_hash_start
.L14:
	.loc 1 74 11 is_stmt 1
	call	Sec_Eng_SHA_Start
.LVL12:
	.loc 1 75 13
	.loc 1 92 12 is_stmt 0
	li	a0,0
.L10:
	.loc 1 93 1
	lw	ra,12(sp)
	.cfi_remember_state
	.cfi_restore 1
	addi	sp,sp,16
	.cfi_def_cfa_offset 0
	jr	ra
.LVL13:
.L11:
	.cfi_restore_state
	.loc 1 84 13 is_stmt 1
	lui	a0,%hi(.LC0)
.LVL14:
	addi	a0,a0,%lo(.LC0)
	call	bflb_platform_printf
.LVL15:
	.loc 1 85 13
	.loc 1 85 20 is_stmt 0
	li	a0,-1
	j	.L10
	.cfi_endproc
.LFE9:
	.size	bflb_hash_start, .-bflb_hash_start
	.section	.text.bflb_hash_update,"ax",@progbits
	.align	1
	.globl	bflb_hash_update
	.type	bflb_hash_update, @function
bflb_hash_update:
.LFB10:
	.loc 1 96 1 is_stmt 1
	.cfi_startproc
.LVL16:
	.loc 1 97 5
	.loc 1 99 5
	.loc 1 96 1 is_stmt 0
	addi	sp,sp,-16
	.cfi_def_cfa_offset 16
	sw	ra,12(sp)
	.cfi_offset 1, -4
	.loc 1 99 5
	lbu	a5,128(a0)
	li	a4,4
	bgtu	a5,a4,.L18
	lui	a4,%hi(.L20)
	slli	a5,a5,2
	addi	a4,a4,%lo(.L20)
	add	a5,a5,a4
	lw	a5,0(a5)
	jr	a5
	.section	.rodata.bflb_hash_update,"a",@progbits
	.align	2
	.align	2
.L20:
	.word	.L22
	.word	.L21
	.word	.L21
	.word	.L22
	.word	.L22
	.section	.text.bflb_hash_update
.L21:
	.loc 1 104 7
	lui	a0,%hi(.LANCHOR0)
.LVL17:
	mv	a3,a2
	.loc 1 104 7 is_stmt 1
	addi	a0,a0,%lo(.LANCHOR0)
	mv	a2,a1
.LVL18:
	li	a1,0
.LVL19:
	call	Sec_Eng_SHA256_Update
.LVL20:
	.loc 1 105 7
.L22:
	.loc 1 123 12 is_stmt 0
	li	a0,0
	j	.L17
.LVL21:
.L18:
	.loc 1 114 13 is_stmt 1
	lui	a0,%hi(.LC0)
.LVL22:
	addi	a0,a0,%lo(.LC0)
	call	bflb_platform_printf
.LVL23:
	.loc 1 115 13
	.loc 1 115 20 is_stmt 0
	li	a0,-1
.L17:
	.loc 1 124 1
	lw	ra,12(sp)
	.cfi_restore 1
	addi	sp,sp,16
	.cfi_def_cfa_offset 0
	jr	ra
	.cfi_endproc
.LFE10:
	.size	bflb_hash_update, .-bflb_hash_update
	.section	.text.bflb_hash_finish,"ax",@progbits
	.align	1
	.globl	bflb_hash_finish
	.type	bflb_hash_finish, @function
bflb_hash_finish:
.LFB11:
	.loc 1 127 1 is_stmt 1
	.cfi_startproc
.LVL24:
	.loc 1 128 5
	.loc 1 130 5
	.loc 1 127 1 is_stmt 0
	addi	sp,sp,-16
	.cfi_def_cfa_offset 16
	sw	ra,12(sp)
	.cfi_offset 1, -4
	.loc 1 130 5
	lbu	a5,128(a0)
	li	a4,4
	bgtu	a5,a4,.L25
	lui	a4,%hi(.L27)
	slli	a5,a5,2
	addi	a4,a4,%lo(.L27)
	add	a5,a5,a4
	lw	a5,0(a5)
	jr	a5
	.section	.rodata.bflb_hash_finish,"a",@progbits
	.align	2
	.align	2
.L27:
	.word	.L29
	.word	.L28
	.word	.L28
	.word	.L29
	.word	.L29
	.section	.text.bflb_hash_finish
.L28:
	.loc 1 135 10
	lui	a0,%hi(.LANCHOR0)
.LVL25:
	mv	a2,a1
	.loc 1 135 10 is_stmt 1
	addi	a0,a0,%lo(.LANCHOR0)
	li	a1,0
.LVL26:
	call	Sec_Eng_SHA256_Finish
.LVL27:
	.loc 1 136 10
.L29:
	.loc 1 154 12 is_stmt 0
	li	a0,0
	j	.L24
.LVL28:
.L25:
	.loc 1 145 13 is_stmt 1
	lui	a0,%hi(.LC0)
.LVL29:
	addi	a0,a0,%lo(.LC0)
	call	bflb_platform_printf
.LVL30:
	.loc 1 146 13
	.loc 1 146 20 is_stmt 0
	li	a0,-1
.L24:
	.loc 1 155 1
	lw	ra,12(sp)
	.cfi_restore 1
	addi	sp,sp,16
	.cfi_def_cfa_offset 0
	jr	ra
	.cfi_endproc
.LFE11:
	.size	bflb_hash_finish, .-bflb_hash_finish
	.section	.text.bflb_hash_deinit,"ax",@progbits
	.align	1
	.globl	bflb_hash_deinit
	.type	bflb_hash_deinit, @function
bflb_hash_deinit:
.LFB12:
	.loc 1 158 1 is_stmt 1
	.cfi_startproc
.LVL31:
	.loc 1 159 5
	.loc 1 158 1 is_stmt 0
	addi	sp,sp,-16
	.cfi_def_cfa_offset 16
	sw	ra,12(sp)
	.cfi_offset 1, -4
	.loc 1 159 5
	lbu	a4,128(a0)
	li	a5,4
	bleu	a4,a5,.L32
	.loc 1 172 13 is_stmt 1
	lui	a0,%hi(.LC0)
.LVL32:
	addi	a0,a0,%lo(.LC0)
	call	bflb_platform_printf
.LVL33:
	.loc 1 173 13
	.loc 1 173 20 is_stmt 0
	li	a0,-1
.L31:
	.loc 1 179 1
	lw	ra,12(sp)
	.cfi_remember_state
	.cfi_restore 1
	addi	sp,sp,16
	.cfi_def_cfa_offset 0
	jr	ra
.LVL34:
.L32:
	.cfi_restore_state
	.loc 1 176 5 is_stmt 1
	li	a2,132
	li	a1,0
	call	memset
.LVL35:
	.loc 1 178 5
	.loc 1 178 12 is_stmt 0
	li	a0,0
	j	.L31
	.cfi_endproc
.LFE12:
	.size	bflb_hash_deinit, .-bflb_hash_deinit
	.section	.bss.shaCtx,"aw",@nobits
	.align	2
	.set	.LANCHOR0,. + 0
	.type	shaCtx, @object
	.size	shaCtx, 20
shaCtx:
	.zero	20
	.section	.rodata.bflb_hash_init.str1.4,"aMS",@progbits,1
	.align	2
.LC0:
	.string	"unsupported type\r\n"
	.text
.Letext0:
	.file 2 "/home/hogc/build-tools/sdk/bl/bl_iot_sdk/toolchain/riscv/Linux/riscv64-unknown-elf/include/machine/_default_types.h"
	.file 3 "/home/hogc/build-tools/sdk/bl/bl_iot_sdk/toolchain/riscv/Linux/lib/gcc/riscv64-unknown-elf/8.3.0/include/stddef.h"
	.file 4 "/home/hogc/build-tools/sdk/bl/bl_iot_sdk/toolchain/riscv/Linux/riscv64-unknown-elf/include/sys/_types.h"
	.file 5 "/home/hogc/build-tools/sdk/bl/bl_iot_sdk/toolchain/riscv/Linux/riscv64-unknown-elf/include/sys/reent.h"
	.file 6 "/home/hogc/build-tools/sdk/bl/bl_iot_sdk/toolchain/riscv/Linux/riscv64-unknown-elf/include/sys/lock.h"
	.file 7 "/home/hogc/build-tools/sdk/bl/bl_iot_sdk/toolchain/riscv/Linux/riscv64-unknown-elf/include/sys/_stdint.h"
	.file 8 "/home/hogc/build-tools/sdk/bl/bl_iot_sdk/components/bl602/bl602_std/bl602_std/RISCV/Device/Bouffalo/BL602/Startup/system_bl602.h"
	.file 9 "/home/hogc/build-tools/sdk/bl/bl_iot_sdk/components/bl602/bl602_std/bl602_std/StdDriver/Inc/bl602_common.h"
	.file 10 "/home/hogc/build-tools/sdk/bl/bl_iot_sdk/components/bl602/bl602_std/bl602_std/StdDriver/Inc/bl602_sec_eng.h"
	.file 11 "/home/hogc/build-tools/sdk/bl/bl_iot_sdk/toolchain/riscv/Linux/riscv64-unknown-elf/include/stdlib.h"
	.file 12 "/home/hogc/build-tools/sdk/bl/bl_iot_sdk/components/bl602/bl602_std/bl602_std/Common/cipher_suite/inc/bflb_hash_port.h"
	.file 13 "/home/hogc/build-tools/sdk/bl/bl_iot_sdk/components/bl602/bl602_std/bl602_std/Common/cipher_suite/inc/bflb_hash.h"
	.file 14 "/home/hogc/build-tools/sdk/bl/bl_iot_sdk/components/bl602/bl602_std/bl602_std/Common/platform_print/bflb_platform.h"
	.file 15 "/home/hogc/build-tools/sdk/bl/bl_iot_sdk/toolchain/riscv/Linux/riscv64-unknown-elf/include/string.h"