	.file	"bl_port.c"
	.option nopic
	.attribute arch, "rv32i2p0_m2p0_f2p0_c2p0"
	.attribute unaligned_access, 0
	.attribute stack_align, 16
	.text
.Ltext0:
	.cfi_sections	.debug_frame
	.section	.text.k_queue_init,"ax",@progbits
	.align	1
	.globl	k_queue_init
	.type	k_queue_init, @function
k_queue_init:
.LFB67:
	.file 1 "/b-l/bl_iot_sdk_new/components/network/ble/blestack/src/port/bl_port.c"
	.loc 1 24 1
	.cfi_startproc
.LVL0:
	.loc 1 26 5
	.loc 1 29 5
	.loc 1 24 1 is_stmt 0
	addi	sp,sp,-16
	.cfi_def_cfa_offset 16
	sw	s0,8(sp)
	.loc 1 29 18
	li	a2,0
	.cfi_offset 8, -8
	.loc 1 24 1
	mv	s0,a0
	mv	a0,a1
.LVL1:
	.loc 1 29 18
	li	a1,5
.LVL2:
	.loc 1 24 1
	sw	ra,12(sp)
	.cfi_offset 1, -4
	.loc 1 29 18
	call	xQueueGenericCreate
.LVL3:
	.loc 1 29 16
	sw	a0,0(s0)
	.loc 1 30 5 is_stmt 1
	.loc 1 30 7 is_stmt 0
	bne	a0,zero,.L2
	.loc 1 30 13 is_stmt 1 discriminator 1
	call	user_vAssertCalled
.LVL4:
.L2:
	.loc 1 32 5
	addi	a5,s0,4
.LVL5:
.LBB10:
.LBB11:
	.file 2 "/b-l/bl_iot_sdk_new/components/network/ble/blestack/src/common/include/misc/dlist.h"
	.loc 2 190 2
	.loc 2 190 13 is_stmt 0
	sw	a5,4(s0)
	.loc 2 191 2 is_stmt 1
	.loc 2 191 13 is_stmt 0
	sw	a5,8(s0)
.LVL6:
.LBE11:
.LBE10:
	.loc 1 33 1
	lw	ra,12(sp)
	.cfi_restore 1
	lw	s0,8(sp)
	.cfi_restore 8
.LVL7:
	addi	sp,sp,16
	.cfi_def_cfa_offset 0
	jr	ra
	.cfi_endproc
.LFE67:
	.size	k_queue_init, .-k_queue_init
	.section	.text.k_queue_insert,"ax",@progbits
	.align	1
	.globl	k_queue_insert
	.type	k_queue_insert, @function
k_queue_insert:
.LFB68:
	.loc 1 36 1 is_stmt 1
	.cfi_startproc
.LVL8:
	.loc 1 37 5
	.loc 1 38 5
	.loc 1 40 5
	.loc 1 36 1 is_stmt 0
	addi	sp,sp,-32
	.cfi_def_cfa_offset 32
	sw	ra,28(sp)
	.cfi_offset 1, -4
	.loc 1 40 11
	lw	a0,0(a0)
.LVL9:
	.loc 1 36 1
	sw	a2,12(sp)
	.loc 1 40 11
	li	a3,0
	li	a2,-1
.LVL10:
	addi	a1,sp,12
.LVL11:
	call	xQueueGenericSend
.LVL12:
	.loc 1 41 5 is_stmt 1
	.loc 1 41 7 is_stmt 0
	li	a5,1
	beq	a0,a5,.L4
	.loc 1 41 52 is_stmt 1 discriminator 1
	call	user_vAssertCalled
.LVL13:
.L4:
	.loc 1 42 1 is_stmt 0
	lw	ra,28(sp)
	.cfi_restore 1
	addi	sp,sp,32
	.cfi_def_cfa_offset 0
	jr	ra
	.cfi_endproc
.LFE68:
	.size	k_queue_insert, .-k_queue_insert
	.section	.text.k_queue_append,"ax",@progbits
	.align	1
	.globl	k_queue_append
	.type	k_queue_append, @function
k_queue_append:
.LFB69:
	.loc 1 45 1 is_stmt 1
	.cfi_startproc
.LVL14:
	.loc 1 46 5
	mv	a2,a1
	li	a1,0
.LVL15:
	tail	k_queue_insert
.LVL16:
	.cfi_endproc
.LFE69:
	.size	k_queue_append, .-k_queue_append
	.section	.text.k_queue_insert_from_isr,"ax",@progbits
	.align	1
	.globl	k_queue_insert_from_isr
	.type	k_queue_insert_from_isr, @function
k_queue_insert_from_isr:
.LFB70:
	.loc 1 50 1
	.cfi_startproc
.LVL17:
	.loc 1 51 5
	.loc 1 53 5
	.loc 1 50 1 is_stmt 0
	addi	sp,sp,-48
	.cfi_def_cfa_offset 48
	sw	ra,44(sp)
	.cfi_offset 1, -4
	.loc 1 53 5
	lw	a0,0(a0)
.LVL18:
	.loc 1 50 1
	sw	a2,12(sp)
	.loc 1 53 5
	li	a3,0
	addi	a2,sp,28
.LVL19:
	addi	a1,sp,12
.LVL20:
	call	xQueueGenericSendFromISR
.LVL21:
	.loc 1 54 5 is_stmt 1
	.loc 1 54 7 is_stmt 0
	lw	a4,28(sp)
	li	a5,1
	bne	a4,a5,.L8
	.loc 1 56 9 is_stmt 1 discriminator 1
	.loc 1 56 40 discriminator 1
	call	vTaskSwitchContext
.LVL22:
.L8:
	.loc 1 58 1 is_stmt 0
	lw	ra,44(sp)
	.cfi_restore 1
	addi	sp,sp,48
	.cfi_def_cfa_offset 0
	jr	ra
	.cfi_endproc
.LFE70:
	.size	k_queue_insert_from_isr, .-k_queue_insert_from_isr
	.section	.text.k_queue_append_from_isr,"ax",@progbits
	.align	1
	.globl	k_queue_append_from_isr
	.type	k_queue_append_from_isr, @function
k_queue_append_from_isr:
.LFB71:
	.loc 1 61 1 is_stmt 1
	.cfi_startproc
.LVL23:
	.loc 1 62 5
	mv	a2,a1
	li	a1,0
.LVL24:
	tail	k_queue_insert_from_isr
.LVL25:
	.cfi_endproc
.LFE71:
	.size	k_queue_append_from_isr, .-k_queue_append_from_isr
	.section	.text.k_queue_free,"ax",@progbits
	.align	1
	.globl	k_queue_free
	.type	k_queue_free, @function
k_queue_free:
.LFB72:
	.loc 1 66 1
	.cfi_startproc
.LVL26:
	.loc 1 67 5
	.loc 1 67 7 is_stmt 0
	beq	a0,zero,.L13
	.loc 1 67 37 discriminator 1
	lw	a5,0(a0)
	.loc 1 67 21 discriminator 1
	bne	a5,zero,.L14
.L13:
	.loc 1 69 9 is_stmt 1
	lui	a0,%hi(.LC0)
.LVL27:
	addi	a0,a0,%lo(.LC0)
	tail	printf
.LVL28:
.L14:
	.loc 1 66 1 is_stmt 0
	addi	sp,sp,-16
	.cfi_def_cfa_offset 16
	sw	s0,8(sp)
	.cfi_offset 8, -8
	mv	s0,a0
	.loc 1 73 5 is_stmt 1
	mv	a0,a5
.LVL29:
	.loc 1 66 1 is_stmt 0
	sw	ra,12(sp)
	.cfi_offset 1, -4
	.loc 1 73 5
	call	vQueueDelete
.LVL30:
	.loc 1 74 5 is_stmt 1
	.loc 1 74 16 is_stmt 0
	sw	zero,0(s0)
	.loc 1 75 5 is_stmt 1
	.loc 1 76 1 is_stmt 0
	lw	ra,12(sp)
	.cfi_restore 1
	lw	s0,8(sp)
	.cfi_restore 8
.LVL31:
	addi	sp,sp,16
	.cfi_def_cfa_offset 0
	jr	ra
	.cfi_endproc
.LFE72:
	.size	k_queue_free, .-k_queue_free
	.section	.text.k_queue_prepend,"ax",@progbits
	.align	1
	.globl	k_queue_prepend
	.type	k_queue_prepend, @function
k_queue_prepend:
.LFB102:
	.cfi_startproc
	tail	k_queue_append
	.cfi_endproc
.LFE102:
	.size	k_queue_prepend, .-k_queue_prepend
	.section	.text.k_queue_append_list,"ax",@progbits
	.align	1
	.globl	k_queue_append_list
	.type	k_queue_append_list, @function
k_queue_append_list:
.LFB74:
	.loc 1 84 1 is_stmt 1
	.cfi_startproc
.LVL32:
	.loc 1 84 1 is_stmt 0
	addi	sp,sp,-16
	.cfi_def_cfa_offset 16
	sw	s0,8(sp)
	sw	s1,4(sp)
	sw	ra,12(sp)
	.cfi_offset 8, -8
	.cfi_offset 9, -12
	.cfi_offset 1, -4
	mv	s1,a0
	mv	s0,a1
	.loc 1 85 5 is_stmt 1
.LVL33:
	.loc 1 87 5
.L22:
	.loc 1 87 5 is_stmt 0 discriminator 1
	bne	s0,zero,.L23
	.loc 1 90 1
	lw	ra,12(sp)
	.cfi_remember_state
	.cfi_restore 1
	lw	s0,8(sp)
	.cfi_restore 8
.LVL34:
	lw	s1,4(sp)
	.cfi_restore 9
.LVL35:
	addi	sp,sp,16
	.cfi_def_cfa_offset 0
	jr	ra
.LVL36:
.L23:
	.cfi_restore_state
	.loc 1 88 9 is_stmt 1 discriminator 3
	mv	a1,s0
	mv	a0,s1
	call	k_queue_append
.LVL37:
	.loc 1 87 64 is_stmt 0 discriminator 3
	lw	s0,0(s0)
.LVL38:
	j	.L22
	.cfi_endproc
.LFE74:
	.size	k_queue_append_list, .-k_queue_append_list
	.section	.text.k_queue_get,"ax",@progbits
	.align	1
	.globl	k_queue_get
	.type	k_queue_get, @function
k_queue_get:
.LFB75:
	.loc 1 93 1 is_stmt 1
	.cfi_startproc
.LVL39:
	.loc 1 94 5
	.loc 1 93 1 is_stmt 0
	addi	sp,sp,-32
	.cfi_def_cfa_offset 32
	sw	ra,28(sp)
	.cfi_offset 1, -4
	.loc 1 94 11
	sw	zero,12(sp)
	.loc 1 95 5 is_stmt 1
.LVL40:
	.loc 1 96 5
	.loc 1 98 5
	.loc 1 100 5
	.loc 1 100 8 is_stmt 0
	li	a5,-1
	.loc 1 95 18
	mv	a2,a1
	.loc 1 100 8
	bne	a1,a5,.L26
	li	a2,-1
.L26:
.LVL41:
	.loc 1 106 5 is_stmt 1
	.loc 1 106 11 is_stmt 0
	lw	a0,0(a0)
.LVL42:
	addi	a1,sp,12
.LVL43:
	call	xQueueReceive
.LVL44:
	.loc 1 107 5 is_stmt 1
	.loc 1 107 8 is_stmt 0
	li	a4,1
	.loc 1 110 15
	li	a5,0
	.loc 1 107 8
	bne	a0,a4,.L25
	.loc 1 108 9 is_stmt 1
	.loc 1 108 16 is_stmt 0
	lw	a5,12(sp)
.L25:
	.loc 1 112 1
	lw	ra,28(sp)
	.cfi_restore 1
	mv	a0,a5
.LVL45:
	addi	sp,sp,32
	.cfi_def_cfa_offset 0
	jr	ra
	.cfi_endproc
.LFE75:
	.size	k_queue_get, .-k_queue_get
	.section	.text.k_queue_is_empty,"ax",@progbits
	.align	1
	.globl	k_queue_is_empty
	.type	k_queue_is_empty, @function
k_queue_is_empty:
.LFB76:
	.loc 1 115 1 is_stmt 1
	.cfi_startproc
.LVL46:
	.loc 1 116 6
	.loc 1 115 1 is_stmt 0
	addi	sp,sp,-16
	.cfi_def_cfa_offset 16
	sw	ra,12(sp)
	.cfi_offset 1, -4
	.loc 1 116 13
	lw	a0,0(a0)
.LVL47:
	call	uxQueueMessagesWaiting
.LVL48:
	.loc 1 117 1
	lw	ra,12(sp)
	.cfi_restore 1
	seqz	a0,a0
	addi	sp,sp,16
	.cfi_def_cfa_offset 0
	jr	ra
	.cfi_endproc
.LFE76:
	.size	k_queue_is_empty, .-k_queue_is_empty
	.section	.text.k_queue_get_cnt,"ax",@progbits
	.align	1
	.globl	k_queue_get_cnt
	.type	k_queue_get_cnt, @function
k_queue_get_cnt:
.LFB77:
	.loc 1 120 1 is_stmt 1
	.cfi_startproc
.LVL49:
	.loc 1 121 6
	.loc 1 121 13 is_stmt 0
	lw	a0,0(a0)
.LVL50:
	tail	uxQueueMessagesWaiting
.LVL51:
	.cfi_endproc
.LFE77:
	.size	k_queue_get_cnt, .-k_queue_get_cnt
	.section	.text.k_sem_init,"ax",@progbits
	.align	1
	.globl	k_sem_init
	.type	k_sem_init, @function
k_sem_init:
.LFB78:
	.loc 1 125 1 is_stmt 1
	.cfi_startproc
.LVL52:
	.loc 1 126 5
	.loc 1 125 1 is_stmt 0
	addi	sp,sp,-16
	.cfi_def_cfa_offset 16
	sw	ra,12(sp)
	sw	s0,8(sp)
	.cfi_offset 1, -4
	.cfi_offset 8, -8
	.loc 1 126 8
	bne	a0,zero,.L37
	.loc 1 127 9 is_stmt 1
	lui	a0,%hi(.LC1)
.LVL53:
	addi	a0,a0,%lo(.LC1)
	call	printf
.LVL54:
	.loc 1 128 9
	.loc 1 128 16 is_stmt 0
	li	a0,-22
.L36:
	.loc 1 134 1
	lw	ra,12(sp)
	.cfi_remember_state
	.cfi_restore 1
	lw	s0,8(sp)
	.cfi_restore 8
	addi	sp,sp,16
	.cfi_def_cfa_offset 0
	jr	ra
.LVL55:
.L37:
	.cfi_restore_state
	mv	s0,a0
	.loc 1 131 5 is_stmt 1
	.loc 1 131 20 is_stmt 0
	mv	a0,a2
.LVL56:
	call	xQueueCreateCountingSemaphore
.LVL57:
	.loc 1 132 5
	addi	a5,s0,4
	.loc 1 131 18
	sw	a0,0(s0)
	.loc 1 132 5 is_stmt 1
.LVL58:
.LBB12:
.LBB13:
	.loc 2 190 2
	.loc 2 190 13 is_stmt 0
	sw	a5,4(s0)
	.loc 2 191 2 is_stmt 1
	.loc 2 191 13 is_stmt 0
	sw	a5,8(s0)
.LVL59:
.LBE13:
.LBE12:
	.loc 1 133 5 is_stmt 1
	.loc 1 133 12 is_stmt 0
	li	a0,0
	j	.L36
	.cfi_endproc
.LFE78:
	.size	k_sem_init, .-k_sem_init
	.section	.text.k_sem_take,"ax",@progbits
	.align	1
	.globl	k_sem_take
	.type	k_sem_take, @function
k_sem_take:
.LFB79:
	.loc 1 137 1 is_stmt 1
	.cfi_startproc
.LVL60:
	.loc 1 138 5
	.loc 1 139 5
	.loc 1 141 5
	.loc 1 142 5
	.loc 1 148 5
	.loc 1 148 7 is_stmt 0
	beq	a0,zero,.L42
	.loc 1 152 5 is_stmt 1
	.loc 1 137 1 is_stmt 0
	addi	sp,sp,-16
	.cfi_def_cfa_offset 16
	sw	ra,12(sp)
	.cfi_offset 1, -4
	.loc 1 152 11
	lw	a0,0(a0)
.LVL61:
	call	xQueueSemaphoreTake
.LVL62:
	.loc 1 153 5 is_stmt 1
	.loc 1 154 1 is_stmt 0
	lw	ra,12(sp)
	.cfi_restore 1
	.loc 1 153 48
	addi	a0,a0,-1
.LVL63:
	snez	a0,a0
.LVL64:
	neg	a0,a0
	.loc 1 154 1
	addi	sp,sp,16
	.cfi_def_cfa_offset 0
	jr	ra
.LVL65:
.L42:
	.loc 1 149 16
	li	a0,-1
.LVL66:
	.loc 1 154 1
	ret
	.cfi_endproc
.LFE79:
	.size	k_sem_take, .-k_sem_take
	.section	.text.k_sem_give,"ax",@progbits
	.align	1
	.globl	k_sem_give
	.type	k_sem_give, @function
k_sem_give:
.LFB80:
	.loc 1 157 1 is_stmt 1
	.cfi_startproc
.LVL67:
	.loc 1 158 5
	.loc 1 159 5
	.loc 1 161 5
	.loc 1 157 1 is_stmt 0
	addi	sp,sp,-16
	.cfi_def_cfa_offset 16
	sw	ra,12(sp)
	.cfi_offset 1, -4
	.loc 1 161 8
	bne	a0,zero,.L48
	.loc 1 162 9 is_stmt 1
	lui	a0,%hi(.LC1)
.LVL68:
	addi	a0,a0,%lo(.LC1)
	call	printf
.LVL69:
	.loc 1 163 9
	.loc 1 163 16 is_stmt 0
	li	a0,-22
.L47:
	.loc 1 168 1
	lw	ra,12(sp)
	.cfi_remember_state
	.cfi_restore 1
	addi	sp,sp,16
	.cfi_def_cfa_offset 0
	jr	ra
.LVL70:
.L48:
	.cfi_restore_state
	.loc 1 166 5 is_stmt 1
	.loc 1 166 11 is_stmt 0
	lw	a0,0(a0)
.LVL71:
	li	a3,0
	li	a2,0
	li	a1,0
	call	xQueueGenericSend
.LVL72:
	.loc 1 167 5 is_stmt 1
	.loc 1 167 48 is_stmt 0
	addi	a0,a0,-1
.LVL73:
	snez	a0,a0
.LVL74:
	neg	a0,a0
	j	.L47
	.cfi_endproc
.LFE80:
	.size	k_sem_give, .-k_sem_give
	.section	.text.k_sem_delete,"ax",@progbits
	.align	1
	.globl	k_sem_delete
	.type	k_sem_delete, @function
k_sem_delete:
.LFB81:
	.loc 1 171 1 is_stmt 1
	.cfi_startproc
.LVL75:
	.loc 1 172 5
	.loc 1 171 1 is_stmt 0
	addi	sp,sp,-16
	.cfi_def_cfa_offset 16
	sw	ra,12(sp)
	sw	s0,8(sp)
	.cfi_offset 1, -4
	.cfi_offset 8, -8
	.loc 1 172 8
	beq	a0,zero,.L52
	mv	s0,a0
	.loc 1 172 39 discriminator 1
	lw	a0,0(a0)
.LVL76:
	.loc 1 172 20 discriminator 1
	bne	a0,zero,.L53
.LVL77:
.L52:
	.loc 1 173 9 is_stmt 1
	lui	a0,%hi(.LC1)
	addi	a0,a0,%lo(.LC1)
	call	printf
.LVL78:
	.loc 1 174 9
	.loc 1 174 16 is_stmt 0
	li	a0,-22
.L51:
	.loc 1 180 1
	lw	ra,12(sp)
	.cfi_remember_state
	.cfi_restore 1
	lw	s0,8(sp)
	.cfi_restore 8
	addi	sp,sp,16
	.cfi_def_cfa_offset 0
	jr	ra
.LVL79:
.L53:
	.cfi_restore_state
	.loc 1 177 5 is_stmt 1
	call	vQueueDelete
.LVL80:
	.loc 1 178 5
	.loc 1 179 12 is_stmt 0
	li	a0,0
	.loc 1 178 18
	sw	zero,0(s0)
	.loc 1 179 5 is_stmt 1
	.loc 1 179 12 is_stmt 0
	j	.L51
	.cfi_endproc
.LFE81:
	.size	k_sem_delete, .-k_sem_delete
	.section	.text.k_sem_count_get,"ax",@progbits
	.align	1
	.globl	k_sem_count_get
	.type	k_sem_count_get, @function
k_sem_count_get:
.LFB82:
	.loc 1 183 1 is_stmt 1
	.cfi_startproc
.LVL81:
	.loc 1 184 5
	.loc 1 184 12 is_stmt 0
	lw	a0,0(a0)
.LVL82:
	tail	uxQueueMessagesWaiting
.LVL83:
	.cfi_endproc
.LFE82:
	.size	k_sem_count_get, .-k_sem_count_get
	.section	.text.k_mutex_init,"ax",@progbits
	.align	1
	.globl	k_mutex_init
	.type	k_mutex_init, @function
k_mutex_init:
.LFB83:
	.loc 1 188 1 is_stmt 1
	.cfi_startproc
.LVL84:
	.loc 1 190 5
	.loc 1 190 8 is_stmt 0
	bne	a0,zero,.L61
	.loc 1 191 9 is_stmt 1
	lui	a0,%hi(.LC2)
.LVL85:
	addi	a0,a0,%lo(.LC2)
	tail	printf
.LVL86:
.L61:
	.loc 1 188 1 is_stmt 0
	addi	sp,sp,-16
	.cfi_def_cfa_offset 16
	sw	s0,8(sp)
	.cfi_offset 8, -8
	mv	s0,a0
	.loc 1 195 5 is_stmt 1
	.loc 1 195 24 is_stmt 0
	li	a0,1
.LVL87:
	.loc 1 188 1
	sw	ra,12(sp)
	.cfi_offset 1, -4
	.loc 1 195 24
	call	xQueueCreateMutex
.LVL88:
	.loc 1 195 22
	sw	a0,0(s0)
	.loc 1 196 5 is_stmt 1
	.loc 1 196 7 is_stmt 0
	bne	a0,zero,.L62
	.loc 1 196 13 is_stmt 1 discriminator 1
	call	user_vAssertCalled
.LVL89:
.L62:
	.loc 1 197 5
	addi	a5,s0,4
.LVL90:
.LBB14:
.LBB15:
	.loc 2 190 2
	.loc 2 190 13 is_stmt 0
	sw	a5,4(s0)
	.loc 2 191 2 is_stmt 1
	.loc 2 191 13 is_stmt 0
	sw	a5,8(s0)
.LBE15:
.LBE14:
	.loc 1 198 1
	lw	ra,12(sp)
	.cfi_restore 1
	lw	s0,8(sp)
	.cfi_restore 8
.LVL91:
	addi	sp,sp,16
	.cfi_def_cfa_offset 0
	jr	ra
	.cfi_endproc
.LFE83:
	.size	k_mutex_init, .-k_mutex_init
	.section	.text.k_thread_create,"ax",@progbits
	.align	1
	.globl	k_thread_create
	.type	k_thread_create, @function
k_thread_create:
.LFB86:
	.loc 1 213 1 is_stmt 1
	.cfi_startproc
.LVL92:
	.loc 1 214 5
	.loc 1 215 5
	.loc 1 213 1 is_stmt 0
	addi	sp,sp,-16
	.cfi_def_cfa_offset 16
	.loc 1 214 16
	srli	a2,a2,2
.LVL93:
	.loc 1 213 1
	sw	s0,8(sp)
	.loc 1 215 5
	slli	a2,a2,16
.LVL94:
	.cfi_offset 8, -8
	.loc 1 213 1
	mv	s0,a0
	.loc 1 215 5
	mv	a5,s0
	.loc 1 213 1
	mv	a0,a3
.LVL95:
	.loc 1 215 5
	srli	a2,a2,16
	li	a3,0
.LVL96:
	.loc 1 213 1
	sw	ra,12(sp)
	.cfi_offset 1, -4
	.loc 1 215 5
	call	xTaskCreate
.LVL97:
	.loc 1 217 5 is_stmt 1
	.loc 1 217 32 is_stmt 0
	lw	a0,0(s0)
	.loc 1 218 1
	lw	ra,12(sp)
	.cfi_restore 1
	lw	s0,8(sp)
	.cfi_restore 8
.LVL98:
	.loc 1 217 32
	seqz	a0,a0
	.loc 1 218 1
	neg	a0,a0
	addi	sp,sp,16
	.cfi_def_cfa_offset 0
	jr	ra
	.cfi_endproc
.LFE86:
	.size	k_thread_create, .-k_thread_create
	.section	.text.k_thread_delete,"ax",@progbits
	.align	1
	.globl	k_thread_delete
	.type	k_thread_delete, @function
k_thread_delete:
.LFB87:
	.loc 1 221 1 is_stmt 1
	.cfi_startproc
.LVL99:
	.loc 1 222 5
	.loc 1 222 7 is_stmt 0
	beq	a0,zero,.L68
	.loc 1 222 44 discriminator 1
	lw	a5,0(a0)
	.loc 1 222 26 discriminator 1
	bne	a5,zero,.L69
.L68:
	.loc 1 224 9 is_stmt 1
	lui	a0,%hi(.LC3)
.LVL100:
	addi	a0,a0,%lo(.LC3)
	tail	printf
.LVL101:
.L69:
	.loc 1 221 1 is_stmt 0
	addi	sp,sp,-16
	.cfi_def_cfa_offset 16
	sw	s0,8(sp)
	.cfi_offset 8, -8
	mv	s0,a0
	.loc 1 228 5 is_stmt 1
	mv	a0,a5
.LVL102:
	.loc 1 221 1 is_stmt 0
	sw	ra,12(sp)
	.cfi_offset 1, -4
	.loc 1 228 5
	call	vTaskDelete
.LVL103:
	.loc 1 229 5 is_stmt 1
	.loc 1 229 22 is_stmt 0
	sw	zero,0(s0)
	.loc 1 230 5 is_stmt 1
	.loc 1 231 1 is_stmt 0
	lw	ra,12(sp)
	.cfi_restore 1
	lw	s0,8(sp)
	.cfi_restore 8
.LVL104:
	addi	sp,sp,16
	.cfi_def_cfa_offset 0
	jr	ra
	.cfi_endproc
.LFE87:
	.size	k_thread_delete, .-k_thread_delete
	.section	.text.k_yield,"ax",@progbits
	.align	1
	.globl	k_yield
	.type	k_yield, @function
k_yield:
.LFB88:
	.loc 1 234 1 is_stmt 1
	.cfi_startproc
	.loc 1 235 5
 #APP
# 235 "/b-l/bl_iot_sdk_new/components/network/ble/blestack/src/port/bl_port.c" 1
	ecall
# 0 "" 2
	.loc 1 235 31
	.loc 1 236 5
	.loc 1 237 1 is_stmt 0
 #NO_APP
	li	a0,0
	ret
	.cfi_endproc
.LFE88:
	.size	k_yield, .-k_yield
	.section	.text.k_sleep,"ax",@progbits
	.align	1
	.globl	k_sleep
	.type	k_sleep, @function
k_sleep:
.LFB89:
	.loc 1 240 1 is_stmt 1
	.cfi_startproc
.LVL105:
	.loc 1 241 5
	.loc 1 242 5
	.loc 1 243 5
	.loc 1 242 60 is_stmt 0
	li	a5,1000
	mul	a0,a0,a5
.LVL106:
	.loc 1 243 5
	divu	a0,a0,a5
.LVL107:
	tail	vTaskDelay
.LVL108:
	.cfi_endproc
.LFE89:
	.size	k_sleep, .-k_sleep
	.section	.text.irq_lock,"ax",@progbits
	.align	1
	.globl	irq_lock
	.type	irq_lock, @function
irq_lock:
.LFB90:
	.loc 1 247 1 is_stmt 1
	.cfi_startproc
	.loc 1 248 2
	.loc 1 247 1 is_stmt 0
	addi	sp,sp,-16
	.cfi_def_cfa_offset 16
	sw	ra,12(sp)
	.cfi_offset 1, -4
	.loc 1 248 2
	call	vTaskEnterCritical
.LVL109:
	.loc 1 249 5 is_stmt 1
	.loc 1 250 1 is_stmt 0
	lw	ra,12(sp)
	.cfi_restore 1
	li	a0,1
	addi	sp,sp,16
	.cfi_def_cfa_offset 0
	jr	ra
	.cfi_endproc
.LFE90:
	.size	irq_lock, .-irq_lock
	.section	.text.irq_unlock,"ax",@progbits
	.align	1
	.globl	irq_unlock
	.type	irq_unlock, @function
irq_unlock:
.LFB91:
	.loc 1 253 1 is_stmt 1
	.cfi_startproc
.LVL110:
	.loc 1 254 2
	tail	vTaskExitCritical
.LVL111:
	.cfi_endproc
.LFE91:
	.size	irq_unlock, .-irq_unlock
	.section	.text.k_is_in_isr,"ax",@progbits
	.align	1
	.globl	k_is_in_isr
	.type	k_is_in_isr, @function
k_is_in_isr:
.LFB92:
	.loc 1 258 1
	.cfi_startproc
	.loc 1 260 5
.LBB16:
.LBB17:
	.file 3 "/b-l/bl_iot_sdk_new/components/bl602/freertos_riscv_ram/portable/GCC/RISC-V/portmacro.h"
	.loc 3 151 5
	.loc 3 151 31 is_stmt 0
	lui	a5,%hi(TrapNetCounter)
	lw	a0,%lo(TrapNetCounter)(a5)
.LBE17:
.LBE16:
	.loc 1 267 1
	snez	a0,a0
	ret
	.cfi_endproc
.LFE92:
	.size	k_is_in_isr, .-k_is_in_isr
	.section	.text.k_timer_init,"ax",@progbits
	.align	1
	.globl	k_timer_init
	.type	k_timer_init, @function
k_timer_init:
.LFB93:
	.loc 1 270 1 is_stmt 1
	.cfi_startproc
.LVL112:
	.loc 1 271 5
	.loc 1 270 1 is_stmt 0
	addi	sp,sp,-32
	.cfi_def_cfa_offset 32
	sw	s0,24(sp)
	sw	ra,28(sp)
	.cfi_offset 8, -8
	.cfi_offset 1, -4
	.loc 1 270 1
	mv	s0,a0
	mv	a4,a1
	.loc 1 271 7
	bne	a0,zero,.L82
	sw	a2,12(sp)
	sw	a1,8(sp)
	.loc 1 271 13 is_stmt 1 discriminator 1
	call	user_vAssertCalled
.LVL113:
	lw	a2,12(sp)
	lw	a4,8(sp)
.LVL114:
.L82:
	.loc 1 272 5
	.loc 1 275 24 is_stmt 0
	lui	a0,%hi(.LC4)
	.loc 1 273 17
	sw	a2,8(s0)
	.loc 1 272 20
	sw	a4,4(s0)
	.loc 1 273 5 is_stmt 1
	.loc 1 275 5
	.loc 1 275 24 is_stmt 0
	li	a3,0
	li	a2,0
	li	a1,1000
	addi	a0,a0,%lo(.LC4)
	call	xTimerCreate
.LVL115:
	.loc 1 275 22
	sw	a0,0(s0)
	.loc 1 276 5 is_stmt 1
	.loc 1 276 7 is_stmt 0
	bne	a0,zero,.L81
	.loc 1 276 13 is_stmt 1 discriminator 1
	.loc 1 277 1 is_stmt 0 discriminator 1
	lw	s0,24(sp)
	.cfi_remember_state
	.cfi_restore 8
.LVL116:
	lw	ra,28(sp)
	.cfi_restore 1
	addi	sp,sp,32
	.cfi_def_cfa_offset 0
	.loc 1 276 13 discriminator 1
	tail	user_vAssertCalled
.LVL117:
.L81:
	.cfi_restore_state
	.loc 1 277 1
	lw	ra,28(sp)
	.cfi_restore 1
	lw	s0,24(sp)
	.cfi_restore 8
.LVL118:
	addi	sp,sp,32
	.cfi_def_cfa_offset 0
	jr	ra
	.cfi_endproc
.LFE93:
	.size	k_timer_init, .-k_timer_init
	.section	.text.k_timer_stop,"ax",@progbits
	.align	1
	.globl	k_timer_stop
	.type	k_timer_stop, @function
k_timer_stop:
.LFB95:
	.loc 1 297 1 is_stmt 1
	.cfi_startproc
.LVL119:
	.loc 1 298 5
	.loc 1 300 5
	.loc 1 301 5
	.loc 1 297 1 is_stmt 0
	addi	sp,sp,-32
	.cfi_def_cfa_offset 32
	sw	ra,28(sp)
	.cfi_offset 1, -4
	.loc 1 301 7
	bne	a0,zero,.L86
	sw	a0,12(sp)
	.loc 1 301 13 is_stmt 1 discriminator 1
	call	user_vAssertCalled
.LVL120:
	lw	a0,12(sp)
.LVL121:
.L86:
	.loc 1 303 5
	.loc 1 303 11 is_stmt 0
	lw	a0,0(a0)
	li	a4,0
	li	a3,0
	li	a2,0
	li	a1,3
	call	xTimerGenericCommand
.LVL122:
	.loc 1 304 5 is_stmt 1
	.loc 1 304 7 is_stmt 0
	li	a5,1
	beq	a0,a5,.L85
	.loc 1 304 52 is_stmt 1 discriminator 1
	.loc 1 305 1 is_stmt 0 discriminator 1
	lw	ra,28(sp)
	.cfi_remember_state
	.cfi_restore 1
	addi	sp,sp,32
	.cfi_def_cfa_offset 0
	.loc 1 304 52 discriminator 1
	tail	user_vAssertCalled
.LVL123:
.L85:
	.cfi_restore_state
	.loc 1 305 1
	lw	ra,28(sp)
	.cfi_restore 1
	addi	sp,sp,32
	.cfi_def_cfa_offset 0
	jr	ra
	.cfi_endproc
.LFE95:
	.size	k_timer_stop, .-k_timer_stop
	.section	.text.k_timer_delete,"ax",@progbits
	.align	1
	.globl	k_timer_delete
	.type	k_timer_delete, @function
k_timer_delete:
.LFB96:
	.loc 1 308 1 is_stmt 1
	.cfi_startproc
.LVL124:
	.loc 1 309 5
	.loc 1 310 5
	.loc 1 312 5
	.loc 1 308 1 is_stmt 0
	addi	sp,sp,-32
	.cfi_def_cfa_offset 32
	sw	ra,28(sp)
	.cfi_offset 1, -4
	.loc 1 312 7
	bne	a0,zero,.L90
	sw	a0,12(sp)
	.loc 1 312 13 is_stmt 1 discriminator 1
	call	user_vAssertCalled
.LVL125:
	lw	a0,12(sp)
.LVL126:
.L90:
	.loc 1 314 5
	.loc 1 314 11 is_stmt 0
	lw	a0,0(a0)
	li	a4,0
	li	a3,0
	li	a2,0
	li	a1,5
	call	xTimerGenericCommand
.LVL127:
	.loc 1 315 5 is_stmt 1
	.loc 1 315 7 is_stmt 0
	li	a5,1
	beq	a0,a5,.L89
	.loc 1 315 52 is_stmt 1 discriminator 1
	.loc 1 316 1 is_stmt 0 discriminator 1
	lw	ra,28(sp)
	.cfi_remember_state
	.cfi_restore 1
	addi	sp,sp,32
	.cfi_def_cfa_offset 0
	.loc 1 315 52 discriminator 1
	tail	user_vAssertCalled
.LVL128:
.L89:
	.cfi_restore_state
	.loc 1 316 1
	lw	ra,28(sp)
	.cfi_restore 1
	addi	sp,sp,32
	.cfi_def_cfa_offset 0
	jr	ra
	.cfi_endproc
.LFE96:
	.size	k_timer_delete, .-k_timer_delete
	.section	.text.k_now_ms,"ax",@progbits
	.align	1
	.globl	k_now_ms
	.type	k_now_ms, @function
k_now_ms:
.LFB97:
	.loc 1 319 1 is_stmt 1
	.cfi_startproc
	.loc 1 320 5
	.loc 1 319 1 is_stmt 0
	addi	sp,sp,-16
	.cfi_def_cfa_offset 16
	sw	ra,12(sp)
	.cfi_offset 1, -4
	.loc 1 320 24
	call	xTaskGetTickCount
.LVL129:
	.loc 1 320 44
	li	a5,1000
	mul	a0,a0,a5
	.loc 1 321 1
	lw	ra,12(sp)
	.cfi_restore 1
	li	a1,0
	addi	sp,sp,16
	.cfi_def_cfa_offset 0
	divu	a0,a0,a5
	jr	ra
	.cfi_endproc
.LFE97:
	.size	k_now_ms, .-k_now_ms
	.section	.text.k_uptime_get,"ax",@progbits
	.align	1
	.globl	k_uptime_get
	.type	k_uptime_get, @function
k_uptime_get:
.LFB84:
	.loc 1 201 1 is_stmt 1
	.cfi_startproc
	.loc 1 202 5
	.loc 1 202 12 is_stmt 0
	tail	k_now_ms
.LVL130:
	.cfi_endproc
.LFE84:
	.size	k_uptime_get, .-k_uptime_get
	.section	.text.k_uptime_get_32,"ax",@progbits
	.align	1
	.globl	k_uptime_get_32
	.type	k_uptime_get_32, @function
k_uptime_get_32:
.LFB85:
	.loc 1 206 1 is_stmt 1
	.cfi_startproc
	.loc 1 207 5
	.loc 1 206 1 is_stmt 0
	addi	sp,sp,-16
	.cfi_def_cfa_offset 16
	sw	ra,12(sp)
	.cfi_offset 1, -4
	.loc 1 207 19
	call	k_now_ms
.LVL131:
	.loc 1 208 1
	lw	ra,12(sp)
	.cfi_restore 1
	addi	sp,sp,16
	.cfi_def_cfa_offset 0
	jr	ra
	.cfi_endproc
.LFE85:
	.size	k_uptime_get_32, .-k_uptime_get_32
	.section	.text.k_timer_start,"ax",@progbits
	.align	1
	.globl	k_timer_start
	.type	k_timer_start, @function
k_timer_start:
.LFB94:
	.loc 1 280 1 is_stmt 1
	.cfi_startproc
.LVL132:
	.loc 1 281 5
	.loc 1 282 5
	.loc 1 284 5
	.loc 1 280 1 is_stmt 0
	addi	sp,sp,-16
	.cfi_def_cfa_offset 16
	sw	s0,8(sp)
	sw	s1,4(sp)
	sw	ra,12(sp)
	.cfi_offset 8, -8
	.cfi_offset 9, -12
	.cfi_offset 1, -4
	.loc 1 280 1
	mv	s0,a0
	mv	s1,a1
	.loc 1 284 7
	bne	a0,zero,.L99
	.loc 1 284 13 is_stmt 1 discriminator 1
	call	user_vAssertCalled
.LVL133:
.L99:
	.loc 1 285 5
	.loc 1 285 20 is_stmt 0
	sw	s1,12(s0)
	.loc 1 286 5 is_stmt 1
	.loc 1 286 23 is_stmt 0
	call	k_now_ms
.LVL134:
	.loc 1 286 21
	sw	a0,16(s0)
	.loc 1 288 5 is_stmt 1
	.loc 1 288 11 is_stmt 0
	lw	a0,0(s0)
	li	a4,0
	li	a3,0
	li	a2,0
	li	a1,3
	call	xTimerGenericCommand
.LVL135:
	.loc 1 289 5 is_stmt 1
	.loc 1 289 7 is_stmt 0
	li	a5,1
	beq	a0,a5,.L100
	.loc 1 289 52 is_stmt 1 discriminator 1
	call	user_vAssertCalled
.LVL136:
.L100:
	.loc 1 290 5
	.loc 1 290 127 is_stmt 0
	li	a2,1000
	mul	s1,s1,a2
.LVL137:
	.loc 1 290 11
	lw	a0,0(s0)
	li	a4,0
	li	a3,0
	li	a1,4
	divu	a2,s1,a2
	call	xTimerGenericCommand
.LVL138:
	.loc 1 291 5 is_stmt 1
	.loc 1 291 7 is_stmt 0
	li	a5,1
	beq	a0,a5,.L101
	.loc 1 291 52 is_stmt 1 discriminator 1
	call	user_vAssertCalled
.LVL139:
.L101:
	.loc 1 292 5
	.loc 1 292 47 is_stmt 0
	lw	s0,0(s0)
.LVL140:
	.loc 1 292 11
	call	xTaskGetTickCount
.LVL141:
	mv	a2,a0
	li	a4,0
	li	a3,0
	li	a1,1
	mv	a0,s0
	call	xTimerGenericCommand
.LVL142:
	.loc 1 293 5 is_stmt 1
	.loc 1 293 7 is_stmt 0
	li	a5,1
	beq	a0,a5,.L98
	.loc 1 293 52 is_stmt 1 discriminator 1
	.loc 1 294 1 is_stmt 0 discriminator 1
	lw	s0,8(sp)
	.cfi_remember_state
	.cfi_restore 8
	lw	ra,12(sp)
	.cfi_restore 1
	lw	s1,4(sp)
	.cfi_restore 9
	addi	sp,sp,16
	.cfi_def_cfa_offset 0
	.loc 1 293 52 discriminator 1
	tail	user_vAssertCalled
.LVL143:
.L98:
	.cfi_restore_state
	.loc 1 294 1
	lw	ra,12(sp)
	.cfi_restore 1
	lw	s0,8(sp)
	.cfi_restore 8
	lw	s1,4(sp)
	.cfi_restore 9
	addi	sp,sp,16
	.cfi_def_cfa_offset 0
	jr	ra
	.cfi_endproc
.LFE94:
	.size	k_timer_start, .-k_timer_start
	.section	.text.k_get_random_byte_array,"ax",@progbits
	.align	1
	.globl	k_get_random_byte_array
	.type	k_get_random_byte_array, @function
k_get_random_byte_array:
.LFB98:
	.loc 1 324 1 is_stmt 1
	.cfi_startproc
.LVL144:
	.loc 1 326 5
.LBB18:
	.loc 1 326 9
.LBE18:
	.loc 1 324 1 is_stmt 0
	addi	sp,sp,-16
	.cfi_def_cfa_offset 16
	sw	s0,8(sp)
	sw	s1,4(sp)
	sw	ra,12(sp)
	.cfi_offset 8, -8
	.cfi_offset 9, -12
	.cfi_offset 1, -4
	mv	s0,a0
	add	s1,a0,a1
.LVL145:
.L105:
.LBB19:
	.loc 1 326 5 discriminator 1
	bne	s0,s1,.L106
.LBE19:
	.loc 1 330 1
	lw	ra,12(sp)
	.cfi_remember_state
	.cfi_restore 1
	lw	s0,8(sp)
	.cfi_restore 8
.LVL146:
	lw	s1,4(sp)
	.cfi_restore 9
	addi	sp,sp,16
	.cfi_def_cfa_offset 0
	jr	ra
.LVL147:
.L106:
	.cfi_restore_state
.LBB20:
	.loc 1 328 9 is_stmt 1 discriminator 3
	.loc 1 328 32 is_stmt 0 discriminator 3
	call	bl_rand
.LVL148:
	.loc 1 328 22 discriminator 3
	sb	a0,0(s0)
.LVL149:
	addi	s0,s0,1
.LVL150:
	j	.L105
.LBE20:
	.cfi_endproc
.LFE98:
	.size	k_get_random_byte_array, .-k_get_random_byte_array
	.section	.text.k_malloc,"ax",@progbits
	.align	1
	.globl	k_malloc
	.type	k_malloc, @function
k_malloc:
.LFB99:
	.loc 1 333 1 is_stmt 1
	.cfi_startproc
.LVL151:
	.loc 1 334 5
	.loc 1 334 12 is_stmt 0
	tail	pvPortMalloc
.LVL152:
	.cfi_endproc
.LFE99:
	.size	k_malloc, .-k_malloc
	.section	.text.k_free,"ax",@progbits
	.align	1
	.globl	k_free
	.type	k_free, @function
k_free:
.LFB100:
	.loc 1 338 1 is_stmt 1
	.cfi_startproc
.LVL153:
	.loc 1 339 5
	.loc 1 339 12 is_stmt 0
	tail	vPortFree
.LVL154:
	.cfi_endproc
.LFE100:
	.size	k_free, .-k_free
	.section	.rodata.k_mutex_init.str1.4,"aMS",@progbits,1
	.align	2
.LC2:
	.string	"mutex is NULL\n\r\n"
	.section	.rodata.k_queue_free.str1.4,"aMS",@progbits,1
	.align	2
.LC0:
	.string	"Queue is NULL\n\r\n"
	.section	.rodata.k_sem_init.str1.4,"aMS",@progbits,1
	.align	2
.LC1:
	.string	"sem is NULL\n\r\n"
	.section	.rodata.k_thread_delete.str1.4,"aMS",@progbits,1
	.align	2
.LC3:
	.string	"task is NULL\n\r\n"
	.section	.rodata.k_timer_init.str1.4,"aMS",@progbits,1
	.align	2
.LC4:
	.string	"Timer"
	.text
.Letext0:
	.file 4 "/b-l/bl_iot_sdk_new/toolchain/riscv/Linux/lib/gcc/riscv64-unknown-elf/8.3.0/include/stdint-gcc.h"
	.file 5 "/b-l/bl_iot_sdk_new/toolchain/riscv/Linux/lib/gcc/riscv64-unknown-elf/8.3.0/include/stddef.h"
	.file 6 "/b-l/bl_iot_sdk_new/components/network/ble/blestack/src/common/include/zephyr/types.h"
	.file 7 "/b-l/bl_iot_sdk_new/components/network/ble/blestack/src/common/include/misc/slist.h"
	.file 8 "/b-l/bl_iot_sdk_new/toolchain/riscv/Linux/riscv64-unknown-elf/include/sys/_types.h"
	.file 9 "/b-l/bl_iot_sdk_new/toolchain/riscv/Linux/riscv64-unknown-elf/include/sys/reent.h"
	.file 10 "/b-l/bl_iot_sdk_new/toolchain/riscv/Linux/riscv64-unknown-elf/include/sys/lock.h"
	.file 11 "/b-l/bl_iot_sdk_new/components/network/ble/blestack/src/port/include/bl_port.h"
	.file 12 "/b-l/bl_iot_sdk_new/components/network/ble/blestack/src/common/include/net/buf.h"
	.file 13 "/b-l/bl_iot_sdk_new/components/bl602/freertos_riscv_ram/config/queue.h"
	.file 14 "/b-l/bl_iot_sdk_new/components/bl602/freertos_riscv_ram/config/timers.h"
	.file 15 "/b-l/bl_iot_sdk_new/components/bl602/freertos_riscv_ram/config/portable.h"
	.file 16 "/b-l/bl_iot_sdk_new/components/bl602/freertos_riscv_ram/config/task.h"
	.file 17 "/b-l/bl_iot_sdk_new/components/network/ble/blestack/src/common/log.h"
	.file 18 "/b-l/bl_iot_sdk_new/toolchain/riscv/Linux/riscv64-unknown-elf/include/stdio.h"