	.file	"vfs_spi.c"
	.option nopic
	.attribute arch, "rv32i2p0_m2p0_f2p0_c2p0"
	.attribute unaligned_access, 0
	.attribute stack_align, 16
	.text
.Ltext0:
	.cfi_sections	.debug_frame
	.section	.text.vfs_spi_open,"ax",@progbits
	.align	1
	.globl	vfs_spi_open
	.type	vfs_spi_open, @function
vfs_spi_open:
.LFB5:
	.file 1 "/b-l/bl_iot_sdk_new/components/fs/vfs/device/vfs_spi.c"
	.loc 1 12 1
	.cfi_startproc
.LVL0:
	.loc 1 13 5
	.loc 1 14 5
	.loc 1 17 5
	.loc 1 17 8 is_stmt 0
	beq	a1,zero,.L4
	.loc 1 17 27 discriminator 1
	lw	a5,0(a1)
	.loc 1 17 21 discriminator 1
	beq	a5,zero,.L4
	.loc 1 20 9 is_stmt 1
	.loc 1 20 12 is_stmt 0
	lbu	a3,17(a5)
	li	a4,1
	.loc 1 28 17
	li	a0,0
.LVL1:
	.loc 1 20 12
	bne	a3,a4,.L1
	.loc 1 23 13 is_stmt 1
.LVL2:
	.loc 1 26 13
	.loc 1 26 19 is_stmt 0
	lw	a0,4(a5)
	tail	hal_spi_init
.LVL3:
.L4:
	.loc 1 31 13
	li	a0,-22
.LVL4:
.L1:
	.loc 1 35 1
	ret
	.cfi_endproc
.LFE5:
	.size	vfs_spi_open, .-vfs_spi_open
	.section	.text.vfs_spi_close,"ax",@progbits
	.align	1
	.globl	vfs_spi_close
	.type	vfs_spi_close, @function
vfs_spi_close:
.LFB6:
	.loc 1 38 1 is_stmt 1
	.cfi_startproc
.LVL5:
	.loc 1 39 5
	.loc 1 40 5
	.loc 1 43 5
	.loc 1 43 8 is_stmt 0
	beq	a0,zero,.L11
	.loc 1 43 27 discriminator 1
	lw	a5,0(a0)
	.loc 1 43 21 discriminator 1
	beq	a5,zero,.L11
	.loc 1 46 9 is_stmt 1
	.loc 1 46 12 is_stmt 0
	lbu	a3,17(a5)
	li	a4,1
	.loc 1 59 17
	li	a0,0
.LVL6:
	.loc 1 46 12
	bne	a3,a4,.L6
	.loc 1 49 13 is_stmt 1
	.loc 1 49 21 is_stmt 0
	lw	a0,4(a5)
.LVL7:
	.loc 1 51 13 is_stmt 1
	.loc 1 51 16 is_stmt 0
	beq	a0,zero,.L11
	.loc 1 54 17 is_stmt 1
	.loc 1 54 23 is_stmt 0
	tail	hal_spi_finalize
.LVL8:
.L11:
	.loc 1 62 13
	li	a0,-22
.LVL9:
	.loc 1 65 5 is_stmt 1
.L6:
	.loc 1 66 1 is_stmt 0
	ret
	.cfi_endproc
.LFE6:
	.size	vfs_spi_close, .-vfs_spi_close
	.section	.text.vfs_spi_read,"ax",@progbits
	.align	1
	.globl	vfs_spi_read
	.type	vfs_spi_read, @function
vfs_spi_read:
.LFB7:
	.loc 1 69 1 is_stmt 1
	.cfi_startproc
.LVL10:
	.loc 1 70 5
	.loc 1 71 5
	.loc 1 74 5
	.loc 1 74 8 is_stmt 0
	beq	a0,zero,.L14
	.loc 1 74 27 discriminator 1
	lw	a5,0(a0)
	.loc 1 93 13 discriminator 1
	li	a0,-22
.LVL11:
	.loc 1 74 21 discriminator 1
	beq	a5,zero,.L18
	.loc 1 77 9 is_stmt 1
	.loc 1 77 17 is_stmt 0
	lw	a5,4(a5)
.LVL12:
	.loc 1 79 9 is_stmt 1
	.loc 1 79 12 is_stmt 0
	beq	a5,zero,.L18
	.loc 1 69 1
	addi	sp,sp,-16
	.cfi_def_cfa_offset 16
	sw	s0,8(sp)
	.cfi_offset 8, -8
	mv	s0,a2
	.loc 1 82 13 is_stmt 1
	.loc 1 82 19 is_stmt 0
	slli	a2,a2,16
.LVL13:
	li	a3,-1
	srli	a2,a2,16
	mv	a0,a5
	.loc 1 69 1
	sw	ra,12(sp)
	.cfi_offset 1, -4
	.loc 1 82 19
	call	hal_spi_recv
.LVL14:
	.loc 1 86 13 is_stmt 1
	.loc 1 86 16 is_stmt 0
	bne	a0,zero,.L12
	.loc 1 87 17 is_stmt 1
	.loc 1 87 21 is_stmt 0
	mv	a0,s0
.LVL15:
.L12:
	.loc 1 97 1
	lw	ra,12(sp)
	.cfi_restore 1
	lw	s0,8(sp)
	.cfi_restore 8
.LVL16:
	addi	sp,sp,16
	.cfi_def_cfa_offset 0
	jr	ra
.LVL17:
.L14:
	.loc 1 93 13
	li	a0,-22
.LVL18:
	ret
.LVL19:
.L18:
	.loc 1 97 1
	ret
	.cfi_endproc
.LFE7:
	.size	vfs_spi_read, .-vfs_spi_read
	.section	.text.vfs_spi_write,"ax",@progbits
	.align	1
	.globl	vfs_spi_write
	.type	vfs_spi_write, @function
vfs_spi_write:
.LFB8:
	.loc 1 100 1 is_stmt 1
	.cfi_startproc
.LVL20:
	.loc 1 101 5
	.loc 1 102 5
	.loc 1 105 5
	.loc 1 105 8 is_stmt 0
	beq	a0,zero,.L23
	.loc 1 105 27 discriminator 1
	lw	a5,0(a0)
	.loc 1 124 13 discriminator 1
	li	a0,-22
.LVL21:
	.loc 1 105 21 discriminator 1
	beq	a5,zero,.L27
	.loc 1 108 9 is_stmt 1
	.loc 1 108 17 is_stmt 0
	lw	a5,4(a5)
.LVL22:
	.loc 1 110 9 is_stmt 1
	.loc 1 110 12 is_stmt 0
	beq	a5,zero,.L27
	.loc 1 100 1
	addi	sp,sp,-16
	.cfi_def_cfa_offset 16
	sw	s0,8(sp)
	.cfi_offset 8, -8
	mv	s0,a2
	.loc 1 113 13 is_stmt 1
	.loc 1 113 19 is_stmt 0
	slli	a2,a2,16
.LVL23:
	li	a3,-1
	srli	a2,a2,16
	mv	a0,a5
	.loc 1 100 1
	sw	ra,12(sp)
	.cfi_offset 1, -4
	.loc 1 113 19
	call	hal_spi_send
.LVL24:
	.loc 1 117 13 is_stmt 1
	.loc 1 117 16 is_stmt 0
	bne	a0,zero,.L21
	.loc 1 118 17 is_stmt 1
	.loc 1 118 21 is_stmt 0
	mv	a0,s0
.LVL25:
.L21:
	.loc 1 128 1
	lw	ra,12(sp)
	.cfi_restore 1
	lw	s0,8(sp)
	.cfi_restore 8
.LVL26:
	addi	sp,sp,16
	.cfi_def_cfa_offset 0
	jr	ra
.LVL27:
.L23:
	.loc 1 124 13
	li	a0,-22
.LVL28:
	ret
.LVL29:
.L27:
	.loc 1 128 1
	ret
	.cfi_endproc
.LFE8:
	.size	vfs_spi_write, .-vfs_spi_write
	.section	.text.vfs_spi_ioctl,"ax",@progbits
	.align	1
	.globl	vfs_spi_ioctl
	.type	vfs_spi_ioctl, @function
vfs_spi_ioctl:
.LFB9:
	.loc 1 131 1 is_stmt 1
	.cfi_startproc
.LVL30:
	.loc 1 132 5
	.loc 1 133 5
	.loc 1 134 5
	.loc 1 137 5
	.loc 1 137 8 is_stmt 0
	beq	a0,zero,.L49
	.loc 1 137 27 discriminator 1
	lw	a5,0(a0)
	.loc 1 137 21 discriminator 1
	beq	a5,zero,.L49
	.loc 1 142 5 is_stmt 1
	.loc 1 131 1 is_stmt 0
	addi	sp,sp,-16
	.cfi_def_cfa_offset 16
	sw	ra,12(sp)
	sw	s0,8(sp)
	sw	s1,4(sp)
	sw	s2,0(sp)
	.cfi_offset 1, -4
	.cfi_offset 8, -8
	.cfi_offset 9, -12
	.cfi_offset 18, -16
	.loc 1 142 13
	lw	s1,4(a5)
.LVL31:
	.loc 1 144 5 is_stmt 1
	.loc 1 144 8 is_stmt 0
	beq	s1,zero,.L51
	.loc 1 148 5 is_stmt 1
	li	a5,11
	bgtu	a1,a5,.L51
	lui	a5,%hi(.L33)
	addi	a5,a5,%lo(.L33)
	slli	a1,a1,2
.LVL32:
	add	a1,a1,a5
	lw	a4,0(a1)
	lui	a5,%hi(TrapNetCounter)
	mv	s0,a2
	lui	s2,%hi(.LC0)
	.loc 1 181 20 is_stmt 0
	lw	a5,%lo(TrapNetCounter)(a5)
	.loc 1 148 5
	jr	a4
	.section	.rodata.vfs_spi_ioctl,"a",@progbits
	.align	2
	.align	2
.L33:
	.word	.L37
	.word	.L37
	.word	.L35
	.word	.L35
	.word	.L35
	.word	.L35
	.word	.L36
	.word	.L36
	.word	.L35
	.word	.L35
	.word	.L34
	.word	.L32
	.section	.text.vfs_spi_ioctl
.L37:
	.loc 1 152 13 is_stmt 1
	.loc 1 152 18
	.loc 1 152 20
.LBB12:
.LBB13:
	.file 2 "/b-l/bl_iot_sdk_new/components/bl602/freertos_riscv_ram/portable/GCC/RISC-V/portmacro.h"
	.loc 2 151 5
.LBE13:
.LBE12:
	.loc 1 152 20 is_stmt 0
	beq	a5,zero,.L38
	.loc 1 152 110 discriminator 1
	call	xTaskGetTickCountFromISR
.LVL33:
.L39:
	.loc 1 152 20 discriminator 4
	mv	a1,a0
	lui	a2,%hi(.LC1)
	lui	a0,%hi(.LC2)
	addi	a3,s2,%lo(.LC0)
	addi	a0,a0,%lo(.LC2)
	li	a4,152
	addi	a2,a2,%lo(.LC1)
	call	bl_printk
.LVL34:
	.loc 1 152 205 is_stmt 1 discriminator 4
	.loc 1 153 13 discriminator 4
	.loc 1 153 19 is_stmt 0 discriminator 4
	lw	a1,0(s0)
	.loc 1 192 1 discriminator 4
	lw	s0,8(sp)
	.cfi_remember_state
	.cfi_restore 8
.LVL35:
	lw	ra,12(sp)
	.cfi_restore 1
	lw	s2,0(sp)
	.cfi_restore 18
	.loc 1 153 19 discriminator 4
	mv	a0,s1
	.loc 1 192 1 discriminator 4
	lw	s1,4(sp)
	.cfi_restore 9
.LVL36:
	addi	sp,sp,16
	.cfi_def_cfa_offset 0
	.loc 1 153 19 discriminator 4
	tail	hal_spi_set_rwmode
.LVL37:
.L38:
	.cfi_restore_state
	.loc 1 152 139 discriminator 2
	call	xTaskGetTickCount
.LVL38:
	j	.L39
.LVL39:
.L36:
	.loc 1 159 13 is_stmt 1
	.loc 1 159 18
	.loc 1 159 20
.LBB14:
.LBB15:
	.loc 2 151 5
.LBE15:
.LBE14:
	.loc 1 159 20 is_stmt 0
	beq	a5,zero,.L40
	.loc 1 159 118 discriminator 1
	call	xTaskGetTickCountFromISR
.LVL40:
.L41:
	.loc 1 159 20 discriminator 4
	mv	a1,a0
	lui	a2,%hi(.LC1)
	lui	a0,%hi(.LC3)
	addi	a3,s2,%lo(.LC0)
	addi	a0,a0,%lo(.LC3)
	li	a4,159
	addi	a2,a2,%lo(.LC1)
	call	bl_printk
.LVL41:
	.loc 1 159 213 is_stmt 1 discriminator 4
	.loc 1 160 13 discriminator 4
	.loc 1 160 19 is_stmt 0 discriminator 4
	lw	a1,0(s0)
	.loc 1 192 1 discriminator 4
	lw	s0,8(sp)
	.cfi_remember_state
	.cfi_restore 8
.LVL42:
	lw	ra,12(sp)
	.cfi_restore 1
	lw	s2,0(sp)
	.cfi_restore 18
	.loc 1 160 19 discriminator 4
	mv	a0,s1
	.loc 1 192 1 discriminator 4
	lw	s1,4(sp)
	.cfi_restore 9
.LVL43:
	addi	sp,sp,16
	.cfi_def_cfa_offset 0
	.loc 1 160 19 discriminator 4
	tail	hal_spi_set_rwspeed
.LVL44:
.L40:
	.cfi_restore_state
	.loc 1 159 147 discriminator 2
	call	xTaskGetTickCount
.LVL45:
	j	.L41
.LVL46:
.L35:
	.loc 1 170 13 is_stmt 1
	.loc 1 170 18
	.loc 1 170 20
.LBB16:
.LBB17:
	.loc 2 151 5
.LBE17:
.LBE16:
	.loc 1 170 20 is_stmt 0
	beq	a5,zero,.L42
	.loc 1 170 125 discriminator 1
	call	xTaskGetTickCountFromISR
.LVL47:
.L43:
	.loc 1 170 20 discriminator 4
	mv	a1,a0
	lui	a2,%hi(.LC4)
	lui	a0,%hi(.LC5)
	addi	a0,a0,%lo(.LC5)
	li	a4,170
	addi	a3,s2,%lo(.LC0)
	addi	a2,a2,%lo(.LC4)
	call	bl_printk
.LVL48:
	.loc 1 170 220 is_stmt 1 discriminator 4
	.loc 1 172 9 discriminator 4
	.loc 1 132 9 is_stmt 0 discriminator 4
	li	a0,-1
.LVL49:
.L30:
	.loc 1 192 1
	lw	ra,12(sp)
	.cfi_remember_state
	.cfi_restore 1
	lw	s0,8(sp)
	.cfi_restore 8
	lw	s1,4(sp)
	.cfi_restore 9
.LVL50:
	lw	s2,0(sp)
	.cfi_restore 18
	addi	sp,sp,16
	.cfi_def_cfa_offset 0
	jr	ra
.LVL51:
.L42:
	.cfi_restore_state
	.loc 1 170 154 discriminator 2
	call	xTaskGetTickCount
.LVL52:
	j	.L43
.LVL53:
.L34:
	.loc 1 175 13 is_stmt 1
	.loc 1 175 18
	.loc 1 175 20
.LBB18:
.LBB19:
	.loc 2 151 5
.LBE19:
.LBE18:
	.loc 1 175 20 is_stmt 0
	beq	a5,zero,.L44
	.loc 1 175 112 discriminator 1
	call	xTaskGetTickCountFromISR
.LVL54:
.L45:
	.loc 1 175 20 discriminator 4
	mv	a1,a0
	lui	a2,%hi(.LC1)
	lui	a0,%hi(.LC6)
	addi	a2,a2,%lo(.LC1)
	li	a4,175
	addi	a3,s2,%lo(.LC0)
	addi	a0,a0,%lo(.LC6)
	call	bl_printk
.LVL55:
	.loc 1 175 207 is_stmt 1 discriminator 4
	.loc 1 176 13 discriminator 4
	.loc 1 176 19 is_stmt 0 discriminator 4
	li	a2,1
.L56:
	.loc 1 182 19 discriminator 4
	mv	a1,s0
	.loc 1 192 1 discriminator 4
	lw	s0,8(sp)
	.cfi_remember_state
	.cfi_restore 8
.LVL56:
	lw	ra,12(sp)
	.cfi_restore 1
	lw	s2,0(sp)
	.cfi_restore 18
	.loc 1 182 19 discriminator 4
	mv	a0,s1
	.loc 1 192 1 discriminator 4
	lw	s1,4(sp)
	.cfi_restore 9
.LVL57:
	addi	sp,sp,16
	.cfi_def_cfa_offset 0
	.loc 1 182 19 discriminator 4
	tail	hal_spi_transfer
.LVL58:
.L44:
	.cfi_restore_state
	.loc 1 175 141 discriminator 2
	call	xTaskGetTickCount
.LVL59:
	j	.L45
.LVL60:
.L32:
	.loc 1 181 13 is_stmt 1
	.loc 1 181 18
	.loc 1 181 20
.LBB20:
.LBB21:
	.loc 2 151 5
.LBE21:
.LBE20:
	.loc 1 181 20 is_stmt 0
	beq	a5,zero,.L46
	.loc 1 181 112 discriminator 1
	call	xTaskGetTickCountFromISR
.LVL61:
.L47:
	.loc 1 181 20 discriminator 4
	mv	a1,a0
	lui	a2,%hi(.LC1)
	lui	a0,%hi(.LC7)
	addi	a2,a2,%lo(.LC1)
	li	a4,181
	addi	a3,s2,%lo(.LC0)
	addi	a0,a0,%lo(.LC7)
	call	bl_printk
.LVL62:
	.loc 1 181 207 is_stmt 1 discriminator 4
	.loc 1 182 13 discriminator 4
	.loc 1 182 19 is_stmt 0 discriminator 4
	li	a2,2
	j	.L56
.LVL63:
.L46:
	.loc 1 181 141 discriminator 2
	call	xTaskGetTickCount
.LVL64:
	j	.L47
.LVL65:
.L49:
	.cfi_def_cfa_offset 0
	.cfi_restore 1
	.cfi_restore 8
	.cfi_restore 9
	.cfi_restore 18
	.loc 1 138 16
	li	a0,-22
.LVL66:
	.loc 1 192 1
	ret
.LVL67:
.L51:
	.cfi_def_cfa_offset 16
	.cfi_offset 1, -4
	.cfi_offset 8, -8
	.cfi_offset 9, -12
	.cfi_offset 18, -16
	.loc 1 187 17
	li	a0,-22
.LVL68:
	j	.L30
	.cfi_endproc
.LFE9:
	.size	vfs_spi_ioctl, .-vfs_spi_ioctl
	.globl	spi_ops
	.section	.rodata.spi_ops,"a"
	.align	2
	.type	spi_ops, @object
	.size	spi_ops, 28
spi_ops:
	.word	vfs_spi_open
	.word	vfs_spi_close
	.word	vfs_spi_read
	.word	vfs_spi_write
	.word	vfs_spi_ioctl
	.zero	8
	.section	.rodata.vfs_spi_ioctl.str1.4,"aMS",@progbits,1
	.align	2
.LC0:
	.string	"vfs_spi.c"
	.zero	2
.LC1:
	.string	"\033[32mINFO  \033[0m"
.LC2:
	.string	"[%10u][%s: %s:%4d] IOCTL_SPI_IOC_WR_MODE.\r\n"
.LC3:
	.string	"[%10u][%s: %s:%4d] IOCTL_SPI_IOC_WR_MAX_SPEED_HZ.\r\n"
.LC4:
	.string	"\033[31mERROR \033[0m"
.LC5:
	.string	"[%10u][%s: %s:%4d] NOT SUPPORT, IOCTL_SPI_IOC_WR_MODE32.\r\n"
	.zero	1
.LC6:
	.string	"[%10u][%s: %s:%4d] IOCTL_SPI_IOC_MESSAGE_1.\r\n"
	.zero	2
.LC7:
	.string	"[%10u][%s: %s:%4d] IOCTL_SPI_IOC_MESSAGE_2.\r\n"
	.text
.Letext0:
	.file 3 "/b-l/bl_iot_sdk_new/toolchain/riscv/Linux/lib/gcc/riscv64-unknown-elf/8.3.0/include/stdint-gcc.h"
	.file 4 "/b-l/bl_iot_sdk_new/toolchain/riscv/Linux/riscv64-unknown-elf/include/machine/_default_types.h"
	.file 5 "/b-l/bl_iot_sdk_new/toolchain/riscv/Linux/lib/gcc/riscv64-unknown-elf/8.3.0/include/stddef.h"
	.file 6 "/b-l/bl_iot_sdk_new/toolchain/riscv/Linux/riscv64-unknown-elf/include/sys/_types.h"
	.file 7 "/b-l/bl_iot_sdk_new/toolchain/riscv/Linux/riscv64-unknown-elf/include/sys/reent.h"
	.file 8 "/b-l/bl_iot_sdk_new/toolchain/riscv/Linux/riscv64-unknown-elf/include/sys/lock.h"
	.file 9 "/b-l/bl_iot_sdk_new/toolchain/riscv/Linux/riscv64-unknown-elf/include/sys/_timeval.h"
	.file 10 "/b-l/bl_iot_sdk_new/toolchain/riscv/Linux/riscv64-unknown-elf/include/sys/types.h"
	.file 11 "/b-l/bl_iot_sdk_new/toolchain/riscv/Linux/riscv64-unknown-elf/include/time.h"
	.file 12 "/b-l/bl_iot_sdk_new/toolchain/riscv/Linux/riscv64-unknown-elf/include/sys/stat.h"
	.file 13 "/b-l/bl_iot_sdk_new/components/fs/vfs/include/vfs_dir.h"
	.file 14 "/b-l/bl_iot_sdk_new/components/fs/vfs/include/vfs_inode.h"
	.file 15 "/b-l/bl_iot_sdk_new/components/fs/vfs/include/device/vfs_spi.h"
	.file 16 "/b-l/bl_iot_sdk_new/components/fs/vfs/include/hal/soc/spi.h"
	.file 17 "/b-l/bl_iot_sdk_new/components/bl602/freertos_riscv_ram/config/task.h"
	.file 18 "/b-l/bl_iot_sdk_new/components/utils/include/utils_log.h"