	.file	"vfs_pwm.c"
	.option nopic
	.attribute arch, "rv32i2p0_m2p0_f2p0_c2p0"
	.attribute unaligned_access, 0
	.attribute stack_align, 16
	.text
.Ltext0:
	.cfi_sections	.debug_frame
	.section	.text.vfs_pwm_open,"ax",@progbits
	.align	1
	.globl	vfs_pwm_open
	.type	vfs_pwm_open, @function
vfs_pwm_open:
.LFB5:
	.file 1 "/b-l/bl_iot_sdk_new/components/fs/vfs/device/vfs_pwm.c"
	.loc 1 20 1
	.cfi_startproc
.LVL0:
	.loc 1 21 5
	.loc 1 22 5
	.loc 1 25 5
	.loc 1 25 8 is_stmt 0
	beq	a1,zero,.L4
	.loc 1 25 27 discriminator 1
	lw	a5,0(a1)
	.loc 1 25 21 discriminator 1
	beq	a5,zero,.L4
	.loc 1 28 9 is_stmt 1
	.loc 1 28 12 is_stmt 0
	lbu	a3,17(a5)
	li	a4,1
	.loc 1 36 17
	li	a0,0
.LVL1:
	.loc 1 28 12
	bne	a3,a4,.L1
	.loc 1 31 13 is_stmt 1
.LVL2:
	.loc 1 34 13
	.loc 1 34 19 is_stmt 0
	lw	a0,4(a5)
	tail	hal_pwm_init_bydev
.LVL3:
.L4:
	.loc 1 39 13
	li	a0,-22
.LVL4:
.L1:
	.loc 1 43 1
	ret
	.cfi_endproc
.LFE5:
	.size	vfs_pwm_open, .-vfs_pwm_open
	.section	.text.vfs_pwm_close,"ax",@progbits
	.align	1
	.globl	vfs_pwm_close
	.type	vfs_pwm_close, @function
vfs_pwm_close:
.LFB6:
	.loc 1 46 1 is_stmt 1
	.cfi_startproc
.LVL5:
	.loc 1 47 5
	.loc 1 48 5
	.loc 1 51 5
	.loc 1 51 8 is_stmt 0
	beq	a0,zero,.L11
	.loc 1 51 27 discriminator 1
	lw	a5,0(a0)
	.loc 1 51 21 discriminator 1
	beq	a5,zero,.L11
	.loc 1 54 9 is_stmt 1
	.loc 1 54 12 is_stmt 0
	lbu	a3,17(a5)
	li	a4,1
	.loc 1 67 17
	li	a0,0
.LVL6:
	.loc 1 54 12
	bne	a3,a4,.L6
	.loc 1 57 13 is_stmt 1
	.loc 1 57 21 is_stmt 0
	lw	a0,4(a5)
.LVL7:
	.loc 1 59 13 is_stmt 1
	.loc 1 59 16 is_stmt 0
	beq	a0,zero,.L11
	.loc 1 62 17 is_stmt 1
	.loc 1 62 23 is_stmt 0
	tail	hal_pwm_finalize_bydev
.LVL8:
.L11:
	.loc 1 70 13
	li	a0,-22
.LVL9:
	.loc 1 73 5 is_stmt 1
.L6:
	.loc 1 74 1 is_stmt 0
	ret
	.cfi_endproc
.LFE6:
	.size	vfs_pwm_close, .-vfs_pwm_close
	.section	.text.vfs_pwm_ioctl,"ax",@progbits
	.align	1
	.globl	vfs_pwm_ioctl
	.type	vfs_pwm_ioctl, @function
vfs_pwm_ioctl:
.LFB7:
	.loc 1 77 1 is_stmt 1
	.cfi_startproc
.LVL10:
	.loc 1 78 5
	.loc 1 79 5
	.loc 1 80 5
	.loc 1 81 5
	.loc 1 84 5
	.loc 1 77 1 is_stmt 0
	addi	sp,sp,-16
	.cfi_def_cfa_offset 16
	sw	ra,12(sp)
	sw	s0,8(sp)
	sw	s1,4(sp)
	.cfi_offset 1, -4
	.cfi_offset 8, -8
	.cfi_offset 9, -12
	.loc 1 84 8
	bne	a0,zero,.L13
.LVL11:
.L42:
	.loc 1 129 17
	li	s0,-22
.LVL12:
.L12:
	.loc 1 134 1
	mv	a0,s0
	lw	ra,12(sp)
	.cfi_remember_state
	.cfi_restore 1
	lw	s0,8(sp)
	.cfi_restore 8
	lw	s1,4(sp)
	.cfi_restore 9
	addi	sp,sp,16
	.cfi_def_cfa_offset 0
	jr	ra
.LVL13:
.L13:
	.cfi_restore_state
	.loc 1 84 27 discriminator 1
	lw	a5,0(a0)
	.loc 1 84 21 discriminator 1
	beq	a5,zero,.L42
	.loc 1 89 5 is_stmt 1
	.loc 1 89 13 is_stmt 0
	lw	s1,4(a5)
.LVL14:
	.loc 1 91 5 is_stmt 1
	.loc 1 91 8 is_stmt 0
	beq	s1,zero,.L42
	.loc 1 95 5
	li	a5,2
	mv	s0,a2
	.loc 1 95 5 is_stmt 1
	beq	a1,a5,.L16
.LVL15:
	bgt	a1,a5,.L17
	li	a5,1
	bne	a1,a5,.L42
	.loc 1 98 13
	.loc 1 98 19 is_stmt 0
	mv	a0,s1
.LVL16:
	call	hal_pwm_start_bydev
.LVL17:
.LBB10:
.LBB11:
	.file 2 "/b-l/bl_iot_sdk_new/components/bl602/freertos_riscv_ram/portable/GCC/RISC-V/portmacro.h"
	.loc 2 151 31
	lui	a5,%hi(TrapNetCounter)
.LBE11:
.LBE10:
	.loc 1 99 20
	lw	a5,%lo(TrapNetCounter)(a5)
	.loc 1 98 19
	mv	s0,a0
.LVL18:
	.loc 1 99 13 is_stmt 1
	.loc 1 99 18
	.loc 1 99 20
.LBB13:
.LBB12:
	.loc 2 151 5
.LBE12:
.LBE13:
	.loc 1 99 20 is_stmt 0
	beq	a5,zero,.L21
	.loc 1 99 100 discriminator 1
	call	xTaskGetTickCountFromISR
.LVL19:
.L22:
	.loc 1 99 20 discriminator 4
	mv	a1,a0
	lui	a3,%hi(.LC0)
	lui	a2,%hi(.LC1)
	lui	a0,%hi(.LC2)
	li	a4,99
	addi	a3,a3,%lo(.LC0)
	addi	a2,a2,%lo(.LC1)
	addi	a0,a0,%lo(.LC2)
	call	bl_printk
.LVL20:
	.loc 1 99 194 is_stmt 1 discriminator 4
	.loc 1 101 9 discriminator 4
	j	.L12
.LVL21:
.L17:
	.loc 1 95 5 is_stmt 0
	li	a5,3
	beq	a1,a5,.L19
	li	a5,4
	bne	a1,a5,.L42
	.loc 1 120 13 is_stmt 1
	.loc 1 120 18
	.loc 1 120 20
.LBB14:
.LBB15:
	.loc 2 151 5
	.loc 2 151 31 is_stmt 0
	lui	a5,%hi(TrapNetCounter)
.LBE15:
.LBE14:
	.loc 1 120 20
	lw	a5,%lo(TrapNetCounter)(a5)
	beq	a5,zero,.L27
	.loc 1 120 103 discriminator 1
	call	xTaskGetTickCountFromISR
.LVL22:
.L28:
	.loc 1 120 20 discriminator 4
	lui	a3,%hi(.LC0)
	lui	a2,%hi(.LC1)
	mv	a1,a0
	lui	a0,%hi(.LC5)
	li	a4,120
	addi	a3,a3,%lo(.LC0)
	addi	a2,a2,%lo(.LC1)
	addi	a0,a0,%lo(.LC5)
	call	bl_printk
.LVL23:
	.loc 1 120 198 is_stmt 1 discriminator 4
	.loc 1 121 13 discriminator 4
	.loc 1 121 16 is_stmt 0 discriminator 4
	beq	s0,zero,.L42
	.loc 1 124 13 is_stmt 1
.LVL24:
	.loc 1 125 13
	.loc 1 125 19 is_stmt 0
	lw	a1,0(s0)
	.loc 1 134 1
	lw	s0,8(sp)
	.cfi_remember_state
	.cfi_restore 8
.LVL25:
	lw	ra,12(sp)
	.cfi_restore 1
	.loc 1 125 19
	mv	a0,s1
	.loc 1 134 1
	lw	s1,4(sp)
	.cfi_restore 9
.LVL26:
	addi	sp,sp,16
	.cfi_def_cfa_offset 0
	.loc 1 125 19
	tail	hal_pwm_set_freq_bydev
.LVL27:
.L21:
	.cfi_restore_state
	.loc 1 99 129 discriminator 2
	call	xTaskGetTickCount
.LVL28:
	j	.L22
.LVL29:
.L16:
	.loc 1 104 13 is_stmt 1
	.loc 1 104 18
	.loc 1 104 20
.LBB16:
.LBB17:
	.loc 2 151 5
	.loc 2 151 31 is_stmt 0
	lui	a5,%hi(TrapNetCounter)
.LBE17:
.LBE16:
	.loc 1 104 20
	lw	a5,%lo(TrapNetCounter)(a5)
	beq	a5,zero,.L23
	.loc 1 104 99 discriminator 1
	call	xTaskGetTickCountFromISR
.LVL30:
.L24:
	.loc 1 104 20 discriminator 4
	mv	a1,a0
	lui	a3,%hi(.LC0)
	lui	a2,%hi(.LC1)
	lui	a0,%hi(.LC3)
	addi	a0,a0,%lo(.LC3)
	li	a4,104
	addi	a3,a3,%lo(.LC0)
	addi	a2,a2,%lo(.LC1)
	call	bl_printk
.LVL31:
	.loc 1 104 194 is_stmt 1 discriminator 4
	.loc 1 105 13 discriminator 4
	.loc 1 134 1 is_stmt 0 discriminator 4
	lw	s0,8(sp)
	.cfi_remember_state
	.cfi_restore 8
.LVL32:
	lw	ra,12(sp)
	.cfi_restore 1
	.loc 1 105 19 discriminator 4
	mv	a0,s1
	.loc 1 134 1 discriminator 4
	lw	s1,4(sp)
	.cfi_restore 9
.LVL33:
	addi	sp,sp,16
	.cfi_def_cfa_offset 0
	.loc 1 105 19 discriminator 4
	tail	hal_pwm_stop_bydev
.LVL34:
.L23:
	.cfi_restore_state
	.loc 1 104 128 discriminator 2
	call	xTaskGetTickCount
.LVL35:
	j	.L24
.LVL36:
.L19:
	.loc 1 110 13 is_stmt 1
	.loc 1 110 18
	.loc 1 110 20
.LBB18:
.LBB19:
	.loc 2 151 5
	.loc 2 151 31 is_stmt 0
	lui	a5,%hi(TrapNetCounter)
.LBE19:
.LBE18:
	.loc 1 110 20
	lw	a5,%lo(TrapNetCounter)(a5)
	beq	a5,zero,.L25
	.loc 1 110 103 discriminator 1
	call	xTaskGetTickCountFromISR
.LVL37:
.L26:
	.loc 1 110 20 discriminator 4
	lui	a3,%hi(.LC0)
	lui	a2,%hi(.LC1)
	mv	a1,a0
	lui	a0,%hi(.LC4)
	li	a4,110
	addi	a3,a3,%lo(.LC0)
	addi	a2,a2,%lo(.LC1)
	addi	a0,a0,%lo(.LC4)
	call	bl_printk
.LVL38:
	.loc 1 110 198 is_stmt 1 discriminator 4
	.loc 1 111 13 discriminator 4
	.loc 1 111 16 is_stmt 0 discriminator 4
	beq	s0,zero,.L42
	.loc 1 114 13 is_stmt 1
.LVL39:
	.loc 1 115 13
	.loc 1 115 19 is_stmt 0
	flw	fa0,0(s0)
	.loc 1 134 1
	lw	s0,8(sp)
	.cfi_remember_state
	.cfi_restore 8
.LVL40:
	lw	ra,12(sp)
	.cfi_restore 1
	.loc 1 115 19
	mv	a0,s1
	.loc 1 134 1
	lw	s1,4(sp)
	.cfi_restore 9
.LVL41:
	addi	sp,sp,16
	.cfi_def_cfa_offset 0
	.loc 1 115 19
	tail	hal_pwm_set_duty_bydev
.LVL42:
.L25:
	.cfi_restore_state
	.loc 1 110 132 discriminator 2
	call	xTaskGetTickCount
.LVL43:
	j	.L26
.LVL44:
.L27:
	.loc 1 120 132 discriminator 2
	call	xTaskGetTickCount
.LVL45:
	j	.L28
	.cfi_endproc
.LFE7:
	.size	vfs_pwm_ioctl, .-vfs_pwm_ioctl
	.globl	pwm_ops
	.section	.rodata.pwm_ops,"a"
	.align	2
	.type	pwm_ops, @object
	.size	pwm_ops, 28
pwm_ops:
	.word	vfs_pwm_open
	.word	vfs_pwm_close
	.zero	8
	.word	vfs_pwm_ioctl
	.zero	8
	.section	.rodata.vfs_pwm_ioctl.str1.4,"aMS",@progbits,1
	.align	2
.LC0:
	.string	"vfs_pwm.c"
	.zero	2
.LC1:
	.string	"\033[32mINFO  \033[0m"
.LC2:
	.string	"[%10u][%s: %s:%4d] ioctl start.\r\n"
	.zero	2
.LC3:
	.string	"[%10u][%s: %s:%4d] ioctl stop.\r\n"
	.zero	3
.LC4:
	.string	"[%10u][%s: %s:%4d] ioctl set duty.\r\n"
	.zero	3
.LC5:
	.string	"[%10u][%s: %s:%4d] ioctl set freq.\r\n"
	.text
.Letext0:
	.file 3 "/b-l/bl_iot_sdk_new/toolchain/riscv/Linux/lib/gcc/riscv64-unknown-elf/8.3.0/include/stdint-gcc.h"
	.file 4 "/b-l/bl_iot_sdk_new/toolchain/riscv/Linux/riscv64-unknown-elf/include/machine/_default_types.h"
	.file 5 "/b-l/bl_iot_sdk_new/toolchain/riscv/Linux/lib/gcc/riscv64-unknown-elf/8.3.0/include/stddef.h"
	.file 6 "/b-l/bl_iot_sdk_new/toolchain/riscv/Linux/riscv64-unknown-elf/include/sys/_types.h"
	.file 7 "/b-l/bl_iot_sdk_new/toolchain/riscv/Linux/riscv64-unknown-elf/include/sys/reent.h"
	.file 8 "/b-l/bl_iot_sdk_new/toolchain/riscv/Linux/riscv64-unknown-elf/include/sys/lock.h"
	.file 9 "/b-l/bl_iot_sdk_new/toolchain/riscv/Linux/riscv64-unknown-elf/include/sys/_timeval.h"
	.file 10 "/b-l/bl_iot_sdk_new/toolchain/riscv/Linux/riscv64-unknown-elf/include/sys/types.h"
	.file 11 "/b-l/bl_iot_sdk_new/toolchain/riscv/Linux/riscv64-unknown-elf/include/time.h"
	.file 12 "/b-l/bl_iot_sdk_new/toolchain/riscv/Linux/riscv64-unknown-elf/include/sys/stat.h"
	.file 13 "/b-l/bl_iot_sdk_new/components/fs/vfs/include/vfs_dir.h"
	.file 14 "/b-l/bl_iot_sdk_new/components/fs/vfs/include/vfs_inode.h"
	.file 15 "/b-l/bl_iot_sdk_new/components/fs/vfs/include/device/vfs_pwm.h"
	.file 16 "/b-l/bl_iot_sdk_new/components/fs/vfs/include/hal/soc/pwm.h"
	.file 17 "/b-l/bl_iot_sdk_new/components/bl602/freertos_riscv_ram/config/task.h"
	.file 18 "/b-l/bl_iot_sdk_new/components/utils/include/utils_log.h"