	.file	"utils_log.c"
	.option nopic
	.attribute arch, "rv32i2p0_m2p0_f2p0_c2p0"
	.attribute unaligned_access, 0
	.attribute stack_align, 16
	.text
.Ltext0:
	.cfi_sections	.debug_frame
	.section	.text.bl_printk,"ax",@progbits
	.align	1
	.globl	bl_printk
	.type	bl_printk, @function
bl_printk:
.LFB6:
	.file 1 "/b-l/bl_iot_sdk/components/utils/src/utils_log.c"
	.loc 1 156 1
	.cfi_startproc
.LVL0:
	.loc 1 157 5
	.loc 1 159 5
	.loc 1 156 1 is_stmt 0
	addi	sp,sp,-64
	.cfi_def_cfa_offset 64
	sw	a5,52(sp)
	.loc 1 159 9
	lui	a5,%hi(sys_log_all_enable)
	lbu	a5,%lo(sys_log_all_enable)(a5)
	.loc 1 156 1
	sw	ra,28(sp)
	.cfi_offset 1, -36
	.loc 1 156 1
	sw	a1,36(sp)
	sw	a2,40(sp)
	sw	a3,44(sp)
	sw	a4,48(sp)
	sw	a6,56(sp)
	sw	a7,60(sp)
	.loc 1 159 9
	andi	a5,a5,0xff
	.loc 1 159 8
	beq	a5,zero,.L1
	.loc 1 161 8 is_stmt 1
	addi	a1,sp,36
	sw	a1,12(sp)
	.loc 1 164 9
	call	vprint
.LVL1:
	.loc 1 166 8
.L1:
	.loc 1 168 1 is_stmt 0
	lw	ra,28(sp)
	.cfi_restore 1
	addi	sp,sp,64
	.cfi_def_cfa_offset 0
	jr	ra
	.cfi_endproc
.LFE6:
	.size	bl_printk, .-bl_printk
	.section	.text.log_buf_out,"ax",@progbits
	.align	1
	.globl	log_buf_out
	.type	log_buf_out, @function
log_buf_out:
.LFB5:
	.loc 1 45 1 is_stmt 1
	.cfi_startproc
.LVL2:
	.loc 1 46 5
	.loc 1 47 5
	.loc 1 49 5
	.loc 1 50 5
	.loc 1 51 5
	.loc 1 53 5
	.loc 1 55 5
	.loc 1 56 5
	.loc 1 56 22 is_stmt 0
	ble	a3,zero,.L35
	.loc 1 45 1
	addi	sp,sp,-80
	.cfi_def_cfa_offset 80
	.loc 1 62 7
	li	a5,50
	.loc 1 45 1
	sw	s1,68(sp)
	.cfi_offset 9, -12
	mv	s1,a4
	.loc 1 63 7
	rem	a4,a3,a5
.LVL3:
	.loc 1 45 1
	sw	s0,72(sp)
	sw	s4,56(sp)
	sw	s5,52(sp)
	sw	s8,40(sp)
	sw	ra,76(sp)
	sw	s2,64(sp)
	sw	s3,60(sp)
	sw	s6,48(sp)
	sw	s7,44(sp)
	sw	s9,36(sp)
	sw	s10,32(sp)
	sw	s11,28(sp)
	.cfi_offset 8, -8
	.cfi_offset 20, -24
	.cfi_offset 21, -28
	.cfi_offset 24, -40
	.cfi_offset 1, -4
	.cfi_offset 18, -16
	.cfi_offset 19, -20
	.cfi_offset 22, -32
	.cfi_offset 23, -36
	.cfi_offset 25, -44
	.cfi_offset 26, -48
	.cfi_offset 27, -52
	mv	s0,a2
	mv	s5,a1
	mv	s4,a0
	.loc 1 62 5 is_stmt 1
	.loc 1 63 7 is_stmt 0
	sw	a4,12(sp)
	.loc 1 62 7
	div	s8,a3,a5
.LVL4:
	.loc 1 63 5 is_stmt 1
	.loc 1 64 5
	.loc 1 64 8 is_stmt 0
	bne	a4,zero,.L9
	lui	s3,%hi(.LANCHOR0)
	.loc 1 127 32
	lui	s7,%hi(.LC0)
	.loc 1 132 32
	lui	s9,%hi(.LC1)
	mul	s8,s8,a5
.LVL5:
	add	s8,a2,s8
.LVL6:
.L10:
	.loc 1 121 9 discriminator 2
	beq	s8,s0,.L34
	.loc 1 122 17
	li	s6,0
	.loc 1 123 20
	li	s2,0
	.loc 1 124 17
	li	s10,1
	li	s11,2
.L31:
.LVL7:
	.loc 1 124 17 is_stmt 1
	lui	a5,%hi(.LANCHOR0)
	addi	a5,a5,%lo(.LANCHOR0)
	add	a4,s0,s2
	add	a0,a5,s6
	lbu	a2,0(a4)
	beq	s1,s10,.L27
	.loc 1 132 32 is_stmt 0
	addi	a1,s9,%lo(.LC1)
	.loc 1 124 17
	beq	s1,s11,.L51
	.loc 1 138 25 is_stmt 1
	.loc 1 138 32 is_stmt 0
	lui	a5,%hi(.LC2)
	addi	a1,a5,%lo(.LC2)
	j	.L51
.LVL8:
.L9:
	.loc 1 65 9 is_stmt 1
	.loc 1 69 5
	lui	s3,%hi(.LANCHOR0)
	.loc 1 64 8 is_stmt 0
	li	s6,0
	addi	s3,s3,%lo(.LANCHOR0)
	.loc 1 101 36
	lui	s9,%hi(.LC0)
	.loc 1 112 36
	lui	s10,%hi(.LC2)
	.loc 1 106 36
	lui	s11,%hi(.LC1)
.LVL9:
.L26:
	.loc 1 72 13 is_stmt 1
	.loc 1 74 21 is_stmt 0
	li	s2,0
	.loc 1 75 24
	li	s7,0
	.loc 1 72 16
	bne	s8,s6,.L11
.L16:
.LVL10:
	.loc 1 76 21 is_stmt 1
	add	a4,s0,s7
	li	a5,1
	add	a0,s3,s2
	lbu	a2,0(a4)
	beq	s1,a5,.L12
	li	a5,2
	.loc 1 84 36 is_stmt 0
	addi	a1,s11,%lo(.LC1)
	.loc 1 76 21
	beq	s1,a5,.L49
	.loc 1 90 29 is_stmt 1
	.loc 1 90 36 is_stmt 0
	addi	a1,s10,%lo(.LC2)
	j	.L49
.LVL11:
.L37:
	mv	s6,a5
	j	.L26
.LVL12:
.L12:
	.loc 1 79 29 is_stmt 1
	.loc 1 79 36 is_stmt 0
	slli	a2,a2,24
	srai	a2,a2,24
	addi	a1,s9,%lo(.LC0)
.L49:
	.loc 1 90 36
	call	sprintf
.LVL13:
	.loc 1 75 17
	lw	a5,12(sp)
	.loc 1 75 37
	addi	s7,s7,1
.LVL14:
	.loc 1 90 33
	add	s2,s2,a0
.LVL15:
	.loc 1 75 17
	bne	a5,s7,.L16
.L54:
	.loc 1 116 17 is_stmt 1
	.loc 1 116 22
	.loc 1 116 24
.LBB8:
.LBB9:
	.file 2 "/b-l/bl_iot_sdk/components/bl602/freertos_riscv_ram/portable/GCC/RISC-V/portmacro.h"
	.loc 2 151 5
	.loc 2 151 31 is_stmt 0
	lui	a4,%hi(TrapNetCounter)
.LBE9:
.LBE8:
	.loc 1 116 24
	lw	a4,%lo(TrapNetCounter)(a4)
	beq	a4,zero,.L24
	.loc 1 116 96 discriminator 1
	call	xTaskGetTickCountFromISR
.LVL16:
.L25:
	.loc 1 116 24 discriminator 4
	mv	a1,a0
	lui	a2,%hi(.LC3)
	lui	a0,%hi(.LC4)
	mv	a5,s2
	mv	a6,s3
	mv	a4,s5
	mv	a3,s4
	addi	a2,a2,%lo(.LC3)
	addi	a0,a0,%lo(.LC4)
	call	bl_printk
.LVL17:
	addi	a5,s6,1
.LVL18:
	addi	s0,s0,50
	.loc 1 71 9 discriminator 4
	bgt	s8,s6,.L37
.LVL19:
.L34:
	.loc 1 149 1
	lw	ra,76(sp)
	.cfi_remember_state
	.cfi_restore 1
	lw	s0,72(sp)
	.cfi_restore 8
	lw	s1,68(sp)
	.cfi_restore 9
	lw	s2,64(sp)
	.cfi_restore 18
	lw	s3,60(sp)
	.cfi_restore 19
	lw	s4,56(sp)
	.cfi_restore 20
.LVL20:
	lw	s5,52(sp)
	.cfi_restore 21
.LVL21:
	lw	s6,48(sp)
	.cfi_restore 22
	lw	s7,44(sp)
	.cfi_restore 23
	lw	s8,40(sp)
	.cfi_restore 24
	lw	s9,36(sp)
	.cfi_restore 25
	lw	s10,32(sp)
	.cfi_restore 26
	lw	s11,28(sp)
	.cfi_restore 27
	.loc 1 148 12
	li	a0,0
	.loc 1 149 1
	addi	sp,sp,80
	.cfi_def_cfa_offset 0
.LVL22:
	jr	ra
.LVL23:
.L20:
	.cfi_restore_state
	.loc 1 101 29 is_stmt 1
	.loc 1 101 36 is_stmt 0
	slli	a2,a2,24
	srai	a2,a2,24
	addi	a1,s9,%lo(.LC0)
.L50:
	.loc 1 112 36
	call	sprintf
.LVL24:
	.loc 1 97 40
	addi	s7,s7,1
.LVL25:
	.loc 1 97 17
	li	a5,50
	.loc 1 112 33
	add	s2,s2,a0
.LVL26:
	.loc 1 97 17
	beq	s7,a5,.L54
.LVL27:
.L11:
	.loc 1 98 21 is_stmt 1
	add	a4,s0,s7
	li	a5,1
	add	a0,s3,s2
	lbu	a2,0(a4)
	beq	s1,a5,.L20
	li	a5,2
	.loc 1 106 36 is_stmt 0
	addi	a1,s11,%lo(.LC1)
	.loc 1 98 21
	beq	s1,a5,.L50
	.loc 1 112 29 is_stmt 1
	.loc 1 112 36 is_stmt 0
	addi	a1,s10,%lo(.LC2)
	j	.L50
.L24:
	.loc 1 116 125 discriminator 2
	call	xTaskGetTickCount
.LVL28:
	j	.L25
.LVL29:
.L27:
	.loc 1 127 25 is_stmt 1
	.loc 1 127 32 is_stmt 0
	slli	a2,a2,24
	srai	a2,a2,24
	addi	a1,s7,%lo(.LC0)
.L51:
	.loc 1 138 32
	call	sprintf
.LVL30:
	.loc 1 123 36
	addi	s2,s2,1
.LVL31:
	.loc 1 123 13
	li	a4,50
.LVL32:
	.loc 1 138 29
	add	s6,s6,a0
.LVL33:
	.loc 1 123 13
	bne	s2,a4,.L31
	.loc 1 142 13 is_stmt 1
	.loc 1 142 18
	.loc 1 142 20
.LBB10:
.LBB11:
	.loc 2 151 5
	.loc 2 151 31 is_stmt 0
	lui	a4,%hi(TrapNetCounter)
.LVL34:
.LBE11:
.LBE10:
	.loc 1 142 20
	lw	a4,%lo(TrapNetCounter)(a4)
	beq	a4,zero,.L32
	.loc 1 142 92 discriminator 1
	call	xTaskGetTickCountFromISR
.LVL35:
.L33:
	.loc 1 142 20 discriminator 4
	mv	a1,a0
	lui	a2,%hi(.LC3)
	lui	a0,%hi(.LC4)
	addi	a6,s3,%lo(.LANCHOR0)
	mv	a5,s6
	mv	a4,s5
	mv	a3,s4
	addi	a2,a2,%lo(.LC3)
	addi	a0,a0,%lo(.LC4)
	call	bl_printk
.LVL36:
	.loc 1 142 192 is_stmt 1 discriminator 4
	addi	s0,s0,50
	j	.L10
.L32:
	.loc 1 142 121 is_stmt 0 discriminator 2
	call	xTaskGetTickCount
.LVL37:
	j	.L33
.LVL38:
.L35:
	.cfi_def_cfa_offset 0
	.cfi_restore 1
	.cfi_restore 8
	.cfi_restore 9
	.cfi_restore 18
	.cfi_restore 19
	.cfi_restore 20
	.cfi_restore 21
	.cfi_restore 22
	.cfi_restore 23
	.cfi_restore 24
	.cfi_restore 25
	.cfi_restore 26
	.cfi_restore 27
	.loc 1 59 16
	li	a0,-1
.LVL39:
	.loc 1 149 1
	ret
	.cfi_endproc
.LFE5:
	.size	log_buf_out, .-log_buf_out
	.section	.bss.log_buf,"aw",@nobits
	.align	2
	.set	.LANCHOR0,. + 0
	.type	log_buf, @object
	.size	log_buf, 512
log_buf:
	.zero	512
	.section	.rodata.log_buf_out.str1.4,"aMS",@progbits,1
	.align	2
.LC0:
	.string	"%3d "
	.zero	3
.LC1:
	.string	"%3u "
	.zero	3
.LC2:
	.string	"%02x "
	.zero	2
.LC3:
	.string	"\033[36mBUF\033[0m"
	.zero	3
.LC4:
	.string	"[%10u][%s: %s:%4d] %.*s\r\n"
	.text
.Letext0:
	.file 3 "/b-l/bl_iot_sdk/toolchain/riscv/Linux/riscv64-unknown-elf/include/machine/_default_types.h"
	.file 4 "/b-l/bl_iot_sdk/toolchain/riscv/Linux/lib/gcc/riscv64-unknown-elf/8.3.0/include/stdarg.h"
	.file 5 "/b-l/bl_iot_sdk/toolchain/riscv/Linux/riscv64-unknown-elf/include/stdio.h"
	.file 6 "/b-l/bl_iot_sdk/toolchain/riscv/Linux/lib/gcc/riscv64-unknown-elf/8.3.0/include/stddef.h"
	.file 7 "/b-l/bl_iot_sdk/toolchain/riscv/Linux/riscv64-unknown-elf/include/sys/_types.h"
	.file 8 "/b-l/bl_iot_sdk/toolchain/riscv/Linux/riscv64-unknown-elf/include/sys/reent.h"
	.file 9 "/b-l/bl_iot_sdk/toolchain/riscv/Linux/riscv64-unknown-elf/include/sys/lock.h"
	.file 10 "/b-l/bl_iot_sdk/toolchain/riscv/Linux/riscv64-unknown-elf/include/sys/_stdint.h"
	.file 11 "/b-l/bl_iot_sdk/components/utils/include/utils_log.h"
	.file 12 "/b-l/bl_iot_sdk/components/bl602/freertos_riscv_ram/config/task.h"