	.file	"utils_notifier.c"
	.option nopic
	.attribute arch, "rv32i2p0_m2p0_f2p0_c2p0"
	.attribute unaligned_access, 0
	.attribute stack_align, 16
	.text
.Ltext0:
	.cfi_sections	.debug_frame
	.section	.text.utils_notifier_chain_init,"ax",@progbits
	.align	1
	.globl	utils_notifier_chain_init
	.type	utils_notifier_chain_init, @function
utils_notifier_chain_init:
.LFB18:
	.file 1 "/b-l/bl_iot_sdk/components/utils/src/utils_notifier.c"
	.loc 1 34 1
	.cfi_startproc
.LVL0:
	.loc 1 35 5
	.loc 1 34 1 is_stmt 0
	addi	sp,sp,-16
	.cfi_def_cfa_offset 16
	sw	ra,12(sp)
	.cfi_offset 1, -4
	.loc 1 35 5
	call	utils_list_init
.LVL1:
	.loc 1 37 5 is_stmt 1
	.loc 1 38 1 is_stmt 0
	lw	ra,12(sp)
	.cfi_restore 1
	li	a0,0
	addi	sp,sp,16
	.cfi_def_cfa_offset 0
	jr	ra
	.cfi_endproc
.LFE18:
	.size	utils_notifier_chain_init, .-utils_notifier_chain_init
	.section	.text.utils_notifier_chain_register,"ax",@progbits
	.align	1
	.globl	utils_notifier_chain_register
	.type	utils_notifier_chain_register, @function
utils_notifier_chain_register:
.LFB19:
	.loc 1 41 1 is_stmt 1
	.cfi_startproc
.LVL2:
	.loc 1 42 5
	.loc 1 42 8 is_stmt 0
	beq	a0,zero,.L5
	.loc 1 43 16 discriminator 1
	li	a5,-1
	.loc 1 42 13 discriminator 1
	beq	a1,zero,.L8
	.loc 1 45 5 is_stmt 1
	.loc 1 41 1 is_stmt 0
	addi	sp,sp,-16
	.cfi_def_cfa_offset 16
	sw	ra,12(sp)
	.cfi_offset 1, -4
	.loc 1 45 5
	call	utils_list_push_back
.LVL3:
	.loc 1 47 5 is_stmt 1
	.loc 1 48 1 is_stmt 0
	lw	ra,12(sp)
	.cfi_restore 1
	.loc 1 47 12
	li	a5,0
	.loc 1 48 1
	mv	a0,a5
	addi	sp,sp,16
	.cfi_def_cfa_offset 0
	jr	ra
.LVL4:
.L5:
	.loc 1 43 16
	li	a5,-1
.L8:
	.loc 1 48 1
	mv	a0,a5
.LVL5:
	ret
	.cfi_endproc
.LFE19:
	.size	utils_notifier_chain_register, .-utils_notifier_chain_register
	.section	.text.utils_notifier_chain_call,"ax",@progbits
	.align	1
	.globl	utils_notifier_chain_call
	.type	utils_notifier_chain_call, @function
utils_notifier_chain_call:
.LFB20:
	.loc 1 51 1 is_stmt 1
	.cfi_startproc
.LVL6:
	.loc 1 52 5
	.loc 1 54 5
	.loc 1 54 8 is_stmt 0
	beq	a0,zero,.L22
	.loc 1 51 1
	addi	sp,sp,-16
	.cfi_def_cfa_offset 16
	sw	s1,4(sp)
	sw	ra,12(sp)
	sw	s0,8(sp)
	.cfi_offset 9, -12
	.cfi_offset 1, -4
	.cfi_offset 8, -8
	.loc 1 58 9
	lw	s0,0(a0)
	mv	s1,a1
	.loc 1 58 5 is_stmt 1
.LVL7:
	.loc 1 60 5
.L13:
	.loc 1 60 11 is_stmt 0
	bne	s0,zero,.L15
	.loc 1 68 1
	lw	ra,12(sp)
	.cfi_remember_state
	.cfi_restore 1
	lw	s0,8(sp)
	.cfi_restore 8
.LVL8:
	lw	s1,4(sp)
	.cfi_restore 9
.LVL9:
	li	a0,0
	addi	sp,sp,16
	.cfi_def_cfa_offset 0
	jr	ra
.LVL10:
.L15:
	.cfi_restore_state
	.loc 1 61 9 is_stmt 1
	.loc 1 61 16 is_stmt 0
	lw	a5,4(s0)
	.loc 1 61 12
	beq	a5,zero,.L14
	.loc 1 62 13 is_stmt 1
	lw	a0,8(s0)
	mv	a1,s1
	jalr	a5
.LVL11:
.L14:
	.loc 1 64 9
	.loc 1 64 13 is_stmt 0
	lw	s0,0(s0)
.LVL12:
	j	.L13
.LVL13:
.L22:
	.cfi_def_cfa_offset 0
	.cfi_restore 1
	.cfi_restore 8
	.cfi_restore 9
	.loc 1 68 1
	li	a0,0
.LVL14:
	ret
	.cfi_endproc
.LFE20:
	.size	utils_notifier_chain_call, .-utils_notifier_chain_call
	.text
.Letext0:
	.file 2 "/b-l/bl_iot_sdk/components/utils/include/utils_list.h"
	.file 3 "/b-l/bl_iot_sdk/components/utils/include/utils_notifier.h"