	.file	"bl602_ef_ctrl.c"
	.option nopic
	.attribute arch, "rv32i2p0_m2p0_f2p0_c2p0"
	.attribute unaligned_access, 0
	.attribute stack_align, 16
	.text
.Ltext0:
	.cfi_sections	.debug_frame
	.section	.text.EF_Ctrl_Get_Byte_Zero_Cnt,"ax",@progbits
	.align	1
	.type	EF_Ctrl_Get_Byte_Zero_Cnt, @function
EF_Ctrl_Get_Byte_Zero_Cnt:
.LFB32:
	.file 1 "/home/hogc/build-tools/sdk/bl/bl_iot_sdk/components/bl602/bl602_std/bl602_std/StdDriver/Src/bl602_ef_ctrl.c"
	.loc 1 779 1
	.cfi_startproc
.LVL0:
	.loc 1 780 5
	.loc 1 781 5
	.loc 1 782 5
	.loc 1 782 10 is_stmt 0
	li	a5,0
	.loc 1 780 14
	li	a4,0
	.loc 1 782 5
	li	a2,8
.LVL1:
.L3:
	.loc 1 783 9 is_stmt 1
	.loc 1 783 24 is_stmt 0
	sra	a3,a0,a5
	andi	a3,a3,1
	.loc 1 783 11
	bne	a3,zero,.L2
	.loc 1 784 13 is_stmt 1
	.loc 1 784 16 is_stmt 0
	addi	a4,a4,1
.LVL2:
.L2:
	.loc 1 782 18 discriminator 2
	addi	a5,a5,1
.LVL3:
	.loc 1 782 5 discriminator 2
	bne	a5,a2,.L3
	.loc 1 787 5 is_stmt 1
	.loc 1 788 1 is_stmt 0
	mv	a0,a4
.LVL4:
	ret
	.cfi_endproc
.LFE32:
	.size	EF_Ctrl_Get_Byte_Zero_Cnt, .-EF_Ctrl_Get_Byte_Zero_Cnt
	.section	.tcm_code,"ax",@progbits
	.align	1
	.weak	EF_Ctrl_Program_Efuse_0
	.type	EF_Ctrl_Program_Efuse_0, @function
EF_Ctrl_Program_Efuse_0:
.LFB9:
	.loc 1 139 1 is_stmt 1
	.cfi_startproc
	.loc 1 140 5
	.loc 1 143 5
.LVL5:
	.loc 1 152 5
	.loc 1 139 1 is_stmt 0
	addi	sp,sp,-16
	.cfi_def_cfa_offset 16
	.loc 1 152 61
	li	a5,2408448
	.loc 1 139 1
	sw	s0,8(sp)
	sw	s1,4(sp)
	sw	ra,12(sp)
	.cfi_offset 8, -8
	.cfi_offset 9, -12
	.cfi_offset 1, -4
	.loc 1 152 61
	li	s1,1073774592
	addi	a5,a5,-256
	.loc 1 164 61
	li	s0,2473984
	.loc 1 152 61
	sw	a5,-2048(s1)
	.loc 1 155 5 is_stmt 1
.LVL6:
	.loc 1 164 5
	.loc 1 164 61 is_stmt 0
	addi	a5,s0,-248
	sw	a5,-2048(s1)
	.loc 1 167 5 is_stmt 1
	.loc 1 179 61 is_stmt 0
	addi	s0,s0,-232
	.loc 1 167 5
	li	a0,4
	call	BL602_Delay_US
.LVL7:
	.loc 1 170 5 is_stmt 1
	.loc 1 179 5
	.loc 1 179 61 is_stmt 0
	sw	s0,-2048(s1)
	.loc 1 180 1
	lw	ra,12(sp)
	.cfi_restore 1
	lw	s0,8(sp)
	.cfi_restore 8
	lw	s1,4(sp)
	.cfi_restore 9
	addi	sp,sp,16
	.cfi_def_cfa_offset 0
	jr	ra
	.cfi_endproc
.LFE9:
	.size	EF_Ctrl_Program_Efuse_0, .-EF_Ctrl_Program_Efuse_0
	.align	1
	.weak	EF_Ctrl_Busy
	.type	EF_Ctrl_Busy, @function
EF_Ctrl_Busy:
.LFB11:
	.loc 1 266 1 is_stmt 1
	.cfi_startproc
	.loc 1 267 5
	.loc 1 269 5
	.loc 1 269 11 is_stmt 0
	li	a5,1073774592
	lw	a0,-2048(a5)
.LVL8:
	.loc 1 270 5 is_stmt 1
	.loc 1 270 7 is_stmt 0
	srli	a0,a0,2
.LVL9:
	.loc 1 275 1
	andi	a0,a0,1
	ret
	.cfi_endproc
.LFE11:
	.size	EF_Ctrl_Busy, .-EF_Ctrl_Busy
	.align	1
	.weak	EF_Ctrl_Sw_AHB_Clk_0
	.type	EF_Ctrl_Sw_AHB_Clk_0, @function
EF_Ctrl_Sw_AHB_Clk_0:
.LFB8:
	.loc 1 103 1 is_stmt 1
	.cfi_startproc
	.loc 1 104 5
	.loc 1 105 5
.LVL10:
	.loc 1 107 5
	.loc 1 103 1 is_stmt 0
	addi	sp,sp,-16
	.cfi_def_cfa_offset 16
	sw	s0,8(sp)
	.cfi_offset 8, -8
	.loc 1 107 10
	li	s0,159744
	.loc 1 103 1
	sw	s1,4(sp)
	sw	ra,12(sp)
	.cfi_offset 9, -12
	.cfi_offset 1, -4
	.loc 1 107 10
	addi	s0,s0,256
	li	s1,1
.LVL11:
.L9:
	.loc 1 107 11
	call	EF_Ctrl_Busy
.LVL12:
	.loc 1 107 10
	bne	a0,s1,.L10
	.loc 1 108 9 is_stmt 1
.LVL13:
	.loc 1 109 9
	addi	s0,s0,-1
.LVL14:
	.loc 1 109 11 is_stmt 0
	bne	s0,zero,.L9
.L10:
	.loc 1 114 5 is_stmt 1
.LVL15:
	.loc 1 124 5
	.loc 1 124 61 is_stmt 0
	li	a5,2408448
	li	a4,1073774592
	addi	a5,a5,-128
	sw	a5,-2048(a4)
	.loc 1 125 1
	lw	ra,12(sp)
	.cfi_restore 1
	lw	s0,8(sp)
	.cfi_restore 8
.LVL16:
	lw	s1,4(sp)
	.cfi_restore 9
	addi	sp,sp,16
	.cfi_def_cfa_offset 0
	jr	ra
	.cfi_endproc
.LFE8:
	.size	EF_Ctrl_Sw_AHB_Clk_0, .-EF_Ctrl_Sw_AHB_Clk_0
	.align	1
	.weak	EF_Ctrl_AutoLoad_Done
	.type	EF_Ctrl_AutoLoad_Done, @function
EF_Ctrl_AutoLoad_Done:
.LFB12:
	.loc 1 289 1 is_stmt 1
	.cfi_startproc
	.loc 1 290 5
	.loc 1 292 5
	.loc 1 292 11 is_stmt 0
	li	a5,1073774592
	lw	a0,-2048(a5)
.LVL17:
	.loc 1 294 5 is_stmt 1
	.loc 1 294 7 is_stmt 0
	srli	a0,a0,1
.LVL18:
	.loc 1 299 1
	andi	a0,a0,1
	ret
	.cfi_endproc
.LFE12:
	.size	EF_Ctrl_AutoLoad_Done, .-EF_Ctrl_AutoLoad_Done
	.section	.text.EF_Ctrl_Write_Dbg_Pwd,"ax",@progbits
	.align	1
	.globl	EF_Ctrl_Write_Dbg_Pwd
	.type	EF_Ctrl_Write_Dbg_Pwd, @function
EF_Ctrl_Write_Dbg_Pwd:
.LFB13:
	.loc 1 313 1 is_stmt 1
	.cfi_startproc
.LVL19:
	.loc 1 315 5
	.loc 1 313 1 is_stmt 0
	addi	sp,sp,-32
	.cfi_def_cfa_offset 32
	sw	a0,12(sp)
	sw	a1,8(sp)
	sw	a2,4(sp)
	sw	ra,28(sp)
	.cfi_offset 1, -4
	.loc 1 315 5
	call	EF_Ctrl_Sw_AHB_Clk_0
.LVL20:
	.loc 1 317 5 is_stmt 1
	.loc 1 317 59 is_stmt 0
	lw	a0,12(sp)
	li	a5,1073770496
	sw	a0,4(a5)
.LVL21:
	.loc 1 318 5 is_stmt 1
	.loc 1 318 59 is_stmt 0
	lw	a1,8(sp)
	sw	a1,8(a5)
	.loc 1 320 5 is_stmt 1
	.loc 1 320 7 is_stmt 0
	lw	a2,4(sp)
	beq	a2,zero,.L17
	.loc 1 321 9 is_stmt 1
	.loc 1 323 1 is_stmt 0
	lw	ra,28(sp)
	.cfi_remember_state
	.cfi_restore 1
	addi	sp,sp,32
	.cfi_def_cfa_offset 0
	.loc 1 321 9
	tail	EF_Ctrl_Program_Efuse_0
.LVL22:
.L17:
	.cfi_restore_state
	.loc 1 323 1
	lw	ra,28(sp)
	.cfi_restore 1
	addi	sp,sp,32
	.cfi_def_cfa_offset 0
	jr	ra
	.cfi_endproc
.LFE13:
	.size	EF_Ctrl_Write_Dbg_Pwd, .-EF_Ctrl_Write_Dbg_Pwd
	.section	.text.EF_Ctrl_Readlock_Dbg_Pwd,"ax",@progbits
	.align	1
	.globl	EF_Ctrl_Readlock_Dbg_Pwd
	.type	EF_Ctrl_Readlock_Dbg_Pwd, @function
EF_Ctrl_Readlock_Dbg_Pwd:
.LFB15:
	.loc 1 352 1 is_stmt 1
	.cfi_startproc
.LVL23:
	.loc 1 353 5
	.loc 1 356 5
	.loc 1 352 1 is_stmt 0
	addi	sp,sp,-32
	.cfi_def_cfa_offset 32
	sw	a0,12(sp)
	sw	ra,28(sp)
	.cfi_offset 1, -4
	.loc 1 356 5
	call	EF_Ctrl_Sw_AHB_Clk_0
.LVL24:
	.loc 1 358 5 is_stmt 1
	.loc 1 358 11 is_stmt 0
	li	a4,1073770496
	lw	a5,124(a4)
.LVL25:
	.loc 1 359 5 is_stmt 1
	.loc 1 359 11 is_stmt 0
	li	a3,33554432
	or	a5,a5,a3
.LVL26:
	.loc 1 360 5 is_stmt 1
	.loc 1 360 60 is_stmt 0
	sw	a5,124(a4)
	.loc 1 362 5 is_stmt 1
	.loc 1 362 7 is_stmt 0
	lw	a0,12(sp)
	beq	a0,zero,.L20
	.loc 1 363 9 is_stmt 1
	.loc 1 365 1 is_stmt 0
	lw	ra,28(sp)
	.cfi_remember_state
	.cfi_restore 1
	addi	sp,sp,32
	.cfi_def_cfa_offset 0
	.loc 1 363 9
	tail	EF_Ctrl_Program_Efuse_0
.LVL27:
.L20:
	.cfi_restore_state
	.loc 1 365 1
	lw	ra,28(sp)
	.cfi_restore 1
	addi	sp,sp,32
	.cfi_def_cfa_offset 0
	jr	ra
	.cfi_endproc
.LFE15:
	.size	EF_Ctrl_Readlock_Dbg_Pwd, .-EF_Ctrl_Readlock_Dbg_Pwd
	.section	.text.EF_Ctrl_Writelock_Dbg_Pwd,"ax",@progbits
	.align	1
	.globl	EF_Ctrl_Writelock_Dbg_Pwd
	.type	EF_Ctrl_Writelock_Dbg_Pwd, @function
EF_Ctrl_Writelock_Dbg_Pwd:
.LFB16:
	.loc 1 376 1 is_stmt 1
	.cfi_startproc
.LVL28:
	.loc 1 377 5
	.loc 1 380 5
	.loc 1 376 1 is_stmt 0
	addi	sp,sp,-32
	.cfi_def_cfa_offset 32
	sw	a0,12(sp)
	sw	ra,28(sp)
	.cfi_offset 1, -4
	.loc 1 380 5
	call	EF_Ctrl_Sw_AHB_Clk_0
.LVL29:
	.loc 1 382 5 is_stmt 1
	.loc 1 382 11 is_stmt 0
	li	a4,1073770496
	lw	a5,124(a4)
.LVL30:
	.loc 1 383 5 is_stmt 1
	.loc 1 383 11 is_stmt 0
	li	a3,65536
	or	a5,a5,a3
.LVL31:
	.loc 1 384 5 is_stmt 1
	.loc 1 384 60 is_stmt 0
	sw	a5,124(a4)
	.loc 1 386 5 is_stmt 1
	.loc 1 386 7 is_stmt 0
	lw	a0,12(sp)
	beq	a0,zero,.L23
	.loc 1 387 9 is_stmt 1
	.loc 1 389 1 is_stmt 0
	lw	ra,28(sp)
	.cfi_remember_state
	.cfi_restore 1
	addi	sp,sp,32
	.cfi_def_cfa_offset 0
	.loc 1 387 9
	tail	EF_Ctrl_Program_Efuse_0
.LVL32:
.L23:
	.cfi_restore_state
	.loc 1 389 1
	lw	ra,28(sp)
	.cfi_restore 1
	addi	sp,sp,32
	.cfi_def_cfa_offset 0
	jr	ra
	.cfi_endproc
.LFE16:
	.size	EF_Ctrl_Writelock_Dbg_Pwd, .-EF_Ctrl_Writelock_Dbg_Pwd
	.section	.text.EF_Ctrl_Write_Secure_Cfg,"ax",@progbits
	.align	1
	.globl	EF_Ctrl_Write_Secure_Cfg
	.type	EF_Ctrl_Write_Secure_Cfg, @function
EF_Ctrl_Write_Secure_Cfg:
.LFB17:
	.loc 1 401 1 is_stmt 1
	.cfi_startproc
.LVL33:
	.loc 1 402 5
	.loc 1 404 5
	.loc 1 404 11 is_stmt 0
	li	a3,1073770496
	lw	a4,0(a3)
.LVL34:
	.loc 1 405 5 is_stmt 1
	.loc 1 405 56 is_stmt 0
	lbu	a5,0(a0)
	.loc 1 405 24
	slli	a4,a4,4
.LVL35:
	srli	a4,a4,4
.LVL36:
	.loc 1 406 5 is_stmt 1
	.loc 1 405 84 is_stmt 0
	slli	a5,a5,28
	.loc 1 405 11
	or	a5,a5,a4
.LVL37:
	.loc 1 406 24
	li	a4,-201326592
	addi	a4,a4,-1
	and	a4,a5,a4
.LVL38:
	.loc 1 407 5 is_stmt 1
	.loc 1 406 56 is_stmt 0
	lbu	a5,1(a0)
	.loc 1 406 90
	slli	a5,a5,26
	.loc 1 406 11
	or	a5,a5,a4
	.loc 1 407 55
	lbu	a4,2(a0)
.LVL39:
	.loc 1 407 24
	andi	a5,a5,-49
	.loc 1 407 83
	slli	a4,a4,4
	.loc 1 407 11
	or	a5,a4,a5
.LVL40:
	.loc 1 408 5 is_stmt 1
	.loc 1 408 59 is_stmt 0
	sw	a5,0(a3)
	.loc 1 410 5 is_stmt 1
	.loc 1 410 7 is_stmt 0
	beq	a1,zero,.L26
	.loc 1 411 9 is_stmt 1
	tail	EF_Ctrl_Program_Efuse_0
.LVL41:
.L26:
	.loc 1 413 1 is_stmt 0
	ret
	.cfi_endproc
.LFE17:
	.size	EF_Ctrl_Write_Secure_Cfg, .-EF_Ctrl_Write_Secure_Cfg
	.section	.text.EF_Ctrl_Write_Secure_Boot,"ax",@progbits
	.align	1
	.globl	EF_Ctrl_Write_Secure_Boot
	.type	EF_Ctrl_Write_Secure_Boot, @function
EF_Ctrl_Write_Secure_Boot:
.LFB19:
	.loc 1 449 1 is_stmt 1
	.cfi_startproc
.LVL42:
	.loc 1 450 5
	.loc 1 453 5
	.loc 1 449 1 is_stmt 0
	addi	sp,sp,-32
	.cfi_def_cfa_offset 32
	sw	a0,12(sp)
	sw	a1,8(sp)
	sw	a2,4(sp)
	sw	ra,28(sp)
	.cfi_offset 1, -4
	.loc 1 453 5
	call	EF_Ctrl_Sw_AHB_Clk_0
.LVL43:
	.loc 1 455 5 is_stmt 1
	.loc 1 455 11 is_stmt 0
	li	a5,1073770496
	lw	a5,0(a5)
.LVL44:
	.loc 1 457 5 is_stmt 1
	.loc 1 457 55 is_stmt 0
	lw	a0,12(sp)
	.loc 1 459 11
	lw	a1,8(sp)
	.loc 1 457 24
	andi	a4,a5,-13
	.loc 1 457 55
	lbu	a5,0(a0)
.LVL45:
	.loc 1 459 7
	lw	a2,4(sp)
	.loc 1 457 74
	slli	a5,a5,2
	.loc 1 457 11
	or	a5,a5,a4
.LVL46:
	.loc 1 459 5 is_stmt 1
	.loc 1 459 11 is_stmt 0
	lbu	a4,0(a1)
	.loc 1 459 7
	beq	a4,zero,.L29
	.loc 1 460 9 is_stmt 1
	.loc 1 460 28 is_stmt 0
	andi	a5,a5,-4
.LVL47:
	.loc 1 460 15
	or	a5,a4,a5
.LVL48:
	.loc 1 461 9 is_stmt 1
	.loc 1 461 15 is_stmt 0
	ori	a5,a5,128
.LVL49:
.L29:
	.loc 1 464 5 is_stmt 1
	.loc 1 464 59 is_stmt 0
	li	a4,1073770496
	sw	a5,0(a4)
.LVL50:
	.loc 1 466 5 is_stmt 1
	.loc 1 466 7 is_stmt 0
	beq	a2,zero,.L28
	.loc 1 467 9 is_stmt 1
	.loc 1 469 1 is_stmt 0
	lw	ra,28(sp)
	.cfi_remember_state
	.cfi_restore 1
	addi	sp,sp,32
	.cfi_def_cfa_offset 0
	.loc 1 467 9
	tail	EF_Ctrl_Program_Efuse_0
.LVL51:
.L28:
	.cfi_restore_state
	.loc 1 469 1
	lw	ra,28(sp)
	.cfi_restore 1
	addi	sp,sp,32
	.cfi_def_cfa_offset 0
	jr	ra
	.cfi_endproc
.LFE19:
	.size	EF_Ctrl_Write_Secure_Boot, .-EF_Ctrl_Write_Secure_Boot
	.section	.sclock_rlt_code,"ax",@progbits
	.align	1
	.weak	EF_Ctrl_Get_Trim_Parity
	.type	EF_Ctrl_Get_Trim_Parity, @function
EF_Ctrl_Get_Trim_Parity:
.LFB22:
	.loc 1 533 1 is_stmt 1
	.cfi_startproc
.LVL52:
	.loc 1 534 5
	.loc 1 535 5
	.loc 1 537 5
	li	a4,0
	.loc 1 534 13 is_stmt 0
	li	a5,0
	.loc 1 538 18
	li	a2,1
.LVL53:
.L36:
	.loc 1 537 5 discriminator 1
	andi	a3,a4,0xff
	bgtu	a1,a3,.L38
	.loc 1 543 5 is_stmt 1
	.loc 1 544 1 is_stmt 0
	andi	a0,a5,1
.LVL54:
	ret
.LVL55:
.L38:
	.loc 1 538 9 is_stmt 1
	.loc 1 538 18 is_stmt 0
	sll	a3,a2,a4
	.loc 1 538 15
	and	a3,a3,a0
	.loc 1 538 11
	beq	a3,zero,.L37
	.loc 1 539 13 is_stmt 1
	.loc 1 539 16 is_stmt 0
	addi	a5,a5,1
.LVL56:
	andi	a5,a5,0xff
.LVL57:
.L37:
	addi	a4,a4,1
.LVL58:
	j	.L36
	.cfi_endproc
.LFE22:
	.size	EF_Ctrl_Get_Trim_Parity, .-EF_Ctrl_Get_Trim_Parity
	.section	.text.EF_Ctrl_Write_Ana_Trim,"ax",@progbits
	.align	1
	.globl	EF_Ctrl_Write_Ana_Trim
	.type	EF_Ctrl_Write_Ana_Trim, @function
EF_Ctrl_Write_Ana_Trim:
.LFB23:
	.loc 1 558 1 is_stmt 1
	.cfi_startproc
.LVL59:
	.loc 1 560 5
	.loc 1 558 1 is_stmt 0
	addi	sp,sp,-32
	.cfi_def_cfa_offset 32
	sw	a0,12(sp)
	sw	a2,4(sp)
	sw	ra,28(sp)
	.cfi_offset 1, -4
	.loc 1 558 1
	sw	a1,8(sp)
	.loc 1 560 5
	call	EF_Ctrl_Sw_AHB_Clk_0
.LVL60:
	.loc 1 562 5 is_stmt 1
	.loc 1 562 7 is_stmt 0
	lw	a0,12(sp)
	lw	a2,4(sp)
	bne	a0,zero,.L43
	.loc 1 563 9 is_stmt 1
	.loc 1 563 63 is_stmt 0
	lw	a1,8(sp)
	li	a5,1073770496
	sw	a1,12(a5)
.LVL61:
.L43:
	.loc 1 566 5 is_stmt 1
	.loc 1 566 7 is_stmt 0
	beq	a2,zero,.L42
	.loc 1 567 9 is_stmt 1
	.loc 1 569 1 is_stmt 0
	lw	ra,28(sp)
	.cfi_remember_state
	.cfi_restore 1
	addi	sp,sp,32
	.cfi_def_cfa_offset 0
	.loc 1 567 9
	tail	EF_Ctrl_Program_Efuse_0
.LVL62:
.L42:
	.cfi_restore_state
	.loc 1 569 1
	lw	ra,28(sp)
	.cfi_restore 1
	addi	sp,sp,32
	.cfi_def_cfa_offset 0
	jr	ra
	.cfi_endproc
.LFE23:
	.size	EF_Ctrl_Write_Ana_Trim, .-EF_Ctrl_Write_Ana_Trim
	.section	.text.EF_Ctrl_Write_Sw_Usage,"ax",@progbits
	.align	1
	.globl	EF_Ctrl_Write_Sw_Usage
	.type	EF_Ctrl_Write_Sw_Usage, @function
EF_Ctrl_Write_Sw_Usage:
.LFB28:
	.loc 1 679 1 is_stmt 1
	.cfi_startproc
.LVL63:
	.loc 1 681 5
	.loc 1 679 1 is_stmt 0
	addi	sp,sp,-32
	.cfi_def_cfa_offset 32
	sw	a0,12(sp)
	sw	a2,4(sp)
	sw	ra,28(sp)
	.cfi_offset 1, -4
	.loc 1 679 1
	sw	a1,8(sp)
	.loc 1 681 5
	call	EF_Ctrl_Sw_AHB_Clk_0
.LVL64:
	.loc 1 683 5 is_stmt 1
	.loc 1 683 7 is_stmt 0
	lw	a0,12(sp)
	lw	a2,4(sp)
	bne	a0,zero,.L47
	.loc 1 684 9 is_stmt 1
	.loc 1 684 64 is_stmt 0
	lw	a1,8(sp)
	li	a5,1073770496
	sw	a1,16(a5)
.LVL65:
.L47:
	.loc 1 687 5 is_stmt 1
	.loc 1 687 7 is_stmt 0
	beq	a2,zero,.L46
	.loc 1 688 9 is_stmt 1
	.loc 1 690 1 is_stmt 0
	lw	ra,28(sp)
	.cfi_remember_state
	.cfi_restore 1
	addi	sp,sp,32
	.cfi_def_cfa_offset 0
	.loc 1 688 9
	tail	EF_Ctrl_Program_Efuse_0
.LVL66:
.L46:
	.cfi_restore_state
	.loc 1 690 1
	lw	ra,28(sp)
	.cfi_restore 1
	addi	sp,sp,32
	.cfi_def_cfa_offset 0
	jr	ra
	.cfi_endproc
.LFE28:
	.size	EF_Ctrl_Write_Sw_Usage, .-EF_Ctrl_Write_Sw_Usage
	.section	.text.EF_Ctrl_Writelock_Sw_Usage,"ax",@progbits
	.align	1
	.globl	EF_Ctrl_Writelock_Sw_Usage
	.type	EF_Ctrl_Writelock_Sw_Usage, @function
EF_Ctrl_Writelock_Sw_Usage:
.LFB30:
	.loc 1 723 1 is_stmt 1
	.cfi_startproc
.LVL67:
	.loc 1 724 5
	.loc 1 727 5
	.loc 1 723 1 is_stmt 0
	addi	sp,sp,-32
	.cfi_def_cfa_offset 32
	sw	a0,12(sp)
	sw	a1,8(sp)
	sw	ra,28(sp)
	.cfi_offset 1, -4
	.loc 1 727 5
	call	EF_Ctrl_Sw_AHB_Clk_0
.LVL68:
	.loc 1 729 5 is_stmt 1
	.loc 1 729 11 is_stmt 0
	li	a5,1073770496
	.loc 1 731 7
	lw	a0,12(sp)
	.loc 1 729 11
	lw	a5,124(a5)
.LVL69:
	.loc 1 731 5 is_stmt 1
	.loc 1 731 7 is_stmt 0
	lw	a1,8(sp)
	bne	a0,zero,.L51
	.loc 1 732 9 is_stmt 1
	.loc 1 732 15 is_stmt 0
	li	a4,131072
	or	a5,a5,a4
.LVL70:
.L51:
	.loc 1 734 5 is_stmt 1
	.loc 1 734 60 is_stmt 0
	li	a4,1073770496
	sw	a5,124(a4)
.LVL71:
	.loc 1 736 5 is_stmt 1
	.loc 1 736 7 is_stmt 0
	beq	a1,zero,.L50
	.loc 1 737 9 is_stmt 1
	.loc 1 739 1 is_stmt 0
	lw	ra,28(sp)
	.cfi_remember_state
	.cfi_restore 1
	addi	sp,sp,32
	.cfi_def_cfa_offset 0
	.loc 1 737 9
	tail	EF_Ctrl_Program_Efuse_0
.LVL72:
.L50:
	.cfi_restore_state
	.loc 1 739 1
	lw	ra,28(sp)
	.cfi_restore 1
	addi	sp,sp,32
	.cfi_def_cfa_offset 0
	jr	ra
	.cfi_endproc
.LFE30:
	.size	EF_Ctrl_Writelock_Sw_Usage, .-EF_Ctrl_Writelock_Sw_Usage
	.section	.text.EF_Ctrl_Write_MAC_Address,"ax",@progbits
	.align	1
	.globl	EF_Ctrl_Write_MAC_Address
	.type	EF_Ctrl_Write_MAC_Address, @function
EF_Ctrl_Write_MAC_Address:
.LFB31:
	.loc 1 751 1 is_stmt 1
	.cfi_startproc
.LVL73:
	.loc 1 752 5
	.loc 1 751 1 is_stmt 0
	addi	sp,sp,-32
	.cfi_def_cfa_offset 32
.LVL74:
	.loc 1 753 5 is_stmt 1
	.loc 1 754 5
	.loc 1 757 5
	.loc 1 751 1 is_stmt 0
	sw	a0,12(sp)
.LVL75:
	sw	a1,8(sp)
	sw	ra,28(sp)
	.cfi_offset 1, -4
	.loc 1 757 5
	call	EF_Ctrl_Sw_AHB_Clk_0
.LVL76:
	.loc 1 760 5 is_stmt 1
	lw	a0,12(sp)
	lbu	a4,1(a0)
	lbu	a5,0(a0)
	slli	a4,a4,8
	or	a4,a4,a5
	lbu	a5,2(a0)
	slli	a5,a5,16
	or	a4,a5,a4
	lbu	a5,3(a0)
	slli	a5,a5,24
	or	a5,a5,a4
	.loc 1 760 60 is_stmt 0
	li	a4,1073770496
	sw	a5,20(a4)
.LVL77:
	.loc 1 762 5 is_stmt 1
	.loc 1 762 31 is_stmt 0
	lbu	a5,5(a0)
	.loc 1 762 19
	lbu	a3,4(a0)
	.loc 1 762 34
	slli	a5,a5,8
	.loc 1 762 22
	add	a5,a5,a3
.LVL78:
	.loc 1 763 5 is_stmt 1
	.loc 1 763 60 is_stmt 0
	sw	a5,24(a4)
	.loc 1 765 5 is_stmt 1
	.loc 1 765 7 is_stmt 0
	lw	a1,8(sp)
	beq	a1,zero,.L54
	.loc 1 766 9 is_stmt 1
	.loc 1 768 1 is_stmt 0
	lw	ra,28(sp)
	.cfi_remember_state
	.cfi_restore 1
	addi	sp,sp,32
	.cfi_def_cfa_offset 0
	.loc 1 766 9
	tail	EF_Ctrl_Program_Efuse_0
.LVL79:
.L54:
	.cfi_restore_state
	.loc 1 768 1
	lw	ra,28(sp)
	.cfi_restore 1
	addi	sp,sp,32
	.cfi_def_cfa_offset 0
	jr	ra
	.cfi_endproc
.LFE31:
	.size	EF_Ctrl_Write_MAC_Address, .-EF_Ctrl_Write_MAC_Address
	.section	.text.EF_Ctrl_Writelock_MAC_Address,"ax",@progbits
	.align	1
	.globl	EF_Ctrl_Writelock_MAC_Address
	.type	EF_Ctrl_Writelock_MAC_Address, @function
EF_Ctrl_Writelock_MAC_Address:
.LFB35:
	.loc 1 870 1 is_stmt 1
	.cfi_startproc
.LVL80:
	.loc 1 871 5
	.loc 1 874 5
	.loc 1 870 1 is_stmt 0
	addi	sp,sp,-32
	.cfi_def_cfa_offset 32
	sw	a0,12(sp)
	sw	ra,28(sp)
	.cfi_offset 1, -4
	.loc 1 874 5
	call	EF_Ctrl_Sw_AHB_Clk_0
.LVL81:
	.loc 1 876 5 is_stmt 1
	.loc 1 876 11 is_stmt 0
	li	a4,1073770496
	lw	a5,124(a4)
.LVL82:
	.loc 1 877 5 is_stmt 1
	.loc 1 877 11 is_stmt 0
	li	a3,262144
	or	a5,a5,a3
.LVL83:
	.loc 1 878 5 is_stmt 1
	.loc 1 878 60 is_stmt 0
	sw	a5,124(a4)
	.loc 1 880 5 is_stmt 1
	.loc 1 880 7 is_stmt 0
	lw	a0,12(sp)
	beq	a0,zero,.L57
	.loc 1 881 9 is_stmt 1
	.loc 1 883 1 is_stmt 0
	lw	ra,28(sp)
	.cfi_remember_state
	.cfi_restore 1
	addi	sp,sp,32
	.cfi_def_cfa_offset 0
	.loc 1 881 9
	tail	EF_Ctrl_Program_Efuse_0
.LVL84:
.L57:
	.cfi_restore_state
	.loc 1 883 1
	lw	ra,28(sp)
	.cfi_restore 1
	addi	sp,sp,32
	.cfi_def_cfa_offset 0
	jr	ra
	.cfi_endproc
.LFE35:
	.size	EF_Ctrl_Writelock_MAC_Address, .-EF_Ctrl_Writelock_MAC_Address
	.section	.text.EF_Ctrl_Is_All_Bits_Zero,"ax",@progbits
	.align	1
	.globl	EF_Ctrl_Is_All_Bits_Zero
	.type	EF_Ctrl_Is_All_Bits_Zero, @function
EF_Ctrl_Is_All_Bits_Zero:
.LFB36:
	.loc 1 896 1 is_stmt 1
	.cfi_startproc
.LVL85:
	.loc 1 897 5
	.loc 1 899 5
	.loc 1 900 7 is_stmt 0
	li	a5,31
	.loc 1 899 8
	srl	a0,a0,a1
.LVL86:
	.loc 1 900 5 is_stmt 1
	.loc 1 900 7 is_stmt 0
	bgtu	a2,a5,.L62
	.loc 1 903 9 is_stmt 1
	.loc 1 903 16 is_stmt 0
	li	a5,1
	sll	a2,a5,a2
.LVL87:
	.loc 1 903 22
	addi	a2,a2,-1
.LVL88:
.L61:
	.loc 1 906 5 is_stmt 1
	.loc 1 906 12 is_stmt 0
	and	a0,a2,a0
.LVL89:
	.loc 1 911 1
	seqz	a0,a0
	ret
.LVL90:
.L62:
	.loc 1 901 13
	li	a2,-1
.LVL91:
	j	.L61
	.cfi_endproc
.LFE36:
	.size	EF_Ctrl_Is_All_Bits_Zero, .-EF_Ctrl_Is_All_Bits_Zero
	.section	.text.EF_Ctrl_Write_MAC_Address_Opt,"ax",@progbits
	.align	1
	.globl	EF_Ctrl_Write_MAC_Address_Opt
	.type	EF_Ctrl_Write_MAC_Address_Opt, @function
EF_Ctrl_Write_MAC_Address_Opt:
.LFB38:
	.loc 1 973 1 is_stmt 1
	.cfi_startproc
.LVL92:
	.loc 1 974 5
	.loc 1 975 5
	.loc 1 976 5
	.loc 1 977 5
	.loc 1 979 5
	.loc 1 979 7 is_stmt 0
	li	a5,2
	bgtu	a0,a5,.L75
	.loc 1 973 1
	addi	sp,sp,-32
	.cfi_def_cfa_offset 32
	sw	ra,28(sp)
	sw	s0,24(sp)
	sw	s1,20(sp)
	sw	s2,16(sp)
	sw	s3,12(sp)
	sw	s4,8(sp)
	sw	s5,4(sp)
	sw	s6,0(sp)
	.cfi_offset 1, -4
	.cfi_offset 8, -8
	.cfi_offset 9, -12
	.cfi_offset 18, -16
	.cfi_offset 19, -20
	.cfi_offset 20, -24
	.cfi_offset 21, -28
	.cfi_offset 22, -32
	mv	a4,a1
	addi	a5,a1,5
	addi	a3,a1,2
.LVL93:
.L65:
	.loc 1 985 9 is_stmt 1 discriminator 3
	.loc 1 986 19 is_stmt 0 discriminator 3
	lbu	a7,0(a5)
	.loc 1 985 19 discriminator 3
	lbu	a6,0(a4)
.LVL94:
	.loc 1 986 9 is_stmt 1 discriminator 3
	addi	a5,a5,-1
	.loc 1 986 15 is_stmt 0 discriminator 3
	sb	a7,0(a4)
	.loc 1 987 9 is_stmt 1 discriminator 3
	.loc 1 987 17 is_stmt 0 discriminator 3
	sb	a6,1(a5)
.LVL95:
	addi	a4,a4,1
.LVL96:
	.loc 1 984 5 discriminator 3
	bne	a3,a5,.L65
	.loc 1 989 7
	li	a5,2
	mv	s3,a2
	mv	s0,a1
	mv	s2,a0
	.loc 1 989 5 is_stmt 1
	.loc 1 989 7 is_stmt 0
	bne	a0,a5,.L66
.LVL97:
	.loc 1 991 9 is_stmt 1
	call	EF_Ctrl_Sw_AHB_Clk_0
.LVL98:
	.loc 1 998 5
	.loc 1 1002 11
	.loc 1 1003 9
	lbu	a4,1(s0)
	lbu	a5,0(s0)
	slli	a4,a4,8
	or	a4,a4,a5
	lbu	a5,2(s0)
	slli	a5,a5,16
	or	a4,a5,a4
	lbu	a5,3(s0)
	slli	a5,a5,24
	or	a5,a5,a4
	.loc 1 1003 63 is_stmt 0
	li	a4,1073770496
	sw	a5,4(a4)
.L67:
	.loc 1 1006 5 is_stmt 1
	.loc 1 1006 31 is_stmt 0
	lbu	s1,5(s0)
	.loc 1 1006 19
	lbu	s4,4(s0)
	.loc 1 1008 10
	li	s5,0
	.loc 1 1006 34
	slli	s1,s1,8
	.loc 1 1006 22
	add	s4,s1,s4
.LVL99:
	.loc 1 1007 5 is_stmt 1
	.loc 1 1008 5
	li	s6,6
	.loc 1 1007 8 is_stmt 0
	li	s1,0
.LVL100:
.L69:
	.loc 1 1009 9 is_stmt 1 discriminator 3
	.loc 1 1009 14 is_stmt 0 discriminator 3
	add	a5,s0,s5
	lbu	a0,0(a5)
	.loc 1 1008 18 discriminator 3
	addi	s5,s5,1
.LVL101:
	.loc 1 1009 14 discriminator 3
	call	EF_Ctrl_Get_Byte_Zero_Cnt
.LVL102:
	.loc 1 1009 12 discriminator 3
	add	s1,s1,a0
.LVL103:
	.loc 1 1008 5 discriminator 3
	bne	s5,s6,.L69
	.loc 1 1011 5 is_stmt 1
	.loc 1 1011 24 is_stmt 0
	slli	s1,s1,16
.LVL104:
	li	a5,4128768
	and	s1,s1,a5
	.loc 1 1011 11
	or	s1,s1,s4
.LVL105:
	.loc 1 1013 5 is_stmt 1
	.loc 1 1013 7 is_stmt 0
	bne	s2,zero,.L70
	.loc 1 1014 9 is_stmt 1
	.loc 1 1014 64 is_stmt 0
	li	a5,1073770496
	sw	s1,24(a5)
.L83:
	.loc 1 1021 5 is_stmt 1
	.loc 1 1021 7 is_stmt 0
	bne	s3,zero,.L73
.L84:
	.loc 1 1029 1
	lw	ra,28(sp)
	.cfi_remember_state
	.cfi_restore 1
	lw	s0,24(sp)
	.cfi_restore 8
.LVL106:
	lw	s1,20(sp)
	.cfi_restore 9
.LVL107:
	lw	s2,16(sp)
	.cfi_restore 18
	lw	s3,12(sp)
	.cfi_restore 19
	lw	s4,8(sp)
	.cfi_restore 20
	lw	s5,4(sp)
	.cfi_restore 21
.LVL108:
	lw	s6,0(sp)
	.cfi_restore 22
	.loc 1 1028 12
	li	a0,0
	.loc 1 1029 1
	addi	sp,sp,32
	.cfi_def_cfa_offset 0
	jr	ra
.LVL109:
.L66:
	.cfi_restore_state
	.loc 1 994 9 is_stmt 1
	call	EF_Ctrl_Sw_AHB_Clk_0
.LVL110:
	.loc 1 998 5
	lbu	a3,1(s0)
	lbu	a2,0(s0)
	lbu	a4,2(s0)
	lbu	a5,3(s0)
	slli	a3,a3,8
	or	a3,a3,a2
	slli	a4,a4,16
	or	a4,a4,a3
	slli	a5,a5,24
	or	a5,a5,a4
	.loc 1 999 64 is_stmt 0
	li	a4,1073770496
	.loc 1 998 7
	bne	s2,zero,.L68
	.loc 1 999 9 is_stmt 1
	.loc 1 999 64 is_stmt 0
	sw	a5,20(a4)
	j	.L67
.L68:
	.loc 1 1000 11 is_stmt 1
	.loc 1 1001 64 is_stmt 0
	sw	a5,108(a4)
	j	.L67
.LVL111:
.L70:
	.loc 1 1015 11 is_stmt 1
	.loc 1 1015 13 is_stmt 0
	li	a5,1
	bne	s2,a5,.L72
	.loc 1 1016 9 is_stmt 1
	.loc 1 1016 64 is_stmt 0
	li	a5,1073770496
	sw	s1,112(a5)
	j	.L83
.L72:
	.loc 1 1017 11 is_stmt 1
	.loc 1 1018 9
	.loc 1 1018 63 is_stmt 0
	li	a5,1073770496
	sw	s1,8(a5)
	j	.L83
.L73:
	.loc 1 1023 13 is_stmt 1
	call	EF_Ctrl_Program_Efuse_0
.LVL112:
	j	.L84
.LVL113:
.L75:
	.cfi_def_cfa_offset 0
	.cfi_restore 1
	.cfi_restore 8
	.cfi_restore 9
	.cfi_restore 18
	.cfi_restore 19
	.cfi_restore 20
	.cfi_restore 21
	.cfi_restore 22
	.loc 1 980 16 is_stmt 0
	li	a0,1
.LVL114:
	.loc 1 1029 1
	ret
	.cfi_endproc
.LFE38:
	.size	EF_Ctrl_Write_MAC_Address_Opt, .-EF_Ctrl_Write_MAC_Address_Opt
	.globl	__ashldi3
	.section	.text.EF_Ctrl_Write_PowerOffset_Opt,"ax",@progbits
	.align	1
	.globl	EF_Ctrl_Write_PowerOffset_Opt
	.type	EF_Ctrl_Write_PowerOffset_Opt, @function
EF_Ctrl_Write_PowerOffset_Opt:
.LFB46:
	.loc 1 1314 1 is_stmt 1
	.cfi_startproc
.LVL115:
	.loc 1 1315 5
	.loc 1 1316 5
	.loc 1 1317 5
	.loc 1 1318 5
	.loc 1 1320 5
	.loc 1 1320 7 is_stmt 0
	li	a5,2
	bgtu	a0,a5,.L95
	.loc 1 1314 1
	addi	sp,sp,-32
	.cfi_def_cfa_offset 32
	sw	s0,24(sp)
	sw	s1,20(sp)
	sw	s2,16(sp)
	sw	s3,12(sp)
	sw	s4,8(sp)
	sw	s5,4(sp)
	sw	s6,0(sp)
	sw	ra,28(sp)
	.cfi_offset 8, -8
	.cfi_offset 9, -12
	.cfi_offset 18, -16
	.cfi_offset 19, -20
	.cfi_offset 20, -24
	.cfi_offset 21, -28
	.cfi_offset 22, -32
	.cfi_offset 1, -4
	mv	s1,a2
	mv	s3,a0
	mv	s2,a1
	.loc 1 1320 7
	li	s4,0
	.loc 1 1317 14
	li	s0,0
	.loc 1 1326 11
	li	s5,15
	.loc 1 1329 11
	li	s6,-16
.LVL116:
.L89:
	.loc 1 1326 9 is_stmt 1
	.loc 1 1326 21 is_stmt 0
	lb	a5,0(s2)
	.loc 1 1326 11
	ble	a5,s5,.L87
	.loc 1 1327 13 is_stmt 1
	.loc 1 1327 25 is_stmt 0
	sb	s5,0(s2)
	.loc 1 1329 9 is_stmt 1
.L88:
	.loc 1 1332 9 discriminator 2
.LVL117:
	.loc 1 1333 9 discriminator 2
	.loc 1 1332 14 is_stmt 0 discriminator 2
	lbu	a0,0(s2)
	.loc 1 1332 12 discriminator 2
	mv	a2,s4
	li	a1,0
	andi	a0,a0,31
	call	__ashldi3
.LVL118:
	addi	s4,s4,5
	.loc 1 1333 14 discriminator 2
	add	s0,s0,a0
.LVL119:
	addi	s2,s2,1
.LVL120:
	.loc 1 1324 5 discriminator 2
	bne	s4,s5,.L89
	.loc 1 1335 5 is_stmt 1
	.loc 1 1335 12 is_stmt 0
	li	a1,15
	mv	a0,s0
	call	EF_Ctrl_Get_Trim_Parity
.LVL121:
	.loc 1 1337 5 is_stmt 1
	.loc 1 1337 7 is_stmt 0
	bne	s3,zero,.L90
	.loc 1 1338 9 is_stmt 1
	.loc 1 1338 14 is_stmt 0
	li	a4,1073770496
	lw	a5,120(a4)
.LVL122:
	.loc 1 1339 9 is_stmt 1
	.loc 1 1340 9
	.loc 1 1341 9
	.loc 1 1342 9
	.loc 1 1341 31 is_stmt 0
	slli	a0,a0,31
.LVL123:
	.loc 1 1339 20
	slli	s0,s0,16
	.loc 1 1341 12
	or	a0,a0,a5
	or	a0,a0,s0
	li	a5,32768
	or	a0,a5,a0
	.loc 1 1342 64
	sw	a0,120(a4)
.L91:
	.loc 1 1363 5 is_stmt 1
	.loc 1 1363 7 is_stmt 0
	beq	s1,zero,.L93
	.loc 1 1364 9 is_stmt 1
	call	EF_Ctrl_Program_Efuse_0
.LVL124:
.L93:
	.loc 1 1367 10 is_stmt 0 discriminator 1
	li	s0,1
.L94:
	.loc 1 1367 31 is_stmt 1 discriminator 1
	.loc 1 1367 16 is_stmt 0 discriminator 1
	call	EF_Ctrl_Busy
.LVL125:
	.loc 1 1367 10 discriminator 1
	beq	a0,s0,.L94
	.loc 1 1370 1
	lw	ra,28(sp)
	.cfi_remember_state
	.cfi_restore 1
	lw	s0,24(sp)
	.cfi_restore 8
	lw	s1,20(sp)
	.cfi_restore 9
	lw	s2,16(sp)
	.cfi_restore 18
.LVL126:
	lw	s3,12(sp)
	.cfi_restore 19
	lw	s4,8(sp)
	.cfi_restore 20
	lw	s5,4(sp)
	.cfi_restore 21
	lw	s6,0(sp)
	.cfi_restore 22
	.loc 1 1369 12
	li	a0,0
	.loc 1 1370 1
	addi	sp,sp,32
	.cfi_def_cfa_offset 0
	jr	ra
.LVL127:
.L87:
	.cfi_restore_state
	.loc 1 1329 9 is_stmt 1
	.loc 1 1329 11 is_stmt 0
	bge	a5,s6,.L88
	.loc 1 1330 13 is_stmt 1
	.loc 1 1330 25 is_stmt 0
	sb	s6,0(s2)
	j	.L88
.LVL128:
.L90:
	.loc 1 1343 11 is_stmt 1
	.loc 1 1343 13 is_stmt 0
	li	a5,1
	bne	s3,a5,.L92
	.loc 1 1344 9 is_stmt 1
	.loc 1 1344 14 is_stmt 0
	li	a5,1073770496
	lw	a4,116(a5)
.LVL129:
	.loc 1 1345 9 is_stmt 1
	.loc 1 1346 31 is_stmt 0
	slli	a0,a0,15
.LVL130:
	.loc 1 1345 12
	or	s0,s0,a4
.LVL131:
	.loc 1 1346 9 is_stmt 1
	.loc 1 1347 9
	.loc 1 1346 12 is_stmt 0
	or	a0,a0,s0
	.loc 1 1347 64
	sw	a0,116(a5)
	.loc 1 1349 9 is_stmt 1
	.loc 1 1349 14 is_stmt 0
	lw	a4,12(a5)
.LVL132:
	.loc 1 1350 9 is_stmt 1
	ori	a4,a4,1
.LVL133:
	.loc 1 1351 9
.L105:
	.loc 1 1360 9
	.loc 1 1360 63 is_stmt 0
	sw	a4,12(a5)
	j	.L91
.LVL134:
.L92:
	.loc 1 1352 11 is_stmt 1
	.loc 1 1353 9
	.loc 1 1353 14 is_stmt 0
	li	a5,1073770496
	lw	a4,116(a5)
.LVL135:
	.loc 1 1354 9 is_stmt 1
	.loc 1 1354 20 is_stmt 0
	slli	s0,s0,16
	.loc 1 1355 31
	slli	a0,a0,31
.LVL136:
	.loc 1 1354 12
	or	s0,s0,a4
.LVL137:
	.loc 1 1355 9 is_stmt 1
	.loc 1 1356 9
	.loc 1 1355 12 is_stmt 0
	or	a0,a0,s0
	.loc 1 1356 64
	sw	a0,116(a5)
	.loc 1 1358 9 is_stmt 1
	.loc 1 1358 14 is_stmt 0
	lw	a4,12(a5)
.LVL138:
	.loc 1 1359 9 is_stmt 1
	ori	a4,a4,2
.LVL139:
	j	.L105
.LVL140:
.L95:
	.cfi_def_cfa_offset 0
	.cfi_restore 1
	.cfi_restore 8
	.cfi_restore 9
	.cfi_restore 18
	.cfi_restore 19
	.cfi_restore 20
	.cfi_restore 21
	.cfi_restore 22
	.loc 1 1321 16 is_stmt 0
	li	a0,1
.LVL141:
	.loc 1 1370 1
	ret
	.cfi_endproc
.LFE46:
	.size	EF_Ctrl_Write_PowerOffset_Opt, .-EF_Ctrl_Write_PowerOffset_Opt
	.section	.text.EF_Ctrl_Write_AES_Key,"ax",@progbits
	.align	1
	.globl	EF_Ctrl_Write_AES_Key
	.type	EF_Ctrl_Write_AES_Key, @function
EF_Ctrl_Write_AES_Key:
.LFB48:
	.loc 1 1445 1 is_stmt 1
	.cfi_startproc
.LVL142:
	.loc 1 1446 5
	.loc 1 1448 5
	.loc 1 1448 7 is_stmt 0
	li	a5,5
	bgtu	a0,a5,.L114
	.loc 1 1445 1
	addi	sp,sp,-32
	.cfi_def_cfa_offset 32
	sw	s0,24(sp)
	sw	s1,20(sp)
	sw	ra,28(sp)
	.cfi_offset 8, -8
	.cfi_offset 9, -12
	.cfi_offset 1, -4
	mv	s1,a3
	sw	a2,12(sp)
	sw	a1,8(sp)
	mv	s0,a0
	.loc 1 1452 5 is_stmt 1
	call	EF_Ctrl_Sw_AHB_Clk_0
.LVL143:
	.loc 1 1455 5
	li	a5,1073770496
	lw	a2,12(sp)
	lw	a1,8(sp)
	.loc 1 1455 32 is_stmt 0
	slli	a0,s0,4
	.loc 1 1455 5
	addi	a5,a5,28
	add	a0,a0,a5
	call	BL602_MemCpy4
.LVL144:
	.loc 1 1457 5 is_stmt 1
	.loc 1 1457 7 is_stmt 0
	beq	s1,zero,.L106
	.loc 1 1458 9 is_stmt 1
	.loc 1 1460 1 is_stmt 0
	lw	s0,24(sp)
	.cfi_remember_state
	.cfi_restore 8
	lw	ra,28(sp)
	.cfi_restore 1
	lw	s1,20(sp)
	.cfi_restore 9
	addi	sp,sp,32
	.cfi_def_cfa_offset 0
.LVL145:
	.loc 1 1458 9
	tail	EF_Ctrl_Program_Efuse_0
.LVL146:
.L106:
	.cfi_restore_state
	.loc 1 1460 1
	lw	ra,28(sp)
	.cfi_restore 1
	lw	s0,24(sp)
	.cfi_restore 8
	lw	s1,20(sp)
	.cfi_restore 9
	addi	sp,sp,32
	.cfi_def_cfa_offset 0
.LVL147:
	jr	ra
.LVL148:
.L114:
	ret
	.cfi_endproc
.LFE48:
	.size	EF_Ctrl_Write_AES_Key, .-EF_Ctrl_Write_AES_Key
	.section	.text.EF_Ctrl_Writelock_AES_Key,"ax",@progbits
	.align	1
	.globl	EF_Ctrl_Writelock_AES_Key
	.type	EF_Ctrl_Writelock_AES_Key, @function
EF_Ctrl_Writelock_AES_Key:
.LFB50:
	.loc 1 1496 1 is_stmt 1
	.cfi_startproc
.LVL149:
	.loc 1 1497 5
	.loc 1 1499 5
	.loc 1 1499 7 is_stmt 0
	li	a5,5
	bgtu	a0,a5,.L127
	.loc 1 1496 1
	addi	sp,sp,-16
	.cfi_def_cfa_offset 16
	sw	s0,8(sp)
	sw	s1,4(sp)
	.cfi_offset 8, -8
	.cfi_offset 9, -12
	mv	s0,a0
	.loc 1 1503 5 is_stmt 1
	.loc 1 1496 1 is_stmt 0
	sw	ra,12(sp)
	.cfi_offset 1, -4
	mv	s1,a1
	.loc 1 1503 5
	call	EF_Ctrl_Sw_AHB_Clk_0
.LVL150:
	.loc 1 1505 5 is_stmt 1
	.loc 1 1505 11 is_stmt 0
	li	a5,1073770496
	lw	a5,124(a5)
.LVL151:
	.loc 1 1506 5 is_stmt 1
	addi	a4,s0,19
	li	a0,1
	.loc 1 1506 7 is_stmt 0
	li	a3,3
	sll	a4,a0,a4
	bgtu	s0,a3,.L120
	.loc 1 1507 9 is_stmt 1
	.loc 1 1507 15 is_stmt 0
	or	s0,a5,a4
.LVL152:
.L121:
	.loc 1 1512 5 is_stmt 1
	.loc 1 1512 60 is_stmt 0
	li	a5,1073770496
	sw	s0,124(a5)
	.loc 1 1514 5 is_stmt 1
	.loc 1 1514 7 is_stmt 0
	beq	s1,zero,.L117
	.loc 1 1515 9 is_stmt 1
	.loc 1 1517 1 is_stmt 0
	lw	s0,8(sp)
	.cfi_remember_state
	.cfi_restore 8
.LVL153:
	lw	ra,12(sp)
	.cfi_restore 1
	lw	s1,4(sp)
	.cfi_restore 9
	addi	sp,sp,16
	.cfi_def_cfa_offset 0
	.loc 1 1515 9
	tail	EF_Ctrl_Program_Efuse_0
.LVL154:
.L120:
	.cfi_restore_state
	.loc 1 1509 9 is_stmt 1
	.loc 1 1510 9
	.loc 1 1510 29 is_stmt 0
	addi	s0,s0,9
.LVL155:
	.loc 1 1510 19
	sll	s0,a0,s0
.LVL156:
	.loc 1 1510 15
	or	s0,s0,a4
	or	s0,s0,a5
.LVL157:
	j	.L121
.L117:
	.loc 1 1517 1
	lw	ra,12(sp)
	.cfi_restore 1
	lw	s0,8(sp)
	.cfi_restore 8
.LVL158:
	lw	s1,4(sp)
	.cfi_restore 9
	addi	sp,sp,16
	.cfi_def_cfa_offset 0
	jr	ra
.LVL159:
.L127:
	ret
	.cfi_endproc
.LFE50:
	.size	EF_Ctrl_Writelock_AES_Key, .-EF_Ctrl_Writelock_AES_Key
	.section	.text.EF_Ctrl_Readlock_AES_Key,"ax",@progbits
	.align	1
	.globl	EF_Ctrl_Readlock_AES_Key
	.type	EF_Ctrl_Readlock_AES_Key, @function
EF_Ctrl_Readlock_AES_Key:
.LFB51:
	.loc 1 1529 1 is_stmt 1
	.cfi_startproc
.LVL160:
	.loc 1 1530 5
	.loc 1 1532 5
	.loc 1 1532 7 is_stmt 0
	li	a5,5
	bgtu	a0,a5,.L138
	.loc 1 1529 1
	addi	sp,sp,-16
	.cfi_def_cfa_offset 16
	sw	s0,8(sp)
	sw	s1,4(sp)
	.cfi_offset 8, -8
	.cfi_offset 9, -12
	mv	s0,a0
	.loc 1 1536 5 is_stmt 1
	.loc 1 1529 1 is_stmt 0
	sw	ra,12(sp)
	.cfi_offset 1, -4
	mv	s1,a1
	.loc 1 1536 5
	call	EF_Ctrl_Sw_AHB_Clk_0
.LVL161:
	.loc 1 1538 5 is_stmt 1
	.loc 1 1538 11 is_stmt 0
	li	a4,1073770496
	lw	a3,124(a4)
.LVL162:
	.loc 1 1539 5 is_stmt 1
	.loc 1 1539 23 is_stmt 0
	addi	a0,s0,26
	.loc 1 1539 15
	li	a5,1
	sll	a0,a5,a0
	.loc 1 1539 11
	or	a0,a0,a3
.LVL163:
	.loc 1 1540 5 is_stmt 1
	.loc 1 1540 60 is_stmt 0
	sw	a0,124(a4)
	.loc 1 1542 5 is_stmt 1
	.loc 1 1542 7 is_stmt 0
	beq	s1,zero,.L130
	.loc 1 1543 9 is_stmt 1
	.loc 1 1545 1 is_stmt 0
	lw	s0,8(sp)
	.cfi_remember_state
	.cfi_restore 8
	lw	ra,12(sp)
	.cfi_restore 1
	lw	s1,4(sp)
	.cfi_restore 9
	addi	sp,sp,16
	.cfi_def_cfa_offset 0
	.loc 1 1543 9
	tail	EF_Ctrl_Program_Efuse_0
.LVL164:
.L130:
	.cfi_restore_state
	.loc 1 1545 1
	lw	ra,12(sp)
	.cfi_restore 1
	lw	s0,8(sp)
	.cfi_restore 8
	lw	s1,4(sp)
	.cfi_restore 9
	addi	sp,sp,16
	.cfi_def_cfa_offset 0
	jr	ra
.LVL165:
.L138:
	ret
	.cfi_endproc
.LFE51:
	.size	EF_Ctrl_Readlock_AES_Key, .-EF_Ctrl_Readlock_AES_Key
	.section	.text.EF_Ctrl_Program_Direct_R0,"ax",@progbits
	.align	1
	.globl	EF_Ctrl_Program_Direct_R0
	.type	EF_Ctrl_Program_Direct_R0, @function
EF_Ctrl_Program_Direct_R0:
.LFB52:
	.loc 1 1558 1 is_stmt 1
	.cfi_startproc
.LVL166:
	.loc 1 1559 5
	.loc 1 1562 5
	.loc 1 1558 1 is_stmt 0
	addi	sp,sp,-32
	.cfi_def_cfa_offset 32
	sw	ra,28(sp)
	sw	s0,24(sp)
	.cfi_offset 1, -4
	.cfi_offset 8, -8
	.loc 1 1558 1
	sw	a1,12(sp)
	sw	a2,8(sp)
	mv	s0,a0
	.loc 1 1562 5
	call	EF_Ctrl_Sw_AHB_Clk_0
.LVL167:
	.loc 1 1565 5 is_stmt 1
	li	a0,4
	call	BL602_Delay_US
.LVL168:
	.loc 1 1567 5
	lw	a2,8(sp)
	lw	a1,12(sp)
	.loc 1 1567 31 is_stmt 0
	slli	s0,s0,2
.LVL169:
	.loc 1 1567 5
	li	a0,1073770496
	add	a0,a0,s0
	call	BL602_MemCpy4
.LVL170:
	.loc 1 1569 5 is_stmt 1
	.loc 1 1570 1 is_stmt 0
	lw	s0,24(sp)
	.cfi_restore 8
	lw	ra,28(sp)
	.cfi_restore 1
	addi	sp,sp,32
	.cfi_def_cfa_offset 0
.LVL171:
	.loc 1 1569 5
	tail	EF_Ctrl_Program_Efuse_0
.LVL172:
	.cfi_endproc
.LFE52:
	.size	EF_Ctrl_Program_Direct_R0, .-EF_Ctrl_Program_Direct_R0
	.section	.tcm_code
	.align	1
	.weak	EF_Ctrl_Clear
	.type	EF_Ctrl_Clear, @function
EF_Ctrl_Clear:
.LFB54:
	.loc 1 1603 1 is_stmt 1
	.cfi_startproc
.LVL173:
	.loc 1 1604 5
	.loc 1 1605 5
	.loc 1 1608 5
	.loc 1 1603 1 is_stmt 0
	addi	sp,sp,-32
	.cfi_def_cfa_offset 32
	sw	a0,12(sp)
	sw	a1,8(sp)
	sw	ra,28(sp)
	.cfi_offset 1, -4
	.loc 1 1608 5
	call	EF_Ctrl_Sw_AHB_Clk_0
.LVL174:
	.loc 1 1611 5 is_stmt 1
	lw	a0,12(sp)
	lw	a1,8(sp)
	.loc 1 1612 30 is_stmt 0
	li	a4,1073770496
	slli	a5,a0,2
	add	a1,a1,a0
	slli	a1,a1,2
.LVL175:
.L144:
	.loc 1 1611 5 discriminator 1
	bne	a5,a1,.L145
	.loc 1 1614 1
	lw	ra,28(sp)
	.cfi_remember_state
	.cfi_restore 1
	addi	sp,sp,32
	.cfi_def_cfa_offset 0
.LVL176:
	jr	ra
.LVL177:
.L145:
	.cfi_restore_state
	.loc 1 1612 9 is_stmt 1 discriminator 3
	.loc 1 1612 30 is_stmt 0 discriminator 3
	add	a3,a4,a5
	sw	zero,0(a3)
	addi	a5,a5,4
	j	.L144
	.cfi_endproc
.LFE54:
	.size	EF_Ctrl_Clear, .-EF_Ctrl_Clear
	.align	1
	.weak	EF_Ctrl_Load_Efuse_R0
	.type	EF_Ctrl_Load_Efuse_R0, @function
EF_Ctrl_Load_Efuse_R0:
.LFB10:
	.loc 1 200 1 is_stmt 1
	.cfi_startproc
	.loc 1 202 5
	.loc 1 203 5
.LVL178:
	.loc 1 205 5
	.loc 1 200 1 is_stmt 0
	addi	sp,sp,-16
	.cfi_def_cfa_offset 16
	.loc 1 205 5
	li	a1,32
	li	a0,0
	.loc 1 200 1
	sw	ra,12(sp)
	.cfi_offset 1, -4
	.loc 1 205 5
	call	EF_Ctrl_Clear
.LVL179:
	.loc 1 208 5 is_stmt 1
	.loc 1 217 5
	.loc 1 217 61 is_stmt 0
	li	a5,2408448
	addi	a3,a5,-256
	li	a4,1073774592
	sw	a3,-2048(a4)
	.loc 1 219 5 is_stmt 1
.LVL180:
	.loc 1 228 5
	.loc 1 228 61 is_stmt 0
	addi	a5,a5,-240
	sw	a5,-2048(a4)
	.loc 1 230 5 is_stmt 1
	li	a0,10
	call	BL602_Delay_US
.LVL181:
	li	a5,159744
	addi	a5,a5,256
	.loc 1 233 15 is_stmt 0
	li	a2,1073774592
	.loc 1 239 12
	li	a3,2
.LVL182:
.L149:
	.loc 1 232 5 is_stmt 1
	.loc 1 233 9
	.loc 1 233 15 is_stmt 0
	lw	a4,-2048(a2)
.LVL183:
	.loc 1 234 9 is_stmt 1
	.loc 1 235 9
	addi	a5,a5,-1
.LVL184:
	.loc 1 235 11 is_stmt 0
	beq	a5,zero,.L148
.LVL185:
	.loc 1 238 44
	andi	a4,a4,6
.LVL186:
	.loc 1 239 12
	bne	a4,a3,.L149
.LVL187:
.L148:
	.loc 1 242 5 is_stmt 1
	.loc 1 251 5
	.loc 1 251 61 is_stmt 0
	li	a5,2408448
	li	a4,1073774592
	addi	a5,a5,-128
	sw	a5,-2048(a4)
	.loc 1 252 1
	lw	ra,12(sp)
	.cfi_restore 1
	addi	sp,sp,16
	.cfi_def_cfa_offset 0
	jr	ra
	.cfi_endproc
.LFE10:
	.size	EF_Ctrl_Load_Efuse_R0, .-EF_Ctrl_Load_Efuse_R0
	.section	.text.EF_Ctrl_Read_Dbg_Pwd,"ax",@progbits
	.align	1
	.globl	EF_Ctrl_Read_Dbg_Pwd
	.type	EF_Ctrl_Read_Dbg_Pwd, @function
EF_Ctrl_Read_Dbg_Pwd:
.LFB14:
	.loc 1 335 1 is_stmt 1
	.cfi_startproc
.LVL188:
	.loc 1 337 5
	.loc 1 335 1 is_stmt 0
	addi	sp,sp,-32
	.cfi_def_cfa_offset 32
	sw	ra,28(sp)
	.cfi_offset 1, -4
	.loc 1 335 1
	sw	a0,12(sp)
	sw	a1,8(sp)
	.loc 1 337 5
	call	EF_Ctrl_Load_Efuse_R0
.LVL189:
	.loc 1 339 5 is_stmt 1
	.loc 1 339 17 is_stmt 0
	li	a5,1073770496
	lw	a4,4(a5)
	.loc 1 339 15
	lw	a0,12(sp)
	.loc 1 340 16
	lw	a1,8(sp)
	.loc 1 339 15
	sw	a4,0(a0)
	.loc 1 340 5 is_stmt 1
	.loc 1 340 18 is_stmt 0
	lw	a5,8(a5)
	.loc 1 340 16
	sw	a5,0(a1)
	.loc 1 341 1
	lw	ra,28(sp)
	.cfi_restore 1
	addi	sp,sp,32
	.cfi_def_cfa_offset 0
.LVL190:
	jr	ra
	.cfi_endproc
.LFE14:
	.size	EF_Ctrl_Read_Dbg_Pwd, .-EF_Ctrl_Read_Dbg_Pwd
	.section	.text.EF_Ctrl_Read_Secure_Cfg,"ax",@progbits
	.align	1
	.globl	EF_Ctrl_Read_Secure_Cfg
	.type	EF_Ctrl_Read_Secure_Cfg, @function
EF_Ctrl_Read_Secure_Cfg:
.LFB18:
	.loc 1 424 1 is_stmt 1
	.cfi_startproc
.LVL191:
	.loc 1 425 5
	.loc 1 428 5
	.loc 1 424 1 is_stmt 0
	addi	sp,sp,-32
	.cfi_def_cfa_offset 32
	sw	ra,28(sp)
	.cfi_offset 1, -4
	.loc 1 424 1
	sw	a0,12(sp)
	.loc 1 428 5
	call	EF_Ctrl_Load_Efuse_R0
.LVL192:
	.loc 1 430 5 is_stmt 1
	.loc 1 430 11 is_stmt 0
	li	a5,1073770496
	lw	a5,0(a5)
.LVL193:
	.loc 1 432 5 is_stmt 1
	.loc 1 432 23 is_stmt 0
	lw	a0,12(sp)
	.loc 1 432 85
	srli	a4,a5,28
	.loc 1 432 23
	sb	a4,0(a0)
	.loc 1 433 5 is_stmt 1
	.loc 1 433 67 is_stmt 0
	srli	a4,a5,26
	andi	a4,a4,3
	.loc 1 433 27
	sb	a4,1(a0)
	.loc 1 434 5 is_stmt 1
	.loc 1 434 61 is_stmt 0
	srli	a4,a5,4
	.loc 1 435 66
	srli	a5,a5,13
.LVL194:
	.loc 1 434 61
	andi	a4,a4,3
	.loc 1 435 66
	andi	a5,a5,1
	.loc 1 434 22
	sb	a4,2(a0)
	.loc 1 435 5 is_stmt 1
	.loc 1 435 26 is_stmt 0
	sb	a5,3(a0)
	.loc 1 436 1
	lw	ra,28(sp)
	.cfi_restore 1
	addi	sp,sp,32
	.cfi_def_cfa_offset 0
.LVL195:
	jr	ra
	.cfi_endproc
.LFE18:
	.size	EF_Ctrl_Read_Secure_Cfg, .-EF_Ctrl_Read_Secure_Cfg
	.section	.text.EF_Ctrl_Read_Secure_Boot,"ax",@progbits
	.align	1
	.globl	EF_Ctrl_Read_Secure_Boot
	.type	EF_Ctrl_Read_Secure_Boot, @function
EF_Ctrl_Read_Secure_Boot:
.LFB20:
	.loc 1 481 1 is_stmt 1
	.cfi_startproc
.LVL196:
	.loc 1 482 5
	.loc 1 483 5
	.loc 1 486 5
	.loc 1 481 1 is_stmt 0
	addi	sp,sp,-32
	.cfi_def_cfa_offset 32
	sw	a0,12(sp)
	sw	a1,8(sp)
	sw	ra,28(sp)
	.cfi_offset 1, -4
	.loc 1 486 5
	call	EF_Ctrl_Load_Efuse_R0
.LVL197:
	.loc 1 488 5 is_stmt 1
	.loc 1 488 11 is_stmt 0
	li	a5,1073770496
	lw	a5,0(a5)
.LVL198:
	.loc 1 490 5 is_stmt 1
	.loc 1 491 5
	.loc 1 491 12 is_stmt 0
	lw	a0,12(sp)
	.loc 1 494 7
	lw	a1,8(sp)
	.loc 1 490 51
	srli	a4,a5,2
	.loc 1 491 40
	andi	a4,a4,1
	.loc 1 491 12
	sb	a4,0(a0)
	.loc 1 493 5 is_stmt 1
.LVL199:
	.loc 1 494 5
	.loc 1 493 51 is_stmt 0
	srli	a4,a5,7
	.loc 1 493 12
	andi	a4,a4,1
.LVL200:
	.loc 1 495 49
	andi	a3,a5,3
	.loc 1 494 7
	bne	a4,zero,.L160
	li	a3,0
.L160:
	sb	a3,0(a1)
	.loc 1 499 1
	lw	ra,28(sp)
	.cfi_restore 1
	addi	sp,sp,32
	.cfi_def_cfa_offset 0
.LVL201:
	jr	ra
	.cfi_endproc
.LFE20:
	.size	EF_Ctrl_Read_Secure_Boot, .-EF_Ctrl_Read_Secure_Boot
	.section	.text.EF_Ctrl_Get_Trim_Enable,"ax",@progbits
	.align	1
	.globl	EF_Ctrl_Get_Trim_Enable
	.type	EF_Ctrl_Get_Trim_Enable, @function
EF_Ctrl_Get_Trim_Enable:
.LFB21:
	.loc 1 510 1 is_stmt 1
	.cfi_startproc
	.loc 1 511 5
	.loc 1 514 5
	.loc 1 510 1 is_stmt 0
	addi	sp,sp,-16
	.cfi_def_cfa_offset 16
	sw	ra,12(sp)
	.cfi_offset 1, -4
	.loc 1 514 5
	call	EF_Ctrl_Load_Efuse_R0
.LVL202:
	.loc 1 516 5 is_stmt 1
	.loc 1 516 11 is_stmt 0
	li	a5,1073770496
	lw	a0,0(a5)
.LVL203:
	.loc 1 518 5 is_stmt 1
	.loc 1 519 1 is_stmt 0
	lw	ra,12(sp)
	.cfi_restore 1
	.loc 1 518 51
	srli	a0,a0,12
.LVL204:
	.loc 1 519 1
	andi	a0,a0,1
	addi	sp,sp,16
	.cfi_def_cfa_offset 0
	jr	ra
	.cfi_endproc
.LFE21:
	.size	EF_Ctrl_Get_Trim_Enable, .-EF_Ctrl_Get_Trim_Enable
	.section	.text.EF_Ctrl_Read_Ana_Trim,"ax",@progbits
	.align	1
	.globl	EF_Ctrl_Read_Ana_Trim
	.type	EF_Ctrl_Read_Ana_Trim, @function
EF_Ctrl_Read_Ana_Trim:
.LFB24:
	.loc 1 581 1 is_stmt 1
	.cfi_startproc
.LVL205:
	.loc 1 583 5
	.loc 1 581 1 is_stmt 0
	addi	sp,sp,-32
	.cfi_def_cfa_offset 32
	sw	a0,12(sp)
	sw	ra,28(sp)
	.cfi_offset 1, -4
	.loc 1 581 1
	sw	a1,8(sp)
	.loc 1 583 5
	call	EF_Ctrl_Sw_AHB_Clk_0
.LVL206:
	.loc 1 585 5 is_stmt 1
	call	EF_Ctrl_Load_Efuse_R0
.LVL207:
	.loc 1 587 5
	.loc 1 587 7 is_stmt 0
	lw	a0,12(sp)
	bne	a0,zero,.L167
	.loc 1 588 9 is_stmt 1
	.loc 1 588 16 is_stmt 0
	li	a5,1073770496
	lw	a5,12(a5)
	.loc 1 588 14
	lw	a1,8(sp)
	sw	a5,0(a1)
.L167:
	.loc 1 590 1
	lw	ra,28(sp)
	.cfi_restore 1
	addi	sp,sp,32
	.cfi_def_cfa_offset 0
.LVL208:
	jr	ra
	.cfi_endproc
.LFE24:
	.size	EF_Ctrl_Read_Ana_Trim, .-EF_Ctrl_Read_Ana_Trim
	.section	.sclock_rlt_code
	.align	1
	.weak	EF_Ctrl_Read_RC32M_Trim
	.type	EF_Ctrl_Read_RC32M_Trim, @function
EF_Ctrl_Read_RC32M_Trim:
.LFB25:
	.loc 1 603 1 is_stmt 1
	.cfi_startproc
.LVL209:
	.loc 1 604 5
	.loc 1 606 5
	.loc 1 603 1 is_stmt 0
	addi	sp,sp,-32
	.cfi_def_cfa_offset 32
	sw	ra,28(sp)
	.cfi_offset 1, -4
	.loc 1 603 1
	sw	a0,12(sp)
	.loc 1 606 5
	call	EF_Ctrl_Sw_AHB_Clk_0
.LVL210:
	.loc 1 608 5 is_stmt 1
	call	EF_Ctrl_Load_Efuse_R0
.LVL211:
	.loc 1 610 5
	.loc 1 610 11 is_stmt 0
	li	a5,1073770496
	lw	a4,12(a5)
.LVL212:
	.loc 1 611 5 is_stmt 1
	.loc 1 611 29 is_stmt 0
	lw	a0,12(sp)
	.loc 1 611 37
	srli	a5,a4,10
	.loc 1 611 29
	sb	a5,0(a0)
	.loc 1 612 5 is_stmt 1
	.loc 1 612 35 is_stmt 0
	andi	a3,a5,256
	lw	a5,0(a0)
	.loc 1 613 29
	srli	a4,a4,10
.LVL213:
	andi	a4,a4,512
	.loc 1 612 35
	andi	a5,a5,-769
	.loc 1 613 5 is_stmt 1
	.loc 1 613 29 is_stmt 0
	or	a5,a5,a3
	or	a5,a5,a4
	sw	a5,0(a0)
.LVL214:
	.loc 1 614 1
	lw	ra,28(sp)
	.cfi_restore 1
	addi	sp,sp,32
	.cfi_def_cfa_offset 0
	jr	ra
	.cfi_endproc
.LFE25:
	.size	EF_Ctrl_Read_RC32M_Trim, .-EF_Ctrl_Read_RC32M_Trim
	.align	1
	.weak	EF_Ctrl_Read_RC32K_Trim
	.type	EF_Ctrl_Read_RC32K_Trim, @function
EF_Ctrl_Read_RC32K_Trim:
.LFB26:
	.loc 1 628 1 is_stmt 1
	.cfi_startproc
.LVL215:
	.loc 1 629 5
	.loc 1 631 5
	.loc 1 628 1 is_stmt 0
	addi	sp,sp,-32
	.cfi_def_cfa_offset 32
	sw	ra,28(sp)
	.cfi_offset 1, -4
	.loc 1 628 1
	sw	a0,12(sp)
	.loc 1 631 5
	call	EF_Ctrl_Sw_AHB_Clk_0
.LVL216:
	.loc 1 633 5 is_stmt 1
	call	EF_Ctrl_Load_Efuse_R0
.LVL217:
	.loc 1 635 5
	.loc 1 635 11 is_stmt 0
	li	a5,1073770496
	lw	a4,12(a5)
.LVL218:
	.loc 1 636 5 is_stmt 1
	.loc 1 636 29 is_stmt 0
	lw	a0,12(sp)
	.loc 1 636 37
	srli	a5,a4,20
	.loc 1 636 29
	andi	a2,a5,1023
	lw	a5,0(a0)
	.loc 1 637 35
	srli	a3,a4,20
	andi	a3,a3,1024
	.loc 1 636 29
	andi	a5,a5,-2048
	.loc 1 637 5 is_stmt 1
	.loc 1 637 35 is_stmt 0
	or	a5,a5,a2
	or	a5,a5,a3
	.loc 1 638 5 is_stmt 1
	.loc 1 638 29 is_stmt 0
	li	a3,-4096
	srli	a4,a4,31
.LVL219:
	addi	a3,a3,2047
	slli	a4,a4,11
	and	a5,a5,a3
	or	a5,a5,a4
	sw	a5,0(a0)
.LVL220:
	.loc 1 639 1
	lw	ra,28(sp)
	.cfi_restore 1
	addi	sp,sp,32
	.cfi_def_cfa_offset 0
	jr	ra
	.cfi_endproc
.LFE26:
	.size	EF_Ctrl_Read_RC32K_Trim, .-EF_Ctrl_Read_RC32K_Trim
	.align	1
	.globl	EF_Ctrl_Read_TSEN_Trim
	.type	EF_Ctrl_Read_TSEN_Trim, @function
EF_Ctrl_Read_TSEN_Trim:
.LFB27:
	.loc 1 651 1 is_stmt 1
	.cfi_startproc
.LVL221:
	.loc 1 652 5
	.loc 1 654 5
	.loc 1 651 1 is_stmt 0
	addi	sp,sp,-32
	.cfi_def_cfa_offset 32
	sw	ra,28(sp)
	.cfi_offset 1, -4
	.loc 1 651 1
	sw	a0,12(sp)
	.loc 1 654 5
	call	EF_Ctrl_Sw_AHB_Clk_0
.LVL222:
	.loc 1 656 5 is_stmt 1
	call	EF_Ctrl_Load_Efuse_R0
.LVL223:
	.loc 1 658 5
	.loc 1 658 11 is_stmt 0
	li	a2,1073770496
	lw	a5,120(a2)
.LVL224:
	.loc 1 659 5 is_stmt 1
	.loc 1 659 30 is_stmt 0
	lw	a0,12(sp)
	li	a3,-8192
	andi	a5,a5,1
.LVL225:
	slli	a4,a5,13
	lw	a5,0(a0)
	addi	a3,a3,-1
	and	a5,a5,a3
	or	a5,a5,a4
	sw	a5,0(a0)
.LVL226:
	.loc 1 661 5 is_stmt 1
	.loc 1 661 11 is_stmt 0
	lw	a4,124(a2)
.LVL227:
	.loc 1 662 5 is_stmt 1
	.loc 1 662 28 is_stmt 0
	li	a3,-4096
	and	a5,a5,a3
	slli	a2,a4,20
	srli	a2,a2,20
	or	a5,a5,a2
	.loc 1 663 5 is_stmt 1
	.loc 1 663 34 is_stmt 0
	addi	a3,a3,-1
	li	a2,4096
	and	a4,a4,a2
.LVL228:
	and	a5,a5,a3
	or	a5,a5,a4
	sw	a5,0(a0)
	.loc 1 665 1
	lw	ra,28(sp)
	.cfi_restore 1
	addi	sp,sp,32
	.cfi_def_cfa_offset 0
	jr	ra
	.cfi_endproc
.LFE27:
	.size	EF_Ctrl_Read_TSEN_Trim, .-EF_Ctrl_Read_TSEN_Trim
	.section	.text.EF_Ctrl_Read_Sw_Usage,"ax",@progbits
	.align	1
	.globl	EF_Ctrl_Read_Sw_Usage
	.type	EF_Ctrl_Read_Sw_Usage, @function
EF_Ctrl_Read_Sw_Usage:
.LFB29:
	.loc 1 702 1 is_stmt 1
	.cfi_startproc
.LVL229:
	.loc 1 704 5
	.loc 1 702 1 is_stmt 0
	addi	sp,sp,-32
	.cfi_def_cfa_offset 32
	sw	a0,12(sp)
	sw	ra,28(sp)
	.cfi_offset 1, -4
	.loc 1 702 1
	sw	a1,8(sp)
	.loc 1 704 5
	call	EF_Ctrl_Sw_AHB_Clk_0
.LVL230:
	.loc 1 706 5 is_stmt 1
	call	EF_Ctrl_Load_Efuse_R0
.LVL231:
	.loc 1 708 5
	.loc 1 708 7 is_stmt 0
	lw	a0,12(sp)
	bne	a0,zero,.L176
	.loc 1 709 9 is_stmt 1
	.loc 1 709 17 is_stmt 0
	li	a5,1073770496
	lw	a5,16(a5)
	.loc 1 709 15
	lw	a1,8(sp)
	sw	a5,0(a1)
.L176:
	.loc 1 711 1
	lw	ra,28(sp)
	.cfi_restore 1
	addi	sp,sp,32
	.cfi_def_cfa_offset 0
.LVL232:
	jr	ra
	.cfi_endproc
.LFE29:
	.size	EF_Ctrl_Read_Sw_Usage, .-EF_Ctrl_Read_Sw_Usage
	.section	.text.EF_Ctrl_Read_MAC_Address,"ax",@progbits
	.align	1
	.globl	EF_Ctrl_Read_MAC_Address
	.type	EF_Ctrl_Read_MAC_Address, @function
EF_Ctrl_Read_MAC_Address:
.LFB33:
	.loc 1 799 1 is_stmt 1
	.cfi_startproc
.LVL233:
	.loc 1 800 5
	.loc 1 801 5
	.loc 1 802 5
	.loc 1 803 5
	.loc 1 804 5
	.loc 1 807 5
	.loc 1 799 1 is_stmt 0
	addi	sp,sp,-32
	.cfi_def_cfa_offset 32
	sw	s0,24(sp)
	sw	s1,20(sp)
	.cfi_offset 8, -8
	.cfi_offset 9, -12
	mv	s0,a0
	sw	s2,16(sp)
	sw	s3,12(sp)
	sw	s4,8(sp)
	sw	ra,28(sp)
	.cfi_offset 18, -16
	.cfi_offset 19, -20
	.cfi_offset 20, -24
	.cfi_offset 1, -4
	.loc 1 807 5
	call	EF_Ctrl_Load_Efuse_R0
.LVL234:
	.loc 1 809 5 is_stmt 1
	.loc 1 809 11 is_stmt 0
	li	a4,1073770496
	lw	a5,20(a4)
.LVL235:
	.loc 1 810 6 is_stmt 1
	.loc 1 804 14 is_stmt 0
	li	s3,0
	.loc 1 817 10
	li	s2,0
	.loc 1 810 45
	srli	a3,a5,8
	.loc 1 810 15
	sb	a5,0(s0)
	.loc 1 810 28 is_stmt 1
	.loc 1 810 37 is_stmt 0
	sb	a3,1(s0)
	.loc 1 810 55 is_stmt 1
	.loc 1 810 72 is_stmt 0
	srli	a3,a5,16
	.loc 1 810 100
	srli	a5,a5,24
.LVL236:
	.loc 1 810 92
	sb	a5,3(s0)
	.loc 1 810 64
	sb	a3,2(s0)
	.loc 1 810 83 is_stmt 1
	.loc 1 810 112
	.loc 1 812 5
	.loc 1 812 11 is_stmt 0
	lw	s1,24(a4)
.LVL237:
	.loc 1 813 5 is_stmt 1
	.loc 1 817 5 is_stmt 0
	li	s4,6
	.loc 1 814 23
	srli	a5,s1,8
	.loc 1 813 15
	sb	s1,4(s0)
	.loc 1 814 5 is_stmt 1
	.loc 1 814 15 is_stmt 0
	sb	a5,5(s0)
	.loc 1 817 5 is_stmt 1
.LVL238:
.L180:
	.loc 1 818 9 discriminator 3
	.loc 1 818 14 is_stmt 0 discriminator 3
	add	a5,s0,s2
	lbu	a0,0(a5)
	.loc 1 817 18 discriminator 3
	addi	s2,s2,1
.LVL239:
	.loc 1 818 14 discriminator 3
	call	EF_Ctrl_Get_Byte_Zero_Cnt
.LVL240:
	.loc 1 818 12 discriminator 3
	add	s3,s3,a0
.LVL241:
	.loc 1 817 5 discriminator 3
	bne	s2,s4,.L180
	.loc 1 820 5 is_stmt 1
	.loc 1 820 28 is_stmt 0
	srli	s1,s1,16
.LVL242:
	.loc 1 820 18
	xor	s1,s1,s3
	andi	s1,s1,63
	.loc 1 829 16
	li	a0,1
	.loc 1 820 7
	bne	s1,zero,.L181
	addi	a5,s0,5
	addi	a4,s0,2
.LVL243:
.L182:
.LBB24:
.LBB25:
	.loc 1 823 13 is_stmt 1
	.loc 1 824 23 is_stmt 0
	lbu	a2,0(a5)
	.loc 1 823 23
	lbu	a3,0(s0)
.LVL244:
	.loc 1 824 13 is_stmt 1
	addi	a5,a5,-1
	.loc 1 824 19 is_stmt 0
	sb	a2,0(s0)
	.loc 1 825 13 is_stmt 1
	.loc 1 825 21 is_stmt 0
	sb	a3,1(a5)
.LVL245:
	addi	s0,s0,1
.LVL246:
	.loc 1 822 9
	bne	a5,a4,.L182
	li	a0,0
.LVL247:
.L181:
.LBE25:
.LBE24:
	.loc 1 831 1
	lw	ra,28(sp)
	.cfi_restore 1
	lw	s0,24(sp)
	.cfi_restore 8
	lw	s1,20(sp)
	.cfi_restore 9
	lw	s2,16(sp)
	.cfi_restore 18
.LVL248:
	lw	s3,12(sp)
	.cfi_restore 19
.LVL249:
	lw	s4,8(sp)
	.cfi_restore 20
	addi	sp,sp,32
	.cfi_def_cfa_offset 0
	jr	ra
	.cfi_endproc
.LFE33:
	.size	EF_Ctrl_Read_MAC_Address, .-EF_Ctrl_Read_MAC_Address
	.section	.text.EF_Ctrl_Read_Chip_ID,"ax",@progbits
	.align	1
	.globl	EF_Ctrl_Read_Chip_ID
	.type	EF_Ctrl_Read_Chip_ID, @function
EF_Ctrl_Read_Chip_ID:
.LFB40:
	.loc 1 1107 1 is_stmt 1
	.cfi_startproc
.LVL250:
	.loc 1 1108 5
	.loc 1 1108 14 is_stmt 0
	sb	zero,6(a0)
	.loc 1 1109 5 is_stmt 1
	.loc 1 1109 14 is_stmt 0
	sb	zero,7(a0)
	.loc 1 1110 5 is_stmt 1
	.loc 1 1110 12 is_stmt 0
	tail	EF_Ctrl_Read_MAC_Address
.LVL251:
	.cfi_endproc
.LFE40:
	.size	EF_Ctrl_Read_Chip_ID, .-EF_Ctrl_Read_Chip_ID
	.section	.text.EF_Ctrl_Read_MAC_Address_Raw,"ax",@progbits
	.align	1
	.globl	EF_Ctrl_Read_MAC_Address_Raw
	.type	EF_Ctrl_Read_MAC_Address_Raw, @function
EF_Ctrl_Read_MAC_Address_Raw:
.LFB34:
	.loc 1 842 1 is_stmt 1
	.cfi_startproc
.LVL252:
	.loc 1 843 5
	.loc 1 842 1 is_stmt 0
	addi	sp,sp,-32
	.cfi_def_cfa_offset 32
.LVL253:
	.loc 1 844 5 is_stmt 1
	.loc 1 845 5
	.loc 1 848 5
	.loc 1 842 1 is_stmt 0
	sw	ra,28(sp)
	.cfi_offset 1, -4
	.loc 1 842 1
	sw	a0,12(sp)
.LVL254:
	.loc 1 848 5
	call	EF_Ctrl_Load_Efuse_R0
.LVL255:
	.loc 1 850 5 is_stmt 1
	.loc 1 850 11 is_stmt 0
	li	a4,1073770496
	lw	a5,20(a4)
.LVL256:
	.loc 1 851 6 is_stmt 1
	.loc 1 851 15 is_stmt 0
	lw	a0,12(sp)
	.loc 1 851 45
	srli	a3,a5,8
	.loc 1 851 15
	sb	a5,0(a0)
	.loc 1 851 28 is_stmt 1
	.loc 1 851 37 is_stmt 0
	sb	a3,1(a0)
	.loc 1 851 55 is_stmt 1
	.loc 1 851 72 is_stmt 0
	srli	a3,a5,16
	.loc 1 851 100
	srli	a5,a5,24
.LVL257:
	.loc 1 851 64
	sb	a3,2(a0)
	.loc 1 851 83 is_stmt 1
	.loc 1 851 92 is_stmt 0
	sb	a5,3(a0)
	.loc 1 851 112 is_stmt 1
	.loc 1 853 5
	.loc 1 853 11 is_stmt 0
	lw	a5,24(a4)
.LVL258:
	.loc 1 854 5 is_stmt 1
	.loc 1 854 15 is_stmt 0
	sb	a5,4(a0)
	.loc 1 855 5 is_stmt 1
	.loc 1 855 23 is_stmt 0
	srli	a4,a5,8
	.loc 1 856 23
	srli	a5,a5,16
.LVL259:
	.loc 1 855 15
	sb	a4,5(a0)
	.loc 1 856 5 is_stmt 1
	.loc 1 856 15 is_stmt 0
	sb	a5,6(a0)
	.loc 1 858 5 is_stmt 1
	.loc 1 859 1 is_stmt 0
	lw	ra,28(sp)
	.cfi_restore 1
	li	a0,0
	addi	sp,sp,32
	.cfi_def_cfa_offset 0
.LVL260:
	jr	ra
	.cfi_endproc
.LFE34:
	.size	EF_Ctrl_Read_MAC_Address_Raw, .-EF_Ctrl_Read_MAC_Address_Raw
	.section	.text.EF_Ctrl_Is_MAC_Address_Slot_Empty,"ax",@progbits
	.align	1
	.globl	EF_Ctrl_Is_MAC_Address_Slot_Empty
	.type	EF_Ctrl_Is_MAC_Address_Slot_Empty, @function
EF_Ctrl_Is_MAC_Address_Slot_Empty:
.LFB37:
	.loc 1 923 1 is_stmt 1
	.cfi_startproc
.LVL261:
	.loc 1 924 5
	.loc 1 925 5
	.loc 1 927 5
	.loc 1 923 1 is_stmt 0
	addi	sp,sp,-16
	.cfi_def_cfa_offset 16
	sw	s0,8(sp)
	sw	ra,12(sp)
	.cfi_offset 8, -8
	.cfi_offset 1, -4
	.loc 1 923 1
	mv	s0,a1
	.loc 1 927 7
	bne	a0,zero,.L191
	.loc 1 929 9 is_stmt 1
	call	EF_Ctrl_Sw_AHB_Clk_0
.LVL262:
	.loc 1 931 9
	.loc 1 931 11 is_stmt 0
	beq	s0,zero,.L192
	.loc 1 932 13 is_stmt 1
	call	EF_Ctrl_Load_Efuse_R0
.LVL263:
.L192:
	.loc 1 934 9
	.loc 1 934 13 is_stmt 0
	li	a5,1073770496
	lw	a4,20(a5)
.LVL264:
	.loc 1 935 9 is_stmt 1
	.loc 1 935 13 is_stmt 0
	lw	a5,24(a5)
.LVL265:
.L193:
	.loc 1 956 5 is_stmt 1
	.loc 1 897 5
	.loc 1 899 5
	.loc 1 900 5
	.loc 1 906 5
	.loc 1 957 5
.LBB26:
.LBB27:
	.loc 1 897 5
	.loc 1 899 5
	.loc 1 900 5
	.loc 1 903 9
	.loc 1 906 5
	.loc 1 906 12 is_stmt 0
	slli	a5,a5,10
.LVL266:
	srli	a5,a5,10
	.loc 1 906 7
	or	a5,a5,a4
.LBE27:
.LBE26:
	.loc 1 959 23
	li	a0,1
.LBB29:
.LBB28:
	.loc 1 906 7
	beq	a5,zero,.L198
.LVL267:
.L196:
.LBE28:
.LBE29:
	.loc 1 959 23 discriminator 4
	li	a0,0
.L198:
	.loc 1 960 1 discriminator 6
	lw	ra,12(sp)
	.cfi_remember_state
	.cfi_restore 1
	lw	s0,8(sp)
	.cfi_restore 8
	addi	sp,sp,16
	.cfi_def_cfa_offset 0
	jr	ra
.LVL268:
.L191:
	.cfi_restore_state
	.loc 1 936 11 is_stmt 1
	.loc 1 936 13 is_stmt 0
	li	a5,1
	bne	a0,a5,.L194
	.loc 1 938 9 is_stmt 1
	call	EF_Ctrl_Sw_AHB_Clk_0
.LVL269:
	.loc 1 940 9
	.loc 1 940 11 is_stmt 0
	beq	s0,zero,.L195
	.loc 1 941 13 is_stmt 1
	call	EF_Ctrl_Load_Efuse_R0
.LVL270:
.L195:
	.loc 1 943 9
	.loc 1 943 13 is_stmt 0
	li	a5,1073770496
	lw	a4,108(a5)
.LVL271:
	.loc 1 944 9 is_stmt 1
	.loc 1 944 13 is_stmt 0
	lw	a5,112(a5)
.LVL272:
	j	.L193
.LVL273:
.L194:
	.loc 1 945 11 is_stmt 1
	.loc 1 945 13 is_stmt 0
	li	a5,2
	bne	a0,a5,.L196
	.loc 1 947 9 is_stmt 1
	call	EF_Ctrl_Sw_AHB_Clk_0
.LVL274:
	.loc 1 949 9
	.loc 1 949 11 is_stmt 0
	beq	s0,zero,.L197
	.loc 1 950 13 is_stmt 1
	call	EF_Ctrl_Load_Efuse_R0
.LVL275:
.L197:
	.loc 1 952 9
	.loc 1 952 13 is_stmt 0
	li	a5,1073770496
	lw	a4,4(a5)
.LVL276:
	.loc 1 953 9 is_stmt 1
	.loc 1 953 13 is_stmt 0
	lw	a5,8(a5)
.LVL277:
	j	.L193
	.cfi_endproc
.LFE37:
	.size	EF_Ctrl_Is_MAC_Address_Slot_Empty, .-EF_Ctrl_Is_MAC_Address_Slot_Empty
	.section	.text.EF_Ctrl_Read_MAC_Address_Opt,"ax",@progbits
	.align	1
	.globl	EF_Ctrl_Read_MAC_Address_Opt
	.type	EF_Ctrl_Read_MAC_Address_Opt, @function
EF_Ctrl_Read_MAC_Address_Opt:
.LFB39:
	.loc 1 1042 1 is_stmt 1
	.cfi_startproc
.LVL278:
	.loc 1 1043 5
	.loc 1 1044 5
	.loc 1 1045 5
	.loc 1 1046 5
	.loc 1 1047 5
	.loc 1 1049 5
	.loc 1 1049 7 is_stmt 0
	li	a5,2
	bgtu	a0,a5,.L230
	.loc 1 1042 1
	addi	sp,sp,-32
	.cfi_def_cfa_offset 32
	sw	s0,24(sp)
	sw	s1,20(sp)
	sw	ra,28(sp)
	sw	s2,16(sp)
	sw	s3,12(sp)
	sw	s4,8(sp)
	.cfi_offset 8, -8
	.cfi_offset 9, -12
	.cfi_offset 1, -4
	.cfi_offset 18, -16
	.cfi_offset 19, -20
	.cfi_offset 20, -24
	mv	s0,a1
	mv	s1,a0
	.loc 1 1054 5 is_stmt 1
	.loc 1 1054 7 is_stmt 0
	beq	a2,zero,.L213
	.loc 1 1055 9 is_stmt 1
	.loc 1 1055 11 is_stmt 0
	bne	a0,a5,.L214
	.loc 1 1056 13 is_stmt 1
	call	EF_Ctrl_Load_Efuse_R0
.LVL279:
	.loc 1 1062 5
.L215:
	.loc 1 1066 11
	.loc 1 1067 9
	.loc 1 1067 15 is_stmt 0
	li	a5,1073770496
	lw	a5,4(a5)
.LVL280:
	j	.L217
.LVL281:
.L214:
	.loc 1 1058 13 is_stmt 1
	call	EF_Ctrl_Load_Efuse_R0
.LVL282:
.L213:
	.loc 1 1062 5
	.loc 1 1062 7 is_stmt 0
	bne	s1,zero,.L216
	.loc 1 1063 9 is_stmt 1
	.loc 1 1063 15 is_stmt 0
	li	a5,1073770496
	lw	a5,20(a5)
.LVL283:
.L217:
	.loc 1 1069 6 is_stmt 1
	.loc 1 1069 45 is_stmt 0
	srli	a4,a5,8
	.loc 1 1069 15
	sb	a5,0(s0)
	.loc 1 1069 28 is_stmt 1
	.loc 1 1069 37 is_stmt 0
	sb	a4,1(s0)
	.loc 1 1069 55 is_stmt 1
	.loc 1 1069 72 is_stmt 0
	srli	a4,a5,16
	.loc 1 1069 100
	srli	a5,a5,24
	.loc 1 1069 64
	sb	a4,2(s0)
	.loc 1 1069 83 is_stmt 1
	.loc 1 1069 92 is_stmt 0
	sb	a5,3(s0)
	.loc 1 1069 112 is_stmt 1
	.loc 1 1071 5
	.loc 1 1071 7 is_stmt 0
	bne	s1,zero,.L218
	.loc 1 1072 9 is_stmt 1
	.loc 1 1072 15 is_stmt 0
	li	a5,1073770496
	lw	s1,24(a5)
.LVL284:
.L219:
	.loc 1 1078 5 is_stmt 1
	.loc 1 1079 23 is_stmt 0
	srli	a5,s1,8
	.loc 1 1078 15
	sb	s1,4(s0)
	.loc 1 1079 5 is_stmt 1
	.loc 1 1079 15 is_stmt 0
	sb	a5,5(s0)
	.loc 1 1082 5 is_stmt 1
	.loc 1 1047 14 is_stmt 0
	li	s3,0
	.loc 1 1082 10
	li	s2,0
	.loc 1 1082 5
	li	s4,6
.LVL285:
.L221:
	.loc 1 1083 9 is_stmt 1 discriminator 3
	.loc 1 1083 14 is_stmt 0 discriminator 3
	add	a5,s0,s2
	lbu	a0,0(a5)
	.loc 1 1082 18 discriminator 3
	addi	s2,s2,1
.LVL286:
	.loc 1 1083 14 discriminator 3
	call	EF_Ctrl_Get_Byte_Zero_Cnt
.LVL287:
	.loc 1 1083 12 discriminator 3
	add	s3,s3,a0
.LVL288:
	.loc 1 1082 5 discriminator 3
	bne	s2,s4,.L221
	.loc 1 1085 5 is_stmt 1
	.loc 1 1085 28 is_stmt 0
	srli	s1,s1,16
.LVL289:
	.loc 1 1085 18
	xor	s1,s1,s3
	andi	s1,s1,63
	.loc 1 1050 16
	li	a0,1
	.loc 1 1085 7
	bne	s1,zero,.L223
	addi	a5,s0,5
	addi	a4,s0,2
.LVL290:
.L222:
	.loc 1 1088 13 is_stmt 1 discriminator 3
	.loc 1 1089 23 is_stmt 0 discriminator 3
	lbu	a2,0(a5)
	.loc 1 1088 23 discriminator 3
	lbu	a3,0(s0)
.LVL291:
	.loc 1 1089 13 is_stmt 1 discriminator 3
	addi	a5,a5,-1
	.loc 1 1089 19 is_stmt 0 discriminator 3
	sb	a2,0(s0)
	.loc 1 1090 13 is_stmt 1 discriminator 3
	.loc 1 1090 21 is_stmt 0 discriminator 3
	sb	a3,1(a5)
.LVL292:
	addi	s0,s0,1
.LVL293:
	.loc 1 1087 9 discriminator 3
	bne	a4,a5,.L222
	.loc 1 1092 16
	li	a0,0
.LVL294:
.L223:
	.loc 1 1096 1
	lw	ra,28(sp)
	.cfi_remember_state
	.cfi_restore 1
	lw	s0,24(sp)
	.cfi_restore 8
	lw	s1,20(sp)
	.cfi_restore 9
	lw	s2,16(sp)
	.cfi_restore 18
	lw	s3,12(sp)
	.cfi_restore 19
.LVL295:
	lw	s4,8(sp)
	.cfi_restore 20
	addi	sp,sp,32
	.cfi_def_cfa_offset 0
	jr	ra
.LVL296:
.L216:
	.cfi_restore_state
	.loc 1 1064 11 is_stmt 1
	.loc 1 1064 13 is_stmt 0
	li	a5,1
	bne	s1,a5,.L215
	.loc 1 1065 9 is_stmt 1
	.loc 1 1065 15 is_stmt 0
	li	a5,1073770496
	lw	a5,108(a5)
.LVL297:
	j	.L217
.L218:
	.loc 1 1073 11 is_stmt 1
	.loc 1 1073 13 is_stmt 0
	li	a5,1
	bne	s1,a5,.L220
	.loc 1 1074 9 is_stmt 1
	.loc 1 1074 15 is_stmt 0
	li	a5,1073770496
	lw	s1,112(a5)
.LVL298:
	j	.L219
.LVL299:
.L220:
	.loc 1 1075 11 is_stmt 1
	.loc 1 1076 9
	.loc 1 1076 15 is_stmt 0
	li	a5,1073770496
	lw	s1,8(a5)
.LVL300:
	j	.L219
.LVL301:
.L230:
	.cfi_def_cfa_offset 0
	.cfi_restore 1
	.cfi_restore 8
	.cfi_restore 9
	.cfi_restore 18
	.cfi_restore 19
	.cfi_restore 20
	.loc 1 1050 16
	li	a0,1
.LVL302:
	.loc 1 1096 1
	ret
	.cfi_endproc
.LFE39:
	.size	EF_Ctrl_Read_MAC_Address_Opt, .-EF_Ctrl_Read_MAC_Address_Opt
	.section	.text.EF_Ctrl_Read_Device_Info,"ax",@progbits
	.align	1
	.globl	EF_Ctrl_Read_Device_Info
	.type	EF_Ctrl_Read_Device_Info, @function
EF_Ctrl_Read_Device_Info:
.LFB41:
	.loc 1 1122 1 is_stmt 1
	.cfi_startproc
.LVL303:
	.loc 1 1123 5
	.loc 1 1124 5
	.loc 1 1122 1 is_stmt 0
	addi	sp,sp,-32
	.cfi_def_cfa_offset 32
.LVL304:
	.loc 1 1127 5 is_stmt 1
	.loc 1 1122 1 is_stmt 0
	sw	ra,28(sp)
	.cfi_offset 1, -4
	.loc 1 1122 1
	sw	a0,12(sp)
.LVL305:
	.loc 1 1127 5
	call	EF_Ctrl_Load_Efuse_R0
.LVL306:
	.loc 1 1129 5 is_stmt 1
	.loc 1 1129 11 is_stmt 0
	li	a5,1073770496
	lw	a5,24(a5)
.LVL307:
	.loc 1 1130 5 is_stmt 1
	.loc 1 1130 7 is_stmt 0
	lw	a0,12(sp)
	.loc 1 1130 15
	srli	a5,a5,20
.LVL308:
	.loc 1 1130 7
	sw	a5,0(a0)
	.loc 1 1131 1
	lw	ra,28(sp)
	.cfi_restore 1
	addi	sp,sp,32
	.cfi_def_cfa_offset 0
.LVL309:
	jr	ra
	.cfi_endproc
.LFE41:
	.size	EF_Ctrl_Read_Device_Info, .-EF_Ctrl_Read_Device_Info
	.section	.text.EF_Ctrl_Is_CapCode_Slot_Empty,"ax",@progbits
	.align	1
	.globl	EF_Ctrl_Is_CapCode_Slot_Empty
	.type	EF_Ctrl_Is_CapCode_Slot_Empty, @function
EF_Ctrl_Is_CapCode_Slot_Empty:
.LFB42:
	.loc 1 1143 1 is_stmt 1
	.cfi_startproc
.LVL310:
	.loc 1 1144 5
	.loc 1 1147 5
	.loc 1 1143 1 is_stmt 0
	addi	sp,sp,-32
	.cfi_def_cfa_offset 32
	sw	s0,24(sp)
	sw	a1,12(sp)
	sw	ra,28(sp)
	.cfi_offset 8, -8
	.cfi_offset 1, -4
	.loc 1 1143 1
	mv	s0,a0
	.loc 1 1147 5
	call	EF_Ctrl_Sw_AHB_Clk_0
.LVL311:
	.loc 1 1149 5 is_stmt 1
	.loc 1 1149 7 is_stmt 0
	lw	a1,12(sp)
	beq	a1,zero,.L237
	.loc 1 1150 9 is_stmt 1
	call	EF_Ctrl_Load_Efuse_R0
.LVL312:
.L237:
	.loc 1 1153 5
	.loc 1 1153 7 is_stmt 0
	bne	s0,zero,.L238
	.loc 1 1154 9 is_stmt 1
	.loc 1 1154 12 is_stmt 0
	li	a5,1073770496
	lw	a5,12(a5)
.LVL313:
	.loc 1 1155 9 is_stmt 1
.LBB30:
.LBB31:
	.loc 1 897 5
	.loc 1 899 5
	.loc 1 900 5
	.loc 1 903 9
	.loc 1 906 5
	.loc 1 899 8 is_stmt 0
	srli	a5,a5,2
.LVL314:
.L246:
.LBE31:
.LBE30:
.LBB33:
.LBB34:
	.loc 1 906 12
	andi	a5,a5,255
.LBE34:
.LBE33:
.LBB36:
.LBB32:
	.loc 1 909 16
	seqz	a0,a5
.L239:
.LBE32:
.LBE36:
	.loc 1 1165 1
	lw	ra,28(sp)
	.cfi_remember_state
	.cfi_restore 1
	lw	s0,24(sp)
	.cfi_restore 8
	addi	sp,sp,32
	.cfi_def_cfa_offset 0
	jr	ra
.LVL315:
.L238:
	.cfi_restore_state
	.loc 1 1156 11 is_stmt 1
	.loc 1 1156 13 is_stmt 0
	li	a5,1
	bne	s0,a5,.L240
	.loc 1 1157 9 is_stmt 1
	.loc 1 1157 12 is_stmt 0
	li	a5,1073770496
	lw	a5,112(a5)
.LVL316:
	.loc 1 1158 9 is_stmt 1
.LBB37:
.LBB38:
	.loc 1 897 5
	.loc 1 899 5
	.loc 1 900 5
	.loc 1 903 9
	.loc 1 906 5
.L247:
.LBE38:
.LBE37:
	.loc 1 1161 9
.LBB39:
.LBB35:
	.loc 1 897 5
	.loc 1 899 5
	.loc 1 900 5
	.loc 1 903 9
	.loc 1 906 5
	.loc 1 899 8 is_stmt 0
	srli	a5,a5,22
.LVL317:
	j	.L246
.LVL318:
.L240:
.LBE35:
.LBE39:
	.loc 1 1159 11 is_stmt 1
	.loc 1 1159 13 is_stmt 0
	li	a4,2
	.loc 1 1164 12
	li	a0,0
	.loc 1 1159 13
	bne	s0,a4,.L239
	.loc 1 1160 9 is_stmt 1
	.loc 1 1160 12 is_stmt 0
	li	a5,1073770496
	lw	a5,8(a5)
.LVL319:
	j	.L247
	.cfi_endproc
.LFE42:
	.size	EF_Ctrl_Is_CapCode_Slot_Empty, .-EF_Ctrl_Is_CapCode_Slot_Empty
	.section	.text.EF_Ctrl_Write_CapCode_Opt,"ax",@progbits
	.align	1
	.globl	EF_Ctrl_Write_CapCode_Opt
	.type	EF_Ctrl_Write_CapCode_Opt, @function
EF_Ctrl_Write_CapCode_Opt:
.LFB43:
	.loc 1 1178 1 is_stmt 1
	.cfi_startproc
.LVL320:
	.loc 1 1179 5
	.loc 1 1180 5
	.loc 1 1182 5
	.loc 1 1182 7 is_stmt 0
	li	a5,2
	bgtu	a0,a5,.L258
	.loc 1 1178 1
	addi	sp,sp,-32
	.cfi_def_cfa_offset 32
	sw	s0,24(sp)
	.cfi_offset 8, -8
	mv	s0,a0
	.loc 1 1187 5 is_stmt 1
	.loc 1 1178 1 is_stmt 0
	sw	ra,28(sp)
	sw	s2,16(sp)
	sw	s3,12(sp)
	sw	s1,20(sp)
	.cfi_offset 1, -4
	.cfi_offset 18, -16
	.cfi_offset 19, -20
	.cfi_offset 9, -12
	mv	s2,a2
	mv	s3,a1
	.loc 1 1187 5
	call	EF_Ctrl_Sw_AHB_Clk_0
.LVL321:
	.loc 1 1188 5 is_stmt 1
	call	EF_Ctrl_Load_Efuse_R0
.LVL322:
	.loc 1 1190 5
	.loc 1 1190 7 is_stmt 0
	bne	s0,zero,.L250
	.loc 1 1191 9 is_stmt 1
	.loc 1 1191 12 is_stmt 0
	li	a5,1073770496
	lw	s1,12(a5)
.LVL323:
.L251:
	.loc 1 1198 5 is_stmt 1
	.loc 1 1199 5
	.loc 1 1199 13 is_stmt 0
	li	a1,6
	mv	a0,s3
	call	EF_Ctrl_Get_Trim_Parity
.LVL324:
	.loc 1 1199 45
	slli	a5,a0,6
	.loc 1 1199 9
	or	a5,a5,s3
.LVL325:
	.loc 1 1200 5 is_stmt 1
	.loc 1 1202 5
	.loc 1 1200 9 is_stmt 0
	ori	a5,a5,-128
.LVL326:
	andi	a5,a5,0xff
	.loc 1 1202 7
	bne	s0,zero,.L253
	.loc 1 1203 9 is_stmt 1
	.loc 1 1203 74 is_stmt 0
	slli	a5,a5,2
	.loc 1 1203 68
	or	a5,a5,s1
	.loc 1 1203 63
	li	a4,1073770496
	sw	a5,12(a4)
.L254:
	.loc 1 1210 5 is_stmt 1
	.loc 1 1210 7 is_stmt 0
	beq	s2,zero,.L256
	.loc 1 1211 9 is_stmt 1
	call	EF_Ctrl_Program_Efuse_0
.LVL327:
.L256:
	.loc 1 1213 10 is_stmt 0 discriminator 1
	li	s0,1
.L257:
	.loc 1 1213 31 is_stmt 1 discriminator 1
	.loc 1 1213 16 is_stmt 0 discriminator 1
	call	EF_Ctrl_Busy
.LVL328:
	.loc 1 1213 10 discriminator 1
	beq	a0,s0,.L257
	.loc 1 1216 1
	lw	ra,28(sp)
	.cfi_remember_state
	.cfi_restore 1
	lw	s0,24(sp)
	.cfi_restore 8
	lw	s1,20(sp)
	.cfi_restore 9
	lw	s2,16(sp)
	.cfi_restore 18
	lw	s3,12(sp)
	.cfi_restore 19
	.loc 1 1215 12
	li	a0,0
	.loc 1 1216 1
	addi	sp,sp,32
	.cfi_def_cfa_offset 0
	jr	ra
.L250:
	.cfi_restore_state
	.loc 1 1192 11 is_stmt 1
	.loc 1 1192 13 is_stmt 0
	li	a5,1
	bne	s0,a5,.L252
	.loc 1 1193 9 is_stmt 1
	.loc 1 1193 12 is_stmt 0
	li	a5,1073770496
	lw	s1,112(a5)
	j	.L251
.L252:
	.loc 1 1194 11 is_stmt 1
	.loc 1 1195 9
	.loc 1 1195 12 is_stmt 0
	li	a5,1073770496
	lw	s1,8(a5)
	j	.L251
.LVL329:
.L253:
	.loc 1 1204 11 is_stmt 1
	slli	a5,a5,22
	.loc 1 1204 13 is_stmt 0
	li	a4,1
	or	a5,a5,s1
	bne	s0,a4,.L255
	.loc 1 1205 9 is_stmt 1
	.loc 1 1205 64 is_stmt 0
	li	a4,1073770496
	sw	a5,112(a4)
	j	.L254
.L255:
	.loc 1 1206 11 is_stmt 1
	.loc 1 1207 9
	.loc 1 1207 63 is_stmt 0
	li	a4,1073770496
	sw	a5,8(a4)
	j	.L254
.LVL330:
.L258:
	.cfi_def_cfa_offset 0
	.cfi_restore 1
	.cfi_restore 8
	.cfi_restore 9
	.cfi_restore 18
	.cfi_restore 19
	.loc 1 1183 16
	li	a0,1
.LVL331:
	.loc 1 1216 1
	ret
	.cfi_endproc
.LFE43:
	.size	EF_Ctrl_Write_CapCode_Opt, .-EF_Ctrl_Write_CapCode_Opt
	.section	.text.EF_Ctrl_Read_CapCode_Opt,"ax",@progbits
	.align	1
	.globl	EF_Ctrl_Read_CapCode_Opt
	.type	EF_Ctrl_Read_CapCode_Opt, @function
EF_Ctrl_Read_CapCode_Opt:
.LFB44:
	.loc 1 1229 1 is_stmt 1
	.cfi_startproc
.LVL332:
	.loc 1 1230 5
	.loc 1 1231 5
	.loc 1 1233 5
	.loc 1 1233 7 is_stmt 0
	li	a5,2
	bleu	a0,a5,.L268
	.loc 1 1234 16
	li	a0,1
.LVL333:
	.loc 1 1259 1
	ret
.LVL334:
.L274:
	.cfi_def_cfa_offset 32
	.cfi_offset 1, -4
	.cfi_offset 8, -8
	.cfi_offset 9, -12
	.cfi_offset 18, -16
	.loc 1 1234 16
	li	a0,1
.L269:
	.loc 1 1259 1
	lw	ra,28(sp)
	.cfi_restore 1
	lw	s0,24(sp)
	.cfi_restore 8
	lw	s1,20(sp)
	.cfi_restore 9
.LVL335:
	lw	s2,16(sp)
	.cfi_restore 18
	addi	sp,sp,32
	.cfi_def_cfa_offset 0
.LVL336:
	jr	ra
.LVL337:
.L268:
	.loc 1 1229 1
	addi	sp,sp,-32
	.cfi_def_cfa_offset 32
	sw	s2,16(sp)
	.cfi_offset 18, -16
	mv	s2,a2
	sw	s0,24(sp)
	sw	s1,20(sp)
	sw	ra,28(sp)
	.cfi_offset 8, -8
	.cfi_offset 9, -12
	.cfi_offset 1, -4
	mv	s1,a1
	mv	s0,a0
	.loc 1 1238 5 is_stmt 1
	call	EF_Ctrl_Sw_AHB_Clk_0
.LVL338:
	.loc 1 1240 5
	.loc 1 1240 7 is_stmt 0
	beq	s2,zero,.L270
	.loc 1 1241 9 is_stmt 1
	call	EF_Ctrl_Load_Efuse_R0
.LVL339:
.L270:
	.loc 1 1244 5
	.loc 1 1244 7 is_stmt 0
	bne	s0,zero,.L271
	.loc 1 1245 9 is_stmt 1
	.loc 1 1245 15 is_stmt 0
	li	a5,1073770496
	lw	a5,12(a5)
	.loc 1 1245 70
	srli	a5,a5,2
.L284:
	.loc 1 1249 12
	sw	a5,12(sp)
	.loc 1 1252 5 is_stmt 1
	.loc 1 1252 8 is_stmt 0
	lw	a0,12(sp)
	andi	a5,a0,128
	.loc 1 1252 7
	beq	a5,zero,.L274
	.loc 1 1253 9 is_stmt 1
	.loc 1 1253 54 is_stmt 0
	andi	s0,a0,63
	.loc 1 1253 16
	srli	s2,a0,6
	.loc 1 1253 26
	li	a1,6
	mv	a0,s0
	.loc 1 1253 16
	andi	s2,s2,1
	.loc 1 1253 26
	call	EF_Ctrl_Get_Trim_Parity
.LVL340:
	.loc 1 1253 11
	bne	s2,a0,.L274
	.loc 1 1254 13 is_stmt 1
	.loc 1 1254 18 is_stmt 0
	sb	s0,0(s1)
	.loc 1 1255 13 is_stmt 1
	.loc 1 1255 20 is_stmt 0
	li	a0,0
	j	.L269
.L271:
	.loc 1 1246 11 is_stmt 1
	.loc 1 1246 13 is_stmt 0
	li	a5,1
	bne	s0,a5,.L273
	.loc 1 1247 9 is_stmt 1
	.loc 1 1247 15 is_stmt 0
	li	a5,1073770496
	lw	a5,112(a5)
.L285:
	.loc 1 1249 70
	srli	a5,a5,22
	j	.L284
.L273:
	.loc 1 1248 11 is_stmt 1
	.loc 1 1249 9
	.loc 1 1249 15 is_stmt 0
	li	a5,1073770496
	lw	a5,8(a5)
	j	.L285
	.cfi_endproc
.LFE44:
	.size	EF_Ctrl_Read_CapCode_Opt, .-EF_Ctrl_Read_CapCode_Opt
	.section	.text.EF_Ctrl_Is_PowerOffset_Slot_Empty,"ax",@progbits
	.align	1
	.globl	EF_Ctrl_Is_PowerOffset_Slot_Empty
	.type	EF_Ctrl_Is_PowerOffset_Slot_Empty, @function
EF_Ctrl_Is_PowerOffset_Slot_Empty:
.LFB45:
	.loc 1 1271 1 is_stmt 1
	.cfi_startproc
.LVL341:
	.loc 1 1272 5
	.loc 1 1273 5
	.loc 1 1276 5
	.loc 1 1271 1 is_stmt 0
	addi	sp,sp,-32
	.cfi_def_cfa_offset 32
	sw	s0,24(sp)
	sw	a1,12(sp)
	sw	ra,28(sp)
	.cfi_offset 8, -8
	.cfi_offset 1, -4
	.loc 1 1271 1
	mv	s0,a0
	.loc 1 1276 5
	call	EF_Ctrl_Sw_AHB_Clk_0
.LVL342:
	.loc 1 1278 5 is_stmt 1
	.loc 1 1278 7 is_stmt 0
	lw	a1,12(sp)
	beq	a1,zero,.L287
	.loc 1 1279 9 is_stmt 1
	call	EF_Ctrl_Load_Efuse_R0
.LVL343:
.L287:
	.loc 1 1282 5
	.loc 1 1282 7 is_stmt 0
	bne	s0,zero,.L288
	.loc 1 1283 9 is_stmt 1
	.loc 1 1283 13 is_stmt 0
	li	a5,1073770496
	lw	a5,120(a5)
.LVL344:
	.loc 1 1284 9 is_stmt 1
.LBB40:
.LBB41:
	.loc 1 897 5
	.loc 1 899 5
	.loc 1 900 5
	.loc 1 903 9
	.loc 1 906 5
.LBE41:
.LBE40:
	.loc 1 1285 19 is_stmt 0
	li	a4,1
.LBB43:
.LBB42:
	.loc 1 899 8
	srli	a5,a5,15
.LVL345:
	.loc 1 906 7
	seqz	a5,a5
.LVL346:
.LBE42:
.LBE43:
	.loc 1 1285 9 is_stmt 1
.L289:
	.loc 1 1300 5
	.loc 1 1300 23 is_stmt 0
	li	a0,0
	beq	a5,zero,.L291
	.loc 1 1300 23 discriminator 1
	mv	a0,a4
.LVL347:
.L291:
	.loc 1 1301 1 discriminator 6
	lw	ra,28(sp)
	.cfi_remember_state
	.cfi_restore 1
	lw	s0,24(sp)
	.cfi_restore 8
	andi	a0,a0,0xff
	addi	sp,sp,32
	.cfi_def_cfa_offset 0
	jr	ra
.LVL348:
.L288:
	.cfi_restore_state
	.loc 1 1286 11 is_stmt 1
	.loc 1 1286 13 is_stmt 0
	li	a5,1
	bne	s0,a5,.L290
	.loc 1 1287 9 is_stmt 1
	.loc 1 1287 13 is_stmt 0
	li	a4,1073770496
	lw	a5,116(a4)
.LVL349:
	.loc 1 1288 9 is_stmt 1
.LBB44:
.LBB45:
	.loc 1 897 5
	.loc 1 899 5
	.loc 1 900 5
	.loc 1 903 9
	.loc 1 906 5
.LBE45:
.LBE44:
	.loc 1 1290 13 is_stmt 0
	lw	a4,12(a4)
.LVL350:
.LBB47:
.LBB46:
	.loc 1 906 12
	slli	a5,a5,16
	srli	a5,a5,16
	.loc 1 906 7
	seqz	a5,a5
.LVL351:
.LBE46:
.LBE47:
	.loc 1 1290 9 is_stmt 1
	.loc 1 1291 9
	.loc 1 897 5
	.loc 1 899 5
	.loc 1 900 5
	.loc 1 903 9
	.loc 1 906 5
.L299:
	not	a4,a4
	andi	a4,a4,1
.LVL352:
	j	.L289
.LVL353:
.L290:
	.loc 1 1292 11
	.loc 1 1292 13 is_stmt 0
	li	a5,2
	.loc 1 1300 23
	li	a0,0
	.loc 1 1292 13
	bne	s0,a5,.L291
	.loc 1 1293 9 is_stmt 1
	.loc 1 1293 13 is_stmt 0
	li	a4,1073770496
	lw	a5,116(a4)
.LVL354:
	.loc 1 1294 9 is_stmt 1
.LBB48:
.LBB49:
	.loc 1 897 5
	.loc 1 899 5
	.loc 1 900 5
	.loc 1 903 9
	.loc 1 906 5
.LBE49:
.LBE48:
	.loc 1 1296 13 is_stmt 0
	lw	a4,12(a4)
.LVL355:
.LBB51:
.LBB50:
	.loc 1 899 8
	srli	a5,a5,16
	.loc 1 906 7
	seqz	a5,a5
.LVL356:
.LBE50:
.LBE51:
	.loc 1 1296 9 is_stmt 1
	.loc 1 1297 9
.LBB52:
.LBB53:
	.loc 1 897 5
	.loc 1 899 5
	.loc 1 900 5
	.loc 1 903 9
	.loc 1 906 5
	.loc 1 899 8 is_stmt 0
	srli	a4,a4,1
.LVL357:
	j	.L299
.LBE53:
.LBE52:
	.cfi_endproc
.LFE45:
	.size	EF_Ctrl_Is_PowerOffset_Slot_Empty, .-EF_Ctrl_Is_PowerOffset_Slot_Empty
	.globl	__lshrdi3
	.section	.text.EF_Ctrl_Read_PowerOffset_Opt,"ax",@progbits
	.align	1
	.globl	EF_Ctrl_Read_PowerOffset_Opt
	.type	EF_Ctrl_Read_PowerOffset_Opt, @function
EF_Ctrl_Read_PowerOffset_Opt:
.LFB47:
	.loc 1 1383 1 is_stmt 1
	.cfi_startproc
.LVL358:
	.loc 1 1384 5
	.loc 1 1386 5
	.loc 1 1387 5
	.loc 1 1390 5
	.loc 1 1383 1 is_stmt 0
	addi	sp,sp,-48
	.cfi_def_cfa_offset 48
	sw	s0,40(sp)
	sw	s2,32(sp)
	sw	a2,12(sp)
	sw	ra,44(sp)
	sw	s1,36(sp)
	sw	s3,28(sp)
	sw	s4,24(sp)
	.cfi_offset 8, -8
	.cfi_offset 18, -16
	.cfi_offset 1, -4
	.cfi_offset 9, -12
	.cfi_offset 19, -20
	.cfi_offset 20, -24
	.loc 1 1383 1
	mv	s0,a0
	mv	s2,a1
	.loc 1 1390 5
	call	EF_Ctrl_Sw_AHB_Clk_0
.LVL359:
	.loc 1 1392 5 is_stmt 1
	.loc 1 1392 7 is_stmt 0
	lw	a2,12(sp)
	beq	a2,zero,.L301
	.loc 1 1393 9 is_stmt 1
	call	EF_Ctrl_Load_Efuse_R0
.LVL360:
.L301:
	.loc 1 1396 5
	.loc 1 1396 7 is_stmt 0
	bne	s0,zero,.L302
	.loc 1 1397 9 is_stmt 1
	.loc 1 1397 12 is_stmt 0
	li	a5,1073770496
	lw	s0,120(a5)
.LVL361:
	.loc 1 1398 9 is_stmt 1
	.loc 1 1398 16 is_stmt 0
	srli	a5,s0,15
	.loc 1 1399 23
	slli	s1,s0,1
	.loc 1 1398 11
	andi	a5,a5,1
.LVL362:
	.loc 1 1399 9 is_stmt 1
	.loc 1 1399 23 is_stmt 0
	srli	s1,s1,17
.LVL363:
	.loc 1 1400 9 is_stmt 1
	.loc 1 1400 15 is_stmt 0
	srli	s0,s0,31
.LVL364:
.L303:
	.loc 1 1417 5 is_stmt 1
	.loc 1 1417 7 is_stmt 0
	beq	a5,zero,.L307
	.loc 1 1418 9 is_stmt 1
	.loc 1 1418 20 is_stmt 0
	li	a1,15
	mv	a0,s1
	call	EF_Ctrl_Get_Trim_Parity
.LVL365:
	.loc 1 1418 11
	bne	a0,s0,.L307
	.loc 1 1419 18
	li	s0,0
.LVL366:
	.loc 1 1420 36
	li	s4,5
	.loc 1 1419 13
	li	s3,3
.L310:
.LVL367:
	.loc 1 1420 17 is_stmt 1
	.loc 1 1420 36 is_stmt 0
	mul	a2,s0,s4
	mv	a0,s1
	li	a1,0
	call	__lshrdi3
.LVL368:
	.loc 1 1420 20
	andi	a5,a0,31
.LVL369:
	.loc 1 1421 17 is_stmt 1
	.loc 1 1421 19 is_stmt 0
	andi	a0,a0,16
	add	a4,s2,s0
	beq	a0,zero,.L308
	.loc 1 1422 21 is_stmt 1
	.loc 1 1422 37 is_stmt 0
	addi	a5,a5,-32
.LVL370:
.L308:
	.loc 1 1424 21 is_stmt 1
	.loc 1 1424 33 is_stmt 0
	sb	a5,0(a4)
	.loc 1 1419 26
	addi	s0,s0,1
.LVL371:
	.loc 1 1419 13
	bne	s0,s3,.L310
	.loc 1 1427 20
	li	a0,0
	j	.L306
.LVL372:
.L302:
	.loc 1 1401 11 is_stmt 1
	.loc 1 1401 13 is_stmt 0
	li	a5,1
	bne	s0,a5,.L304
	.loc 1 1402 9 is_stmt 1
	.loc 1 1402 12 is_stmt 0
	li	a5,1073770496
	lw	s0,116(a5)
.LVL373:
	.loc 1 1403 9 is_stmt 1
	.loc 1 1406 12 is_stmt 0
	lw	a5,12(a5)
.LVL374:
	.loc 1 1403 23
	slli	s1,s0,17
	.loc 1 1404 20
	srli	s0,s0,15
	.loc 1 1403 23
	srli	s1,s1,17
.LVL375:
	.loc 1 1404 9 is_stmt 1
	.loc 1 1404 15 is_stmt 0
	andi	s0,s0,1
.LVL376:
	.loc 1 1406 9 is_stmt 1
	.loc 1 1407 9
.L319:
	.loc 1 1414 11 is_stmt 0
	andi	a5,a5,1
.LVL377:
	j	.L303
.LVL378:
.L304:
	.loc 1 1408 11 is_stmt 1
	.loc 1 1408 13 is_stmt 0
	li	a5,2
	beq	s0,a5,.L305
.LVL379:
.L307:
	.loc 1 1430 12
	li	a0,1
.L306:
	.loc 1 1431 1
	lw	ra,44(sp)
	.cfi_remember_state
	.cfi_restore 1
	lw	s0,40(sp)
	.cfi_restore 8
	lw	s1,36(sp)
	.cfi_restore 9
	lw	s2,32(sp)
	.cfi_restore 18
.LVL380:
	lw	s3,28(sp)
	.cfi_restore 19
	lw	s4,24(sp)
	.cfi_restore 20
	addi	sp,sp,48
	.cfi_def_cfa_offset 0
	jr	ra
.LVL381:
.L305:
	.cfi_restore_state
	.loc 1 1409 9 is_stmt 1
	.loc 1 1409 12 is_stmt 0
	li	a5,1073770496
	lw	s0,116(a5)
.LVL382:
	.loc 1 1410 9 is_stmt 1
	.loc 1 1413 12 is_stmt 0
	lw	a5,12(a5)
.LVL383:
	.loc 1 1410 23
	slli	s1,s0,1
	srli	s1,s1,17
.LVL384:
	.loc 1 1411 9 is_stmt 1
	.loc 1 1411 15 is_stmt 0
	srli	s0,s0,31
.LVL385:
	.loc 1 1413 9 is_stmt 1
	.loc 1 1414 9
	.loc 1 1414 16 is_stmt 0
	srli	a5,a5,1
.LVL386:
	j	.L319
	.cfi_endproc
.LFE47:
	.size	EF_Ctrl_Read_PowerOffset_Opt, .-EF_Ctrl_Read_PowerOffset_Opt
	.section	.text.EF_Ctrl_Read_AES_Key,"ax",@progbits
	.align	1
	.globl	EF_Ctrl_Read_AES_Key
	.type	EF_Ctrl_Read_AES_Key, @function
EF_Ctrl_Read_AES_Key:
.LFB49:
	.loc 1 1473 1 is_stmt 1
	.cfi_startproc
.LVL387:
	.loc 1 1474 5
	.loc 1 1476 5
	.loc 1 1476 7 is_stmt 0
	li	a4,5
	bgtu	a0,a4,.L320
	.loc 1 1473 1
	addi	sp,sp,-32
	.cfi_def_cfa_offset 32
	sw	s0,24(sp)
	sw	ra,28(sp)
	.cfi_offset 8, -8
	.cfi_offset 1, -4
	mv	s0,a0
	sw	a2,12(sp)
	sw	a1,8(sp)
	.loc 1 1480 5 is_stmt 1
	call	EF_Ctrl_Load_Efuse_R0
.LVL388:
	.loc 1 1483 5
	li	a1,1073770496
	.loc 1 1483 40 is_stmt 0
	slli	s0,s0,4
	.loc 1 1483 5
	addi	a1,a1,28
	add	a1,s0,a1
	.loc 1 1484 1
	lw	s0,24(sp)
	.cfi_restore 8
	.loc 1 1483 5
	lw	a2,12(sp)
	lw	a0,8(sp)
	.loc 1 1484 1
	lw	ra,28(sp)
	.cfi_restore 1
	addi	sp,sp,32
	.cfi_def_cfa_offset 0
.LVL389:
	.loc 1 1483 5
	tail	BL602_MemCpy4
.LVL390:
.L320:
	ret
	.cfi_endproc
.LFE49:
	.size	EF_Ctrl_Read_AES_Key, .-EF_Ctrl_Read_AES_Key
	.section	.text.EF_Ctrl_Read_Direct_R0,"ax",@progbits
	.align	1
	.globl	EF_Ctrl_Read_Direct_R0
	.type	EF_Ctrl_Read_Direct_R0, @function
EF_Ctrl_Read_Direct_R0:
.LFB53:
	.loc 1 1583 1 is_stmt 1
	.cfi_startproc
.LVL391:
	.loc 1 1584 5
	.loc 1 1586 5
	.loc 1 1583 1 is_stmt 0
	addi	sp,sp,-32
	.cfi_def_cfa_offset 32
	sw	s0,24(sp)
	sw	ra,28(sp)
	.cfi_offset 8, -8
	.cfi_offset 1, -4
	.loc 1 1583 1
	mv	s0,a0
	sw	a1,12(sp)
	sw	a2,8(sp)
	.loc 1 1586 5
	call	EF_Ctrl_Load_Efuse_R0
.LVL392:
	.loc 1 1588 5 is_stmt 1
	.loc 1 1588 36 is_stmt 0
	slli	s0,s0,2
.LVL393:
	.loc 1 1588 5
	li	a1,1073770496
	add	a1,a1,s0
	.loc 1 1589 1
	lw	s0,24(sp)
	.cfi_restore 8
	.loc 1 1588 5
	lw	a2,8(sp)
	lw	a0,12(sp)
	.loc 1 1589 1
	lw	ra,28(sp)
	.cfi_restore 1
	addi	sp,sp,32
	.cfi_def_cfa_offset 0
.LVL394:
	.loc 1 1588 5
	tail	BL602_MemCpy4
.LVL395:
	.cfi_endproc
.LFE53:
	.size	EF_Ctrl_Read_Direct_R0, .-EF_Ctrl_Read_Direct_R0
	.section	.text.EF_Ctrl_Crc_Enable,"ax",@progbits
	.align	1
	.globl	EF_Ctrl_Crc_Enable
	.type	EF_Ctrl_Crc_Enable, @function
EF_Ctrl_Crc_Enable:
.LFB55:
	.loc 1 1626 1 is_stmt 1
	.cfi_startproc
	.loc 1 1627 5
	.loc 1 1629 5
	.loc 1 1629 11 is_stmt 0
	li	a4,1073774592
	lw	a5,-1536(a4)
.LVL396:
	.loc 1 1630 5 is_stmt 1
	.loc 1 1631 5
	.loc 1 1632 5
	.loc 1 1633 5
	.loc 1 1634 5
	.loc 1 1635 5
	.loc 1 1636 5
	andi	a5,a5,-1737
.LVL397:
	.loc 1 1636 11 is_stmt 0
	ori	a5,a5,34
.LVL398:
	.loc 1 1637 5 is_stmt 1
	.loc 1 1637 61 is_stmt 0
	sw	a5,-1536(a4)
	.loc 1 1639 5 is_stmt 1
	.loc 1 1639 11 is_stmt 0
	lw	a5,-1536(a4)
.LVL399:
	.loc 1 1640 5 is_stmt 1
	.loc 1 1640 11 is_stmt 0
	ori	a5,a5,4
.LVL400:
	.loc 1 1641 5 is_stmt 1
	.loc 1 1641 61 is_stmt 0
	sw	a5,-1536(a4)
	.loc 1 1642 1
	ret
	.cfi_endproc
.LFE55:
	.size	EF_Ctrl_Crc_Enable, .-EF_Ctrl_Crc_Enable
	.section	.text.EF_Ctrl_Crc_Is_Busy,"ax",@progbits
	.align	1
	.globl	EF_Ctrl_Crc_Is_Busy
	.type	EF_Ctrl_Crc_Is_Busy, @function
EF_Ctrl_Crc_Is_Busy:
.LFB56:
	.loc 1 1653 1 is_stmt 1
	.cfi_startproc
	.loc 1 1654 5
	.loc 1 1656 5
	.loc 1 1656 11 is_stmt 0
	li	a5,1073774592
	lw	a0,-1536(a5)
.LVL401:
	.loc 1 1657 5 is_stmt 1
	.loc 1 1658 1 is_stmt 0
	andi	a0,a0,1
.LVL402:
	ret
	.cfi_endproc
.LFE56:
	.size	EF_Ctrl_Crc_Is_Busy, .-EF_Ctrl_Crc_Is_Busy
	.section	.text.EF_Ctrl_Crc_Set_Golden,"ax",@progbits
	.align	1
	.globl	EF_Ctrl_Crc_Set_Golden
	.type	EF_Ctrl_Crc_Set_Golden, @function
EF_Ctrl_Crc_Set_Golden:
.LFB57:
	.loc 1 1669 1 is_stmt 1
	.cfi_startproc
.LVL403:
	.loc 1 1670 5
	.loc 1 1670 61 is_stmt 0
	li	a5,1073774592
	sw	a0,-1520(a5)
	.loc 1 1671 1
	ret
	.cfi_endproc
.LFE57:
	.size	EF_Ctrl_Crc_Set_Golden, .-EF_Ctrl_Crc_Set_Golden
	.section	.text.EF_Ctrl_Crc_Result,"ax",@progbits
	.align	1
	.globl	EF_Ctrl_Crc_Result
	.type	EF_Ctrl_Crc_Result, @function
EF_Ctrl_Crc_Result:
.LFB58:
	.loc 1 1682 1 is_stmt 1
	.cfi_startproc
	.loc 1 1683 5
	.loc 1 1685 5
	.loc 1 1685 11 is_stmt 0
	li	a5,1073774592
	lw	a0,-1536(a5)
.LVL404:
	.loc 1 1686 5 is_stmt 1
	.loc 1 1686 12 is_stmt 0
	srli	a0,a0,4
.LVL405:
	.loc 1 1687 1
	andi	a0,a0,1
	ret
	.cfi_endproc
.LFE58:
	.size	EF_Ctrl_Crc_Result, .-EF_Ctrl_Crc_Result
	.text
.Letext0:
	.file 2 "/home/hogc/build-tools/sdk/bl/bl_iot_sdk/toolchain/riscv/Linux/lib/gcc/riscv64-unknown-elf/8.3.0/include/stddef.h"
	.file 3 "/home/hogc/build-tools/sdk/bl/bl_iot_sdk/toolchain/riscv/Linux/riscv64-unknown-elf/include/sys/_types.h"
	.file 4 "/home/hogc/build-tools/sdk/bl/bl_iot_sdk/toolchain/riscv/Linux/riscv64-unknown-elf/include/sys/reent.h"
	.file 5 "/home/hogc/build-tools/sdk/bl/bl_iot_sdk/toolchain/riscv/Linux/riscv64-unknown-elf/include/sys/lock.h"
	.file 6 "/home/hogc/build-tools/sdk/bl/bl_iot_sdk/toolchain/riscv/Linux/lib/gcc/riscv64-unknown-elf/8.3.0/include/stdint-gcc.h"
	.file 7 "/home/hogc/build-tools/sdk/bl/bl_iot_sdk/components/bl602/bl602_std/bl602_std/RISCV/Device/Bouffalo/BL602/Startup/system_bl602.h"
	.file 8 "/home/hogc/build-tools/sdk/bl/bl_iot_sdk/components/bl602/bl602_std/bl602_std/StdDriver/Inc/bl602_common.h"
	.file 9 "/home/hogc/build-tools/sdk/bl/bl_iot_sdk/components/bl602/bl602_std/bl602_std/StdDriver/Inc/bl602_ef_ctrl.h"