	.file	"bl602_ef_ctrl.c"
	.option nopic
	.attribute arch, "rv32i2p0_m2p0_f2p0_c2p0"
	.attribute unaligned_access, 0
	.attribute stack_align, 16
	.text
.Ltext0:
	.cfi_sections	.debug_frame
	.section	.text.EF_Ctrl_Get_Byte_Zero_Cnt,"ax",@progbits
	.align	1
	.type	EF_Ctrl_Get_Byte_Zero_Cnt, @function
EF_Ctrl_Get_Byte_Zero_Cnt:
.LFB33:
	.file 1 "/b-l/bl_iot_sdk_new/components/bl602/bl602_std/bl602_std/StdDriver/Src/bl602_ef_ctrl.c"
	.loc 1 806 1
	.cfi_startproc
.LVL0:
	.loc 1 807 5
	.loc 1 808 5
	.loc 1 809 5
	.loc 1 809 10 is_stmt 0
	li	a5,0
	.loc 1 807 14
	li	a4,0
	.loc 1 809 5
	li	a2,8
.LVL1:
.L3:
	.loc 1 810 9 is_stmt 1
	.loc 1 810 24 is_stmt 0
	sra	a3,a0,a5
	andi	a3,a3,1
	.loc 1 810 11
	bne	a3,zero,.L2
	.loc 1 811 13 is_stmt 1
	.loc 1 811 16 is_stmt 0
	addi	a4,a4,1
.LVL2:
.L2:
	.loc 1 809 18 discriminator 2
	addi	a5,a5,1
.LVL3:
	.loc 1 809 5 discriminator 2
	bne	a5,a2,.L3
	.loc 1 814 5 is_stmt 1
	.loc 1 815 1 is_stmt 0
	mv	a0,a4
.LVL4:
	ret
	.cfi_endproc
.LFE33:
	.size	EF_Ctrl_Get_Byte_Zero_Cnt, .-EF_Ctrl_Get_Byte_Zero_Cnt
	.section	.tcm_code,"ax",@progbits
	.align	1
	.weak	EF_Ctrl_Program_Efuse_0
	.type	EF_Ctrl_Program_Efuse_0, @function
EF_Ctrl_Program_Efuse_0:
.LFB9:
	.loc 1 139 1 is_stmt 1
	.cfi_startproc
	.loc 1 140 5
	.loc 1 143 5
.LVL5:
	.loc 1 152 5
	.loc 1 139 1 is_stmt 0
	addi	sp,sp,-16
	.cfi_def_cfa_offset 16
	.loc 1 152 61
	li	a5,2408448
	.loc 1 139 1
	sw	s0,8(sp)
	sw	s1,4(sp)
	sw	ra,12(sp)
	.cfi_offset 8, -8
	.cfi_offset 9, -12
	.cfi_offset 1, -4
	.loc 1 152 61
	li	s1,1073774592
	addi	a5,a5,-256
	.loc 1 164 61
	li	s0,2473984
	.loc 1 152 61
	sw	a5,-2048(s1)
	.loc 1 155 5 is_stmt 1
.LVL6:
	.loc 1 164 5
	.loc 1 164 61 is_stmt 0
	addi	a5,s0,-248
	sw	a5,-2048(s1)
	.loc 1 167 5 is_stmt 1
	.loc 1 179 61 is_stmt 0
	addi	s0,s0,-232
	.loc 1 167 5
	li	a0,4
	call	BL602_Delay_US
.LVL7:
	.loc 1 170 5 is_stmt 1
	.loc 1 179 5
	.loc 1 179 61 is_stmt 0
	sw	s0,-2048(s1)
	.loc 1 180 1
	lw	ra,12(sp)
	.cfi_restore 1
	lw	s0,8(sp)
	.cfi_restore 8
	lw	s1,4(sp)
	.cfi_restore 9
	addi	sp,sp,16
	.cfi_def_cfa_offset 0
	jr	ra
	.cfi_endproc
.LFE9:
	.size	EF_Ctrl_Program_Efuse_0, .-EF_Ctrl_Program_Efuse_0
	.align	1
	.weak	EF_Ctrl_Busy
	.type	EF_Ctrl_Busy, @function
EF_Ctrl_Busy:
.LFB11:
	.loc 1 266 1 is_stmt 1
	.cfi_startproc
	.loc 1 267 5
	.loc 1 269 5
	.loc 1 269 11 is_stmt 0
	li	a5,1073774592
	lw	a0,-2048(a5)
.LVL8:
	.loc 1 270 5 is_stmt 1
	.loc 1 270 7 is_stmt 0
	srli	a0,a0,2
.LVL9:
	.loc 1 275 1
	andi	a0,a0,1
	ret
	.cfi_endproc
.LFE11:
	.size	EF_Ctrl_Busy, .-EF_Ctrl_Busy
	.align	1
	.weak	EF_Ctrl_Sw_AHB_Clk_0
	.type	EF_Ctrl_Sw_AHB_Clk_0, @function
EF_Ctrl_Sw_AHB_Clk_0:
.LFB8:
	.loc 1 103 1 is_stmt 1
	.cfi_startproc
	.loc 1 104 5
	.loc 1 105 5
.LVL10:
	.loc 1 107 5
	.loc 1 103 1 is_stmt 0
	addi	sp,sp,-16
	.cfi_def_cfa_offset 16
	sw	s0,8(sp)
	.cfi_offset 8, -8
	.loc 1 107 10
	li	s0,159744
	.loc 1 103 1
	sw	s1,4(sp)
	sw	ra,12(sp)
	.cfi_offset 9, -12
	.cfi_offset 1, -4
	.loc 1 107 10
	addi	s0,s0,256
	li	s1,1
.LVL11:
.L9:
	.loc 1 107 11
	call	EF_Ctrl_Busy
.LVL12:
	.loc 1 107 10
	bne	a0,s1,.L10
	.loc 1 108 9 is_stmt 1
.LVL13:
	.loc 1 109 9
	addi	s0,s0,-1
.LVL14:
	.loc 1 109 11 is_stmt 0
	bne	s0,zero,.L9
.L10:
	.loc 1 114 5 is_stmt 1
.LVL15:
	.loc 1 124 5
	.loc 1 124 61 is_stmt 0
	li	a5,2408448
	li	a4,1073774592
	addi	a5,a5,-128
	sw	a5,-2048(a4)
	.loc 1 125 1
	lw	ra,12(sp)
	.cfi_restore 1
	lw	s0,8(sp)
	.cfi_restore 8
.LVL16:
	lw	s1,4(sp)
	.cfi_restore 9
	addi	sp,sp,16
	.cfi_def_cfa_offset 0
	jr	ra
	.cfi_endproc
.LFE8:
	.size	EF_Ctrl_Sw_AHB_Clk_0, .-EF_Ctrl_Sw_AHB_Clk_0
	.align	1
	.weak	EF_Ctrl_AutoLoad_Done
	.type	EF_Ctrl_AutoLoad_Done, @function
EF_Ctrl_AutoLoad_Done:
.LFB12:
	.loc 1 289 1 is_stmt 1
	.cfi_startproc
	.loc 1 290 5
	.loc 1 292 5
	.loc 1 292 11 is_stmt 0
	li	a5,1073774592
	lw	a0,-2048(a5)
.LVL17:
	.loc 1 294 5 is_stmt 1
	.loc 1 294 7 is_stmt 0
	srli	a0,a0,1
.LVL18:
	.loc 1 299 1
	andi	a0,a0,1
	ret
	.cfi_endproc
.LFE12:
	.size	EF_Ctrl_AutoLoad_Done, .-EF_Ctrl_AutoLoad_Done
	.section	.text.EF_Ctrl_Write_Dbg_Pwd,"ax",@progbits
	.align	1
	.globl	EF_Ctrl_Write_Dbg_Pwd
	.type	EF_Ctrl_Write_Dbg_Pwd, @function
EF_Ctrl_Write_Dbg_Pwd:
.LFB13:
	.loc 1 313 1 is_stmt 1
	.cfi_startproc
.LVL19:
	.loc 1 315 5
	.loc 1 313 1 is_stmt 0
	addi	sp,sp,-32
	.cfi_def_cfa_offset 32
	sw	a0,12(sp)
	sw	a1,8(sp)
	sw	a2,4(sp)
	sw	ra,28(sp)
	.cfi_offset 1, -4
	.loc 1 315 5
	call	EF_Ctrl_Sw_AHB_Clk_0
.LVL20:
	.loc 1 317 5 is_stmt 1
	.loc 1 317 59 is_stmt 0
	lw	a0,12(sp)
	li	a5,1073770496
	sw	a0,4(a5)
.LVL21:
	.loc 1 318 5 is_stmt 1
	.loc 1 318 59 is_stmt 0
	lw	a1,8(sp)
	sw	a1,8(a5)
	.loc 1 320 5 is_stmt 1
	.loc 1 320 7 is_stmt 0
	lw	a2,4(sp)
	beq	a2,zero,.L17
	.loc 1 321 9 is_stmt 1
	.loc 1 323 1 is_stmt 0
	lw	ra,28(sp)
	.cfi_remember_state
	.cfi_restore 1
	addi	sp,sp,32
	.cfi_def_cfa_offset 0
	.loc 1 321 9
	tail	EF_Ctrl_Program_Efuse_0
.LVL22:
.L17:
	.cfi_restore_state
	.loc 1 323 1
	lw	ra,28(sp)
	.cfi_restore 1
	addi	sp,sp,32
	.cfi_def_cfa_offset 0
	jr	ra
	.cfi_endproc
.LFE13:
	.size	EF_Ctrl_Write_Dbg_Pwd, .-EF_Ctrl_Write_Dbg_Pwd
	.section	.text.EF_Ctrl_Readlock_Dbg_Pwd,"ax",@progbits
	.align	1
	.globl	EF_Ctrl_Readlock_Dbg_Pwd
	.type	EF_Ctrl_Readlock_Dbg_Pwd, @function
EF_Ctrl_Readlock_Dbg_Pwd:
.LFB15:
	.loc 1 352 1 is_stmt 1
	.cfi_startproc
.LVL23:
	.loc 1 353 5
	.loc 1 356 5
	.loc 1 352 1 is_stmt 0
	addi	sp,sp,-32
	.cfi_def_cfa_offset 32
	sw	a0,12(sp)
	sw	ra,28(sp)
	.cfi_offset 1, -4
	.loc 1 356 5
	call	EF_Ctrl_Sw_AHB_Clk_0
.LVL24:
	.loc 1 358 5 is_stmt 1
	.loc 1 358 11 is_stmt 0
	li	a4,1073770496
	lw	a5,124(a4)
.LVL25:
	.loc 1 359 5 is_stmt 1
	.loc 1 359 11 is_stmt 0
	li	a3,33554432
	or	a5,a5,a3
.LVL26:
	.loc 1 360 5 is_stmt 1
	.loc 1 360 60 is_stmt 0
	sw	a5,124(a4)
	.loc 1 362 5 is_stmt 1
	.loc 1 362 7 is_stmt 0
	lw	a0,12(sp)
	beq	a0,zero,.L20
	.loc 1 363 9 is_stmt 1
	.loc 1 365 1 is_stmt 0
	lw	ra,28(sp)
	.cfi_remember_state
	.cfi_restore 1
	addi	sp,sp,32
	.cfi_def_cfa_offset 0
	.loc 1 363 9
	tail	EF_Ctrl_Program_Efuse_0
.LVL27:
.L20:
	.cfi_restore_state
	.loc 1 365 1
	lw	ra,28(sp)
	.cfi_restore 1
	addi	sp,sp,32
	.cfi_def_cfa_offset 0
	jr	ra
	.cfi_endproc
.LFE15:
	.size	EF_Ctrl_Readlock_Dbg_Pwd, .-EF_Ctrl_Readlock_Dbg_Pwd
	.section	.text.EF_Ctrl_Writelock_Dbg_Pwd,"ax",@progbits
	.align	1
	.globl	EF_Ctrl_Writelock_Dbg_Pwd
	.type	EF_Ctrl_Writelock_Dbg_Pwd, @function
EF_Ctrl_Writelock_Dbg_Pwd:
.LFB16:
	.loc 1 376 1 is_stmt 1
	.cfi_startproc
.LVL28:
	.loc 1 377 5
	.loc 1 380 5
	.loc 1 376 1 is_stmt 0
	addi	sp,sp,-32
	.cfi_def_cfa_offset 32
	sw	a0,12(sp)
	sw	ra,28(sp)
	.cfi_offset 1, -4
	.loc 1 380 5
	call	EF_Ctrl_Sw_AHB_Clk_0
.LVL29:
	.loc 1 382 5 is_stmt 1
	.loc 1 382 11 is_stmt 0
	li	a4,1073770496
	lw	a5,124(a4)
.LVL30:
	.loc 1 383 5 is_stmt 1
	.loc 1 383 11 is_stmt 0
	li	a3,65536
	or	a5,a5,a3
.LVL31:
	.loc 1 384 5 is_stmt 1
	.loc 1 384 60 is_stmt 0
	sw	a5,124(a4)
	.loc 1 386 5 is_stmt 1
	.loc 1 386 7 is_stmt 0
	lw	a0,12(sp)
	beq	a0,zero,.L23
	.loc 1 387 9 is_stmt 1
	.loc 1 389 1 is_stmt 0
	lw	ra,28(sp)
	.cfi_remember_state
	.cfi_restore 1
	addi	sp,sp,32
	.cfi_def_cfa_offset 0
	.loc 1 387 9
	tail	EF_Ctrl_Program_Efuse_0
.LVL32:
.L23:
	.cfi_restore_state
	.loc 1 389 1
	lw	ra,28(sp)
	.cfi_restore 1
	addi	sp,sp,32
	.cfi_def_cfa_offset 0
	jr	ra
	.cfi_endproc
.LFE16:
	.size	EF_Ctrl_Writelock_Dbg_Pwd, .-EF_Ctrl_Writelock_Dbg_Pwd
	.section	.text.EF_Ctrl_Write_Secure_Cfg,"ax",@progbits
	.align	1
	.globl	EF_Ctrl_Write_Secure_Cfg
	.type	EF_Ctrl_Write_Secure_Cfg, @function
EF_Ctrl_Write_Secure_Cfg:
.LFB17:
	.loc 1 401 1 is_stmt 1
	.cfi_startproc
.LVL33:
	.loc 1 402 5
	.loc 1 404 5
	.loc 1 404 11 is_stmt 0
	li	a3,1073770496
	lw	a4,0(a3)
.LVL34:
	.loc 1 405 5 is_stmt 1
	.loc 1 405 56 is_stmt 0
	lbu	a5,0(a0)
	.loc 1 405 24
	slli	a4,a4,4
.LVL35:
	srli	a4,a4,4
.LVL36:
	.loc 1 406 5 is_stmt 1
	.loc 1 405 84 is_stmt 0
	slli	a5,a5,28
	.loc 1 405 11
	or	a5,a5,a4
.LVL37:
	.loc 1 406 24
	li	a4,-201326592
	addi	a4,a4,-1
	and	a4,a5,a4
.LVL38:
	.loc 1 407 5 is_stmt 1
	.loc 1 406 56 is_stmt 0
	lbu	a5,1(a0)
	.loc 1 406 90
	slli	a5,a5,26
	.loc 1 406 11
	or	a5,a5,a4
	.loc 1 407 55
	lbu	a4,2(a0)
.LVL39:
	.loc 1 407 24
	andi	a5,a5,-49
	.loc 1 407 83
	slli	a4,a4,4
	.loc 1 407 11
	or	a5,a4,a5
.LVL40:
	.loc 1 408 5 is_stmt 1
	.loc 1 408 59 is_stmt 0
	sw	a5,0(a3)
	.loc 1 410 5 is_stmt 1
	.loc 1 410 7 is_stmt 0
	beq	a1,zero,.L26
	.loc 1 411 9 is_stmt 1
	tail	EF_Ctrl_Program_Efuse_0
.LVL41:
.L26:
	.loc 1 413 1 is_stmt 0
	ret
	.cfi_endproc
.LFE17:
	.size	EF_Ctrl_Write_Secure_Cfg, .-EF_Ctrl_Write_Secure_Cfg
	.section	.text.EF_Ctrl_Write_Secure_Boot,"ax",@progbits
	.align	1
	.globl	EF_Ctrl_Write_Secure_Boot
	.type	EF_Ctrl_Write_Secure_Boot, @function
EF_Ctrl_Write_Secure_Boot:
.LFB19:
	.loc 1 449 1 is_stmt 1
	.cfi_startproc
.LVL42:
	.loc 1 450 5
	.loc 1 453 5
	.loc 1 449 1 is_stmt 0
	addi	sp,sp,-32
	.cfi_def_cfa_offset 32
	sw	a0,12(sp)
	sw	a1,8(sp)
	sw	a2,4(sp)
	sw	ra,28(sp)
	.cfi_offset 1, -4
	.loc 1 453 5
	call	EF_Ctrl_Sw_AHB_Clk_0
.LVL43:
	.loc 1 455 5 is_stmt 1
	.loc 1 455 11 is_stmt 0
	li	a5,1073770496
	lw	a5,0(a5)
.LVL44:
	.loc 1 457 5 is_stmt 1
	.loc 1 457 55 is_stmt 0
	lw	a0,12(sp)
	.loc 1 459 11
	lw	a1,8(sp)
	.loc 1 457 24
	andi	a4,a5,-13
	.loc 1 457 55
	lbu	a5,0(a0)
.LVL45:
	.loc 1 459 7
	lw	a2,4(sp)
	.loc 1 457 74
	slli	a5,a5,2
	.loc 1 457 11
	or	a5,a5,a4
.LVL46:
	.loc 1 459 5 is_stmt 1
	.loc 1 459 11 is_stmt 0
	lbu	a4,0(a1)
	.loc 1 459 7
	beq	a4,zero,.L29
	.loc 1 460 9 is_stmt 1
	.loc 1 460 28 is_stmt 0
	andi	a5,a5,-4
.LVL47:
	.loc 1 460 15
	or	a5,a4,a5
.LVL48:
	.loc 1 461 9 is_stmt 1
	.loc 1 461 15 is_stmt 0
	ori	a5,a5,128
.LVL49:
.L29:
	.loc 1 464 5 is_stmt 1
	.loc 1 464 59 is_stmt 0
	li	a4,1073770496
	sw	a5,0(a4)
.LVL50:
	.loc 1 466 5 is_stmt 1
	.loc 1 466 7 is_stmt 0
	beq	a2,zero,.L28
	.loc 1 467 9 is_stmt 1
	.loc 1 469 1 is_stmt 0
	lw	ra,28(sp)
	.cfi_remember_state
	.cfi_restore 1
	addi	sp,sp,32
	.cfi_def_cfa_offset 0
	.loc 1 467 9
	tail	EF_Ctrl_Program_Efuse_0
.LVL51:
.L28:
	.cfi_restore_state
	.loc 1 469 1
	lw	ra,28(sp)
	.cfi_restore 1
	addi	sp,sp,32
	.cfi_def_cfa_offset 0
	jr	ra
	.cfi_endproc
.LFE19:
	.size	EF_Ctrl_Write_Secure_Boot, .-EF_Ctrl_Write_Secure_Boot
	.section	.sclock_rlt_code,"ax",@progbits
	.align	1
	.weak	EF_Ctrl_Get_Trim_Parity
	.type	EF_Ctrl_Get_Trim_Parity, @function
EF_Ctrl_Get_Trim_Parity:
.LFB22:
	.loc 1 533 1 is_stmt 1
	.cfi_startproc
.LVL52:
	.loc 1 534 5
	.loc 1 535 5
	.loc 1 537 5
	li	a4,0
	.loc 1 534 13 is_stmt 0
	li	a5,0
	.loc 1 538 18
	li	a2,1
.LVL53:
.L36:
	.loc 1 537 5 discriminator 1
	andi	a3,a4,0xff
	bgtu	a1,a3,.L38
	.loc 1 543 5 is_stmt 1
	.loc 1 544 1 is_stmt 0
	andi	a0,a5,1
.LVL54:
	ret
.LVL55:
.L38:
	.loc 1 538 9 is_stmt 1
	.loc 1 538 18 is_stmt 0
	sll	a3,a2,a4
	.loc 1 538 15
	and	a3,a3,a0
	.loc 1 538 11
	beq	a3,zero,.L37
	.loc 1 539 13 is_stmt 1
	.loc 1 539 16 is_stmt 0
	addi	a5,a5,1
.LVL56:
	andi	a5,a5,0xff
.LVL57:
.L37:
	addi	a4,a4,1
.LVL58:
	j	.L36
	.cfi_endproc
.LFE22:
	.size	EF_Ctrl_Get_Trim_Parity, .-EF_Ctrl_Get_Trim_Parity
	.section	.text.EF_Ctrl_Write_Ana_Trim,"ax",@progbits
	.align	1
	.globl	EF_Ctrl_Write_Ana_Trim
	.type	EF_Ctrl_Write_Ana_Trim, @function
EF_Ctrl_Write_Ana_Trim:
.LFB23:
	.loc 1 558 1 is_stmt 1
	.cfi_startproc
.LVL59:
	.loc 1 560 5
	.loc 1 558 1 is_stmt 0
	addi	sp,sp,-32
	.cfi_def_cfa_offset 32
	sw	a0,12(sp)
	sw	a2,4(sp)
	sw	ra,28(sp)
	.cfi_offset 1, -4
	.loc 1 558 1
	sw	a1,8(sp)
	.loc 1 560 5
	call	EF_Ctrl_Sw_AHB_Clk_0
.LVL60:
	.loc 1 562 5 is_stmt 1
	.loc 1 562 7 is_stmt 0
	lw	a0,12(sp)
	lw	a2,4(sp)
	bne	a0,zero,.L43
	.loc 1 563 9 is_stmt 1
	.loc 1 563 63 is_stmt 0
	lw	a1,8(sp)
	li	a5,1073770496
	sw	a1,12(a5)
.LVL61:
.L43:
	.loc 1 566 5 is_stmt 1
	.loc 1 566 7 is_stmt 0
	beq	a2,zero,.L42
	.loc 1 567 9 is_stmt 1
	.loc 1 569 1 is_stmt 0
	lw	ra,28(sp)
	.cfi_remember_state
	.cfi_restore 1
	addi	sp,sp,32
	.cfi_def_cfa_offset 0
	.loc 1 567 9
	tail	EF_Ctrl_Program_Efuse_0
.LVL62:
.L42:
	.cfi_restore_state
	.loc 1 569 1
	lw	ra,28(sp)
	.cfi_restore 1
	addi	sp,sp,32
	.cfi_def_cfa_offset 0
	jr	ra
	.cfi_endproc
.LFE23:
	.size	EF_Ctrl_Write_Ana_Trim, .-EF_Ctrl_Write_Ana_Trim
	.section	.text.EF_Ctrl_Write_Sw_Usage,"ax",@progbits
	.align	1
	.globl	EF_Ctrl_Write_Sw_Usage
	.type	EF_Ctrl_Write_Sw_Usage, @function
EF_Ctrl_Write_Sw_Usage:
.LFB29:
	.loc 1 706 1 is_stmt 1
	.cfi_startproc
.LVL63:
	.loc 1 708 5
	.loc 1 706 1 is_stmt 0
	addi	sp,sp,-32
	.cfi_def_cfa_offset 32
	sw	a0,12(sp)
	sw	a2,4(sp)
	sw	ra,28(sp)
	.cfi_offset 1, -4
	.loc 1 706 1
	sw	a1,8(sp)
	.loc 1 708 5
	call	EF_Ctrl_Sw_AHB_Clk_0
.LVL64:
	.loc 1 710 5 is_stmt 1
	.loc 1 710 7 is_stmt 0
	lw	a0,12(sp)
	lw	a2,4(sp)
	bne	a0,zero,.L47
	.loc 1 711 9 is_stmt 1
	.loc 1 711 64 is_stmt 0
	lw	a1,8(sp)
	li	a5,1073770496
	sw	a1,16(a5)
.LVL65:
.L47:
	.loc 1 714 5 is_stmt 1
	.loc 1 714 7 is_stmt 0
	beq	a2,zero,.L46
	.loc 1 715 9 is_stmt 1
	.loc 1 717 1 is_stmt 0
	lw	ra,28(sp)
	.cfi_remember_state
	.cfi_restore 1
	addi	sp,sp,32
	.cfi_def_cfa_offset 0
	.loc 1 715 9
	tail	EF_Ctrl_Program_Efuse_0
.LVL66:
.L46:
	.cfi_restore_state
	.loc 1 717 1
	lw	ra,28(sp)
	.cfi_restore 1
	addi	sp,sp,32
	.cfi_def_cfa_offset 0
	jr	ra
	.cfi_endproc
.LFE29:
	.size	EF_Ctrl_Write_Sw_Usage, .-EF_Ctrl_Write_Sw_Usage
	.section	.text.EF_Ctrl_Writelock_Sw_Usage,"ax",@progbits
	.align	1
	.globl	EF_Ctrl_Writelock_Sw_Usage
	.type	EF_Ctrl_Writelock_Sw_Usage, @function
EF_Ctrl_Writelock_Sw_Usage:
.LFB31:
	.loc 1 750 1 is_stmt 1
	.cfi_startproc
.LVL67:
	.loc 1 751 5
	.loc 1 754 5
	.loc 1 750 1 is_stmt 0
	addi	sp,sp,-32
	.cfi_def_cfa_offset 32
	sw	a0,12(sp)
	sw	a1,8(sp)
	sw	ra,28(sp)
	.cfi_offset 1, -4
	.loc 1 754 5
	call	EF_Ctrl_Sw_AHB_Clk_0
.LVL68:
	.loc 1 756 5 is_stmt 1
	.loc 1 756 11 is_stmt 0
	li	a5,1073770496
	.loc 1 758 7
	lw	a0,12(sp)
	.loc 1 756 11
	lw	a5,124(a5)
.LVL69:
	.loc 1 758 5 is_stmt 1
	.loc 1 758 7 is_stmt 0
	lw	a1,8(sp)
	bne	a0,zero,.L51
	.loc 1 759 9 is_stmt 1
	.loc 1 759 15 is_stmt 0
	li	a4,131072
	or	a5,a5,a4
.LVL70:
.L51:
	.loc 1 761 5 is_stmt 1
	.loc 1 761 60 is_stmt 0
	li	a4,1073770496
	sw	a5,124(a4)
.LVL71:
	.loc 1 763 5 is_stmt 1
	.loc 1 763 7 is_stmt 0
	beq	a1,zero,.L50
	.loc 1 764 9 is_stmt 1
	.loc 1 766 1 is_stmt 0
	lw	ra,28(sp)
	.cfi_remember_state
	.cfi_restore 1
	addi	sp,sp,32
	.cfi_def_cfa_offset 0
	.loc 1 764 9
	tail	EF_Ctrl_Program_Efuse_0
.LVL72:
.L50:
	.cfi_restore_state
	.loc 1 766 1
	lw	ra,28(sp)
	.cfi_restore 1
	addi	sp,sp,32
	.cfi_def_cfa_offset 0
	jr	ra
	.cfi_endproc
.LFE31:
	.size	EF_Ctrl_Writelock_Sw_Usage, .-EF_Ctrl_Writelock_Sw_Usage
	.section	.text.EF_Ctrl_Write_MAC_Address,"ax",@progbits
	.align	1
	.globl	EF_Ctrl_Write_MAC_Address
	.type	EF_Ctrl_Write_MAC_Address, @function
EF_Ctrl_Write_MAC_Address:
.LFB32:
	.loc 1 778 1 is_stmt 1
	.cfi_startproc
.LVL73:
	.loc 1 779 5
	.loc 1 778 1 is_stmt 0
	addi	sp,sp,-32
	.cfi_def_cfa_offset 32
.LVL74:
	.loc 1 780 5 is_stmt 1
	.loc 1 781 5
	.loc 1 784 5
	.loc 1 778 1 is_stmt 0
	sw	a0,12(sp)
.LVL75:
	sw	a1,8(sp)
	sw	ra,28(sp)
	.cfi_offset 1, -4
	.loc 1 784 5
	call	EF_Ctrl_Sw_AHB_Clk_0
.LVL76:
	.loc 1 787 5 is_stmt 1
	lw	a0,12(sp)
	lbu	a4,1(a0)
	lbu	a5,0(a0)
	slli	a4,a4,8
	or	a4,a4,a5
	lbu	a5,2(a0)
	slli	a5,a5,16
	or	a4,a5,a4
	lbu	a5,3(a0)
	slli	a5,a5,24
	or	a5,a5,a4
	.loc 1 787 60 is_stmt 0
	li	a4,1073770496
	sw	a5,20(a4)
.LVL77:
	.loc 1 789 5 is_stmt 1
	.loc 1 789 31 is_stmt 0
	lbu	a5,5(a0)
	.loc 1 789 19
	lbu	a3,4(a0)
	.loc 1 789 34
	slli	a5,a5,8
	.loc 1 789 22
	add	a5,a5,a3
.LVL78:
	.loc 1 790 5 is_stmt 1
	.loc 1 790 60 is_stmt 0
	sw	a5,24(a4)
	.loc 1 792 5 is_stmt 1
	.loc 1 792 7 is_stmt 0
	lw	a1,8(sp)
	beq	a1,zero,.L54
	.loc 1 793 9 is_stmt 1
	.loc 1 795 1 is_stmt 0
	lw	ra,28(sp)
	.cfi_remember_state
	.cfi_restore 1
	addi	sp,sp,32
	.cfi_def_cfa_offset 0
	.loc 1 793 9
	tail	EF_Ctrl_Program_Efuse_0
.LVL79:
.L54:
	.cfi_restore_state
	.loc 1 795 1
	lw	ra,28(sp)
	.cfi_restore 1
	addi	sp,sp,32
	.cfi_def_cfa_offset 0
	jr	ra
	.cfi_endproc
.LFE32:
	.size	EF_Ctrl_Write_MAC_Address, .-EF_Ctrl_Write_MAC_Address
	.section	.text.EF_Ctrl_Writelock_MAC_Address,"ax",@progbits
	.align	1
	.globl	EF_Ctrl_Writelock_MAC_Address
	.type	EF_Ctrl_Writelock_MAC_Address, @function
EF_Ctrl_Writelock_MAC_Address:
.LFB36:
	.loc 1 897 1 is_stmt 1
	.cfi_startproc
.LVL80:
	.loc 1 898 5
	.loc 1 901 5
	.loc 1 897 1 is_stmt 0
	addi	sp,sp,-32
	.cfi_def_cfa_offset 32
	sw	a0,12(sp)
	sw	ra,28(sp)
	.cfi_offset 1, -4
	.loc 1 901 5
	call	EF_Ctrl_Sw_AHB_Clk_0
.LVL81:
	.loc 1 903 5 is_stmt 1
	.loc 1 903 11 is_stmt 0
	li	a4,1073770496
	lw	a5,124(a4)
.LVL82:
	.loc 1 904 5 is_stmt 1
	.loc 1 904 11 is_stmt 0
	li	a3,262144
	or	a5,a5,a3
.LVL83:
	.loc 1 905 5 is_stmt 1
	.loc 1 905 60 is_stmt 0
	sw	a5,124(a4)
	.loc 1 907 5 is_stmt 1
	.loc 1 907 7 is_stmt 0
	lw	a0,12(sp)
	beq	a0,zero,.L57
	.loc 1 908 9 is_stmt 1
	.loc 1 910 1 is_stmt 0
	lw	ra,28(sp)
	.cfi_remember_state
	.cfi_restore 1
	addi	sp,sp,32
	.cfi_def_cfa_offset 0
	.loc 1 908 9
	tail	EF_Ctrl_Program_Efuse_0
.LVL84:
.L57:
	.cfi_restore_state
	.loc 1 910 1
	lw	ra,28(sp)
	.cfi_restore 1
	addi	sp,sp,32
	.cfi_def_cfa_offset 0
	jr	ra
	.cfi_endproc
.LFE36:
	.size	EF_Ctrl_Writelock_MAC_Address, .-EF_Ctrl_Writelock_MAC_Address
	.section	.text.EF_Ctrl_Is_All_Bits_Zero,"ax",@progbits
	.align	1
	.globl	EF_Ctrl_Is_All_Bits_Zero
	.type	EF_Ctrl_Is_All_Bits_Zero, @function
EF_Ctrl_Is_All_Bits_Zero:
.LFB37:
	.loc 1 923 1 is_stmt 1
	.cfi_startproc
.LVL85:
	.loc 1 924 5
	.loc 1 926 5
	.loc 1 927 7 is_stmt 0
	li	a5,31
	.loc 1 926 8
	srl	a0,a0,a1
.LVL86:
	.loc 1 927 5 is_stmt 1
	.loc 1 927 7 is_stmt 0
	bgtu	a2,a5,.L62
	.loc 1 930 9 is_stmt 1
	.loc 1 930 16 is_stmt 0
	li	a5,1
	sll	a2,a5,a2
.LVL87:
	.loc 1 930 22
	addi	a2,a2,-1
.LVL88:
.L61:
	.loc 1 933 5 is_stmt 1
	.loc 1 933 12 is_stmt 0
	and	a0,a2,a0
.LVL89:
	.loc 1 938 1
	seqz	a0,a0
	ret
.LVL90:
.L62:
	.loc 1 928 13
	li	a2,-1
.LVL91:
	j	.L61
	.cfi_endproc
.LFE37:
	.size	EF_Ctrl_Is_All_Bits_Zero, .-EF_Ctrl_Is_All_Bits_Zero
	.section	.text.EF_Ctrl_Write_MAC_Address_Opt,"ax",@progbits
	.align	1
	.globl	EF_Ctrl_Write_MAC_Address_Opt
	.type	EF_Ctrl_Write_MAC_Address_Opt, @function
EF_Ctrl_Write_MAC_Address_Opt:
.LFB39:
	.loc 1 1000 1 is_stmt 1
	.cfi_startproc
.LVL92:
	.loc 1 1001 5
	.loc 1 1002 5
	.loc 1 1003 5
	.loc 1 1004 5
	.loc 1 1006 5
	.loc 1 1006 7 is_stmt 0
	li	a5,2
	bgtu	a0,a5,.L75
	.loc 1 1000 1
	addi	sp,sp,-32
	.cfi_def_cfa_offset 32
	sw	ra,28(sp)
	sw	s0,24(sp)
	sw	s1,20(sp)
	sw	s2,16(sp)
	sw	s3,12(sp)
	sw	s4,8(sp)
	sw	s5,4(sp)
	sw	s6,0(sp)
	.cfi_offset 1, -4
	.cfi_offset 8, -8
	.cfi_offset 9, -12
	.cfi_offset 18, -16
	.cfi_offset 19, -20
	.cfi_offset 20, -24
	.cfi_offset 21, -28
	.cfi_offset 22, -32
	mv	a4,a1
	addi	a5,a1,5
	addi	a3,a1,2
.LVL93:
.L65:
	.loc 1 1012 9 is_stmt 1 discriminator 3
	.loc 1 1013 19 is_stmt 0 discriminator 3
	lbu	a7,0(a5)
	.loc 1 1012 19 discriminator 3
	lbu	a6,0(a4)
.LVL94:
	.loc 1 1013 9 is_stmt 1 discriminator 3
	addi	a5,a5,-1
	.loc 1 1013 15 is_stmt 0 discriminator 3
	sb	a7,0(a4)
	.loc 1 1014 9 is_stmt 1 discriminator 3
	.loc 1 1014 17 is_stmt 0 discriminator 3
	sb	a6,1(a5)
.LVL95:
	addi	a4,a4,1
.LVL96:
	.loc 1 1011 5 discriminator 3
	bne	a3,a5,.L65
	.loc 1 1016 7
	li	a5,2
	mv	s3,a2
	mv	s0,a1
	mv	s2,a0
	.loc 1 1016 5 is_stmt 1
	.loc 1 1016 7 is_stmt 0
	bne	a0,a5,.L66
.LVL97:
	.loc 1 1018 9 is_stmt 1
	call	EF_Ctrl_Sw_AHB_Clk_0
.LVL98:
	.loc 1 1025 5
	.loc 1 1029 11
	.loc 1 1030 9
	lbu	a4,1(s0)
	lbu	a5,0(s0)
	slli	a4,a4,8
	or	a4,a4,a5
	lbu	a5,2(s0)
	slli	a5,a5,16
	or	a4,a5,a4
	lbu	a5,3(s0)
	slli	a5,a5,24
	or	a5,a5,a4
	.loc 1 1030 63 is_stmt 0
	li	a4,1073770496
	sw	a5,4(a4)
.L67:
	.loc 1 1033 5 is_stmt 1
	.loc 1 1033 31 is_stmt 0
	lbu	s1,5(s0)
	.loc 1 1033 19
	lbu	s4,4(s0)
	.loc 1 1035 10
	li	s5,0
	.loc 1 1033 34
	slli	s1,s1,8
	.loc 1 1033 22
	add	s4,s1,s4
.LVL99:
	.loc 1 1034 5 is_stmt 1
	.loc 1 1035 5
	li	s6,6
	.loc 1 1034 8 is_stmt 0
	li	s1,0
.LVL100:
.L69:
	.loc 1 1036 9 is_stmt 1 discriminator 3
	.loc 1 1036 14 is_stmt 0 discriminator 3
	add	a5,s0,s5
	lbu	a0,0(a5)
	.loc 1 1035 18 discriminator 3
	addi	s5,s5,1
.LVL101:
	.loc 1 1036 14 discriminator 3
	call	EF_Ctrl_Get_Byte_Zero_Cnt
.LVL102:
	.loc 1 1036 12 discriminator 3
	add	s1,s1,a0
.LVL103:
	.loc 1 1035 5 discriminator 3
	bne	s5,s6,.L69
	.loc 1 1038 5 is_stmt 1
	.loc 1 1038 24 is_stmt 0
	slli	s1,s1,16
.LVL104:
	li	a5,4128768
	and	s1,s1,a5
	.loc 1 1038 11
	or	s1,s1,s4
.LVL105:
	.loc 1 1040 5 is_stmt 1
	.loc 1 1040 7 is_stmt 0
	bne	s2,zero,.L70
	.loc 1 1041 9 is_stmt 1
	.loc 1 1041 64 is_stmt 0
	li	a5,1073770496
	sw	s1,24(a5)
.L83:
	.loc 1 1048 5 is_stmt 1
	.loc 1 1048 7 is_stmt 0
	bne	s3,zero,.L73
.L84:
	.loc 1 1056 1
	lw	ra,28(sp)
	.cfi_remember_state
	.cfi_restore 1
	lw	s0,24(sp)
	.cfi_restore 8
.LVL106:
	lw	s1,20(sp)
	.cfi_restore 9
.LVL107:
	lw	s2,16(sp)
	.cfi_restore 18
	lw	s3,12(sp)
	.cfi_restore 19
	lw	s4,8(sp)
	.cfi_restore 20
	lw	s5,4(sp)
	.cfi_restore 21
.LVL108:
	lw	s6,0(sp)
	.cfi_restore 22
	.loc 1 1055 12
	li	a0,0
	.loc 1 1056 1
	addi	sp,sp,32
	.cfi_def_cfa_offset 0
	jr	ra
.LVL109:
.L66:
	.cfi_restore_state
	.loc 1 1021 9 is_stmt 1
	call	EF_Ctrl_Sw_AHB_Clk_0
.LVL110:
	.loc 1 1025 5
	lbu	a3,1(s0)
	lbu	a2,0(s0)
	lbu	a4,2(s0)
	lbu	a5,3(s0)
	slli	a3,a3,8
	or	a3,a3,a2
	slli	a4,a4,16
	or	a4,a4,a3
	slli	a5,a5,24
	or	a5,a5,a4
	.loc 1 1026 64 is_stmt 0
	li	a4,1073770496
	.loc 1 1025 7
	bne	s2,zero,.L68
	.loc 1 1026 9 is_stmt 1
	.loc 1 1026 64 is_stmt 0
	sw	a5,20(a4)
	j	.L67
.L68:
	.loc 1 1027 11 is_stmt 1
	.loc 1 1028 64 is_stmt 0
	sw	a5,108(a4)
	j	.L67
.LVL111:
.L70:
	.loc 1 1042 11 is_stmt 1
	.loc 1 1042 13 is_stmt 0
	li	a5,1
	bne	s2,a5,.L72
	.loc 1 1043 9 is_stmt 1
	.loc 1 1043 64 is_stmt 0
	li	a5,1073770496
	sw	s1,112(a5)
	j	.L83
.L72:
	.loc 1 1044 11 is_stmt 1
	.loc 1 1045 9
	.loc 1 1045 63 is_stmt 0
	li	a5,1073770496
	sw	s1,8(a5)
	j	.L83
.L73:
	.loc 1 1050 13 is_stmt 1
	call	EF_Ctrl_Program_Efuse_0
.LVL112:
	j	.L84
.LVL113:
.L75:
	.cfi_def_cfa_offset 0
	.cfi_restore 1
	.cfi_restore 8
	.cfi_restore 9
	.cfi_restore 18
	.cfi_restore 19
	.cfi_restore 20
	.cfi_restore 21
	.cfi_restore 22
	.loc 1 1007 16 is_stmt 0
	li	a0,1
.LVL114:
	.loc 1 1056 1
	ret
	.cfi_endproc
.LFE39:
	.size	EF_Ctrl_Write_MAC_Address_Opt, .-EF_Ctrl_Write_MAC_Address_Opt
	.globl	__ashldi3
	.section	.text.EF_Ctrl_Write_PowerOffset_Opt,"ax",@progbits
	.align	1
	.globl	EF_Ctrl_Write_PowerOffset_Opt
	.type	EF_Ctrl_Write_PowerOffset_Opt, @function
EF_Ctrl_Write_PowerOffset_Opt:
.LFB47:
	.loc 1 1341 1 is_stmt 1
	.cfi_startproc
.LVL115:
	.loc 1 1342 5
	.loc 1 1343 5
	.loc 1 1344 5
	.loc 1 1345 5
	.loc 1 1347 5
	.loc 1 1347 7 is_stmt 0
	li	a5,2
	bgtu	a0,a5,.L95
	.loc 1 1341 1
	addi	sp,sp,-32
	.cfi_def_cfa_offset 32
	sw	s0,24(sp)
	sw	s1,20(sp)
	sw	s2,16(sp)
	sw	s3,12(sp)
	sw	s4,8(sp)
	sw	s5,4(sp)
	sw	s6,0(sp)
	sw	ra,28(sp)
	.cfi_offset 8, -8
	.cfi_offset 9, -12
	.cfi_offset 18, -16
	.cfi_offset 19, -20
	.cfi_offset 20, -24
	.cfi_offset 21, -28
	.cfi_offset 22, -32
	.cfi_offset 1, -4
	mv	s1,a2
	mv	s3,a0
	mv	s2,a1
	.loc 1 1347 7
	li	s4,0
	.loc 1 1344 14
	li	s0,0
	.loc 1 1353 11
	li	s5,15
	.loc 1 1356 11
	li	s6,-16
.LVL116:
.L89:
	.loc 1 1353 9 is_stmt 1
	.loc 1 1353 21 is_stmt 0
	lb	a5,0(s2)
	.loc 1 1353 11
	ble	a5,s5,.L87
	.loc 1 1354 13 is_stmt 1
	.loc 1 1354 25 is_stmt 0
	sb	s5,0(s2)
	.loc 1 1356 9 is_stmt 1
.L88:
	.loc 1 1359 9 discriminator 2
.LVL117:
	.loc 1 1360 9 discriminator 2
	.loc 1 1359 14 is_stmt 0 discriminator 2
	lbu	a0,0(s2)
	.loc 1 1359 12 discriminator 2
	mv	a2,s4
	li	a1,0
	andi	a0,a0,31
	call	__ashldi3
.LVL118:
	addi	s4,s4,5
	.loc 1 1360 14 discriminator 2
	add	s0,s0,a0
.LVL119:
	addi	s2,s2,1
.LVL120:
	.loc 1 1351 5 discriminator 2
	bne	s4,s5,.L89
	.loc 1 1362 5 is_stmt 1
	.loc 1 1362 12 is_stmt 0
	li	a1,15
	mv	a0,s0
	call	EF_Ctrl_Get_Trim_Parity
.LVL121:
	.loc 1 1364 5 is_stmt 1
	.loc 1 1364 7 is_stmt 0
	bne	s3,zero,.L90
	.loc 1 1365 9 is_stmt 1
	.loc 1 1365 14 is_stmt 0
	li	a4,1073770496
	lw	a5,120(a4)
.LVL122:
	.loc 1 1366 9 is_stmt 1
	.loc 1 1367 9
	.loc 1 1368 9
	.loc 1 1369 9
	.loc 1 1368 31 is_stmt 0
	slli	a0,a0,31
.LVL123:
	.loc 1 1366 20
	slli	s0,s0,16
	.loc 1 1368 12
	or	a0,a0,a5
	or	a0,a0,s0
	li	a5,32768
	or	a0,a5,a0
	.loc 1 1369 64
	sw	a0,120(a4)
.L91:
	.loc 1 1390 5 is_stmt 1
	.loc 1 1390 7 is_stmt 0
	beq	s1,zero,.L93
	.loc 1 1391 9 is_stmt 1
	call	EF_Ctrl_Program_Efuse_0
.LVL124:
.L93:
	.loc 1 1394 10 is_stmt 0 discriminator 1
	li	s0,1
.L94:
	.loc 1 1394 31 is_stmt 1 discriminator 1
	.loc 1 1394 16 is_stmt 0 discriminator 1
	call	EF_Ctrl_Busy
.LVL125:
	.loc 1 1394 10 discriminator 1
	beq	a0,s0,.L94
	.loc 1 1397 1
	lw	ra,28(sp)
	.cfi_remember_state
	.cfi_restore 1
	lw	s0,24(sp)
	.cfi_restore 8
	lw	s1,20(sp)
	.cfi_restore 9
	lw	s2,16(sp)
	.cfi_restore 18
.LVL126:
	lw	s3,12(sp)
	.cfi_restore 19
	lw	s4,8(sp)
	.cfi_restore 20
	lw	s5,4(sp)
	.cfi_restore 21
	lw	s6,0(sp)
	.cfi_restore 22
	.loc 1 1396 12
	li	a0,0
	.loc 1 1397 1
	addi	sp,sp,32
	.cfi_def_cfa_offset 0
	jr	ra
.LVL127:
.L87:
	.cfi_restore_state
	.loc 1 1356 9 is_stmt 1
	.loc 1 1356 11 is_stmt 0
	bge	a5,s6,.L88
	.loc 1 1357 13 is_stmt 1
	.loc 1 1357 25 is_stmt 0
	sb	s6,0(s2)
	j	.L88
.LVL128:
.L90:
	.loc 1 1370 11 is_stmt 1
	.loc 1 1370 13 is_stmt 0
	li	a5,1
	bne	s3,a5,.L92
	.loc 1 1371 9 is_stmt 1
	.loc 1 1371 14 is_stmt 0
	li	a5,1073770496
	lw	a4,116(a5)
.LVL129:
	.loc 1 1372 9 is_stmt 1
	.loc 1 1373 31 is_stmt 0
	slli	a0,a0,15
.LVL130:
	.loc 1 1372 12
	or	s0,s0,a4
.LVL131:
	.loc 1 1373 9 is_stmt 1
	.loc 1 1374 9
	.loc 1 1373 12 is_stmt 0
	or	a0,a0,s0
	.loc 1 1374 64
	sw	a0,116(a5)
	.loc 1 1376 9 is_stmt 1
	.loc 1 1376 14 is_stmt 0
	lw	a4,12(a5)
.LVL132:
	.loc 1 1377 9 is_stmt 1
	ori	a4,a4,1
.LVL133:
	.loc 1 1378 9
.L105:
	.loc 1 1387 9
	.loc 1 1387 63 is_stmt 0
	sw	a4,12(a5)
	j	.L91
.LVL134:
.L92:
	.loc 1 1379 11 is_stmt 1
	.loc 1 1380 9
	.loc 1 1380 14 is_stmt 0
	li	a5,1073770496
	lw	a4,116(a5)
.LVL135:
	.loc 1 1381 9 is_stmt 1
	.loc 1 1381 20 is_stmt 0
	slli	s0,s0,16
	.loc 1 1382 31
	slli	a0,a0,31
.LVL136:
	.loc 1 1381 12
	or	s0,s0,a4
.LVL137:
	.loc 1 1382 9 is_stmt 1
	.loc 1 1383 9
	.loc 1 1382 12 is_stmt 0
	or	a0,a0,s0
	.loc 1 1383 64
	sw	a0,116(a5)
	.loc 1 1385 9 is_stmt 1
	.loc 1 1385 14 is_stmt 0
	lw	a4,12(a5)
.LVL138:
	.loc 1 1386 9 is_stmt 1
	ori	a4,a4,2
.LVL139:
	j	.L105
.LVL140:
.L95:
	.cfi_def_cfa_offset 0
	.cfi_restore 1
	.cfi_restore 8
	.cfi_restore 9
	.cfi_restore 18
	.cfi_restore 19
	.cfi_restore 20
	.cfi_restore 21
	.cfi_restore 22
	.loc 1 1348 16 is_stmt 0
	li	a0,1
.LVL141:
	.loc 1 1397 1
	ret
	.cfi_endproc
.LFE47:
	.size	EF_Ctrl_Write_PowerOffset_Opt, .-EF_Ctrl_Write_PowerOffset_Opt
	.section	.text.EF_Ctrl_Write_AES_Key,"ax",@progbits
	.align	1
	.globl	EF_Ctrl_Write_AES_Key
	.type	EF_Ctrl_Write_AES_Key, @function
EF_Ctrl_Write_AES_Key:
.LFB49:
	.loc 1 1472 1 is_stmt 1
	.cfi_startproc
.LVL142:
	.loc 1 1473 5
	.loc 1 1475 5
	.loc 1 1475 7 is_stmt 0
	li	a5,5
	bgtu	a0,a5,.L114
	.loc 1 1472 1
	addi	sp,sp,-32
	.cfi_def_cfa_offset 32
	sw	s0,24(sp)
	sw	s1,20(sp)
	sw	ra,28(sp)
	.cfi_offset 8, -8
	.cfi_offset 9, -12
	.cfi_offset 1, -4
	mv	s1,a3
	sw	a2,12(sp)
	sw	a1,8(sp)
	mv	s0,a0
	.loc 1 1479 5 is_stmt 1
	call	EF_Ctrl_Sw_AHB_Clk_0
.LVL143:
	.loc 1 1482 5
	li	a5,1073770496
	lw	a2,12(sp)
	lw	a1,8(sp)
	.loc 1 1482 32 is_stmt 0
	slli	a0,s0,4
	.loc 1 1482 5
	addi	a5,a5,28
	add	a0,a0,a5
	call	BL602_MemCpy4
.LVL144:
	.loc 1 1484 5 is_stmt 1
	.loc 1 1484 7 is_stmt 0
	beq	s1,zero,.L106
	.loc 1 1485 9 is_stmt 1
	.loc 1 1487 1 is_stmt 0
	lw	s0,24(sp)
	.cfi_remember_state
	.cfi_restore 8
	lw	ra,28(sp)
	.cfi_restore 1
	lw	s1,20(sp)
	.cfi_restore 9
	addi	sp,sp,32
	.cfi_def_cfa_offset 0
.LVL145:
	.loc 1 1485 9
	tail	EF_Ctrl_Program_Efuse_0
.LVL146:
.L106:
	.cfi_restore_state
	.loc 1 1487 1
	lw	ra,28(sp)
	.cfi_restore 1
	lw	s0,24(sp)
	.cfi_restore 8
	lw	s1,20(sp)
	.cfi_restore 9
	addi	sp,sp,32
	.cfi_def_cfa_offset 0
.LVL147:
	jr	ra
.LVL148:
.L114:
	ret
	.cfi_endproc
.LFE49:
	.size	EF_Ctrl_Write_AES_Key, .-EF_Ctrl_Write_AES_Key
	.section	.text.EF_Ctrl_Writelock_AES_Key,"ax",@progbits
	.align	1
	.globl	EF_Ctrl_Writelock_AES_Key
	.type	EF_Ctrl_Writelock_AES_Key, @function
EF_Ctrl_Writelock_AES_Key:
.LFB51:
	.loc 1 1523 1 is_stmt 1
	.cfi_startproc
.LVL149:
	.loc 1 1524 5
	.loc 1 1526 5
	.loc 1 1526 7 is_stmt 0
	li	a5,5
	bgtu	a0,a5,.L127
	.loc 1 1523 1
	addi	sp,sp,-16
	.cfi_def_cfa_offset 16
	sw	s0,8(sp)
	sw	s1,4(sp)
	.cfi_offset 8, -8
	.cfi_offset 9, -12
	mv	s0,a0
	.loc 1 1530 5 is_stmt 1
	.loc 1 1523 1 is_stmt 0
	sw	ra,12(sp)
	.cfi_offset 1, -4
	mv	s1,a1
	.loc 1 1530 5
	call	EF_Ctrl_Sw_AHB_Clk_0
.LVL150:
	.loc 1 1532 5 is_stmt 1
	.loc 1 1532 11 is_stmt 0
	li	a5,1073770496
	lw	a5,124(a5)
.LVL151:
	.loc 1 1533 5 is_stmt 1
	addi	a4,s0,19
	li	a0,1
	.loc 1 1533 7 is_stmt 0
	li	a3,3
	sll	a4,a0,a4
	bgtu	s0,a3,.L120
	.loc 1 1534 9 is_stmt 1
	.loc 1 1534 15 is_stmt 0
	or	s0,a5,a4
.LVL152:
.L121:
	.loc 1 1539 5 is_stmt 1
	.loc 1 1539 60 is_stmt 0
	li	a5,1073770496
	sw	s0,124(a5)
	.loc 1 1541 5 is_stmt 1
	.loc 1 1541 7 is_stmt 0
	beq	s1,zero,.L117
	.loc 1 1542 9 is_stmt 1
	.loc 1 1544 1 is_stmt 0
	lw	s0,8(sp)
	.cfi_remember_state
	.cfi_restore 8
.LVL153:
	lw	ra,12(sp)
	.cfi_restore 1
	lw	s1,4(sp)
	.cfi_restore 9
	addi	sp,sp,16
	.cfi_def_cfa_offset 0
	.loc 1 1542 9
	tail	EF_Ctrl_Program_Efuse_0
.LVL154:
.L120:
	.cfi_restore_state
	.loc 1 1536 9 is_stmt 1
	.loc 1 1537 9
	.loc 1 1537 29 is_stmt 0
	addi	s0,s0,9
.LVL155:
	.loc 1 1537 19
	sll	s0,a0,s0
.LVL156:
	.loc 1 1537 15
	or	s0,s0,a4
	or	s0,s0,a5
.LVL157:
	j	.L121
.L117:
	.loc 1 1544 1
	lw	ra,12(sp)
	.cfi_restore 1
	lw	s0,8(sp)
	.cfi_restore 8
.LVL158:
	lw	s1,4(sp)
	.cfi_restore 9
	addi	sp,sp,16
	.cfi_def_cfa_offset 0
	jr	ra
.LVL159:
.L127:
	ret
	.cfi_endproc
.LFE51:
	.size	EF_Ctrl_Writelock_AES_Key, .-EF_Ctrl_Writelock_AES_Key
	.section	.text.EF_Ctrl_Readlock_AES_Key,"ax",@progbits
	.align	1
	.globl	EF_Ctrl_Readlock_AES_Key
	.type	EF_Ctrl_Readlock_AES_Key, @function
EF_Ctrl_Readlock_AES_Key:
.LFB52:
	.loc 1 1556 1 is_stmt 1
	.cfi_startproc
.LVL160:
	.loc 1 1557 5
	.loc 1 1559 5
	.loc 1 1559 7 is_stmt 0
	li	a5,5
	bgtu	a0,a5,.L138
	.loc 1 1556 1
	addi	sp,sp,-16
	.cfi_def_cfa_offset 16
	sw	s0,8(sp)
	sw	s1,4(sp)
	.cfi_offset 8, -8
	.cfi_offset 9, -12
	mv	s0,a0
	.loc 1 1563 5 is_stmt 1
	.loc 1 1556 1 is_stmt 0
	sw	ra,12(sp)
	.cfi_offset 1, -4
	mv	s1,a1
	.loc 1 1563 5
	call	EF_Ctrl_Sw_AHB_Clk_0
.LVL161:
	.loc 1 1565 5 is_stmt 1
	.loc 1 1565 11 is_stmt 0
	li	a4,1073770496
	lw	a3,124(a4)
.LVL162:
	.loc 1 1566 5 is_stmt 1
	.loc 1 1566 23 is_stmt 0
	addi	a0,s0,26
	.loc 1 1566 15
	li	a5,1
	sll	a0,a5,a0
	.loc 1 1566 11
	or	a0,a0,a3
.LVL163:
	.loc 1 1567 5 is_stmt 1
	.loc 1 1567 60 is_stmt 0
	sw	a0,124(a4)
	.loc 1 1569 5 is_stmt 1
	.loc 1 1569 7 is_stmt 0
	beq	s1,zero,.L130
	.loc 1 1570 9 is_stmt 1
	.loc 1 1572 1 is_stmt 0
	lw	s0,8(sp)
	.cfi_remember_state
	.cfi_restore 8
	lw	ra,12(sp)
	.cfi_restore 1
	lw	s1,4(sp)
	.cfi_restore 9
	addi	sp,sp,16
	.cfi_def_cfa_offset 0
	.loc 1 1570 9
	tail	EF_Ctrl_Program_Efuse_0
.LVL164:
.L130:
	.cfi_restore_state
	.loc 1 1572 1
	lw	ra,12(sp)
	.cfi_restore 1
	lw	s0,8(sp)
	.cfi_restore 8
	lw	s1,4(sp)
	.cfi_restore 9
	addi	sp,sp,16
	.cfi_def_cfa_offset 0
	jr	ra
.LVL165:
.L138:
	ret
	.cfi_endproc
.LFE52:
	.size	EF_Ctrl_Readlock_AES_Key, .-EF_Ctrl_Readlock_AES_Key
	.section	.text.EF_Ctrl_Program_Direct_R0,"ax",@progbits
	.align	1
	.globl	EF_Ctrl_Program_Direct_R0
	.type	EF_Ctrl_Program_Direct_R0, @function
EF_Ctrl_Program_Direct_R0:
.LFB53:
	.loc 1 1585 1 is_stmt 1
	.cfi_startproc
.LVL166:
	.loc 1 1586 5
	.loc 1 1589 5
	.loc 1 1585 1 is_stmt 0
	addi	sp,sp,-32
	.cfi_def_cfa_offset 32
	sw	ra,28(sp)
	sw	s0,24(sp)
	.cfi_offset 1, -4
	.cfi_offset 8, -8
	.loc 1 1585 1
	sw	a1,12(sp)
	sw	a2,8(sp)
	mv	s0,a0
	.loc 1 1589 5
	call	EF_Ctrl_Sw_AHB_Clk_0
.LVL167:
	.loc 1 1592 5 is_stmt 1
	li	a0,4
	call	BL602_Delay_US
.LVL168:
	.loc 1 1594 5
	lw	a2,8(sp)
	lw	a1,12(sp)
	.loc 1 1594 31 is_stmt 0
	slli	s0,s0,2
.LVL169:
	.loc 1 1594 5
	li	a0,1073770496
	add	a0,a0,s0
	call	BL602_MemCpy4
.LVL170:
	.loc 1 1596 5 is_stmt 1
	.loc 1 1597 1 is_stmt 0
	lw	s0,24(sp)
	.cfi_restore 8
	lw	ra,28(sp)
	.cfi_restore 1
	addi	sp,sp,32
	.cfi_def_cfa_offset 0
.LVL171:
	.loc 1 1596 5
	tail	EF_Ctrl_Program_Efuse_0
.LVL172:
	.cfi_endproc
.LFE53:
	.size	EF_Ctrl_Program_Direct_R0, .-EF_Ctrl_Program_Direct_R0
	.section	.text.EF_Ctrl_Write_R0,"ax",@progbits
	.align	1
	.globl	EF_Ctrl_Write_R0
	.type	EF_Ctrl_Write_R0, @function
EF_Ctrl_Write_R0:
.LFB55:
	.loc 1 1629 1 is_stmt 1
	.cfi_startproc
.LVL173:
	.loc 1 1630 5
	.loc 1 1633 5
	.loc 1 1629 1 is_stmt 0
	addi	sp,sp,-32
	.cfi_def_cfa_offset 32
	sw	ra,28(sp)
	sw	s0,24(sp)
	.cfi_offset 1, -4
	.cfi_offset 8, -8
	.loc 1 1629 1
	sw	a1,12(sp)
	sw	a2,8(sp)
	mv	s0,a0
	.loc 1 1633 5
	call	EF_Ctrl_Sw_AHB_Clk_0
.LVL174:
	.loc 1 1636 5 is_stmt 1
	li	a0,4
	call	BL602_Delay_US
.LVL175:
	.loc 1 1638 5
	.loc 1 1638 31 is_stmt 0
	slli	s0,s0,2
.LVL176:
	.loc 1 1638 5
	li	a0,1073770496
	add	a0,a0,s0
	.loc 1 1639 1
	lw	s0,24(sp)
	.cfi_restore 8
	.loc 1 1638 5
	lw	a2,8(sp)
	lw	a1,12(sp)
	.loc 1 1639 1
	lw	ra,28(sp)
	.cfi_restore 1
	addi	sp,sp,32
	.cfi_def_cfa_offset 0
.LVL177:
	.loc 1 1638 5
	tail	BL602_MemCpy4
.LVL178:
	.cfi_endproc
.LFE55:
	.size	EF_Ctrl_Write_R0, .-EF_Ctrl_Write_R0
	.section	.text.EF_Ctrl_Read_R0,"ax",@progbits
	.align	1
	.globl	EF_Ctrl_Read_R0
	.type	EF_Ctrl_Read_R0, @function
EF_Ctrl_Read_R0:
.LFB56:
	.loc 1 1652 1 is_stmt 1
	.cfi_startproc
.LVL179:
	.loc 1 1653 5
	.loc 1 1655 5
	.loc 1 1652 1 is_stmt 0
	mv	a5,a1
	.loc 1 1655 36
	slli	a0,a0,2
.LVL180:
	.loc 1 1655 5
	li	a1,1073770496
.LVL181:
	add	a1,a1,a0
	mv	a0,a5
	tail	BL602_MemCpy4
.LVL182:
	.cfi_endproc
.LFE56:
	.size	EF_Ctrl_Read_R0, .-EF_Ctrl_Read_R0
	.section	.tcm_code
	.align	1
	.weak	EF_Ctrl_Clear
	.type	EF_Ctrl_Clear, @function
EF_Ctrl_Clear:
.LFB57:
	.loc 1 1670 1 is_stmt 1
	.cfi_startproc
.LVL183:
	.loc 1 1671 5
	.loc 1 1672 5
	.loc 1 1675 5
	.loc 1 1670 1 is_stmt 0
	addi	sp,sp,-32
	.cfi_def_cfa_offset 32
	sw	a0,12(sp)
	sw	a1,8(sp)
	sw	ra,28(sp)
	.cfi_offset 1, -4
	.loc 1 1675 5
	call	EF_Ctrl_Sw_AHB_Clk_0
.LVL184:
	.loc 1 1678 5 is_stmt 1
	lw	a0,12(sp)
	lw	a1,8(sp)
	.loc 1 1679 30 is_stmt 0
	li	a4,1073770496
	slli	a5,a0,2
	add	a1,a1,a0
	slli	a1,a1,2
.LVL185:
.L147:
	.loc 1 1678 5 discriminator 1
	bne	a5,a1,.L148
	.loc 1 1681 1
	lw	ra,28(sp)
	.cfi_remember_state
	.cfi_restore 1
	addi	sp,sp,32
	.cfi_def_cfa_offset 0
.LVL186:
	jr	ra
.LVL187:
.L148:
	.cfi_restore_state
	.loc 1 1679 9 is_stmt 1 discriminator 3
	.loc 1 1679 30 is_stmt 0 discriminator 3
	add	a3,a4,a5
	sw	zero,0(a3)
	addi	a5,a5,4
	j	.L147
	.cfi_endproc
.LFE57:
	.size	EF_Ctrl_Clear, .-EF_Ctrl_Clear
	.align	1
	.weak	EF_Ctrl_Load_Efuse_R0
	.type	EF_Ctrl_Load_Efuse_R0, @function
EF_Ctrl_Load_Efuse_R0:
.LFB10:
	.loc 1 200 1 is_stmt 1
	.cfi_startproc
	.loc 1 202 5
	.loc 1 203 5
.LVL188:
	.loc 1 205 5
	.loc 1 200 1 is_stmt 0
	addi	sp,sp,-16
	.cfi_def_cfa_offset 16
	.loc 1 205 5
	li	a1,32
	li	a0,0
	.loc 1 200 1
	sw	ra,12(sp)
	.cfi_offset 1, -4
	.loc 1 205 5
	call	EF_Ctrl_Clear
.LVL189:
	.loc 1 208 5 is_stmt 1
	.loc 1 217 5
	.loc 1 217 61 is_stmt 0
	li	a5,2408448
	addi	a3,a5,-256
	li	a4,1073774592
	sw	a3,-2048(a4)
	.loc 1 219 5 is_stmt 1
.LVL190:
	.loc 1 228 5
	.loc 1 228 61 is_stmt 0
	addi	a5,a5,-240
	sw	a5,-2048(a4)
	.loc 1 230 5 is_stmt 1
	li	a0,10
	call	BL602_Delay_US
.LVL191:
	li	a5,159744
	addi	a5,a5,256
	.loc 1 233 15 is_stmt 0
	li	a2,1073774592
	.loc 1 239 12
	li	a3,2
.LVL192:
.L152:
	.loc 1 232 5 is_stmt 1
	.loc 1 233 9
	.loc 1 233 15 is_stmt 0
	lw	a4,-2048(a2)
.LVL193:
	.loc 1 234 9 is_stmt 1
	.loc 1 235 9
	addi	a5,a5,-1
.LVL194:
	.loc 1 235 11 is_stmt 0
	beq	a5,zero,.L151
.LVL195:
	.loc 1 238 44
	andi	a4,a4,6
.LVL196:
	.loc 1 239 12
	bne	a4,a3,.L152
.LVL197:
.L151:
	.loc 1 242 5 is_stmt 1
	.loc 1 251 5
	.loc 1 251 61 is_stmt 0
	li	a5,2408448
	li	a4,1073774592
	addi	a5,a5,-128
	sw	a5,-2048(a4)
	.loc 1 252 1
	lw	ra,12(sp)
	.cfi_restore 1
	addi	sp,sp,16
	.cfi_def_cfa_offset 0
	jr	ra
	.cfi_endproc
.LFE10:
	.size	EF_Ctrl_Load_Efuse_R0, .-EF_Ctrl_Load_Efuse_R0
	.section	.text.EF_Ctrl_Read_Dbg_Pwd,"ax",@progbits
	.align	1
	.globl	EF_Ctrl_Read_Dbg_Pwd
	.type	EF_Ctrl_Read_Dbg_Pwd, @function
EF_Ctrl_Read_Dbg_Pwd:
.LFB14:
	.loc 1 335 1 is_stmt 1
	.cfi_startproc
.LVL198:
	.loc 1 337 5
	.loc 1 335 1 is_stmt 0
	addi	sp,sp,-32
	.cfi_def_cfa_offset 32
	sw	ra,28(sp)
	.cfi_offset 1, -4
	.loc 1 335 1
	sw	a0,12(sp)
	sw	a1,8(sp)
	.loc 1 337 5
	call	EF_Ctrl_Load_Efuse_R0
.LVL199:
	.loc 1 339 5 is_stmt 1
	.loc 1 339 17 is_stmt 0
	li	a5,1073770496
	lw	a4,4(a5)
	.loc 1 339 15
	lw	a0,12(sp)
	.loc 1 340 16
	lw	a1,8(sp)
	.loc 1 339 15
	sw	a4,0(a0)
	.loc 1 340 5 is_stmt 1
	.loc 1 340 18 is_stmt 0
	lw	a5,8(a5)
	.loc 1 340 16
	sw	a5,0(a1)
	.loc 1 341 1
	lw	ra,28(sp)
	.cfi_restore 1
	addi	sp,sp,32
	.cfi_def_cfa_offset 0
.LVL200:
	jr	ra
	.cfi_endproc
.LFE14:
	.size	EF_Ctrl_Read_Dbg_Pwd, .-EF_Ctrl_Read_Dbg_Pwd
	.section	.text.EF_Ctrl_Read_Secure_Cfg,"ax",@progbits
	.align	1
	.globl	EF_Ctrl_Read_Secure_Cfg
	.type	EF_Ctrl_Read_Secure_Cfg, @function
EF_Ctrl_Read_Secure_Cfg:
.LFB18:
	.loc 1 424 1 is_stmt 1
	.cfi_startproc
.LVL201:
	.loc 1 425 5
	.loc 1 428 5
	.loc 1 424 1 is_stmt 0
	addi	sp,sp,-32
	.cfi_def_cfa_offset 32
	sw	ra,28(sp)
	.cfi_offset 1, -4
	.loc 1 424 1
	sw	a0,12(sp)
	.loc 1 428 5
	call	EF_Ctrl_Load_Efuse_R0
.LVL202:
	.loc 1 430 5 is_stmt 1
	.loc 1 430 11 is_stmt 0
	li	a5,1073770496
	lw	a5,0(a5)
.LVL203:
	.loc 1 432 5 is_stmt 1
	.loc 1 432 23 is_stmt 0
	lw	a0,12(sp)
	.loc 1 432 85
	srli	a4,a5,28
	.loc 1 432 23
	sb	a4,0(a0)
	.loc 1 433 5 is_stmt 1
	.loc 1 433 67 is_stmt 0
	srli	a4,a5,26
	andi	a4,a4,3
	.loc 1 433 27
	sb	a4,1(a0)
	.loc 1 434 5 is_stmt 1
	.loc 1 434 61 is_stmt 0
	srli	a4,a5,4
	.loc 1 435 66
	srli	a5,a5,13
.LVL204:
	.loc 1 434 61
	andi	a4,a4,3
	.loc 1 435 66
	andi	a5,a5,1
	.loc 1 434 22
	sb	a4,2(a0)
	.loc 1 435 5 is_stmt 1
	.loc 1 435 26 is_stmt 0
	sb	a5,3(a0)
	.loc 1 436 1
	lw	ra,28(sp)
	.cfi_restore 1
	addi	sp,sp,32
	.cfi_def_cfa_offset 0
.LVL205:
	jr	ra
	.cfi_endproc
.LFE18:
	.size	EF_Ctrl_Read_Secure_Cfg, .-EF_Ctrl_Read_Secure_Cfg
	.section	.text.EF_Ctrl_Read_Secure_Boot,"ax",@progbits
	.align	1
	.globl	EF_Ctrl_Read_Secure_Boot
	.type	EF_Ctrl_Read_Secure_Boot, @function
EF_Ctrl_Read_Secure_Boot:
.LFB20:
	.loc 1 481 1 is_stmt 1
	.cfi_startproc
.LVL206:
	.loc 1 482 5
	.loc 1 483 5
	.loc 1 486 5
	.loc 1 481 1 is_stmt 0
	addi	sp,sp,-32
	.cfi_def_cfa_offset 32
	sw	a0,12(sp)
	sw	a1,8(sp)
	sw	ra,28(sp)
	.cfi_offset 1, -4
	.loc 1 486 5
	call	EF_Ctrl_Load_Efuse_R0
.LVL207:
	.loc 1 488 5 is_stmt 1
	.loc 1 488 11 is_stmt 0
	li	a5,1073770496
	lw	a5,0(a5)
.LVL208:
	.loc 1 490 5 is_stmt 1
	.loc 1 491 5
	.loc 1 491 12 is_stmt 0
	lw	a0,12(sp)
	.loc 1 494 7
	lw	a1,8(sp)
	.loc 1 490 51
	srli	a4,a5,2
	.loc 1 491 40
	andi	a4,a4,1
	.loc 1 491 12
	sb	a4,0(a0)
	.loc 1 493 5 is_stmt 1
.LVL209:
	.loc 1 494 5
	.loc 1 493 51 is_stmt 0
	srli	a4,a5,7
	.loc 1 493 12
	andi	a4,a4,1
.LVL210:
	.loc 1 495 49
	andi	a3,a5,3
	.loc 1 494 7
	bne	a4,zero,.L163
	li	a3,0
.L163:
	sb	a3,0(a1)
	.loc 1 499 1
	lw	ra,28(sp)
	.cfi_restore 1
	addi	sp,sp,32
	.cfi_def_cfa_offset 0
.LVL211:
	jr	ra
	.cfi_endproc
.LFE20:
	.size	EF_Ctrl_Read_Secure_Boot, .-EF_Ctrl_Read_Secure_Boot
	.section	.text.EF_Ctrl_Get_Trim_Enable,"ax",@progbits
	.align	1
	.globl	EF_Ctrl_Get_Trim_Enable
	.type	EF_Ctrl_Get_Trim_Enable, @function
EF_Ctrl_Get_Trim_Enable:
.LFB21:
	.loc 1 510 1 is_stmt 1
	.cfi_startproc
	.loc 1 511 5
	.loc 1 514 5
	.loc 1 510 1 is_stmt 0
	addi	sp,sp,-16
	.cfi_def_cfa_offset 16
	sw	ra,12(sp)
	.cfi_offset 1, -4
	.loc 1 514 5
	call	EF_Ctrl_Load_Efuse_R0
.LVL212:
	.loc 1 516 5 is_stmt 1
	.loc 1 516 11 is_stmt 0
	li	a5,1073770496
	lw	a0,0(a5)
.LVL213:
	.loc 1 518 5 is_stmt 1
	.loc 1 519 1 is_stmt 0
	lw	ra,12(sp)
	.cfi_restore 1
	.loc 1 518 51
	srli	a0,a0,12
.LVL214:
	.loc 1 519 1
	andi	a0,a0,1
	addi	sp,sp,16
	.cfi_def_cfa_offset 0
	jr	ra
	.cfi_endproc
.LFE21:
	.size	EF_Ctrl_Get_Trim_Enable, .-EF_Ctrl_Get_Trim_Enable
	.section	.text.EF_Ctrl_Read_Ana_Trim,"ax",@progbits
	.align	1
	.globl	EF_Ctrl_Read_Ana_Trim
	.type	EF_Ctrl_Read_Ana_Trim, @function
EF_Ctrl_Read_Ana_Trim:
.LFB24:
	.loc 1 581 1 is_stmt 1
	.cfi_startproc
.LVL215:
	.loc 1 583 5
	.loc 1 581 1 is_stmt 0
	addi	sp,sp,-32
	.cfi_def_cfa_offset 32
	sw	a0,12(sp)
	sw	ra,28(sp)
	.cfi_offset 1, -4
	.loc 1 581 1
	sw	a1,8(sp)
	.loc 1 583 5
	call	EF_Ctrl_Sw_AHB_Clk_0
.LVL216:
	.loc 1 585 5 is_stmt 1
	call	EF_Ctrl_Load_Efuse_R0
.LVL217:
	.loc 1 587 5
	.loc 1 587 7 is_stmt 0
	lw	a0,12(sp)
	bne	a0,zero,.L170
	.loc 1 588 9 is_stmt 1
	.loc 1 588 16 is_stmt 0
	li	a5,1073770496
	lw	a5,12(a5)
	.loc 1 588 14
	lw	a1,8(sp)
	sw	a5,0(a1)
.L170:
	.loc 1 590 1
	lw	ra,28(sp)
	.cfi_restore 1
	addi	sp,sp,32
	.cfi_def_cfa_offset 0
.LVL218:
	jr	ra
	.cfi_endproc
.LFE24:
	.size	EF_Ctrl_Read_Ana_Trim, .-EF_Ctrl_Read_Ana_Trim
	.section	.sclock_rlt_code
	.align	1
	.weak	EF_Ctrl_Read_RC32M_Trim
	.type	EF_Ctrl_Read_RC32M_Trim, @function
EF_Ctrl_Read_RC32M_Trim:
.LFB25:
	.loc 1 603 1 is_stmt 1
	.cfi_startproc
.LVL219:
	.loc 1 604 5
	.loc 1 606 5
	.loc 1 603 1 is_stmt 0
	addi	sp,sp,-32
	.cfi_def_cfa_offset 32
	sw	ra,28(sp)
	.cfi_offset 1, -4
	.loc 1 603 1
	sw	a0,12(sp)
	.loc 1 606 5
	call	EF_Ctrl_Sw_AHB_Clk_0
.LVL220:
	.loc 1 608 5 is_stmt 1
	call	EF_Ctrl_Load_Efuse_R0
.LVL221:
	.loc 1 610 5
	.loc 1 610 11 is_stmt 0
	li	a5,1073770496
	lw	a4,12(a5)
.LVL222:
	.loc 1 611 5 is_stmt 1
	.loc 1 611 29 is_stmt 0
	lw	a0,12(sp)
	.loc 1 611 37
	srli	a5,a4,10
	.loc 1 611 29
	sb	a5,0(a0)
	.loc 1 612 5 is_stmt 1
	.loc 1 612 35 is_stmt 0
	andi	a3,a5,256
	lw	a5,0(a0)
	.loc 1 613 29
	srli	a4,a4,10
.LVL223:
	andi	a4,a4,512
	.loc 1 612 35
	andi	a5,a5,-769
	.loc 1 613 5 is_stmt 1
	.loc 1 613 29 is_stmt 0
	or	a5,a5,a3
	or	a5,a5,a4
	sw	a5,0(a0)
.LVL224:
	.loc 1 614 1
	lw	ra,28(sp)
	.cfi_restore 1
	addi	sp,sp,32
	.cfi_def_cfa_offset 0
	jr	ra
	.cfi_endproc
.LFE25:
	.size	EF_Ctrl_Read_RC32M_Trim, .-EF_Ctrl_Read_RC32M_Trim
	.align	1
	.weak	EF_Ctrl_Read_RC32K_Trim
	.type	EF_Ctrl_Read_RC32K_Trim, @function
EF_Ctrl_Read_RC32K_Trim:
.LFB26:
	.loc 1 628 1 is_stmt 1
	.cfi_startproc
.LVL225:
	.loc 1 629 5
	.loc 1 631 5
	.loc 1 628 1 is_stmt 0
	addi	sp,sp,-32
	.cfi_def_cfa_offset 32
	sw	ra,28(sp)
	.cfi_offset 1, -4
	.loc 1 628 1
	sw	a0,12(sp)
	.loc 1 631 5
	call	EF_Ctrl_Sw_AHB_Clk_0
.LVL226:
	.loc 1 633 5 is_stmt 1
	call	EF_Ctrl_Load_Efuse_R0
.LVL227:
	.loc 1 635 5
	.loc 1 635 11 is_stmt 0
	li	a5,1073770496
	lw	a4,12(a5)
.LVL228:
	.loc 1 636 5 is_stmt 1
	.loc 1 636 29 is_stmt 0
	lw	a0,12(sp)
	.loc 1 636 37
	srli	a5,a4,20
	.loc 1 636 29
	andi	a2,a5,1023
	lw	a5,0(a0)
	.loc 1 637 35
	srli	a3,a4,20
	andi	a3,a3,1024
	.loc 1 636 29
	andi	a5,a5,-2048
	.loc 1 637 5 is_stmt 1
	.loc 1 637 35 is_stmt 0
	or	a5,a5,a2
	or	a5,a5,a3
	.loc 1 638 5 is_stmt 1
	.loc 1 638 29 is_stmt 0
	li	a3,-4096
	srli	a4,a4,31
.LVL229:
	addi	a3,a3,2047
	slli	a4,a4,11
	and	a5,a5,a3
	or	a5,a5,a4
	sw	a5,0(a0)
.LVL230:
	.loc 1 639 1
	lw	ra,28(sp)
	.cfi_restore 1
	addi	sp,sp,32
	.cfi_def_cfa_offset 0
	jr	ra
	.cfi_endproc
.LFE26:
	.size	EF_Ctrl_Read_RC32K_Trim, .-EF_Ctrl_Read_RC32K_Trim
	.align	1
	.globl	EF_Ctrl_Read_TSEN_Trim
	.type	EF_Ctrl_Read_TSEN_Trim, @function
EF_Ctrl_Read_TSEN_Trim:
.LFB27:
	.loc 1 651 1 is_stmt 1
	.cfi_startproc
.LVL231:
	.loc 1 652 5
	.loc 1 654 5
	.loc 1 651 1 is_stmt 0
	addi	sp,sp,-32
	.cfi_def_cfa_offset 32
	sw	ra,28(sp)
	.cfi_offset 1, -4
	.loc 1 651 1
	sw	a0,12(sp)
	.loc 1 654 5
	call	EF_Ctrl_Sw_AHB_Clk_0
.LVL232:
	.loc 1 656 5 is_stmt 1
	call	EF_Ctrl_Load_Efuse_R0
.LVL233:
	.loc 1 658 5
	.loc 1 658 11 is_stmt 0
	li	a1,1073770496
	lw	a4,120(a1)
.LVL234:
	.loc 1 659 5 is_stmt 1
	.loc 1 659 30 is_stmt 0
	lw	a0,12(sp)
	li	a3,-8192
	andi	a4,a4,1
.LVL235:
	slli	a5,a4,13
	lw	a4,0(a0)
	addi	a3,a3,-1
	.loc 1 662 28
	li	a2,-4096
	.loc 1 659 30
	and	a4,a4,a3
	or	a4,a4,a5
	sw	a4,0(a0)
.LVL236:
	.loc 1 661 5 is_stmt 1
	.loc 1 661 11 is_stmt 0
	lw	a3,124(a1)
.LVL237:
	.loc 1 662 5 is_stmt 1
	.loc 1 662 28 is_stmt 0
	and	a5,a4,a2
	.loc 1 663 34
	li	a4,4096
	.loc 1 662 28
	slli	a6,a3,20
	srli	a6,a6,20
	or	a5,a5,a6
	.loc 1 663 5 is_stmt 1
	.loc 1 663 34 is_stmt 0
	addi	a2,a2,-1
	and	a3,a3,a4
.LVL238:
	and	a5,a5,a2
	or	a5,a5,a3
	sw	a5,0(a0)
	.loc 1 665 5 is_stmt 1
	.loc 1 665 11 is_stmt 0
	lw	a4,112(a1)
.LVL239:
	.loc 1 666 5 is_stmt 1
	.loc 1 666 35 is_stmt 0
	li	a3,-16384
	addi	a3,a3,-1
	.loc 1 666 44
	srli	a4,a4,30
.LVL240:
	.loc 1 666 35
	andi	a4,a4,1
	slli	a4,a4,14
	and	a5,a5,a3
	or	a5,a5,a4
	sw	a5,0(a0)
	.loc 1 668 1
	lw	ra,28(sp)
	.cfi_restore 1
	addi	sp,sp,32
	.cfi_def_cfa_offset 0
	jr	ra
	.cfi_endproc
.LFE27:
	.size	EF_Ctrl_Read_TSEN_Trim, .-EF_Ctrl_Read_TSEN_Trim
	.align	1
	.globl	EF_Ctrl_Read_ADC_Gain_Trim
	.type	EF_Ctrl_Read_ADC_Gain_Trim, @function
EF_Ctrl_Read_ADC_Gain_Trim:
.LFB28:
	.loc 1 680 1 is_stmt 1
	.cfi_startproc
.LVL241:
	.loc 1 681 5
	.loc 1 683 5
	.loc 1 680 1 is_stmt 0
	addi	sp,sp,-32
	.cfi_def_cfa_offset 32
	sw	ra,28(sp)
	.cfi_offset 1, -4
	.loc 1 680 1
	sw	a0,12(sp)
	.loc 1 683 5
	call	EF_Ctrl_Sw_AHB_Clk_0
.LVL242:
	.loc 1 685 5 is_stmt 1
	call	EF_Ctrl_Load_Efuse_R0
.LVL243:
	.loc 1 687 5
	.loc 1 688 26 is_stmt 0
	lw	a0,12(sp)
	.loc 1 687 11
	li	a5,1073770496
	lw	a4,120(a5)
.LVL244:
	.loc 1 688 5 is_stmt 1
	.loc 1 688 26 is_stmt 0
	lw	a5,0(a0)
	li	a2,-4096
	slli	a3,a4,19
	srli	a3,a3,20
	and	a5,a5,a2
	or	a5,a5,a3
	.loc 1 689 5 is_stmt 1
	.loc 1 689 42 is_stmt 0
	srli	a3,a4,13
	.loc 1 689 32
	andi	a3,a3,1
	addi	a2,a2,-1
	slli	a3,a3,12
	and	a5,a5,a2
	or	a5,a5,a3
	.loc 1 690 5 is_stmt 1
	.loc 1 690 38 is_stmt 0
	srli	a4,a4,14
.LVL245:
	.loc 1 690 28
	li	a3,-8192
	andi	a4,a4,1
	addi	a3,a3,-1
	slli	a4,a4,13
	and	a5,a5,a3
	or	a5,a5,a4
	sw	a5,0(a0)
.LVL246:
	.loc 1 691 1
	lw	ra,28(sp)
	.cfi_restore 1
	addi	sp,sp,32
	.cfi_def_cfa_offset 0
	jr	ra
	.cfi_endproc
.LFE28:
	.size	EF_Ctrl_Read_ADC_Gain_Trim, .-EF_Ctrl_Read_ADC_Gain_Trim
	.section	.text.EF_Ctrl_Read_Sw_Usage,"ax",@progbits
	.align	1
	.globl	EF_Ctrl_Read_Sw_Usage
	.type	EF_Ctrl_Read_Sw_Usage, @function
EF_Ctrl_Read_Sw_Usage:
.LFB30:
	.loc 1 729 1 is_stmt 1
	.cfi_startproc
.LVL247:
	.loc 1 731 5
	.loc 1 729 1 is_stmt 0
	addi	sp,sp,-32
	.cfi_def_cfa_offset 32
	sw	a0,12(sp)
	sw	ra,28(sp)
	.cfi_offset 1, -4
	.loc 1 729 1
	sw	a1,8(sp)
	.loc 1 731 5
	call	EF_Ctrl_Sw_AHB_Clk_0
.LVL248:
	.loc 1 733 5 is_stmt 1
	call	EF_Ctrl_Load_Efuse_R0
.LVL249:
	.loc 1 735 5
	.loc 1 735 7 is_stmt 0
	lw	a0,12(sp)
	bne	a0,zero,.L181
	.loc 1 736 9 is_stmt 1
	.loc 1 736 17 is_stmt 0
	li	a5,1073770496
	lw	a5,16(a5)
	.loc 1 736 15
	lw	a1,8(sp)
	sw	a5,0(a1)
.L181:
	.loc 1 738 1
	lw	ra,28(sp)
	.cfi_restore 1
	addi	sp,sp,32
	.cfi_def_cfa_offset 0
.LVL250:
	jr	ra
	.cfi_endproc
.LFE30:
	.size	EF_Ctrl_Read_Sw_Usage, .-EF_Ctrl_Read_Sw_Usage
	.section	.text.EF_Ctrl_Read_MAC_Address,"ax",@progbits
	.align	1
	.globl	EF_Ctrl_Read_MAC_Address
	.type	EF_Ctrl_Read_MAC_Address, @function
EF_Ctrl_Read_MAC_Address:
.LFB34:
	.loc 1 826 1 is_stmt 1
	.cfi_startproc
.LVL251:
	.loc 1 827 5
	.loc 1 828 5
	.loc 1 829 5
	.loc 1 830 5
	.loc 1 831 5
	.loc 1 834 5
	.loc 1 826 1 is_stmt 0
	addi	sp,sp,-32
	.cfi_def_cfa_offset 32
	sw	s0,24(sp)
	sw	s1,20(sp)
	.cfi_offset 8, -8
	.cfi_offset 9, -12
	mv	s0,a0
	sw	s2,16(sp)
	sw	s3,12(sp)
	sw	s4,8(sp)
	sw	ra,28(sp)
	.cfi_offset 18, -16
	.cfi_offset 19, -20
	.cfi_offset 20, -24
	.cfi_offset 1, -4
	.loc 1 834 5
	call	EF_Ctrl_Load_Efuse_R0
.LVL252:
	.loc 1 836 5 is_stmt 1
	.loc 1 836 11 is_stmt 0
	li	a4,1073770496
	lw	a5,20(a4)
.LVL253:
	.loc 1 837 6 is_stmt 1
	.loc 1 831 14 is_stmt 0
	li	s3,0
	.loc 1 844 10
	li	s2,0
	.loc 1 837 45
	srli	a3,a5,8
	.loc 1 837 15
	sb	a5,0(s0)
	.loc 1 837 28 is_stmt 1
	.loc 1 837 37 is_stmt 0
	sb	a3,1(s0)
	.loc 1 837 55 is_stmt 1
	.loc 1 837 72 is_stmt 0
	srli	a3,a5,16
	.loc 1 837 100
	srli	a5,a5,24
.LVL254:
	.loc 1 837 92
	sb	a5,3(s0)
	.loc 1 837 64
	sb	a3,2(s0)
	.loc 1 837 83 is_stmt 1
	.loc 1 837 112
	.loc 1 839 5
	.loc 1 839 11 is_stmt 0
	lw	s1,24(a4)
.LVL255:
	.loc 1 840 5 is_stmt 1
	.loc 1 844 5 is_stmt 0
	li	s4,6
	.loc 1 841 23
	srli	a5,s1,8
	.loc 1 840 15
	sb	s1,4(s0)
	.loc 1 841 5 is_stmt 1
	.loc 1 841 15 is_stmt 0
	sb	a5,5(s0)
	.loc 1 844 5 is_stmt 1
.LVL256:
.L185:
	.loc 1 845 9 discriminator 3
	.loc 1 845 14 is_stmt 0 discriminator 3
	add	a5,s0,s2
	lbu	a0,0(a5)
	.loc 1 844 18 discriminator 3
	addi	s2,s2,1
.LVL257:
	.loc 1 845 14 discriminator 3
	call	EF_Ctrl_Get_Byte_Zero_Cnt
.LVL258:
	.loc 1 845 12 discriminator 3
	add	s3,s3,a0
.LVL259:
	.loc 1 844 5 discriminator 3
	bne	s2,s4,.L185
	.loc 1 847 5 is_stmt 1
	.loc 1 847 28 is_stmt 0
	srli	s1,s1,16
.LVL260:
	.loc 1 847 18
	xor	s1,s1,s3
	andi	s1,s1,63
	.loc 1 856 16
	li	a0,1
	.loc 1 847 7
	bne	s1,zero,.L186
	addi	a5,s0,5
	addi	a4,s0,2
.LVL261:
.L187:
.LBB24:
.LBB25:
	.loc 1 850 13 is_stmt 1
	.loc 1 851 23 is_stmt 0
	lbu	a2,0(a5)
	.loc 1 850 23
	lbu	a3,0(s0)
.LVL262:
	.loc 1 851 13 is_stmt 1
	addi	a5,a5,-1
	.loc 1 851 19 is_stmt 0
	sb	a2,0(s0)
	.loc 1 852 13 is_stmt 1
	.loc 1 852 21 is_stmt 0
	sb	a3,1(a5)
.LVL263:
	addi	s0,s0,1
.LVL264:
	.loc 1 849 9
	bne	a5,a4,.L187
	li	a0,0
.LVL265:
.L186:
.LBE25:
.LBE24:
	.loc 1 858 1
	lw	ra,28(sp)
	.cfi_restore 1
	lw	s0,24(sp)
	.cfi_restore 8
	lw	s1,20(sp)
	.cfi_restore 9
	lw	s2,16(sp)
	.cfi_restore 18
.LVL266:
	lw	s3,12(sp)
	.cfi_restore 19
.LVL267:
	lw	s4,8(sp)
	.cfi_restore 20
	addi	sp,sp,32
	.cfi_def_cfa_offset 0
	jr	ra
	.cfi_endproc
.LFE34:
	.size	EF_Ctrl_Read_MAC_Address, .-EF_Ctrl_Read_MAC_Address
	.section	.text.EF_Ctrl_Read_Chip_ID,"ax",@progbits
	.align	1
	.globl	EF_Ctrl_Read_Chip_ID
	.type	EF_Ctrl_Read_Chip_ID, @function
EF_Ctrl_Read_Chip_ID:
.LFB41:
	.loc 1 1134 1 is_stmt 1
	.cfi_startproc
.LVL268:
	.loc 1 1135 5
	.loc 1 1135 14 is_stmt 0
	sb	zero,6(a0)
	.loc 1 1136 5 is_stmt 1
	.loc 1 1136 14 is_stmt 0
	sb	zero,7(a0)
	.loc 1 1137 5 is_stmt 1
	.loc 1 1137 12 is_stmt 0
	tail	EF_Ctrl_Read_MAC_Address
.LVL269:
	.cfi_endproc
.LFE41:
	.size	EF_Ctrl_Read_Chip_ID, .-EF_Ctrl_Read_Chip_ID
	.section	.text.EF_Ctrl_Read_MAC_Address_Raw,"ax",@progbits
	.align	1
	.globl	EF_Ctrl_Read_MAC_Address_Raw
	.type	EF_Ctrl_Read_MAC_Address_Raw, @function
EF_Ctrl_Read_MAC_Address_Raw:
.LFB35:
	.loc 1 869 1 is_stmt 1
	.cfi_startproc
.LVL270:
	.loc 1 870 5
	.loc 1 869 1 is_stmt 0
	addi	sp,sp,-32
	.cfi_def_cfa_offset 32
.LVL271:
	.loc 1 871 5 is_stmt 1
	.loc 1 872 5
	.loc 1 875 5
	.loc 1 869 1 is_stmt 0
	sw	ra,28(sp)
	.cfi_offset 1, -4
	.loc 1 869 1
	sw	a0,12(sp)
.LVL272:
	.loc 1 875 5
	call	EF_Ctrl_Load_Efuse_R0
.LVL273:
	.loc 1 877 5 is_stmt 1
	.loc 1 877 11 is_stmt 0
	li	a4,1073770496
	lw	a5,20(a4)
.LVL274:
	.loc 1 878 6 is_stmt 1
	.loc 1 878 15 is_stmt 0
	lw	a0,12(sp)
	.loc 1 878 45
	srli	a3,a5,8
	.loc 1 878 15
	sb	a5,0(a0)
	.loc 1 878 28 is_stmt 1
	.loc 1 878 37 is_stmt 0
	sb	a3,1(a0)
	.loc 1 878 55 is_stmt 1
	.loc 1 878 72 is_stmt 0
	srli	a3,a5,16
	.loc 1 878 100
	srli	a5,a5,24
.LVL275:
	.loc 1 878 64
	sb	a3,2(a0)
	.loc 1 878 83 is_stmt 1
	.loc 1 878 92 is_stmt 0
	sb	a5,3(a0)
	.loc 1 878 112 is_stmt 1
	.loc 1 880 5
	.loc 1 880 11 is_stmt 0
	lw	a5,24(a4)
.LVL276:
	.loc 1 881 5 is_stmt 1
	.loc 1 881 15 is_stmt 0
	sb	a5,4(a0)
	.loc 1 882 5 is_stmt 1
	.loc 1 882 23 is_stmt 0
	srli	a4,a5,8
	.loc 1 883 23
	srli	a5,a5,16
.LVL277:
	.loc 1 882 15
	sb	a4,5(a0)
	.loc 1 883 5 is_stmt 1
	.loc 1 883 15 is_stmt 0
	sb	a5,6(a0)
	.loc 1 885 5 is_stmt 1
	.loc 1 886 1 is_stmt 0
	lw	ra,28(sp)
	.cfi_restore 1
	li	a0,0
	addi	sp,sp,32
	.cfi_def_cfa_offset 0
.LVL278:
	jr	ra
	.cfi_endproc
.LFE35:
	.size	EF_Ctrl_Read_MAC_Address_Raw, .-EF_Ctrl_Read_MAC_Address_Raw
	.section	.text.EF_Ctrl_Is_MAC_Address_Slot_Empty,"ax",@progbits
	.align	1
	.globl	EF_Ctrl_Is_MAC_Address_Slot_Empty
	.type	EF_Ctrl_Is_MAC_Address_Slot_Empty, @function
EF_Ctrl_Is_MAC_Address_Slot_Empty:
.LFB38:
	.loc 1 950 1 is_stmt 1
	.cfi_startproc
.LVL279:
	.loc 1 951 5
	.loc 1 952 5
	.loc 1 954 5
	.loc 1 950 1 is_stmt 0
	addi	sp,sp,-16
	.cfi_def_cfa_offset 16
	sw	s0,8(sp)
	sw	ra,12(sp)
	.cfi_offset 8, -8
	.cfi_offset 1, -4
	.loc 1 950 1
	mv	s0,a1
	.loc 1 954 7
	bne	a0,zero,.L196
	.loc 1 956 9 is_stmt 1
	call	EF_Ctrl_Sw_AHB_Clk_0
.LVL280:
	.loc 1 958 9
	.loc 1 958 11 is_stmt 0
	beq	s0,zero,.L197
	.loc 1 959 13 is_stmt 1
	call	EF_Ctrl_Load_Efuse_R0
.LVL281:
.L197:
	.loc 1 961 9
	.loc 1 961 13 is_stmt 0
	li	a5,1073770496
	lw	a4,20(a5)
.LVL282:
	.loc 1 962 9 is_stmt 1
	.loc 1 962 13 is_stmt 0
	lw	a5,24(a5)
.LVL283:
.L198:
	.loc 1 983 5 is_stmt 1
	.loc 1 924 5
	.loc 1 926 5
	.loc 1 927 5
	.loc 1 933 5
	.loc 1 984 5
.LBB26:
.LBB27:
	.loc 1 924 5
	.loc 1 926 5
	.loc 1 927 5
	.loc 1 930 9
	.loc 1 933 5
	.loc 1 933 12 is_stmt 0
	slli	a5,a5,10
.LVL284:
	srli	a5,a5,10
	.loc 1 933 7
	or	a5,a5,a4
.LBE27:
.LBE26:
	.loc 1 986 23
	li	a0,1
.LBB29:
.LBB28:
	.loc 1 933 7
	beq	a5,zero,.L203
.LVL285:
.L201:
.LBE28:
.LBE29:
	.loc 1 986 23 discriminator 4
	li	a0,0
.L203:
	.loc 1 987 1 discriminator 6
	lw	ra,12(sp)
	.cfi_remember_state
	.cfi_restore 1
	lw	s0,8(sp)
	.cfi_restore 8
	addi	sp,sp,16
	.cfi_def_cfa_offset 0
	jr	ra
.LVL286:
.L196:
	.cfi_restore_state
	.loc 1 963 11 is_stmt 1
	.loc 1 963 13 is_stmt 0
	li	a5,1
	bne	a0,a5,.L199
	.loc 1 965 9 is_stmt 1
	call	EF_Ctrl_Sw_AHB_Clk_0
.LVL287:
	.loc 1 967 9
	.loc 1 967 11 is_stmt 0
	beq	s0,zero,.L200
	.loc 1 968 13 is_stmt 1
	call	EF_Ctrl_Load_Efuse_R0
.LVL288:
.L200:
	.loc 1 970 9
	.loc 1 970 13 is_stmt 0
	li	a5,1073770496
	lw	a4,108(a5)
.LVL289:
	.loc 1 971 9 is_stmt 1
	.loc 1 971 13 is_stmt 0
	lw	a5,112(a5)
.LVL290:
	j	.L198
.LVL291:
.L199:
	.loc 1 972 11 is_stmt 1
	.loc 1 972 13 is_stmt 0
	li	a5,2
	bne	a0,a5,.L201
	.loc 1 974 9 is_stmt 1
	call	EF_Ctrl_Sw_AHB_Clk_0
.LVL292:
	.loc 1 976 9
	.loc 1 976 11 is_stmt 0
	beq	s0,zero,.L202
	.loc 1 977 13 is_stmt 1
	call	EF_Ctrl_Load_Efuse_R0
.LVL293:
.L202:
	.loc 1 979 9
	.loc 1 979 13 is_stmt 0
	li	a5,1073770496
	lw	a4,4(a5)
.LVL294:
	.loc 1 980 9 is_stmt 1
	.loc 1 980 13 is_stmt 0
	lw	a5,8(a5)
.LVL295:
	j	.L198
	.cfi_endproc
.LFE38:
	.size	EF_Ctrl_Is_MAC_Address_Slot_Empty, .-EF_Ctrl_Is_MAC_Address_Slot_Empty
	.section	.text.EF_Ctrl_Read_MAC_Address_Opt,"ax",@progbits
	.align	1
	.globl	EF_Ctrl_Read_MAC_Address_Opt
	.type	EF_Ctrl_Read_MAC_Address_Opt, @function
EF_Ctrl_Read_MAC_Address_Opt:
.LFB40:
	.loc 1 1069 1 is_stmt 1
	.cfi_startproc
.LVL296:
	.loc 1 1070 5
	.loc 1 1071 5
	.loc 1 1072 5
	.loc 1 1073 5
	.loc 1 1074 5
	.loc 1 1076 5
	.loc 1 1076 7 is_stmt 0
	li	a5,2
	bgtu	a0,a5,.L235
	.loc 1 1069 1
	addi	sp,sp,-32
	.cfi_def_cfa_offset 32
	sw	s0,24(sp)
	sw	s1,20(sp)
	sw	ra,28(sp)
	sw	s2,16(sp)
	sw	s3,12(sp)
	sw	s4,8(sp)
	.cfi_offset 8, -8
	.cfi_offset 9, -12
	.cfi_offset 1, -4
	.cfi_offset 18, -16
	.cfi_offset 19, -20
	.cfi_offset 20, -24
	mv	s0,a1
	mv	s1,a0
	.loc 1 1081 5 is_stmt 1
	.loc 1 1081 7 is_stmt 0
	beq	a2,zero,.L218
	.loc 1 1082 9 is_stmt 1
	.loc 1 1082 11 is_stmt 0
	bne	a0,a5,.L219
	.loc 1 1083 13 is_stmt 1
	call	EF_Ctrl_Load_Efuse_R0
.LVL297:
	.loc 1 1089 5
.L220:
	.loc 1 1093 11
	.loc 1 1094 9
	.loc 1 1094 15 is_stmt 0
	li	a5,1073770496
	lw	a5,4(a5)
.LVL298:
	j	.L222
.LVL299:
.L219:
	.loc 1 1085 13 is_stmt 1
	call	EF_Ctrl_Load_Efuse_R0
.LVL300:
.L218:
	.loc 1 1089 5
	.loc 1 1089 7 is_stmt 0
	bne	s1,zero,.L221
	.loc 1 1090 9 is_stmt 1
	.loc 1 1090 15 is_stmt 0
	li	a5,1073770496
	lw	a5,20(a5)
.LVL301:
.L222:
	.loc 1 1096 6 is_stmt 1
	.loc 1 1096 45 is_stmt 0
	srli	a4,a5,8
	.loc 1 1096 15
	sb	a5,0(s0)
	.loc 1 1096 28 is_stmt 1
	.loc 1 1096 37 is_stmt 0
	sb	a4,1(s0)
	.loc 1 1096 55 is_stmt 1
	.loc 1 1096 72 is_stmt 0
	srli	a4,a5,16
	.loc 1 1096 100
	srli	a5,a5,24
	.loc 1 1096 64
	sb	a4,2(s0)
	.loc 1 1096 83 is_stmt 1
	.loc 1 1096 92 is_stmt 0
	sb	a5,3(s0)
	.loc 1 1096 112 is_stmt 1
	.loc 1 1098 5
	.loc 1 1098 7 is_stmt 0
	bne	s1,zero,.L223
	.loc 1 1099 9 is_stmt 1
	.loc 1 1099 15 is_stmt 0
	li	a5,1073770496
	lw	s1,24(a5)
.LVL302:
.L224:
	.loc 1 1105 5 is_stmt 1
	.loc 1 1106 23 is_stmt 0
	srli	a5,s1,8
	.loc 1 1105 15
	sb	s1,4(s0)
	.loc 1 1106 5 is_stmt 1
	.loc 1 1106 15 is_stmt 0
	sb	a5,5(s0)
	.loc 1 1109 5 is_stmt 1
	.loc 1 1074 14 is_stmt 0
	li	s3,0
	.loc 1 1109 10
	li	s2,0
	.loc 1 1109 5
	li	s4,6
.LVL303:
.L226:
	.loc 1 1110 9 is_stmt 1 discriminator 3
	.loc 1 1110 14 is_stmt 0 discriminator 3
	add	a5,s0,s2
	lbu	a0,0(a5)
	.loc 1 1109 18 discriminator 3
	addi	s2,s2,1
.LVL304:
	.loc 1 1110 14 discriminator 3
	call	EF_Ctrl_Get_Byte_Zero_Cnt
.LVL305:
	.loc 1 1110 12 discriminator 3
	add	s3,s3,a0
.LVL306:
	.loc 1 1109 5 discriminator 3
	bne	s2,s4,.L226
	.loc 1 1112 5 is_stmt 1
	.loc 1 1112 28 is_stmt 0
	srli	s1,s1,16
.LVL307:
	.loc 1 1112 18
	xor	s1,s1,s3
	andi	s1,s1,63
	.loc 1 1077 16
	li	a0,1
	.loc 1 1112 7
	bne	s1,zero,.L228
	addi	a5,s0,5
	addi	a4,s0,2
.LVL308:
.L227:
	.loc 1 1115 13 is_stmt 1 discriminator 3
	.loc 1 1116 23 is_stmt 0 discriminator 3
	lbu	a2,0(a5)
	.loc 1 1115 23 discriminator 3
	lbu	a3,0(s0)
.LVL309:
	.loc 1 1116 13 is_stmt 1 discriminator 3
	addi	a5,a5,-1
	.loc 1 1116 19 is_stmt 0 discriminator 3
	sb	a2,0(s0)
	.loc 1 1117 13 is_stmt 1 discriminator 3
	.loc 1 1117 21 is_stmt 0 discriminator 3
	sb	a3,1(a5)
.LVL310:
	addi	s0,s0,1
.LVL311:
	.loc 1 1114 9 discriminator 3
	bne	a4,a5,.L227
	.loc 1 1119 16
	li	a0,0
.LVL312:
.L228:
	.loc 1 1123 1
	lw	ra,28(sp)
	.cfi_remember_state
	.cfi_restore 1
	lw	s0,24(sp)
	.cfi_restore 8
	lw	s1,20(sp)
	.cfi_restore 9
	lw	s2,16(sp)
	.cfi_restore 18
	lw	s3,12(sp)
	.cfi_restore 19
.LVL313:
	lw	s4,8(sp)
	.cfi_restore 20
	addi	sp,sp,32
	.cfi_def_cfa_offset 0
	jr	ra
.LVL314:
.L221:
	.cfi_restore_state
	.loc 1 1091 11 is_stmt 1
	.loc 1 1091 13 is_stmt 0
	li	a5,1
	bne	s1,a5,.L220
	.loc 1 1092 9 is_stmt 1
	.loc 1 1092 15 is_stmt 0
	li	a5,1073770496
	lw	a5,108(a5)
.LVL315:
	j	.L222
.L223:
	.loc 1 1100 11 is_stmt 1
	.loc 1 1100 13 is_stmt 0
	li	a5,1
	bne	s1,a5,.L225
	.loc 1 1101 9 is_stmt 1
	.loc 1 1101 15 is_stmt 0
	li	a5,1073770496
	lw	s1,112(a5)
.LVL316:
	j	.L224
.LVL317:
.L225:
	.loc 1 1102 11 is_stmt 1
	.loc 1 1103 9
	.loc 1 1103 15 is_stmt 0
	li	a5,1073770496
	lw	s1,8(a5)
.LVL318:
	j	.L224
.LVL319:
.L235:
	.cfi_def_cfa_offset 0
	.cfi_restore 1
	.cfi_restore 8
	.cfi_restore 9
	.cfi_restore 18
	.cfi_restore 19
	.cfi_restore 20
	.loc 1 1077 16
	li	a0,1
.LVL320:
	.loc 1 1123 1
	ret
	.cfi_endproc
.LFE40:
	.size	EF_Ctrl_Read_MAC_Address_Opt, .-EF_Ctrl_Read_MAC_Address_Opt
	.section	.text.EF_Ctrl_Read_Device_Info,"ax",@progbits
	.align	1
	.globl	EF_Ctrl_Read_Device_Info
	.type	EF_Ctrl_Read_Device_Info, @function
EF_Ctrl_Read_Device_Info:
.LFB42:
	.loc 1 1149 1 is_stmt 1
	.cfi_startproc
.LVL321:
	.loc 1 1150 5
	.loc 1 1151 5
	.loc 1 1149 1 is_stmt 0
	addi	sp,sp,-32
	.cfi_def_cfa_offset 32
.LVL322:
	.loc 1 1154 5 is_stmt 1
	.loc 1 1149 1 is_stmt 0
	sw	ra,28(sp)
	.cfi_offset 1, -4
	.loc 1 1149 1
	sw	a0,12(sp)
.LVL323:
	.loc 1 1154 5
	call	EF_Ctrl_Load_Efuse_R0
.LVL324:
	.loc 1 1156 5 is_stmt 1
	.loc 1 1156 11 is_stmt 0
	li	a5,1073770496
	.loc 1 1157 7
	lw	a0,12(sp)
	.loc 1 1156 11
	lw	a5,24(a5)
.LVL325:
	.loc 1 1157 5 is_stmt 1
	.loc 1 1157 7 is_stmt 0
	sw	a5,0(a0)
	.loc 1 1158 1
	lw	ra,28(sp)
	.cfi_restore 1
	addi	sp,sp,32
	.cfi_def_cfa_offset 0
.LVL326:
	jr	ra
	.cfi_endproc
.LFE42:
	.size	EF_Ctrl_Read_Device_Info, .-EF_Ctrl_Read_Device_Info
	.section	.text.EF_Ctrl_Is_CapCode_Slot_Empty,"ax",@progbits
	.align	1
	.globl	EF_Ctrl_Is_CapCode_Slot_Empty
	.type	EF_Ctrl_Is_CapCode_Slot_Empty, @function
EF_Ctrl_Is_CapCode_Slot_Empty:
.LFB43:
	.loc 1 1170 1 is_stmt 1
	.cfi_startproc
.LVL327:
	.loc 1 1171 5
	.loc 1 1174 5
	.loc 1 1170 1 is_stmt 0
	addi	sp,sp,-32
	.cfi_def_cfa_offset 32
	sw	s0,24(sp)
	sw	a1,12(sp)
	sw	ra,28(sp)
	.cfi_offset 8, -8
	.cfi_offset 1, -4
	.loc 1 1170 1
	mv	s0,a0
	.loc 1 1174 5
	call	EF_Ctrl_Sw_AHB_Clk_0
.LVL328:
	.loc 1 1176 5 is_stmt 1
	.loc 1 1176 7 is_stmt 0
	lw	a1,12(sp)
	beq	a1,zero,.L242
	.loc 1 1177 9 is_stmt 1
	call	EF_Ctrl_Load_Efuse_R0
.LVL329:
.L242:
	.loc 1 1180 5
	.loc 1 1180 7 is_stmt 0
	bne	s0,zero,.L243
	.loc 1 1181 9 is_stmt 1
	.loc 1 1181 12 is_stmt 0
	li	a5,1073770496
	lw	a5,12(a5)
.LVL330:
	.loc 1 1182 9 is_stmt 1
.LBB30:
.LBB31:
	.loc 1 924 5
	.loc 1 926 5
	.loc 1 927 5
	.loc 1 930 9
	.loc 1 933 5
	.loc 1 926 8 is_stmt 0
	srli	a5,a5,2
.LVL331:
.L251:
.LBE31:
.LBE30:
.LBB33:
.LBB34:
	.loc 1 933 12
	andi	a5,a5,255
.LBE34:
.LBE33:
.LBB36:
.LBB32:
	.loc 1 936 16
	seqz	a0,a5
.L244:
.LBE32:
.LBE36:
	.loc 1 1192 1
	lw	ra,28(sp)
	.cfi_remember_state
	.cfi_restore 1
	lw	s0,24(sp)
	.cfi_restore 8
	addi	sp,sp,32
	.cfi_def_cfa_offset 0
	jr	ra
.LVL332:
.L243:
	.cfi_restore_state
	.loc 1 1183 11 is_stmt 1
	.loc 1 1183 13 is_stmt 0
	li	a5,1
	bne	s0,a5,.L245
	.loc 1 1184 9 is_stmt 1
	.loc 1 1184 12 is_stmt 0
	li	a5,1073770496
	lw	a5,112(a5)
.LVL333:
	.loc 1 1185 9 is_stmt 1
.LBB37:
.LBB38:
	.loc 1 924 5
	.loc 1 926 5
	.loc 1 927 5
	.loc 1 930 9
	.loc 1 933 5
.L252:
.LBE38:
.LBE37:
	.loc 1 1188 9
.LBB39:
.LBB35:
	.loc 1 924 5
	.loc 1 926 5
	.loc 1 927 5
	.loc 1 930 9
	.loc 1 933 5
	.loc 1 926 8 is_stmt 0
	srli	a5,a5,22
.LVL334:
	j	.L251
.LVL335:
.L245:
.LBE35:
.LBE39:
	.loc 1 1186 11 is_stmt 1
	.loc 1 1186 13 is_stmt 0
	li	a4,2
	.loc 1 1191 12
	li	a0,0
	.loc 1 1186 13
	bne	s0,a4,.L244
	.loc 1 1187 9 is_stmt 1
	.loc 1 1187 12 is_stmt 0
	li	a5,1073770496
	lw	a5,8(a5)
.LVL336:
	j	.L252
	.cfi_endproc
.LFE43:
	.size	EF_Ctrl_Is_CapCode_Slot_Empty, .-EF_Ctrl_Is_CapCode_Slot_Empty
	.section	.text.EF_Ctrl_Write_CapCode_Opt,"ax",@progbits
	.align	1
	.globl	EF_Ctrl_Write_CapCode_Opt
	.type	EF_Ctrl_Write_CapCode_Opt, @function
EF_Ctrl_Write_CapCode_Opt:
.LFB44:
	.loc 1 1205 1 is_stmt 1
	.cfi_startproc
.LVL337:
	.loc 1 1206 5
	.loc 1 1207 5
	.loc 1 1209 5
	.loc 1 1209 7 is_stmt 0
	li	a5,2
	bgtu	a0,a5,.L263
	.loc 1 1205 1
	addi	sp,sp,-32
	.cfi_def_cfa_offset 32
	sw	s0,24(sp)
	.cfi_offset 8, -8
	mv	s0,a0
	.loc 1 1214 5 is_stmt 1
	.loc 1 1205 1 is_stmt 0
	sw	ra,28(sp)
	sw	s2,16(sp)
	sw	s3,12(sp)
	sw	s1,20(sp)
	.cfi_offset 1, -4
	.cfi_offset 18, -16
	.cfi_offset 19, -20
	.cfi_offset 9, -12
	mv	s2,a2
	mv	s3,a1
	.loc 1 1214 5
	call	EF_Ctrl_Sw_AHB_Clk_0
.LVL338:
	.loc 1 1215 5 is_stmt 1
	call	EF_Ctrl_Load_Efuse_R0
.LVL339:
	.loc 1 1217 5
	.loc 1 1217 7 is_stmt 0
	bne	s0,zero,.L255
	.loc 1 1218 9 is_stmt 1
	.loc 1 1218 12 is_stmt 0
	li	a5,1073770496
	lw	s1,12(a5)
.LVL340:
.L256:
	.loc 1 1225 5 is_stmt 1
	.loc 1 1226 5
	.loc 1 1226 13 is_stmt 0
	li	a1,6
	mv	a0,s3
	call	EF_Ctrl_Get_Trim_Parity
.LVL341:
	.loc 1 1226 45
	slli	a5,a0,6
	.loc 1 1226 9
	or	a5,a5,s3
.LVL342:
	.loc 1 1227 5 is_stmt 1
	.loc 1 1229 5
	.loc 1 1227 9 is_stmt 0
	ori	a5,a5,-128
.LVL343:
	andi	a5,a5,0xff
	.loc 1 1229 7
	bne	s0,zero,.L258
	.loc 1 1230 9 is_stmt 1
	.loc 1 1230 74 is_stmt 0
	slli	a5,a5,2
	.loc 1 1230 68
	or	a5,a5,s1
	.loc 1 1230 63
	li	a4,1073770496
	sw	a5,12(a4)
.L259:
	.loc 1 1237 5 is_stmt 1
	.loc 1 1237 7 is_stmt 0
	beq	s2,zero,.L261
	.loc 1 1238 9 is_stmt 1
	call	EF_Ctrl_Program_Efuse_0
.LVL344:
.L261:
	.loc 1 1240 10 is_stmt 0 discriminator 1
	li	s0,1
.L262:
	.loc 1 1240 31 is_stmt 1 discriminator 1
	.loc 1 1240 16 is_stmt 0 discriminator 1
	call	EF_Ctrl_Busy
.LVL345:
	.loc 1 1240 10 discriminator 1
	beq	a0,s0,.L262
	.loc 1 1243 1
	lw	ra,28(sp)
	.cfi_remember_state
	.cfi_restore 1
	lw	s0,24(sp)
	.cfi_restore 8
	lw	s1,20(sp)
	.cfi_restore 9
	lw	s2,16(sp)
	.cfi_restore 18
	lw	s3,12(sp)
	.cfi_restore 19
	.loc 1 1242 12
	li	a0,0
	.loc 1 1243 1
	addi	sp,sp,32
	.cfi_def_cfa_offset 0
	jr	ra
.L255:
	.cfi_restore_state
	.loc 1 1219 11 is_stmt 1
	.loc 1 1219 13 is_stmt 0
	li	a5,1
	bne	s0,a5,.L257
	.loc 1 1220 9 is_stmt 1
	.loc 1 1220 12 is_stmt 0
	li	a5,1073770496
	lw	s1,112(a5)
	j	.L256
.L257:
	.loc 1 1221 11 is_stmt 1
	.loc 1 1222 9
	.loc 1 1222 12 is_stmt 0
	li	a5,1073770496
	lw	s1,8(a5)
	j	.L256
.LVL346:
.L258:
	.loc 1 1231 11 is_stmt 1
	slli	a5,a5,22
	.loc 1 1231 13 is_stmt 0
	li	a4,1
	or	a5,a5,s1
	bne	s0,a4,.L260
	.loc 1 1232 9 is_stmt 1
	.loc 1 1232 64 is_stmt 0
	li	a4,1073770496
	sw	a5,112(a4)
	j	.L259
.L260:
	.loc 1 1233 11 is_stmt 1
	.loc 1 1234 9
	.loc 1 1234 63 is_stmt 0
	li	a4,1073770496
	sw	a5,8(a4)
	j	.L259
.LVL347:
.L263:
	.cfi_def_cfa_offset 0
	.cfi_restore 1
	.cfi_restore 8
	.cfi_restore 9
	.cfi_restore 18
	.cfi_restore 19
	.loc 1 1210 16
	li	a0,1
.LVL348:
	.loc 1 1243 1
	ret
	.cfi_endproc
.LFE44:
	.size	EF_Ctrl_Write_CapCode_Opt, .-EF_Ctrl_Write_CapCode_Opt
	.section	.text.EF_Ctrl_Read_CapCode_Opt,"ax",@progbits
	.align	1
	.globl	EF_Ctrl_Read_CapCode_Opt
	.type	EF_Ctrl_Read_CapCode_Opt, @function
EF_Ctrl_Read_CapCode_Opt:
.LFB45:
	.loc 1 1256 1 is_stmt 1
	.cfi_startproc
.LVL349:
	.loc 1 1257 5
	.loc 1 1258 5
	.loc 1 1260 5
	.loc 1 1260 7 is_stmt 0
	li	a5,2
	bleu	a0,a5,.L273
	.loc 1 1261 16
	li	a0,1
.LVL350:
	.loc 1 1286 1
	ret
.LVL351:
.L279:
	.cfi_def_cfa_offset 32
	.cfi_offset 1, -4
	.cfi_offset 8, -8
	.cfi_offset 9, -12
	.cfi_offset 18, -16
	.loc 1 1261 16
	li	a0,1
.L274:
	.loc 1 1286 1
	lw	ra,28(sp)
	.cfi_restore 1
	lw	s0,24(sp)
	.cfi_restore 8
	lw	s1,20(sp)
	.cfi_restore 9
.LVL352:
	lw	s2,16(sp)
	.cfi_restore 18
	addi	sp,sp,32
	.cfi_def_cfa_offset 0
.LVL353:
	jr	ra
.LVL354:
.L273:
	.loc 1 1256 1
	addi	sp,sp,-32
	.cfi_def_cfa_offset 32
	sw	s2,16(sp)
	.cfi_offset 18, -16
	mv	s2,a2
	sw	s0,24(sp)
	sw	s1,20(sp)
	sw	ra,28(sp)
	.cfi_offset 8, -8
	.cfi_offset 9, -12
	.cfi_offset 1, -4
	mv	s1,a1
	mv	s0,a0
	.loc 1 1265 5 is_stmt 1
	call	EF_Ctrl_Sw_AHB_Clk_0
.LVL355:
	.loc 1 1267 5
	.loc 1 1267 7 is_stmt 0
	beq	s2,zero,.L275
	.loc 1 1268 9 is_stmt 1
	call	EF_Ctrl_Load_Efuse_R0
.LVL356:
.L275:
	.loc 1 1271 5
	.loc 1 1271 7 is_stmt 0
	bne	s0,zero,.L276
	.loc 1 1272 9 is_stmt 1
	.loc 1 1272 15 is_stmt 0
	li	a5,1073770496
	lw	a5,12(a5)
	.loc 1 1272 70
	srli	a5,a5,2
.L289:
	.loc 1 1276 12
	sw	a5,12(sp)
	.loc 1 1279 5 is_stmt 1
	.loc 1 1279 8 is_stmt 0
	lw	a0,12(sp)
	andi	a5,a0,128
	.loc 1 1279 7
	beq	a5,zero,.L279
	.loc 1 1280 9 is_stmt 1
	.loc 1 1280 54 is_stmt 0
	andi	s0,a0,63
	.loc 1 1280 16
	srli	s2,a0,6
	.loc 1 1280 26
	li	a1,6
	mv	a0,s0
	.loc 1 1280 16
	andi	s2,s2,1
	.loc 1 1280 26
	call	EF_Ctrl_Get_Trim_Parity
.LVL357:
	.loc 1 1280 11
	bne	s2,a0,.L279
	.loc 1 1281 13 is_stmt 1
	.loc 1 1281 18 is_stmt 0
	sb	s0,0(s1)
	.loc 1 1282 13 is_stmt 1
	.loc 1 1282 20 is_stmt 0
	li	a0,0
	j	.L274
.L276:
	.loc 1 1273 11 is_stmt 1
	.loc 1 1273 13 is_stmt 0
	li	a5,1
	bne	s0,a5,.L278
	.loc 1 1274 9 is_stmt 1
	.loc 1 1274 15 is_stmt 0
	li	a5,1073770496
	lw	a5,112(a5)
.L290:
	.loc 1 1276 70
	srli	a5,a5,22
	j	.L289
.L278:
	.loc 1 1275 11 is_stmt 1
	.loc 1 1276 9
	.loc 1 1276 15 is_stmt 0
	li	a5,1073770496
	lw	a5,8(a5)
	j	.L290
	.cfi_endproc
.LFE45:
	.size	EF_Ctrl_Read_CapCode_Opt, .-EF_Ctrl_Read_CapCode_Opt
	.section	.text.EF_Ctrl_Is_PowerOffset_Slot_Empty,"ax",@progbits
	.align	1
	.globl	EF_Ctrl_Is_PowerOffset_Slot_Empty
	.type	EF_Ctrl_Is_PowerOffset_Slot_Empty, @function
EF_Ctrl_Is_PowerOffset_Slot_Empty:
.LFB46:
	.loc 1 1298 1 is_stmt 1
	.cfi_startproc
.LVL358:
	.loc 1 1299 5
	.loc 1 1300 5
	.loc 1 1303 5
	.loc 1 1298 1 is_stmt 0
	addi	sp,sp,-32
	.cfi_def_cfa_offset 32
	sw	s0,24(sp)
	sw	a1,12(sp)
	sw	ra,28(sp)
	.cfi_offset 8, -8
	.cfi_offset 1, -4
	.loc 1 1298 1
	mv	s0,a0
	.loc 1 1303 5
	call	EF_Ctrl_Sw_AHB_Clk_0
.LVL359:
	.loc 1 1305 5 is_stmt 1
	.loc 1 1305 7 is_stmt 0
	lw	a1,12(sp)
	beq	a1,zero,.L292
	.loc 1 1306 9 is_stmt 1
	call	EF_Ctrl_Load_Efuse_R0
.LVL360:
.L292:
	.loc 1 1309 5
	.loc 1 1309 7 is_stmt 0
	bne	s0,zero,.L293
	.loc 1 1310 9 is_stmt 1
	.loc 1 1310 13 is_stmt 0
	li	a5,1073770496
	lw	a5,120(a5)
.LVL361:
	.loc 1 1311 9 is_stmt 1
.LBB40:
.LBB41:
	.loc 1 924 5
	.loc 1 926 5
	.loc 1 927 5
	.loc 1 930 9
	.loc 1 933 5
.LBE41:
.LBE40:
	.loc 1 1312 19 is_stmt 0
	li	a4,1
.LBB43:
.LBB42:
	.loc 1 926 8
	srli	a5,a5,15
.LVL362:
	.loc 1 933 7
	seqz	a5,a5
.LVL363:
.LBE42:
.LBE43:
	.loc 1 1312 9 is_stmt 1
.L294:
	.loc 1 1327 5
	.loc 1 1327 23 is_stmt 0
	li	a0,0
	beq	a5,zero,.L296
	.loc 1 1327 23 discriminator 1
	mv	a0,a4
.LVL364:
.L296:
	.loc 1 1328 1 discriminator 6
	lw	ra,28(sp)
	.cfi_remember_state
	.cfi_restore 1
	lw	s0,24(sp)
	.cfi_restore 8
	andi	a0,a0,0xff
	addi	sp,sp,32
	.cfi_def_cfa_offset 0
	jr	ra
.LVL365:
.L293:
	.cfi_restore_state
	.loc 1 1313 11 is_stmt 1
	.loc 1 1313 13 is_stmt 0
	li	a5,1
	bne	s0,a5,.L295
	.loc 1 1314 9 is_stmt 1
	.loc 1 1314 13 is_stmt 0
	li	a4,1073770496
	lw	a5,116(a4)
.LVL366:
	.loc 1 1315 9 is_stmt 1
.LBB44:
.LBB45:
	.loc 1 924 5
	.loc 1 926 5
	.loc 1 927 5
	.loc 1 930 9
	.loc 1 933 5
.LBE45:
.LBE44:
	.loc 1 1317 13 is_stmt 0
	lw	a4,12(a4)
.LVL367:
.LBB47:
.LBB46:
	.loc 1 933 12
	slli	a5,a5,16
	srli	a5,a5,16
	.loc 1 933 7
	seqz	a5,a5
.LVL368:
.LBE46:
.LBE47:
	.loc 1 1317 9 is_stmt 1
	.loc 1 1318 9
	.loc 1 924 5
	.loc 1 926 5
	.loc 1 927 5
	.loc 1 930 9
	.loc 1 933 5
.L304:
	not	a4,a4
	andi	a4,a4,1
.LVL369:
	j	.L294
.LVL370:
.L295:
	.loc 1 1319 11
	.loc 1 1319 13 is_stmt 0
	li	a5,2
	.loc 1 1327 23
	li	a0,0
	.loc 1 1319 13
	bne	s0,a5,.L296
	.loc 1 1320 9 is_stmt 1
	.loc 1 1320 13 is_stmt 0
	li	a4,1073770496
	lw	a5,116(a4)
.LVL371:
	.loc 1 1321 9 is_stmt 1
.LBB48:
.LBB49:
	.loc 1 924 5
	.loc 1 926 5
	.loc 1 927 5
	.loc 1 930 9
	.loc 1 933 5
.LBE49:
.LBE48:
	.loc 1 1323 13 is_stmt 0
	lw	a4,12(a4)
.LVL372:
.LBB51:
.LBB50:
	.loc 1 926 8
	srli	a5,a5,16
	.loc 1 933 7
	seqz	a5,a5
.LVL373:
.LBE50:
.LBE51:
	.loc 1 1323 9 is_stmt 1
	.loc 1 1324 9
.LBB52:
.LBB53:
	.loc 1 924 5
	.loc 1 926 5
	.loc 1 927 5
	.loc 1 930 9
	.loc 1 933 5
	.loc 1 926 8 is_stmt 0
	srli	a4,a4,1
.LVL374:
	j	.L304
.LBE53:
.LBE52:
	.cfi_endproc
.LFE46:
	.size	EF_Ctrl_Is_PowerOffset_Slot_Empty, .-EF_Ctrl_Is_PowerOffset_Slot_Empty
	.globl	__lshrdi3
	.section	.text.EF_Ctrl_Read_PowerOffset_Opt,"ax",@progbits
	.align	1
	.globl	EF_Ctrl_Read_PowerOffset_Opt
	.type	EF_Ctrl_Read_PowerOffset_Opt, @function
EF_Ctrl_Read_PowerOffset_Opt:
.LFB48:
	.loc 1 1410 1 is_stmt 1
	.cfi_startproc
.LVL375:
	.loc 1 1411 5
	.loc 1 1413 5
	.loc 1 1414 5
	.loc 1 1417 5
	.loc 1 1410 1 is_stmt 0
	addi	sp,sp,-48
	.cfi_def_cfa_offset 48
	sw	s0,40(sp)
	sw	s2,32(sp)
	sw	a2,12(sp)
	sw	ra,44(sp)
	sw	s1,36(sp)
	sw	s3,28(sp)
	sw	s4,24(sp)
	.cfi_offset 8, -8
	.cfi_offset 18, -16
	.cfi_offset 1, -4
	.cfi_offset 9, -12
	.cfi_offset 19, -20
	.cfi_offset 20, -24
	.loc 1 1410 1
	mv	s0,a0
	mv	s2,a1
	.loc 1 1417 5
	call	EF_Ctrl_Sw_AHB_Clk_0
.LVL376:
	.loc 1 1419 5 is_stmt 1
	.loc 1 1419 7 is_stmt 0
	lw	a2,12(sp)
	beq	a2,zero,.L306
	.loc 1 1420 9 is_stmt 1
	call	EF_Ctrl_Load_Efuse_R0
.LVL377:
.L306:
	.loc 1 1423 5
	.loc 1 1423 7 is_stmt 0
	bne	s0,zero,.L307
	.loc 1 1424 9 is_stmt 1
	.loc 1 1424 12 is_stmt 0
	li	a5,1073770496
	lw	s0,120(a5)
.LVL378:
	.loc 1 1425 9 is_stmt 1
	.loc 1 1425 16 is_stmt 0
	srli	a5,s0,15
	.loc 1 1426 23
	slli	s1,s0,1
	.loc 1 1425 11
	andi	a5,a5,1
.LVL379:
	.loc 1 1426 9 is_stmt 1
	.loc 1 1426 23 is_stmt 0
	srli	s1,s1,17
.LVL380:
	.loc 1 1427 9 is_stmt 1
	.loc 1 1427 15 is_stmt 0
	srli	s0,s0,31
.LVL381:
.L308:
	.loc 1 1444 5 is_stmt 1
	.loc 1 1444 7 is_stmt 0
	beq	a5,zero,.L312
	.loc 1 1445 9 is_stmt 1
	.loc 1 1445 20 is_stmt 0
	li	a1,15
	mv	a0,s1
	call	EF_Ctrl_Get_Trim_Parity
.LVL382:
	.loc 1 1445 11
	bne	a0,s0,.L312
	.loc 1 1446 18
	li	s0,0
.LVL383:
	.loc 1 1447 36
	li	s4,5
	.loc 1 1446 13
	li	s3,3
.L315:
.LVL384:
	.loc 1 1447 17 is_stmt 1
	.loc 1 1447 36 is_stmt 0
	mul	a2,s0,s4
	mv	a0,s1
	li	a1,0
	call	__lshrdi3
.LVL385:
	.loc 1 1447 20
	andi	a5,a0,31
.LVL386:
	.loc 1 1448 17 is_stmt 1
	.loc 1 1448 19 is_stmt 0
	andi	a0,a0,16
	add	a4,s2,s0
	beq	a0,zero,.L313
	.loc 1 1449 21 is_stmt 1
	.loc 1 1449 37 is_stmt 0
	addi	a5,a5,-32
.LVL387:
.L313:
	.loc 1 1451 21 is_stmt 1
	.loc 1 1451 33 is_stmt 0
	sb	a5,0(a4)
	.loc 1 1446 26
	addi	s0,s0,1
.LVL388:
	.loc 1 1446 13
	bne	s0,s3,.L315
	.loc 1 1454 20
	li	a0,0
	j	.L311
.LVL389:
.L307:
	.loc 1 1428 11 is_stmt 1
	.loc 1 1428 13 is_stmt 0
	li	a5,1
	bne	s0,a5,.L309
	.loc 1 1429 9 is_stmt 1
	.loc 1 1429 12 is_stmt 0
	li	a5,1073770496
	lw	s0,116(a5)
.LVL390:
	.loc 1 1430 9 is_stmt 1
	.loc 1 1433 12 is_stmt 0
	lw	a5,12(a5)
.LVL391:
	.loc 1 1430 23
	slli	s1,s0,17
	.loc 1 1431 20
	srli	s0,s0,15
	.loc 1 1430 23
	srli	s1,s1,17
.LVL392:
	.loc 1 1431 9 is_stmt 1
	.loc 1 1431 15 is_stmt 0
	andi	s0,s0,1
.LVL393:
	.loc 1 1433 9 is_stmt 1
	.loc 1 1434 9
.L324:
	.loc 1 1441 11 is_stmt 0
	andi	a5,a5,1
.LVL394:
	j	.L308
.LVL395:
.L309:
	.loc 1 1435 11 is_stmt 1
	.loc 1 1435 13 is_stmt 0
	li	a5,2
	beq	s0,a5,.L310
.LVL396:
.L312:
	.loc 1 1457 12
	li	a0,1
.L311:
	.loc 1 1458 1
	lw	ra,44(sp)
	.cfi_remember_state
	.cfi_restore 1
	lw	s0,40(sp)
	.cfi_restore 8
	lw	s1,36(sp)
	.cfi_restore 9
	lw	s2,32(sp)
	.cfi_restore 18
.LVL397:
	lw	s3,28(sp)
	.cfi_restore 19
	lw	s4,24(sp)
	.cfi_restore 20
	addi	sp,sp,48
	.cfi_def_cfa_offset 0
	jr	ra
.LVL398:
.L310:
	.cfi_restore_state
	.loc 1 1436 9 is_stmt 1
	.loc 1 1436 12 is_stmt 0
	li	a5,1073770496
	lw	s0,116(a5)
.LVL399:
	.loc 1 1437 9 is_stmt 1
	.loc 1 1440 12 is_stmt 0
	lw	a5,12(a5)
.LVL400:
	.loc 1 1437 23
	slli	s1,s0,1
	srli	s1,s1,17
.LVL401:
	.loc 1 1438 9 is_stmt 1
	.loc 1 1438 15 is_stmt 0
	srli	s0,s0,31
.LVL402:
	.loc 1 1440 9 is_stmt 1
	.loc 1 1441 9
	.loc 1 1441 16 is_stmt 0
	srli	a5,a5,1
.LVL403:
	j	.L324
	.cfi_endproc
.LFE48:
	.size	EF_Ctrl_Read_PowerOffset_Opt, .-EF_Ctrl_Read_PowerOffset_Opt
	.section	.text.EF_Ctrl_Read_AES_Key,"ax",@progbits
	.align	1
	.globl	EF_Ctrl_Read_AES_Key
	.type	EF_Ctrl_Read_AES_Key, @function
EF_Ctrl_Read_AES_Key:
.LFB50:
	.loc 1 1500 1 is_stmt 1
	.cfi_startproc
.LVL404:
	.loc 1 1501 5
	.loc 1 1503 5
	.loc 1 1503 7 is_stmt 0
	li	a4,5
	bgtu	a0,a4,.L325
	.loc 1 1500 1
	addi	sp,sp,-32
	.cfi_def_cfa_offset 32
	sw	s0,24(sp)
	sw	ra,28(sp)
	.cfi_offset 8, -8
	.cfi_offset 1, -4
	mv	s0,a0
	sw	a2,12(sp)
	sw	a1,8(sp)
	.loc 1 1507 5 is_stmt 1
	call	EF_Ctrl_Load_Efuse_R0
.LVL405:
	.loc 1 1510 5
	li	a1,1073770496
	.loc 1 1510 40 is_stmt 0
	slli	s0,s0,4
	.loc 1 1510 5
	addi	a1,a1,28
	add	a1,s0,a1
	.loc 1 1511 1
	lw	s0,24(sp)
	.cfi_restore 8
	.loc 1 1510 5
	lw	a2,12(sp)
	lw	a0,8(sp)
	.loc 1 1511 1
	lw	ra,28(sp)
	.cfi_restore 1
	addi	sp,sp,32
	.cfi_def_cfa_offset 0
.LVL406:
	.loc 1 1510 5
	tail	BL602_MemCpy4
.LVL407:
.L325:
	ret
	.cfi_endproc
.LFE50:
	.size	EF_Ctrl_Read_AES_Key, .-EF_Ctrl_Read_AES_Key
	.section	.text.EF_Ctrl_Read_Direct_R0,"ax",@progbits
	.align	1
	.globl	EF_Ctrl_Read_Direct_R0
	.type	EF_Ctrl_Read_Direct_R0, @function
EF_Ctrl_Read_Direct_R0:
.LFB54:
	.loc 1 1610 1 is_stmt 1
	.cfi_startproc
.LVL408:
	.loc 1 1611 5
	.loc 1 1613 5
	.loc 1 1610 1 is_stmt 0
	addi	sp,sp,-32
	.cfi_def_cfa_offset 32
	sw	s0,24(sp)
	sw	ra,28(sp)
	.cfi_offset 8, -8
	.cfi_offset 1, -4
	.loc 1 1610 1
	mv	s0,a0
	sw	a1,12(sp)
	sw	a2,8(sp)
	.loc 1 1613 5
	call	EF_Ctrl_Load_Efuse_R0
.LVL409:
	.loc 1 1615 5 is_stmt 1
	.loc 1 1615 36 is_stmt 0
	slli	s0,s0,2
.LVL410:
	.loc 1 1615 5
	li	a1,1073770496
	add	a1,a1,s0
	.loc 1 1616 1
	lw	s0,24(sp)
	.cfi_restore 8
	.loc 1 1615 5
	lw	a2,8(sp)
	lw	a0,12(sp)
	.loc 1 1616 1
	lw	ra,28(sp)
	.cfi_restore 1
	addi	sp,sp,32
	.cfi_def_cfa_offset 0
.LVL411:
	.loc 1 1615 5
	tail	BL602_MemCpy4
.LVL412:
	.cfi_endproc
.LFE54:
	.size	EF_Ctrl_Read_Direct_R0, .-EF_Ctrl_Read_Direct_R0
	.section	.text.EF_Ctrl_Crc_Enable,"ax",@progbits
	.align	1
	.globl	EF_Ctrl_Crc_Enable
	.type	EF_Ctrl_Crc_Enable, @function
EF_Ctrl_Crc_Enable:
.LFB58:
	.loc 1 1693 1 is_stmt 1
	.cfi_startproc
	.loc 1 1694 5
	.loc 1 1696 5
	.loc 1 1696 11 is_stmt 0
	li	a4,1073774592
	lw	a5,-1536(a4)
.LVL413:
	.loc 1 1697 5 is_stmt 1
	.loc 1 1698 5
	.loc 1 1699 5
	.loc 1 1700 5
	.loc 1 1701 5
	.loc 1 1702 5
	.loc 1 1703 5
	andi	a5,a5,-1737
.LVL414:
	.loc 1 1703 11 is_stmt 0
	ori	a5,a5,34
.LVL415:
	.loc 1 1704 5 is_stmt 1
	.loc 1 1704 61 is_stmt 0
	sw	a5,-1536(a4)
	.loc 1 1706 5 is_stmt 1
	.loc 1 1706 11 is_stmt 0
	lw	a5,-1536(a4)
.LVL416:
	.loc 1 1707 5 is_stmt 1
	.loc 1 1707 11 is_stmt 0
	ori	a5,a5,4
.LVL417:
	.loc 1 1708 5 is_stmt 1
	.loc 1 1708 61 is_stmt 0
	sw	a5,-1536(a4)
	.loc 1 1709 1
	ret
	.cfi_endproc
.LFE58:
	.size	EF_Ctrl_Crc_Enable, .-EF_Ctrl_Crc_Enable
	.section	.text.EF_Ctrl_Crc_Is_Busy,"ax",@progbits
	.align	1
	.globl	EF_Ctrl_Crc_Is_Busy
	.type	EF_Ctrl_Crc_Is_Busy, @function
EF_Ctrl_Crc_Is_Busy:
.LFB59:
	.loc 1 1720 1 is_stmt 1
	.cfi_startproc
	.loc 1 1721 5
	.loc 1 1723 5
	.loc 1 1723 11 is_stmt 0
	li	a5,1073774592
	lw	a0,-1536(a5)
.LVL418:
	.loc 1 1724 5 is_stmt 1
	.loc 1 1725 1 is_stmt 0
	andi	a0,a0,1
.LVL419:
	ret
	.cfi_endproc
.LFE59:
	.size	EF_Ctrl_Crc_Is_Busy, .-EF_Ctrl_Crc_Is_Busy
	.section	.text.EF_Ctrl_Crc_Set_Golden,"ax",@progbits
	.align	1
	.globl	EF_Ctrl_Crc_Set_Golden
	.type	EF_Ctrl_Crc_Set_Golden, @function
EF_Ctrl_Crc_Set_Golden:
.LFB60:
	.loc 1 1736 1 is_stmt 1
	.cfi_startproc
.LVL420:
	.loc 1 1737 5
	.loc 1 1737 61 is_stmt 0
	li	a5,1073774592
	sw	a0,-1520(a5)
	.loc 1 1738 1
	ret
	.cfi_endproc
.LFE60:
	.size	EF_Ctrl_Crc_Set_Golden, .-EF_Ctrl_Crc_Set_Golden
	.section	.text.EF_Ctrl_Crc_Result,"ax",@progbits
	.align	1
	.globl	EF_Ctrl_Crc_Result
	.type	EF_Ctrl_Crc_Result, @function
EF_Ctrl_Crc_Result:
.LFB61:
	.loc 1 1749 1 is_stmt 1
	.cfi_startproc
	.loc 1 1750 5
	.loc 1 1752 5
	.loc 1 1752 11 is_stmt 0
	li	a5,1073774592
	lw	a0,-1536(a5)
.LVL421:
	.loc 1 1753 5 is_stmt 1
	.loc 1 1753 12 is_stmt 0
	srli	a0,a0,4
.LVL422:
	.loc 1 1754 1
	andi	a0,a0,1
	ret
	.cfi_endproc
.LFE61:
	.size	EF_Ctrl_Crc_Result, .-EF_Ctrl_Crc_Result
	.text
.Letext0:
	.file 2 "/b-l/bl_iot_sdk_new/toolchain/riscv/Linux/lib/gcc/riscv64-unknown-elf/8.3.0/include/stddef.h"
	.file 3 "/b-l/bl_iot_sdk_new/toolchain/riscv/Linux/riscv64-unknown-elf/include/sys/_types.h"
	.file 4 "/b-l/bl_iot_sdk_new/toolchain/riscv/Linux/riscv64-unknown-elf/include/sys/reent.h"
	.file 5 "/b-l/bl_iot_sdk_new/toolchain/riscv/Linux/riscv64-unknown-elf/include/sys/lock.h"
	.file 6 "/b-l/bl_iot_sdk_new/toolchain/riscv/Linux/lib/gcc/riscv64-unknown-elf/8.3.0/include/stdint-gcc.h"
	.file 7 "/b-l/bl_iot_sdk_new/components/bl602/bl602_std/bl602_std/RISCV/Device/Bouffalo/BL602/Startup/system_bl602.h"
	.file 8 "/b-l/bl_iot_sdk_new/components/bl602/bl602_std/bl602_std/StdDriver/Inc/bl602_common.h"
	.file 9 "/b-l/bl_iot_sdk_new/components/bl602/bl602_std/bl602_std/StdDriver/Inc/bl602_ef_ctrl.h"