	.file	"cli.c"
	.option nopic
	.attribute arch, "rv32i2p0_m2p0_f2p0_c2p0"
	.attribute unaligned_access, 0
	.attribute stack_align, 16
	.text
.Ltext0:
	.cfi_sections	.debug_frame
	.section	.text.cli_command_get,"ax",@progbits
	.align	1
	.type	cli_command_get, @function
cli_command_get:
.LFB5:
	.file 1 "/home/hogc/build-tools/sdk/bl/bl_iot_sdk/components/stage/cli/cli/cli.c"
	.loc 1 87 1
	.cfi_startproc
.LVL0:
	.loc 1 88 5
	.loc 1 89 16 is_stmt 0
	li	a5,-1
	.loc 1 88 8
	blt	a0,zero,.L1
	.loc 1 88 32 discriminator 1
	lui	a5,%hi(.LANCHOR0)
	lw	a4,%lo(.LANCHOR0)(a5)
	.loc 1 89 16 discriminator 1
	li	a5,-1
	.loc 1 88 32 discriminator 1
	lw	a3,44(a4)
	.loc 1 88 50 discriminator 1
	addi	a2,a3,8
	.loc 1 88 9 discriminator 1
	bleu	a2,a0,.L1
	.loc 1 91 5 is_stmt 1
	.loc 1 91 8 is_stmt 0
	bleu	a3,a0,.L3
	.loc 1 92 9 is_stmt 1
	.loc 1 92 12 is_stmt 0
	beq	a1,zero,.L4
	.loc 1 93 13 is_stmt 1
	.loc 1 93 28 is_stmt 0
	li	a5,1
	sw	a5,0(a1)
.L4:
	.loc 1 95 9 is_stmt 1
	.loc 1 95 33 is_stmt 0
	li	a5,12
	mul	a0,a0,a5
.LVL1:
	.loc 1 95 16
	lw	a5,8(a4)
	add	a5,a5,a0
.L1:
	.loc 1 101 1
	mv	a0,a5
	ret
.LVL2:
.L3:
	.loc 1 97 5 is_stmt 1
	.loc 1 97 8 is_stmt 0
	beq	a1,zero,.L5
	.loc 1 98 9 is_stmt 1
	.loc 1 98 24 is_stmt 0
	sw	zero,0(a1)
.L5:
	.loc 1 100 5 is_stmt 1
	.loc 1 100 34 is_stmt 0
	lw	a5,44(a4)
	sub	a0,a0,a5
.LVL3:
	.loc 1 100 29
	slli	a0,a0,2
	add	a0,a4,a0
	lw	a5,12(a0)
	j	.L1
	.cfi_endproc
.LFE5:
	.size	cli_command_get, .-cli_command_get
	.section	.text.exit_cmd,"ax",@progbits
	.align	1
	.type	exit_cmd, @function
exit_cmd:
.LFB19:
	.loc 1 781 1 is_stmt 1
	.cfi_startproc
.LVL4:
	.loc 1 782 5
	.loc 1 782 13 is_stmt 0
	lui	a5,%hi(.LANCHOR1)
	li	a4,1
	sw	a4,%lo(.LANCHOR1)(a5)
	.loc 1 783 5 is_stmt 1
	.loc 1 784 1 is_stmt 0
	ret
	.cfi_endproc
.LFE19:
	.size	exit_cmd, .-exit_cmd
	.section	.text.cb_idnoe,"ax",@progbits
	.align	1
	.type	cb_idnoe, @function
cb_idnoe:
.LFB30:
	.loc 1 1004 1 is_stmt 1
	.cfi_startproc
.LVL5:
	.loc 1 1005 5
	.loc 1 1007 5
	.loc 1 1004 1 is_stmt 0
	addi	sp,sp,-32
	.cfi_def_cfa_offset 32
	sw	ra,28(sp)
	.cfi_offset 1, -4
	.loc 1 1007 8
	lw	a5,0(a0)
	bne	a5,zero,.L16
	.loc 1 1008 16
	li	a5,1
	sw	a5,0(a0)
	.loc 1 1009 9
	lui	a0,%hi(.LC4)
.LVL6:
	addi	a0,a0,%lo(.LC4)
	sw	a1,12(sp)
	.loc 1 1008 9 is_stmt 1
	.loc 1 1009 9
	call	printf
.LVL7:
	.loc 1 1010 9
	lui	a0,%hi(.LC5)
	addi	a0,a0,%lo(.LC5)
	call	printf
.LVL8:
	lw	a1,12(sp)
.LVL9:
.L16:
	.loc 1 1012 5
	.loc 1 1013 20 is_stmt 0
	lbu	a5,16(a1)
	.loc 1 1012 5
	li	a2,1
	li	a4,28
	addi	a3,a5,-1
	andi	a3,a3,0xff
	bleu	a3,a2,.L17
	.loc 1 1013 208 discriminator 1
	li	a3,3
	li	a4,80
	beq	a5,a3,.L17
	.loc 1 1013 208
	li	a4,0
.L17:
	.loc 1 1012 5 discriminator 3
	li	a3,1
	lw	a2,8(a1)
	beq	a5,a3,.L21
	.loc 1 1015 126
	li	a3,2
	beq	a5,a3,.L22
	.loc 1 1015 181 discriminator 1
	li	a3,3
	beq	a5,a3,.L23
	.loc 1 1015 181
	lui	a3,%hi(.LC3)
	addi	a3,a3,%lo(.LC3)
.L18:
	.loc 1 1012 5 discriminator 6
	lui	a0,%hi(.LC6)
	mv	a1,a4
	addi	a0,a0,%lo(.LC6)
	call	printf
.LVL10:
	.loc 1 1017 5 is_stmt 1 discriminator 6
	.loc 1 1018 1 is_stmt 0 discriminator 6
	lw	ra,28(sp)
	.cfi_remember_state
	.cfi_restore 1
	li	a0,0
	addi	sp,sp,32
	.cfi_def_cfa_offset 0
	jr	ra
.L21:
	.cfi_restore_state
	.loc 1 1012 5
	lui	a3,%hi(.LC1)
	addi	a3,a3,%lo(.LC1)
	j	.L18
.L22:
	.loc 1 1015 126
	lui	a3,%hi(.LC2)
	addi	a3,a3,%lo(.LC2)
	j	.L18
.L23:
	.loc 1 1015 181
	lui	a3,%hi(.LC0)
	addi	a3,a3,%lo(.LC0)
	j	.L18
	.cfi_endproc
.LFE30:
	.size	cb_idnoe, .-cb_idnoe
	.section	.text.console_cb_write,"ax",@progbits
	.align	1
	.type	console_cb_write, @function
console_cb_write:
.LFB42:
	.loc 1 1340 1 is_stmt 1
	.cfi_startproc
.LVL11:
	.loc 1 1341 5
	lui	a0,%hi(.LC7)
.LVL12:
	addi	a0,a0,%lo(.LC7)
	tail	printf
.LVL13:
	.cfi_endproc
.LFE42:
	.size	console_cb_write, .-console_cb_write
	.section	.text.ota_cmd,"ax",@progbits
	.align	1
	.type	ota_cmd, @function
ota_cmd:
.LFB28:
	.loc 1 966 1
	.cfi_startproc
.LVL14:
	.loc 1 967 5
	lui	a1,%hi(tftp_ota_thread)
.LVL15:
	lui	a0,%hi(.LC8)
.LVL16:
	li	a3,4096
.LVL17:
	li	a2,0
.LVL18:
	addi	a1,a1,%lo(tftp_ota_thread)
	addi	a0,a0,%lo(.LC8)
	tail	aos_task_new
.LVL19:
	.cfi_endproc
.LFE28:
	.size	ota_cmd, .-ota_cmd
	.section	.text.tftp_ota_thread,"ax",@progbits
	.align	1
	.globl	tftp_ota_thread
	.type	tftp_ota_thread, @function
tftp_ota_thread:
.LFB27:
	.loc 1 961 1
	.cfi_startproc
.LVL20:
	.loc 1 962 5
	li	a0,0
.LVL21:
	tail	aos_task_exit
.LVL22:
	.cfi_endproc
.LFE27:
	.size	tftp_ota_thread, .-tftp_ota_thread
	.section	.text.cat_cmd,"ax",@progbits
	.align	1
	.type	cat_cmd, @function
cat_cmd:
.LFB33:
	.loc 1 1130 1
	.cfi_startproc
.LVL23:
	.loc 1 1131 5
	.loc 1 1132 5
	.loc 1 1134 5
	.loc 1 1130 1 is_stmt 0
	addi	sp,sp,-32
	.cfi_def_cfa_offset 32
	sw	s1,20(sp)
	sw	ra,28(sp)
	sw	s0,24(sp)
	.cfi_offset 9, -12
	.cfi_offset 1, -4
	.cfi_offset 8, -8
	.loc 1 1134 8
	li	a5,2
	.loc 1 1130 1
	mv	s1,a3
	.loc 1 1134 8
	beq	a2,a5,.L29
	.loc 1 1135 9 is_stmt 1
	lui	a0,%hi(.LC9)
.LVL24:
	addi	a0,a0,%lo(.LC9)
	call	printf
.LVL25:
.L29:
	.loc 1 1138 5
	.loc 1 1138 10 is_stmt 0
	lw	a0,4(s1)
	li	a1,0
	call	aos_open
.LVL26:
	mv	s0,a0
.LVL27:
	.loc 1 1139 5 is_stmt 1
	.loc 1 1139 8 is_stmt 0
	blt	a0,zero,.L34
	.loc 1 1148 9
	lui	s1,%hi(.LC11)
.LVL28:
.L30:
	.loc 1 1144 5 is_stmt 1
	.loc 1 1145 9
	.loc 1 1145 17 is_stmt 0
	li	a2,1
	addi	a1,sp,15
	mv	a0,s0
	call	aos_read
.LVL29:
	.loc 1 1145 11
	li	a5,1
	bne	a0,a5,.L32
	.loc 1 1148 9 is_stmt 1
	lbu	a1,15(sp)
	addi	a0,s1,%lo(.LC11)
	call	printf
.LVL30:
	.loc 1 1145 11 is_stmt 0
	j	.L30
.LVL31:
.L34:
.LBB5:
.LBB6:
	.loc 1 1140 9 is_stmt 1
	lw	a1,4(s1)
	lui	a0,%hi(.LC10)
	addi	a0,a0,%lo(.LC10)
	call	printf
.LVL32:
	.loc 1 1141 9
.L28:
.LBE6:
.LBE5:
	.loc 1 1152 1 is_stmt 0
	lw	ra,28(sp)
	.cfi_remember_state
	.cfi_restore 1
	lw	s0,24(sp)
	.cfi_restore 8
.LVL33:
	lw	s1,20(sp)
	.cfi_restore 9
	addi	sp,sp,32
	.cfi_def_cfa_offset 0
	jr	ra
.LVL34:
.L32:
	.cfi_restore_state
	.loc 1 1150 5 is_stmt 1
	lui	a0,%hi(.LC12)
	addi	a0,a0,%lo(.LC12)
	call	printf
.LVL35:
	.loc 1 1151 5
	mv	a0,s0
	call	aos_close
.LVL36:
	j	.L28
	.cfi_endproc
.LFE33:
	.size	cat_cmd, .-cat_cmd
	.section	.text.hexdump_cmd,"ax",@progbits
	.align	1
	.type	hexdump_cmd, @function
hexdump_cmd:
.LFB32:
	.loc 1 1104 1
	.cfi_startproc
.LVL37:
	.loc 1 1105 5
	.loc 1 1106 5
	.loc 1 1108 5
	.loc 1 1104 1 is_stmt 0
	addi	sp,sp,-32
	.cfi_def_cfa_offset 32
	sw	s1,20(sp)
	sw	ra,28(sp)
	sw	s0,24(sp)
	.cfi_offset 9, -12
	.cfi_offset 1, -4
	.cfi_offset 8, -8
	.loc 1 1108 8
	li	a5,2
	.loc 1 1104 1
	mv	s1,a3
	.loc 1 1108 8
	beq	a2,a5,.L37
	.loc 1 1109 9 is_stmt 1
	lui	a0,%hi(.LC9)
.LVL38:
	addi	a0,a0,%lo(.LC9)
	call	printf
.LVL39:
.L37:
	.loc 1 1112 5
	.loc 1 1112 10 is_stmt 0
	lw	a0,4(s1)
	li	a1,0
	call	aos_open
.LVL40:
	mv	s0,a0
.LVL41:
	.loc 1 1113 5 is_stmt 1
	.loc 1 1113 8 is_stmt 0
	bge	a0,zero,.L38
.LVL42:
.LBB9:
.LBB10:
	.loc 1 1114 9 is_stmt 1
	lw	a1,4(s1)
	lui	a0,%hi(.LC10)
	addi	a0,a0,%lo(.LC10)
	call	printf
.LVL43:
	.loc 1 1115 9
.L36:
.LBE10:
.LBE9:
	.loc 1 1127 1 is_stmt 0
	lw	ra,28(sp)
	.cfi_remember_state
	.cfi_restore 1
	lw	s0,24(sp)
	.cfi_restore 8
.LVL44:
	lw	s1,20(sp)
	.cfi_restore 9
.LVL45:
	addi	sp,sp,32
	.cfi_def_cfa_offset 0
	jr	ra
.LVL46:
.L38:
	.cfi_restore_state
	.loc 1 1118 5 is_stmt 1
	li	a2,8
	li	a1,0
	addi	a0,sp,8
	call	memset
.LVL47:
	.loc 1 1119 5
	addi	a2,sp,8
	li	a1,1
	mv	a0,s0
	call	aos_ioctl
.LVL48:
	.loc 1 1120 5
	lw	a3,12(sp)
	lw	a2,8(sp)
	lw	a1,4(s1)
	lui	a0,%hi(.LC13)
	addi	a0,a0,%lo(.LC13)
	call	printf
.LVL49:
	.loc 1 1125 5
	lw	a0,8(sp)
	lw	a1,12(sp)
	call	utils_hexdump
.LVL50:
	.loc 1 1126 5
	mv	a0,s0
	call	aos_close
.LVL51:
	j	.L36
	.cfi_endproc
.LFE32:
	.size	hexdump_cmd, .-hexdump_cmd
	.section	.text.aos_cli_register_command,"ax",@progbits
	.align	1
	.globl	aos_cli_register_command
	.type	aos_cli_register_command, @function
aos_cli_register_command:
.LFB34:
	.loc 1 1156 1
	.cfi_startproc
.LVL52:
	.loc 1 1157 5
	.loc 1 1159 5
	.loc 1 1156 1 is_stmt 0
	addi	sp,sp,-16
	.cfi_def_cfa_offset 16
	.loc 1 1159 9
	lui	a5,%hi(.LANCHOR0)
	.loc 1 1156 1
	sw	s0,8(sp)
	.cfi_offset 8, -8
	.loc 1 1159 9
	lw	s0,%lo(.LANCHOR0)(a5)
	.loc 1 1156 1
	sw	ra,12(sp)
	sw	s1,4(sp)
	sw	s2,0(sp)
	.cfi_offset 1, -4
	.cfi_offset 9, -12
	.cfi_offset 18, -16
	.loc 1 1160 15
	li	a5,1
	.loc 1 1159 8
	beq	s0,zero,.L41
	.loc 1 1163 5 is_stmt 1
	.loc 1 1163 8 is_stmt 0
	lw	a4,0(a0)
	.loc 1 1164 15
	li	a5,22
	.loc 1 1163 8
	beq	a4,zero,.L41
	.loc 1 1163 20 discriminator 1
	lw	a4,8(a0)
	beq	a4,zero,.L41
	.loc 1 1167 5 is_stmt 1
	.loc 1 1167 51 is_stmt 0
	lw	a4,44(s0)
	.loc 1 1167 8
	lw	a3,48(s0)
	.loc 1 1168 15
	li	a5,12
	.loc 1 1167 51
	addi	a4,a4,8
	.loc 1 1167 8
	bgeu	a3,a4,.L41
	mv	s1,a0
.LBB13:
.LBB14:
	.loc 1 1174 12
	li	s2,0
.LVL53:
.L43:
	.loc 1 1174 24
	lw	a5,48(s0)
	.loc 1 1174 5
	bgtu	a5,s2,.L44
	.loc 1 1193 5 is_stmt 1
	.loc 1 1193 40 is_stmt 0
	addi	a4,a5,1
	sw	a4,48(s0)
	.loc 1 1193 43
	lw	a4,44(s0)
	sub	a5,a5,a4
	.loc 1 1193 67
	slli	a5,a5,2
	add	s0,s0,a5
	sw	s1,12(s0)
	.loc 1 1195 5 is_stmt 1
.L49:
	.loc 1 1175 12 is_stmt 0
	li	a5,0
.LVL54:
.L41:
.LBE14:
.LBE13:
	.loc 1 1196 1
	lw	ra,12(sp)
	.cfi_remember_state
	.cfi_restore 1
	lw	s0,8(sp)
	.cfi_restore 8
	lw	s1,4(sp)
	.cfi_restore 9
	lw	s2,0(sp)
	.cfi_restore 18
	mv	a0,a5
	addi	sp,sp,16
	.cfi_def_cfa_offset 0
	jr	ra
.LVL55:
.L44:
	.cfi_restore_state
.LBB16:
.LBB15:
	.loc 1 1175 9 is_stmt 1
	.loc 1 1175 13 is_stmt 0
	li	a1,0
	mv	a0,s2
	call	cli_command_get
.LVL56:
	.loc 1 1175 12
	beq	s1,a0,.L49
	.loc 1 1174 41
	addi	s2,s2,1
.LVL57:
	j	.L43
.LBE15:
.LBE16:
	.cfi_endproc
.LFE34:
	.size	aos_cli_register_command, .-aos_cli_register_command
	.section	.text.aos_cli_unregister_command,"ax",@progbits
	.align	1
	.globl	aos_cli_unregister_command
	.type	aos_cli_unregister_command, @function
aos_cli_unregister_command:
.LFB35:
	.loc 1 1199 1 is_stmt 1
	.cfi_startproc
.LVL58:
	.loc 1 1200 5
	.loc 1 1201 5
	.loc 1 1203 5
	.loc 1 1199 1 is_stmt 0
	addi	sp,sp,-48
	.cfi_def_cfa_offset 48
	sw	s1,36(sp)
	sw	ra,44(sp)
	sw	s0,40(sp)
	sw	s2,32(sp)
	sw	s3,28(sp)
	sw	s4,24(sp)
	.cfi_offset 9, -12
	.cfi_offset 1, -4
	.cfi_offset 8, -8
	.cfi_offset 18, -16
	.cfi_offset 19, -20
	.cfi_offset 20, -24
	.loc 1 1203 8
	lw	a5,0(a0)
	.loc 1 1204 15
	li	s1,22
	.loc 1 1203 8
	beq	a5,zero,.L51
	.loc 1 1203 20 discriminator 1
	lw	a5,8(a0)
	.loc 1 1204 15 discriminator 1
	li	s1,22
	.loc 1 1203 20 discriminator 1
	beq	a5,zero,.L51
	mv	s1,a0
.LBB20:
.LBB21:
	.loc 1 1207 12
	li	s0,0
	.loc 1 1207 24
	lui	s3,%hi(.LANCHOR0)
.LVL59:
.L53:
	lw	s2,%lo(.LANCHOR0)(s3)
	addi	s4,s3,%lo(.LANCHOR0)
	.loc 1 1207 5
	lw	a5,48(s2)
	bltu	s0,a5,.L57
	.loc 1 1226 12
	li	s1,-12
.LVL60:
	j	.L51
.LVL61:
.L57:
.LBB22:
	.loc 1 1208 9 is_stmt 1
	.loc 1 1209 39 is_stmt 0
	addi	a1,sp,12
	mv	a0,s0
	.loc 1 1208 13
	sw	zero,12(sp)
	.loc 1 1209 9 is_stmt 1
	.loc 1 1209 39 is_stmt 0
	call	cli_command_get
.LVL62:
	.loc 1 1210 9 is_stmt 1
	.loc 1 1210 12 is_stmt 0
	bne	s1,a0,.L54
	.loc 1 1212 13 is_stmt 1
	.loc 1 1212 17 is_stmt 0
	lw	s1,12(sp)
.LVL63:
	.loc 1 1212 16
	bne	s1,zero,.L60
	.loc 1 1215 13 is_stmt 1
	.loc 1 1215 30 is_stmt 0
	lw	a2,48(s2)
	addi	a2,a2,-1
	sw	a2,48(s2)
	.loc 1 1216 13 is_stmt 1
	.loc 1 1216 48 is_stmt 0
	sub	a2,a2,s0
.LVL64:
	.loc 1 1217 13 is_stmt 1
	.loc 1 1217 16 is_stmt 0
	ble	a2,zero,.L56
	.loc 1 1218 17 is_stmt 1
	.loc 1 1218 46 is_stmt 0
	lw	a0,44(s2)
.LVL65:
	.loc 1 1218 17
	slli	a2,a2,2
.LVL66:
	.loc 1 1218 46
	sub	a0,s0,a0
	addi	a0,a0,3
	slli	a0,a0,2
	.loc 1 1218 71
	addi	a1,a0,4
	.loc 1 1218 17
	add	a1,s2,a1
	add	a0,s2,a0
	call	memmove
.LVL67:
.L56:
	.loc 1 1221 13 is_stmt 1
	.loc 1 1221 16 is_stmt 0
	lw	a5,0(s4)
	.loc 1 1221 49
	lw	a4,48(a5)
	lw	a3,44(a5)
	sub	a4,a4,a3
	.loc 1 1221 73
	slli	a4,a4,2
	add	a5,a5,a4
	sw	zero,12(a5)
	.loc 1 1222 13 is_stmt 1
.LVL68:
.L51:
.LBE22:
.LBE21:
.LBE20:
	.loc 1 1227 1 is_stmt 0
	lw	ra,44(sp)
	.cfi_remember_state
	.cfi_restore 1
	lw	s0,40(sp)
	.cfi_restore 8
	mv	a0,s1
	lw	s2,32(sp)
	.cfi_restore 18
	lw	s1,36(sp)
	.cfi_restore 9
	lw	s3,28(sp)
	.cfi_restore 19
	lw	s4,24(sp)
	.cfi_restore 20
	addi	sp,sp,48
	.cfi_def_cfa_offset 0
	jr	ra
.LVL69:
.L54:
	.cfi_restore_state
.LBB25:
.LBB24:
	.loc 1 1207 41
	addi	s0,s0,1
.LVL70:
	j	.L53
.LVL71:
.L60:
.LBB23:
	.loc 1 1213 23
	li	s1,1
	j	.L51
.LBE23:
.LBE24:
.LBE25:
	.cfi_endproc
.LFE35:
	.size	aos_cli_unregister_command, .-aos_cli_unregister_command
	.section	.text.aos_cli_register_commands,"ax",@progbits
	.align	1
	.globl	aos_cli_register_commands
	.type	aos_cli_register_commands, @function
aos_cli_register_commands:
.LFB36:
	.loc 1 1230 1 is_stmt 1
	.cfi_startproc
.LVL72:
	.loc 1 1231 5
	.loc 1 1232 5
	.loc 1 1234 5
	.loc 1 1234 8 is_stmt 0
	lui	a5,%hi(.LANCHOR0)
	lw	a5,%lo(.LANCHOR0)(a5)
	beq	a5,zero,.L66
	.loc 1 1230 1
	addi	sp,sp,-32
	.cfi_def_cfa_offset 32
	sw	s0,24(sp)
	sw	s1,20(sp)
	sw	s2,16(sp)
	sw	s3,12(sp)
	sw	ra,28(sp)
	.cfi_offset 8, -8
	.cfi_offset 9, -12
	.cfi_offset 18, -16
	.cfi_offset 19, -20
	.cfi_offset 1, -4
	mv	s1,a1
	mv	s2,a0
	.loc 1 1237 12
	li	s0,0
	li	s3,12
.LVL73:
.L64:
	mul	a5,s0,s3
	add	a0,s2,a5
.LVL74:
	.loc 1 1237 5 discriminator 1
	blt	s0,s1,.L65
	.loc 1 1243 12
	li	a0,0
.LVL75:
.L62:
	.loc 1 1244 1
	lw	ra,28(sp)
	.cfi_remember_state
	.cfi_restore 1
	lw	s0,24(sp)
	.cfi_restore 8
.LVL76:
	lw	s1,20(sp)
	.cfi_restore 9
.LVL77:
	lw	s2,16(sp)
	.cfi_restore 18
	lw	s3,12(sp)
	.cfi_restore 19
	addi	sp,sp,32
	.cfi_def_cfa_offset 0
	jr	ra
.LVL78:
.L65:
	.cfi_restore_state
	.loc 1 1238 9 is_stmt 1
	.loc 1 1238 20 is_stmt 0
	call	aos_cli_register_command
.LVL79:
	.loc 1 1238 12
	bne	a0,zero,.L62
	.loc 1 1237 32 discriminator 2
	addi	s0,s0,1
.LVL80:
	j	.L64
.LVL81:
.L66:
	.cfi_def_cfa_offset 0
	.cfi_restore 1
	.cfi_restore 8
	.cfi_restore 9
	.cfi_restore 18
	.cfi_restore 19
	.loc 1 1235 15
	li	a0,1
.LVL82:
	.loc 1 1244 1
	ret
	.cfi_endproc
.LFE36:
	.size	aos_cli_register_commands, .-aos_cli_register_commands
	.section	.text.aos_cli_unregister_commands,"ax",@progbits
	.align	1
	.globl	aos_cli_unregister_commands
	.type	aos_cli_unregister_commands, @function
aos_cli_unregister_commands:
.LFB37:
	.loc 1 1247 1 is_stmt 1
	.cfi_startproc
.LVL83:
	.loc 1 1248 5
	.loc 1 1249 5
	.loc 1 1251 5
	.loc 1 1247 1 is_stmt 0
	addi	sp,sp,-32
	.cfi_def_cfa_offset 32
	sw	s0,24(sp)
	sw	s1,20(sp)
	sw	s2,16(sp)
	sw	ra,28(sp)
	.cfi_offset 8, -8
	.cfi_offset 9, -12
	.cfi_offset 18, -16
	.cfi_offset 1, -4
	.loc 1 1247 1
	mv	s1,a0
	.loc 1 1251 12
	li	s0,0
	li	s2,12
.LVL84:
.L72:
	mul	a0,s0,s2
	add	a0,s1,a0
.LVL85:
	.loc 1 1251 5 discriminator 1
	blt	s0,a1,.L74
	.loc 1 1257 12
	li	a0,0
.LVL86:
.L71:
	.loc 1 1258 1
	lw	ra,28(sp)
	.cfi_remember_state
	.cfi_restore 1
	lw	s0,24(sp)
	.cfi_restore 8
.LVL87:
	lw	s1,20(sp)
	.cfi_restore 9
	lw	s2,16(sp)
	.cfi_restore 18
	addi	sp,sp,32
	.cfi_def_cfa_offset 0
	jr	ra
.LVL88:
.L74:
	.cfi_restore_state
	sw	a1,12(sp)
	.loc 1 1252 9 is_stmt 1
.LVL89:
	.loc 1 1252 20 is_stmt 0
	call	aos_cli_unregister_command
.LVL90:
	.loc 1 1252 12
	bne	a0,zero,.L71
	.loc 1 1251 32 discriminator 2
	addi	s0,s0,1
.LVL91:
	lw	a1,12(sp)
.LVL92:
	j	.L72
	.cfi_endproc
.LFE37:
	.size	aos_cli_unregister_commands, .-aos_cli_unregister_commands
	.section	.text.aos_cli_stop,"ax",@progbits
	.align	1
	.globl	aos_cli_stop
	.type	aos_cli_stop, @function
aos_cli_stop:
.LFB38:
	.loc 1 1261 1 is_stmt 1
	.cfi_startproc
	.loc 1 1262 5
	.loc 1 1262 13 is_stmt 0
	lui	a5,%hi(.LANCHOR1)
	li	a4,1
	sw	a4,%lo(.LANCHOR1)(a5)
	.loc 1 1264 5 is_stmt 1
	.loc 1 1265 1 is_stmt 0
	li	a0,0
	ret
	.cfi_endproc
.LFE38:
	.size	aos_cli_stop, .-aos_cli_stop
	.section	.text.aos_cli_task_get,"ax",@progbits
	.align	1
	.globl	aos_cli_task_get
	.type	aos_cli_task_get, @function
aos_cli_task_get:
.LFB39:
	.loc 1 1269 1 is_stmt 1
	.cfi_startproc
	.loc 1 1270 5
	.loc 1 1271 1 is_stmt 0
	li	a0,0
	ret
	.cfi_endproc
.LFE39:
	.size	aos_cli_task_get, .-aos_cli_task_get
	.section	.text.aos_cli_init,"ax",@progbits
	.align	1
	.globl	aos_cli_init
	.type	aos_cli_init, @function
aos_cli_init:
.LFB40:
	.loc 1 1274 1 is_stmt 1
	.cfi_startproc
.LVL93:
	.loc 1 1275 5
	.loc 1 1280 5
	.loc 1 1274 1 is_stmt 0
	addi	sp,sp,-16
	.cfi_def_cfa_offset 16
	sw	s0,8(sp)
	.loc 1 1280 28
	li	a0,580
.LVL94:
	.cfi_offset 8, -8
	.loc 1 1280 9
	lui	s0,%hi(.LANCHOR0)
	.loc 1 1274 1
	sw	ra,12(sp)
	.cfi_offset 1, -4
	.loc 1 1280 9
	addi	s0,s0,%lo(.LANCHOR0)
	.loc 1 1280 28
	call	aos_malloc
.LVL95:
	.loc 1 1280 9
	sw	a0,0(s0)
	.loc 1 1281 5 is_stmt 1
	li	a5,12
	.loc 1 1281 8 is_stmt 0
	beq	a0,zero,.L78
	.loc 1 1285 5 is_stmt 1
	li	a2,580
	li	a1,0
	call	memset
.LVL96:
	.loc 1 1294 5
	.loc 1 1294 8 is_stmt 0
	lw	a4,0(s0)
	.loc 1 1294 22
	lui	a5,%hi(_ld_bl_static_cli_cmds_start)
	addi	a3,a5,%lo(_ld_bl_static_cli_cmds_start)
	.loc 1 1295 78
	lui	a5,%hi(_ld_bl_static_cli_cmds_end)
	addi	a5,a5,%lo(_ld_bl_static_cli_cmds_end)
	sub	a5,a5,a3
	.loc 1 1294 22
	sw	a3,8(a4)
	.loc 1 1295 5 is_stmt 1
	.loc 1 1295 78 is_stmt 0
	li	a3,-1431654400
	srai	a5,a5,2
	addi	a3,a3,-1365
	mul	a5,a5,a3
	.loc 1 1300 24
	sw	zero,4(a4)
	.loc 1 1295 26
	sw	a5,44(a4)
	.loc 1 1297 5 is_stmt 1
	.loc 1 1297 23 is_stmt 0
	sw	a5,48(a4)
	.loc 1 1299 5 is_stmt 1
	.loc 1 1299 22 is_stmt 0
	li	a5,1
	sw	a5,0(a4)
	.loc 1 1300 5 is_stmt 1
	.loc 1 1310 5
	.loc 1 1310 12 is_stmt 0
	li	a5,0
.L78:
	.loc 1 1321 1
	lw	ra,12(sp)
	.cfi_restore 1
	lw	s0,8(sp)
	.cfi_restore 8
	mv	a0,a5
	addi	sp,sp,16
	.cfi_def_cfa_offset 0
	jr	ra
	.cfi_endproc
.LFE40:
	.size	aos_cli_init, .-aos_cli_init
	.section	.text.aos_cli_event_cb_read_get,"ax",@progbits
	.align	1
	.globl	aos_cli_event_cb_read_get
	.type	aos_cli_event_cb_read_get, @function
aos_cli_event_cb_read_get:
.LFB43:
	.loc 1 1345 1 is_stmt 1
	.cfi_startproc
	.loc 1 1346 5
	.loc 1 1346 12 is_stmt 0
	lui	a0,%hi(console_cb_read)
	.loc 1 1347 1
	addi	a0,a0,%lo(console_cb_read)
	ret
	.cfi_endproc
.LFE43:
	.size	aos_cli_event_cb_read_get, .-aos_cli_event_cb_read_get
	.section	.text.aos_cli_event_cb_write_get,"ax",@progbits
	.align	1
	.globl	aos_cli_event_cb_write_get
	.type	aos_cli_event_cb_write_get, @function
aos_cli_event_cb_write_get:
.LFB44:
	.loc 1 1350 1 is_stmt 1
	.cfi_startproc
	.loc 1 1351 5
	.loc 1 1351 12 is_stmt 0
	lui	a0,%hi(console_cb_write)
	.loc 1 1352 1
	addi	a0,a0,%lo(console_cb_write)
	ret
	.cfi_endproc
.LFE44:
	.size	aos_cli_event_cb_write_get, .-aos_cli_event_cb_write_get
	.section	.text.aos_cli_get_tag,"ax",@progbits
	.align	1
	.globl	aos_cli_get_tag
	.type	aos_cli_get_tag, @function
aos_cli_get_tag:
.LFB45:
	.loc 1 1355 1 is_stmt 1
	.cfi_startproc
	.loc 1 1356 5
	.loc 1 1356 12 is_stmt 0
	lui	a0,%hi(.LANCHOR2)
	.loc 1 1357 1
	addi	a0,a0,%lo(.LANCHOR2)
	ret
	.cfi_endproc
.LFE45:
	.size	aos_cli_get_tag, .-aos_cli_get_tag
	.section	.text.cli_putstr,"ax",@progbits
	.align	1
	.globl	cli_putstr
	.type	cli_putstr, @function
cli_putstr:
.LFB48:
	.loc 1 1397 1 is_stmt 1
	.cfi_startproc
.LVL97:
	.loc 1 1398 5
	.loc 1 1400 5
	.loc 1 1397 1 is_stmt 0
	addi	sp,sp,-32
	.cfi_def_cfa_offset 32
	sw	s0,24(sp)
	sw	s1,20(sp)
	sw	s2,16(sp)
	sw	s3,12(sp)
	sw	ra,28(sp)
	.cfi_offset 8, -8
	.cfi_offset 9, -12
	.cfi_offset 18, -16
	.cfi_offset 19, -20
	.cfi_offset 1, -4
	.loc 1 1397 1
	mv	s2,a0
	.loc 1 1400 11
	call	strlen
.LVL98:
	mv	s1,a0
.LVL99:
	.loc 1 1401 5 is_stmt 1
	.loc 1 1402 5
	.loc 1 1401 9 is_stmt 0
	li	s0,0
	.loc 1 1403 20
	lui	s3,%hi(.LANCHOR3)
.LVL100:
.L87:
	.loc 1 1402 11
	blt	s0,s1,.L89
.L91:
	.loc 1 1411 1
	lw	ra,28(sp)
	.cfi_remember_state
	.cfi_restore 1
	lw	s0,24(sp)
	.cfi_restore 8
.LVL101:
	lw	s1,20(sp)
	.cfi_restore 9
.LVL102:
	lw	s2,16(sp)
	.cfi_restore 18
.LVL103:
	lw	s3,12(sp)
	.cfi_restore 19
	li	a0,0
	addi	sp,sp,32
	.cfi_def_cfa_offset 0
	jr	ra
.LVL104:
.L89:
	.cfi_restore_state
	.loc 1 1403 9 is_stmt 1
	.loc 1 1403 20 is_stmt 0
	lw	a0,%lo(.LANCHOR3)(s3)
	sub	a2,s1,s0
	add	a1,s2,s0
	call	aos_write
.LVL105:
	.loc 1 1403 12
	blt	a0,zero,.L91
	.loc 1 1404 13 is_stmt 1
	.loc 1 1404 17 is_stmt 0
	add	s0,s0,a0
.LVL106:
	.loc 1 1405 13 is_stmt 1
	j	.L87
	.cfi_endproc
.LFE48:
	.size	cli_putstr, .-cli_putstr
	.section	.text.ps_cmd,"ax",@progbits
	.align	1
	.type	ps_cmd, @function
ps_cmd:
.LFB29:
	.loc 1 971 1
	.cfi_startproc
.LVL107:
	.loc 1 972 5
	.loc 1 973 5
	.loc 1 974 5
	.loc 1 976 5
	.loc 1 971 1 is_stmt 0
	addi	sp,sp,-16
	.cfi_def_cfa_offset 16
	.loc 1 976 12
	li	a0,1536
.LVL108:
	.loc 1 971 1
	sw	ra,12(sp)
	sw	s0,8(sp)
	sw	s1,4(sp)
	sw	s2,0(sp)
	.cfi_offset 1, -4
	.cfi_offset 8, -8
	.cfi_offset 9, -12
	.cfi_offset 18, -16
	.loc 1 976 12
	call	pvPortMalloc
.LVL109:
	.loc 1 977 5 is_stmt 1
	.loc 1 977 8 is_stmt 0
	beq	a0,zero,.L93
	.loc 1 983 5
	lui	s2,%hi(.LC14)
	addi	a1,s2,%lo(.LC14)
	mv	s1,a0
	.loc 1 980 5 is_stmt 1
.LVL110:
	.loc 1 983 5
	call	strcpy
.LVL111:
	.loc 1 984 5
	.loc 1 984 22 is_stmt 0
	mv	a0,s1
	call	strlen
.LVL112:
	.loc 1 984 19
	add	s0,s1,a0
.LVL113:
	.loc 1 988 5 is_stmt 1
	.loc 1 988 27 is_stmt 0
	addi	a0,s2,%lo(.LC14)
	call	strlen
.LVL114:
	.loc 1 988 5
	sub	a0,a0,s0
.LVL115:
	li	a5,12
	.loc 1 990 24
	li	a3,32
.LVL116:
.L95:
	.loc 1 988 5 discriminator 1
	add	a4,s0,a0
	ble	a4,a5,.L96
	.loc 1 996 5 is_stmt 1
	lui	s2,%hi(.LC15)
	addi	a1,s2,%lo(.LC15)
	mv	a0,s0
	call	strcpy
.LVL117:
	.loc 1 997 5
	.loc 1 997 31 is_stmt 0
	addi	a0,s2,%lo(.LC15)
	call	strlen
.LVL118:
	.loc 1 997 5
	add	a0,s0,a0
	call	vTaskList
.LVL119:
	.loc 1 998 5 is_stmt 1
	mv	a0,s1
	call	cli_putstr
.LVL120:
	.loc 1 1000 5
	.loc 1 1001 1 is_stmt 0
	lw	s0,8(sp)
	.cfi_remember_state
	.cfi_restore 8
.LVL121:
	lw	ra,12(sp)
	.cfi_restore 1
	lw	s2,0(sp)
	.cfi_restore 18
	.loc 1 1000 5
	mv	a0,s1
	.loc 1 1001 1
	lw	s1,4(sp)
	.cfi_restore 9
.LVL122:
	addi	sp,sp,16
	.cfi_def_cfa_offset 0
	.loc 1 1000 5
	tail	vPortFree
.LVL123:
.L96:
	.cfi_restore_state
	.loc 1 990 9 is_stmt 1 discriminator 3
	.loc 1 990 24 is_stmt 0 discriminator 3
	sb	a3,0(s0)
	.loc 1 991 9 is_stmt 1 discriminator 3
	.loc 1 991 22 is_stmt 0 discriminator 3
	addi	s0,s0,1
.LVL124:
	.loc 1 994 9 is_stmt 1 discriminator 3
	.loc 1 994 24 is_stmt 0 discriminator 3
	sb	zero,0(s0)
	j	.L95
.LVL125:
.L93:
	.loc 1 1001 1
	lw	ra,12(sp)
	.cfi_restore 1
	lw	s0,8(sp)
	.cfi_restore 8
	lw	s1,4(sp)
	.cfi_restore 9
	lw	s2,0(sp)
	.cfi_restore 18
	addi	sp,sp,16
	.cfi_def_cfa_offset 0
	jr	ra
	.cfi_endproc
.LFE29:
	.size	ps_cmd, .-ps_cmd
	.section	.text.aos_cli_printf,"ax",@progbits
	.align	1
	.globl	aos_cli_printf
	.type	aos_cli_printf, @function
aos_cli_printf:
.LFB47:
	.loc 1 1366 1 is_stmt 1
	.cfi_startproc
.LVL126:
	.loc 1 1367 5
	.loc 1 1369 5
	.loc 1 1370 5
	.loc 1 1371 5
	.loc 1 1373 5
	.loc 1 1366 1 is_stmt 0
	addi	sp,sp,-320
	.cfi_def_cfa_offset 320
	sw	s1,276(sp)
	sw	a1,292(sp)
	sw	a2,296(sp)
	.cfi_offset 9, -44
	mv	s1,a0
	.loc 1 1373 5
	li	a2,256
	li	a1,0
	addi	a0,sp,16
.LVL127:
	.loc 1 1366 1
	sw	a5,308(sp)
	sw	ra,284(sp)
	sw	s0,280(sp)
	.cfi_offset 1, -36
	.cfi_offset 8, -40
	.loc 1 1366 1
	sw	a3,300(sp)
	sw	a4,304(sp)
	sw	a6,312(sp)
	sw	a7,316(sp)
	.loc 1 1373 5
	call	memset
.LVL128:
	.loc 1 1375 5 is_stmt 1
	.loc 1 1376 5
	.loc 1 1376 8 is_stmt 0
	lui	a5,%hi(.LANCHOR4)
	lbu	a5,%lo(.LANCHOR4)(a5)
	li	a0,0
	beq	a5,zero,.L99
	.loc 1 1377 9 is_stmt 1
	lui	s0,%hi(.LANCHOR2)
	addi	a1,s0,%lo(.LANCHOR2)
	addi	a0,sp,16
	call	strcpy
.LVL129:
	.loc 1 1378 9
	.loc 1 1378 14 is_stmt 0
	addi	a0,s0,%lo(.LANCHOR2)
	call	strlen
.LVL130:
.L99:
	.loc 1 1380 5 is_stmt 1
	.loc 1 1382 4
	.loc 1 1383 11 is_stmt 0
	li	a1,256
	addi	a5,sp,16
	.loc 1 1382 4
	addi	a3,sp,292
	.loc 1 1383 11
	sub	a1,a1,a0
	mv	a2,s1
	add	a0,a5,a0
.LVL131:
	.loc 1 1382 4
	sw	a3,12(sp)
	.loc 1 1383 5 is_stmt 1
	.loc 1 1383 11 is_stmt 0
	call	vsnprintf
.LVL132:
	.loc 1 1384 4 is_stmt 1
	.loc 1 1386 5
	.loc 1 1386 8 is_stmt 0
	ble	a0,zero,.L100
	.loc 1 1390 5 is_stmt 1
	addi	a0,sp,16
.LVL133:
	call	cli_putstr
.LVL134:
	.loc 1 1392 5
.L100:
	.loc 1 1393 1 is_stmt 0
	lw	ra,284(sp)
	.cfi_restore 1
	lw	s0,280(sp)
	.cfi_restore 8
	lw	s1,276(sp)
	.cfi_restore 9
.LVL135:
	li	a0,0
	addi	sp,sp,320
	.cfi_def_cfa_offset 0
	jr	ra
	.cfi_endproc
.LFE47:
	.size	aos_cli_printf, .-aos_cli_printf
	.section	.text.proc_onecmd,"ax",@progbits
	.align	1
	.globl	proc_onecmd
	.type	proc_onecmd, @function
proc_onecmd:
.LFB7:
	.loc 1 142 1 is_stmt 1
	.cfi_startproc
.LVL136:
	.loc 1 143 5
	.loc 1 144 5
	.loc 1 145 5
	.loc 1 147 5
	.loc 1 147 8 is_stmt 0
	ble	a0,zero,.L117
	.loc 1 142 1
	addi	sp,sp,-48
	.cfi_def_cfa_offset 48
	sw	s0,40(sp)
	.cfi_offset 8, -8
	.loc 1 151 13
	lui	s0,%hi(.LANCHOR0)
	lw	a5,%lo(.LANCHOR0)(s0)
	.loc 1 142 1
	sw	s1,36(sp)
	sw	s2,32(sp)
	sw	ra,44(sp)
	sw	s3,28(sp)
	sw	s4,24(sp)
	sw	s5,20(sp)
	sw	s6,16(sp)
	sw	s7,12(sp)
	.cfi_offset 9, -12
	.cfi_offset 18, -16
	.cfi_offset 1, -4
	.cfi_offset 19, -20
	.cfi_offset 20, -24
	.cfi_offset 21, -28
	.cfi_offset 22, -32
	.cfi_offset 23, -36
	.loc 1 151 8
	lw	a5,4(a5)
	mv	s1,a1
	mv	s2,a0
	.loc 1 151 5 is_stmt 1
	addi	s0,s0,%lo(.LANCHOR0)
	.loc 1 151 8 is_stmt 0
	bne	a5,zero,.L107
	.loc 1 152 9 is_stmt 1
	lui	a0,%hi(.LC12)
.LVL137:
	addi	a0,a0,%lo(.LC12)
	call	printf
.LVL138:
.L107:
	.loc 1 153 9
	.loc 1 153 13
	.loc 1 160 5
	.loc 1 160 15 is_stmt 0
	lw	a0,0(s1)
	li	a1,46
	.loc 1 160 49
	li	s5,0
	.loc 1 160 15
	call	strchr
.LVL139:
	lw	s6,0(s1)
	.loc 1 160 49
	beq	a0,zero,.L108
	.loc 1 160 49 discriminator 1
	sub	s5,a0,s6
.L108:
.LVL140:
	.loc 1 162 5 is_stmt 1 discriminator 4
.LBB29:
.LBB30:
	.loc 1 109 5 discriminator 4
	.loc 1 110 5 discriminator 4
	.loc 1 112 5 discriminator 4
.LBE30:
.LBE29:
	.loc 1 162 15 is_stmt 0 discriminator 4
	li	s3,0
.LBB34:
.LBB32:
	.loc 1 110 9 discriminator 4
	li	s4,0
.LVL141:
.L109:
	.loc 1 112 19
	lw	a4,0(s0)
	.loc 1 112 37
	lw	a5,44(a4)
	addi	a5,a5,8
	.loc 1 112 11
	bleu	a5,s3,.L119
	.loc 1 112 41
	lw	a5,48(a4)
	bgtu	a5,s4,.L114
.LVL142:
.L119:
.LBE32:
.LBE34:
	.loc 1 164 16
	li	a0,1
	j	.L105
.LVL143:
.L114:
.LBB35:
.LBB33:
.LBB31:
	.loc 1 113 9 is_stmt 1
	.loc 1 113 41 is_stmt 0
	li	a1,0
	mv	a0,s3
	call	cli_command_get
.LVL144:
	mv	s7,a0
.LVL145:
	.loc 1 114 9 is_stmt 1
	.loc 1 114 16 is_stmt 0
	lw	a0,0(a0)
.LVL146:
	.loc 1 114 12
	beq	a0,zero,.L110
	.loc 1 119 9 is_stmt 1
	.loc 1 119 12 is_stmt 0
	beq	s5,zero,.L111
	.loc 1 120 13 is_stmt 1
	.loc 1 120 18 is_stmt 0
	mv	a2,s5
	mv	a1,s6
	call	strncmp
.LVL147:
.L134:
	.loc 1 120 16
	beq	a0,zero,.L112
	.loc 1 129 9 is_stmt 1
.LVL148:
	.loc 1 130 9
	.loc 1 130 10 is_stmt 0
	addi	s4,s4,1
.LVL149:
.L110:
	addi	s3,s3,1
	j	.L109
.LVL150:
.L111:
	.loc 1 124 13 is_stmt 1
	.loc 1 124 18 is_stmt 0
	mv	a1,s6
	call	strcmp
.LVL151:
	j	.L134
.LVL152:
.L129:
.LBE31:
.LBE33:
.LBE35:
	.loc 1 172 5 is_stmt 1
	li	a2,512
	li	a1,0
	call	memset
.LVL153:
	.loc 1 174 5
	lw	a4,0(s0)
	lw	a5,8(s7)
	mv	a3,s1
	lw	a0,312(a4)
	mv	a2,s2
	li	a1,512
	jalr	a5
.LVL154:
	.loc 1 175 5
	lw	a5,0(s0)
	lui	a0,%hi(.LC17)
	addi	a0,a0,%lo(.LC17)
	lw	a1,312(a5)
	call	aos_cli_printf
.LVL155:
	.loc 1 177 5
	.loc 1 177 17 is_stmt 0
	lw	a5,0(s0)
	.loc 1 177 5
	lw	a0,312(a5)
	call	aos_free
.LVL156:
	.loc 1 178 5 is_stmt 1
	.loc 1 178 17 is_stmt 0
	lw	a5,0(s0)
	.loc 1 179 12
	li	a0,0
	.loc 1 178 17
	sw	zero,312(a5)
	.loc 1 179 5 is_stmt 1
.LVL157:
.L105:
	.loc 1 180 1 is_stmt 0
	lw	ra,44(sp)
	.cfi_restore 1
	lw	s0,40(sp)
	.cfi_restore 8
	lw	s1,36(sp)
	.cfi_restore 9
.LVL158:
	lw	s2,32(sp)
	.cfi_restore 18
.LVL159:
	lw	s3,28(sp)
	.cfi_restore 19
	lw	s4,24(sp)
	.cfi_restore 20
	lw	s5,20(sp)
	.cfi_restore 21
.LVL160:
	lw	s6,16(sp)
	.cfi_restore 22
	lw	s7,12(sp)
	.cfi_restore 23
	addi	sp,sp,48
	.cfi_def_cfa_offset 0
	jr	ra
.LVL161:
.L117:
	.loc 1 148 16
	li	a0,0
.LVL162:
	.loc 1 180 1
	ret
.LVL163:
.L112:
	.cfi_def_cfa_offset 48
	.cfi_offset 1, -4
	.cfi_offset 8, -8
	.cfi_offset 9, -12
	.cfi_offset 18, -16
	.cfi_offset 19, -20
	.cfi_offset 20, -24
	.cfi_offset 21, -28
	.cfi_offset 22, -32
	.cfi_offset 23, -36
	.loc 1 163 5 is_stmt 1
	.loc 1 167 5
	.loc 1 167 19 is_stmt 0
	li	a0,512
	.loc 1 167 8
	lw	s3,0(s0)
	.loc 1 167 19
	call	aos_malloc
.LVL164:
	.loc 1 168 19
	lw	a5,0(s0)
	.loc 1 167 17
	sw	a0,312(s3)
	.loc 1 168 5 is_stmt 1
	.loc 1 168 19 is_stmt 0
	lw	a0,312(a5)
	.loc 1 168 8
	bne	a0,zero,.L129
	.loc 1 169 9 is_stmt 1
	lui	a0,%hi(.LC16)
	addi	a0,a0,%lo(.LC16)
	call	aos_cli_printf
.LVL165:
	.loc 1 170 9
	j	.L119
	.cfi_endproc
.LFE7:
	.size	proc_onecmd, .-proc_onecmd
	.section	.text.ls_cmd,"ax",@progbits
	.align	1
	.type	ls_cmd, @function
ls_cmd:
.LFB31:
	.loc 1 1021 1
	.cfi_startproc
.LVL166:
	.loc 1 1022 5
	.loc 1 1023 5
	.loc 1 1024 5
	.loc 1 1025 5
	.loc 1 1026 5
	.loc 1 1021 1 is_stmt 0
	addi	sp,sp,-192
	.cfi_def_cfa_offset 192
	.loc 1 1028 10
	li	a0,88
.LVL167:
	.loc 1 1021 1
	sw	ra,188(sp)
	sw	s0,184(sp)
	sw	s1,180(sp)
	sw	s2,176(sp)
	.cfi_offset 1, -4
	.cfi_offset 8, -8
	.cfi_offset 9, -12
	.cfi_offset 18, -16
	mv	s1,a2
	mv	s2,a3
	sw	s3,172(sp)
	sw	s4,168(sp)
	sw	s5,164(sp)
	sw	s6,160(sp)
	sw	s7,156(sp)
	sw	s8,152(sp)
	.cfi_offset 19, -20
	.cfi_offset 20, -24
	.cfi_offset 21, -28
	.cfi_offset 22, -32
	.cfi_offset 23, -36
	.cfi_offset 24, -40
	.loc 1 1026 9
	sw	zero,12(sp)
	.loc 1 1028 5 is_stmt 1
	.loc 1 1028 10 is_stmt 0
	call	pvPortMalloc
.LVL168:
	mv	s0,a0
.LVL169:
	.loc 1 1029 5 is_stmt 1
	lui	a0,%hi(stat)
	li	a2,88
	li	a1,0
	addi	a0,a0,%lo(stat)
	call	memset
.LVL170:
	.loc 1 1030 5
	li	a2,128
	li	a1,0
	addi	a0,sp,16
	call	memset
.LVL171:
	.loc 1 1032 5
	.loc 1 1032 8 is_stmt 0
	li	a5,2
	bne	s1,a5,.L136
	.loc 1 1033 9 is_stmt 1
	.loc 1 1033 14 is_stmt 0
	lw	a0,4(s2)
	lui	s1,%hi(.LC18)
.LVL172:
	addi	a1,s1,%lo(.LC18)
	call	strcmp
.LVL173:
	.loc 1 1033 12
	bne	a0,zero,.L137
	.loc 1 1034 13 is_stmt 1
	.loc 1 1034 18 is_stmt 0
	addi	a0,s1,%lo(.LC18)
	call	aos_opendir
.LVL174:
	mv	s2,a0
.LVL175:
	.loc 1 1035 13 is_stmt 1
	.loc 1 1035 16 is_stmt 0
	beq	a0,zero,.L138
	.loc 1 1036 17 is_stmt 1
	lui	a0,%hi(.LC4)
.LVL176:
	addi	a0,a0,%lo(.LC4)
	call	printf
.LVL177:
	.loc 1 1037 17
	lui	a0,%hi(.LC5)
	addi	a0,a0,%lo(.LC5)
	call	printf
.LVL178:
	.loc 1 1043 21 is_stmt 0
	lui	s4,%hi(.LC19)
	.loc 1 1048 29
	lui	s3,%hi(.LC21)
	.loc 1 1046 29
	lui	s5,%hi(.LC20)
.L141:
	.loc 1 1038 17 is_stmt 1
	.loc 1 1039 21
	.loc 1 1039 34 is_stmt 0
	mv	a0,s2
	call	aos_readdir
.LVL179:
	.loc 1 1040 21 is_stmt 1
	.loc 1 1040 24 is_stmt 0
	beq	a0,zero,.L140
	.loc 1 1043 21 is_stmt 1
	.loc 1 1043 88 is_stmt 0
	addi	s1,a0,5
	.loc 1 1043 21
	li	a1,127
	mv	a3,s1
	addi	a2,s4,%lo(.LC19)
	addi	a0,sp,16
.LVL180:
	call	snprintf
.LVL181:
	.loc 1 1044 21 is_stmt 1
	.loc 1 1044 30 is_stmt 0
	mv	a1,s0
	addi	a0,sp,16
	call	aos_stat
.LVL182:
	.loc 1 1044 24
	bne	a0,zero,.L141
	.loc 1 1045 25 is_stmt 1
	.loc 1 1045 36 is_stmt 0
	lw	a5,4(s0)
	lw	a1,16(s0)
	.loc 1 1046 29
	mv	a2,s1
	.loc 1 1045 28
	slli	a4,a5,17
	.loc 1 1046 29
	addi	a0,s5,%lo(.LC20)
	.loc 1 1045 28
	blt	a4,zero,.L158
	.loc 1 1048 29 is_stmt 1
	addi	a0,s3,%lo(.LC21)
.L158:
	call	printf
.LVL183:
	j	.L141
.LVL184:
.L140:
	.loc 1 1052 17
	mv	a0,s2
.LVL185:
.L160:
	.loc 1 1084 17 is_stmt 0
	call	aos_closedir
.LVL186:
.L144:
	.loc 1 1100 5 is_stmt 1
	mv	a0,s0
	call	vPortFree
.LVL187:
	.loc 1 1101 1 is_stmt 0
	lw	ra,188(sp)
	.cfi_remember_state
	.cfi_restore 1
	lw	s0,184(sp)
	.cfi_restore 8
.LVL188:
	lw	s1,180(sp)
	.cfi_restore 9
	lw	s2,176(sp)
	.cfi_restore 18
	lw	s3,172(sp)
	.cfi_restore 19
	lw	s4,168(sp)
	.cfi_restore 20
	lw	s5,164(sp)
	.cfi_restore 21
	lw	s6,160(sp)
	.cfi_restore 22
	lw	s7,156(sp)
	.cfi_restore 23
	lw	s8,152(sp)
	.cfi_restore 24
	addi	sp,sp,192
	.cfi_def_cfa_offset 0
	jr	ra
.LVL189:
.L138:
	.cfi_restore_state
	.loc 1 1054 17 is_stmt 1
	lui	a0,%hi(.LC22)
.LVL190:
	addi	a0,a0,%lo(.LC22)
.LVL191:
.L162:
	.loc 1 1086 17 is_stmt 0
	call	printf
.LVL192:
	j	.L144
.LVL193:
.L137:
	.loc 1 1056 16 is_stmt 1
	.loc 1 1056 21 is_stmt 0
	lw	s3,4(s2)
	lui	s1,%hi(.LC23)
	addi	a0,s1,%lo(.LC23)
	call	strlen
.LVL194:
	mv	a2,a0
	addi	a1,s1,%lo(.LC23)
	mv	a0,s3
	call	memcmp
.LVL195:
	lw	a5,4(s2)
	.loc 1 1056 19
	bne	a0,zero,.L145
	.loc 1 1057 13 is_stmt 1
	.loc 1 1057 18 is_stmt 0
	mv	a0,a5
	call	aos_opendir
.LVL196:
	mv	s3,a0
.LVL197:
	.loc 1 1058 13 is_stmt 1
	.loc 1 1058 16 is_stmt 0
	beq	a0,zero,.L146
	.loc 1 1059 17 is_stmt 1
	lui	a0,%hi(.LC4)
.LVL198:
	addi	a0,a0,%lo(.LC4)
	call	printf
.LVL199:
	.loc 1 1060 17
	lui	a0,%hi(.LC5)
	addi	a0,a0,%lo(.LC5)
	call	printf
.LVL200:
	.loc 1 1069 21 is_stmt 0
	lui	s4,%hi(.LC17)
	.loc 1 1070 24
	li	s5,47
	.loc 1 1080 29
	lui	s6,%hi(.LC21)
	.loc 1 1078 29
	lui	s7,%hi(.LC20)
.L150:
	.loc 1 1061 17 is_stmt 1
	.loc 1 1062 21
	.loc 1 1062 34 is_stmt 0
	mv	a0,s3
	call	aos_readdir
.LVL201:
	mv	s1,a0
.LVL202:
	.loc 1 1063 21 is_stmt 1
	.loc 1 1063 24 is_stmt 0
	beq	a0,zero,.L148
	.loc 1 1068 21 is_stmt 1
	li	a2,128
	li	a1,0
	addi	a0,sp,16
	call	memset
.LVL203:
	.loc 1 1069 21
	lw	a3,4(s2)
	addi	a2,s4,%lo(.LC17)
	li	a1,127
	addi	a0,sp,16
	call	snprintf
.LVL204:
	.loc 1 1070 21
	.loc 1 1070 35 is_stmt 0
	addi	a0,sp,16
	call	strlen
.LVL205:
	.loc 1 1070 34
	addi	a5,sp,144
	add	a0,a5,a0
	.loc 1 1070 24
	lbu	a5,-129(a0)
	beq	a5,s5,.L149
	.loc 1 1071 25 is_stmt 1
	.loc 1 1071 35 is_stmt 0
	addi	a0,sp,16
	call	strlen
.LVL206:
	.loc 1 1071 54
	addi	a5,sp,144
	add	a0,a5,a0
	sb	s5,-128(a0)
.L149:
	.loc 1 1073 21 is_stmt 1
	.loc 1 1073 42 is_stmt 0
	addi	a0,sp,16
	call	strlen
.LVL207:
	mv	s8,a0
	.loc 1 1073 80
	addi	a0,sp,16
	call	strlen
.LVL208:
	.loc 1 1073 21
	addi	a5,sp,16
	.loc 1 1073 119
	addi	s1,s1,5
.LVL209:
	.loc 1 1073 21
	li	a1,127
	sub	a1,a1,a0
	mv	a3,s1
	addi	a2,s4,%lo(.LC17)
	add	a0,a5,s8
	call	snprintf
.LVL210:
	.loc 1 1076 21 is_stmt 1
	.loc 1 1076 30 is_stmt 0
	mv	a1,s0
	addi	a0,sp,16
	call	aos_stat
.LVL211:
	.loc 1 1076 24
	bne	a0,zero,.L150
	.loc 1 1077 25 is_stmt 1
	.loc 1 1077 36 is_stmt 0
	lw	a5,4(s0)
	lw	a1,16(s0)
	.loc 1 1078 29
	mv	a2,s1
	.loc 1 1077 28
	slli	a4,a5,17
	.loc 1 1078 29
	addi	a0,s7,%lo(.LC20)
	.loc 1 1077 28
	blt	a4,zero,.L159
	.loc 1 1080 29 is_stmt 1
	addi	a0,s6,%lo(.LC21)
.L159:
	call	printf
.LVL212:
	j	.L150
.LVL213:
.L148:
	.loc 1 1084 17
	mv	a0,s3
	j	.L160
.LVL214:
.L146:
	.loc 1 1086 17
	lui	a0,%hi(.LC24)
.LVL215:
	addi	a0,a0,%lo(.LC24)
	j	.L162
.LVL216:
.L145:
	.loc 1 1088 16
	.loc 1 1088 21 is_stmt 0
	lui	a1,%hi(.LC25)
	addi	a1,a1,%lo(.LC25)
	mv	a0,a5
	call	strcmp
.LVL217:
	.loc 1 1088 19
	bne	a0,zero,.L153
.L154:
	.loc 1 1089 13 is_stmt 1
	lui	a0,%hi(cb_idnoe)
	addi	a1,sp,12
	addi	a0,a0,%lo(cb_idnoe)
	call	inode_forearch_name
.LVL218:
	j	.L144
.L153:
	.loc 1 1091 13
	lui	a0,%hi(.LC26)
	addi	a0,a0,%lo(.LC26)
.L161:
	.loc 1 1097 13 is_stmt 0
	call	aos_cli_printf
.LVL219:
	j	.L144
.LVL220:
.L136:
	.loc 1 1094 9 is_stmt 1
	.loc 1 1094 12 is_stmt 0
	li	a5,1
	beq	s1,a5,.L154
	.loc 1 1097 13 is_stmt 1
	lui	a0,%hi(.LC9)
	addi	a0,a0,%lo(.LC9)
	j	.L161
	.cfi_endproc
.LFE31:
	.size	ls_cmd, .-ls_cmd
	.globl	__divdi3
	.globl	__moddi3
	.section	.text.uptime_cmd,"ax",@progbits
	.align	1
	.type	uptime_cmd, @function
uptime_cmd:
.LFB26:
	.loc 1 939 1
	.cfi_startproc
.LVL221:
	.loc 1 940 5
	.loc 1 941 5
	.loc 1 942 5
	.loc 1 943 5
	.loc 1 944 5
	.loc 1 946 5
	.loc 1 939 1 is_stmt 0
	addi	sp,sp,-64
	.cfi_def_cfa_offset 64
	sw	ra,60(sp)
	sw	s0,56(sp)
	sw	s1,52(sp)
	sw	s2,48(sp)
	sw	s3,44(sp)
	.cfi_offset 1, -4
	.cfi_offset 8, -8
	.cfi_offset 9, -12
	.cfi_offset 18, -16
	.cfi_offset 19, -20
	.loc 1 946 10
	call	aos_now_ms
.LVL222:
	mv	s0,a0
	.loc 1 947 5
	mv	a2,a0
	lui	a0,%hi(.LC27)
	mv	a3,a1
	addi	a0,a0,%lo(.LC27)
	.loc 1 946 10
	mv	s1,a1
.LVL223:
	.loc 1 947 5 is_stmt 1
	call	aos_cli_printf
.LVL224:
	.loc 1 948 5
	.loc 1 949 5
	.loc 1 950 5
	.loc 1 951 5
	.loc 1 952 5
	.loc 1 949 13 is_stmt 0
	li	a2,61440
	addi	a2,a2,-1440
	li	a3,0
	mv	a0,s0
	mv	a1,s1
	call	__divdi3
.LVL225:
	.loc 1 952 5
	li	a2,60
	li	a3,0
	call	__moddi3
.LVL226:
	.loc 1 950 11
	li	a2,3600384
	.loc 1 952 5
	sw	a0,24(sp)
	sw	a1,28(sp)
	.loc 1 950 11
	addi	a2,a2,-384
	li	a3,0
	mv	a0,s0
	mv	a1,s1
	call	__divdi3
.LVL227:
	.loc 1 952 5
	li	a2,24
	li	a3,0
	call	__moddi3
.LVL228:
	.loc 1 951 10
	li	a2,86401024
	.loc 1 952 5
	sw	a0,16(sp)
	sw	a1,20(sp)
	.loc 1 951 10
	addi	a2,a2,-1024
	li	a3,0
	mv	a0,s0
	mv	a1,s1
	call	__divdi3
.LVL229:
	mv	s2,a0
	mv	s3,a1
	.loc 1 948 13
	li	a2,1000
	li	a3,0
	mv	a0,s0
	mv	a1,s1
	call	__divdi3
.LVL230:
	.loc 1 952 5
	li	a2,60
	li	a3,0
	call	__moddi3
.LVL231:
	lw	a6,24(sp)
	lw	a7,28(sp)
	lw	a4,16(sp)
	lw	a5,20(sp)
	sw	a0,0(sp)
	lui	a0,%hi(.LC28)
	sw	a1,4(sp)
	mv	a2,s2
	mv	a3,s3
	addi	a0,a0,%lo(.LC28)
	call	aos_cli_printf
.LVL232:
	.loc 1 958 1
	lw	ra,60(sp)
	.cfi_restore 1
	lw	s0,56(sp)
	.cfi_restore 8
.LVL233:
	lw	s1,52(sp)
	.cfi_restore 9
	lw	s2,48(sp)
	.cfi_restore 18
	lw	s3,44(sp)
	.cfi_restore 19
	addi	sp,sp,64
	.cfi_def_cfa_offset 0
	jr	ra
	.cfi_endproc
.LFE26:
	.size	uptime_cmd, .-uptime_cmd
	.section	.text.reset_cmd,"ax",@progbits
	.align	1
	.type	reset_cmd, @function
reset_cmd:
.LFB25:
	.loc 1 932 1 is_stmt 1
	.cfi_startproc
.LVL234:
	.loc 1 933 5
	lui	a0,%hi(.LC29)
.LVL235:
	.loc 1 932 1 is_stmt 0
	addi	sp,sp,-16
	.cfi_def_cfa_offset 16
	.loc 1 933 5
	addi	a0,a0,%lo(.LC29)
	.loc 1 932 1
	sw	ra,12(sp)
	.cfi_offset 1, -4
	.loc 1 933 5
	call	aos_cli_printf
.LVL236:
	.loc 1 935 5 is_stmt 1
	.loc 1 936 1 is_stmt 0
	lw	ra,12(sp)
	.cfi_restore 1
	addi	sp,sp,16
	.cfi_def_cfa_offset 0
	.loc 1 935 5
	tail	hal_sys_reset
.LVL237:
	.cfi_endproc
.LFE25:
	.size	reset_cmd, .-reset_cmd
	.section	.text.poweroff_cmd,"ax",@progbits
	.align	1
	.type	poweroff_cmd, @function
poweroff_cmd:
.LFB24:
	.loc 1 925 1 is_stmt 1
	.cfi_startproc
.LVL238:
	.loc 1 926 5
	lui	a0,%hi(.LC30)
.LVL239:
	.loc 1 925 1 is_stmt 0
	addi	sp,sp,-16
	.cfi_def_cfa_offset 16
	.loc 1 926 5
	addi	a0,a0,%lo(.LC30)
	.loc 1 925 1
	sw	ra,12(sp)
	.cfi_offset 1, -4
	.loc 1 926 5
	call	aos_cli_printf
.LVL240:
	.loc 1 928 5 is_stmt 1
	.loc 1 929 1 is_stmt 0
	lw	ra,12(sp)
	.cfi_restore 1
	addi	sp,sp,16
	.cfi_def_cfa_offset 0
	.loc 1 928 5
	tail	hal_poweroff
.LVL241:
	.cfi_endproc
.LFE24:
	.size	poweroff_cmd, .-poweroff_cmd
	.section	.text.reboot_cmd,"ax",@progbits
	.align	1
	.type	reboot_cmd, @function
reboot_cmd:
.LFB23:
	.loc 1 918 1 is_stmt 1
	.cfi_startproc
.LVL242:
	.loc 1 919 5
	lui	a0,%hi(.LC31)
.LVL243:
	.loc 1 918 1 is_stmt 0
	addi	sp,sp,-16
	.cfi_def_cfa_offset 16
	.loc 1 919 5
	addi	a0,a0,%lo(.LC31)
	.loc 1 918 1
	sw	ra,12(sp)
	.cfi_offset 1, -4
	.loc 1 919 5
	call	aos_cli_printf
.LVL244:
	.loc 1 921 5 is_stmt 1
	.loc 1 922 1 is_stmt 0
	lw	ra,12(sp)
	.cfi_restore 1
	addi	sp,sp,16
	.cfi_def_cfa_offset 0
	.loc 1 921 5
	tail	hal_reboot
.LVL245:
	.cfi_endproc
.LFE23:
	.size	reboot_cmd, .-reboot_cmd
	.section	.text.version_cmd,"ax",@progbits
	.align	1
	.type	version_cmd, @function
version_cmd:
.LFB17:
	.loc 1 738 1 is_stmt 1
	.cfi_startproc
.LVL246:
	.loc 1 739 5
	.loc 1 743 5 is_stmt 0
	lui	a0,%hi(.LC32)
.LVL247:
	.loc 1 738 1
	addi	sp,sp,-80
	.cfi_def_cfa_offset 80
	.loc 1 739 9
	li	a5,4
	.loc 1 743 5
	addi	a0,a0,%lo(.LC32)
	.loc 1 738 1
	sw	ra,76(sp)
	.loc 1 739 9
	sw	a5,4(sp)
	.loc 1 740 5 is_stmt 1
	.loc 1 741 5
	.loc 1 743 5
	.loc 1 738 1 is_stmt 0
	sw	s0,72(sp)
	sw	s1,68(sp)
	sw	s2,64(sp)
	.cfi_offset 1, -4
	.cfi_offset 8, -8
	.cfi_offset 9, -12
	.cfi_offset 18, -16
	.loc 1 743 5
	call	aos_cli_printf
.LVL248:
	.loc 1 744 5 is_stmt 1
	lui	a0,%hi(.LC33)
	addi	a0,a0,%lo(.LC33)
	call	aos_cli_printf
.LVL249:
	.loc 1 745 5
	lui	a0,%hi(.LC12)
	addi	a0,a0,%lo(.LC12)
	call	aos_cli_printf
.LVL250:
	.loc 1 746 5
	.loc 1 746 14 is_stmt 0
	addi	a3,sp,40
	addi	a2,sp,24
	addi	a1,sp,8
	addi	a0,sp,4
	call	bl_chip_memory_ram
.LVL251:
	.loc 1 746 8
	beq	a0,zero,.L172
.L175:
	.loc 1 757 5 is_stmt 1
	call	xPortGetFreeHeapSize
.LVL252:
	mv	a1,a0
	lui	a0,%hi(.LC34)
	addi	a0,a0,%lo(.LC34)
	call	aos_cli_printf
.LVL253:
	.loc 1 758 1 is_stmt 0
	lw	ra,76(sp)
	.cfi_remember_state
	.cfi_restore 1
	lw	s0,72(sp)
	.cfi_restore 8
	lw	s1,68(sp)
	.cfi_restore 9
	lw	s2,64(sp)
	.cfi_restore 18
	addi	sp,sp,80
	.cfi_def_cfa_offset 0
	jr	ra
.L172:
	.cfi_restore_state
	.loc 1 747 9
	lw	a1,4(sp)
	mv	s0,a0
	.loc 1 747 9 is_stmt 1
	lui	a0,%hi(.LC35)
	addi	a0,a0,%lo(.LC35)
	call	aos_cli_printf
.LVL254:
	.loc 1 748 9
	.loc 1 749 13 is_stmt 0
	li	s1,6
	lui	s2,%hi(.LC36)
.LVL255:
.L173:
	.loc 1 748 9 discriminator 1
	lw	a5,4(sp)
	ble	a5,s0,.L175
	.loc 1 749 13 is_stmt 1 discriminator 3
	mul	a2,s0,s1
	slli	a5,s0,2
	.loc 1 752 21 is_stmt 0 discriminator 3
	addi	a3,sp,24
	.loc 1 749 13 discriminator 3
	addi	a4,sp,8
	add	a4,a4,a5
	.loc 1 752 21 discriminator 3
	add	a5,a3,a5
	.loc 1 749 13 discriminator 3
	lw	a3,0(a5)
	lw	a4,0(a4)
	addi	a5,sp,40
	mv	a1,s0
	srli	a3,a3,10
	add	a2,a5,a2
	addi	a0,s2,%lo(.LC36)
	call	aos_cli_printf
.LVL256:
	.loc 1 748 31 discriminator 3
	addi	s0,s0,1
.LVL257:
	j	.L173
	.cfi_endproc
.LFE17:
	.size	version_cmd, .-version_cmd
	.section	.text.devname_cmd,"ax",@progbits
	.align	1
	.type	devname_cmd, @function
devname_cmd:
.LFB20:
	.loc 1 787 1 is_stmt 1
	.cfi_startproc
.LVL258:
	.loc 1 788 5
	lui	a1,%hi(.LC37)
.LVL259:
	lui	a0,%hi(.LC38)
.LVL260:
	addi	a1,a1,%lo(.LC37)
	addi	a0,a0,%lo(.LC38)
	tail	aos_cli_printf
.LVL261:
	.cfi_endproc
.LFE20:
	.size	devname_cmd, .-devname_cmd
	.section	.text.echo_cmd,"ax",@progbits
	.align	1
	.type	echo_cmd, @function
echo_cmd:
.LFB18:
	.loc 1 764 1
	.cfi_startproc
.LVL262:
	.loc 1 765 5
	.loc 1 764 1 is_stmt 0
	addi	sp,sp,-16
	.cfi_def_cfa_offset 16
	sw	s1,4(sp)
	sw	ra,12(sp)
	sw	s0,8(sp)
	.cfi_offset 9, -12
	.cfi_offset 1, -4
	.cfi_offset 8, -8
	.loc 1 765 8
	li	s1,1
	bne	a2,s1,.L180
	.loc 1 766 9 is_stmt 1
	.loc 1 767 27 is_stmt 0
	lui	a5,%hi(.LANCHOR0)
	lw	a5,%lo(.LANCHOR0)(a5)
	.loc 1 766 9
	lw	a5,4(a5)
	bne	a5,zero,.L184
	lui	a1,%hi(.LC40)
.LVL263:
	addi	a1,a1,%lo(.LC40)
.L181:
	.loc 1 778 1 discriminator 4
	lw	s0,8(sp)
	.cfi_remember_state
	.cfi_restore 8
	lw	ra,12(sp)
	.cfi_restore 1
	lw	s1,4(sp)
	.cfi_restore 9
	.loc 1 766 9 discriminator 4
	lui	a0,%hi(.LC41)
.LVL264:
	.loc 1 778 1 discriminator 4
	.loc 1 766 9 discriminator 4
	addi	a0,a0,%lo(.LC41)
	.loc 1 778 1 discriminator 4
	addi	sp,sp,16
	.cfi_def_cfa_offset 0
	.loc 1 766 9 discriminator 4
	tail	aos_cli_printf
.LVL265:
.L184:
	.cfi_restore_state
	.loc 1 766 9
	lui	a1,%hi(.LC39)
.LVL266:
	addi	a1,a1,%lo(.LC39)
	j	.L181
.LVL267:
.L180:
	.loc 1 771 10
	lw	a0,4(a3)
.LVL268:
	lui	a1,%hi(.LC42)
.LVL269:
	addi	a1,a1,%lo(.LC42)
	mv	s0,a3
	.loc 1 771 5 is_stmt 1
	.loc 1 771 10 is_stmt 0
	call	strcmp
.LVL270:
	.loc 1 771 8
	bne	a0,zero,.L182
	.loc 1 772 9 is_stmt 1
	lui	a0,%hi(.LC43)
	addi	a0,a0,%lo(.LC43)
	call	aos_cli_printf
.LVL271:
	.loc 1 773 9
	.loc 1 773 28 is_stmt 0
	lui	a5,%hi(.LANCHOR0)
	lw	a5,%lo(.LANCHOR0)(a5)
	sw	zero,4(a5)
.L179:
	.loc 1 778 1
	lw	ra,12(sp)
	.cfi_remember_state
	.cfi_restore 1
	lw	s0,8(sp)
	.cfi_restore 8
.LVL272:
	lw	s1,4(sp)
	.cfi_restore 9
	addi	sp,sp,16
	.cfi_def_cfa_offset 0
	jr	ra
.LVL273:
.L182:
	.cfi_restore_state
	.loc 1 774 12 is_stmt 1
	.loc 1 774 17 is_stmt 0
	lw	a0,4(s0)
	lui	a1,%hi(.LC44)
	addi	a1,a1,%lo(.LC44)
	call	strcmp
.LVL274:
	.loc 1 774 15
	bne	a0,zero,.L179
.LVL275:
.LBB38:
.LBB39:
	.loc 1 775 9 is_stmt 1
	lui	a0,%hi(.LC45)
	addi	a0,a0,%lo(.LC45)
	call	aos_cli_printf
.LVL276:
	.loc 1 776 9
	.loc 1 776 28 is_stmt 0
	lui	a5,%hi(.LANCHOR0)
	lw	a5,%lo(.LANCHOR0)(a5)
	sw	s1,4(a5)
	j	.L179
.LBE39:
.LBE38:
	.cfi_endproc
.LFE18:
	.size	echo_cmd, .-echo_cmd
	.section	.text.mmem_cmd,"ax",@progbits
	.align	1
	.type	mmem_cmd, @function
mmem_cmd:
.LFB22:
	.loc 1 863 1 is_stmt 1
	.cfi_startproc
.LVL277:
	.loc 1 864 5
	.loc 1 865 5
	.loc 1 866 5
	.loc 1 867 5
	.loc 1 868 5
	.loc 1 870 5
	.loc 1 863 1 is_stmt 0
	addi	sp,sp,-16
	.cfi_def_cfa_offset 16
	sw	s2,0(sp)
	sw	ra,12(sp)
	sw	s0,8(sp)
	sw	s1,4(sp)
	.cfi_offset 18, -16
	.cfi_offset 1, -4
	.cfi_offset 8, -8
	.cfi_offset 9, -12
	.loc 1 870 5
	li	a5,3
	.loc 1 863 1
	mv	s2,a3
	.loc 1 870 5
	beq	a2,a5,.L196
	li	a5,4
	beq	a2,a5,.L188
	li	a5,2
	bne	a2,a5,.L198
	.loc 1 866 18
	li	s0,0
	.loc 1 865 9
	li	s1,4
	j	.L189
.L188:
	.loc 1 872 13 is_stmt 1
	.loc 1 872 21 is_stmt 0
	lw	a0,12(a3)
.LVL278:
	li	a2,0
.LVL279:
	li	a1,0
.LVL280:
	call	strtol
.LVL281:
	mv	s1,a0
.LVL282:
.L187:
	.loc 1 873 13 is_stmt 1
	.loc 1 875 13
	.loc 1 875 21 is_stmt 0
	lw	a0,8(s2)
	li	a2,0
	li	a1,0
	call	strtol
.LVL283:
	mv	s0,a0
.LVL284:
.L189:
	.loc 1 876 13 is_stmt 1
	.loc 1 878 13
	.loc 1 878 28 is_stmt 0
	lw	a0,4(s2)
	li	a1,0
	li	a2,0
	call	strtol
.LVL285:
	mv	a1,a0
.LVL286:
	.loc 1 879 13 is_stmt 1
	.loc 1 885 5
	.loc 1 885 8 is_stmt 0
	bne	a0,zero,.L191
.LVL287:
.L198:
	.loc 1 886 9 is_stmt 1
	.loc 1 913 1 is_stmt 0
	lw	s0,8(sp)
	.cfi_remember_state
	.cfi_restore 8
	lw	ra,12(sp)
	.cfi_restore 1
	lw	s1,4(sp)
	.cfi_restore 9
	lw	s2,0(sp)
	.cfi_restore 18
.LVL288:
	.loc 1 886 9
	lui	a0,%hi(.LC46)
	.loc 1 913 1
	.loc 1 886 9
	addi	a0,a0,%lo(.LC46)
	.loc 1 913 1
	addi	sp,sp,16
	.cfi_def_cfa_offset 0
	.loc 1 886 9
	tail	aos_cli_printf
.LVL289:
.L196:
	.cfi_restore_state
	.loc 1 865 9
	li	s1,4
	j	.L187
.LVL290:
.L191:
	.loc 1 893 5 is_stmt 1
	li	a5,1
	beq	s1,a5,.L192
	li	a5,2
	beq	s1,a5,.L193
	.loc 1 906 13
	.loc 1 906 23 is_stmt 0
	lw	a2,0(a0)
.LVL291:
	.loc 1 907 13 is_stmt 1
	.loc 1 907 44 is_stmt 0
	sw	s0,0(a0)
	.loc 1 908 13 is_stmt 1
	.loc 1 908 23 is_stmt 0
	lw	a3,0(a0)
.LVL292:
	.loc 1 909 13 is_stmt 1
	j	.L195
.LVL293:
.L192:
	.loc 1 895 13
	.loc 1 896 47 is_stmt 0
	andi	s0,s0,0xff
.LVL294:
	.loc 1 895 40
	lbu	a2,0(a0)
	.loc 1 896 45
	sb	s0,0(a0)
	.loc 1 897 40
	lbu	a3,0(a0)
	.loc 1 895 40
	andi	a2,a2,0xff
.LVL295:
	.loc 1 896 13 is_stmt 1
	.loc 1 897 13
	.loc 1 897 40 is_stmt 0
	andi	a3,a3,0xff
.LVL296:
	.loc 1 898 13 is_stmt 1
.L195:
	.loc 1 911 5
	.loc 1 913 1 is_stmt 0
	lw	s0,8(sp)
	.cfi_remember_state
	.cfi_restore 8
	lw	ra,12(sp)
	.cfi_restore 1
	lw	s1,4(sp)
	.cfi_restore 9
.LVL297:
	lw	s2,0(sp)
	.cfi_restore 18
.LVL298:
	.loc 1 911 5
	lui	a0,%hi(.LC47)
.LVL299:
	.loc 1 913 1
	.loc 1 911 5
	addi	a0,a0,%lo(.LC47)
	.loc 1 913 1
	addi	sp,sp,16
	.cfi_def_cfa_offset 0
	.loc 1 911 5
	tail	aos_cli_printf
.LVL300:
.L193:
	.cfi_restore_state
	.loc 1 900 13 is_stmt 1
	.loc 1 901 48 is_stmt 0
	slli	s0,s0,16
.LVL301:
	srli	s0,s0,16
	.loc 1 900 40
	lhu	a2,0(a0)
	.loc 1 901 46
	sh	s0,0(a0)
	.loc 1 902 40
	lhu	a3,0(a0)
	.loc 1 900 40
	slli	a2,a2,16
	srli	a2,a2,16
.LVL302:
	.loc 1 901 13 is_stmt 1
	.loc 1 902 13
	.loc 1 902 40 is_stmt 0
	slli	a3,a3,16
	srli	a3,a3,16
.LVL303:
	.loc 1 903 13 is_stmt 1
	j	.L195
	.cfi_endproc
.LFE22:
	.size	mmem_cmd, .-mmem_cmd
	.section	.text.pmem_cmd,"ax",@progbits
	.align	1
	.type	pmem_cmd, @function
pmem_cmd:
.LFB21:
	.loc 1 792 1
	.cfi_startproc
.LVL304:
	.loc 1 793 5
	.loc 1 794 5
	.loc 1 792 1 is_stmt 0
	addi	sp,sp,-64
	.cfi_def_cfa_offset 64
	sw	s3,44(sp)
	sw	ra,60(sp)
	sw	s0,56(sp)
	sw	s1,52(sp)
	sw	s2,48(sp)
	sw	s4,40(sp)
	sw	s5,36(sp)
	sw	s6,32(sp)
	sw	s7,28(sp)
	sw	s8,24(sp)
	.cfi_offset 19, -20
	.cfi_offset 1, -4
	.cfi_offset 8, -8
	.cfi_offset 9, -12
	.cfi_offset 18, -16
	.cfi_offset 20, -24
	.cfi_offset 21, -28
	.cfi_offset 22, -32
	.cfi_offset 23, -36
	.cfi_offset 24, -40
	.loc 1 794 11
	sw	zero,12(sp)
	.loc 1 795 5 is_stmt 1
.LVL305:
	.loc 1 796 5
	.loc 1 797 5
	.loc 1 799 5
	li	a5,3
	.loc 1 792 1 is_stmt 0
	mv	s3,a3
	.loc 1 799 5
	beq	a2,a5,.L223
	li	a5,4
	beq	a2,a5,.L203
	li	a5,2
	.loc 1 797 9
	li	s2,4
	.loc 1 796 9
	li	s1,16
	.loc 1 795 11
	li	s0,0
	.loc 1 799 5
	bne	a2,a5,.L205
.LVL306:
.L204:
	.loc 1 806 13 is_stmt 1
	.loc 1 808 13
	.loc 1 808 28 is_stmt 0
	lw	a0,4(s3)
	li	a2,0
	addi	a1,sp,12
	call	strtol
.LVL307:
	mv	s0,a0
.LVL308:
	.loc 1 809 13 is_stmt 1
.L205:
	.loc 1 814 5
	.loc 1 814 13 is_stmt 0
	lw	a5,12(sp)
	.loc 1 814 8
	beq	a5,zero,.L207
	.loc 1 814 20 discriminator 1
	lw	a4,4(s3)
	bne	a5,a4,.L208
.L207:
	.loc 1 815 9 is_stmt 1
	lui	a0,%hi(.LC48)
	addi	a0,a0,%lo(.LC48)
	call	aos_cli_printf
.LVL309:
	.loc 1 819 9
.L201:
	.loc 1 860 1 is_stmt 0
	lw	ra,60(sp)
	.cfi_remember_state
	.cfi_restore 1
	lw	s0,56(sp)
	.cfi_restore 8
	lw	s1,52(sp)
	.cfi_restore 9
.LVL310:
	lw	s2,48(sp)
	.cfi_restore 18
	lw	s3,44(sp)
	.cfi_restore 19
	lw	s4,40(sp)
	.cfi_restore 20
	lw	s5,36(sp)
	.cfi_restore 21
	lw	s6,32(sp)
	.cfi_restore 22
	lw	s7,28(sp)
	.cfi_restore 23
	lw	s8,24(sp)
	.cfi_restore 24
	addi	sp,sp,64
	.cfi_def_cfa_offset 0
	jr	ra
.LVL311:
.L203:
	.cfi_restore_state
	.loc 1 801 13 is_stmt 1
	.loc 1 801 21 is_stmt 0
	lw	a0,12(a3)
.LVL312:
	li	a2,0
.LVL313:
	li	a1,0
.LVL314:
	call	strtol
.LVL315:
	mv	s2,a0
.LVL316:
.L202:
	.loc 1 802 13 is_stmt 1
	.loc 1 804 13
	.loc 1 804 22 is_stmt 0
	lw	a0,8(s3)
	li	a2,0
	li	a1,0
	call	strtol
.LVL317:
	.loc 1 805 20
	li	a5,1024
	.loc 1 804 22
	mv	s1,a0
.LVL318:
	.loc 1 805 13 is_stmt 1
	.loc 1 805 20 is_stmt 0
	ble	a0,a5,.L204
	li	s1,1024
.LVL319:
	j	.L204
.LVL320:
.L223:
	.loc 1 797 9
	li	s2,4
	j	.L202
.LVL321:
.L208:
	.loc 1 822 5 is_stmt 1
	li	a5,1
	beq	s2,a5,.L225
	li	a5,2
	beq	s2,a5,.L226
	.loc 1 848 20 is_stmt 0
	li	s2,0
.LVL322:
	.loc 1 850 21
	lui	s4,%hi(.LC49)
	.loc 1 852 17
	lui	s5,%hi(.LC52)
	.loc 1 854 20
	li	s6,3
	.loc 1 855 21
	lui	s7,%hi(.LC12)
.LVL323:
.L212:
	.loc 1 848 13 discriminator 1
	bge	s2,s1,.L201
	.loc 1 849 17 is_stmt 1
	.loc 1 849 27 is_stmt 0
	andi	s3,s2,3
	.loc 1 849 20
	bne	s3,zero,.L220
	.loc 1 850 21 is_stmt 1
	mv	a1,s0
	addi	a0,s4,%lo(.LC49)
	call	aos_cli_printf
.LVL324:
.L220:
	.loc 1 852 17
	lw	a1,0(s0)
	addi	a0,s5,%lo(.LC52)
	.loc 1 853 22 is_stmt 0
	addi	s0,s0,4
.LVL325:
	.loc 1 852 17
	call	aos_cli_printf
.LVL326:
	.loc 1 853 17 is_stmt 1
	.loc 1 854 17
	.loc 1 854 20 is_stmt 0
	bne	s3,s6,.L221
	.loc 1 855 21 is_stmt 1
	addi	a0,s7,%lo(.LC12)
	call	aos_cli_printf
.LVL327:
.L221:
	.loc 1 848 38 is_stmt 0 discriminator 2
	addi	s2,s2,1
.LVL328:
	j	.L212
.LVL329:
.L215:
	.loc 1 825 17 is_stmt 1
	.loc 1 825 28 is_stmt 0
	andi	s3,s2,15
	add	s4,s0,s2
	.loc 1 825 20
	bne	s3,zero,.L213
	.loc 1 826 21 is_stmt 1
	mv	a1,s4
	addi	a0,s5,%lo(.LC49)
	call	aos_cli_printf
.LVL330:
.L213:
	.loc 1 828 17
	lbu	a1,0(s4)
	addi	a0,s6,%lo(.LC50)
	call	aos_cli_printf
.LVL331:
	.loc 1 829 17
	.loc 1 830 17
	.loc 1 830 20 is_stmt 0
	bne	s3,s7,.L214
	.loc 1 831 21 is_stmt 1
	addi	a0,s8,%lo(.LC12)
	call	aos_cli_printf
.LVL332:
.L214:
	.loc 1 824 38 is_stmt 0 discriminator 2
	addi	s2,s2,1
.LVL333:
.L210:
	.loc 1 824 13 discriminator 1
	blt	s2,s1,.L215
	j	.L201
.LVL334:
.L225:
	.loc 1 824 20
	li	s2,0
.LVL335:
	.loc 1 826 21
	lui	s5,%hi(.LC49)
	.loc 1 828 17
	lui	s6,%hi(.LC50)
	.loc 1 830 20
	li	s7,15
	.loc 1 831 21
	lui	s8,%hi(.LC12)
	j	.L210
.LVL336:
.L218:
	.loc 1 837 17 is_stmt 1
	.loc 1 837 27 is_stmt 0
	andi	s3,s2,7
	.loc 1 837 20
	bne	s3,zero,.L216
	.loc 1 838 21 is_stmt 1
	mv	a1,s0
	addi	a0,s4,%lo(.LC49)
	call	aos_cli_printf
.LVL337:
.L216:
	.loc 1 840 17
	lhu	a1,0(s0)
	addi	a0,s5,%lo(.LC51)
	.loc 1 841 22 is_stmt 0
	addi	s0,s0,2
.LVL338:
	.loc 1 840 17
	call	aos_cli_printf
.LVL339:
	.loc 1 841 17 is_stmt 1
	.loc 1 842 17
	.loc 1 842 20 is_stmt 0
	bne	s3,s6,.L217
	.loc 1 843 21 is_stmt 1
	addi	a0,s7,%lo(.LC12)
	call	aos_cli_printf
.LVL340:
.L217:
	.loc 1 836 38 is_stmt 0 discriminator 2
	addi	s2,s2,1
.LVL341:
.L211:
	.loc 1 836 13 discriminator 1
	blt	s2,s1,.L218
	j	.L201
.LVL342:
.L226:
	.loc 1 836 20
	li	s2,0
.LVL343:
	.loc 1 838 21
	lui	s4,%hi(.LC49)
	.loc 1 840 17
	lui	s5,%hi(.LC51)
	.loc 1 842 20
	li	s6,7
	.loc 1 843 21
	lui	s7,%hi(.LC12)
	j	.L211
	.cfi_endproc
.LFE21:
	.size	pmem_cmd, .-pmem_cmd
	.section	.text.help_cmd,"ax",@progbits
	.align	1
	.type	help_cmd, @function
help_cmd:
.LFB16:
	.loc 1 706 1 is_stmt 1
	.cfi_startproc
.LVL344:
	.loc 1 707 5
	.loc 1 708 5
	.loc 1 710 5
	lui	a0,%hi(.LC54)
.LVL345:
	.loc 1 706 1 is_stmt 0
	addi	sp,sp,-32
	.cfi_def_cfa_offset 32
	.loc 1 710 5
	addi	a0,a0,%lo(.LC54)
	.loc 1 706 1
	sw	ra,28(sp)
	sw	s0,24(sp)
	sw	s1,20(sp)
	sw	s2,16(sp)
	sw	s3,12(sp)
	sw	s4,8(sp)
	sw	s5,4(sp)
	sw	s6,0(sp)
	.cfi_offset 1, -4
	.cfi_offset 8, -8
	.cfi_offset 9, -12
	.cfi_offset 18, -16
	.cfi_offset 19, -20
	.cfi_offset 20, -24
	.cfi_offset 21, -28
	.cfi_offset 22, -32
	.loc 1 710 5
	call	aos_cli_printf
.LVL346:
	.loc 1 711 5 is_stmt 1
	lui	s1,%hi(.LANCHOR5)
	lui	a0,%hi(.LC55)
	addi	s0,s1,%lo(.LANCHOR5)
	li	a1,4
	addi	a0,a0,%lo(.LC55)
	lui	s3,%hi(.LANCHOR5+192)
.LBB40:
	.loc 1 717 13 is_stmt 0
	lui	s2,%hi(.LC53)
.LBE40:
	.loc 1 711 5
	call	aos_cli_printf
.LVL347:
	.loc 1 714 5 is_stmt 1
	addi	s4,s0,192
	addi	s1,s1,%lo(.LANCHOR5)
	addi	s3,s3,%lo(.LANCHOR5+192)
.LBB41:
	.loc 1 717 13 is_stmt 0
	lui	s5,%hi(.LC56)
	addi	s2,s2,%lo(.LC53)
.LVL348:
.L234:
	.loc 1 715 9 is_stmt 1
	.loc 1 716 9
	.loc 1 716 16 is_stmt 0
	lw	a1,0(s0)
	.loc 1 716 12
	beq	a1,zero,.L232
	.loc 1 717 13 is_stmt 1
	.loc 1 718 31 is_stmt 0
	lw	a2,4(s0)
	.loc 1 717 13
	bne	a2,zero,.L233
	mv	a2,s2
.L233:
	.loc 1 717 13 discriminator 4
	addi	a0,s5,%lo(.LC56)
	call	aos_cli_printf
.LVL349:
.L232:
	addi	s0,s0,12
.LBE41:
	.loc 1 714 5 discriminator 2
	bne	s0,s4,.L234
	.loc 1 721 5 is_stmt 1
	lui	a0,%hi(.LC12)
	addi	a0,a0,%lo(.LC12)
	call	aos_cli_printf
.LVL350:
	.loc 1 722 5
	lui	a0,%hi(.LC57)
	addi	a0,a0,%lo(.LC57)
.LBB42:
	.loc 1 729 13 is_stmt 0
	lui	s4,%hi(.LC53)
.LBE42:
	.loc 1 722 5
	call	aos_cli_printf
.LVL351:
	.loc 1 723 5 is_stmt 1
	.loc 1 723 19 is_stmt 0
	li	s2,16
	.loc 1 723 12
	li	s0,0
	.loc 1 723 44
	lui	s5,%hi(.LANCHOR0)
.LBB43:
	.loc 1 729 13
	lui	s6,%hi(.LC56)
	addi	s4,s4,%lo(.LC53)
.LVL352:
.L235:
.LBE43:
	.loc 1 723 44 discriminator 1
	lw	a4,%lo(.LANCHOR0)(s5)
	.loc 1 723 62 discriminator 1
	lw	a5,44(a4)
	addi	a5,a5,8
	.loc 1 723 5 discriminator 1
	bleu	a5,s0,.L231
	.loc 1 723 66 discriminator 3
	lw	a5,48(a4)
	bgtu	a5,s2,.L240
.L231:
	.loc 1 734 1
	lw	ra,28(sp)
	.cfi_remember_state
	.cfi_restore 1
	lw	s0,24(sp)
	.cfi_restore 8
.LVL353:
	lw	s1,20(sp)
	.cfi_restore 9
	lw	s2,16(sp)
	.cfi_restore 18
.LVL354:
	lw	s3,12(sp)
	.cfi_restore 19
	lw	s4,8(sp)
	.cfi_restore 20
	lw	s5,4(sp)
	.cfi_restore 21
	lw	s6,0(sp)
	.cfi_restore 22
	addi	sp,sp,32
	.cfi_def_cfa_offset 0
	jr	ra
.LVL355:
.L240:
	.cfi_restore_state
.LBB44:
	.loc 1 724 9 is_stmt 1
	.loc 1 724 41 is_stmt 0
	li	a1,0
	mv	a0,s0
	call	cli_command_get
.LVL356:
	.loc 1 725 9 is_stmt 1
	.loc 1 725 12 is_stmt 0
	bltu	a0,s1,.L236
	.loc 1 725 30 discriminator 1
	bltu	a0,s3,.L237
.L236:
	.loc 1 728 9 is_stmt 1
	.loc 1 728 16 is_stmt 0
	lw	a1,0(a0)
	.loc 1 728 12
	beq	a1,zero,.L237
	.loc 1 729 13 is_stmt 1
	.loc 1 730 31 is_stmt 0
	lw	a2,4(a0)
	.loc 1 729 13
	bne	a2,zero,.L238
	mv	a2,s4
.L238:
	.loc 1 729 13 discriminator 4
	addi	a0,s6,%lo(.LC56)
.LVL357:
	call	aos_cli_printf
.LVL358:
	.loc 1 731 13 is_stmt 1 discriminator 4
	.loc 1 731 14 is_stmt 0 discriminator 4
	addi	s2,s2,1
.LVL359:
.L237:
.LBE44:
	.loc 1 723 93 discriminator 2
	addi	s0,s0,1
.LVL360:
	j	.L235
	.cfi_endproc
.LFE16:
	.size	help_cmd, .-help_cmd
	.section	.text.cli_getchar,"ax",@progbits
	.align	1
	.globl	cli_getchar
	.type	cli_getchar, @function
cli_getchar:
.LFB49:
	.loc 1 1414 1 is_stmt 1
	.cfi_startproc
.LVL361:
	.loc 1 1415 5
	.loc 1 1416 5
	.loc 1 1414 1 is_stmt 0
	addi	sp,sp,-336
	.cfi_def_cfa_offset 336
	sw	s0,328(sp)
	.loc 1 1419 5
	li	a2,304
	.cfi_offset 8, -8
	.loc 1 1414 1
	mv	s0,a0
	.loc 1 1419 5
	li	a1,0
	addi	a0,sp,16
.LVL362:
	.loc 1 1414 1
	sw	ra,332(sp)
	.cfi_offset 1, -4
	.loc 1 1416 14
	sw	zero,12(sp)
	.loc 1 1417 5 is_stmt 1
	.loc 1 1419 5
	call	memset
.LVL363:
	.loc 1 1420 5
	.loc 1 1422 11 is_stmt 0
	li	a4,-1
	addi	a3,sp,12
	li	a2,1
	mv	a1,s0
	addi	a0,sp,16
	.loc 1 1420 21
	sb	zero,16(sp)
	.loc 1 1422 5 is_stmt 1
	.loc 1 1422 11 is_stmt 0
	call	hal_uart_recv_II
.LVL364:
	.loc 1 1424 5 is_stmt 1
	.loc 1 1424 8 is_stmt 0
	bne	a0,zero,.L253
	.loc 1 1424 20 discriminator 1
	lw	a0,12(sp)
.LVL365:
	addi	a0,a0,-1
	seqz	a0,a0
.L251:
	.loc 1 1429 1
	lw	ra,332(sp)
	.cfi_remember_state
	.cfi_restore 1
	lw	s0,328(sp)
	.cfi_restore 8
.LVL366:
	addi	sp,sp,336
	.cfi_def_cfa_offset 0
	jr	ra
.LVL367:
.L253:
	.cfi_restore_state
	.loc 1 1427 16
	li	a0,0
.LVL368:
	j	.L251
	.cfi_endproc
.LFE49:
	.size	cli_getchar, .-cli_getchar
	.section	.text.cli_main_input,"ax",@progbits
	.align	1
	.type	cli_main_input, @function
cli_main_input:
.LFB15:
	.loc 1 622 1 is_stmt 1
	.cfi_startproc
.LVL369:
	.loc 1 623 5
	.loc 1 624 5
	.loc 1 626 5
	.loc 1 622 1 is_stmt 0
	addi	sp,sp,-112
	.cfi_def_cfa_offset 112
	sw	s1,100(sp)
	.cfi_offset 9, -12
	.loc 1 626 22
	lui	s1,%hi(.LANCHOR0)
	.loc 1 622 1
	sw	s9,68(sp)
	.cfi_offset 25, -44
	.loc 1 626 22
	lw	s9,%lo(.LANCHOR0)(s1)
	.loc 1 622 1
	sw	s0,104(sp)
	sw	ra,108(sp)
	sw	s2,96(sp)
	sw	s3,92(sp)
	sw	s4,88(sp)
	sw	s5,84(sp)
	sw	s6,80(sp)
	sw	s7,76(sp)
	sw	s8,72(sp)
	sw	s10,64(sp)
	sw	s11,60(sp)
	.cfi_offset 8, -8
	.cfi_offset 1, -4
	.cfi_offset 18, -16
	.cfi_offset 19, -20
	.cfi_offset 20, -24
	.cfi_offset 21, -28
	.cfi_offset 22, -32
	.cfi_offset 23, -36
	.cfi_offset 24, -40
	.cfi_offset 26, -48
	.cfi_offset 27, -52
	.loc 1 622 1
	sw	a1,8(sp)
	.loc 1 626 22
	addi	s0,s9,56
.LVL370:
.LBB62:
.LBB63:
	.loc 1 456 5 is_stmt 1
	.loc 1 457 5
	.loc 1 458 5
	.loc 1 459 5
	.loc 1 459 8 is_stmt 0
	beq	s0,zero,.L371
	mv	s7,a0
	addi	s1,s1,%lo(.LANCHOR0)
	li	s4,0
.LBB64:
.LBB65:
	.loc 1 314 5
	lui	s8,%hi(.LC12)
.LVL371:
.L256:
.LBE65:
.LBE64:
	.loc 1 465 14
	beq	s7,zero,.L305
	lw	a5,8(sp)
	ble	a5,s4,.L255
	.loc 1 465 61
	add	a4,s7,s4
	.loc 1 465 50
	lbu	a4,0(a4)
	.loc 1 465 71
	addi	s4,s4,1
.LVL372:
	.loc 1 465 50
	sb	a4,32(sp)
.L307:
	.loc 1 466 9 is_stmt 1
	.loc 1 466 15 is_stmt 0
	lbu	a4,32(sp)
	.loc 1 466 12
	li	a3,10
	beq	a4,a3,.L258
	.loc 1 466 23
	li	a3,13
	bne	a4,a3,.L259
.L258:
	.loc 1 467 13 is_stmt 1
	.loc 1 467 24 is_stmt 0
	lw	a4,52(s9)
.LBE63:
.LBE62:
.LBB88:
.LBB89:
	.loc 1 627 13
	lw	s2,0(s1)
.LBE89:
.LBE88:
.LBB104:
.LBB83:
	.loc 1 467 24
	add	s0,s0,a4
.LVL373:
	sb	zero,0(s0)
	.loc 1 468 13 is_stmt 1
.LBE83:
.LBE104:
.LBB105:
.LBB100:
	.loc 1 627 13 is_stmt 0
	addi	s2,s2,56
.LBE100:
.LBE105:
.LBB106:
.LBB84:
	.loc 1 468 17
	sw	zero,52(s9)
	.loc 1 469 13 is_stmt 1
.LVL374:
.LBE84:
.LBE106:
.LBB107:
.LBB101:
	.loc 1 627 9
	.loc 1 634 9
	.loc 1 634 13 is_stmt 0
	mv	a0,s2
	call	strlen
.LVL375:
	.loc 1 634 12
	bne	a0,zero,.L260
.L311:
	.loc 1 639 9 is_stmt 1
.LVL376:
.LBB90:
.LBB91:
	.loc 1 195 5
	.loc 1 201 5
	.loc 1 202 5
	.loc 1 211 5 is_stmt 0
	lui	s1,%hi(.LANCHOR6)
	li	a2,256
	li	a1,0
	addi	a0,s1,%lo(.LANCHOR6)
	.loc 1 202 9
	sw	zero,32(sp)
	sw	zero,36(sp)
	sw	zero,40(sp)
	sw	zero,44(sp)
	.loc 1 206 5 is_stmt 1
.LVL377:
	.loc 1 207 5
	.loc 1 208 5
	.loc 1 209 5
	.loc 1 211 5
	call	memset
.LVL378:
	.loc 1 212 5
	li	a2,16
	li	a1,0
	addi	a0,sp,32
.LVL379:
	call	memset
.LVL380:
	.loc 1 213 5
	li	a2,4
	li	a1,0
	addi	a0,sp,28
	call	memset
.LVL381:
	.loc 1 208 9 is_stmt 0
	li	a5,0
	.loc 1 207 10
	addi	s11,sp,32
.LVL382:
	.loc 1 206 9
	li	s8,0
	.loc 1 216 9
	li	s6,32
	.loc 1 255 20
	li	s3,1
	.loc 1 250 27
	li	s4,92
	.loc 1 287 51
	addi	s7,s1,%lo(.LANCHOR6)
.LVL383:
	.loc 1 233 20
	li	s9,2
	.loc 1 242 27
	li	s5,3
	.loc 1 216 9
	li	s10,59
.LVL384:
.L261:
	.loc 1 215 5 is_stmt 1
	.loc 1 216 9
	.loc 1 216 22 is_stmt 0
	add	s0,s2,a5
	lbu	a3,0(s0)
	.loc 1 216 9
	beq	a3,s6,.L313
	bgtu	a3,s6,.L314
	beq	a3,zero,.L315
.L316:
	.loc 1 284 17 is_stmt 1
	.loc 1 284 21 is_stmt 0
	lbu	a3,28(sp)
	.loc 1 284 20
	andi	a2,a3,1
	bne	a2,zero,.L320
	.loc 1 285 21 is_stmt 1
	.loc 1 286 22 is_stmt 0
	lw	a2,0(s11)
	.loc 1 285 32
	ori	a3,a3,1
	sb	a3,28(sp)
	.loc 1 286 21 is_stmt 1
	.loc 1 286 29 is_stmt 0
	addi	a3,a2,1
	sw	a3,0(s11)
	.loc 1 287 21 is_stmt 1
	.loc 1 287 51 is_stmt 0
	slli	a3,s8,4
	add	a3,a3,a2
	slli	a3,a3,2
	add	a3,s7,a3
	sw	s0,0(a3)
	j	.L320
.LVL385:
.L371:
.LBE91:
.LBE90:
.LBE101:
.LBE107:
.LBB108:
.LBB85:
	.loc 1 460 9 is_stmt 1
	lui	a0,%hi(.LC58)
.LVL386:
	addi	a0,a0,%lo(.LC58)
.LVL387:
.L380:
.LBE85:
.LBE108:
.LBB109:
.LBB102:
	.loc 1 649 9 is_stmt 0
	call	aos_cli_printf
.LVL388:
.LBE102:
.LBE109:
	.loc 1 651 1
	j	.L255
.LVL389:
.L259:
.LBB110:
.LBB86:
	.loc 1 472 9 is_stmt 1
	lui	a5,%hi(.LANCHOR7)
	.loc 1 472 12 is_stmt 0
	li	a0,27
	addi	s2,a5,%lo(.LANCHOR7)
	bne	a4,a0,.L262
	.loc 1 473 13 is_stmt 1
	.loc 1 473 17 is_stmt 0
	li	a4,1
	.loc 1 474 18
	lui	a3,%hi(.LANCHOR8)
	.loc 1 473 17
	sb	a4,0(s2)
	.loc 1 474 13 is_stmt 1
	.loc 1 474 18 is_stmt 0
	li	a4,-1
	sb	a4,%lo(.LANCHOR8)(a3)
	.loc 1 475 13 is_stmt 1
	.loc 1 475 18 is_stmt 0
	lui	a3,%hi(.LANCHOR9)
	sb	a4,%lo(.LANCHOR9)(a3)
	.loc 1 476 13 is_stmt 1
	j	.L256
.L262:
	.loc 1 479 9
	.loc 1 479 12 is_stmt 0
	lb	a3,0(s2)
	beq	a3,zero,.L264
	.loc 1 480 13 is_stmt 1
	.loc 1 480 22 is_stmt 0
	lui	a3,%hi(.LANCHOR8)
	addi	a3,a3,%lo(.LANCHOR8)
	lb	a1,0(a3)
	.loc 1 480 16
	bge	a1,zero,.L265
	.loc 1 481 17 is_stmt 1
	.loc 1 481 22 is_stmt 0
	slli	a1,a4,24
	srai	a1,a1,24
	sb	a1,0(a3)
	.loc 1 482 17 is_stmt 1
	.loc 1 482 20 is_stmt 0
	li	a3,91
	beq	a1,a3,.L256
	.loc 1 484 21 is_stmt 1
	.loc 1 484 34 is_stmt 0
	lw	a3,52(s9)
	add	a3,s0,a3
	sb	a0,0(a3)
	.loc 1 485 21 is_stmt 1
	.loc 1 485 26 is_stmt 0
	lw	a3,52(s9)
	addi	a3,a3,1
	sw	a3,52(s9)
	.loc 1 486 21 is_stmt 1
	.loc 1 486 32 is_stmt 0
	add	a3,s0,a3
	sb	a4,0(a3)
	.loc 1 487 21 is_stmt 1
	.loc 1 487 26 is_stmt 0
	lw	a4,52(s9)
	addi	a4,a4,1
	sw	a4,52(s9)
	.loc 1 488 21 is_stmt 1
	.loc 1 488 29 is_stmt 0
	lw	a4,0(s1)
	.loc 1 488 24
	lw	a4,4(a4)
	bne	a4,zero,.L375
	.loc 1 489 25 is_stmt 1
	lui	a0,%hi(.LC59)
	addi	a0,a0,%lo(.LC59)
.L373:
	call	printf
.LVL390:
	.loc 1 490 25
	.loc 1 490 29
	.loc 1 492 21
.L375:
	.loc 1 520 17
	.loc 1 520 21 is_stmt 0
	sb	zero,0(s2)
	.loc 1 521 17 is_stmt 1
	j	.L256
.L265:
	.loc 1 497 13
	.loc 1 497 22 is_stmt 0
	lui	a3,%hi(.LANCHOR9)
	.loc 1 497 16
	lb	a2,%lo(.LANCHOR9)(a3)
	addi	a3,a3,%lo(.LANCHOR9)
	bge	a2,zero,.L270
	.loc 1 498 17 is_stmt 1
	.loc 1 498 22 is_stmt 0
	slli	a2,a4,24
	srai	a2,a2,24
	sb	a2,0(a3)
	.loc 1 499 17 is_stmt 1
	.loc 1 499 20 is_stmt 0
	li	a6,116
	bne	a2,a6,.L270
	.loc 1 500 21 is_stmt 1
	.loc 1 500 32 is_stmt 0
	lui	a2,%hi(.LANCHOR2)
	addi	a2,a2,%lo(.LANCHOR2)
	sb	a0,0(a2)
	.loc 1 501 21 is_stmt 1
	.loc 1 501 32 is_stmt 0
	sb	a1,1(a2)
	.loc 1 502 21 is_stmt 1
	.loc 1 502 33 is_stmt 0
	li	a0,2
	lui	a2,%hi(.LANCHOR4)
	sb	a0,%lo(.LANCHOR4)(a2)
.L270:
	.loc 1 506 13 is_stmt 1
	.loc 1 506 30 is_stmt 0
	lb	a2,0(a3)
	.loc 1 506 16
	li	a6,1
	.loc 1 506 30
	andi	a0,a2,0xff
	addi	a3,a0,-65
	.loc 1 506 16
	andi	a3,a3,0xff
	bleu	a3,a6,.L272
	lui	a6,%hi(.LANCHOR2)
	lui	s3,%hi(.LANCHOR4)
	.loc 1 506 46
	li	a3,116
	addi	s5,a6,%lo(.LANCHOR2)
	addi	s3,s3,%lo(.LANCHOR4)
	beq	a2,a3,.L273
	.loc 1 508 17 is_stmt 1
	.loc 1 508 30 is_stmt 0
	lw	a4,52(s9)
	li	a3,27
	add	a4,s0,a4
	sb	a3,0(a4)
	.loc 1 509 17 is_stmt 1
	.loc 1 509 22 is_stmt 0
	lw	a4,52(s9)
	addi	a4,a4,1
	sw	a4,52(s9)
	.loc 1 510 17 is_stmt 1
	.loc 1 510 28 is_stmt 0
	add	a4,s0,a4
	sb	a1,0(a4)
	.loc 1 511 17 is_stmt 1
	.loc 1 511 22 is_stmt 0
	lw	a4,52(s9)
	addi	a4,a4,1
	sw	a4,52(s9)
	.loc 1 512 17 is_stmt 1
	.loc 1 512 28 is_stmt 0
	add	a4,s0,a4
	sb	a0,0(a4)
	.loc 1 513 17 is_stmt 1
	.loc 1 513 22 is_stmt 0
	lw	a4,52(s9)
	addi	a4,a4,1
	sw	a4,52(s9)
	.loc 1 514 17 is_stmt 1
	.loc 1 514 25 is_stmt 0
	lw	a4,0(s1)
	.loc 1 514 20
	lw	a4,4(a4)
	bne	a4,zero,.L274
	.loc 1 515 21 is_stmt 1
	lui	a0,%hi(.LC60)
	addi	a0,a0,%lo(.LC60)
	call	printf
.LVL391:
.L274:
	.loc 1 516 21
	.loc 1 516 25
	.loc 1 518 17
	.loc 1 518 28 is_stmt 0
	sb	zero,0(s5)
	.loc 1 519 17 is_stmt 1
	.loc 1 519 29 is_stmt 0
	sb	zero,0(s3)
	j	.L375
.L272:
	.loc 1 532 13 is_stmt 1
	.loc 1 532 16 is_stmt 0
	li	a4,65
	bne	a2,a4,.L275
	.loc 1 533 17 is_stmt 1
.LVL392:
.LBB71:
.LBB72:
	.loc 1 394 5
	.loc 1 395 5
	.loc 1 397 5
	.loc 1 397 20 is_stmt 0
	lw	a0,0(s1)
	.loc 1 398 11
	li	a2,256
	.loc 1 397 15
	lw	a3,316(a0)
.LVL393:
	.loc 1 398 5 is_stmt 1
	.loc 1 398 31 is_stmt 0
	addi	a4,a3,255
.L374:
	.loc 1 401 15
	rem	a4,a4,a2
.LVL394:
	.loc 1 400 25
	add	a1,a0,a4
	.loc 1 400 11
	lbu	a1,324(a1)
	bne	a1,zero,.L277
	.loc 1 400 42
	bne	a3,a4,.L278
.L279:
	.loc 1 409 5 is_stmt 1
	.loc 1 409 18 is_stmt 0
	sw	a4,316(a0)
	.loc 1 411 5 is_stmt 1
	.loc 1 414 19 is_stmt 0
	li	a1,256
	.loc 1 409 18
	mv	a4,s0
.LVL395:
.L281:
	.loc 1 411 24
	add	a2,a0,a3
	lbu	a2,324(a2)
	.loc 1 411 11
	bne	a2,zero,.L282
.LVL396:
.L381:
.LBE72:
.LBE71:
.LBB74:
.LBB75:
	.loc 1 444 5 is_stmt 1
.LBE75:
.LBE74:
	.loc 1 544 17 is_stmt 0
	lui	a0,%hi(.LC61)
.LBB78:
.LBB76:
	.loc 1 444 13
	sb	zero,0(a4)
	.loc 1 446 5 is_stmt 1
.LBE76:
.LBE78:
	.loc 1 544 17
	mv	a1,s0
	addi	a0,a0,%lo(.LC61)
	call	printf
.LVL397:
	.loc 1 545 17
	.loc 1 545 23 is_stmt 0
	mv	a0,s0
	call	strlen
.LVL398:
	.loc 1 546 28
	lui	a4,%hi(.LANCHOR2)
	.loc 1 545 21
	sw	a0,52(s9)
	.loc 1 546 17 is_stmt 1
	.loc 1 546 28 is_stmt 0
	sb	zero,%lo(.LANCHOR2)(a4)
	.loc 1 547 17 is_stmt 1
	.loc 1 547 29 is_stmt 0
	lui	a4,%hi(.LANCHOR4)
	sb	zero,%lo(.LANCHOR4)(a4)
	.loc 1 548 17 is_stmt 1
	j	.L375
.LVL399:
.L278:
.LBB79:
.LBB73:
	.loc 1 401 9
	.loc 1 401 28 is_stmt 0
	addi	a4,a4,255
.LVL400:
	j	.L374
.LVL401:
.L277:
	.loc 1 403 5 is_stmt 1
	.loc 1 403 8 is_stmt 0
	beq	a3,a4,.L279
	.loc 1 405 19
	li	a2,256
.L280:
	.loc 1 405 13 is_stmt 1
	.loc 1 405 32 is_stmt 0
	addi	a4,a4,255
.LVL402:
	.loc 1 405 19
	rem	a4,a4,a2
.LVL403:
	.loc 1 404 28
	add	a1,a0,a4
	.loc 1 404 15
	lbu	a1,324(a1)
	bne	a1,zero,.L280
	.loc 1 407 9 is_stmt 1
	.loc 1 407 24 is_stmt 0
	addi	a4,a4,1
.LVL404:
	.loc 1 407 15
	rem	a4,a4,a2
.LVL405:
	j	.L279
.LVL406:
.L282:
	.loc 1 413 9 is_stmt 1
	.loc 1 413 16 is_stmt 0
	addi	a4,a4,1
.LVL407:
	.loc 1 414 32
	addi	a3,a3,1
.LVL408:
	.loc 1 413 19
	sb	a2,-1(a4)
	.loc 1 414 9 is_stmt 1
	.loc 1 414 19 is_stmt 0
	rem	a3,a3,a1
.LVL409:
	j	.L281
.LVL410:
.L275:
.LBE73:
.LBE79:
	.loc 1 542 13 is_stmt 1
	.loc 1 543 17
.LBB80:
.LBB77:
	.loc 1 423 5
	.loc 1 424 5
	.loc 1 426 5
	.loc 1 426 20 is_stmt 0
	lw	a2,0(s1)
	.loc 1 430 15
	li	a0,256
	.loc 1 426 15
	lw	a3,316(a2)
.LVL411:
	.loc 1 427 5 is_stmt 1
	.loc 1 429 5
	.loc 1 426 15 is_stmt 0
	mv	a4,a3
.LVL412:
.L283:
	.loc 1 429 25
	add	a1,a2,a4
	.loc 1 429 11
	lbu	a1,324(a1)
	bne	a1,zero,.L284
	.loc 1 432 5 is_stmt 1
	.loc 1 432 8 is_stmt 0
	beq	a3,a4,.L285
	.loc 1 434 19
	li	a0,256
.L286:
	.loc 1 434 13 is_stmt 1
	.loc 1 434 28 is_stmt 0
	addi	a4,a4,1
.LVL413:
	.loc 1 434 19
	rem	a4,a4,a0
.LVL414:
	.loc 1 433 28
	add	a1,a2,a4
	.loc 1 433 15
	lbu	a1,324(a1)
	beq	a1,zero,.L286
.L285:
	.loc 1 437 5 is_stmt 1
	.loc 1 437 18 is_stmt 0
	sw	a4,316(a2)
	.loc 1 439 5 is_stmt 1
	.loc 1 441 19 is_stmt 0
	li	a0,256
	.loc 1 437 18
	mv	a4,s0
.LVL415:
.L287:
	.loc 1 439 24
	add	a1,a2,a3
	lbu	a1,324(a1)
	.loc 1 439 11
	beq	a1,zero,.L381
	.loc 1 440 9 is_stmt 1
	.loc 1 440 16 is_stmt 0
	addi	a4,a4,1
.LVL416:
	.loc 1 441 32
	addi	a3,a3,1
.LVL417:
	.loc 1 440 19
	sb	a1,-1(a4)
	.loc 1 441 9 is_stmt 1
	.loc 1 441 19 is_stmt 0
	rem	a3,a3,a0
.LVL418:
	j	.L287
.LVL419:
.L284:
	.loc 1 430 9 is_stmt 1
	.loc 1 430 24 is_stmt 0
	addi	a4,a4,1
.LVL420:
	.loc 1 430 15
	rem	a4,a4,a0
.LVL421:
	j	.L283
.LVL422:
.L273:
.LBE77:
.LBE80:
	.loc 1 554 13 is_stmt 1
	.loc 1 554 29 is_stmt 0
	lbu	a3,0(s3)
	.loc 1 554 16
	li	a2,63
	bleu	a3,a2,.L289
	.loc 1 555 17 is_stmt 1
	.loc 1 558 17 is_stmt 0
	lui	a0,%hi(.LC62)
	addi	a0,a0,%lo(.LC62)
	.loc 1 555 28
	sb	zero,0(s5)
	.loc 1 556 17 is_stmt 1
	.loc 1 556 29 is_stmt 0
	sb	zero,0(s3)
	.loc 1 557 17 is_stmt 1
	.loc 1 557 21 is_stmt 0
	sb	zero,0(s2)
	.loc 1 558 17 is_stmt 1
	call	printf
.LVL423:
	.loc 1 559 17
	.loc 1 559 21
	.loc 1 560 17
	j	.L256
.L289:
	.loc 1 562 13
	.loc 1 562 32 is_stmt 0
	addi	a2,a3,1
	.loc 1 562 36
	add	a1,s5,a3
	.loc 1 562 32
	andi	a2,a2,0xff
	.loc 1 562 36
	sb	a4,0(a1)
	.loc 1 563 13 is_stmt 1
	.loc 1 562 32 is_stmt 0
	sb	a2,0(s3)
	.loc 1 563 16
	li	a1,109
	bne	a4,a1,.L256
	.loc 1 564 17 is_stmt 1
	.loc 1 565 25 is_stmt 0
	lw	a4,0(s1)
	.loc 1 564 40
	add	s5,s5,a2
	sb	zero,0(s5)
	.loc 1 565 17 is_stmt 1
	.loc 1 565 20 is_stmt 0
	lw	a4,4(a4)
	.loc 1 564 36
	addi	a3,a3,2
	sb	a3,0(s3)
	.loc 1 565 20
	bne	a4,zero,.L375
	.loc 1 566 21 is_stmt 1
	lui	a0,%hi(.LC17)
	addi	a1,a6,%lo(.LANCHOR2)
	addi	a0,a0,%lo(.LC17)
	j	.L373
.L264:
	.loc 1 574 9
	.loc 1 574 20 is_stmt 0
	lw	a3,52(s9)
	add	a3,s0,a3
	sb	a4,0(a3)
	.loc 1 575 9 is_stmt 1
	.loc 1 575 12 is_stmt 0
	li	a3,8
	beq	a4,a3,.L291
	.loc 1 575 25
	li	a3,127
	bne	a4,a3,.L292
.L291:
	.loc 1 577 13 is_stmt 1
	.loc 1 577 17 is_stmt 0
	lw	a4,52(s9)
	.loc 1 577 16
	beq	a4,zero,.L256
	.loc 1 578 17 is_stmt 1
	.loc 1 578 22 is_stmt 0
	addi	a4,a4,-1
	sw	a4,52(s9)
	.loc 1 579 17 is_stmt 1
	.loc 1 579 25 is_stmt 0
	lw	a4,0(s1)
	.loc 1 579 20
	lw	a4,4(a4)
	bne	a4,zero,.L256
	.loc 1 580 21 is_stmt 1
	lui	a5,%hi(.LC63)
	li	a2,8
	li	a1,8
	addi	a0,a5,%lo(.LC63)
	call	printf
.LVL424:
	j	.L256
.L292:
	.loc 1 587 9
	.loc 1 587 12 is_stmt 0
	li	a3,9
	bne	a4,a3,.L293
	.loc 1 588 13 is_stmt 1
	.loc 1 588 24 is_stmt 0
	lw	a4,52(s9)
.LBB81:
.LBB69:
	.loc 1 314 5
	addi	a0,s8,%lo(.LC12)
	.loc 1 312 17
	li	s3,0
.LBE69:
.LBE81:
	.loc 1 588 24
	add	a4,s0,a4
	sb	zero,0(a4)
	.loc 1 589 13 is_stmt 1
.LVL425:
.LBB82:
.LBB70:
	.loc 1 311 5
	.loc 1 312 5
	.loc 1 314 5
	call	aos_cli_printf
.LVL426:
	.loc 1 317 5
	.loc 1 317 26 is_stmt 0
	li	s2,0
	.loc 1 317 19
	li	s6,0
	.loc 1 317 12
	li	s5,0
.LBB66:
	.loc 1 323 20
	li	s10,1
	.loc 1 325 27
	li	s11,2
.LVL427:
.L294:
.LBE66:
	.loc 1 317 38
	lw	a3,0(s1)
	.loc 1 317 56
	lw	a4,44(a3)
	addi	a4,a4,8
	.loc 1 317 5
	bgeu	s5,a4,.L298
	.loc 1 318 13
	lw	a4,48(a3)
	bgtu	a4,s6,.L299
.L298:
	.loc 1 335 5 is_stmt 1
	.loc 1 335 8 is_stmt 0
	li	a4,1
	bne	s2,a4,.L300
	.loc 1 335 16
	beq	s3,zero,.L302
	.loc 1 336 9 is_stmt 1
	.loc 1 336 13 is_stmt 0
	mv	a0,s3
	call	strlen
.LVL428:
	.loc 1 337 9 is_stmt 1
	.loc 1 337 12 is_stmt 0
	li	a4,255
	bgtu	a0,a4,.L302
	.loc 1 336 26
	lw	a4,52(s9)
	.loc 1 336 24
	sub	s2,a0,a4
.LVL429:
	.loc 1 338 13 is_stmt 1
	mv	a2,s2
	add	a1,s3,a4
	add	a0,s0,a4
.LVL430:
	call	memcpy
.LVL431:
	.loc 1 339 13
	.loc 1 339 17 is_stmt 0
	lw	a0,52(s9)
	add	s2,s2,a0
	.loc 1 340 13 is_stmt 1
	.loc 1 340 24 is_stmt 0
	addi	a4,s2,1
	sw	a4,52(s9)
	.loc 1 340 28
	add	s2,s0,s2
	li	a4,32
	sb	a4,0(s2)
	.loc 1 341 13 is_stmt 1
	.loc 1 341 24 is_stmt 0
	lw	a4,52(s9)
	add	a4,s0,a4
	sb	zero,0(a4)
.L302:
	.loc 1 349 5 is_stmt 1
	lui	a1,%hi(.LC66)
	lui	a0,%hi(.LC67)
	mv	a2,s0
	addi	a1,a1,%lo(.LC66)
	addi	a0,a0,%lo(.LC67)
	call	aos_cli_printf
.LVL432:
	j	.L256
.LVL433:
.L299:
.LBB67:
	.loc 1 319 9
	.loc 1 319 41 is_stmt 0
	li	a1,0
	mv	a0,s5
	call	cli_command_get
.LVL434:
	.loc 1 320 9 is_stmt 1
	.loc 1 320 16 is_stmt 0
	lw	a1,0(a0)
	sw	a0,12(sp)
	.loc 1 320 12
	beq	a1,zero,.L295
	.loc 1 321 13 is_stmt 1
	.loc 1 321 18 is_stmt 0
	lw	a2,52(s9)
	mv	a0,s0
.LVL435:
	call	strncmp
.LVL436:
	.loc 1 321 16
	bne	a0,zero,.L296
	.loc 1 322 17 is_stmt 1
	lw	a4,12(sp)
	.loc 1 322 18 is_stmt 0
	addi	s2,s2,1
.LVL437:
	.loc 1 323 17 is_stmt 1
	lw	a2,0(a4)
	.loc 1 323 20 is_stmt 0
	beq	s2,s10,.L333
	.loc 1 325 24 is_stmt 1
	.loc 1 325 27 is_stmt 0
	bne	s2,s11,.L297
	.loc 1 326 21 is_stmt 1
	lui	a5,%hi(.LC64)
	mv	a1,s3
	addi	a0,a5,%lo(.LC64)
	call	aos_cli_printf
.LVL438:
.L296:
	.loc 1 330 13
	.loc 1 330 14 is_stmt 0
	addi	s6,s6,1
.LVL439:
.L295:
.LBE67:
	.loc 1 318 40
	addi	s5,s5,1
.LVL440:
	j	.L294
.L297:
.LBB68:
	.loc 1 328 21 is_stmt 1
	lui	a5,%hi(.LC65)
	mv	a1,a2
	addi	a0,a5,%lo(.LC65)
	call	aos_cli_printf
.LVL441:
	j	.L296
.L333:
	.loc 1 324 24 is_stmt 0
	mv	s3,a2
.LVL442:
	j	.L296
.LVL443:
.L300:
.LBE68:
	.loc 1 344 5 is_stmt 1
	.loc 1 344 8 is_stmt 0
	ble	s2,a4,.L302
	.loc 1 345 9 is_stmt 1
	addi	a0,s8,%lo(.LC12)
	call	aos_cli_printf
.LVL444:
	j	.L302
.LVL445:
.L293:
.LBE70:
.LBE82:
	.loc 1 593 9
	.loc 1 593 17 is_stmt 0
	lw	a3,0(s1)
	.loc 1 593 12
	lw	a3,4(a3)
	bne	a3,zero,.L304
	.loc 1 594 13 is_stmt 1
	lui	a0,%hi(.LC11)
	mv	a1,a4
	addi	a0,a0,%lo(.LC11)
	call	printf
.LVL446:
.L304:
	.loc 1 595 13
	.loc 1 595 17
	.loc 1 598 9
	.loc 1 598 14 is_stmt 0
	lw	a4,52(s9)
	.loc 1 599 12
	li	a3,255
	.loc 1 598 14
	addi	a4,a4,1
	sw	a4,52(s9)
	.loc 1 599 9 is_stmt 1
	.loc 1 599 12 is_stmt 0
	bleu	a4,a3,.L256
	.loc 1 600 13 is_stmt 1
	lui	a0,%hi(.LC68)
	addi	a0,a0,%lo(.LC68)
	call	aos_cli_printf
.LVL447:
	.loc 1 601 13
	lui	a0,%hi(.LC66)
	addi	a0,a0,%lo(.LC66)
	call	aos_cli_printf
.LVL448:
	.loc 1 602 13
	.loc 1 602 17 is_stmt 0
	sw	zero,52(s9)
	.loc 1 603 13 is_stmt 1
.LVL449:
.L255:
.LBE86:
.LBE110:
	.loc 1 651 1 is_stmt 0
	lw	ra,108(sp)
	.cfi_remember_state
	.cfi_restore 1
	lw	s0,104(sp)
	.cfi_restore 8
	lw	s1,100(sp)
	.cfi_restore 9
	lw	s2,96(sp)
	.cfi_restore 18
	lw	s3,92(sp)
	.cfi_restore 19
	lw	s4,88(sp)
	.cfi_restore 20
	lw	s5,84(sp)
	.cfi_restore 21
	lw	s6,80(sp)
	.cfi_restore 22
	lw	s7,76(sp)
	.cfi_restore 23
	lw	s8,72(sp)
	.cfi_restore 24
	lw	s9,68(sp)
	.cfi_restore 25
	lw	s10,64(sp)
	.cfi_restore 26
	lw	s11,60(sp)
	.cfi_restore 27
	addi	sp,sp,112
	.cfi_def_cfa_offset 0
	jr	ra
.LVL450:
.L305:
	.cfi_restore_state
.LBB111:
.LBB87:
	.loc 1 465 86
	addi	a0,sp,32
	call	cli_getchar
.LVL451:
	.loc 1 465 11
	li	a4,1
	beq	a0,a4,.L307
	j	.L255
.LVL452:
.L260:
.LBE87:
.LBE111:
.LBB112:
.LBB103:
	.loc 1 635 13 is_stmt 1
.LBB94:
.LBB95:
	.loc 1 357 5
	.loc 1 357 11 is_stmt 0
	lw	s3,0(s1)
	addi	s3,s3,56
.LVL453:
	.loc 1 358 5 is_stmt 1
	.loc 1 358 19 is_stmt 0
	mv	a0,s3
	call	strlen
.LVL454:
	.loc 1 360 22
	lw	a5,0(s1)
	.loc 1 358 38
	addi	s5,a0,1
.LVL455:
	.loc 1 360 5 is_stmt 1
	.loc 1 361 9 is_stmt 0
	li	a4,256
	.loc 1 360 9
	lw	s0,320(a5)
.LVL456:
	.loc 1 361 5 is_stmt 1
	addi	a0,s0,324
	.loc 1 361 9 is_stmt 0
	sub	s4,a4,s0
.LVL457:
	.loc 1 362 5 is_stmt 1
	.loc 1 363 5
	.loc 1 365 5
	.loc 1 365 18 is_stmt 0
	sw	s0,316(a5)
	.loc 1 367 5 is_stmt 1
	add	s0,s5,s0
.LVL458:
	add	a0,a5,a0
	.loc 1 368 17 is_stmt 0
	addi	s0,s0,-1
	.loc 1 367 8
	bgt	s5,s4,.L308
	.loc 1 368 9 is_stmt 1
.LVL459:
	.loc 1 369 9
	.loc 1 369 18 is_stmt 0
	add	a5,a5,s0
.LVL460:
	lbu	s6,324(a5)
.LVL461:
	.loc 1 370 9 is_stmt 1
	mv	a2,s5
	mv	a1,s3
.LVL462:
.L376:
	.loc 1 376 9 is_stmt 0
	call	strncpy
.LVL463:
	.loc 1 378 5 is_stmt 1
	.loc 1 378 24 is_stmt 0
	addi	s0,s0,1
.LVL464:
	.loc 1 378 13
	li	a5,256
	rem	s0,s0,a5
.LVL465:
	.loc 1 379 5 is_stmt 1
	.loc 1 379 8 is_stmt 0
	lw	a4,0(s1)
	.loc 1 386 21
	li	a2,256
	.loc 1 379 18
	sw	s0,320(a4)
	.loc 1 382 5 is_stmt 1
	.loc 1 382 8 is_stmt 0
	beq	s6,zero,.L311
.L310:
	.loc 1 384 28
	add	a5,a4,s0
	.loc 1 384 15
	lbu	a3,324(a5)
	beq	a3,zero,.L311
	.loc 1 385 13 is_stmt 1
	.loc 1 386 32 is_stmt 0
	addi	s0,s0,1
.LVL466:
	.loc 1 385 35
	sb	zero,324(a5)
	.loc 1 386 13 is_stmt 1
	.loc 1 386 21 is_stmt 0
	rem	s0,s0,a2
.LVL467:
	j	.L310
.LVL468:
.L308:
	.loc 1 373 9 is_stmt 1
	.loc 1 373 17 is_stmt 0
	rem	s0,s0,a4
.LVL469:
	.loc 1 374 9 is_stmt 1
	.loc 1 375 9 is_stmt 0
	mv	a2,s4
	mv	a1,s3
	.loc 1 374 18
	add	a5,a5,s0
.LVL470:
	lbu	s6,324(a5)
.LVL471:
	.loc 1 375 9 is_stmt 1
	call	strncpy
.LVL472:
	.loc 1 376 9
	lw	a0,0(s1)
	sub	a2,s5,s4
	add	a1,s3,s4
	addi	a0,a0,324
	j	.L376
.LVL473:
.L314:
.LBE95:
.LBE94:
.LBB96:
.LBB92:
	.loc 1 216 9 is_stmt 0
	li	a4,34
	beq	a3,a4,.L317
	bne	a3,s10,.L316
	.loc 1 262 17 is_stmt 1
	lbu	a3,28(sp)
	.loc 1 262 20 is_stmt 0
	beq	a5,zero,.L324
	.loc 1 262 35
	addi	a6,a5,-1
	add	a7,s2,a6
	.loc 1 262 27
	lbu	a2,0(a7)
	bne	a2,s4,.L324
	.loc 1 262 51
	andi	a2,a3,1
	bne	a2,zero,.L379
.L324:
	.loc 1 267 17 is_stmt 1
	.loc 1 267 20 is_stmt 0
	andi	a3,a3,2
	bne	a3,zero,.L327
	.loc 1 270 17 is_stmt 1
	.loc 1 270 35 is_stmt 0
	lw	a3,28(sp)
	andi	a3,a3,3
	.loc 1 270 20
	bne	a3,s3,.L320
	.loc 1 271 21 is_stmt 1
	.loc 1 271 32 is_stmt 0
	lbu	a3,28(sp)
	andi	a3,a3,-2
	sb	a3,28(sp)
	.loc 1 272 21 is_stmt 1
	.loc 1 272 30 is_stmt 0
	sb	zero,0(s0)
	.loc 1 274 21 is_stmt 1
	.loc 1 274 24 is_stmt 0
	lw	a3,0(s11)
	beq	a3,zero,.L320
	.loc 1 275 25 is_stmt 1
	.loc 1 275 28 is_stmt 0
	addi	s8,s8,1
.LVL474:
	bgt	s8,s5,.L320
	.loc 1 276 29 is_stmt 1
	.loc 1 276 35 is_stmt 0
	slli	s11,s8,2
.LVL475:
	addi	a4,sp,32
	add	s11,a4,s11
.LVL476:
	j	.L320
.L315:
	.loc 1 218 17 is_stmt 1
	.loc 1 218 21 is_stmt 0
	lbu	a3,28(sp)
	.loc 1 218 20
	andi	a2,a3,2
	bne	a2,zero,.L327
	.loc 1 221 17 is_stmt 1
	.loc 1 221 27 is_stmt 0
	ori	a3,a3,4
	sb	a3,28(sp)
	.loc 1 222 17 is_stmt 1
.LVL477:
.L320:
	.loc 1 291 14 is_stmt 0
	lbu	a3,28(sp)
	.loc 1 292 14
	andi	a2,a3,4
	bne	a2,zero,.L325
	.loc 1 291 25
	addi	a5,a5,1
.LVL478:
	li	a2,255
	bgt	a5,a2,.L325
	.loc 1 291 38
	bgt	s8,s5,.L325
	.loc 1 291 52
	lw	a1,0(s11)
	li	a2,15
	ble	a1,a2,.L261
.L325:
	.loc 1 294 5 is_stmt 1
	.loc 1 294 8 is_stmt 0
	andi	a3,a3,2
	bne	a3,zero,.L327
	addi	s0,sp,32
	addi	s1,s1,%lo(.LANCHOR6)
	.loc 1 209 9
	li	s3,0
	.loc 1 298 12
	li	s4,0
	.loc 1 298 29
	li	s5,4
.LVL479:
.L329:
	.loc 1 299 9 is_stmt 1
	.loc 1 299 16 is_stmt 0
	lw	a0,0(s0)
	mv	a1,s1
	.loc 1 298 40
	addi	s4,s4,1
.LVL480:
	.loc 1 299 16
	call	proc_onecmd
.LVL481:
	.loc 1 299 13
	or	s3,s3,a0
.LVL482:
	.loc 1 298 5
	blt	s8,s4,.L328
	addi	s0,s0,4
	addi	s1,s1,64
	.loc 1 298 29
	bne	s4,s5,.L329
.L328:
.LVL483:
.LBE92:
.LBE96:
	.loc 1 640 9 is_stmt 1
	.loc 1 640 12 is_stmt 0
	li	a5,1
	bne	s3,a5,.L330
	.loc 1 641 13 is_stmt 1
.LVL484:
.LBB97:
.LBB98:
	.loc 1 616 5
	.loc 1 616 8 is_stmt 0
	beq	s2,zero,.L331
	.loc 1 617 9 is_stmt 1
	lui	a0,%hi(.LC69)
	mv	a1,s2
	addi	a0,a0,%lo(.LC69)
	call	aos_cli_printf
.LVL485:
.L331:
.LBE98:
.LBE97:
	.loc 1 646 9
	lui	a0,%hi(.LC12)
	addi	a0,a0,%lo(.LC12)
	call	aos_cli_printf
.LVL486:
	.loc 1 647 9
	.loc 1 647 20 is_stmt 0
	lui	a5,%hi(.LANCHOR2)
	sb	zero,%lo(.LANCHOR2)(a5)
	.loc 1 648 9 is_stmt 1
	.loc 1 649 9 is_stmt 0
	lui	a0,%hi(.LC66)
	.loc 1 648 21
	lui	a5,%hi(.LANCHOR4)
	sb	zero,%lo(.LANCHOR4)(a5)
	.loc 1 649 9 is_stmt 1
	addi	a0,a0,%lo(.LC66)
	j	.L380
.LVL487:
.L317:
.LBB99:
.LBB93:
	.loc 1 225 17
	.loc 1 225 20 is_stmt 0
	beq	a5,zero,.L321
	.loc 1 225 35
	addi	a6,a5,-1
	add	a7,s2,a6
	.loc 1 225 27
	lbu	a3,0(a7)
	bne	a3,s4,.L321
	.loc 1 225 51
	lbu	a3,28(sp)
	andi	a3,a3,1
	beq	a3,zero,.L321
.L379:
	.loc 1 263 54
	mv	a0,s0
	sw	a6,12(sp)
	sw	a7,8(sp)
	.loc 1 263 21 is_stmt 1
	.loc 1 263 54 is_stmt 0
	call	strlen
.LVL488:
	.loc 1 263 21
	lw	a7,8(sp)
	addi	a2,a0,1
	mv	a1,s0
	mv	a0,a7
	call	memcpy
.LVL489:
	.loc 1 264 21 is_stmt 1
	lw	a6,12(sp)
	mv	a5,a6
	.loc 1 265 21
	j	.L320
.LVL490:
.L321:
	.loc 1 230 17
	.loc 1 230 35 is_stmt 0
	lw	a3,28(sp)
	andi	a3,a3,3
	.loc 1 230 20
	beq	a3,s3,.L320
	.loc 1 233 17 is_stmt 1
	.loc 1 233 20 is_stmt 0
	beq	a3,s9,.L327
	.loc 1 237 17 is_stmt 1
	.loc 1 237 20 is_stmt 0
	bne	a3,zero,.L322
	.loc 1 238 21 is_stmt 1
	.loc 1 239 21
	.loc 1 238 32 is_stmt 0
	lbu	a3,28(sp)
	.loc 1 240 22
	lw	a2,0(s11)
	.loc 1 238 32
	andi	a3,a3,-4
	ori	a3,a3,3
	sb	a3,28(sp)
	.loc 1 240 21 is_stmt 1
	.loc 1 240 29 is_stmt 0
	addi	a3,a2,1
	sw	a3,0(s11)
	.loc 1 241 21 is_stmt 1
	.loc 1 241 51 is_stmt 0
	slli	a3,s8,4
	add	a3,a3,a2
	slli	a3,a3,2
	.loc 1 241 59
	addi	a2,a5,1
	.loc 1 241 51
	add	a3,s7,a3
	.loc 1 241 53
	add	a2,s2,a2
	.loc 1 241 51
	sw	a2,0(a3)
	j	.L320
.L322:
	.loc 1 242 24 is_stmt 1
	.loc 1 242 27 is_stmt 0
	bne	a3,s5,.L320
	.loc 1 243 21 is_stmt 1
	.loc 1 244 21
	.loc 1 243 32 is_stmt 0
	lbu	a3,28(sp)
	andi	a3,a3,-4
.L378:
	.loc 1 256 32
	sb	a3,28(sp)
	.loc 1 257 21 is_stmt 1
	.loc 1 257 30 is_stmt 0
	sb	zero,0(s0)
	j	.L320
.L313:
	.loc 1 250 17 is_stmt 1
	.loc 1 250 20 is_stmt 0
	beq	a5,zero,.L323
	.loc 1 250 35
	addi	a6,a5,-1
	add	a7,s2,a6
	.loc 1 250 27
	lbu	a3,0(a7)
	bne	a3,s4,.L323
	.loc 1 250 51
	lbu	a3,28(sp)
	andi	a3,a3,1
	bne	a3,zero,.L379
.L323:
	.loc 1 255 17 is_stmt 1
	.loc 1 255 35 is_stmt 0
	lw	a3,28(sp)
	andi	a3,a3,3
	.loc 1 255 20
	bne	a3,s3,.L320
	.loc 1 256 21 is_stmt 1
	.loc 1 256 32 is_stmt 0
	lbu	a3,28(sp)
	andi	a3,a3,-2
	j	.L378
.LVL491:
.L330:
.LBE93:
.LBE99:
	.loc 1 642 16 is_stmt 1
	.loc 1 642 19 is_stmt 0
	li	a5,2
	bne	s3,a5,.L331
.L327:
	.loc 1 643 13 is_stmt 1
	lui	a0,%hi(.LC70)
	addi	a0,a0,%lo(.LC70)
	call	aos_cli_printf
.LVL492:
	j	.L331
.LBE103:
.LBE112:
	.cfi_endproc
.LFE15:
	.size	cli_main_input, .-cli_main_input
	.section	.text.console_cb_read,"ax",@progbits
	.align	1
	.type	console_cb_read, @function
console_cb_read:
.LFB41:
	.loc 1 1324 1
	.cfi_startproc
.LVL493:
	.loc 1 1325 5
	.loc 1 1326 5
	.loc 1 1328 5
	.loc 1 1324 1 is_stmt 0
	addi	sp,sp,-32
	.cfi_def_cfa_offset 32
	.loc 1 1328 11
	li	a2,16
	mv	a1,sp
.LVL494:
	.loc 1 1324 1
	sw	s0,24(sp)
	sw	ra,28(sp)
	.cfi_offset 8, -8
	.cfi_offset 1, -4
	.loc 1 1324 1
	mv	s0,a0
	.loc 1 1328 11
	call	aos_read
.LVL495:
	.loc 1 1329 5 is_stmt 1
	.loc 1 1329 8 is_stmt 0
	ble	a0,zero,.L382
	.loc 1 1330 12
	li	a5,16
	mv	a1,a0
	.loc 1 1330 9 is_stmt 1
	.loc 1 1330 12 is_stmt 0
	bgt	a0,a5,.L384
	.loc 1 1331 13 is_stmt 1
	.loc 1 1331 24 is_stmt 0
	lui	a5,%hi(.LANCHOR3)
	.loc 1 1332 13
	mv	a0,sp
.LVL496:
	.loc 1 1331 24
	sw	s0,%lo(.LANCHOR3)(a5)
	.loc 1 1332 13 is_stmt 1
	call	cli_main_input
.LVL497:
.L382:
	.loc 1 1337 1 is_stmt 0
	lw	ra,28(sp)
	.cfi_remember_state
	.cfi_restore 1
	lw	s0,24(sp)
	.cfi_restore 8
.LVL498:
	addi	sp,sp,32
	.cfi_def_cfa_offset 0
	jr	ra
.LVL499:
.L384:
	.cfi_restore_state
	.loc 1 1334 13 is_stmt 1
	lui	a0,%hi(.LC71)
.LVL500:
	addi	a0,a0,%lo(.LC71)
	call	printf
.LVL501:
	.loc 1 1337 1 is_stmt 0
	j	.L382
	.cfi_endproc
.LFE41:
	.size	console_cb_read, .-console_cb_read
	.section	.text.aos_cli_input_direct,"ax",@progbits
	.align	1
	.globl	aos_cli_input_direct
	.type	aos_cli_input_direct, @function
aos_cli_input_direct:
.LFB46:
	.loc 1 1360 1 is_stmt 1
	.cfi_startproc
.LVL502:
	.loc 1 1361 5
	tail	cli_main_input
.LVL503:
	.cfi_endproc
.LFE46:
	.size	aos_cli_input_direct, .-aos_cli_input_direct
	.globl	built_ins
	.globl	esc_tag
	.section	.bss.argvall.4307,"aw",@nobits
	.align	2
	.set	.LANCHOR6,. + 0
	.type	argvall.4307, @object
	.size	argvall.4307, 256
argvall.4307:
	.zero	256
	.section	.bss.esc_tag,"aw",@nobits
	.align	2
	.set	.LANCHOR2,. + 0
	.type	esc_tag, @object
	.size	esc_tag, 64
esc_tag:
	.zero	64
	.section	.rodata.cat_cmd.str1.4,"aMS",@progbits,1
	.align	2
.LC9:
	.string	"invalid parameter!\r\n"
	.zero	3
.LC10:
	.string	"open %s failed!\r\n"
	.zero	2
.LC11:
	.string	"%c"
	.zero	1
.LC12:
	.string	"\r\n"
	.section	.rodata.cb_idnoe.str1.4,"aMS",@progbits,1
	.align	2
.LC0:
	.string	"File System"
.LC1:
	.string	"Char Device"
.LC2:
	.string	"Block Device"
	.zero	3
.LC3:
	.string	"Unknown"
.LC4:
	.string	"\tSize\t\t\t\t\t Name\t\t\tFiletype\r\n"
	.zero	3
.LC5:
	.string	"----------------------------------------------------------------------------------\r\n"
	.zero	3
.LC6:
	.string	"%10d\t\t%30s\t\t\t%s\r\n"
	.section	.rodata.cli_main_input.str1.4,"aMS",@progbits,1
	.align	2
.LC58:
	.string	"inbuf_null\r\n"
	.zero	3
.LC59:
	.string	"\033%c"
.LC60:
	.string	"\033%c%c"
	.zero	2
.LC61:
	.string	"\r\n# %s"
	.zero	1
.LC62:
	.string	"Error: esc_tag buffer overflow\r\n"
	.zero	3
.LC63:
	.string	"%c %c"
	.zero	2
.LC64:
	.string	"%s %s "
	.zero	1
.LC65:
	.string	"%s "
.LC66:
	.string	"# "
	.zero	1
.LC67:
	.string	"%s%s"
	.zero	3
.LC68:
	.string	"Error: input buffer overflow\r\n"
	.zero	1
.LC69:
	.string	"command '%s' not found\r\n"
	.zero	3
.LC70:
	.string	"syntax error\r\n"
	.section	.rodata.console_cb_read.str1.4,"aMS",@progbits,1
	.align	2
.LC71:
	.string	"-------------BUG from aos_read for ret\r\n"
	.section	.rodata.console_cb_write.str1.4,"aMS",@progbits,1
	.align	2
.LC7:
	.string	"Empty cb\r\n"
	.section	.rodata.devname_cmd.str1.4,"aMS",@progbits,1
	.align	2
.LC37:
	.string	"BL602"
	.zero	2
.LC38:
	.string	"device name: %s\r\n"
	.section	.rodata.echo_cmd.str1.4,"aMS",@progbits,1
	.align	2
.LC39:
	.string	"Disabled"
	.zero	3
.LC40:
	.string	"Enabled"
.LC41:
	.string	"Usage: echo on/off. Echo is currently %s\r\n"
	.zero	1
.LC42:
	.string	"on"
	.zero	1
.LC43:
	.string	"Enable echo\r\n"
	.zero	2
.LC44:
	.string	"off"
.LC45:
	.string	"Disable echo\r\n"
	.section	.rodata.help_cmd.str1.4,"aMS",@progbits,1
	.align	2
.LC53:
	.string	""
	.zero	3
.LC54:
	.string	"====Build-in Commands====\r\n"
.LC55:
	.string	"====Support %d cmds once, seperate by ; ====\r\n"
	.zero	1
.LC56:
	.string	"%-25s: %s\r\n"
.LC57:
	.string	"====User Commands====\r\n"
	.section	.rodata.hexdump_cmd.str1.4,"aMS",@progbits,1
	.align	2
.LC13:
	.string	"Found file %s. XIP Addr %p, len %lu\r\n"
	.section	.rodata.ls_cmd.str1.4,"aMS",@progbits,1
	.align	2
.LC18:
	.string	"/sdcard"
.LC19:
	.string	"/sdcard/%s"
	.zero	1
.LC20:
	.string	"%10ld\t\t%30s\t\t\tDirectory\r\n"
	.zero	2
.LC21:
	.string	"%10ld\t\t%30s\t\t\tFile\r\n"
	.zero	3
.LC22:
	.string	"can not open sdcard\r\n"
	.zero	2
.LC23:
	.string	"/romfs"
	.zero	1
.LC24:
	.string	"can not open romfs\r\n"
	.zero	3
.LC25:
	.string	"/"
	.zero	2
.LC26:
	.string	"un-supported direcotry!\r\n"
	.section	.rodata.mmem_cmd.str1.4,"aMS",@progbits,1
	.align	2
.LC46:
	.string	"m <addr> <value> <width>\r\naddr  : address to modify\r\nvalue : new value (default is 0)\r\nwidth : width of unit, 1/2/4 (default is 4)\r\n"
	.zero	3
.LC47:
	.string	"value on 0x%x change from 0x%x to 0x%x.\r\n"
	.section	.rodata.ota_cmd.str1.4,"aMS",@progbits,1
	.align	2
.LC8:
	.string	"LOCAL OTA"
	.section	.rodata.pmem_cmd.str1.4,"aMS",@progbits,1
	.align	2
.LC48:
	.string	"p <addr> <nunits> <width>\r\naddr  : address to display\r\nnunits: number of units to display (default is 16)\r\nwidth : width of unit, 1/2/4 (default is 4)\r\n"
	.zero	3
.LC49:
	.string	"0x%08x:"
.LC50:
	.string	" %02x"
	.zero	2
.LC51:
	.string	" %04x"
	.zero	2
.LC52:
	.string	" %08x"
	.section	.rodata.poweroff_cmd.str1.4,"aMS",@progbits,1
	.align	2
.LC30:
	.string	"poweroff\r\n"
	.section	.rodata.proc_onecmd.str1.4,"aMS",@progbits,1
	.align	2
.LC16:
	.string	"Error! cli alloc mem fail!\r\n"
	.zero	3
.LC17:
	.string	"%s"
	.section	.rodata.ps_cmd.str1.4,"aMS",@progbits,1
	.align	2
.LC14:
	.string	"Task"
	.zero	3
.LC15:
	.string	"State   Priority  Stack    #          Base\r\n********************************************************\r\n"
	.section	.rodata.reboot_cmd.str1.4,"aMS",@progbits,1
	.align	2
.LC31:
	.string	"reboot\r\n"
	.section	.rodata.reset_cmd.str1.4,"aMS",@progbits,1
	.align	2
.LC29:
	.string	"system reset\r\n"
	.section	.rodata.str1.4,"aMS",@progbits,1
	.align	2
.LC72:
	.string	"help"
	.zero	3
.LC73:
	.string	"print this"
	.zero	1
.LC74:
	.string	"p"
	.zero	2
.LC75:
	.string	"print memory"
	.zero	3
.LC76:
	.string	"m"
	.zero	2
.LC77:
	.string	"modify memory"
	.zero	2
.LC78:
	.string	"echo"
	.zero	3
.LC79:
	.string	"echo for command"
	.zero	3
.LC80:
	.string	"exit"
	.zero	3
.LC81:
	.string	"close CLI"
	.zero	2
.LC82:
	.string	"devname"
.LC83:
	.string	"print device name"
	.zero	2
.LC84:
	.string	"sysver"
	.zero	1
.LC85:
	.string	"system version"
	.zero	1
.LC86:
	.string	"reboot"
	.zero	1
.LC87:
	.string	"reboot system"
	.zero	2
.LC88:
	.string	"poweroff"
	.zero	3
.LC89:
	.string	"poweroff system"
.LC90:
	.string	"reset"
	.zero	2
.LC91:
	.string	"system reset"
	.zero	3
.LC92:
	.string	"time"
	.zero	3
.LC93:
	.string	"system time"
.LC94:
	.string	"ota"
.LC95:
	.string	"system ota"
	.zero	1
.LC96:
	.string	"ps"
	.zero	1
.LC97:
	.string	"thread dump"
.LC98:
	.string	"ls"
	.zero	1
.LC99:
	.string	"file list"
	.zero	2
.LC100:
	.string	"hexdump"
.LC101:
	.string	"dump file"
	.zero	2
.LC102:
	.string	"cat"
.LC103:
	.string	"cat file"
	.section	.rodata.uptime_cmd.str1.4,"aMS",@progbits,1
	.align	2
.LC27:
	.string	"UP time in ms %llu\r\n"
	.zero	3
.LC28:
	.string	"UP time in %llu days, %llu hours, %llu minutes, %llu seconds\r\n"
	.section	.rodata.version_cmd.str1.4,"aMS",@progbits,1
	.align	2
.LC32:
	.string	"kernel version :posix\r\n"
.LC33:
	.string	"release_bl_iot_sdk_1.6.1-dirty"
	.zero	1
.LC34:
	.string	"Heap left: %d Bytes\r\n"
	.zero	2
.LC35:
	.string	"Memory Configuration on %d banks:\r\n"
.LC36:
	.string	"    [%d]%6s %6u Kbytes @ %p\r\n"
	.section	.sbss.cli,"aw",@nobits
	.align	2
	.set	.LANCHOR0,. + 0
	.type	cli, @object
	.size	cli, 4
cli:
	.zero	4
	.section	.sbss.cliexit,"aw",@nobits
	.align	2
	.set	.LANCHOR1,. + 0
	.type	cliexit, @object
	.size	cliexit, 4
cliexit:
	.zero	4
	.section	.sbss.esc.4384,"aw",@nobits
	.set	.LANCHOR7,. + 0
	.type	esc.4384, @object
	.size	esc.4384, 1
esc.4384:
	.zero	1
	.section	.sbss.esc_tag_len,"aw",@nobits
	.set	.LANCHOR4,. + 0
	.type	esc_tag_len, @object
	.size	esc_tag_len, 1
esc_tag_len:
	.zero	1
	.section	.sbss.fd_console,"aw",@nobits
	.align	2
	.set	.LANCHOR3,. + 0
	.type	fd_console, @object
	.size	fd_console, 4
fd_console:
	.zero	4
	.section	.sdata.key1.4385,"aw"
	.set	.LANCHOR8,. + 0
	.type	key1.4385, @object
	.size	key1.4385, 1
key1.4385:
	.byte	-1
	.section	.sdata.key2.4386,"aw"
	.set	.LANCHOR9,. + 0
	.type	key2.4386, @object
	.size	key2.4386, 1
key2.4386:
	.byte	-1
	.section	.static_cli_cmds,"a"
	.align	2
	.set	.LANCHOR5,. + 0
	.type	built_ins, @object
	.size	built_ins, 192
built_ins:
	.word	.LC72
	.word	.LC73
	.word	help_cmd
	.word	.LC74
	.word	.LC75
	.word	pmem_cmd
	.word	.LC76
	.word	.LC77
	.word	mmem_cmd
	.word	.LC78
	.word	.LC79
	.word	echo_cmd
	.word	.LC80
	.word	.LC81
	.word	exit_cmd
	.word	.LC82
	.word	.LC83
	.word	devname_cmd
	.word	.LC84
	.word	.LC85
	.word	version_cmd
	.word	.LC86
	.word	.LC87
	.word	reboot_cmd
	.word	.LC88
	.word	.LC89
	.word	poweroff_cmd
	.word	.LC90
	.word	.LC91
	.word	reset_cmd
	.word	.LC92
	.word	.LC93
	.word	uptime_cmd
	.word	.LC94
	.word	.LC95
	.word	ota_cmd
	.word	.LC96
	.word	.LC97
	.word	ps_cmd
	.word	.LC98
	.word	.LC99
	.word	ls_cmd
	.word	.LC100
	.word	.LC101
	.word	hexdump_cmd
	.word	.LC102
	.word	.LC103
	.word	cat_cmd
	.text
.Letext0:
	.file 2 "/home/hogc/build-tools/sdk/bl/bl_iot_sdk/toolchain/riscv/Linux/lib/gcc/riscv64-unknown-elf/8.3.0/include/stddef.h"
	.file 3 "/home/hogc/build-tools/sdk/bl/bl_iot_sdk/toolchain/riscv/Linux/riscv64-unknown-elf/include/machine/_default_types.h"
	.file 4 "/home/hogc/build-tools/sdk/bl/bl_iot_sdk/toolchain/riscv/Linux/riscv64-unknown-elf/include/sys/_types.h"
	.file 5 "/home/hogc/build-tools/sdk/bl/bl_iot_sdk/toolchain/riscv/Linux/riscv64-unknown-elf/include/sys/reent.h"
	.file 6 "/home/hogc/build-tools/sdk/bl/bl_iot_sdk/toolchain/riscv/Linux/riscv64-unknown-elf/include/sys/lock.h"
	.file 7 "/home/hogc/build-tools/sdk/bl/bl_iot_sdk/toolchain/riscv/Linux/riscv64-unknown-elf/include/stdlib.h"
	.file 8 "/home/hogc/build-tools/sdk/bl/bl_iot_sdk/toolchain/riscv/Linux/lib/gcc/riscv64-unknown-elf/8.3.0/include/stdarg.h"
	.file 9 "/home/hogc/build-tools/sdk/bl/bl_iot_sdk/toolchain/riscv/Linux/riscv64-unknown-elf/include/stdio.h"
	.file 10 "/home/hogc/build-tools/sdk/bl/bl_iot_sdk/toolchain/riscv/Linux/riscv64-unknown-elf/include/sys/_stdint.h"
	.file 11 "/home/hogc/build-tools/sdk/bl/bl_iot_sdk/toolchain/riscv/Linux/riscv64-unknown-elf/include/sys/_timeval.h"
	.file 12 "/home/hogc/build-tools/sdk/bl/bl_iot_sdk/toolchain/riscv/Linux/riscv64-unknown-elf/include/sys/types.h"
	.file 13 "/home/hogc/build-tools/sdk/bl/bl_iot_sdk/toolchain/riscv/Linux/riscv64-unknown-elf/include/sys/errno.h"
	.file 14 "/home/hogc/build-tools/sdk/bl/bl_iot_sdk/components/stage/cli/cli/include/cli.h"
	.file 15 "/home/hogc/build-tools/sdk/bl/bl_iot_sdk/components/stage/yloop/include/aos/kernel.h"
	.file 16 "/home/hogc/build-tools/sdk/bl/bl_iot_sdk/components/fs/vfs/include/hal/soc/uart.h"
	.file 17 "/home/hogc/build-tools/sdk/bl/bl_iot_sdk/toolchain/riscv/Linux/riscv64-unknown-elf/include/time.h"
	.file 18 "/home/hogc/build-tools/sdk/bl/bl_iot_sdk/toolchain/riscv/Linux/riscv64-unknown-elf/include/sys/stat.h"
	.file 19 "/home/hogc/build-tools/sdk/bl/bl_iot_sdk/components/fs/vfs/include/vfs_dir.h"
	.file 20 "/home/hogc/build-tools/sdk/bl/bl_iot_sdk/components/fs/vfs/include/vfs_inode.h"
	.file 21 "/home/hogc/build-tools/sdk/bl/bl_iot_sdk/components/fs/vfs/include/fs/vfs_romfs.h"
	.file 22 "/home/hogc/build-tools/sdk/bl/bl_iot_sdk/components/bl602/freertos_riscv_ram/portable/GCC/RISC-V/portmacro.h"
	.file 23 "/home/hogc/build-tools/sdk/bl/bl_iot_sdk/toolchain/riscv/Linux/riscv64-unknown-elf/include/string.h"
	.file 24 "/home/hogc/build-tools/sdk/bl/bl_iot_sdk/components/fs/vfs/include/vfs.h"
	.file 25 "/home/hogc/build-tools/sdk/bl/bl_iot_sdk/components/bl602/freertos_riscv_ram/config/portable.h"
	.file 26 "/home/hogc/build-tools/sdk/bl/bl_iot_sdk/components/bl602/freertos_riscv_ram/config/task.h"
	.file 27 "/home/hogc/build-tools/sdk/bl/bl_iot_sdk/components/hal_drv/bl602_hal/hal_sys.h"
	.file 28 "/home/hogc/build-tools/sdk/bl/bl_iot_sdk/components/hal_drv/bl602_hal/bl_chip.h"
	.file 29 "/home/hogc/build-tools/sdk/bl/bl_iot_sdk/components/utils/include/utils_hexdump.h"