	.file	"fdt.c"
	.option nopic
	.attribute arch, "rv32i2p0_m2p0_f2p0_c2p0"
	.attribute unaligned_access, 0
	.attribute stack_align, 16
	.text
.Ltext0:
	.cfi_sections	.debug_frame
	.section	.text.fdt32_ld,"ax",@progbits
	.align	1
	.type	fdt32_ld, @function
fdt32_ld:
.LFB8:
	.file 1 "/home/hogc/build-tools/sdk/bl/bl_iot_sdk/components/stage/blfdt/inc/libfdt.h"
	.loc 1 194 1
	.cfi_startproc
.LVL0:
	.loc 1 195 5
	.loc 1 197 5
	.loc 1 197 13 is_stmt 0
	lbu	a5,0(a0)
	.loc 1 198 12
	lbu	a4,1(a0)
	.loc 1 197 29
	slli	a5,a5,24
	.loc 1 198 28
	slli	a4,a4,16
	.loc 1 198 9
	or	a5,a5,a4
	.loc 1 200 13
	lbu	a4,3(a0)
	.loc 1 199 12
	lbu	a0,2(a0)
.LVL1:
	.loc 1 200 9
	or	a5,a5,a4
	.loc 1 199 28
	slli	a0,a0,8
	.loc 1 201 1
	or	a0,a5,a0
	ret
	.cfi_endproc
.LFE8:
	.size	fdt32_ld, .-fdt32_ld
	.section	.text.fdt_ro_probe_,"ax",@progbits
	.align	1
	.globl	fdt_ro_probe_
	.type	fdt_ro_probe_, @function
fdt_ro_probe_:
.LFB40:
	.file 2 "/home/hogc/build-tools/sdk/bl/bl_iot_sdk/components/stage/blfdt/src/fdt.c"
	.loc 2 43 1 is_stmt 1
	.cfi_startproc
.LVL2:
	.loc 2 44 5
	.loc 2 43 1 is_stmt 0
	addi	sp,sp,-16
	.cfi_def_cfa_offset 16
	sw	s0,8(sp)
	sw	ra,12(sp)
	.cfi_offset 8, -8
	.cfi_offset 1, -4
	.loc 2 43 1
	mv	s0,a0
	.loc 2 44 11
	call	fdt32_ld
.LVL3:
	.loc 2 44 8
	li	a5,-804388864
	addi	a5,a5,-275
	bne	a0,a5,.L3
	.loc 2 46 9 is_stmt 1
	.loc 2 46 15 is_stmt 0
	addi	a0,s0,20
	call	fdt32_ld
.LVL4:
	.loc 2 46 12
	li	a4,1
.LBB12:
.LBB13:
	.loc 2 49 20
	li	a5,-10
.LBE13:
.LBE12:
	.loc 2 46 12
	bleu	a0,a4,.L2
.LVL5:
.LBB16:
.LBB14:
	.loc 2 48 9 is_stmt 1
	.loc 2 48 15 is_stmt 0
	addi	a0,s0,24
	call	fdt32_ld
.LVL6:
	.loc 2 48 12
	li	a4,17
	.loc 2 58 12
	li	a5,0
	.loc 2 48 12
	bleu	a0,a4,.L2
	.loc 2 49 20
	li	a5,-10
.LVL7:
.L2:
.LBE14:
.LBE16:
	.loc 2 59 1
	lw	ra,12(sp)
	.cfi_remember_state
	.cfi_restore 1
	lw	s0,8(sp)
	.cfi_restore 8
.LVL8:
	mv	a0,a5
	addi	sp,sp,16
	.cfi_def_cfa_offset 0
	jr	ra
.LVL9:
.L3:
	.cfi_restore_state
	.loc 2 50 12 is_stmt 1
	.loc 2 50 15 is_stmt 0
	li	a4,804388864
	addi	a4,a4,274
	.loc 2 55 16
	li	a5,-9
	.loc 2 50 15
	bne	a0,a4,.L2
	.loc 2 52 9 is_stmt 1
	.loc 2 52 15 is_stmt 0
	addi	a0,s0,36
	call	fdt32_ld
.LVL10:
.LBB17:
.LBB15:
	.loc 2 58 12
	li	a5,0
.LBE15:
.LBE17:
	.loc 2 52 12
	bne	a0,zero,.L2
	.loc 2 53 20
	li	a5,-7
	j	.L2
	.cfi_endproc
.LFE40:
	.size	fdt_ro_probe_, .-fdt_ro_probe_
	.section	.text.fdt_header_size_,"ax",@progbits
	.align	1
	.globl	fdt_header_size_
	.type	fdt_header_size_, @function
fdt_header_size_:
.LFB43:
	.loc 2 79 1 is_stmt 1
	.cfi_startproc
.LVL11:
	.loc 2 80 5
	.loc 2 80 8 is_stmt 0
	li	a5,1
	bleu	a0,a5,.L12
	.loc 2 82 10 is_stmt 1
	.loc 2 82 13 is_stmt 0
	li	a4,2
	.loc 2 83 16
	li	a5,32
	.loc 2 82 13
	beq	a0,a4,.L10
.LVL12:
.LBB20:
.LBB21:
	.loc 2 84 10 is_stmt 1
	.loc 2 86 10
	.loc 2 86 13 is_stmt 0
	li	a4,16
	.loc 2 87 16
	li	a5,36
	.loc 2 86 13
	bleu	a0,a4,.L10
	.loc 2 89 16
	li	a5,40
.LVL13:
.L10:
.LBE21:
.LBE20:
	.loc 2 90 1
	mv	a0,a5
.LVL14:
	ret
.LVL15:
.L12:
	.loc 2 81 16
	li	a5,28
	j	.L10
	.cfi_endproc
.LFE43:
	.size	fdt_header_size_, .-fdt_header_size_
	.section	.text.fdt_check_header,"ax",@progbits
	.align	1
	.globl	fdt_check_header
	.type	fdt_check_header, @function
fdt_check_header:
.LFB44:
	.loc 2 93 1 is_stmt 1
	.cfi_startproc
.LVL16:
	.loc 2 94 5
	.loc 2 96 5
	.loc 2 93 1 is_stmt 0
	addi	sp,sp,-32
	.cfi_def_cfa_offset 32
	sw	s0,24(sp)
	sw	s2,16(sp)
	sw	ra,28(sp)
	sw	s1,20(sp)
	sw	s3,12(sp)
	sw	s4,8(sp)
	sw	s5,4(sp)
	.cfi_offset 8, -8
	.cfi_offset 18, -16
	.cfi_offset 1, -4
	.cfi_offset 9, -12
	.cfi_offset 19, -20
	.cfi_offset 20, -24
	.cfi_offset 21, -28
	.loc 2 93 1
	mv	s2,a0
	.loc 2 96 11
	call	fdt32_ld
.LVL17:
	.loc 2 96 8
	li	a5,-804388864
	addi	a5,a5,-275
	.loc 2 97 16
	li	s0,-9
	.loc 2 96 8
	bne	a0,a5,.L15
	.loc 2 98 5 is_stmt 1
.LVL18:
.LBB40:
.LBB41:
	.loc 1 314 5
	.loc 1 314 12 is_stmt 0
	addi	a0,s2,20
	call	fdt32_ld
.LVL19:
	mv	s5,a0
	call	fdt_header_size_
.LVL20:
.LBE41:
.LBE40:
	.loc 2 99 8
	li	a5,1
.LBB43:
.LBB42:
	.loc 1 314 12
	mv	s4,a0
.LVL21:
.LBE42:
.LBE43:
	.loc 2 99 5 is_stmt 1
	.loc 2 101 16 is_stmt 0
	li	s0,-10
	.loc 2 99 8
	bleu	s5,a5,.L15
	.loc 2 100 15
	addi	a0,s2,24
.LVL22:
	call	fdt32_ld
.LVL23:
	.loc 2 100 9
	li	a5,17
	bgtu	a0,a5,.L15
	.loc 2 102 5 is_stmt 1
	.loc 2 102 8 is_stmt 0
	bgtu	a0,s5,.L15
	.loc 2 105 5 is_stmt 1
	.loc 2 105 12 is_stmt 0
	addi	a0,s2,4
	call	fdt32_ld
.LVL24:
	mv	s1,a0
	.loc 2 128 16
	li	s0,-8
	.loc 2 105 8
	bltu	a0,s4,.L15
	.loc 2 106 9
	blt	a0,zero,.L15
	.loc 2 110 5 is_stmt 1
	.loc 2 110 10 is_stmt 0
	addi	a0,s2,16
	call	fdt32_ld
.LVL25:
.LBB44:
.LBB45:
	.loc 2 63 5 is_stmt 1
	.loc 2 63 29 is_stmt 0
	bltu	a0,s4,.L15
	bltu	s1,a0,.L15
.LVL26:
.LBE45:
.LBE44:
	.loc 2 114 5 is_stmt 1
	addi	a0,s2,8
	call	fdt32_ld
.LVL27:
	.loc 2 114 8 is_stmt 0
	li	a5,16
	mv	s3,a0
	bgtu	s5,a5,.L17
	.loc 2 115 9 is_stmt 1
.LVL28:
.LBB46:
.LBB47:
	.loc 2 63 5
	.loc 2 63 29 is_stmt 0
	bgtu	s4,a0,.L15
	bgeu	s1,a0,.L18
.LVL29:
.L15:
.LBE47:
.LBE46:
	.loc 2 131 1
	mv	a0,s0
	lw	ra,28(sp)
	.cfi_remember_state
	.cfi_restore 1
	lw	s0,24(sp)
	.cfi_restore 8
	lw	s1,20(sp)
	.cfi_restore 9
	lw	s2,16(sp)
	.cfi_restore 18
.LVL30:
	lw	s3,12(sp)
	.cfi_restore 19
	lw	s4,8(sp)
	.cfi_restore 20
	lw	s5,4(sp)
	.cfi_restore 21
	addi	sp,sp,32
	.cfi_def_cfa_offset 0
	jr	ra
.LVL31:
.L17:
	.cfi_restore_state
	.loc 2 119 9 is_stmt 1
	.loc 2 119 14 is_stmt 0
	addi	a0,s2,36
	call	fdt32_ld
.LVL32:
.LBB48:
.LBB49:
	.loc 2 69 5 is_stmt 1
.LBB50:
.LBB51:
	.loc 2 63 5
	.loc 2 63 29 is_stmt 0
	bgtu	s4,s3,.L15
.LBE51:
.LBE50:
.LBE49:
.LBE48:
	.loc 2 128 16
	li	s0,-8
.LBB57:
.LBB56:
.LBB53:
.LBB52:
	.loc 2 63 29
	bltu	s1,s3,.L15
.LVL33:
.LBE52:
.LBE53:
	.loc 2 71 5 is_stmt 1
	.loc 2 71 15 is_stmt 0
	add	a0,a0,s3
.LVL34:
	.loc 2 71 8
	bltu	a0,s3,.L15
	.loc 2 73 5 is_stmt 1
.LVL35:
.LBB54:
.LBB55:
	.loc 2 63 5
	.loc 2 63 29 is_stmt 0
	bltu	s1,a0,.L15
.LVL36:
.L18:
.LBE55:
.LBE54:
.LBE56:
.LBE57:
	.loc 2 126 5 is_stmt 1
	.loc 2 126 10 is_stmt 0
	addi	a0,s2,12
	call	fdt32_ld
.LVL37:
	mv	s3,a0
	addi	a0,s2,32
	call	fdt32_ld
.LVL38:
.LBB58:
.LBB59:
	.loc 2 69 5 is_stmt 1
.LBB60:
.LBB61:
	.loc 2 63 5
.LBE61:
.LBE60:
.LBE59:
.LBE58:
	.loc 2 128 16 is_stmt 0
	li	s0,-8
.LBB67:
.LBB66:
.LBB63:
.LBB62:
	.loc 2 63 29
	bltu	s3,s4,.L15
	bltu	s1,s3,.L15
.LVL39:
.LBE62:
.LBE63:
	.loc 2 71 5 is_stmt 1
	.loc 2 71 15 is_stmt 0
	add	a0,s3,a0
.LVL40:
	.loc 2 71 8
	bgtu	s3,a0,.L15
	.loc 2 73 5 is_stmt 1
.LVL41:
.LBB64:
.LBB65:
	.loc 2 63 5
	.loc 2 63 29 is_stmt 0
	bltu	s1,a0,.L15
.LBE65:
.LBE64:
.LBE66:
.LBE67:
	.loc 2 130 12
	li	s0,0
	j	.L15
	.cfi_endproc
.LFE44:
	.size	fdt_check_header, .-fdt_check_header
	.section	.text.fdt_offset_ptr,"ax",@progbits
	.align	1
	.globl	fdt_offset_ptr
	.type	fdt_offset_ptr, @function
fdt_offset_ptr:
.LFB45:
	.loc 2 134 1 is_stmt 1
	.cfi_startproc
.LVL42:
	addi	sp,sp,-32
	.cfi_def_cfa_offset 32
	sw	s0,24(sp)
	.cfi_offset 8, -8
	mv	s0,a0
	.loc 2 135 5
	.loc 2 135 37 is_stmt 0
	addi	a0,a0,8
.LVL43:
	.loc 2 134 1
	sw	s1,20(sp)
	sw	s2,16(sp)
	sw	s3,12(sp)
	sw	ra,28(sp)
	.cfi_offset 9, -12
	.cfi_offset 18, -16
	.cfi_offset 19, -20
	.cfi_offset 1, -4
	mv	s3,a1
	sw	s4,8(sp)
	.cfi_offset 20, -24
	.loc 2 134 1
	mv	s1,a2
	.loc 2 135 37
	call	fdt32_ld
.LVL44:
	.loc 2 135 14
	add	s2,a0,s3
.LVL45:
	.loc 2 137 5 is_stmt 1
	.loc 2 140 15 is_stmt 0
	li	a5,0
	.loc 2 137 8
	bgtu	s3,s2,.L37
	.loc 2 138 24
	add	s4,s2,s1
	.loc 2 140 15
	li	a5,0
	.loc 2 138 9
	bltu	s4,s2,.L37
	.loc 2 139 34
	addi	a0,s0,4
	call	fdt32_ld
.LVL46:
	.loc 2 140 15
	li	a5,0
	.loc 2 139 9
	bgtu	s4,a0,.L37
	.loc 2 142 5 is_stmt 1
	.loc 2 142 11 is_stmt 0
	addi	a0,s0,20
	call	fdt32_ld
.LVL47:
	.loc 2 142 8
	li	a5,16
	bleu	a0,a5,.L39
	.loc 2 143 9 is_stmt 1
	.loc 2 143 22 is_stmt 0
	add	s1,s3,s1
.LVL48:
	.loc 2 140 15
	li	a5,0
	.loc 2 143 12
	bgtu	s3,s1,.L37
	.loc 2 144 36
	addi	a0,s0,36
	call	fdt32_ld
.LVL49:
	.loc 2 140 15
	li	a5,0
	.loc 2 144 13
	bgtu	s1,a0,.L37
.L39:
	.loc 2 147 5 is_stmt 1
.LVL50:
.LBB70:
.LBB71:
	.file 3 "/home/hogc/build-tools/sdk/bl/bl_iot_sdk/components/stage/blfdt/inc/libfdt_internal.h"
	.loc 3 102 5
	.loc 3 102 97 is_stmt 0
	add	a5,s0,s2
.LVL51:
.L37:
.LBE71:
.LBE70:
	.loc 2 148 1
	lw	ra,28(sp)
	.cfi_restore 1
	lw	s0,24(sp)
	.cfi_restore 8
.LVL52:
	lw	s1,20(sp)
	.cfi_restore 9
	lw	s2,16(sp)
	.cfi_restore 18
.LVL53:
	lw	s3,12(sp)
	.cfi_restore 19
.LVL54:
	lw	s4,8(sp)
	.cfi_restore 20
	mv	a0,a5
	addi	sp,sp,32
	.cfi_def_cfa_offset 0
	jr	ra
	.cfi_endproc
.LFE45:
	.size	fdt_offset_ptr, .-fdt_offset_ptr
	.section	.text.fdt_next_tag,"ax",@progbits
	.align	1
	.globl	fdt_next_tag
	.type	fdt_next_tag, @function
fdt_next_tag:
.LFB46:
	.loc 2 151 1 is_stmt 1
	.cfi_startproc
.LVL55:
	.loc 2 152 5
	.loc 2 153 5
	.loc 2 154 5
	.loc 2 151 1 is_stmt 0
	addi	sp,sp,-32
	.cfi_def_cfa_offset 32
	sw	s2,16(sp)
	sw	s3,12(sp)
	sw	s4,8(sp)
	sw	ra,28(sp)
	sw	s0,24(sp)
	sw	s1,20(sp)
	sw	s5,4(sp)
	sw	s6,0(sp)
	.cfi_offset 18, -16
	.cfi_offset 19, -20
	.cfi_offset 20, -24
	.cfi_offset 1, -4
	.cfi_offset 8, -8
	.cfi_offset 9, -12
	.cfi_offset 21, -28
	.cfi_offset 22, -32
	.loc 2 157 17
	li	a5,-8
	.loc 2 151 1
	mv	s2,a2
	.loc 2 157 17
	sw	a5,0(a2)
	.loc 2 158 12
	li	a2,4
.LVL56:
	.loc 2 151 1
	mv	s3,a0
	mv	s4,a1
.LVL57:
	.loc 2 155 5 is_stmt 1
	.loc 2 157 5
	.loc 2 158 5
	.loc 2 158 12 is_stmt 0
	call	fdt_offset_ptr
.LVL58:
	.loc 2 159 5 is_stmt 1
	.loc 2 159 8 is_stmt 0
	bne	a0,zero,.L47
.LVL59:
.L54:
	.loc 2 193 16
	li	s1,9
	j	.L46
.LVL60:
.L47:
	.loc 2 161 5 is_stmt 1
	.loc 2 161 11 is_stmt 0
	lw	a5,0(a0)
.LVL61:
.LBB76:
.LBB77:
	.file 4 "/home/hogc/build-tools/sdk/bl/bl_iot_sdk/components/stage/blfdt/inc/libfdt_env.h"
	.loc 4 122 5 is_stmt 1
.LBE77:
.LBE76:
	.loc 2 162 12 is_stmt 0
	addi	s0,s4,4
.LBB79:
.LBB78:
	.loc 4 122 212
	srli	a4,a5,24
	.loc 4 122 12
	slli	s1,a5,24
	or	s1,s1,a4
	.loc 4 122 112
	srli	a4,a5,8
	andi	a4,a4,0xff
	.loc 4 122 163
	srli	a5,a5,16
.LVL62:
	.loc 4 122 117
	slli	a4,a4,16
	.loc 4 122 163
	andi	a5,a5,0xff
	.loc 4 122 12
	or	s1,s1,a4
	.loc 4 122 168
	slli	a5,a5,8
	.loc 4 122 12
	or	s1,s1,a5
.LVL63:
.LBE78:
.LBE79:
	.loc 2 162 5 is_stmt 1
	.loc 2 164 5
	.loc 2 164 17 is_stmt 0
	li	a5,-11
	sw	a5,0(s2)
	.loc 2 165 5 is_stmt 1
	li	a4,8
	addi	a5,s1,-1
	bgtu	a5,a4,.L54
	lui	a4,%hi(.L50)
	slli	a5,a5,2
	addi	a4,a4,%lo(.L50)
	add	a5,a5,a4
	lw	a5,0(a5)
	jr	a5
	.section	.rodata.fdt_next_tag,"a",@progbits
	.align	2
	.align	2
.L50:
	.word	.L52
	.word	.L49
	.word	.L51
	.word	.L49
	.word	.L54
	.word	.L54
	.word	.L54
	.word	.L54
	.word	.L49
	.section	.text.fdt_next_tag
.LVL64:
.L52:
	.loc 2 168 9 discriminator 2
	.loc 2 169 13 discriminator 2
	.loc 2 169 17 is_stmt 0 discriminator 2
	li	a2,1
	mv	a1,s0
	mv	a0,s3
	addi	s5,s0,1
.LVL65:
	call	fdt_offset_ptr
.LVL66:
	.loc 2 170 9 discriminator 2
	beq	a0,zero,.L54
	.loc 2 170 20 discriminator 1
	lbu	a5,0(a0)
	.loc 2 169 17 discriminator 1
	mv	s0,s5
	.loc 2 170 20 discriminator 1
	bne	a5,zero,.L52
.LVL67:
.L49:
	.loc 2 196 5 is_stmt 1
	.loc 2 196 10 is_stmt 0
	sub	a2,s0,s4
	mv	a1,s4
	mv	a0,s3
	call	fdt_offset_ptr
.LVL68:
	.loc 2 196 8
	beq	a0,zero,.L54
	.loc 2 199 5 is_stmt 1
	.loc 2 199 53 is_stmt 0
	addi	s0,s0,3
.LVL69:
	.loc 2 199 58
	andi	s0,s0,-4
.LVL70:
	.loc 2 199 17
	sw	s0,0(s2)
	.loc 2 200 5 is_stmt 1
.LVL71:
.L46:
	.loc 2 201 1 is_stmt 0
	lw	ra,28(sp)
	.cfi_remember_state
	.cfi_restore 1
	lw	s0,24(sp)
	.cfi_restore 8
	mv	a0,s1
	lw	s2,16(sp)
	.cfi_restore 18
.LVL72:
	lw	s1,20(sp)
	.cfi_restore 9
	lw	s3,12(sp)
	.cfi_restore 19
.LVL73:
	lw	s4,8(sp)
	.cfi_restore 20
.LVL74:
	lw	s5,4(sp)
	.cfi_restore 21
	lw	s6,0(sp)
	.cfi_restore 22
	addi	sp,sp,32
	.cfi_def_cfa_offset 0
	jr	ra
.LVL75:
.L51:
	.cfi_restore_state
	.loc 2 176 9 is_stmt 1
	.loc 2 176 16 is_stmt 0
	li	a2,4
	mv	a1,s0
	mv	a0,s3
.LVL76:
	call	fdt_offset_ptr
.LVL77:
	.loc 2 177 9 is_stmt 1
	.loc 2 177 12 is_stmt 0
	beq	a0,zero,.L54
	.loc 2 180 9 is_stmt 1
	.loc 2 181 15 is_stmt 0
	lw	a5,0(a0)
.LVL78:
.LBB80:
.LBB81:
	.loc 4 122 5 is_stmt 1
.LBE81:
.LBE80:
	.loc 2 182 15 is_stmt 0
	addi	a0,s3,20
.LVL79:
	addi	s6,s4,12
.LBB83:
.LBB82:
	.loc 4 122 212
	srli	a4,a5,24
	.loc 4 122 12
	slli	s5,a5,24
	or	s5,s5,a4
	.loc 4 122 112
	srli	a4,a5,8
	andi	a4,a4,0xff
	.loc 4 122 163
	srli	a5,a5,16
.LVL80:
	.loc 4 122 117
	slli	a4,a4,16
	.loc 4 122 163
	andi	a5,a5,0xff
	.loc 4 122 168
	slli	a5,a5,8
	.loc 4 122 12
	or	s5,s5,a4
	or	s5,s5,a5
.LBE82:
.LBE83:
	.loc 2 182 15
	call	fdt32_ld
.LVL81:
	.loc 2 182 12
	li	a5,15
	.loc 2 180 16
	add	s0,s6,s5
.LVL82:
	.loc 2 182 9 is_stmt 1
	.loc 2 182 12 is_stmt 0
	bgtu	a0,a5,.L49
	.loc 2 182 79 discriminator 1
	li	a5,7
	bleu	s5,a5,.L49
	.loc 2 183 45 discriminator 2
	andi	s6,s6,7
	.loc 2 182 107 discriminator 2
	beq	s6,zero,.L49
	.loc 2 184 13 is_stmt 1
	.loc 2 184 20 is_stmt 0
	addi	s0,s0,4
.LVL83:
	j	.L49
	.cfi_endproc
.LFE46:
	.size	fdt_next_tag, .-fdt_next_tag
	.section	.text.fdt_check_node_offset_,"ax",@progbits
	.align	1
	.globl	fdt_check_node_offset_
	.type	fdt_check_node_offset_, @function
fdt_check_node_offset_:
.LFB47:
	.loc 2 204 1 is_stmt 1
	.cfi_startproc
.LVL84:
	.loc 2 205 5
	.loc 2 204 1 is_stmt 0
	addi	sp,sp,-32
	.cfi_def_cfa_offset 32
	sw	ra,28(sp)
	.cfi_offset 1, -4
	.loc 2 204 1
	sw	a1,12(sp)
	.loc 2 205 8
	bge	a1,zero,.L71
.LVL85:
.L73:
	.loc 2 207 16
	li	a0,-4
.L70:
	.loc 2 210 1
	lw	ra,28(sp)
	.cfi_remember_state
	.cfi_restore 1
	addi	sp,sp,32
	.cfi_def_cfa_offset 0
	jr	ra
.LVL86:
.L71:
	.cfi_restore_state
	.loc 2 205 33 discriminator 1
	andi	a5,a1,3
	.loc 2 205 22 discriminator 1
	bne	a5,zero,.L73
	.loc 2 206 13
	addi	a2,sp,12
	call	fdt_next_tag
.LVL87:
	.loc 2 206 9
	li	a5,1
	bne	a0,a5,.L73
	.loc 2 209 5 is_stmt 1
	.loc 2 209 12 is_stmt 0
	lw	a0,12(sp)
	j	.L70
	.cfi_endproc
.LFE47:
	.size	fdt_check_node_offset_, .-fdt_check_node_offset_
	.section	.text.fdt_check_prop_offset_,"ax",@progbits
	.align	1
	.globl	fdt_check_prop_offset_
	.type	fdt_check_prop_offset_, @function
fdt_check_prop_offset_:
.LFB48:
	.loc 2 213 1 is_stmt 1
	.cfi_startproc
.LVL88:
	.loc 2 214 5
	.loc 2 213 1 is_stmt 0
	addi	sp,sp,-32
	.cfi_def_cfa_offset 32
	sw	ra,28(sp)
	.cfi_offset 1, -4
	.loc 2 213 1
	sw	a1,12(sp)
	.loc 2 214 8
	bge	a1,zero,.L76
.LVL89:
.L78:
	.loc 2 216 16
	li	a0,-4
.L75:
	.loc 2 219 1
	lw	ra,28(sp)
	.cfi_remember_state
	.cfi_restore 1
	addi	sp,sp,32
	.cfi_def_cfa_offset 0
	jr	ra
.LVL90:
.L76:
	.cfi_restore_state
	.loc 2 214 33 discriminator 1
	andi	a5,a1,3
	.loc 2 214 22 discriminator 1
	bne	a5,zero,.L78
	.loc 2 215 13
	addi	a2,sp,12
	call	fdt_next_tag
.LVL91:
	.loc 2 215 9
	li	a5,3
	bne	a0,a5,.L78
	.loc 2 218 5 is_stmt 1
	.loc 2 218 12 is_stmt 0
	lw	a0,12(sp)
	j	.L75
	.cfi_endproc
.LFE48:
	.size	fdt_check_prop_offset_, .-fdt_check_prop_offset_
	.section	.text.fdt_next_node,"ax",@progbits
	.align	1
	.globl	fdt_next_node
	.type	fdt_next_node, @function
fdt_next_node:
.LFB49:
	.loc 2 222 1 is_stmt 1
	.cfi_startproc
.LVL92:
	.loc 2 223 5
	.loc 2 222 1 is_stmt 0
	addi	sp,sp,-48
	.cfi_def_cfa_offset 48
	sw	s1,36(sp)
	sw	s2,32(sp)
	sw	ra,44(sp)
	sw	s0,40(sp)
	sw	s3,28(sp)
	sw	s4,24(sp)
	sw	s5,20(sp)
	.cfi_offset 9, -12
	.cfi_offset 18, -16
	.cfi_offset 1, -4
	.cfi_offset 8, -8
	.cfi_offset 19, -20
	.cfi_offset 20, -24
	.cfi_offset 21, -28
	.loc 2 223 9
	sw	zero,12(sp)
	.loc 2 224 5 is_stmt 1
	.loc 2 226 5
	.loc 2 222 1 is_stmt 0
	mv	s2,a0
	mv	s1,a2
	.loc 2 226 8
	bge	a1,zero,.L81
.LVL93:
.L84:
	.loc 2 234 9
	li	s3,2
	li	s4,9
	li	s5,1
.LVL94:
.L82:
	.loc 2 230 5 is_stmt 1
	.loc 2 231 9
	.loc 2 231 16 is_stmt 0
	lw	s0,12(sp)
.LVL95:
	.loc 2 232 9 is_stmt 1
	.loc 2 232 15 is_stmt 0
	addi	a2,sp,12
	mv	a0,s2
	mv	a1,s0
	call	fdt_next_tag
.LVL96:
	.loc 2 234 9 is_stmt 1
	beq	a0,s3,.L85
	beq	a0,s4,.L86
	bne	a0,s5,.L82
	.loc 2 240 13
	.loc 2 240 16 is_stmt 0
	beq	s1,zero,.L80
	.loc 2 241 17 is_stmt 1
	.loc 2 241 25 is_stmt 0
	lw	a5,0(s1)
	addi	a5,a5,1
	sw	a5,0(s1)
	j	.L80
.LVL97:
.L81:
	.loc 2 227 9 is_stmt 1
	.loc 2 227 27 is_stmt 0
	call	fdt_check_node_offset_
.LVL98:
	.loc 2 227 25
	sw	a0,12(sp)
	.loc 2 227 27
	mv	s0,a0
	.loc 2 227 12
	bge	a0,zero,.L84
.LVL99:
.L80:
	.loc 2 259 1
	mv	a0,s0
	lw	ra,44(sp)
	.cfi_remember_state
	.cfi_restore 1
	lw	s0,40(sp)
	.cfi_restore 8
	lw	s1,36(sp)
	.cfi_restore 9
.LVL100:
	lw	s2,32(sp)
	.cfi_restore 18
.LVL101:
	lw	s3,28(sp)
	.cfi_restore 19
	lw	s4,24(sp)
	.cfi_restore 20
	lw	s5,20(sp)
	.cfi_restore 21
	addi	sp,sp,48
	.cfi_def_cfa_offset 0
	jr	ra
.LVL102:
.L85:
	.cfi_restore_state
	.loc 2 245 13 is_stmt 1
	.loc 2 245 16 is_stmt 0
	beq	s1,zero,.L82
	.loc 2 245 28 discriminator 1
	lw	a5,0(s1)
	addi	a5,a5,-1
	.loc 2 245 23 discriminator 1
	sw	a5,0(s1)
	bge	a5,zero,.L82
	.loc 2 246 17 is_stmt 1
	.loc 2 246 24 is_stmt 0
	lw	s0,12(sp)
.LVL103:
	j	.L80
.LVL104:
.L86:
	.loc 2 250 13 is_stmt 1
	.loc 2 250 29 is_stmt 0
	lw	s0,12(sp)
.LVL105:
	.loc 2 250 16
	bge	s0,zero,.L90
	.loc 2 251 17
	li	a5,-8
	bne	s0,a5,.L80
	.loc 2 251 40 discriminator 1
	bne	s1,zero,.L80
.L90:
	.loc 2 252 24
	li	s0,-1
	j	.L80
	.cfi_endproc
.LFE49:
	.size	fdt_next_node, .-fdt_next_node
	.section	.text.fdt_first_subnode,"ax",@progbits
	.align	1
	.globl	fdt_first_subnode
	.type	fdt_first_subnode, @function
fdt_first_subnode:
.LFB50:
	.loc 2 262 1 is_stmt 1
	.cfi_startproc
.LVL106:
	.loc 2 263 5
	.loc 2 262 1 is_stmt 0
	addi	sp,sp,-32
	.cfi_def_cfa_offset 32
	.loc 2 265 14
	addi	a2,sp,12
	.loc 2 262 1
	sw	ra,28(sp)
	.cfi_offset 1, -4
	.loc 2 263 9
	sw	zero,12(sp)
	.loc 2 265 5 is_stmt 1
	.loc 2 265 14 is_stmt 0
	call	fdt_next_node
.LVL107:
	.loc 2 266 5 is_stmt 1
	.loc 2 266 8 is_stmt 0
	blt	a0,zero,.L98
	.loc 2 266 20 discriminator 1
	lw	a4,12(sp)
	li	a5,1
	beq	a4,a5,.L95
.L98:
	.loc 2 267 16
	li	a0,-1
.LVL108:
.L95:
	.loc 2 270 1
	lw	ra,28(sp)
	.cfi_restore 1
	addi	sp,sp,32
	.cfi_def_cfa_offset 0
	jr	ra
	.cfi_endproc
.LFE50:
	.size	fdt_first_subnode, .-fdt_first_subnode
	.section	.text.fdt_next_subnode,"ax",@progbits
	.align	1
	.globl	fdt_next_subnode
	.type	fdt_next_subnode, @function
fdt_next_subnode:
.LFB51:
	.loc 2 273 1 is_stmt 1
	.cfi_startproc
.LVL109:
	.loc 2 274 5
	.loc 2 273 1 is_stmt 0
	addi	sp,sp,-32
	.cfi_def_cfa_offset 32
	.loc 2 274 9
	li	a5,1
	.loc 2 273 1
	sw	s0,24(sp)
	sw	s1,20(sp)
	sw	ra,28(sp)
	.cfi_offset 8, -8
	.cfi_offset 9, -12
	.cfi_offset 1, -4
	.loc 2 273 1
	mv	s1,a0
	.loc 2 274 9
	sw	a5,12(sp)
	.loc 2 284 5
	li	s0,1
.LVL110:
.L102:
	.loc 2 280 5 is_stmt 1
	.loc 2 281 9
	.loc 2 281 18 is_stmt 0
	addi	a2,sp,12
	mv	a0,s1
	call	fdt_next_node
.LVL111:
	mv	a1,a0
.LVL112:
	.loc 2 282 9 is_stmt 1
	.loc 2 282 12 is_stmt 0
	blt	a0,zero,.L104
	.loc 2 282 33 discriminator 1
	lw	a5,12(sp)
	.loc 2 282 24 discriminator 1
	ble	a5,zero,.L104
	.loc 2 284 5
	bne	a5,s0,.L102
.L100:
	.loc 2 287 1
	lw	ra,28(sp)
	.cfi_remember_state
	.cfi_restore 1
	lw	s0,24(sp)
	.cfi_restore 8
	lw	s1,20(sp)
	.cfi_restore 9
.LVL113:
	mv	a0,a1
.LVL114:
	addi	sp,sp,32
	.cfi_def_cfa_offset 0
	jr	ra
.LVL115:
.L104:
	.cfi_restore_state
	.loc 2 283 20
	li	a1,-1
	j	.L100
	.cfi_endproc
.LFE51:
	.size	fdt_next_subnode, .-fdt_next_subnode
	.section	.text.fdt_find_string_,"ax",@progbits
	.align	1
	.globl	fdt_find_string_
	.type	fdt_find_string_, @function
fdt_find_string_:
.LFB52:
	.loc 2 290 1 is_stmt 1
	.cfi_startproc
.LVL116:
	.loc 2 291 5
	.loc 2 290 1 is_stmt 0
	addi	sp,sp,-32
	.cfi_def_cfa_offset 32
	sw	s0,24(sp)
	.cfi_offset 8, -8
	mv	s0,a0
	.loc 2 291 15
	mv	a0,a2
.LVL117:
	.loc 2 290 1
	sw	s1,20(sp)
	sw	s2,16(sp)
	sw	s3,12(sp)
	.cfi_offset 9, -12
	.cfi_offset 18, -16
	.cfi_offset 19, -20
	mv	s1,a1
	sw	ra,28(sp)
	.cfi_offset 1, -4
	.loc 2 290 1
	mv	s3,a2
	.loc 2 291 15
	call	strlen
.LVL118:
	.loc 2 291 25
	addi	s2,a0,1
.LVL119:
	.loc 2 292 5 is_stmt 1
	.loc 2 292 41 is_stmt 0
	sub	s1,s1,s2
.LVL120:
	.loc 2 292 17
	add	s1,s0,s1
.LVL121:
	.loc 2 293 5 is_stmt 1
	.loc 2 295 5
.L108:
	.loc 2 295 5 is_stmt 0 discriminator 1
	bleu	s0,s1,.L110
	.loc 2 298 11
	li	s0,0
.LVL122:
.L109:
	.loc 2 299 1
	mv	a0,s0
	lw	ra,28(sp)
	.cfi_remember_state
	.cfi_restore 1
	lw	s0,24(sp)
	.cfi_restore 8
	lw	s1,20(sp)
	.cfi_restore 9
.LVL123:
	lw	s2,16(sp)
	.cfi_restore 18
.LVL124:
	lw	s3,12(sp)
	.cfi_restore 19
.LVL125:
	addi	sp,sp,32
	.cfi_def_cfa_offset 0
	jr	ra
.LVL126:
.L110:
	.cfi_restore_state
	.loc 2 296 9 is_stmt 1
	.loc 2 296 13 is_stmt 0
	mv	a2,s2
	mv	a1,s3
	mv	a0,s0
	call	memcmp
.LVL127:
	.loc 2 296 12
	beq	a0,zero,.L109
	.loc 2 295 34 discriminator 2
	addi	s0,s0,1
.LVL128:
	j	.L108
	.cfi_endproc
.LFE52:
	.size	fdt_find_string_, .-fdt_find_string_
	.section	.text.fdt_move,"ax",@progbits
	.align	1
	.globl	fdt_move
	.type	fdt_move, @function
fdt_move:
.LFB53:
	.loc 2 302 1 is_stmt 1
	.cfi_startproc
.LVL129:
.LBB84:
	.loc 2 303 7
	.loc 2 303 17
.LBE84:
	.loc 2 302 1 is_stmt 0
	addi	sp,sp,-32
	.cfi_def_cfa_offset 32
	sw	s0,24(sp)
	sw	s1,20(sp)
	sw	s2,16(sp)
	sw	s3,12(sp)
	sw	ra,28(sp)
	.cfi_offset 8, -8
	.cfi_offset 9, -12
	.cfi_offset 18, -16
	.cfi_offset 19, -20
	.cfi_offset 1, -4
	.loc 2 302 1
	mv	s1,a0
	mv	s2,a1
	mv	s3,a2
.LBB85:
	.loc 2 303 29
	call	fdt_ro_probe_
.LVL130:
	mv	s0,a0
.LVL131:
	.loc 2 303 20
	bne	a0,zero,.L115
.LBE85:
	.loc 2 303 69 is_stmt 1 discriminator 2
	.loc 2 305 5 discriminator 2
	.loc 2 305 11 is_stmt 0 discriminator 2
	addi	a0,s1,4
	call	fdt32_ld
.LVL132:
	.loc 2 305 8 discriminator 2
	bgtu	a0,s3,.L117
	.loc 2 308 5 is_stmt 1
	mv	a2,a0
	mv	a1,s1
	mv	a0,s2
	call	memmove
.LVL133:
	.loc 2 309 5
.L115:
	.loc 2 310 1 is_stmt 0
	mv	a0,s0
	lw	ra,28(sp)
	.cfi_remember_state
	.cfi_restore 1
	lw	s0,24(sp)
	.cfi_restore 8
	lw	s1,20(sp)
	.cfi_restore 9
.LVL134:
	lw	s2,16(sp)
	.cfi_restore 18
.LVL135:
	lw	s3,12(sp)
	.cfi_restore 19
.LVL136:
	addi	sp,sp,32
	.cfi_def_cfa_offset 0
	jr	ra
.LVL137:
.L117:
	.cfi_restore_state
	.loc 2 306 16
	li	s0,-3
.LVL138:
	j	.L115
	.cfi_endproc
.LFE53:
	.size	fdt_move, .-fdt_move
	.text
.Letext0:
	.file 5 "/home/hogc/build-tools/sdk/bl/bl_iot_sdk/toolchain/riscv/Linux/lib/gcc/riscv64-unknown-elf/8.3.0/include/stddef.h"
	.file 6 "/home/hogc/build-tools/sdk/bl/bl_iot_sdk/toolchain/riscv/Linux/lib/gcc/riscv64-unknown-elf/8.3.0/include/stdint-gcc.h"
	.file 7 "/home/hogc/build-tools/sdk/bl/bl_iot_sdk/toolchain/riscv/Linux/riscv64-unknown-elf/include/sys/_types.h"
	.file 8 "/home/hogc/build-tools/sdk/bl/bl_iot_sdk/toolchain/riscv/Linux/riscv64-unknown-elf/include/sys/reent.h"
	.file 9 "/home/hogc/build-tools/sdk/bl/bl_iot_sdk/toolchain/riscv/Linux/riscv64-unknown-elf/include/sys/lock.h"
	.file 10 "/home/hogc/build-tools/sdk/bl/bl_iot_sdk/toolchain/riscv/Linux/riscv64-unknown-elf/include/stdlib.h"
	.file 11 "/home/hogc/build-tools/sdk/bl/bl_iot_sdk/components/stage/blfdt/inc/fdt.h"
	.file 12 "/home/hogc/build-tools/sdk/bl/bl_iot_sdk/toolchain/riscv/Linux/riscv64-unknown-elf/include/string.h"