	.file	"fdt_ro.c"
	.option nopic
	.attribute arch, "rv32i2p0_m2p0_f2p0_c2p0"
	.attribute unaligned_access, 0
	.attribute stack_align, 16
	.text
.Ltext0:
	.cfi_sections	.debug_frame
	.section	.text.fdt32_ld,"ax",@progbits
	.align	1
	.type	fdt32_ld, @function
fdt32_ld:
.LFB8:
	.file 1 "/home/hogc/build-tools/sdk/bl/bl_iot_sdk/components/stage/blfdt/inc/libfdt.h"
	.loc 1 194 1
	.cfi_startproc
.LVL0:
	.loc 1 195 5
	.loc 1 197 5
	.loc 1 197 13 is_stmt 0
	lbu	a5,0(a0)
	.loc 1 198 12
	lbu	a4,1(a0)
	.loc 1 197 29
	slli	a5,a5,24
	.loc 1 198 28
	slli	a4,a4,16
	.loc 1 198 9
	or	a5,a5,a4
	.loc 1 200 13
	lbu	a4,3(a0)
	.loc 1 199 12
	lbu	a0,2(a0)
.LVL1:
	.loc 1 200 9
	or	a5,a5,a4
	.loc 1 199 28
	slli	a0,a0,8
	.loc 1 201 1
	or	a0,a5,a0
	ret
	.cfi_endproc
.LFE8:
	.size	fdt32_ld, .-fdt32_ld
	.section	.text.fdt64_ld,"ax",@progbits
	.align	1
	.type	fdt64_ld, @function
fdt64_ld:
.LFB9:
	.loc 1 204 1 is_stmt 1
	.cfi_startproc
.LVL2:
	.loc 1 205 5
	.loc 1 207 5
	.loc 1 207 13 is_stmt 0
	lbu	a5,0(a0)
	.loc 1 208 12
	lbu	a1,1(a0)
	.loc 1 211 12
	lbu	a3,4(a0)
	.loc 1 207 29
	slli	a5,a5,24
	.loc 1 208 28
	slli	a1,a1,16
	.loc 1 214 13
	lbu	a4,7(a0)
	.loc 1 208 9
	or	a5,a5,a1
	.loc 1 209 12
	lbu	a1,2(a0)
	.loc 1 211 28
	slli	a3,a3,24
	.loc 1 214 9
	or	a4,a4,a3
	.loc 1 209 28
	slli	a1,a1,8
	.loc 1 212 12
	lbu	a3,5(a0)
	.loc 1 214 9
	or	a5,a5,a1
	.loc 1 210 12
	lbu	a1,3(a0)
	.loc 1 213 12
	lbu	a0,6(a0)
.LVL3:
	.loc 1 212 28
	slli	a3,a3,16
	.loc 1 214 9
	or	a4,a4,a3
	.loc 1 213 28
	slli	a0,a0,8
	.loc 1 215 1
	or	a0,a4,a0
	or	a1,a5,a1
	ret
	.cfi_endproc
.LFE9:
	.size	fdt64_ld, .-fdt64_ld
	.section	.text.fdt_mem_rsv,"ax",@progbits
	.align	1
	.type	fdt_mem_rsv, @function
fdt_mem_rsv:
.LFB45:
	.file 2 "/home/hogc/build-tools/sdk/bl/bl_iot_sdk/components/stage/blfdt/src/fdt_ro.c"
	.loc 2 153 1 is_stmt 1
	.cfi_startproc
.LVL4:
	addi	sp,sp,-16
	.cfi_def_cfa_offset 16
	sw	s0,8(sp)
	sw	s1,4(sp)
	.cfi_offset 8, -8
	.cfi_offset 9, -12
	mv	s0,a1
	mv	s1,a0
	.loc 2 154 5
.LVL5:
	.loc 2 155 5
	.loc 2 155 23 is_stmt 0
	addi	a0,a0,16
.LVL6:
	.loc 2 153 1
	sw	ra,12(sp)
	.cfi_offset 1, -4
	.loc 2 154 20
	slli	s0,s0,4
	.loc 2 155 23
	call	fdt32_ld
.LVL7:
	.loc 2 155 87
	add	s0,s0,a0
.LVL8:
	.loc 2 157 5 is_stmt 1
	.loc 2 157 8 is_stmt 0
	bgtu	a0,s0,.L5
	.loc 2 159 5 is_stmt 1
	.loc 2 159 23 is_stmt 0
	addi	a0,s1,4
	call	fdt32_ld
.LVL9:
	.loc 2 159 82
	addi	a5,a0,-16
	.loc 2 158 15
	li	a0,0
	.loc 2 159 8
	bgtu	s0,a5,.L3
	.loc 2 161 5 is_stmt 1
.LVL10:
.LBB10:
.LBB11:
	.file 3 "/home/hogc/build-tools/sdk/bl/bl_iot_sdk/components/stage/blfdt/inc/libfdt_internal.h"
	.loc 3 112 5
	.loc 3 116 5
	.loc 3 116 22 is_stmt 0
	add	a0,s1,s0
.LVL11:
.L3:
.LBE11:
.LBE10:
	.loc 2 162 1
	lw	ra,12(sp)
	.cfi_remember_state
	.cfi_restore 1
	lw	s0,8(sp)
	.cfi_restore 8
.LVL12:
	lw	s1,4(sp)
	.cfi_restore 9
.LVL13:
	addi	sp,sp,16
	.cfi_def_cfa_offset 0
	jr	ra
.LVL14:
.L5:
	.cfi_restore_state
	.loc 2 158 15
	li	a0,0
	j	.L3
	.cfi_endproc
.LFE45:
	.size	fdt_mem_rsv, .-fdt_mem_rsv
	.section	.text.nextprop_.part.0,"ax",@progbits
	.align	1
	.type	nextprop_.part.0, @function
nextprop_.part.0:
.LFB80:
	.loc 2 190 12 is_stmt 1
	.cfi_startproc
.LVL15:
	addi	sp,sp,-48
	.cfi_def_cfa_offset 48
	sw	s0,40(sp)
	sw	s1,36(sp)
	sw	s2,32(sp)
	sw	s3,28(sp)
	sw	s4,24(sp)
	sw	ra,44(sp)
	.cfi_offset 8, -8
	.cfi_offset 9, -12
	.cfi_offset 18, -16
	.cfi_offset 19, -20
	.cfi_offset 20, -24
	.cfi_offset 1, -4
	.loc 2 190 12 is_stmt 0
	mv	s2,a0
	mv	s0,a1
	.loc 2 198 9
	li	s3,3
	li	s4,9
	.loc 2 209 5
	li	s1,4
.LVL16:
.L11:
	.loc 2 192 5 is_stmt 1
	.loc 2 193 5
	.loc 2 195 5
	.loc 2 196 9
	.loc 2 196 15 is_stmt 0
	addi	a2,sp,12
	mv	a1,s0
	mv	a0,s2
	call	fdt_next_tag
.LVL17:
	.loc 2 198 9 is_stmt 1
	beq	a0,s3,.L8
	lw	s0,12(sp)
.LVL18:
	bne	a0,s4,.L10
	.loc 2 200 13
	.loc 2 200 16 is_stmt 0
	blt	s0,zero,.L8
	.loc 2 201 24
	li	s0,-11
	j	.L8
.L10:
	.loc 2 208 9 is_stmt 1
.LVL19:
	.loc 2 209 5 is_stmt 0
	beq	a0,s1,.L11
	.loc 2 211 12
	li	s0,-1
.LVL20:
.L8:
	.loc 2 212 1
	mv	a0,s0
.LVL21:
	lw	ra,44(sp)
	.cfi_restore 1
	lw	s0,40(sp)
	.cfi_restore 8
	lw	s1,36(sp)
	.cfi_restore 9
	lw	s2,32(sp)
	.cfi_restore 18
.LVL22:
	lw	s3,28(sp)
	.cfi_restore 19
	lw	s4,24(sp)
	.cfi_restore 20
	addi	sp,sp,48
	.cfi_def_cfa_offset 0
	jr	ra
	.cfi_endproc
.LFE80:
	.size	nextprop_.part.0, .-nextprop_.part.0
	.section	.text.fdt_get_property_by_offset_,"ax",@progbits
	.align	1
	.type	fdt_get_property_by_offset_, @function
fdt_get_property_by_offset_:
.LFB56:
	.loc 2 348 1 is_stmt 1
	.cfi_startproc
.LVL23:
	.loc 2 349 5
	.loc 2 350 5
	.loc 2 352 5
	.loc 2 348 1 is_stmt 0
	addi	sp,sp,-16
	.cfi_def_cfa_offset 16
	sw	s0,8(sp)
	sw	s1,4(sp)
	sw	s2,0(sp)
	sw	ra,12(sp)
	.cfi_offset 8, -8
	.cfi_offset 9, -12
	.cfi_offset 18, -16
	.cfi_offset 1, -4
	.loc 2 348 1
	mv	s0,a0
	mv	s2,a1
	mv	s1,a2
	.loc 2 352 16
	call	fdt_check_prop_offset_
.LVL24:
	.loc 2 352 8
	bge	a0,zero,.L16
	.loc 2 353 9 is_stmt 1
	.loc 2 355 15 is_stmt 0
	li	s0,0
.LVL25:
	.loc 2 353 12
	beq	s1,zero,.L15
.LVL26:
.L23:
	.loc 2 361 15
	sw	a0,0(s1)
.L15:
	.loc 2 364 1
	mv	a0,s0
	lw	ra,12(sp)
	.cfi_remember_state
	.cfi_restore 1
	lw	s0,8(sp)
	.cfi_restore 8
	lw	s1,4(sp)
	.cfi_restore 9
.LVL27:
	lw	s2,0(sp)
	.cfi_restore 18
.LVL28:
	addi	sp,sp,16
	.cfi_def_cfa_offset 0
	jr	ra
.LVL29:
.L16:
	.cfi_restore_state
	.loc 2 358 5 is_stmt 1
.LBB14:
.LBB15:
	.loc 3 102 5
	.loc 3 102 34 is_stmt 0
	addi	a0,s0,8
.LVL30:
	call	fdt32_ld
.LVL31:
	.loc 3 102 97
	add	a0,s2,a0
	add	s0,s0,a0
.LVL32:
.LBE15:
.LBE14:
	.loc 2 360 5 is_stmt 1
	.loc 2 360 8 is_stmt 0
	beq	s1,zero,.L15
	.loc 2 361 9 is_stmt 1
	.loc 2 361 17 is_stmt 0
	addi	a0,s0,4
	call	fdt32_ld
.LVL33:
	j	.L23
	.cfi_endproc
.LFE56:
	.size	fdt_get_property_by_offset_, .-fdt_get_property_by_offset_
	.section	.text.fdt_get_string,"ax",@progbits
	.align	1
	.globl	fdt_get_string
	.type	fdt_get_string, @function
fdt_get_string:
.LFB41:
	.loc 2 59 1 is_stmt 1
	.cfi_startproc
.LVL34:
	.loc 2 60 5
	.loc 2 59 1 is_stmt 0
	addi	sp,sp,-32
	.cfi_def_cfa_offset 32
	sw	s0,24(sp)
	.cfi_offset 8, -8
	mv	s0,a0
	.loc 2 60 40
	addi	a0,a0,12
.LVL35:
	.loc 2 59 1
	sw	s1,20(sp)
	sw	s3,12(sp)
	sw	s4,8(sp)
	sw	ra,28(sp)
	sw	s2,16(sp)
	.cfi_offset 9, -12
	.cfi_offset 19, -20
	.cfi_offset 20, -24
	.cfi_offset 1, -4
	.cfi_offset 18, -16
	.loc 2 59 1
	mv	s1,a1
	mv	s4,a2
	.loc 2 60 40
	call	fdt32_ld
.LVL36:
	mv	s3,a0
.LVL37:
	.loc 2 61 5 is_stmt 1
	.loc 2 62 5
	.loc 2 63 5
	.loc 2 65 5
	.loc 2 65 11 is_stmt 0
	mv	a0,s0
.LVL38:
	call	fdt_ro_probe_
.LVL39:
	.loc 2 66 5 is_stmt 1
	.loc 2 66 8 is_stmt 0
	bne	a0,zero,.L25
	.loc 2 70 24
	addi	a0,s0,4
.LVL40:
	.loc 2 60 14
	add	s3,s3,s1
.LVL41:
	.loc 2 69 5 is_stmt 1
	.loc 2 70 5
	.loc 2 70 24 is_stmt 0
	call	fdt32_ld
.LVL42:
	.loc 2 70 8
	bleu	a0,s3,.L36
	.loc 2 72 5 is_stmt 1
	.loc 2 72 9 is_stmt 0
	sub	s2,a0,s3
.LVL43:
	.loc 2 74 5 is_stmt 1
	.loc 2 74 11 is_stmt 0
	mv	a0,s0
	call	fdt32_ld
.LVL44:
	.loc 2 74 8
	li	a5,-804388864
	addi	a5,a5,-275
	bne	a0,a5,.L26
	.loc 2 75 9 is_stmt 1
	.loc 2 75 12 is_stmt 0
	blt	s1,zero,.L36
	.loc 2 77 9 is_stmt 1
	.loc 2 77 15 is_stmt 0
	addi	a0,s0,20
	call	fdt32_ld
.LVL45:
	.loc 2 77 12
	li	a5,16
	bleu	a0,a5,.L27
	.loc 2 78 13 is_stmt 1
	.loc 2 78 32 is_stmt 0
	addi	a0,s0,32
	call	fdt32_ld
.LVL46:
	.loc 2 78 16
	bgeu	s1,a0,.L36
	.loc 2 80 13 is_stmt 1
	.loc 2 80 85 is_stmt 0
	sub	a0,a0,s1
	bleu	s2,a0,.L27
	mv	s2,a0
.LVL47:
.L27:
	.loc 2 94 5 is_stmt 1
	.loc 2 94 7 is_stmt 0
	add	s0,s0,s3
.LVL48:
	.loc 2 95 5 is_stmt 1
	.loc 2 95 9 is_stmt 0
	mv	a2,s2
	li	a1,0
	mv	a0,s0
	call	memchr
.LVL49:
	.loc 2 96 5 is_stmt 1
	.loc 2 96 8 is_stmt 0
	beq	a0,zero,.L37
	.loc 2 102 5 is_stmt 1
	.loc 2 103 19 is_stmt 0
	sub	a0,a0,s0
.LVL50:
	.loc 2 102 8
	bne	s4,zero,.L43
.LVL51:
.L24:
	.loc 2 110 1
	mv	a0,s0
	lw	ra,28(sp)
	.cfi_remember_state
	.cfi_restore 1
	lw	s0,24(sp)
	.cfi_restore 8
	lw	s1,20(sp)
	.cfi_restore 9
	lw	s2,16(sp)
	.cfi_restore 18
	lw	s3,12(sp)
	.cfi_restore 19
	lw	s4,8(sp)
	.cfi_restore 20
.LVL52:
	addi	sp,sp,32
	.cfi_def_cfa_offset 0
	jr	ra
.LVL53:
.L26:
	.cfi_restore_state
	.loc 2 83 12 is_stmt 1
	.loc 2 83 15 is_stmt 0
	li	a5,804388864
	addi	a5,a5,274
	bne	a0,a5,.L34
	.loc 2 84 9 is_stmt 1
	.loc 2 84 12 is_stmt 0
	bge	s1,zero,.L36
	.loc 2 85 32
	addi	a0,s0,32
	call	fdt32_ld
.LVL54:
	.loc 2 85 29
	neg	a0,a0
	.loc 2 85 13
	bltu	s1,a0,.L36
	.loc 2 87 9 is_stmt 1
	.loc 2 87 14 is_stmt 0
	neg	s1,s1
.LVL55:
	bleu	s2,s1,.L27
	mv	s2,s1
.LVL56:
	j	.L27
.LVL57:
.L34:
	.loc 2 90 13
	li	a0,-13
.LVL58:
.L25:
	.loc 2 107 5 is_stmt 1
	.loc 2 109 11 is_stmt 0
	li	s0,0
	.loc 2 107 8
	beq	s4,zero,.L24
.LVL59:
.L43:
	.loc 2 108 9 is_stmt 1
	.loc 2 108 15 is_stmt 0
	sw	a0,0(s4)
	j	.L24
.LVL60:
.L36:
	.loc 2 69 9
	li	a0,-4
	j	.L25
.LVL61:
.L37:
	.loc 2 98 13
	li	a0,-8
.LVL62:
	j	.L25
	.cfi_endproc
.LFE41:
	.size	fdt_get_string, .-fdt_get_string
	.section	.text.fdt_string,"ax",@progbits
	.align	1
	.globl	fdt_string
	.type	fdt_string, @function
fdt_string:
.LFB42:
	.loc 2 113 1 is_stmt 1
	.cfi_startproc
.LVL63:
	.loc 2 114 5
	.loc 2 114 12 is_stmt 0
	li	a2,0
	tail	fdt_get_string
.LVL64:
	.cfi_endproc
.LFE42:
	.size	fdt_string, .-fdt_string
	.section	.text.fdt_get_mem_rsv,"ax",@progbits
	.align	1
	.globl	fdt_get_mem_rsv
	.type	fdt_get_mem_rsv, @function
fdt_get_mem_rsv:
.LFB46:
	.loc 2 165 1 is_stmt 1
	.cfi_startproc
.LVL65:
	.loc 2 166 5
.LBB16:
	.loc 2 168 7
	.loc 2 168 17
.LBE16:
	.loc 2 165 1 is_stmt 0
	addi	sp,sp,-48
	.cfi_def_cfa_offset 48
	sw	s0,40(sp)
	sw	s1,36(sp)
	sw	s2,32(sp)
	sw	s3,28(sp)
	sw	ra,44(sp)
	.cfi_offset 8, -8
	.cfi_offset 9, -12
	.cfi_offset 18, -16
	.cfi_offset 19, -20
	.cfi_offset 1, -4
	.loc 2 165 1
	mv	s1,a0
	sw	a1,12(sp)
	mv	s3,a2
	mv	s2,a3
.LBB17:
	.loc 2 168 29
	call	fdt_ro_probe_
.LVL66:
	mv	s0,a0
.LVL67:
	.loc 2 168 20
	bne	a0,zero,.L45
.LBE17:
	.loc 2 168 69 is_stmt 1 discriminator 2
	.loc 2 169 5 discriminator 2
	.loc 2 169 10 is_stmt 0 discriminator 2
	lw	a1,12(sp)
	mv	a0,s1
	call	fdt_mem_rsv
.LVL68:
	mv	s1,a0
.LVL69:
	.loc 2 170 5 is_stmt 1 discriminator 2
	.loc 2 170 8 is_stmt 0 discriminator 2
	beq	a0,zero,.L47
	.loc 2 173 5 is_stmt 1
	.loc 2 173 16 is_stmt 0
	call	fdt64_ld
.LVL70:
	.loc 2 173 14
	sw	a0,0(s3)
	sw	a1,4(s3)
	.loc 2 174 5 is_stmt 1
	.loc 2 174 13 is_stmt 0
	addi	a0,s1,8
	call	fdt64_ld
.LVL71:
	.loc 2 174 11
	sw	a0,0(s2)
	sw	a1,4(s2)
	.loc 2 175 5 is_stmt 1
.LVL72:
.L45:
	.loc 2 176 1 is_stmt 0
	mv	a0,s0
	lw	ra,44(sp)
	.cfi_remember_state
	.cfi_restore 1
	lw	s0,40(sp)
	.cfi_restore 8
	lw	s1,36(sp)
	.cfi_restore 9
	lw	s2,32(sp)
	.cfi_restore 18
.LVL73:
	lw	s3,28(sp)
	.cfi_restore 19
.LVL74:
	addi	sp,sp,48
	.cfi_def_cfa_offset 0
.LVL75:
	jr	ra
.LVL76:
.L47:
	.cfi_restore_state
	.loc 2 171 16
	li	s0,-4
.LVL77:
	j	.L45
	.cfi_endproc
.LFE46:
	.size	fdt_get_mem_rsv, .-fdt_get_mem_rsv
	.section	.text.fdt_num_mem_rsv,"ax",@progbits
	.align	1
	.globl	fdt_num_mem_rsv
	.type	fdt_num_mem_rsv, @function
fdt_num_mem_rsv:
.LFB47:
	.loc 2 179 1 is_stmt 1
	.cfi_startproc
.LVL78:
	.loc 2 180 5
	.loc 2 181 5
	.loc 2 183 5
	.loc 2 179 1 is_stmt 0
	addi	sp,sp,-16
	.cfi_def_cfa_offset 16
	sw	s0,8(sp)
	sw	s1,4(sp)
	sw	ra,12(sp)
	.cfi_offset 8, -8
	.cfi_offset 9, -12
	.cfi_offset 1, -4
	.loc 2 179 1
	mv	s1,a0
	.loc 2 183 12
	li	s0,0
.LVL79:
.L50:
	.loc 2 183 23 discriminator 1
	mv	a1,s0
	mv	a0,s1
	call	fdt_mem_rsv
.LVL80:
	.loc 2 183 5 discriminator 1
	bne	a0,zero,.L53
	.loc 2 187 12
	li	s0,-8
.LVL81:
.L49:
	.loc 2 188 1
	mv	a0,s0
	lw	ra,12(sp)
	.cfi_remember_state
	.cfi_restore 1
	lw	s0,8(sp)
	.cfi_restore 8
	lw	s1,4(sp)
	.cfi_restore 9
.LVL82:
	addi	sp,sp,16
	.cfi_def_cfa_offset 0
	jr	ra
.LVL83:
.L53:
	.cfi_restore_state
	.loc 2 184 9 is_stmt 1
	.loc 2 184 13 is_stmt 0
	addi	a0,a0,8
.LVL84:
	call	fdt64_ld
.LVL85:
	.loc 2 184 12
	or	a1,a0,a1
	beq	a1,zero,.L49
	.loc 2 183 53 discriminator 2
	addi	s0,s0,1
.LVL86:
	j	.L50
	.cfi_endproc
.LFE47:
	.size	fdt_num_mem_rsv, .-fdt_num_mem_rsv
	.section	.text.fdt_get_name,"ax",@progbits
	.align	1
	.globl	fdt_get_name
	.type	fdt_get_name, @function
fdt_get_name:
.LFB53:
	.loc 2 290 1 is_stmt 1
	.cfi_startproc
.LVL87:
	.loc 2 291 5
	.loc 2 290 1 is_stmt 0
	addi	sp,sp,-32
	.cfi_def_cfa_offset 32
	sw	s1,20(sp)
	.cfi_offset 9, -12
	mv	s1,a0
.LBB21:
.LBB22:
	.loc 3 102 34
	addi	a0,a0,8
.LVL88:
.LBE22:
.LBE21:
	.loc 2 290 1
	sw	s0,24(sp)
	sw	s2,16(sp)
	sw	s3,12(sp)
	sw	ra,28(sp)
	.cfi_offset 8, -8
	.cfi_offset 18, -16
	.cfi_offset 19, -20
	.cfi_offset 1, -4
	.loc 2 290 1
	mv	s0,a1
.LVL89:
.LBB27:
.LBB23:
	.loc 3 102 5 is_stmt 1
.LBE23:
.LBE27:
	.loc 2 290 1 is_stmt 0
	mv	s2,a2
.LBB28:
.LBB24:
	.loc 3 102 34
	call	fdt32_ld
.LVL90:
	mv	s3,a0
.LVL91:
.LBE24:
.LBE28:
	.loc 2 292 5 is_stmt 1
	.loc 2 293 5
	.loc 2 295 5
	.loc 2 295 17 is_stmt 0
	mv	a0,s1
.LVL92:
	call	fdt_ro_probe_
.LVL93:
	.loc 2 295 8
	bne	a0,zero,.L59
	.loc 2 296 20
	mv	a1,s0
	mv	a0,s1
.LVL94:
	call	fdt_check_node_offset_
.LVL95:
	.loc 2 296 9
	blt	a0,zero,.L59
	.loc 2 299 5 is_stmt 1
	.loc 2 301 11 is_stmt 0
	addi	a0,s1,20
.LVL96:
.LBB29:
.LBB25:
	.loc 3 102 97
	add	s0,s0,s3
.LVL97:
.LBE25:
.LBE29:
	.loc 2 301 11
	call	fdt32_ld
.LVL98:
.LBB30:
.LBB26:
	.loc 3 102 97
	add	s0,s1,s0
.LBE26:
.LBE30:
	.loc 2 301 8
	li	a5,15
	.loc 2 299 13
	addi	s0,s0,4
.LVL99:
	.loc 2 301 5 is_stmt 1
	.loc 2 301 8 is_stmt 0
	bgtu	a0,a5,.L60
.LBB31:
	.loc 2 307 9 is_stmt 1
	.loc 2 308 9
	.loc 2 308 16 is_stmt 0
	li	a1,47
	mv	a0,s0
	call	strrchr
.LVL100:
	.loc 2 309 9 is_stmt 1
	.loc 2 309 12 is_stmt 0
	beq	a0,zero,.L62
	.loc 2 313 9 is_stmt 1
	.loc 2 313 17 is_stmt 0
	addi	s0,a0,1
.LVL101:
.L60:
.LBE31:
	.loc 2 316 5 is_stmt 1
	.loc 2 316 8 is_stmt 0
	beq	s2,zero,.L58
	.loc 2 317 9 is_stmt 1
	.loc 2 317 16 is_stmt 0
	mv	a0,s0
	call	strlen
.LVL102:
.L68:
	.loc 2 323 9 is_stmt 1
	.loc 2 323 14 is_stmt 0
	sw	a0,0(s2)
	j	.L58
.LVL103:
.L62:
.LBB32:
	.loc 2 310 17
	li	a0,-11
.LVL104:
.L59:
.LBE32:
	.loc 2 322 5 is_stmt 1
	.loc 2 324 11 is_stmt 0
	li	s0,0
	.loc 2 322 8
	bne	s2,zero,.L68
.LVL105:
.L58:
	.loc 2 325 1
	mv	a0,s0
	lw	ra,28(sp)
	.cfi_restore 1
	lw	s0,24(sp)
	.cfi_restore 8
	lw	s1,20(sp)
	.cfi_restore 9
.LVL106:
	lw	s2,16(sp)
	.cfi_restore 18
.LVL107:
	lw	s3,12(sp)
	.cfi_restore 19
.LVL108:
	addi	sp,sp,32
	.cfi_def_cfa_offset 0
	jr	ra
	.cfi_endproc
.LFE53:
	.size	fdt_get_name, .-fdt_get_name
	.section	.text.fdt_subnode_offset_namelen,"ax",@progbits
	.align	1
	.globl	fdt_subnode_offset_namelen
	.type	fdt_subnode_offset_namelen, @function
fdt_subnode_offset_namelen:
.LFB49:
	.loc 2 216 1 is_stmt 1
	.cfi_startproc
.LVL109:
	.loc 2 217 5
.LBB39:
	.loc 2 219 7
	.loc 2 219 17
.LBE39:
	.loc 2 216 1 is_stmt 0
	addi	sp,sp,-64
	.cfi_def_cfa_offset 64
	sw	s0,56(sp)
	sw	s2,48(sp)
	sw	s3,44(sp)
	sw	s4,40(sp)
	sw	ra,60(sp)
	sw	s1,52(sp)
	sw	s5,36(sp)
	.cfi_offset 8, -8
	.cfi_offset 18, -16
	.cfi_offset 19, -20
	.cfi_offset 20, -24
	.cfi_offset 1, -4
	.cfi_offset 9, -12
	.cfi_offset 21, -28
	.loc 2 216 1
	mv	s3,a0
	sw	a1,12(sp)
	mv	s4,a2
	mv	s2,a3
.LBB40:
	.loc 2 219 29
	call	fdt_ro_probe_
.LVL110:
	mv	s0,a0
.LVL111:
	.loc 2 219 20
	bne	a0,zero,.L69
.LVL112:
.LBE40:
.LBB41:
.LBB42:
	.loc 2 219 69 is_stmt 1
	.loc 2 221 5
	.loc 2 221 16 is_stmt 0
	lw	a1,12(sp)
	sw	zero,24(sp)
	.loc 2 224 12
	li	s5,1
	.loc 2 221 16
	mv	s0,a1
.LVL113:
.L71:
	lw	a5,24(sp)
	.loc 2 221 5
	blt	s0,zero,.L77
	.loc 2 222 24
	bge	a5,zero,.L78
.L83:
	.loc 2 229 16
	li	s0,-1
.LVL114:
	j	.L69
.LVL115:
.L78:
	.loc 2 224 9 is_stmt 1
	.loc 2 224 12 is_stmt 0
	bne	a5,s5,.L72
.LVL116:
.LBB43:
.LBB44:
	.loc 2 40 5 is_stmt 1
	.loc 2 41 5
	.loc 2 41 21 is_stmt 0
	addi	a2,sp,28
	mv	a1,s0
	mv	a0,s3
	call	fdt_get_name
.LVL117:
	mv	s1,a0
.LVL118:
	.loc 2 43 5 is_stmt 1
	.loc 2 43 8 is_stmt 0
	beq	a0,zero,.L72
	.loc 2 43 12
	lw	a5,28(sp)
	bgt	s2,a5,.L72
	.loc 2 47 5 is_stmt 1
	.loc 2 47 9 is_stmt 0
	mv	a2,s2
	mv	a1,s4
	call	memcmp
.LVL119:
	.loc 2 47 8
	bne	a0,zero,.L72
	.loc 2 50 5 is_stmt 1
	.loc 2 50 10 is_stmt 0
	add	s1,s1,s2
.LVL120:
	.loc 2 50 8
	lbu	a5,0(s1)
	beq	a5,zero,.L69
	.loc 2 52 10 is_stmt 1
	.loc 2 52 15 is_stmt 0
	mv	a2,s2
	li	a1,64
	mv	a0,s4
	call	memchr
.LVL121:
	.loc 2 52 13
	bne	a0,zero,.L72
	.loc 2 52 35
	lbu	a4,0(s1)
	li	a5,64
	beq	a4,a5,.L69
.LVL122:
.L72:
.LBE44:
.LBE43:
	.loc 2 223 19
	mv	a1,s0
	addi	a2,sp,24
	mv	a0,s3
	call	fdt_next_node
.LVL123:
	mv	s0,a0
.LVL124:
	j	.L71
.L77:
	.loc 2 228 5 is_stmt 1
	.loc 2 228 8 is_stmt 0
	blt	a5,zero,.L83
.LVL125:
.L69:
.LBE42:
.LBE41:
	.loc 2 231 1
	mv	a0,s0
	lw	ra,60(sp)
	.cfi_restore 1
	lw	s0,56(sp)
	.cfi_restore 8
	lw	s1,52(sp)
	.cfi_restore 9
	lw	s2,48(sp)
	.cfi_restore 18
.LVL126:
	lw	s3,44(sp)
	.cfi_restore 19
.LVL127:
	lw	s4,40(sp)
	.cfi_restore 20
.LVL128:
	lw	s5,36(sp)
	.cfi_restore 21
	addi	sp,sp,64
	.cfi_def_cfa_offset 0
.LVL129:
	jr	ra
	.cfi_endproc
.LFE49:
	.size	fdt_subnode_offset_namelen, .-fdt_subnode_offset_namelen
	.section	.text.fdt_subnode_offset,"ax",@progbits
	.align	1
	.globl	fdt_subnode_offset
	.type	fdt_subnode_offset, @function
fdt_subnode_offset:
.LFB50:
	.loc 2 235 1 is_stmt 1
	.cfi_startproc
.LVL130:
	.loc 2 236 5
	.loc 2 235 1 is_stmt 0
	addi	sp,sp,-32
	.cfi_def_cfa_offset 32
	sw	s0,24(sp)
	.cfi_offset 8, -8
	mv	s0,a0
	.loc 2 236 64
	mv	a0,a2
.LVL131:
	.loc 2 235 1
	sw	ra,28(sp)
	.cfi_offset 1, -4
	.loc 2 235 1
	sw	a1,12(sp)
	.loc 2 236 64
	sw	a2,8(sp)
	call	strlen
.LVL132:
	.loc 2 236 12
	mv	a3,a0
	mv	a0,s0
	.loc 2 237 1
	lw	s0,24(sp)
	.cfi_restore 8
.LVL133:
	.loc 2 236 12
	lw	a2,8(sp)
	lw	a1,12(sp)
	.loc 2 237 1
	lw	ra,28(sp)
	.cfi_restore 1
	addi	sp,sp,32
	.cfi_def_cfa_offset 0
.LVL134:
	.loc 2 236 12
	tail	fdt_subnode_offset_namelen
.LVL135:
	.cfi_endproc
.LFE50:
	.size	fdt_subnode_offset, .-fdt_subnode_offset
	.section	.text.fdt_first_property_offset,"ax",@progbits
	.align	1
	.globl	fdt_first_property_offset
	.type	fdt_first_property_offset, @function
fdt_first_property_offset:
.LFB54:
	.loc 2 328 1 is_stmt 1
	.cfi_startproc
.LVL136:
	.loc 2 329 5
	.loc 2 331 5
	.loc 2 328 1 is_stmt 0
	addi	sp,sp,-16
	.cfi_def_cfa_offset 16
	sw	s0,8(sp)
	sw	ra,12(sp)
	.cfi_offset 8, -8
	.cfi_offset 1, -4
	.loc 2 328 1
	mv	s0,a0
	.loc 2 331 19
	call	fdt_check_node_offset_
.LVL137:
	.loc 2 331 8
	blt	a0,zero,.L86
	mv	a1,a0
	.loc 2 334 5 is_stmt 1
.LVL138:
.LBB45:
.LBB46:
	mv	a0,s0
.LVL139:
.LBE46:
.LBE45:
	.loc 2 335 1 is_stmt 0
	lw	s0,8(sp)
	.cfi_remember_state
	.cfi_restore 8
.LVL140:
	lw	ra,12(sp)
	.cfi_restore 1
	addi	sp,sp,16
	.cfi_def_cfa_offset 0
.LBB48:
.LBB47:
	tail	nextprop_.part.0
.LVL141:
.L86:
	.cfi_restore_state
.LBE47:
.LBE48:
	lw	ra,12(sp)
	.cfi_restore 1
	lw	s0,8(sp)
	.cfi_restore 8
.LVL142:
	addi	sp,sp,16
	.cfi_def_cfa_offset 0
	jr	ra
	.cfi_endproc
.LFE54:
	.size	fdt_first_property_offset, .-fdt_first_property_offset
	.section	.text.fdt_next_property_offset,"ax",@progbits
	.align	1
	.globl	fdt_next_property_offset
	.type	fdt_next_property_offset, @function
fdt_next_property_offset:
.LFB55:
	.loc 2 338 1 is_stmt 1
	.cfi_startproc
.LVL143:
	.loc 2 339 5
	.loc 2 338 1 is_stmt 0
	addi	sp,sp,-16
	.cfi_def_cfa_offset 16
	sw	s0,8(sp)
	sw	ra,12(sp)
	.cfi_offset 8, -8
	.cfi_offset 1, -4
	.loc 2 338 1
	mv	s0,a0
	.loc 2 339 19
	call	fdt_check_prop_offset_
.LVL144:
	.loc 2 339 8
	blt	a0,zero,.L89
	mv	a1,a0
	.loc 2 342 5 is_stmt 1
.LVL145:
.LBB49:
.LBB50:
	mv	a0,s0
.LVL146:
.LBE50:
.LBE49:
	.loc 2 343 1 is_stmt 0
	lw	s0,8(sp)
	.cfi_remember_state
	.cfi_restore 8
.LVL147:
	lw	ra,12(sp)
	.cfi_restore 1
	addi	sp,sp,16
	.cfi_def_cfa_offset 0
.LBB52:
.LBB51:
	tail	nextprop_.part.0
.LVL148:
.L89:
	.cfi_restore_state
.LBE51:
.LBE52:
	lw	ra,12(sp)
	.cfi_restore 1
	lw	s0,8(sp)
	.cfi_restore 8
.LVL149:
	addi	sp,sp,16
	.cfi_def_cfa_offset 0
	jr	ra
	.cfi_endproc
.LFE55:
	.size	fdt_next_property_offset, .-fdt_next_property_offset
	.section	.text.fdt_get_property_namelen_,"ax",@progbits
	.align	1
	.type	fdt_get_property_namelen_, @function
fdt_get_property_namelen_:
.LFB58:
	.loc 2 388 1 is_stmt 1
	.cfi_startproc
.LVL150:
	.loc 2 389 5
	.loc 2 388 1 is_stmt 0
	addi	sp,sp,-48
	.cfi_def_cfa_offset 48
	sw	s2,32(sp)
	sw	s3,28(sp)
	sw	s4,24(sp)
	sw	s5,20(sp)
	sw	s6,16(sp)
	sw	ra,44(sp)
	sw	s0,40(sp)
	sw	s1,36(sp)
	.cfi_offset 18, -16
	.cfi_offset 19, -20
	.cfi_offset 20, -24
	.cfi_offset 21, -28
	.cfi_offset 22, -32
	.cfi_offset 1, -4
	.cfi_offset 8, -8
	.cfi_offset 9, -12
	.loc 2 388 1
	mv	s3,a0
	mv	s6,a2
	mv	s4,a3
	mv	s2,a4
	mv	s5,a5
	.loc 2 389 19
	call	fdt_first_property_offset
.LVL151:
.L105:
	.loc 2 391 20
	mv	s0,a0
.LVL152:
	.loc 2 389 5
	bge	a0,zero,.L98
.LVL153:
.L94:
	.loc 2 406 5 is_stmt 1
	.loc 2 408 11 is_stmt 0
	li	s1,0
	.loc 2 406 8
	beq	s2,zero,.L92
	.loc 2 407 9 is_stmt 1
	.loc 2 407 15 is_stmt 0
	sw	s0,0(s2)
	j	.L92
.L98:
.LBB56:
	.loc 2 392 9 is_stmt 1
	.loc 2 394 9
	.loc 2 394 22 is_stmt 0
	mv	a2,s2
	mv	a1,s0
	mv	a0,s3
	call	fdt_get_property_by_offset_
.LVL154:
	mv	s1,a0
.LVL155:
	.loc 2 394 12
	beq	a0,zero,.L99
	.loc 2 398 9 is_stmt 1
	.loc 2 398 33 is_stmt 0
	addi	a0,a0,8
	call	fdt32_ld
.LVL156:
.LBB57:
.LBB58:
	.loc 2 120 5 is_stmt 1
	.loc 2 121 5
	.loc 2 121 21 is_stmt 0
	mv	a1,a0
	addi	a2,sp,12
	mv	a0,s3
.LVL157:
	call	fdt_get_string
.LVL158:
	.loc 2 123 5 is_stmt 1
	.loc 2 123 31 is_stmt 0
	bne	a0,zero,.L95
.LVL159:
.L96:
.LBE58:
.LBE57:
.LBE56:
	.loc 2 391 20
	mv	a1,s0
	mv	a0,s3
	call	fdt_next_property_offset
.LVL160:
	j	.L105
.LVL161:
.L95:
.LBB61:
.LBB60:
.LBB59:
	.loc 2 123 14
	lw	a5,12(sp)
	bne	s4,a5,.L96
	.loc 2 123 35
	mv	a2,s4
	mv	a1,s6
	call	memcmp
.LVL162:
	.loc 2 123 31
	bne	a0,zero,.L96
.LVL163:
.LBE59:
.LBE60:
	.loc 2 400 13 is_stmt 1
	.loc 2 400 16 is_stmt 0
	beq	s5,zero,.L92
	.loc 2 401 17 is_stmt 1
	.loc 2 401 26 is_stmt 0
	sw	s0,0(s5)
.LVL164:
.L92:
.LBE61:
	.loc 2 409 1
	lw	ra,44(sp)
	.cfi_remember_state
	.cfi_restore 1
	lw	s0,40(sp)
	.cfi_restore 8
.LVL165:
	mv	a0,s1
	lw	s2,32(sp)
	.cfi_restore 18
.LVL166:
	lw	s1,36(sp)
	.cfi_restore 9
	lw	s3,28(sp)
	.cfi_restore 19
.LVL167:
	lw	s4,24(sp)
	.cfi_restore 20
.LVL168:
	lw	s5,20(sp)
	.cfi_restore 21
.LVL169:
	lw	s6,16(sp)
	.cfi_restore 22
.LVL170:
	addi	sp,sp,48
	.cfi_def_cfa_offset 0
	jr	ra
.LVL171:
.L99:
	.cfi_restore_state
.LBB62:
	.loc 2 395 20
	li	s0,-13
.LVL172:
	j	.L94
.LBE62:
	.cfi_endproc
.LFE58:
	.size	fdt_get_property_namelen_, .-fdt_get_property_namelen_
	.section	.text.fdt_get_property_by_offset,"ax",@progbits
	.align	1
	.globl	fdt_get_property_by_offset
	.type	fdt_get_property_by_offset, @function
fdt_get_property_by_offset:
.LFB57:
	.loc 2 369 1 is_stmt 1
	.cfi_startproc
.LVL173:
	.loc 2 373 5
	.loc 2 369 1 is_stmt 0
	addi	sp,sp,-32
	.cfi_def_cfa_offset 32
	sw	s0,24(sp)
	.cfi_offset 8, -8
	mv	s0,a0
	.loc 2 373 11
	addi	a0,a0,20
.LVL174:
	.loc 2 369 1
	sw	a1,12(sp)
	sw	a2,8(sp)
	sw	ra,28(sp)
	.cfi_offset 1, -4
	.loc 2 373 11
	call	fdt32_ld
.LVL175:
	.loc 2 373 8
	li	a5,15
	lw	a2,8(sp)
	lw	a1,12(sp)
	bgtu	a0,a5,.L107
	.loc 2 374 9 is_stmt 1
	.loc 2 374 12 is_stmt 0
	beq	a2,zero,.L108
	.loc 2 375 13 is_stmt 1
	.loc 2 375 19 is_stmt 0
	li	a5,-10
	sw	a5,0(a2)
.L108:
	.loc 2 380 1
	lw	ra,28(sp)
	.cfi_remember_state
	.cfi_restore 1
	lw	s0,24(sp)
	.cfi_restore 8
.LVL176:
	li	a0,0
	addi	sp,sp,32
	.cfi_def_cfa_offset 0
.LVL177:
	jr	ra
.LVL178:
.L107:
	.cfi_restore_state
	.loc 2 379 5 is_stmt 1
	.loc 2 379 12 is_stmt 0
	mv	a0,s0
	.loc 2 380 1
	lw	s0,24(sp)
	.cfi_restore 8
.LVL179:
	lw	ra,28(sp)
	.cfi_restore 1
	addi	sp,sp,32
	.cfi_def_cfa_offset 0
	.loc 2 379 12
	tail	fdt_get_property_by_offset_
.LVL180:
	.cfi_endproc
.LFE57:
	.size	fdt_get_property_by_offset, .-fdt_get_property_by_offset
	.section	.text.fdt_get_property_namelen,"ax",@progbits
	.align	1
	.globl	fdt_get_property_namelen
	.type	fdt_get_property_namelen, @function
fdt_get_property_namelen:
.LFB59:
	.loc 2 416 1 is_stmt 1
	.cfi_startproc
.LVL181:
	.loc 2 419 5
	.loc 2 416 1 is_stmt 0
	addi	sp,sp,-32
	.cfi_def_cfa_offset 32
	sw	s0,24(sp)
	.cfi_offset 8, -8
	mv	s0,a0
	.loc 2 419 11
	addi	a0,a0,20
.LVL182:
	.loc 2 416 1
	sw	a1,12(sp)
	sw	a2,8(sp)
	sw	a3,4(sp)
	sw	a4,0(sp)
	sw	ra,28(sp)
	.cfi_offset 1, -4
	.loc 2 419 11
	call	fdt32_ld
.LVL183:
	.loc 2 419 8
	li	a5,15
	lw	a4,0(sp)
	lw	a3,4(sp)
	lw	a2,8(sp)
	lw	a1,12(sp)
	bgtu	a0,a5,.L114
	.loc 2 420 9 is_stmt 1
	.loc 2 420 12 is_stmt 0
	beq	a4,zero,.L115
	.loc 2 421 13 is_stmt 1
	.loc 2 421 19 is_stmt 0
	li	a5,-10
	sw	a5,0(a4)
.L115:
	.loc 2 427 1
	lw	ra,28(sp)
	.cfi_remember_state
	.cfi_restore 1
	lw	s0,24(sp)
	.cfi_restore 8
.LVL184:
	li	a0,0
	addi	sp,sp,32
	.cfi_def_cfa_offset 0
.LVL185:
	jr	ra
.LVL186:
.L114:
	.cfi_restore_state
	.loc 2 425 5 is_stmt 1
	.loc 2 425 12 is_stmt 0
	mv	a0,s0
	.loc 2 427 1
	lw	s0,24(sp)
	.cfi_restore 8
.LVL187:
	lw	ra,28(sp)
	.cfi_restore 1
	.loc 2 425 12
	li	a5,0
	.loc 2 427 1
	addi	sp,sp,32
	.cfi_def_cfa_offset 0
	.loc 2 425 12
	tail	fdt_get_property_namelen_
.LVL188:
	.cfi_endproc
.LFE59:
	.size	fdt_get_property_namelen, .-fdt_get_property_namelen
	.section	.text.fdt_get_property,"ax",@progbits
	.align	1
	.globl	fdt_get_property
	.type	fdt_get_property, @function
fdt_get_property:
.LFB60:
	.loc 2 433 1 is_stmt 1
	.cfi_startproc
.LVL189:
	.loc 2 434 5
	.loc 2 433 1 is_stmt 0
	addi	sp,sp,-32
	.cfi_def_cfa_offset 32
	sw	s0,24(sp)
	.cfi_offset 8, -8
	mv	s0,a0
	.loc 2 435 21
	mv	a0,a2
.LVL190:
	.loc 2 433 1
	sw	ra,28(sp)
	.cfi_offset 1, -4
	.loc 2 433 1
	sw	a1,12(sp)
	sw	a3,8(sp)
	.loc 2 435 21
	sw	a2,4(sp)
	call	strlen
.LVL191:
	.loc 2 434 12
	mv	a3,a0
	mv	a0,s0
	.loc 2 436 1
	lw	s0,24(sp)
	.cfi_restore 8
.LVL192:
	.loc 2 434 12
	lw	a4,8(sp)
	lw	a2,4(sp)
	lw	a1,12(sp)
	.loc 2 436 1
	lw	ra,28(sp)
	.cfi_restore 1
	addi	sp,sp,32
	.cfi_def_cfa_offset 0
.LVL193:
	.loc 2 434 12
	tail	fdt_get_property_namelen
.LVL194:
	.cfi_endproc
.LFE60:
	.size	fdt_get_property, .-fdt_get_property
	.section	.text.fdt_getprop_namelen,"ax",@progbits
	.align	1
	.globl	fdt_getprop_namelen
	.type	fdt_getprop_namelen, @function
fdt_getprop_namelen:
.LFB61:
	.loc 2 440 1 is_stmt 1
	.cfi_startproc
.LVL195:
	.loc 2 441 5
	.loc 2 442 5
	.loc 2 444 5
	.loc 2 440 1 is_stmt 0
	addi	sp,sp,-32
	.cfi_def_cfa_offset 32
	.loc 2 444 12
	addi	a5,sp,12
	.loc 2 440 1
	sw	s0,24(sp)
	sw	s1,20(sp)
	sw	ra,28(sp)
	.cfi_offset 8, -8
	.cfi_offset 9, -12
	.cfi_offset 1, -4
	.loc 2 440 1
	mv	s1,a0
	.loc 2 444 12
	call	fdt_get_property_namelen_
.LVL196:
	mv	s0,a0
.LVL197:
	.loc 2 446 5 is_stmt 1
	.loc 2 446 8 is_stmt 0
	beq	a0,zero,.L122
	.loc 2 450 5 is_stmt 1
	.loc 2 450 11 is_stmt 0
	addi	a0,s1,20
	call	fdt32_ld
.LVL198:
	.loc 2 450 8
	li	a5,15
	bgtu	a0,a5,.L124
	.loc 2 450 87 discriminator 1
	lw	a5,12(sp)
	addi	a5,a5,12
	.loc 2 450 104 discriminator 1
	andi	a5,a5,7
	.loc 2 450 75 discriminator 1
	beq	a5,zero,.L124
	.loc 2 451 9 discriminator 2
	addi	a0,s0,4
	call	fdt32_ld
.LVL199:
	.loc 2 450 108 discriminator 2
	li	a5,7
	bleu	a0,a5,.L124
	.loc 2 452 9 is_stmt 1
	.loc 2 452 27 is_stmt 0
	addi	s0,s0,16
.LVL200:
.L122:
	.loc 2 454 1
	mv	a0,s0
	lw	ra,28(sp)
	.cfi_remember_state
	.cfi_restore 1
	lw	s0,24(sp)
	.cfi_restore 8
	lw	s1,20(sp)
	.cfi_restore 9
.LVL201:
	addi	sp,sp,32
	.cfi_def_cfa_offset 0
	jr	ra
.LVL202:
.L124:
	.cfi_restore_state
	.loc 2 453 5 is_stmt 1
	.loc 2 453 12 is_stmt 0
	addi	s0,s0,12
.LVL203:
	j	.L122
	.cfi_endproc
.LFE61:
	.size	fdt_getprop_namelen, .-fdt_getprop_namelen
	.section	.text.fdt_getprop_by_offset,"ax",@progbits
	.align	1
	.globl	fdt_getprop_by_offset
	.type	fdt_getprop_by_offset, @function
fdt_getprop_by_offset:
.LFB62:
	.loc 2 458 1 is_stmt 1
	.cfi_startproc
.LVL204:
	.loc 2 459 5
	.loc 2 461 5
	.loc 2 458 1 is_stmt 0
	addi	sp,sp,-48
	.cfi_def_cfa_offset 48
	sw	s4,24(sp)
	.cfi_offset 20, -24
	mv	s4,a2
	.loc 2 461 12
	mv	a2,a3
.LVL205:
	.loc 2 458 1
	sw	s0,40(sp)
	sw	s1,36(sp)
	sw	s2,32(sp)
	sw	s3,28(sp)
	sw	ra,44(sp)
	.cfi_offset 8, -8
	.cfi_offset 9, -12
	.cfi_offset 18, -16
	.cfi_offset 19, -20
	.cfi_offset 1, -4
	.loc 2 458 1
	mv	s3,a0
	mv	s1,a1
	mv	s2,a3
	.loc 2 461 12
	call	fdt_get_property_by_offset_
.LVL206:
	mv	s0,a0
.LVL207:
	.loc 2 462 5 is_stmt 1
	.loc 2 462 8 is_stmt 0
	beq	a0,zero,.L132
	.loc 2 464 5 is_stmt 1
	.loc 2 464 8 is_stmt 0
	beq	s4,zero,.L134
.LBB63:
	.loc 2 465 9 is_stmt 1
	.loc 2 466 9
	.loc 2 467 9
	.loc 2 467 36 is_stmt 0
	addi	a0,a0,8
	call	fdt32_ld
.LVL208:
	.loc 2 467 16
	mv	a1,a0
	addi	a2,sp,12
	mv	a0,s3
	call	fdt_get_string
.LVL209:
	.loc 2 469 9 is_stmt 1
	.loc 2 469 12 is_stmt 0
	bne	a0,zero,.L135
	.loc 2 470 13 is_stmt 1
	.loc 2 470 16 is_stmt 0
	beq	s2,zero,.L136
	.loc 2 471 17 is_stmt 1
	.loc 2 471 23 is_stmt 0
	lw	a5,12(sp)
	sw	a5,0(s2)
.L136:
	.loc 2 472 13 is_stmt 1
	.loc 2 472 19 is_stmt 0
	li	s0,0
.LVL210:
.L132:
.LBE63:
	.loc 2 482 1
	mv	a0,s0
	lw	ra,44(sp)
	.cfi_remember_state
	.cfi_restore 1
	lw	s0,40(sp)
	.cfi_restore 8
	lw	s1,36(sp)
	.cfi_restore 9
	lw	s2,32(sp)
	.cfi_restore 18
.LVL211:
	lw	s3,28(sp)
	.cfi_restore 19
.LVL212:
	lw	s4,24(sp)
	.cfi_restore 20
.LVL213:
	addi	sp,sp,48
	.cfi_def_cfa_offset 0
	jr	ra
.LVL214:
.L135:
	.cfi_restore_state
.LBB64:
	.loc 2 474 9 is_stmt 1
	.loc 2 474 16 is_stmt 0
	sw	a0,0(s4)
.LVL215:
.L134:
.LBE64:
	.loc 2 478 5 is_stmt 1
	.loc 2 478 11 is_stmt 0
	addi	a0,s3,20
	call	fdt32_ld
.LVL216:
	.loc 2 478 8
	li	a5,15
	bgtu	a0,a5,.L137
	.loc 2 478 86 discriminator 1
	addi	s1,s1,12
.LVL217:
	.loc 2 478 103 discriminator 1
	andi	s1,s1,7
.LVL218:
	.loc 2 478 75 discriminator 1
	beq	s1,zero,.L137
	.loc 2 479 9 discriminator 2
	addi	a0,s0,4
	call	fdt32_ld
.LVL219:
	.loc 2 478 107 discriminator 2
	li	a5,7
	bleu	a0,a5,.L137
	.loc 2 480 9 is_stmt 1
	.loc 2 480 27 is_stmt 0
	addi	s0,s0,16
.LVL220:
	j	.L132
.LVL221:
.L137:
	.loc 2 481 5 is_stmt 1
	.loc 2 481 12 is_stmt 0
	addi	s0,s0,12
.LVL222:
	j	.L132
	.cfi_endproc
.LFE62:
	.size	fdt_getprop_by_offset, .-fdt_getprop_by_offset
	.section	.text.fdt_getprop,"ax",@progbits
	.align	1
	.globl	fdt_getprop
	.type	fdt_getprop, @function
fdt_getprop:
.LFB63:
	.loc 2 486 1 is_stmt 1
	.cfi_startproc
.LVL223:
	.loc 2 487 5
	.loc 2 486 1 is_stmt 0
	addi	sp,sp,-32
	.cfi_def_cfa_offset 32
	sw	s0,24(sp)
	.cfi_offset 8, -8
	mv	s0,a0
	.loc 2 487 55
	mv	a0,a2
.LVL224:
	.loc 2 486 1
	sw	ra,28(sp)
	.cfi_offset 1, -4
	.loc 2 486 1
	sw	a1,12(sp)
	sw	a3,8(sp)
	.loc 2 487 55
	sw	a2,4(sp)
	call	strlen
.LVL225:
	.loc 2 487 12
	mv	a3,a0
	mv	a0,s0
	.loc 2 488 1
	lw	s0,24(sp)
	.cfi_restore 8
.LVL226:
	.loc 2 487 12
	lw	a4,8(sp)
	lw	a2,4(sp)
	lw	a1,12(sp)
	.loc 2 488 1
	lw	ra,28(sp)
	.cfi_restore 1
	addi	sp,sp,32
	.cfi_def_cfa_offset 0
.LVL227:
	.loc 2 487 12
	tail	fdt_getprop_namelen
.LVL228:
	.cfi_endproc
.LFE63:
	.size	fdt_getprop, .-fdt_getprop
	.section	.text.fdt_get_phandle,"ax",@progbits
	.align	1
	.globl	fdt_get_phandle
	.type	fdt_get_phandle, @function
fdt_get_phandle:
.LFB64:
	.loc 2 491 1 is_stmt 1
	.cfi_startproc
.LVL229:
	.loc 2 492 5
	.loc 2 493 5
	.loc 2 497 5
	.loc 2 491 1 is_stmt 0
	addi	sp,sp,-32
	.cfi_def_cfa_offset 32
	.loc 2 497 11
	lui	a2,%hi(.LC0)
	addi	a3,sp,12
	addi	a2,a2,%lo(.LC0)
	.loc 2 491 1
	sw	s0,24(sp)
	sw	s1,20(sp)
	sw	ra,28(sp)
	.cfi_offset 8, -8
	.cfi_offset 9, -12
	.cfi_offset 1, -4
	.loc 2 491 1
	mv	s0,a0
	mv	s1,a1
	.loc 2 497 11
	call	fdt_getprop
.LVL230:
	.loc 2 498 5 is_stmt 1
	.loc 2 498 8 is_stmt 0
	beq	a0,zero,.L154
	.loc 2 498 14 discriminator 1
	lw	a4,12(sp)
	li	a5,4
	beq	a4,a5,.L155
.L154:
	.loc 2 499 9 is_stmt 1
	.loc 2 499 15 is_stmt 0
	lui	a2,%hi(.LC1)
	addi	a3,sp,12
	addi	a2,a2,%lo(.LC1)
	mv	a1,s1
	mv	a0,s0
.LVL231:
	call	fdt_getprop
.LVL232:
	.loc 2 500 9 is_stmt 1
	.loc 2 501 20 is_stmt 0
	li	a5,0
	.loc 2 500 12
	beq	a0,zero,.L153
	.loc 2 500 18 discriminator 1
	lw	a3,12(sp)
	li	a4,4
	bne	a3,a4,.L153
.L155:
	.loc 2 504 5 is_stmt 1
	.loc 2 504 12 is_stmt 0
	call	fdt32_ld
.LVL233:
	mv	a5,a0
.L153:
	.loc 2 505 1
	lw	ra,28(sp)
	.cfi_restore 1
	lw	s0,24(sp)
	.cfi_restore 8
.LVL234:
	lw	s1,20(sp)
	.cfi_restore 9
.LVL235:
	mv	a0,a5
	addi	sp,sp,32
	.cfi_def_cfa_offset 0
	jr	ra
	.cfi_endproc
.LFE64:
	.size	fdt_get_phandle, .-fdt_get_phandle
	.section	.text.fdt_get_max_phandle,"ax",@progbits
	.align	1
	.globl	fdt_get_max_phandle
	.type	fdt_get_max_phandle, @function
fdt_get_max_phandle:
.LFB44:
	.loc 2 127 1 is_stmt 1
	.cfi_startproc
.LVL236:
	.loc 2 128 5
	.loc 2 129 5
	.loc 2 131 5
	.loc 2 127 1 is_stmt 0
	addi	sp,sp,-32
	.cfi_def_cfa_offset 32
	.loc 2 131 19
	li	a2,0
	li	a1,-1
	.loc 2 127 1
	sw	s0,24(sp)
	sw	s1,20(sp)
	sw	s2,16(sp)
	sw	s3,12(sp)
	sw	ra,28(sp)
	.cfi_offset 8, -8
	.cfi_offset 9, -12
	.cfi_offset 18, -16
	.cfi_offset 19, -20
	.cfi_offset 1, -4
	.loc 2 127 1
	mv	s2,a0
	.loc 2 131 19
	call	fdt_next_node
.LVL237:
	mv	s0,a0
.LVL238:
	.loc 2 128 14
	li	s1,0
.LBB65:
	.loc 2 135 12
	li	s3,-1
.LVL239:
.L167:
	.loc 2 133 9 is_stmt 1
	.loc 2 135 9
	.loc 2 135 12 is_stmt 0
	beq	s0,s3,.L163
	.loc 2 138 9 is_stmt 1
	.loc 2 138 12 is_stmt 0
	blt	s0,zero,.L168
	.loc 2 141 9 is_stmt 1
	.loc 2 141 19 is_stmt 0
	mv	a1,s0
	mv	a0,s2
	call	fdt_get_phandle
.LVL240:
	.loc 2 142 9 is_stmt 1
	.loc 2 142 12 is_stmt 0
	beq	a0,s3,.L165
	.loc 2 145 9 is_stmt 1
	bgeu	s1,a0,.L165
	mv	s1,a0
.LVL241:
.L165:
.LBE65:
	.loc 2 132 19 is_stmt 0
	mv	a1,s0
	li	a2,0
	mv	a0,s2
.LVL242:
	call	fdt_next_node
.LVL243:
	mv	s0,a0
.LVL244:
	.loc 2 132 52
	j	.L167
.L168:
.LBB66:
	.loc 2 139 20
	li	s1,-1
.LVL245:
.L163:
.LBE66:
	.loc 2 150 1
	lw	ra,28(sp)
	.cfi_restore 1
	lw	s0,24(sp)
	.cfi_restore 8
.LVL246:
	mv	a0,s1
.LVL247:
	lw	s2,16(sp)
	.cfi_restore 18
.LVL248:
	lw	s1,20(sp)
	.cfi_restore 9
	lw	s3,12(sp)
	.cfi_restore 19
	addi	sp,sp,32
	.cfi_def_cfa_offset 0
	jr	ra
	.cfi_endproc
.LFE44:
	.size	fdt_get_max_phandle, .-fdt_get_max_phandle
	.section	.text.fdt_get_alias_namelen,"ax",@progbits
	.align	1
	.globl	fdt_get_alias_namelen
	.type	fdt_get_alias_namelen, @function
fdt_get_alias_namelen:
.LFB65:
	.loc 2 509 1 is_stmt 1
	.cfi_startproc
.LVL249:
	.loc 2 510 5
	.loc 2 512 5
	.loc 2 509 1 is_stmt 0
	addi	sp,sp,-32
	.cfi_def_cfa_offset 32
	sw	s1,20(sp)
	.cfi_offset 9, -12
	mv	s1,a1
	.loc 2 512 19
	lui	a1,%hi(.LC2)
.LVL250:
	addi	a1,a1,%lo(.LC2)
	.loc 2 509 1
	sw	s0,24(sp)
	sw	ra,28(sp)
	.cfi_offset 8, -8
	.cfi_offset 1, -4
	.loc 2 509 1
	mv	s0,a0
	sw	a2,12(sp)
	.loc 2 512 19
	call	fdt_path_offset
.LVL251:
	.loc 2 513 5 is_stmt 1
	.loc 2 513 8 is_stmt 0
	blt	a0,zero,.L171
	mv	a1,a0
	.loc 2 516 5 is_stmt 1
	.loc 2 516 12 is_stmt 0
	mv	a0,s0
.LVL252:
	.loc 2 517 1
	lw	s0,24(sp)
	.cfi_remember_state
	.cfi_restore 8
.LVL253:
	.loc 2 516 12
	lw	a3,12(sp)
	.loc 2 517 1
	lw	ra,28(sp)
	.cfi_restore 1
	.loc 2 516 12
	mv	a2,s1
	.loc 2 517 1
	lw	s1,20(sp)
	.cfi_restore 9
.LVL254:
	.loc 2 516 12
	li	a4,0
	.loc 2 517 1
	addi	sp,sp,32
	.cfi_def_cfa_offset 0
.LVL255:
	.loc 2 516 12
	tail	fdt_getprop_namelen
.LVL256:
.L171:
	.cfi_restore_state
	.loc 2 517 1
	lw	ra,28(sp)
	.cfi_restore 1
	lw	s0,24(sp)
	.cfi_restore 8
.LVL257:
	lw	s1,20(sp)
	.cfi_restore 9
.LVL258:
	li	a0,0
.LVL259:
	addi	sp,sp,32
	.cfi_def_cfa_offset 0
.LVL260:
	jr	ra
	.cfi_endproc
.LFE65:
	.size	fdt_get_alias_namelen, .-fdt_get_alias_namelen
	.section	.text.fdt_path_offset_namelen,"ax",@progbits
	.align	1
	.globl	fdt_path_offset_namelen
	.type	fdt_path_offset_namelen, @function
fdt_path_offset_namelen:
.LFB51:
	.loc 2 240 1 is_stmt 1
	.cfi_startproc
.LVL261:
	.loc 2 241 5
	.loc 2 240 1 is_stmt 0
	addi	sp,sp,-48
	.cfi_def_cfa_offset 48
	sw	s0,40(sp)
	sw	s1,36(sp)
	sw	s4,24(sp)
	sw	ra,44(sp)
	sw	s2,32(sp)
	sw	s3,28(sp)
	sw	s5,20(sp)
	.cfi_offset 8, -8
	.cfi_offset 9, -12
	.cfi_offset 20, -24
	.cfi_offset 1, -4
	.cfi_offset 18, -16
	.cfi_offset 19, -20
	.cfi_offset 21, -28
	.loc 2 240 1
	mv	s4,a0
	mv	s0,a1
.LVL262:
	.loc 2 242 5 is_stmt 1
	.loc 2 243 5
.LBB67:
	.loc 2 245 7
	.loc 2 245 17
.LBE67:
	.loc 2 240 1 is_stmt 0
	sw	a2,12(sp)
.LVL263:
.LBB68:
	.loc 2 245 29
	call	fdt_ro_probe_
.LVL264:
	mv	s1,a0
.LVL265:
	.loc 2 245 20
	bne	a0,zero,.L173
.LBE68:
	.loc 2 241 17 discriminator 2
	lw	a2,12(sp)
	.loc 2 248 8 discriminator 2
	lbu	a4,0(s0)
	li	a5,47
	.loc 2 241 17 discriminator 2
	add	s2,s0,a2
	.loc 2 245 69 is_stmt 1 discriminator 2
	.loc 2 248 5 discriminator 2
	.loc 2 248 8 is_stmt 0 discriminator 2
	beq	a4,a5,.L175
.LBB69:
	.loc 2 249 9 is_stmt 1
	.loc 2 249 25 is_stmt 0
	li	a1,47
	mv	a0,s0
	call	memchr
.LVL266:
	mv	s3,a0
.LVL267:
	.loc 2 251 9 is_stmt 1
	.loc 2 251 12 is_stmt 0
	bne	a0,zero,.L176
.LBE69:
	.loc 2 241 17
	mv	s3,s2
.L176:
.LVL268:
.LBB70:
	.loc 2 254 9 is_stmt 1
	.loc 2 254 13 is_stmt 0
	mv	a1,s0
	sub	a2,s3,s0
	mv	a0,s4
	call	fdt_get_alias_namelen
.LVL269:
	mv	a1,a0
.LVL270:
	.loc 2 255 9 is_stmt 1
	.loc 2 256 20 is_stmt 0
	li	s1,-5
.LVL271:
	.loc 2 255 12
	beq	a0,zero,.L173
	.loc 2 257 9 is_stmt 1
	.loc 2 257 18 is_stmt 0
	mv	a0,s4
.LVL272:
	call	fdt_path_offset
.LVL273:
	mv	s1,a0
.LVL274:
	.loc 2 259 9 is_stmt 1
	.loc 2 259 11 is_stmt 0
	mv	s0,s3
.LVL275:
.L175:
.LBE70:
.LBB71:
	.loc 2 265 15
	li	s5,47
.LVL276:
.L179:
.LBE71:
	.loc 2 262 11
	bltu	s0,s2,.L180
	j	.L173
.L177:
.LBB72:
	.loc 2 266 13 is_stmt 1
	.loc 2 266 14 is_stmt 0
	addi	s0,s0,1
.LVL277:
	.loc 2 267 13 is_stmt 1
	.loc 2 267 16 is_stmt 0
	beq	s2,s0,.L173
.L180:
	.loc 2 265 15
	lbu	a5,0(s0)
	beq	a5,s5,.L177
	.loc 2 270 9 is_stmt 1
	.loc 2 270 13 is_stmt 0
	sub	a2,s2,s0
	li	a1,47
	mv	a0,s0
	call	memchr
.LVL278:
	mv	s3,a0
.LVL279:
	.loc 2 271 9 is_stmt 1
	.loc 2 271 12 is_stmt 0
	bne	a0,zero,.L178
	mv	s3,s2
.L178:
.LVL280:
	.loc 2 274 9 is_stmt 1
	.loc 2 274 18 is_stmt 0
	sub	a3,s3,s0
	mv	a2,s0
	mv	a1,s1
	mv	a0,s4
	call	fdt_subnode_offset_namelen
.LVL281:
	mv	s1,a0
.LVL282:
	.loc 2 275 9 is_stmt 1
	.loc 2 278 11 is_stmt 0
	mv	s0,s3
.LVL283:
	.loc 2 275 12
	bge	a0,zero,.L179
.LVL284:
.L173:
.LBE72:
	.loc 2 282 1
	lw	ra,44(sp)
	.cfi_restore 1
	lw	s0,40(sp)
	.cfi_restore 8
	mv	a0,s1
	lw	s2,32(sp)
	.cfi_restore 18
	lw	s1,36(sp)
	.cfi_restore 9
	lw	s3,28(sp)
	.cfi_restore 19
	lw	s4,24(sp)
	.cfi_restore 20
.LVL285:
	lw	s5,20(sp)
	.cfi_restore 21
	addi	sp,sp,48
	.cfi_def_cfa_offset 0
.LVL286:
	jr	ra
	.cfi_endproc
.LFE51:
	.size	fdt_path_offset_namelen, .-fdt_path_offset_namelen
	.section	.text.fdt_path_offset,"ax",@progbits
	.align	1
	.globl	fdt_path_offset
	.type	fdt_path_offset, @function
fdt_path_offset:
.LFB52:
	.loc 2 285 1 is_stmt 1
	.cfi_startproc
.LVL287:
	.loc 2 286 5
	.loc 2 285 1 is_stmt 0
	addi	sp,sp,-32
	.cfi_def_cfa_offset 32
	sw	s0,24(sp)
	.cfi_offset 8, -8
	mv	s0,a0
	.loc 2 286 47
	mv	a0,a1
.LVL288:
	.loc 2 285 1
	sw	ra,28(sp)
	.cfi_offset 1, -4
	.loc 2 286 47
	sw	a1,12(sp)
	call	strlen
.LVL289:
	.loc 2 286 12
	mv	a2,a0
	mv	a0,s0
	.loc 2 287 1
	lw	s0,24(sp)
	.cfi_restore 8
.LVL290:
	.loc 2 286 12
	lw	a1,12(sp)
	.loc 2 287 1
	lw	ra,28(sp)
	.cfi_restore 1
	addi	sp,sp,32
	.cfi_def_cfa_offset 0
.LVL291:
	.loc 2 286 12
	tail	fdt_path_offset_namelen
.LVL292:
	.cfi_endproc
.LFE52:
	.size	fdt_path_offset, .-fdt_path_offset
	.section	.text.fdt_get_alias,"ax",@progbits
	.align	1
	.globl	fdt_get_alias
	.type	fdt_get_alias, @function
fdt_get_alias:
.LFB66:
	.loc 2 520 1 is_stmt 1
	.cfi_startproc
.LVL293:
	.loc 2 521 5
	.loc 2 520 1 is_stmt 0
	addi	sp,sp,-32
	.cfi_def_cfa_offset 32
	sw	s0,24(sp)
	.cfi_offset 8, -8
	mv	s0,a0
	.loc 2 521 45
	mv	a0,a1
.LVL294:
	.loc 2 520 1
	sw	ra,28(sp)
	.cfi_offset 1, -4
	.loc 2 521 45
	sw	a1,12(sp)
	call	strlen
.LVL295:
	.loc 2 521 12
	mv	a2,a0
	mv	a0,s0
	.loc 2 522 1
	lw	s0,24(sp)
	.cfi_restore 8
.LVL296:
	.loc 2 521 12
	lw	a1,12(sp)
	.loc 2 522 1
	lw	ra,28(sp)
	.cfi_restore 1
	addi	sp,sp,32
	.cfi_def_cfa_offset 0
.LVL297:
	.loc 2 521 12
	tail	fdt_get_alias_namelen
.LVL298:
	.cfi_endproc
.LFE66:
	.size	fdt_get_alias, .-fdt_get_alias
	.section	.text.fdt_get_path,"ax",@progbits
	.align	1
	.globl	fdt_get_path
	.type	fdt_get_path, @function
fdt_get_path:
.LFB67:
	.loc 2 525 1 is_stmt 1
	.cfi_startproc
.LVL299:
	.loc 2 526 5
	.loc 2 527 5
	.loc 2 528 5
.LBB73:
	.loc 2 530 7
	.loc 2 530 17
.LBE73:
	.loc 2 525 1 is_stmt 0
	addi	sp,sp,-64
	.cfi_def_cfa_offset 64
	sw	s1,52(sp)
	sw	s4,40(sp)
	sw	s5,36(sp)
	sw	s6,32(sp)
	sw	s7,28(sp)
	sw	ra,60(sp)
	sw	s0,56(sp)
	sw	s2,48(sp)
	sw	s3,44(sp)
	sw	s8,24(sp)
	.cfi_offset 9, -12
	.cfi_offset 20, -24
	.cfi_offset 21, -28
	.cfi_offset 22, -32
	.cfi_offset 23, -36
	.cfi_offset 1, -4
	.cfi_offset 8, -8
	.cfi_offset 18, -16
	.cfi_offset 19, -20
	.cfi_offset 24, -40
	.loc 2 525 1
	mv	s5,a0
	mv	s6,a1
	mv	s4,a2
	mv	s7,a3
.LBB74:
	.loc 2 530 29
	call	fdt_ro_probe_
.LVL300:
	mv	s1,a0
.LVL301:
	.loc 2 530 20
	bne	a0,zero,.L188
.LBE74:
	.loc 2 530 69 is_stmt 1 discriminator 2
	.loc 2 532 5 discriminator 2
	.loc 2 532 8 is_stmt 0 discriminator 2
	li	a5,1
	bgt	s7,a5,.L190
.LVL302:
.L196:
	.loc 2 533 16
	li	s1,-3
.LVL303:
.L188:
	.loc 2 574 1
	lw	ra,60(sp)
	.cfi_remember_state
	.cfi_restore 1
	lw	s0,56(sp)
	.cfi_restore 8
	mv	a0,s1
	lw	s2,48(sp)
	.cfi_restore 18
	lw	s1,52(sp)
	.cfi_restore 9
	lw	s3,44(sp)
	.cfi_restore 19
	lw	s4,40(sp)
	.cfi_restore 20
.LVL304:
	lw	s5,36(sp)
	.cfi_restore 21
.LVL305:
	lw	s6,32(sp)
	.cfi_restore 22
.LVL306:
	lw	s7,28(sp)
	.cfi_restore 23
.LVL307:
	lw	s8,24(sp)
	.cfi_restore 24
	addi	sp,sp,64
	.cfi_def_cfa_offset 0
	jr	ra
.LVL308:
.L190:
	.cfi_restore_state
	.loc 2 535 5 is_stmt 1
	.loc 2 535 28 is_stmt 0
	sw	zero,8(sp)
	.loc 2 535 17
	li	s2,0
	.loc 2 526 21
	li	s0,0
	.loc 2 526 9
	li	s3,0
	.loc 2 541 13
	li	s8,47
.LVL309:
.L191:
	.loc 2 536 24
	bge	s6,s2,.L199
.L201:
	.loc 2 569 16
	li	s1,-4
.LVL310:
	j	.L188
.LVL311:
.L192:
	.loc 2 539 13 is_stmt 1 discriminator 1
	.loc 2 540 17 discriminator 1
	.loc 2 540 18 is_stmt 0 discriminator 1
	addi	s0,s0,-1
.LVL312:
	.loc 2 541 25 discriminator 1
	add	a4,s4,s0
	.loc 2 541 13 discriminator 1
	lbu	a4,-1(a4)
	bne	a4,s8,.L192
	.loc 2 542 13 is_stmt 1
	.loc 2 542 19 is_stmt 0
	addi	s3,s3,-1
.LVL313:
.L200:
	.loc 2 538 15
	blt	a5,s3,.L192
	.loc 2 545 9 is_stmt 1
	.loc 2 545 12 is_stmt 0
	bne	a5,s3,.L193
.LVL314:
	.loc 2 546 13 is_stmt 1
	.loc 2 546 20 is_stmt 0
	addi	a2,sp,12
	mv	a1,s2
	mv	a0,s5
	call	fdt_get_name
.LVL315:
	mv	a1,a0
.LVL316:
	.loc 2 547 13 is_stmt 1
	lw	a2,12(sp)
	.loc 2 547 16 is_stmt 0
	bne	a0,zero,.L194
	.loc 2 548 17 is_stmt 1
	.loc 2 548 24 is_stmt 0
	mv	s1,a2
.LVL317:
	j	.L188
.LVL318:
.L194:
	.loc 2 549 13 is_stmt 1
	.loc 2 549 20 is_stmt 0
	add	a5,a2,s0
	.loc 2 549 16
	bge	a5,s7,.L193
	.loc 2 550 17 is_stmt 1
	add	a0,s4,s0
.LVL319:
	call	memcpy
.LVL320:
	.loc 2 551 17
	.loc 2 551 19 is_stmt 0
	lw	a5,12(sp)
	.loc 2 553 23
	addi	s3,s3,1
	.loc 2 551 19
	add	a5,s0,a5
.LVL321:
	.loc 2 552 17 is_stmt 1
	.loc 2 552 22 is_stmt 0
	addi	s0,a5,1
.LVL322:
	.loc 2 552 26
	add	a5,s4,a5
	sb	s8,0(a5)
	.loc 2 553 17 is_stmt 1
.LVL323:
.L193:
	.loc 2 557 9
	.loc 2 557 12 is_stmt 0
	bne	s6,s2,.L195
	.loc 2 558 13 is_stmt 1
	.loc 2 558 16 is_stmt 0
	lw	a5,8(sp)
	bge	a5,s3,.L196
	.loc 2 561 13 is_stmt 1
	.loc 2 561 16 is_stmt 0
	li	a5,1
	ble	s0,a5,.L197
	.loc 2 562 17 is_stmt 1
	.loc 2 562 18 is_stmt 0
	addi	s0,s0,-1
.LVL324:
.L197:
	.loc 2 563 13 is_stmt 1
	.loc 2 563 20 is_stmt 0
	add	s0,s4,s0
.LVL325:
	sb	zero,0(s0)
	.loc 2 564 13 is_stmt 1
	.loc 2 564 20 is_stmt 0
	j	.L188
.LVL326:
.L195:
	.loc 2 537 19
	mv	a1,s2
	addi	a2,sp,8
	mv	a0,s5
	call	fdt_next_node
.LVL327:
	mv	s2,a0
.LVL328:
	.loc 2 535 5
	bge	a0,zero,.L191
	.loc 2 568 5 is_stmt 1
	.loc 2 568 8 is_stmt 0
	li	a5,-1
	beq	a0,a5,.L201
	.loc 2 570 10 is_stmt 1
	.loc 2 570 13 is_stmt 0
	li	a5,-4
	mv	s1,a0
.LVL329:
	bne	a0,a5,.L188
	.loc 2 571 16
	li	s1,-11
	j	.L188
.LVL330:
.L199:
	.loc 2 538 23
	lw	a5,8(sp)
	j	.L200
	.cfi_endproc
.LFE67:
	.size	fdt_get_path, .-fdt_get_path
	.section	.text.fdt_supernode_atdepth_offset,"ax",@progbits
	.align	1
	.globl	fdt_supernode_atdepth_offset
	.type	fdt_supernode_atdepth_offset, @function
fdt_supernode_atdepth_offset:
.LFB68:
	.loc 2 578 1 is_stmt 1
	.cfi_startproc
.LVL331:
	.loc 2 579 5
	.loc 2 580 5
.LBB79:
	.loc 2 582 7
	.loc 2 582 17
.LBE79:
	.loc 2 578 1 is_stmt 0
	addi	sp,sp,-48
	.cfi_def_cfa_offset 48
	sw	s0,40(sp)
	sw	s1,36(sp)
	sw	s3,28(sp)
	sw	s4,24(sp)
	sw	ra,44(sp)
	sw	s2,32(sp)
	.cfi_offset 8, -8
	.cfi_offset 9, -12
	.cfi_offset 19, -20
	.cfi_offset 20, -24
	.cfi_offset 1, -4
	.cfi_offset 18, -16
	.loc 2 578 1
	mv	s4,a0
	mv	s1,a1
	mv	s0,a2
	mv	s3,a3
.LBB80:
	.loc 2 582 29
	call	fdt_ro_probe_
.LVL332:
	.loc 2 582 20
	bne	a0,zero,.L206
.LBE80:
	.loc 2 582 69 is_stmt 1 discriminator 2
	.loc 2 584 5 discriminator 2
	.loc 2 584 8 is_stmt 0 discriminator 2
	blt	s0,zero,.L216
.LVL333:
.LBB81:
.LBB82:
	.loc 2 587 5 is_stmt 1
	.loc 2 587 28 is_stmt 0
	sw	zero,12(sp)
.LVL334:
	.loc 2 580 9
	li	s2,-13
.LVL335:
.L208:
	.loc 2 588 24
	bge	s1,a0,.L214
.L215:
	.loc 2 605 16
	li	a0,-4
.LVL336:
	j	.L206
.LVL337:
.L214:
	.loc 2 590 9 is_stmt 1
	.loc 2 590 19 is_stmt 0
	lw	a5,12(sp)
	.loc 2 590 12
	bne	s0,a5,.L209
	mv	s2,a0
.LVL338:
.L209:
	.loc 2 593 9 is_stmt 1
	.loc 2 593 12 is_stmt 0
	bne	s1,a0,.L210
	.loc 2 594 13 is_stmt 1
	.loc 2 594 16 is_stmt 0
	beq	s3,zero,.L211
	.loc 2 595 17 is_stmt 1
	.loc 2 595 28 is_stmt 0
	sw	a5,0(s3)
.L211:
	.loc 2 597 13 is_stmt 1
	.loc 2 598 24 is_stmt 0
	li	a0,-1
.LVL339:
	.loc 2 597 16
	bgt	s0,a5,.L206
	mv	a0,s2
.LVL340:
.L206:
.LBE82:
.LBE81:
	.loc 2 610 1
	lw	ra,44(sp)
	.cfi_remember_state
	.cfi_restore 1
	lw	s0,40(sp)
	.cfi_restore 8
.LVL341:
	lw	s1,36(sp)
	.cfi_restore 9
.LVL342:
	lw	s2,32(sp)
	.cfi_restore 18
	lw	s3,28(sp)
	.cfi_restore 19
.LVL343:
	lw	s4,24(sp)
	.cfi_restore 20
.LVL344:
	addi	sp,sp,48
	.cfi_def_cfa_offset 0
	jr	ra
.LVL345:
.L210:
	.cfi_restore_state
.LBB84:
.LBB83:
	.loc 2 589 19
	mv	a1,a0
	addi	a2,sp,12
	mv	a0,s4
.LVL346:
	call	fdt_next_node
.LVL347:
	.loc 2 587 5
	bge	a0,zero,.L208
	.loc 2 604 5 is_stmt 1
	.loc 2 604 8 is_stmt 0
	li	a5,-1
	beq	a0,a5,.L215
	.loc 2 606 10 is_stmt 1
	.loc 2 606 13 is_stmt 0
	li	a5,-4
	bne	a0,a5,.L206
	.loc 2 607 16
	li	a0,-11
.LVL348:
	j	.L206
.LVL349:
.L216:
.LBE83:
.LBE84:
	.loc 2 585 16
	li	a0,-1
.LVL350:
	j	.L206
	.cfi_endproc
.LFE68:
	.size	fdt_supernode_atdepth_offset, .-fdt_supernode_atdepth_offset
	.section	.text.fdt_node_depth,"ax",@progbits
	.align	1
	.globl	fdt_node_depth
	.type	fdt_node_depth, @function
fdt_node_depth:
.LFB69:
	.loc 2 613 1 is_stmt 1
	.cfi_startproc
.LVL351:
	.loc 2 614 5
	.loc 2 615 5
	.loc 2 617 5
	.loc 2 613 1 is_stmt 0
	addi	sp,sp,-32
	.cfi_def_cfa_offset 32
	.loc 2 617 11
	addi	a3,sp,12
	li	a2,0
	.loc 2 613 1
	sw	ra,28(sp)
	.cfi_offset 1, -4
	.loc 2 617 11
	call	fdt_supernode_atdepth_offset
.LVL352:
	.loc 2 618 5 is_stmt 1
	.loc 2 618 8 is_stmt 0
	beq	a0,zero,.L223
	.loc 2 619 9 is_stmt 1
	.loc 2 619 32 is_stmt 0
	blt	a0,zero,.L222
	li	a0,-13
.LVL353:
.L222:
	.loc 2 621 1
	lw	ra,28(sp)
	.cfi_remember_state
	.cfi_restore 1
	addi	sp,sp,32
	.cfi_def_cfa_offset 0
	jr	ra
.LVL354:
.L223:
	.cfi_restore_state
	.loc 2 620 5 is_stmt 1
	.loc 2 620 12 is_stmt 0
	lw	a0,12(sp)
.LVL355:
	j	.L222
	.cfi_endproc
.LFE69:
	.size	fdt_node_depth, .-fdt_node_depth
	.section	.text.fdt_parent_offset,"ax",@progbits
	.align	1
	.globl	fdt_parent_offset
	.type	fdt_parent_offset, @function
fdt_parent_offset:
.LFB70:
	.loc 2 624 1 is_stmt 1
	.cfi_startproc
.LVL356:
	.loc 2 625 5
	.loc 2 624 1 is_stmt 0
	addi	sp,sp,-16
	.cfi_def_cfa_offset 16
	sw	s0,8(sp)
	sw	s1,4(sp)
	sw	ra,12(sp)
	.cfi_offset 8, -8
	.cfi_offset 9, -12
	.cfi_offset 1, -4
	.loc 2 624 1
	mv	s0,a0
	mv	s1,a1
	.loc 2 625 21
	call	fdt_node_depth
.LVL357:
	.loc 2 627 5 is_stmt 1
	.loc 2 627 8 is_stmt 0
	blt	a0,zero,.L226
	.loc 2 629 5 is_stmt 1
	.loc 2 629 12 is_stmt 0
	addi	a2,a0,-1
	mv	a0,s0
.LVL358:
	.loc 2 631 1
	lw	s0,8(sp)
	.cfi_remember_state
	.cfi_restore 8
.LVL359:
	lw	ra,12(sp)
	.cfi_restore 1
	.loc 2 629 12
	mv	a1,s1
	.loc 2 631 1
	lw	s1,4(sp)
	.cfi_restore 9
.LVL360:
	.loc 2 629 12
	li	a3,0
	.loc 2 631 1
	addi	sp,sp,16
	.cfi_def_cfa_offset 0
	.loc 2 629 12
	tail	fdt_supernode_atdepth_offset
.LVL361:
.L226:
	.cfi_restore_state
	.loc 2 631 1
	lw	ra,12(sp)
	.cfi_restore 1
	lw	s0,8(sp)
	.cfi_restore 8
.LVL362:
	lw	s1,4(sp)
	.cfi_restore 9
.LVL363:
	addi	sp,sp,16
	.cfi_def_cfa_offset 0
	jr	ra
	.cfi_endproc
.LFE70:
	.size	fdt_parent_offset, .-fdt_parent_offset
	.section	.text.fdt_node_offset_by_prop_value,"ax",@progbits
	.align	1
	.globl	fdt_node_offset_by_prop_value
	.type	fdt_node_offset_by_prop_value, @function
fdt_node_offset_by_prop_value:
.LFB71:
	.loc 2 636 1 is_stmt 1
	.cfi_startproc
.LVL364:
	.loc 2 637 5
	.loc 2 638 5
	.loc 2 639 5
.LBB85:
	.loc 2 641 7
	.loc 2 641 17
.LBE85:
	.loc 2 636 1 is_stmt 0
	addi	sp,sp,-64
	.cfi_def_cfa_offset 64
	sw	s0,56(sp)
	sw	s1,52(sp)
	sw	s2,48(sp)
	sw	s3,44(sp)
	sw	s4,40(sp)
	sw	ra,60(sp)
	.cfi_offset 8, -8
	.cfi_offset 9, -12
	.cfi_offset 18, -16
	.cfi_offset 19, -20
	.cfi_offset 20, -24
	.cfi_offset 1, -4
	.loc 2 636 1
	mv	s1,a0
	sw	a1,12(sp)
	mv	s3,a2
	mv	s4,a3
	mv	s2,a4
.LBB86:
	.loc 2 641 29
	call	fdt_ro_probe_
.LVL365:
	mv	s0,a0
.LVL366:
	.loc 2 641 20
	bne	a0,zero,.L229
.LBE86:
	.loc 2 641 69 is_stmt 1 discriminator 2
	.loc 2 648 5 discriminator 2
	.loc 2 648 19 is_stmt 0 discriminator 2
	lw	a1,12(sp)
	li	a2,0
.LVL367:
.L239:
	.loc 2 650 19
	mv	a0,s1
	call	fdt_next_node
.LVL368:
	mv	s0,a0
.LVL369:
	.loc 2 648 5
	bge	a0,zero,.L234
.LVL370:
.L229:
	.loc 2 658 1
	mv	a0,s0
	lw	ra,60(sp)
	.cfi_remember_state
	.cfi_restore 1
	lw	s0,56(sp)
	.cfi_restore 8
	lw	s1,52(sp)
	.cfi_restore 9
.LVL371:
	lw	s2,48(sp)
	.cfi_restore 18
.LVL372:
	lw	s3,44(sp)
	.cfi_restore 19
.LVL373:
	lw	s4,40(sp)
	.cfi_restore 20
.LVL374:
	addi	sp,sp,64
	.cfi_def_cfa_offset 0
.LVL375:
	jr	ra
.LVL376:
.L234:
	.cfi_restore_state
	.loc 2 651 9 is_stmt 1
	.loc 2 651 15 is_stmt 0
	addi	a3,sp,28
	mv	a2,s3
	mv	a1,s0
	mv	a0,s1
	call	fdt_getprop
.LVL377:
	.loc 2 652 9 is_stmt 1
	.loc 2 652 12 is_stmt 0
	bne	a0,zero,.L232
.LVL378:
.L233:
	.loc 2 650 19
	li	a2,0
	mv	a1,s0
	j	.L239
.LVL379:
.L232:
	.loc 2 652 25 discriminator 1
	lw	a5,28(sp)
	.loc 2 652 17 discriminator 1
	bne	a5,s2,.L233
	.loc 2 653 17
	mv	a2,s2
	mv	a1,s4
	call	memcmp
.LVL380:
	.loc 2 653 13
	bne	a0,zero,.L233
	j	.L229
	.cfi_endproc
.LFE71:
	.size	fdt_node_offset_by_prop_value, .-fdt_node_offset_by_prop_value
	.section	.text.fdt_node_offset_by_phandle,"ax",@progbits
	.align	1
	.globl	fdt_node_offset_by_phandle
	.type	fdt_node_offset_by_phandle, @function
fdt_node_offset_by_phandle:
.LFB72:
	.loc 2 661 1 is_stmt 1
	.cfi_startproc
.LVL381:
	.loc 2 662 5
	.loc 2 664 5
	.loc 2 661 1 is_stmt 0
	addi	sp,sp,-16
	.cfi_def_cfa_offset 16
	sw	s0,8(sp)
	sw	ra,12(sp)
	sw	s1,4(sp)
	sw	s2,0(sp)
	.cfi_offset 8, -8
	.cfi_offset 1, -4
	.cfi_offset 9, -12
	.cfi_offset 18, -16
	.loc 2 664 24
	addi	a4,a1,-1
	.loc 2 664 8
	li	a5,-3
	.loc 2 665 16
	li	s0,-6
	.loc 2 664 8
	bgtu	a4,a5,.L240
	mv	s1,a0
	mv	s2,a1
.LBB87:
	.loc 2 667 7 is_stmt 1
	.loc 2 667 17
	.loc 2 667 29 is_stmt 0
	call	fdt_ro_probe_
.LVL382:
	mv	s0,a0
.LVL383:
	.loc 2 667 20
	bne	a0,zero,.L240
.LBE87:
	.loc 2 667 69 is_stmt 1 discriminator 2
	.loc 2 675 5 discriminator 2
	.loc 2 675 19 is_stmt 0 discriminator 2
	li	a2,0
	li	a1,-1
.LVL384:
.L246:
	.loc 2 677 19
	mv	a0,s1
	call	fdt_next_node
.LVL385:
	mv	s0,a0
.LVL386:
	.loc 2 675 5
	bge	a0,zero,.L243
.LVL387:
.L240:
	.loc 2 683 1
	mv	a0,s0
	lw	ra,12(sp)
	.cfi_remember_state
	.cfi_restore 1
	lw	s0,8(sp)
	.cfi_restore 8
	lw	s1,4(sp)
	.cfi_restore 9
	lw	s2,0(sp)
	.cfi_restore 18
	addi	sp,sp,16
	.cfi_def_cfa_offset 0
	jr	ra
.LVL388:
.L243:
	.cfi_restore_state
	.loc 2 678 9 is_stmt 1
	.loc 2 678 13 is_stmt 0
	mv	a1,s0
	mv	a0,s1
	call	fdt_get_phandle
.LVL389:
	.loc 2 678 12
	beq	a0,s2,.L240
	.loc 2 677 19
	li	a2,0
	mv	a1,s0
	j	.L246
	.cfi_endproc
.LFE72:
	.size	fdt_node_offset_by_phandle, .-fdt_node_offset_by_phandle
	.section	.text.fdt_stringlist_contains,"ax",@progbits
	.align	1
	.globl	fdt_stringlist_contains
	.type	fdt_stringlist_contains, @function
fdt_stringlist_contains:
.LFB73:
	.loc 2 686 1 is_stmt 1
	.cfi_startproc
.LVL390:
	.loc 2 687 5
	.loc 2 686 1 is_stmt 0
	addi	sp,sp,-32
	.cfi_def_cfa_offset 32
	sw	s0,24(sp)
	.cfi_offset 8, -8
	mv	s0,a0
	.loc 2 687 15
	mv	a0,a2
.LVL391:
	.loc 2 686 1
	sw	s1,20(sp)
	sw	s2,16(sp)
	sw	s3,12(sp)
	sw	s4,8(sp)
	sw	ra,28(sp)
	.cfi_offset 9, -12
	.cfi_offset 18, -16
	.cfi_offset 19, -20
	.cfi_offset 20, -24
	.cfi_offset 1, -4
	.loc 2 686 1
	mv	s1,a1
	mv	s3,a2
	.loc 2 687 15
	call	strlen
.LVL392:
	mv	s2,a0
.LVL393:
	.loc 2 688 5 is_stmt 1
	.loc 2 690 5
	.loc 2 691 37 is_stmt 0
	addi	s4,a0,1
.LVL394:
.L248:
	.loc 2 690 11
	blt	s1,s2,.L252
	.loc 2 691 9 is_stmt 1
	.loc 2 691 13 is_stmt 0
	mv	a2,s4
	mv	a1,s0
	mv	a0,s3
	call	memcmp
.LVL395:
	.loc 2 691 12
	beq	a0,zero,.L253
	.loc 2 693 9 is_stmt 1
	.loc 2 693 13 is_stmt 0
	mv	a2,s1
	li	a1,0
	mv	a0,s0
	call	memchr
.LVL396:
	.loc 2 694 9 is_stmt 1
	.loc 2 694 12 is_stmt 0
	bne	a0,zero,.L250
.LVL397:
.L252:
	.loc 2 695 20
	li	a0,0
.L247:
	.loc 2 700 1
	lw	ra,28(sp)
	.cfi_remember_state
	.cfi_restore 1
	lw	s0,24(sp)
	.cfi_restore 8
.LVL398:
	lw	s1,20(sp)
	.cfi_restore 9
.LVL399:
	lw	s2,16(sp)
	.cfi_restore 18
.LVL400:
	lw	s3,12(sp)
	.cfi_restore 19
.LVL401:
	lw	s4,8(sp)
	.cfi_restore 20
.LVL402:
	addi	sp,sp,32
	.cfi_def_cfa_offset 0
	jr	ra
.LVL403:
.L250:
	.cfi_restore_state
	.loc 2 696 9 is_stmt 1
	.loc 2 696 22 is_stmt 0
	sub	s0,a0,s0
.LVL404:
	.loc 2 696 32
	addi	s0,s0,1
	.loc 2 696 17
	sub	s1,s1,s0
.LVL405:
	.loc 2 697 9 is_stmt 1
	.loc 2 697 17 is_stmt 0
	addi	s0,a0,1
.LVL406:
	j	.L248
.LVL407:
.L253:
	.loc 2 692 20
	li	a0,1
	j	.L247
	.cfi_endproc
.LFE73:
	.size	fdt_stringlist_contains, .-fdt_stringlist_contains
	.section	.text.fdt_stringlist_count,"ax",@progbits
	.align	1
	.globl	fdt_stringlist_count
	.type	fdt_stringlist_count, @function
fdt_stringlist_count:
.LFB74:
	.loc 2 703 1 is_stmt 1
	.cfi_startproc
.LVL408:
	.loc 2 704 5
	.loc 2 705 5
	.loc 2 707 5
	.loc 2 703 1 is_stmt 0
	addi	sp,sp,-32
	.cfi_def_cfa_offset 32
	.loc 2 707 12
	addi	a3,sp,12
	.loc 2 703 1
	sw	s0,24(sp)
	sw	ra,28(sp)
	sw	s1,20(sp)
	sw	s2,16(sp)
	.cfi_offset 8, -8
	.cfi_offset 1, -4
	.cfi_offset 9, -12
	.cfi_offset 18, -16
	.loc 2 707 12
	call	fdt_getprop
.LVL409:
	.loc 2 708 5 is_stmt 1
	lw	s0,12(sp)
	.loc 2 708 8 is_stmt 0
	beq	a0,zero,.L255
	.loc 2 711 9
	add	s2,a0,s0
	mv	s1,a0
	.loc 2 711 5 is_stmt 1
.LVL410:
	.loc 2 713 5
	.loc 2 705 17 is_stmt 0
	li	s0,0
.LVL411:
.L258:
	.loc 2 713 11
	bltu	s1,s2,.L259
.LVL412:
.L255:
	.loc 2 725 1
	mv	a0,s0
	lw	ra,28(sp)
	.cfi_remember_state
	.cfi_restore 1
	lw	s0,24(sp)
	.cfi_restore 8
	lw	s1,20(sp)
	.cfi_restore 9
	lw	s2,16(sp)
	.cfi_restore 18
	addi	sp,sp,32
	.cfi_def_cfa_offset 0
	jr	ra
.LVL413:
.L259:
	.cfi_restore_state
	.loc 2 714 9 is_stmt 1
	.loc 2 714 18 is_stmt 0
	sub	a1,s2,s1
	mv	a0,s1
	call	strnlen
.LVL414:
	.loc 2 714 44
	addi	a0,a0,1
	.loc 2 714 16
	sw	a0,12(sp)
	.loc 2 717 9 is_stmt 1
	.loc 2 717 18 is_stmt 0
	add	s1,s1,a0
.LVL415:
	.loc 2 717 12
	bgtu	s1,s2,.L260
	.loc 2 720 9 is_stmt 1
.LVL416:
	.loc 2 721 9
	.loc 2 721 14 is_stmt 0
	addi	s0,s0,1
.LVL417:
	j	.L258
.LVL418:
.L260:
	.loc 2 718 20
	li	s0,-15
.LVL419:
	j	.L255
	.cfi_endproc
.LFE74:
	.size	fdt_stringlist_count, .-fdt_stringlist_count
	.section	.text.fdt_stringlist_search,"ax",@progbits
	.align	1
	.globl	fdt_stringlist_search
	.type	fdt_stringlist_search, @function
fdt_stringlist_search:
.LFB75:
	.loc 2 729 1 is_stmt 1
	.cfi_startproc
.LVL420:
	.loc 2 730 5
	.loc 2 731 5
	.loc 2 733 5
	.loc 2 729 1 is_stmt 0
	addi	sp,sp,-48
	.cfi_def_cfa_offset 48
	sw	s4,24(sp)
	.cfi_offset 20, -24
	mv	s4,a3
	.loc 2 733 12
	addi	a3,sp,12
.LVL421:
	.loc 2 729 1
	sw	ra,44(sp)
	sw	s0,40(sp)
	sw	s1,36(sp)
	sw	s2,32(sp)
	sw	s3,28(sp)
	.cfi_offset 1, -4
	.cfi_offset 8, -8
	.cfi_offset 9, -12
	.cfi_offset 18, -16
	.cfi_offset 19, -20
	.loc 2 733 12
	call	fdt_getprop
.LVL422:
	.loc 2 734 5 is_stmt 1
	.loc 2 734 8 is_stmt 0
	bne	a0,zero,.L263
	.loc 2 735 9 is_stmt 1
	.loc 2 735 16 is_stmt 0
	lw	s1,12(sp)
.LVL423:
.L262:
	.loc 2 755 1
	lw	ra,44(sp)
	.cfi_remember_state
	.cfi_restore 1
	lw	s0,40(sp)
	.cfi_restore 8
	mv	a0,s1
	lw	s2,32(sp)
	.cfi_restore 18
	lw	s1,36(sp)
	.cfi_restore 9
	lw	s3,28(sp)
	.cfi_restore 19
	lw	s4,24(sp)
	.cfi_restore 20
.LVL424:
	addi	sp,sp,48
	.cfi_def_cfa_offset 0
	jr	ra
.LVL425:
.L263:
	.cfi_restore_state
	mv	s0,a0
	.loc 2 737 5 is_stmt 1
	.loc 2 737 11 is_stmt 0
	mv	a0,s4
.LVL426:
	call	strlen
.LVL427:
	.loc 2 738 9
	lw	s2,12(sp)
	.loc 2 737 26
	addi	s3,a0,1
.LVL428:
	.loc 2 738 5 is_stmt 1
	.loc 2 730 22 is_stmt 0
	li	s1,0
	.loc 2 738 9
	add	s2,s0,s2
.LVL429:
	.loc 2 740 5 is_stmt 1
.L265:
	.loc 2 740 11 is_stmt 0
	bltu	s0,s2,.L268
	.loc 2 754 12
	li	s1,-1
.LVL430:
	j	.L262
.LVL431:
.L268:
	.loc 2 741 9 is_stmt 1
	.loc 2 741 18 is_stmt 0
	sub	a1,s2,s0
	mv	a0,s0
	call	strnlen
.LVL432:
	.loc 2 741 44
	addi	a0,a0,1
	.loc 2 741 16
	sw	a0,12(sp)
	.loc 2 744 9 is_stmt 1
	.loc 2 744 18 is_stmt 0
	add	a5,s0,a0
	.loc 2 744 12
	bltu	s2,a5,.L269
	.loc 2 747 9 is_stmt 1
	.loc 2 747 12 is_stmt 0
	beq	a0,s3,.L266
.L267:
	.loc 2 750 9 is_stmt 1
	.loc 2 750 14 is_stmt 0
	lw	a5,12(sp)
	.loc 2 751 12
	addi	s1,s1,1
.LVL433:
	.loc 2 750 14
	add	s0,s0,a5
.LVL434:
	.loc 2 751 9 is_stmt 1
	j	.L265
.L266:
	.loc 2 747 30 is_stmt 0 discriminator 1
	mv	a2,s3
	mv	a1,s4
	mv	a0,s0
	call	memcmp
.LVL435:
	.loc 2 747 27 discriminator 1
	bne	a0,zero,.L267
	j	.L262
.L269:
	.loc 2 745 20
	li	s1,-15
.LVL436:
	j	.L262
	.cfi_endproc
.LFE75:
	.size	fdt_stringlist_search, .-fdt_stringlist_search
	.section	.text.fdt_stringlist_get,"ax",@progbits
	.align	1
	.globl	fdt_stringlist_get
	.type	fdt_stringlist_get, @function
fdt_stringlist_get:
.LFB76:
	.loc 2 760 1 is_stmt 1
	.cfi_startproc
.LVL437:
	.loc 2 761 5
	.loc 2 762 5
	.loc 2 764 5
	.loc 2 760 1 is_stmt 0
	addi	sp,sp,-48
	.cfi_def_cfa_offset 48
	sw	s3,28(sp)
	.cfi_offset 19, -20
	mv	s3,a3
	.loc 2 764 12
	addi	a3,sp,12
.LVL438:
	.loc 2 760 1
	sw	s0,40(sp)
	sw	s1,36(sp)
	sw	ra,44(sp)
	sw	s2,32(sp)
	.cfi_offset 8, -8
	.cfi_offset 9, -12
	.cfi_offset 1, -4
	.cfi_offset 18, -16
	.loc 2 760 1
	mv	s1,a4
	.loc 2 764 12
	call	fdt_getprop
.LVL439:
	mv	s0,a0
.LVL440:
	.loc 2 765 5 is_stmt 1
	.loc 2 765 8 is_stmt 0
	bne	a0,zero,.L275
	.loc 2 766 9 is_stmt 1
	.loc 2 766 12 is_stmt 0
	bne	s1,zero,.L276
.L294:
	.loc 2 799 11
	li	s0,0
.LVL441:
	j	.L274
.LVL442:
.L276:
	.loc 2 767 13 is_stmt 1
	.loc 2 767 19 is_stmt 0
	lw	a5,12(sp)
	sw	a5,0(s1)
.LVL443:
.L274:
	.loc 2 800 1
	mv	a0,s0
	lw	ra,44(sp)
	.cfi_remember_state
	.cfi_restore 1
	lw	s0,40(sp)
	.cfi_restore 8
	lw	s1,36(sp)
	.cfi_restore 9
.LVL444:
	lw	s2,32(sp)
	.cfi_restore 18
	lw	s3,28(sp)
	.cfi_restore 19
.LVL445:
	addi	sp,sp,48
	.cfi_def_cfa_offset 0
	jr	ra
.LVL446:
.L275:
	.cfi_restore_state
	.loc 2 772 5 is_stmt 1
	.loc 2 772 9 is_stmt 0
	lw	s2,12(sp)
	add	s2,a0,s2
.LVL447:
	.loc 2 774 5 is_stmt 1
.L278:
	.loc 2 774 11 is_stmt 0
	bltu	s0,s2,.L282
	.loc 2 796 5 is_stmt 1
	.loc 2 796 8 is_stmt 0
	beq	s1,zero,.L294
	.loc 2 797 9 is_stmt 1
	.loc 2 797 15 is_stmt 0
	li	a5,-1
	j	.L293
.L282:
	.loc 2 775 9 is_stmt 1
	.loc 2 775 18 is_stmt 0
	sub	a1,s2,s0
	mv	a0,s0
	call	strnlen
.LVL448:
	.loc 2 775 44
	addi	a5,a0,1
	.loc 2 775 16
	sw	a5,12(sp)
	.loc 2 778 9 is_stmt 1
	.loc 2 778 18 is_stmt 0
	add	a5,s0,a5
	.loc 2 778 12
	bleu	a5,s2,.L279
	.loc 2 779 13 is_stmt 1
	.loc 2 780 23 is_stmt 0
	li	a5,-15
	.loc 2 779 16
	beq	s1,zero,.L294
.L293:
	.loc 2 797 15
	sw	a5,0(s1)
	j	.L294
.L279:
	.loc 2 785 9 is_stmt 1
	.loc 2 785 12 is_stmt 0
	bne	s3,zero,.L281
	.loc 2 786 13 is_stmt 1
	.loc 2 786 16 is_stmt 0
	beq	s1,zero,.L274
	.loc 2 787 17 is_stmt 1
	.loc 2 787 23 is_stmt 0
	sw	a0,0(s1)
	j	.L274
.L281:
	.loc 2 792 9 is_stmt 1
.LVL449:
	.loc 2 793 9
	.loc 2 793 12 is_stmt 0
	addi	s3,s3,-1
.LVL450:
	mv	s0,a5
	j	.L278
	.cfi_endproc
.LFE76:
	.size	fdt_stringlist_get, .-fdt_stringlist_get
	.section	.text.fdt_node_check_compatible,"ax",@progbits
	.align	1
	.globl	fdt_node_check_compatible
	.type	fdt_node_check_compatible, @function
fdt_node_check_compatible:
.LFB77:
	.loc 2 804 1 is_stmt 1
	.cfi_startproc
.LVL451:
	.loc 2 805 5
	.loc 2 806 5
	.loc 2 808 5
	.loc 2 804 1 is_stmt 0
	addi	sp,sp,-32
	.cfi_def_cfa_offset 32
	sw	s0,24(sp)
	.cfi_offset 8, -8
	mv	s0,a2
	.loc 2 808 12
	lui	a2,%hi(.LC3)
.LVL452:
	addi	a3,sp,12
	addi	a2,a2,%lo(.LC3)
	.loc 2 804 1
	sw	ra,28(sp)
	.cfi_offset 1, -4
	.loc 2 808 12
	call	fdt_getprop
.LVL453:
	.loc 2 809 5 is_stmt 1
	lw	a1,12(sp)
	.loc 2 809 8 is_stmt 0
	bne	a0,zero,.L296
	.loc 2 810 9 is_stmt 1
	.loc 2 810 16 is_stmt 0
	mv	a0,a1
.LVL454:
.L295:
	.loc 2 813 1
	lw	ra,28(sp)
	.cfi_remember_state
	.cfi_restore 1
	lw	s0,24(sp)
	.cfi_restore 8
.LVL455:
	addi	sp,sp,32
	.cfi_def_cfa_offset 0
	jr	ra
.LVL456:
.L296:
	.cfi_restore_state
	.loc 2 812 5 is_stmt 1
	.loc 2 812 13 is_stmt 0
	mv	a2,s0
	call	fdt_stringlist_contains
.LVL457:
	.loc 2 812 12
	seqz	a0,a0
	j	.L295
	.cfi_endproc
.LFE77:
	.size	fdt_node_check_compatible, .-fdt_node_check_compatible
	.section	.text.fdt_node_offset_by_compatible,"ax",@progbits
	.align	1
	.globl	fdt_node_offset_by_compatible
	.type	fdt_node_offset_by_compatible, @function
fdt_node_offset_by_compatible:
.LFB78:
	.loc 2 817 1 is_stmt 1
	.cfi_startproc
.LVL458:
	.loc 2 818 5
.LBB88:
	.loc 2 820 7
	.loc 2 820 17
.LBE88:
	.loc 2 817 1 is_stmt 0
	addi	sp,sp,-48
	.cfi_def_cfa_offset 48
	sw	s0,40(sp)
	sw	s1,36(sp)
	sw	s2,32(sp)
	sw	ra,44(sp)
	sw	s3,28(sp)
	.cfi_offset 8, -8
	.cfi_offset 9, -12
	.cfi_offset 18, -16
	.cfi_offset 1, -4
	.cfi_offset 19, -20
	.loc 2 817 1
	mv	s1,a0
	sw	a1,12(sp)
	mv	s2,a2
.LBB89:
	.loc 2 820 29
	call	fdt_ro_probe_
.LVL459:
	mv	s0,a0
.LVL460:
	.loc 2 820 20
	bne	a0,zero,.L299
.LBE89:
	.loc 2 820 69 is_stmt 1 discriminator 2
	.loc 2 827 5 discriminator 2
	.loc 2 827 19 is_stmt 0 discriminator 2
	lw	a1,12(sp)
	li	a2,0
	mv	a0,s1
	call	fdt_next_node
.LVL461:
	mv	s0,a0
.LVL462:
	.loc 2 831 12 discriminator 2
	li	s3,-1
.L301:
	.loc 2 827 5 discriminator 1
	bge	s0,zero,.L302
.LVL463:
.L299:
	.loc 2 838 1
	mv	a0,s0
	lw	ra,44(sp)
	.cfi_remember_state
	.cfi_restore 1
	lw	s0,40(sp)
	.cfi_restore 8
	lw	s1,36(sp)
	.cfi_restore 9
.LVL464:
	lw	s2,32(sp)
	.cfi_restore 18
.LVL465:
	lw	s3,28(sp)
	.cfi_restore 19
	addi	sp,sp,48
	.cfi_def_cfa_offset 0
.LVL466:
	jr	ra
.LVL467:
.L302:
	.cfi_restore_state
	.loc 2 830 9 is_stmt 1
	.loc 2 830 15 is_stmt 0
	mv	a2,s2
	mv	a1,s0
	mv	a0,s1
	call	fdt_node_check_compatible
.LVL468:
	.loc 2 831 9 is_stmt 1
	.loc 2 831 12 is_stmt 0
	blt	a0,s3,.L303
	.loc 2 833 14 is_stmt 1
	.loc 2 833 17 is_stmt 0
	beq	a0,zero,.L299
	.loc 2 829 19
	mv	a1,s0
	li	a2,0
	mv	a0,s1
.LVL469:
	call	fdt_next_node
.LVL470:
	mv	s0,a0
.LVL471:
	j	.L301
.LVL472:
.L303:
	.loc 2 830 15
	mv	s0,a0
.LVL473:
	j	.L299
	.cfi_endproc
.LFE78:
	.size	fdt_node_offset_by_compatible, .-fdt_node_offset_by_compatible
	.section	.text.fdt_check_full,"ax",@progbits
	.align	1
	.globl	fdt_check_full
	.type	fdt_check_full, @function
fdt_check_full:
.LFB79:
	.loc 2 841 1 is_stmt 1
	.cfi_startproc
.LVL474:
	.loc 2 842 5
	.loc 2 843 5
	.loc 2 844 5
	.loc 2 841 1 is_stmt 0
	addi	sp,sp,-48
	.cfi_def_cfa_offset 48
	sw	ra,44(sp)
	sw	s0,40(sp)
	sw	s1,36(sp)
	sw	s2,32(sp)
	sw	s3,28(sp)
	sw	s4,24(sp)
	sw	s5,20(sp)
	.cfi_offset 1, -4
	.cfi_offset 8, -8
	.cfi_offset 9, -12
	.cfi_offset 18, -16
	.cfi_offset 19, -20
	.cfi_offset 20, -24
	.cfi_offset 21, -28
	.loc 2 844 17
	sw	zero,8(sp)
	.loc 2 845 5 is_stmt 1
	.loc 2 846 5
.LVL475:
	.loc 2 847 5
	.loc 2 848 5
	.loc 2 850 5
	.loc 2 850 8 is_stmt 0
	li	a5,27
	bgtu	a1,a5,.L309
.LVL476:
.L311:
	.loc 2 851 16
	li	s0,-8
.LVL477:
.L308:
	.loc 2 901 1
	mv	a0,s0
	lw	ra,44(sp)
	.cfi_remember_state
	.cfi_restore 1
	lw	s0,40(sp)
	.cfi_restore 8
	lw	s1,36(sp)
	.cfi_restore 9
	lw	s2,32(sp)
	.cfi_restore 18
	lw	s3,28(sp)
	.cfi_restore 19
	lw	s4,24(sp)
	.cfi_restore 20
	lw	s5,20(sp)
	.cfi_restore 21
	addi	sp,sp,48
	.cfi_def_cfa_offset 0
	jr	ra
.LVL478:
.L309:
	.cfi_restore_state
	mv	s2,a0
	mv	s1,a1
	.loc 2 852 5 is_stmt 1
	.loc 2 852 11 is_stmt 0
	call	fdt_check_header
.LVL479:
	.loc 2 852 9
	sw	a0,4(sp)
	.loc 2 853 5 is_stmt 1
	.loc 2 852 11 is_stmt 0
	mv	s0,a0
	.loc 2 853 8
	bne	a0,zero,.L308
	.loc 2 855 5 is_stmt 1
	.loc 2 855 21 is_stmt 0
	addi	a0,s2,4
	call	fdt32_ld
.LVL480:
	.loc 2 855 8
	bgtu	a0,s1,.L311
	.loc 2 858 5 is_stmt 1
	.loc 2 858 18 is_stmt 0
	mv	a0,s2
	call	fdt_num_mem_rsv
.LVL481:
	.loc 2 859 5 is_stmt 1
	.loc 2 859 8 is_stmt 0
	blt	a0,zero,.L319
	.loc 2 869 9
	lui	s3,%hi(.L315)
	.loc 2 846 14
	li	s1,0
.LVL482:
	.loc 2 869 9
	li	s5,8
	addi	s3,s3,%lo(.L315)
.LVL483:
.L312:
	.loc 2 862 5 is_stmt 1
	.loc 2 863 9
	.loc 2 863 16 is_stmt 0
	lw	s4,8(sp)
.LVL484:
	.loc 2 864 9 is_stmt 1
	.loc 2 864 15 is_stmt 0
	addi	a2,sp,8
	mv	a0,s2
	mv	a1,s4
	call	fdt_next_tag
.LVL485:
	.loc 2 866 9 is_stmt 1
	.loc 2 866 24 is_stmt 0
	lw	a5,8(sp)
	.loc 2 866 12
	blt	a5,zero,.L320
	.loc 2 869 9 is_stmt 1
	addi	a5,a0,-1
	bgtu	a5,s5,.L321
	slli	a5,a5,2
	add	a5,a5,s3
	lw	a5,0(a5)
	jr	a5
	.section	.rodata.fdt_check_full,"a",@progbits
	.align	2
	.align	2
.L315:
	.word	.L318
	.word	.L317
	.word	.L316
	.word	.L312
	.word	.L321
	.word	.L321
	.word	.L321
	.word	.L321
	.word	.L314
	.section	.text.fdt_check_full
.L314:
	.loc 2 874 13
	.loc 2 874 16 is_stmt 0
	beq	s1,zero,.L308
.L324:
	.loc 2 875 24
	li	s0,-11
	j	.L308
.L318:
	.loc 2 879 13 is_stmt 1
	.loc 2 879 18 is_stmt 0
	addi	s1,s1,1
.LVL486:
	.loc 2 880 13 is_stmt 1
	.loc 2 880 16 is_stmt 0
	bge	s1,zero,.L312
	j	.L324
.L317:
	.loc 2 885 13 is_stmt 1
	.loc 2 885 16 is_stmt 0
	beq	s1,zero,.L324
	.loc 2 887 13 is_stmt 1
	.loc 2 887 18 is_stmt 0
	addi	s1,s1,-1
.LVL487:
	.loc 2 888 13 is_stmt 1
	j	.L312
.L316:
	.loc 2 891 13
	.loc 2 891 20 is_stmt 0
	addi	a3,sp,4
	addi	a2,sp,12
	mv	a1,s4
	mv	a0,s2
.LVL488:
	call	fdt_getprop_by_offset
.LVL489:
	.loc 2 893 13 is_stmt 1
	.loc 2 893 16 is_stmt 0
	bne	a0,zero,.L312
	.loc 2 894 17 is_stmt 1
	.loc 2 894 24 is_stmt 0
	lw	s0,4(sp)
	j	.L308
.LVL490:
.L319:
	mv	s0,a0
	j	.L308
.LVL491:
.L320:
	.loc 2 866 24
	mv	s0,a5
	j	.L308
.L321:
	.loc 2 898 20
	li	s0,-13
	j	.L308
	.cfi_endproc
.LFE79:
	.size	fdt_check_full, .-fdt_check_full
	.section	.rodata.fdt_get_alias_namelen.str1.4,"aMS",@progbits,1
	.align	2
.LC2:
	.string	"/aliases"
	.section	.rodata.fdt_get_phandle.str1.4,"aMS",@progbits,1
	.align	2
.LC0:
	.string	"phandle"
.LC1:
	.string	"linux,phandle"
	.section	.rodata.fdt_node_check_compatible.str1.4,"aMS",@progbits,1
	.align	2
.LC3:
	.string	"compatible"
	.text
.Letext0:
	.file 4 "/home/hogc/build-tools/sdk/bl/bl_iot_sdk/toolchain/riscv/Linux/lib/gcc/riscv64-unknown-elf/8.3.0/include/stddef.h"
	.file 5 "/home/hogc/build-tools/sdk/bl/bl_iot_sdk/toolchain/riscv/Linux/lib/gcc/riscv64-unknown-elf/8.3.0/include/stdint-gcc.h"
	.file 6 "/home/hogc/build-tools/sdk/bl/bl_iot_sdk/toolchain/riscv/Linux/riscv64-unknown-elf/include/sys/_types.h"
	.file 7 "/home/hogc/build-tools/sdk/bl/bl_iot_sdk/toolchain/riscv/Linux/riscv64-unknown-elf/include/sys/reent.h"
	.file 8 "/home/hogc/build-tools/sdk/bl/bl_iot_sdk/toolchain/riscv/Linux/riscv64-unknown-elf/include/sys/lock.h"
	.file 9 "/home/hogc/build-tools/sdk/bl/bl_iot_sdk/toolchain/riscv/Linux/riscv64-unknown-elf/include/stdlib.h"
	.file 10 "/home/hogc/build-tools/sdk/bl/bl_iot_sdk/components/stage/blfdt/inc/libfdt_env.h"
	.file 11 "/home/hogc/build-tools/sdk/bl/bl_iot_sdk/components/stage/blfdt/inc/fdt.h"
	.file 12 "/home/hogc/build-tools/sdk/bl/bl_iot_sdk/toolchain/riscv/Linux/riscv64-unknown-elf/include/string.h"