	.file	"app_main.c"
	.option nopic
	.attribute arch, "rv32i2p0_m2p0_f2p0_c2p0"
	.attribute unaligned_access, 0
	.attribute stack_align, 16
	.text
.Ltext0:
	.cfi_sections	.debug_frame
	.section	.text.light_task,"ax",@progbits
	.align	1
	.globl	light_task
	.type	light_task, @function
light_task:
.LFB73:
	.file 1 "/b-l/dolphin/dolphin/app_main.c"
	.loc 1 131 27
	.cfi_startproc
.LVL0:
	addi	sp,sp,-48
	.cfi_def_cfa_offset 48
	sw	s0,40(sp)
	sw	s2,32(sp)
	sw	s3,28(sp)
	sw	s4,24(sp)
	sw	s5,20(sp)
	sw	s6,16(sp)
	sw	s7,12(sp)
	sw	ra,44(sp)
	sw	s1,36(sp)
	.cfi_offset 8, -8
	.cfi_offset 18, -16
	.cfi_offset 19, -20
	.cfi_offset 20, -24
	.cfi_offset 21, -28
	.cfi_offset 22, -32
	.cfi_offset 23, -36
	.cfi_offset 1, -4
	.cfi_offset 9, -12
	.loc 1 134 18 is_stmt 0
	lui	s2,%hi(charge_status)
	.loc 1 160 7
	li	s3,2
	.loc 1 137 12
	lui	s6,%hi(.LANCHOR0)
	lui	s7,%hi(.LANCHOR1)
	.loc 1 147 21
	lui	s4,%hi(.LANCHOR3)
	.loc 1 149 15
	li	s0,3
	.loc 1 138 30
	lui	s5,%hi(.LANCHOR2)
.LVL1:
.L16:
	.loc 1 133 5 is_stmt 1
	.loc 1 134 1
	.loc 1 134 3 is_stmt 0
	lbu	a5,%lo(charge_status)(s2)
	.loc 1 136 37
	li	a0,0
	.loc 1 134 3
	bne	a5,zero,.L2
	.loc 1 136 5 is_stmt 1 discriminator 1
	.loc 1 136 37 discriminator 1
	call	led_power_flash
.LVL2:
	.loc 1 136 56 discriminator 1
	li	a1,1
	li	a0,4
	call	bl_gpio_output_set
.LVL3:
	.loc 1 137 9 discriminator 1
	.loc 1 137 11 is_stmt 0 discriminator 1
	lbu	a4,%lo(.LANCHOR0)(s6)
	addi	a5,s7,%lo(.LANCHOR1)
	.loc 1 137 23 discriminator 1
	lbu	a5,0(a5)
	.loc 1 137 11 discriminator 1
	beq	a4,zero,.L3
	.loc 1 137 23 discriminator 1
	beq	a5,zero,.L4
	.loc 1 138 13 is_stmt 1
	.loc 1 138 30 is_stmt 0
	lw	a5,%lo(.LANCHOR2)(s5)
	addi	s1,s5,%lo(.LANCHOR2)
	addi	a5,a5,-1
	.loc 1 138 15
	bgtu	a5,s0,.L5
	.loc 1 138 49 is_stmt 1 discriminator 1
	li	a0,100
	call	led_status_flash
.LVL4:
.L5:
	.loc 1 139 13
	.loc 1 139 30 is_stmt 0
	lw	a5,0(s1)
	addi	a5,a5,-5
	.loc 1 139 15
	bgtu	a5,s0,.L6
	.loc 1 139 49 is_stmt 1 discriminator 1
	li	a0,80
	call	led_status_flash
.LVL5:
.L6:
	.loc 1 140 13
	.loc 1 140 30 is_stmt 0
	lw	a5,0(s1)
	addi	a5,a5,-9
	.loc 1 140 15
	bgtu	a5,s0,.L7
	.loc 1 140 50 is_stmt 1 discriminator 1
	li	a0,60
	call	led_status_flash
.LVL6:
.L7:
	.loc 1 141 13
	.loc 1 141 31 is_stmt 0
	lw	a5,0(s1)
	addi	a5,a5,-13
	.loc 1 141 15
	bgtu	a5,s3,.L8
	.loc 1 141 50 is_stmt 1 discriminator 1
	li	a0,40
	call	led_status_flash
.LVL7:
.L8:
	.loc 1 142 13
	.loc 1 142 31 is_stmt 0
	lw	a5,0(s1)
	.loc 1 142 50
	li	a0,20
	.loc 1 142 31
	addi	a5,a5,-17
	.loc 1 142 15
	bleu	a5,s0,.L24
.L10:
	.loc 1 163 5 is_stmt 1
	li	a0,500
	call	vTaskDelay
.LVL8:
	.loc 1 134 3 is_stmt 0
	j	.L16
.L3:
	.loc 1 144 14 is_stmt 1 discriminator 1
	.loc 1 144 29 is_stmt 0 discriminator 1
	beq	a5,zero,.L4
	.loc 1 147 13 is_stmt 1
	.loc 1 147 15 is_stmt 0
	lw	a4,%lo(.LANCHOR3)(s4)
	li	a5,1
	addi	s1,s4,%lo(.LANCHOR3)
	bne	a4,a5,.L11
	.loc 1 147 25 is_stmt 1 discriminator 1
	li	a0,100
	call	led_status_flash
.LVL9:
.L11:
	.loc 1 148 13
	.loc 1 148 15 is_stmt 0
	lw	a5,0(s1)
	bne	a5,s3,.L12
	.loc 1 148 25 is_stmt 1 discriminator 1
	li	a0,75
	call	led_status_flash
.LVL10:
.L12:
	.loc 1 149 13
	.loc 1 149 15 is_stmt 0
	lw	a5,0(s1)
	bne	a5,s0,.L13
	.loc 1 149 25 is_stmt 1 discriminator 1
	li	a0,50
	call	led_status_flash
.LVL11:
.L13:
	.loc 1 150 13
	.loc 1 150 15 is_stmt 0
	lw	a4,0(s1)
	li	a5,4
	bne	a4,a5,.L10
	.loc 1 150 25 is_stmt 1 discriminator 1
	li	a0,25
.L24:
	call	led_status_flash
.LVL12:
	j	.L10
.L4:
	.loc 1 152 11
	li	a1,1
	li	a0,0
.L25:
	.loc 1 160 57 is_stmt 0 discriminator 1
	call	bl_gpio_output_set
.LVL13:
	j	.L10
.L2:
	.loc 1 157 5 is_stmt 1
	call	led_status_flash
.LVL14:
	.loc 1 158 5
	li	a1,1
	li	a0,0
	call	bl_gpio_output_set
.LVL15:
	.loc 1 159 5
	.loc 1 159 7 is_stmt 0
	lbu	a4,%lo(charge_status)(s2)
	li	a5,1
	bne	a4,a5,.L15
	.loc 1 159 36 is_stmt 1 discriminator 1
	li	a0,500
	call	led_power_flash
.LVL16:
.L15:
	.loc 1 160 5
	.loc 1 160 7 is_stmt 0
	lbu	a5,%lo(charge_status)(s2)
	bne	a5,s3,.L10
	.loc 1 160 38 is_stmt 1 discriminator 1
	li	a0,0
	call	led_power_flash
.LVL17:
	.loc 1 160 57 discriminator 1
	li	a1,0
	li	a0,4
	j	.L25
	.cfi_endproc
.LFE73:
	.size	light_task, .-light_task
	.section	.text.sleep_task,"ax",@progbits
	.align	1
	.globl	sleep_task
	.type	sleep_task, @function
sleep_task:
.LFB78:
	.loc 1 318 27
	.cfi_startproc
.LVL18:
	addi	sp,sp,-48
	.cfi_def_cfa_offset 48
	sw	s0,40(sp)
	sw	s1,36(sp)
	sw	s2,32(sp)
	sw	s3,28(sp)
	sw	s4,24(sp)
	sw	s5,20(sp)
	sw	ra,44(sp)
	sw	s6,16(sp)
	sw	s7,12(sp)
	sw	s8,8(sp)
	.cfi_offset 8, -8
	.cfi_offset 9, -12
	.cfi_offset 18, -16
	.cfi_offset 19, -20
	.cfi_offset 20, -24
	.cfi_offset 21, -28
	.cfi_offset 1, -4
	.cfi_offset 22, -32
	.cfi_offset 23, -36
	.cfi_offset 24, -40
	.loc 1 322 9 is_stmt 0
	lui	s1,%hi(.LANCHOR3)
	.loc 1 322 21
	lui	s2,%hi(.LANCHOR4)
	lui	s3,%hi(.LANCHOR5)
	.loc 1 322 41
	lui	s5,%hi(charge_status)
	.loc 1 328 1
	lui	s0,%hi(.LANCHOR7)
	.loc 1 330 35
	lui	s4,%hi(.LANCHOR8)
.LVL19:
.L33:
	.loc 1 319 1 is_stmt 1
	.loc 1 320 1
	.loc 1 322 1
	lw	a5,%lo(.LANCHOR3)(s1)
	lw	a4,%lo(.LANCHOR4)(s2)
	addi	s7,s3,%lo(.LANCHOR5)
	or	a5,a5,a4
	.loc 1 322 12 is_stmt 0
	bne	a5,zero,.L37
	.loc 1 322 24 discriminator 2
	lbu	a4,%lo(charge_status)(s5)
	bne	a4,zero,.L27
	.loc 1 322 56 is_stmt 1 discriminator 3
	.loc 1 322 61 is_stmt 0 discriminator 3
	lw	a5,0(s7)
	addi	a5,a5,1
.L27:
	.loc 1 324 4
	lui	s6,%hi(.LANCHOR6)
	sw	a5,0(s7)
	.loc 1 324 1 is_stmt 1
	.loc 1 324 3 is_stmt 0
	lbu	a5,%lo(.LANCHOR6)(s6)
	.loc 1 327 6
	li	s8,120
	addi	s6,s6,%lo(.LANCHOR6)
	.loc 1 324 3
	beq	a5,zero,.L28
	.loc 1 324 14 is_stmt 1 discriminator 1
	.loc 1 324 20 is_stmt 0 discriminator 1
	sw	zero,0(s7)
.L29:
	.loc 1 330 15
	li	s7,300
	j	.L31
.L37:
	.loc 1 323 11
	li	a5,0
	j	.L27
.L30:
	.loc 1 328 1 is_stmt 1
	li	a1,1
	addi	a0,s0,%lo(.LANCHOR7)
	call	hal_hbn_init
.LVL20:
	.loc 1 329 1
	li	a0,0
	call	hal_hbn_enter
.LVL21:
.L28:
	.loc 1 327 6 is_stmt 0
	lw	a5,0(s7)
	bgt	a5,s8,.L30
	j	.L29
.L32:
	.loc 1 330 18 discriminator 1
	call	hal_timer_now_s
.LVL22:
	.loc 1 330 35 discriminator 1
	lw	a4,%lo(.LANCHOR8)(s4)
	srai	a5,a4,31
	sub	a4,a0,a4
	sgtu	a0,a4,a0
	sub	a1,a1,a5
	sub	a1,a1,a0
	.loc 1 330 15 discriminator 1
	bgt	a1,zero,.L34
	bne	a1,zero,.L36
	bleu	a4,s7,.L36
.L34:
	.loc 1 331 1 is_stmt 1
	li	a1,1
	addi	a0,s0,%lo(.LANCHOR7)
	call	hal_hbn_init
.LVL23:
	.loc 1 332 1
	li	a0,0
	call	hal_hbn_enter
.LVL24:
.L31:
	.loc 1 330 6 is_stmt 0
	lbu	a5,0(s6)
	bne	a5,zero,.L32
.L36:
	.loc 1 334 1 is_stmt 1
	li	a0,1000
	call	vTaskDelay
.LVL25:
	.loc 1 322 3 is_stmt 0
	j	.L33
	.cfi_endproc
.LFE78:
	.size	sleep_task, .-sleep_task
	.section	.text.ble_connect_cb,"ax",@progbits
	.align	1
	.type	ble_connect_cb, @function
ble_connect_cb:
.LFB69:
	.loc 1 72 55 is_stmt 1
	.cfi_startproc
.LVL26:
	.loc 1 73 5
	.loc 1 72 55 is_stmt 0
	addi	sp,sp,-16
	.cfi_def_cfa_offset 16
	sw	s0,8(sp)
	sw	ra,12(sp)
	.cfi_offset 8, -8
	.cfi_offset 1, -4
	.loc 1 72 55
	mv	s0,a1
	.loc 1 73 7
	bne	a0,zero,.L42
	.loc 1 74 9 is_stmt 1
	.loc 1 74 14
.LBB77:
.LBB78:
	.file 2 "/b-l/bl_iot_sdk_new/components/bl602/freertos_riscv_ram/portable/GCC/RISC-V/portmacro.h"
	.loc 2 151 5
	.loc 2 151 31 is_stmt 0
	lui	a5,%hi(TrapNetCounter)
.LBE78:
.LBE77:
	.loc 1 74 14
	lw	a5,%lo(TrapNetCounter)(a5)
	beq	a5,zero,.L43
	.loc 1 74 107 discriminator 1
	call	xTaskGetTickCountFromISR
.LVL27:
.L44:
	.loc 1 74 14 discriminator 4
	mv	a1,a0
	lui	a2,%hi(.LC0)
	lui	a0,%hi(.LC1)
	mv	a3,s0
	addi	a0,a0,%lo(.LC1)
	addi	a2,a2,%lo(.LC0)
	call	bl_printk
.LVL28:
	.loc 1 75 9 is_stmt 1 discriminator 4
	.loc 1 75 14 is_stmt 0 discriminator 4
	lui	a5,%hi(.LANCHOR3)
	sw	zero,%lo(.LANCHOR3)(a5)
	.loc 1 76 9 is_stmt 1 discriminator 4
	.loc 1 87 1 is_stmt 0 discriminator 4
	lw	s0,8(sp)
	.cfi_remember_state
	.cfi_restore 8
.LVL29:
	.loc 1 76 16 discriminator 4
	lui	a5,%hi(.LANCHOR4)
	sw	zero,%lo(.LANCHOR4)(a5)
	.loc 1 77 9 is_stmt 1 discriminator 4
	.loc 1 87 1 is_stmt 0 discriminator 4
	lw	ra,12(sp)
	.cfi_restore 1
	.loc 1 77 20 discriminator 4
	lui	a5,%hi(.LANCHOR0)
	li	a4,1
	sb	a4,%lo(.LANCHOR0)(a5)
	.loc 1 78 9 is_stmt 1 discriminator 4
	.loc 1 87 1 is_stmt 0 discriminator 4
	.loc 1 78 9 discriminator 4
	li	a0,0
	.loc 1 87 1 discriminator 4
	addi	sp,sp,16
	.cfi_def_cfa_offset 0
	.loc 1 78 9 discriminator 4
	tail	motor_g_set_vibrate
.LVL30:
.L43:
	.cfi_restore_state
	.loc 1 74 136 discriminator 2
	call	xTaskGetTickCount
.LVL31:
	j	.L44
.LVL32:
.L42:
	.loc 1 80 11 is_stmt 1
	.loc 1 80 13 is_stmt 0
	li	a5,1
	bne	a0,a5,.L41
.LVL33:
.LBB79:
.LBB80:
	.loc 1 81 9 is_stmt 1
	.loc 1 81 14
.LBB81:
.LBB82:
	.loc 2 151 5
	.loc 2 151 31 is_stmt 0
	lui	a5,%hi(TrapNetCounter)
.LBE82:
.LBE81:
	.loc 1 81 14
	lw	a5,%lo(TrapNetCounter)(a5)
	beq	a5,zero,.L46
	.loc 1 81 110
	call	xTaskGetTickCountFromISR
.LVL34:
.L47:
	.loc 1 81 14
	mv	a1,a0
	lui	a2,%hi(.LC0)
	lui	a0,%hi(.LC2)
	mv	a3,s0
	addi	a2,a2,%lo(.LC0)
	addi	a0,a0,%lo(.LC2)
	call	bl_printk
.LVL35:
	.loc 1 82 9 is_stmt 1
	call	ble_start_advertise
.LVL36:
	.loc 1 83 9
	.loc 1 83 14 is_stmt 0
	lui	a5,%hi(.LANCHOR3)
	sw	zero,%lo(.LANCHOR3)(a5)
	.loc 1 84 9 is_stmt 1
	.loc 1 84 16 is_stmt 0
	lui	a5,%hi(.LANCHOR4)
	sw	zero,%lo(.LANCHOR4)(a5)
	.loc 1 85 9 is_stmt 1
	.loc 1 85 20 is_stmt 0
	lui	a5,%hi(.LANCHOR0)
	sb	zero,%lo(.LANCHOR0)(a5)
.LVL37:
.L41:
.LBE80:
.LBE79:
	.loc 1 87 1
	lw	ra,12(sp)
	.cfi_remember_state
	.cfi_restore 1
	lw	s0,8(sp)
	.cfi_restore 8
.LVL38:
	addi	sp,sp,16
	.cfi_def_cfa_offset 0
	jr	ra
.LVL39:
.L46:
	.cfi_restore_state
.LBB84:
.LBB83:
	.loc 1 81 139
	call	xTaskGetTickCount
.LVL40:
	j	.L47
.LBE83:
.LBE84:
	.cfi_endproc
.LFE69:
	.size	ble_connect_cb, .-ble_connect_cb
	.section	.text.map,"ax",@progbits
	.align	1
	.globl	map
	.type	map, @function
map:
.LFB67:
	.loc 1 47 1 is_stmt 1
	.cfi_startproc
.LVL41:
	.loc 1 48 5
	.loc 1 48 15 is_stmt 0
	sub	a0,a0,a1
.LVL42:
	.loc 1 48 36
	sub	a4,a4,a3
.LVL43:
	.loc 1 48 25
	mul	a0,a0,a4
	.loc 1 48 57
	sub	a2,a2,a1
.LVL44:
	.loc 1 48 47
	div	a0,a0,a2
	.loc 1 49 1
	add	a0,a0,a3
	ret
	.cfi_endproc
.LFE67:
	.size	map, .-map
	.section	.text.sleep_start,"ax",@progbits
	.align	1
	.globl	sleep_start
	.type	sleep_start, @function
sleep_start:
.LFB68:
	.loc 1 51 19 is_stmt 1
	.cfi_startproc
	.loc 1 53 5
	.loc 1 53 22 is_stmt 0
	lui	a5,%hi(charge_status)
	.loc 1 53 7
	lbu	a5,%lo(charge_status)(a5)
	bne	a5,zero,.L50
.LBB91:
	.loc 1 55 5 is_stmt 1
	.loc 1 55 30 is_stmt 0
	lui	a0,%hi(.LANCHOR7)
	lbu	a5,%lo(.LANCHOR7)(a0)
	.loc 1 55 8
	li	a4,1
	.loc 1 55 30
	addi	a5,a5,-7
	.loc 1 55 8
	andi	a5,a5,0xff
	bgtu	a5,a4,.L50
	.loc 1 58 5 is_stmt 1
.LBE91:
	.loc 1 51 19 is_stmt 0
	addi	sp,sp,-32
	.cfi_def_cfa_offset 32
.LBB92:
	.loc 1 58 5
	li	a1,1
	addi	a0,a0,%lo(.LANCHOR7)
.LBE92:
	.loc 1 51 19
	sw	ra,28(sp)
	sw	s0,24(sp)
	sw	s1,20(sp)
	sw	s2,16(sp)
	sw	s3,12(sp)
	sw	s4,8(sp)
	.cfi_offset 1, -4
	.cfi_offset 8, -8
	.cfi_offset 9, -12
	.cfi_offset 18, -16
	.cfi_offset 19, -20
	.cfi_offset 20, -24
.LBB93:
	.loc 1 58 5
	call	hal_hbn_init
.LVL45:
	.loc 1 62 5 is_stmt 1
	.loc 1 62 15 is_stmt 0
	call	hal_timer_now_ms
.LVL46:
	mv	s0,a0
.LVL47:
	.loc 1 63 5 is_stmt 1
	.loc 1 63 29 is_stmt 0
	srai	s2,a0,31
	.loc 1 63 10
	li	s1,199
.L52:
	.loc 1 63 11 discriminator 1
	call	hal_timer_now_ms
.LVL48:
	.loc 1 63 29 discriminator 1
	sub	a5,a0,s0
	sgtu	a0,a5,a0
	sub	a1,a1,s2
	sub	a1,a1,a0
	.loc 1 63 10 discriminator 1
	bgt	a1,zero,.L60
	bne	a1,zero,.L53
	bleu	a5,s1,.L53
.L60:
.LBE93:
.LBB94:
.LBB95:
	.loc 1 64 5 is_stmt 1
	li	a1,1
	li	a0,4
	call	bl_gpio_output_set
.LVL49:
	.loc 1 64 30
	li	a0,0
	call	motor_g_set_vibrate
.LVL50:
	.loc 1 65 5
	.loc 1 65 11 is_stmt 0
	call	hal_timer_now_ms
.LVL51:
	mv	s0,a0
.LVL52:
	.loc 1 66 5 is_stmt 1
	.loc 1 66 29 is_stmt 0
	srai	s2,a0,31
	.loc 1 66 10
	li	s1,1999
	.loc 1 66 46
	lui	s3,%hi(.LANCHOR3)
	.loc 1 66 56
	lui	s4,%hi(.LANCHOR4)
.L55:
	.loc 1 66 11
	call	hal_timer_now_ms
.LVL53:
	.loc 1 66 29
	sub	a5,a0,s0
	sgtu	a0,a5,a0
	sub	a1,a1,s2
	sub	a1,a1,a0
	.loc 1 66 10
	bgt	a1,zero,.L61
	bne	a1,zero,.L56
	bleu	a5,s1,.L56
.L61:
	.loc 1 66 106 is_stmt 1
	.loc 1 67 5
	.loc 1 67 10
.LBB96:
.LBB97:
	.loc 2 151 5
	.loc 2 151 31 is_stmt 0
	lui	a5,%hi(TrapNetCounter)
.LBE97:
.LBE96:
	.loc 1 67 10
	lw	a5,%lo(TrapNetCounter)(a5)
	beq	a5,zero,.L58
	.loc 1 67 106
	call	xTaskGetTickCountFromISR
.LVL54:
.L59:
	.loc 1 67 10
	mv	a1,a0
	lui	a3,%hi(.LC3)
	lui	a2,%hi(.LC0)
	lui	a0,%hi(.LC4)
	addi	a0,a0,%lo(.LC4)
	li	a4,67
	addi	a3,a3,%lo(.LC3)
	addi	a2,a2,%lo(.LC0)
	call	bl_printk
.LVL55:
	.loc 1 68 5 is_stmt 1
.LBE95:
.LBE94:
	.loc 1 70 1 is_stmt 0
	lw	s0,24(sp)
	.cfi_remember_state
	.cfi_restore 8
.LVL56:
	lw	ra,28(sp)
	.cfi_restore 1
	lw	s1,20(sp)
	.cfi_restore 9
	lw	s2,16(sp)
	.cfi_restore 18
	lw	s3,12(sp)
	.cfi_restore 19
	lw	s4,8(sp)
	.cfi_restore 20
.LBB101:
.LBB98:
	.loc 1 68 5
	li	a0,0
.LBE98:
.LBE101:
	.loc 1 70 1
	addi	sp,sp,32
	.cfi_def_cfa_offset 0
.LBB102:
.LBB99:
	.loc 1 68 5
	tail	hal_hbn_enter
.LVL57:
.L53:
	.cfi_restore_state
.LBE99:
.LBE102:
.LBB103:
	.loc 1 63 40 is_stmt 1 discriminator 2
	li	a1,0
	li	a0,4
	call	bl_gpio_output_set
.LVL58:
	.loc 1 63 65 discriminator 2
	li	a0,20
	call	motor_g_set_vibrate
.LVL59:
	j	.L52
.LVL60:
.L56:
.LBE103:
.LBB104:
.LBB100:
	.loc 1 66 41
	.loc 1 66 59 is_stmt 0
	li	a0,0
	.loc 1 66 46
	sw	zero,%lo(.LANCHOR3)(s3)
	.loc 1 66 49 is_stmt 1
	.loc 1 66 56 is_stmt 0
	sw	zero,%lo(.LANCHOR4)(s4)
	.loc 1 66 59 is_stmt 1
	call	led_status_flash
.LVL61:
	.loc 1 66 79
	li	a1,1
	li	a0,0
	call	bl_gpio_output_set
.LVL62:
	j	.L55
.L58:
	.loc 1 67 135 is_stmt 0
	call	xTaskGetTickCount
.LVL63:
	j	.L59
.LVL64:
.L50:
	.cfi_def_cfa_offset 0
	.cfi_restore 1
	.cfi_restore 8
	.cfi_restore 9
	.cfi_restore 18
	.cfi_restore 19
	.cfi_restore 20
	ret
.LBE100:
.LBE104:
	.cfi_endproc
.LFE68:
	.size	sleep_start, .-sleep_start
	.section	.text.key_event_cb,"ax",@progbits
	.align	1
	.globl	key_event_cb
	.type	key_event_cb, @function
key_event_cb:
.LFB70:
	.loc 1 89 55 is_stmt 1
	.cfi_startproc
.LVL65:
	.loc 1 91 5
	.loc 1 89 55 is_stmt 0
	addi	sp,sp,-16
	.cfi_def_cfa_offset 16
	sw	ra,12(sp)
	.cfi_offset 1, -4
	.loc 1 91 7
	li	a5,1
	bne	a1,a5,.L66
	.loc 1 92 5 is_stmt 1
	.loc 1 92 10 is_stmt 0
	lui	a5,%hi(.LANCHOR3)
	addi	a5,a5,%lo(.LANCHOR3)
	lw	a4,0(a5)
	.loc 1 93 7
	li	a3,5
	.loc 1 92 10
	addi	a4,a4,1
	.loc 1 93 5 is_stmt 1
	.loc 1 93 7 is_stmt 0
	beq	a4,a3,.L67
	.loc 1 92 10
	sw	a4,0(a5)
.L68:
	.loc 1 94 6 is_stmt 1
	.loc 1 94 11
.LBB113:
.LBB114:
	.loc 2 151 5
	.loc 2 151 31 is_stmt 0
	lui	a5,%hi(TrapNetCounter)
.LBE114:
.LBE113:
	.loc 1 94 11
	lw	a5,%lo(TrapNetCounter)(a5)
	beq	a5,zero,.L69
	.loc 1 94 111 discriminator 1
	call	xTaskGetTickCountFromISR
.LVL66:
.L70:
	.loc 1 103 1 discriminator 4
	lw	ra,12(sp)
	.cfi_remember_state
	.cfi_restore 1
	.loc 1 94 11 discriminator 4
	lui	a2,%hi(.LC0)
	mv	a1,a0
	lui	a0,%hi(.LC5)
	.loc 1 103 1 discriminator 4
	.loc 1 94 11 discriminator 4
	addi	a2,a2,%lo(.LC0)
	addi	a0,a0,%lo(.LC5)
	.loc 1 103 1 discriminator 4
	addi	sp,sp,16
	.cfi_def_cfa_offset 0
	.loc 1 94 11 discriminator 4
	tail	bl_printk
.LVL67:
.L67:
	.cfi_restore_state
	.loc 1 93 18 is_stmt 1 discriminator 1
	.loc 1 93 23 is_stmt 0 discriminator 1
	sw	zero,0(a5)
	j	.L68
.L69:
	.loc 1 94 140 discriminator 2
	call	xTaskGetTickCount
.LVL68:
	j	.L70
.LVL69:
.L66:
	.loc 1 96 10 is_stmt 1
	.loc 1 96 12 is_stmt 0
	li	a5,2
	bne	a1,a5,.L65
.LVL70:
.LBB115:
.LBB116:
	.loc 1 97 5 is_stmt 1
	.loc 1 97 10
.LBB117:
.LBB118:
	.loc 2 151 5
	.loc 2 151 31 is_stmt 0
	lui	a5,%hi(TrapNetCounter)
.LBE118:
.LBE117:
	.loc 1 97 10
	lw	a5,%lo(TrapNetCounter)(a5)
	beq	a5,zero,.L72
	.loc 1 97 109
	call	xTaskGetTickCountFromISR
.LVL71:
.L73:
	.loc 1 97 10
	mv	a1,a0
	lui	a2,%hi(.LC0)
	lui	a0,%hi(.LC6)
	addi	a2,a2,%lo(.LC0)
	addi	a0,a0,%lo(.LC6)
	call	bl_printk
.LVL72:
	.loc 1 99 5 is_stmt 1
.LBE116:
.LBE115:
	.loc 1 103 1 is_stmt 0
	lw	ra,12(sp)
	.cfi_remember_state
	.cfi_restore 1
	addi	sp,sp,16
	.cfi_def_cfa_offset 0
.LBB120:
.LBB119:
	.loc 1 99 5
	tail	sleep_start
.LVL73:
.L72:
	.cfi_restore_state
	.loc 1 97 138
	call	xTaskGetTickCount
.LVL74:
	j	.L73
.LVL75:
.L65:
.LBE119:
.LBE120:
	.loc 1 103 1
	lw	ra,12(sp)
	.cfi_restore 1
	addi	sp,sp,16
	.cfi_def_cfa_offset 0
	jr	ra
	.cfi_endproc
.LFE70:
	.size	key_event_cb, .-key_event_cb
	.section	.text.mada_mode,"ax",@progbits
	.align	1
	.globl	mada_mode
	.type	mada_mode, @function
mada_mode:
.LFB71:
	.loc 1 105 21 is_stmt 1
	.cfi_startproc
	.loc 1 106 5
	.loc 1 106 7 is_stmt 0
	lui	a4,%hi(.LANCHOR0)
	lbu	a4,%lo(.LANCHOR0)(a4)
	.loc 1 105 21
	addi	sp,sp,-16
	.cfi_def_cfa_offset 16
	lui	a5,%hi(charge_status)
	sw	ra,12(sp)
	sw	s0,8(sp)
	.cfi_offset 1, -4
	.cfi_offset 8, -8
	lbu	a5,%lo(charge_status)(a5)
	.loc 1 106 7
	bne	a4,zero,.L76
	.loc 1 106 20 discriminator 1
	bne	a5,zero,.L77
.LBB123:
.LBB124:
	.loc 1 107 9 is_stmt 1
	.loc 1 107 17 is_stmt 0
	lui	s0,%hi(.LANCHOR3)
	.loc 1 107 11
	lw	a5,%lo(.LANCHOR3)(s0)
	addi	s0,s0,%lo(.LANCHOR3)
	bne	a5,zero,.L78
	.loc 1 107 22 is_stmt 1
	li	a0,0
	call	motor_g_set_vibrate
.LVL76:
.L78:
	.loc 1 108 9
	.loc 1 108 11 is_stmt 0
	lw	a4,0(s0)
	li	a5,1
	bne	a4,a5,.L79
	.loc 1 108 22 is_stmt 1
	li	a0,8
	call	motor_g_set_vibrate
.LVL77:
.L79:
	.loc 1 109 9
	.loc 1 109 11 is_stmt 0
	lw	a4,0(s0)
	li	a5,2
	bne	a4,a5,.L80
	.loc 1 109 22 is_stmt 1
	li	a0,12
	call	motor_g_set_vibrate
.LVL78:
.L80:
	.loc 1 110 9
	.loc 1 110 11 is_stmt 0
	lw	a4,0(s0)
	li	a5,3
	bne	a4,a5,.L81
	.loc 1 110 22 is_stmt 1
	li	a0,16
	call	motor_g_set_vibrate
.LVL79:
.L81:
	.loc 1 111 9
	.loc 1 111 11 is_stmt 0
	lw	a4,0(s0)
	li	a5,4
	.loc 1 111 22
	li	a0,20
	.loc 1 111 11
	beq	a4,a5,.L84
.L75:
.LBE124:
.LBE123:
	.loc 1 118 1
	lw	ra,12(sp)
	.cfi_remember_state
	.cfi_restore 1
	lw	s0,8(sp)
	.cfi_restore 8
	addi	sp,sp,16
	.cfi_def_cfa_offset 0
	jr	ra
.L76:
	.cfi_restore_state
	.loc 1 113 10 is_stmt 1 discriminator 1
	.loc 1 113 24 is_stmt 0 discriminator 1
	bne	a5,zero,.L77
	.loc 1 114 9 is_stmt 1
	lui	a5,%hi(.LANCHOR4)
	lbu	a0,%lo(.LANCHOR4)(a5)
.L84:
	.loc 1 118 1 is_stmt 0
	lw	s0,8(sp)
	.cfi_remember_state
	.cfi_restore 8
	lw	ra,12(sp)
	.cfi_restore 1
	addi	sp,sp,16
	.cfi_def_cfa_offset 0
	.loc 1 114 9
	tail	motor_g_set_vibrate
.LVL80:
.L77:
	.cfi_restore_state
	.loc 1 116 11 is_stmt 1
	li	a0,0
	call	motor_g_set_vibrate
.LVL81:
	.loc 1 116 34
	.loc 1 116 39 is_stmt 0
	lui	a5,%hi(.LANCHOR3)
	sw	zero,%lo(.LANCHOR3)(a5)
	.loc 1 116 42 is_stmt 1
	.loc 1 116 49 is_stmt 0
	lui	a5,%hi(.LANCHOR4)
	sw	zero,%lo(.LANCHOR4)(a5)
	.loc 1 118 1
	j	.L75
	.cfi_endproc
.LFE71:
	.size	mada_mode, .-mada_mode
	.section	.text.ble_light_task,"ax",@progbits
	.align	1
	.globl	ble_light_task
	.type	ble_light_task, @function
ble_light_task:
.LFB72:
	.loc 1 120 22 is_stmt 1
	.cfi_startproc
	.loc 1 121 4
	.loc 1 121 6 is_stmt 0
	lui	a5,%hi(.LANCHOR1)
	lbu	a5,%lo(.LANCHOR1)(a5)
	beq	a5,zero,.L85
	.loc 1 121 34 discriminator 1
	lui	a5,%hi(charge_status)
	.loc 1 121 17 discriminator 1
	lbu	a5,%lo(charge_status)(a5)
	bne	a5,zero,.L85
	.loc 1 122 4 is_stmt 1
	.loc 1 122 6 is_stmt 0
	lui	a5,%hi(.LANCHOR0)
	lbu	a5,%lo(.LANCHOR0)(a5)
	bne	a5,zero,.L87
	.loc 1 123 8 is_stmt 1
	li	a0,800
	tail	led_status_flash
.LVL82:
.L87:
.LBB127:
.LBB128:
	.loc 1 125 8
.LBE128:
.LBE127:
	.loc 1 120 22 is_stmt 0
	addi	sp,sp,-16
	.cfi_def_cfa_offset 16
.LBB134:
.LBB129:
	.loc 1 125 8
	li	a0,0
.LBE129:
.LBE134:
	.loc 1 120 22
	sw	ra,12(sp)
	.cfi_offset 1, -4
.LBB135:
.LBB130:
	.loc 1 125 8
	call	led_status_flash
.LVL83:
	.loc 1 126 8 is_stmt 1
.LBE130:
.LBE135:
	.loc 1 129 1 is_stmt 0
	lw	ra,12(sp)
	.cfi_restore 1
.LBB136:
.LBB131:
	.loc 1 126 8
	li	a1,0
.LBE131:
.LBE136:
	.loc 1 129 1
.LBB137:
.LBB132:
	.loc 1 126 8
	li	a0,0
.LBE132:
.LBE137:
	.loc 1 129 1
	addi	sp,sp,16
	.cfi_def_cfa_offset 0
.LBB138:
.LBB133:
	.loc 1 126 8
	tail	bl_gpio_output_set
.LVL84:
.L85:
	ret
.LBE133:
.LBE138:
	.cfi_endproc
.LFE72:
	.size	ble_light_task, .-ble_light_task
	.section	.text.adc_init,"ax",@progbits
	.align	1
	.globl	adc_init
	.type	adc_init, @function
adc_init:
.LFB74:
	.loc 1 167 16 is_stmt 1
	.cfi_startproc
	.loc 1 169 5
	.loc 1 169 10
.LBB139:
.LBB140:
	.loc 2 151 5
	.loc 2 151 31 is_stmt 0
	lui	a5,%hi(TrapNetCounter)
.LBE140:
.LBE139:
	.loc 1 169 10
	lw	a5,%lo(TrapNetCounter)(a5)
	.loc 1 167 16
	addi	sp,sp,-16
	.cfi_def_cfa_offset 16
	sw	ra,12(sp)
	.cfi_offset 1, -4
	.loc 1 169 10
	beq	a5,zero,.L94
	.loc 1 169 117 discriminator 1
	call	xTaskGetTickCountFromISR
.LVL85:
.L95:
	.loc 1 169 10 discriminator 4
	mv	a1,a0
	lui	a3,%hi(.LC3)
	lui	a2,%hi(.LC0)
	lui	a0,%hi(.LC7)
	addi	a3,a3,%lo(.LC3)
	addi	a2,a2,%lo(.LC0)
	addi	a0,a0,%lo(.LC7)
	li	a5,12
	li	a4,169
	call	bl_printk
.LVL86:
	.loc 1 172 5 is_stmt 1 discriminator 4
	.loc 1 173 1 is_stmt 0 discriminator 4
	lw	ra,12(sp)
	.cfi_remember_state
	.cfi_restore 1
	.loc 1 172 5 discriminator 4
	li	a3,12
	.loc 1 173 1 discriminator 4
	.loc 1 172 5 discriminator 4
	li	a2,512
	li	a1,100
	li	a0,0
	.loc 1 173 1 discriminator 4
	addi	sp,sp,16
	.cfi_def_cfa_offset 0
	.loc 1 172 5 discriminator 4
	tail	hal_adc_init
.LVL87:
.L94:
	.cfi_restore_state
	.loc 1 169 146 discriminator 2
	call	xTaskGetTickCount
.LVL88:
	j	.L95
	.cfi_endproc
.LFE74:
	.size	adc_init, .-adc_init
	.section	.text.get_battery,"ax",@progbits
	.align	1
	.globl	get_battery
	.type	get_battery, @function
get_battery:
.LFB75:
	.loc 1 176 1 is_stmt 1
	.cfi_startproc
	.loc 1 177 5
	.loc 1 178 5
	.loc 1 176 1 is_stmt 0
	addi	sp,sp,-16
	.cfi_def_cfa_offset 16
	.loc 1 178 12
	li	a1,1
	li	a0,12
	.loc 1 176 1
	sw	s0,8(sp)
	sw	s1,4(sp)
	sw	ra,12(sp)
	.cfi_offset 8, -8
	.cfi_offset 9, -12
	.cfi_offset 1, -4
	.loc 1 178 12
	call	hal_adc_get_data
.LVL89:
	.loc 1 178 10
	lui	a5,%hi(data)
	sw	a0,%lo(data)(a5)
	.loc 1 179 5 is_stmt 1
.LVL90:
	.loc 1 180 5
.LBB141:
.LBB142:
	.loc 1 48 5
.LBE142:
.LBE141:
	.loc 1 181 5
	.loc 1 181 7 is_stmt 0
	li	a4,1099
	mv	s1,a5
	.loc 1 181 26
	li	s0,1
	.loc 1 181 7
	ble	a0,a4,.L98
	.loc 1 182 5 is_stmt 1
	.loc 1 182 7 is_stmt 0
	li	a5,1300
	.loc 1 182 26
	li	s0,100
	.loc 1 182 7
	bgt	a0,a5,.L98
	.loc 1 179 12
	addi	a0,a0,-1100
.LVL91:
.LBB144:
.LBB143:
	.loc 1 48 25
	mul	s0,a0,s0
	.loc 1 48 47
	li	a0,200
.LVL92:
	div	s0,s0,a0
.L98:
.LVL93:
.LBE143:
.LBE144:
	.loc 1 183 5 is_stmt 1
	.loc 1 183 10
.LBB145:
.LBB146:
	.loc 2 151 5
	.loc 2 151 31 is_stmt 0
	lui	a5,%hi(TrapNetCounter)
.LBE146:
.LBE145:
	.loc 1 183 10
	lw	a5,%lo(TrapNetCounter)(a5)
	beq	a5,zero,.L99
	.loc 1 183 129 discriminator 1
	call	xTaskGetTickCountFromISR
.LVL94:
.L100:
	.loc 1 183 10 discriminator 4
	lw	a6,%lo(data)(s1)
	mv	a1,a0
	lui	a3,%hi(.LC3)
	lui	a2,%hi(.LC0)
	lui	a0,%hi(.LC8)
	mv	a7,s0
	addi	a0,a0,%lo(.LC8)
	li	a5,12
	li	a4,183
	addi	a3,a3,%lo(.LC3)
	addi	a2,a2,%lo(.LC0)
	call	bl_printk
.LVL95:
	.loc 1 184 5 is_stmt 1 discriminator 4
	.loc 1 185 1 is_stmt 0 discriminator 4
	mv	a0,s0
	lw	ra,12(sp)
	.cfi_remember_state
	.cfi_restore 1
	lw	s0,8(sp)
	.cfi_restore 8
.LVL96:
	lw	s1,4(sp)
	.cfi_restore 9
	addi	sp,sp,16
	.cfi_def_cfa_offset 0
	jr	ra
.LVL97:
.L99:
	.cfi_restore_state
	.loc 1 183 158 discriminator 2
	call	xTaskGetTickCount
.LVL98:
	j	.L100
	.cfi_endproc
.LFE75:
	.size	get_battery, .-get_battery
	.section	.text.ble_reve_cb,"ax",@progbits
	.align	1
	.type	ble_reve_cb, @function
ble_reve_cb:
.LFB77:
	.loc 1 225 74 is_stmt 1
	.cfi_startproc
.LVL99:
	.loc 1 228 5
	.loc 1 225 74 is_stmt 0
	addi	sp,sp,-144
	.cfi_def_cfa_offset 144
	sw	s2,128(sp)
	sw	s4,120(sp)
	sw	s6,112(sp)
	.cfi_offset 18, -16
	.cfi_offset 20, -24
	.cfi_offset 22, -32
	mv	s2,a0
	mv	s4,a1
	mv	s6,a2
	.loc 1 228 10
	li	a1,0
.LVL100:
	li	a2,26
.LVL101:
	addi	a0,sp,68
.LVL102:
	.loc 1 225 74
	sw	ra,140(sp)
	sw	s0,136(sp)
	sw	s1,132(sp)
	sw	s3,124(sp)
	sw	s5,116(sp)
	sw	s7,108(sp)
	sw	s8,104(sp)
	.cfi_offset 1, -4
	.cfi_offset 8, -8
	.cfi_offset 9, -12
	.cfi_offset 19, -20
	.cfi_offset 21, -28
	.cfi_offset 23, -36
	.cfi_offset 24, -40
	.loc 1 228 10
	sw	zero,64(sp)
	call	memset
.LVL103:
	.loc 1 229 5 is_stmt 1
	.loc 1 230 10 is_stmt 0
	li	a5,20480
	addi	a5,a5,-1201
	.loc 1 232 34
	addi	a0,sp,24
	.loc 1 230 10
	sw	a5,24(sp)
	.loc 1 229 10
	sw	zero,8(sp)
	sw	zero,12(sp)
	sw	zero,16(sp)
	sh	zero,20(sp)
	sb	zero,22(sp)
	.loc 1 230 5 is_stmt 1
	.loc 1 230 10 is_stmt 0
	sw	zero,28(sp)
	sw	zero,32(sp)
	sw	zero,36(sp)
	sw	zero,40(sp)
	.loc 1 232 5 is_stmt 1
	.loc 1 232 34 is_stmt 0
	call	strlen
.LVL104:
	.loc 1 232 5
	slli	a2,a0,16
	addi	a1,sp,24
	mv	a0,s2
	srli	a2,a2,16
	call	do_ble_notify
.LVL105:
	.loc 1 233 5 is_stmt 1
	.loc 1 233 16 is_stmt 0
	li	a1,59
	mv	a0,s4
	call	strchr
.LVL106:
	.loc 1 234 5 is_stmt 1
	.loc 1 234 7 is_stmt 0
	beq	a0,zero,.L104
	.loc 1 237 9 is_stmt 1
	.loc 1 237 13 is_stmt 0
	sb	zero,0(a0)
	.loc 1 239 5 is_stmt 1
	.loc 1 239 10
.LBB147:
.LBB148:
	.loc 2 151 5
	.loc 2 151 31 is_stmt 0
	lui	s1,%hi(TrapNetCounter)
.LBE148:
.LBE147:
	.loc 1 239 10
	lw	a5,%lo(TrapNetCounter)(s1)
	beq	a5,zero,.L107
	.loc 1 239 104 discriminator 1
	call	xTaskGetTickCountFromISR
.LVL107:
.L108:
	.loc 1 239 10 discriminator 4
	mv	a1,a0
	lui	s0,%hi(.LC0)
	lui	a0,%hi(.LC9)
	mv	a3,s4
	addi	a2,s0,%lo(.LC0)
	addi	a0,a0,%lo(.LC9)
	call	bl_printk
.LVL108:
	.loc 1 240 5 is_stmt 1 discriminator 4
	.loc 1 240 15 is_stmt 0 discriminator 4
	li	a1,58
	mv	a0,s4
	call	strchr
.LVL109:
	mv	s7,a0
.LVL110:
	.loc 1 242 5 is_stmt 1 discriminator 4
	addi	s3,sp,8
	.loc 1 242 7 is_stmt 0 discriminator 4
	beq	a0,zero,.L109
	.loc 1 243 9 is_stmt 1
	.loc 1 243 28 is_stmt 0
	sub	s5,a0,s4
	.loc 1 243 9
	mv	a2,s5
	mv	a1,s4
	addi	a0,sp,64
.LVL111:
	call	strncpy
.LVL112:
	.loc 1 244 9 is_stmt 1
	.loc 1 244 31 is_stmt 0
	sub	a2,s6,s5
	.loc 1 244 9
	addi	a2,a2,-2
	addi	a1,s7,1
	mv	a0,s3
	call	strncpy
.LVL113:
.L110:
	.loc 1 249 5 is_stmt 1
	.loc 1 249 10
.LBB149:
.LBB150:
	.loc 2 151 5
.LBE150:
.LBE149:
	.loc 1 249 10 is_stmt 0
	lw	a5,%lo(TrapNetCounter)(s1)
	beq	a5,zero,.L111
	.loc 1 249 105 discriminator 1
	call	xTaskGetTickCountFromISR
.LVL114:
.L112:
	.loc 1 249 10 discriminator 4
	mv	a1,a0
	lui	a0,%hi(.LC10)
	addi	a0,a0,%lo(.LC10)
	mv	a4,s3
	addi	a3,sp,64
	addi	a2,s0,%lo(.LC0)
	call	bl_printk
.LVL115:
	.loc 1 251 5 is_stmt 1 discriminator 4
	.loc 1 251 9 is_stmt 0 discriminator 4
	lui	a1,%hi(.LC11)
	addi	a1,a1,%lo(.LC11)
	addi	a0,sp,64
	call	strcmp
.LVL116:
	.loc 1 251 7 discriminator 4
	bne	a0,zero,.L113
	.loc 1 252 9 is_stmt 1
	.loc 1 252 14
.LBB151:
.LBB152:
	.loc 2 151 5
.LBE152:
.LBE151:
	.loc 1 252 14 is_stmt 0
	lw	a5,%lo(TrapNetCounter)(s1)
	beq	a5,zero,.L114
	.loc 1 252 102 discriminator 1
	call	xTaskGetTickCountFromISR
.LVL117:
.L115:
	.loc 1 252 14 discriminator 4
	mv	a1,a0
	lui	a0,%hi(.LC12)
	addi	a2,s0,%lo(.LC0)
	addi	a0,a0,%lo(.LC12)
	call	bl_printk
.LVL118:
	.loc 1 253 9 is_stmt 1 discriminator 4
.L143:
.LBB153:
	.loc 1 270 9
	.loc 1 270 38 is_stmt 0
	addi	a0,sp,24
	call	strlen
.LVL119:
	.loc 1 270 9
	slli	a2,a0,16
	srli	a2,a2,16
	addi	a1,sp,24
.L144:
	mv	a0,s2
	call	do_ble_notify
.LVL120:
.LBE153:
	j	.L116
.LVL121:
.L107:
	.loc 1 239 133 discriminator 2
	call	xTaskGetTickCount
.LVL122:
	j	.L108
.LVL123:
.L109:
	.loc 1 246 9 is_stmt 1
	mv	a1,s4
	addi	a0,sp,64
.LVL124:
	call	strcpy
.LVL125:
	.loc 1 247 9
	.loc 1 247 20 is_stmt 0
	addi	a5,sp,96
	add	a5,a5,s6
	sb	zero,-33(a5)
	j	.L110
.L111:
	.loc 1 249 134 discriminator 2
	call	xTaskGetTickCount
.LVL126:
	j	.L112
.L114:
	.loc 1 252 131 discriminator 2
	call	xTaskGetTickCount
.LVL127:
	j	.L115
.L113:
	.loc 1 254 11 is_stmt 1
	.loc 1 254 15 is_stmt 0
	lui	a1,%hi(.LC13)
	addi	a1,a1,%lo(.LC13)
	addi	a0,sp,64
	call	strcmp
.LVL128:
	.loc 1 254 13
	bne	a0,zero,.L117
	.loc 1 255 9 is_stmt 1
	.loc 1 255 14
.LBB155:
.LBB156:
	.loc 2 151 5
.LBE156:
.LBE155:
	.loc 1 255 14 is_stmt 0
	lw	a5,%lo(TrapNetCounter)(s1)
	beq	a5,zero,.L118
	.loc 1 255 103 discriminator 1
	call	xTaskGetTickCountFromISR
.LVL129:
.L119:
	.loc 1 255 14 discriminator 4
	mv	a1,a0
	lui	a0,%hi(.LC14)
	addi	a2,s0,%lo(.LC0)
	addi	a0,a0,%lo(.LC14)
	call	bl_printk
.LVL130:
	.loc 1 256 9 is_stmt 1 discriminator 4
	.loc 1 256 19 is_stmt 0 discriminator 4
	mv	a0,s3
	call	atoi
.LVL131:
	.loc 1 256 17 discriminator 4
	lui	a5,%hi(.LANCHOR4)
	sw	a0,%lo(.LANCHOR4)(a5)
	.loc 1 257 9 is_stmt 1 discriminator 4
	.loc 1 257 20 is_stmt 0 discriminator 4
	lui	a5,%hi(.LANCHOR2)
	sw	a0,%lo(.LANCHOR2)(a5)
.LVL132:
.L116:
	.loc 1 313 5 is_stmt 1 discriminator 3
	li	a0,100
	call	vTaskDelay
.LVL133:
	.loc 1 314 5 discriminator 3
	.loc 1 314 34 is_stmt 0 discriminator 3
	addi	a0,sp,24
	call	strlen
.LVL134:
	.loc 1 314 5 discriminator 3
	slli	a2,a0,16
	srli	a2,a2,16
	addi	a1,sp,24
	mv	a0,s2
	call	do_ble_notify
.LVL135:
.L104:
	.loc 1 315 1
	lw	ra,140(sp)
	.cfi_remember_state
	.cfi_restore 1
	lw	s0,136(sp)
	.cfi_restore 8
	lw	s1,132(sp)
	.cfi_restore 9
	lw	s2,128(sp)
	.cfi_restore 18
.LVL136:
	lw	s3,124(sp)
	.cfi_restore 19
	lw	s4,120(sp)
	.cfi_restore 20
	lw	s5,116(sp)
	.cfi_restore 21
	lw	s6,112(sp)
	.cfi_restore 22
	lw	s7,108(sp)
	.cfi_restore 23
	lw	s8,104(sp)
	.cfi_restore 24
	addi	sp,sp,144
	.cfi_def_cfa_offset 0
	jr	ra
.LVL137:
.L118:
	.cfi_restore_state
	.loc 1 255 132 discriminator 2
	call	xTaskGetTickCount
.LVL138:
	j	.L119
.L117:
	.loc 1 259 11 is_stmt 1
	.loc 1 259 15 is_stmt 0
	lui	a1,%hi(.LC15)
	addi	a1,a1,%lo(.LC15)
	addi	a0,sp,64
	call	strcmp
.LVL139:
	.loc 1 259 13
	bne	a0,zero,.L120
.LBB157:
	.loc 1 261 9 is_stmt 1
	.loc 1 261 25 is_stmt 0
	call	get_battery
.LVL140:
	.loc 1 262 9 is_stmt 1
	.loc 1 262 11 is_stmt 0
	li	a5,100
	bne	a0,a5,.L121
	.loc 1 262 27 is_stmt 1 discriminator 1
	.loc 1 262 42 discriminator 1
	.loc 1 262 57 discriminator 1
	.loc 1 262 37 is_stmt 0 discriminator 1
	li	a5,12288
	addi	a5,a5,49
	sh	a5,24(sp)
	.loc 1 262 67 discriminator 1
	li	a5,48
	sb	a5,26(sp)
.LVL141:
.L122:
	.loc 1 269 9 is_stmt 1
	.loc 1 269 19 is_stmt 0
	li	a5,59
	sb	a5,27(sp)
	j	.L143
.LVL142:
.L121:
.LBB154:
	.loc 1 264 9 is_stmt 1
	.loc 1 264 36
	.loc 1 265 9
	.loc 1 265 19 is_stmt 0
	li	a5,48
	.loc 1 264 31
	li	a4,10
	.loc 1 265 19
	sb	a5,24(sp)
	.loc 1 266 9 is_stmt 1
	.loc 1 264 31 is_stmt 0
	div	a5,a0,a4
	.loc 1 264 57
	rem	a0,a0,a4
.LVL143:
	.loc 1 266 26
	addi	a5,a5,48
	.loc 1 266 19
	sb	a5,25(sp)
	.loc 1 267 9 is_stmt 1
	.loc 1 267 25 is_stmt 0
	addi	a0,a0,48
	.loc 1 267 19
	sb	a0,26(sp)
	j	.L122
.L120:
.LBE154:
.LBE157:
	.loc 1 272 11 is_stmt 1
	.loc 1 272 15 is_stmt 0
	lui	a1,%hi(.LC16)
	addi	a1,a1,%lo(.LC16)
	addi	a0,sp,64
	call	strcmp
.LVL144:
	.loc 1 272 13
	bne	a0,zero,.L123
	.loc 1 273 9 is_stmt 1
	.loc 1 273 11 is_stmt 0
	lbu	s0,8(sp)
	li	a5,111
	bne	s0,a5,.L116
	.loc 1 273 24 discriminator 1
	lbu	a4,9(sp)
	li	a5,110
	bne	a4,a5,.L125
	.loc 1 274 9 is_stmt 1
	.loc 1 274 19 is_stmt 0
	lui	a5,%hi(.LANCHOR1)
	li	a4,1
	sb	a4,%lo(.LANCHOR1)(a5)
	.loc 1 275 9 is_stmt 1
	.loc 1 275 11 is_stmt 0
	lui	a5,%hi(.LANCHOR0)
	lbu	a5,%lo(.LANCHOR0)(a5)
	beq	a5,zero,.L116
	.loc 1 275 25 is_stmt 1 discriminator 1
	li	a1,0
	call	bl_gpio_output_set
.LVL145:
	.loc 1 277 9 discriminator 1
	.loc 1 277 11 is_stmt 0 discriminator 1
	lbu	a5,8(sp)
	bne	a5,s0,.L116
.L125:
	.loc 1 277 9 is_stmt 1
	.loc 1 277 24 is_stmt 0
	lbu	a5,9(sp)
	li	a4,102
	bne	a5,a4,.L116
	.loc 1 277 38 discriminator 2
	lbu	a4,10(sp)
	bne	a4,a5,.L116
	.loc 1 278 9 is_stmt 1
	.loc 1 278 19 is_stmt 0
	lui	a5,%hi(.LANCHOR1)
	sb	zero,%lo(.LANCHOR1)(a5)
	j	.L116
.L123:
	.loc 1 280 11 is_stmt 1
	.loc 1 280 15 is_stmt 0
	lui	a1,%hi(.LC17)
	addi	a1,a1,%lo(.LC17)
	addi	a0,sp,64
	call	strcmp
.LVL146:
	.loc 1 280 13
	bne	a0,zero,.L127
	.loc 1 281 9 is_stmt 1
	call	sleep_start
.LVL147:
	j	.L116
.L127:
	.loc 1 283 10
	.loc 1 283 14 is_stmt 0
	lui	a1,%hi(.LC18)
	addi	a1,a1,%lo(.LC18)
	addi	a0,sp,64
	call	strcmp
.LVL148:
	.loc 1 283 12
	bne	a0,zero,.L128
.LBB158:
	.loc 1 284 5 is_stmt 1
	.loc 1 284 10
.LBB159:
.LBB160:
	.loc 2 151 5
.LBE160:
.LBE159:
	.loc 1 284 10 is_stmt 0
	lw	a5,%lo(TrapNetCounter)(s1)
	beq	a5,zero,.L129
	.loc 1 284 91 discriminator 1
	call	xTaskGetTickCountFromISR
.LVL149:
.L130:
	.loc 1 284 10 discriminator 4
	mv	a1,a0
	lui	a0,%hi(.LC19)
	addi	a2,s0,%lo(.LC0)
	addi	a0,a0,%lo(.LC19)
	call	bl_printk
.LVL150:
	.loc 1 285 5 is_stmt 1 discriminator 4
	.loc 1 285 13 is_stmt 0 discriminator 4
	li	a4,1
	lui	a5,%hi(.LANCHOR6)
	sb	a4,%lo(.LANCHOR6)(a5)
	.loc 1 286 5 is_stmt 1 discriminator 4
	call	flash_storage_init
.LVL151:
	.loc 1 287 5 discriminator 4
	lui	a0,%hi(wifi_event_handler)
	addi	a0,a0,%lo(wifi_event_handler)
	call	wifi_init
.LVL152:
	.loc 1 288 5 discriminator 4
	li	a0,500
	call	vTaskDelay
.LVL153:
	.loc 1 289 5 discriminator 4
	call	wifi_setup_sta
.LVL154:
	.loc 1 290 5 discriminator 4
	.loc 1 290 15 is_stmt 0 discriminator 4
	call	hal_timer_now_s
.LVL155:
	.loc 1 290 13 discriminator 4
	lui	a5,%hi(.LANCHOR8)
	.loc 1 291 10 discriminator 4
	lui	a1,%hi(.LANCHOR9)
	.loc 1 290 13 discriminator 4
	sw	a0,%lo(.LANCHOR8)(a5)
	.loc 1 291 5 is_stmt 1 discriminator 4
	.loc 1 291 10 is_stmt 0 discriminator 4
	li	a2,10
	addi	a1,a1,%lo(.LANCHOR9)
	addi	a0,sp,44
	call	memcpy
.LVL156:
	.loc 1 292 34 discriminator 4
	addi	a0,sp,44
	.loc 1 291 10 discriminator 4
	sh	zero,54(sp)
	sh	zero,56(sp)
	sh	zero,58(sp)
	sh	zero,60(sp)
	sh	zero,62(sp)
	.loc 1 292 5 is_stmt 1 discriminator 4
	.loc 1 292 34 is_stmt 0 discriminator 4
	call	strlen
.LVL157:
	.loc 1 292 5 discriminator 4
	slli	a2,a0,16
	srli	a2,a2,16
	addi	a1,sp,44
	j	.L144
.L129:
	.loc 1 284 120 discriminator 2
	call	xTaskGetTickCount
.LVL158:
	j	.L130
.L128:
.LBE158:
	.loc 1 294 11 is_stmt 1
	.loc 1 294 15 is_stmt 0
	lui	a1,%hi(.LC21)
	addi	a1,a1,%lo(.LC21)
	addi	a0,sp,64
	call	strcmp
.LVL159:
	.loc 1 294 13
	bne	a0,zero,.L116
.LBB161:
	.loc 1 295 5 is_stmt 1
	.loc 1 295 10
.LBB162:
.LBB163:
	.loc 2 151 5
.LBE163:
.LBE162:
	.loc 1 295 10 is_stmt 0
	lw	a5,%lo(TrapNetCounter)(s1)
	beq	a5,zero,.L131
	.loc 1 295 97 discriminator 1
	call	xTaskGetTickCountFromISR
.LVL160:
.L132:
	.loc 1 295 10 discriminator 4
	mv	a1,a0
	lui	a0,%hi(.LC22)
	addi	a2,s0,%lo(.LC0)
	addi	a0,a0,%lo(.LC22)
	call	bl_printk
.LVL161:
	.loc 1 296 5 is_stmt 1 discriminator 4
	.loc 1 296 30 is_stmt 0 discriminator 4
	call	flash_get_user_ssid_config
.LVL162:
	mv	s4,a0
.LVL163:
	.loc 1 297 5 is_stmt 1 discriminator 4
	li	a2,64
	li	a1,0
	call	memset
.LVL164:
	.loc 1 298 5 discriminator 4
	.loc 1 298 21 is_stmt 0 discriminator 4
	addi	s5,s4,64
	.loc 1 298 5 discriminator 4
	li	a2,64
	li	a1,0
	mv	a0,s5
	call	memset
.LVL165:
	.loc 1 299 5 is_stmt 1 discriminator 4
	call	flash_ssid_config_write
.LVL166:
	.loc 1 300 5 discriminator 4
	.loc 1 300 15 is_stmt 0 discriminator 4
	li	a1,44
	mv	a0,s3
	call	strchr
.LVL167:
	mv	s7,a0
.LVL168:
	.loc 1 301 7 is_stmt 1 discriminator 4
	.loc 1 301 9 is_stmt 0 discriminator 4
	beq	a0,zero,.L116
.LBB164:
	.loc 1 302 9 is_stmt 1
	.loc 1 302 41 is_stmt 0
	sub	s8,a0,s3
	.loc 1 302 9
	mv	a2,s8
	mv	a1,s3
	mv	a0,s4
.LVL169:
	call	strncpy
.LVL170:
	.loc 1 303 9 is_stmt 1
	.loc 1 303 46 is_stmt 0
	sub	a2,s6,s8
	.loc 1 303 9
	addi	a2,a2,-2
	addi	a1,s7,1
	mv	a0,s5
	call	strncpy
.LVL171:
	.loc 1 304 9 is_stmt 1
	call	flash_ssid_config_write
.LVL172:
	.loc 1 305 9
	.loc 1 305 14 is_stmt 0
	lui	a1,%hi(.LANCHOR9+20)
	li	a2,9
	addi	a1,a1,%lo(.LANCHOR9+20)
	addi	a0,sp,44
	call	memcpy
.LVL173:
	li	a2,11
	li	a1,0
	addi	a0,sp,53
	call	memset
.LVL174:
	.loc 1 306 9 is_stmt 1
	.loc 1 306 34 is_stmt 0
	addi	a0,sp,44
	call	strlen
.LVL175:
	.loc 1 306 9
	slli	a2,a0,16
	srli	a2,a2,16
	addi	a1,sp,44
	mv	a0,s2
	call	do_ble_notify
.LVL176:
	.loc 1 307 9 is_stmt 1
	.loc 1 307 46 is_stmt 0
	mv	a0,s4
	call	strlen
.LVL177:
	.loc 1 307 9
	slli	a2,a0,16
	srli	a2,a2,16
	mv	a1,s4
	mv	a0,s2
	call	do_ble_notify
.LVL178:
	.loc 1 308 9 is_stmt 1
	.loc 1 308 50 is_stmt 0
	mv	a0,s5
	call	strlen
.LVL179:
	.loc 1 308 9
	slli	a2,a0,16
	srli	a2,a2,16
	mv	a1,s5
	mv	a0,s2
	call	do_ble_notify
.LVL180:
	.loc 1 310 5 is_stmt 1
	.loc 1 310 10
.LBB165:
.LBB166:
	.loc 2 151 5
.LBE166:
.LBE165:
	.loc 1 310 10 is_stmt 0
	lw	a5,%lo(TrapNetCounter)(s1)
	beq	a5,zero,.L133
	.loc 1 310 114 discriminator 1
	call	xTaskGetTickCountFromISR
.LVL181:
.L134:
	.loc 1 310 10 discriminator 4
	mv	a1,a0
	lui	a0,%hi(.LC24)
	mv	a4,s5
	mv	a3,s4
	addi	a2,s0,%lo(.LC0)
	addi	a0,a0,%lo(.LC24)
	call	bl_printk
.LVL182:
	j	.L116
.LVL183:
.L131:
.LBE164:
	.loc 1 295 126 discriminator 2
	call	xTaskGetTickCount
.LVL184:
	j	.L132
.LVL185:
.L133:
.LBB167:
	.loc 1 310 143 discriminator 2
	call	xTaskGetTickCount
.LVL186:
	j	.L134
.LBE167:
.LBE161:
	.cfi_endproc
.LFE77:
	.size	ble_reve_cb, .-ble_reve_cb
	.section	.text.charge_detect,"ax",@progbits
	.align	1
	.globl	charge_detect
	.type	charge_detect, @function
charge_detect:
.LFB76:
	.loc 1 188 5 is_stmt 1
	.cfi_startproc
	.loc 1 191 2
	.loc 1 188 5 is_stmt 0
	addi	sp,sp,-16
	.cfi_def_cfa_offset 16
	.loc 1 191 5
	li	a0,1
	.loc 1 188 5
	sw	s0,8(sp)
	sw	s1,4(sp)
	sw	ra,12(sp)
	.cfi_offset 8, -8
	.cfi_offset 9, -12
	.cfi_offset 1, -4
	lui	s0,%hi(.LANCHOR10)
	.loc 1 191 5
	call	bl_gpio_input_get_value
.LVL187:
	lui	s1,%hi(.LANCHOR11)
	lui	a5,%hi(charge_status)
	addi	s0,s0,%lo(.LANCHOR10)
	addi	s1,s1,%lo(.LANCHOR11)
	.loc 1 191 4
	beq	a0,zero,.L146
	.loc 1 193 3 is_stmt 1
	.loc 1 193 10 is_stmt 0
	lui	a4,%hi(data)
	.loc 1 193 5
	lw	a3,%lo(data)(a4)
	li	a4,1300
	ble	a3,a4,.L147
	.loc 1 195 7 is_stmt 1
	.loc 1 195 21 is_stmt 0
	li	a4,2
	sb	a4,%lo(charge_status)(a5)
	.loc 1 196 13 is_stmt 1
	.loc 1 197 13 is_stmt 0
	li	a1,0
	.loc 1 196 24
	li	a5,1
	.loc 1 197 13
	li	a0,20
	.loc 1 196 24
	sb	a5,0(s0)
	.loc 1 197 13 is_stmt 1
	call	bl_gpio_output_set
.LVL188:
	.loc 1 198 13
	.loc 1 198 18
.LBB176:
.LBB177:
	.loc 2 151 5
	.loc 2 151 31 is_stmt 0
	lui	a5,%hi(TrapNetCounter)
.LBE177:
.LBE176:
	.loc 1 198 18
	lw	a5,%lo(TrapNetCounter)(a5)
	beq	a5,zero,.L148
	.loc 1 198 118 discriminator 1
	call	xTaskGetTickCountFromISR
.LVL189:
.L149:
	.loc 1 198 18 discriminator 4
	mv	a1,a0
	lui	a3,%hi(.LC3)
	lui	a2,%hi(.LC0)
	lui	a0,%hi(.LC25)
	li	a4,198
	addi	a3,a3,%lo(.LC3)
	addi	a2,a2,%lo(.LC0)
	addi	a0,a0,%lo(.LC25)
	call	bl_printk
.LVL190:
	.loc 1 215 5 is_stmt 1 discriminator 4
	.loc 1 215 7 is_stmt 0 discriminator 4
	lbu	a5,0(s1)
	beq	a5,zero,.L145
.L150:
.LBB178:
.LBB179:
	.loc 1 215 22
	lbu	a5,0(s0)
	beq	a5,zero,.L145
	.loc 1 216 9 is_stmt 1
	.loc 1 216 14
.LBB180:
.LBB181:
	.loc 2 151 5
	.loc 2 151 31 is_stmt 0
	lui	a5,%hi(TrapNetCounter)
.LBE181:
.LBE180:
	.loc 1 216 14
	lw	a5,%lo(TrapNetCounter)(a5)
	beq	a5,zero,.L153
	.loc 1 216 129
	call	xTaskGetTickCountFromISR
.LVL191:
.L154:
	.loc 1 216 14
	mv	a1,a0
	lui	a3,%hi(.LC3)
	lui	a2,%hi(.LC0)
	lui	a0,%hi(.LC26)
	li	a4,216
	addi	a3,a3,%lo(.LC3)
	addi	a2,a2,%lo(.LC0)
	addi	a0,a0,%lo(.LC26)
	call	bl_printk
.LVL192:
	.loc 1 217 9 is_stmt 1
	lui	a0,%hi(.LANCHOR7)
	li	a1,1
	addi	a0,a0,%lo(.LANCHOR7)
	call	hal_hbn_init
.LVL193:
	.loc 1 218 9
.LBE179:
.LBE178:
	.loc 1 220 5 is_stmt 0
	lw	s0,8(sp)
	.cfi_remember_state
	.cfi_restore 8
	lw	ra,12(sp)
	.cfi_restore 1
	lw	s1,4(sp)
	.cfi_restore 9
.LBB185:
.LBB182:
	.loc 1 218 9
	li	a0,0
.LBE182:
.LBE185:
	.loc 1 220 5
	addi	sp,sp,16
	.cfi_def_cfa_offset 0
.LBB186:
.LBB183:
	.loc 1 218 9
	tail	hal_hbn_enter
.LVL194:
.L148:
	.cfi_restore_state
.LBE183:
.LBE186:
	.loc 1 198 147 discriminator 2
	call	xTaskGetTickCount
.LVL195:
	j	.L149
.L147:
	.loc 1 202 7 is_stmt 1
	.loc 1 202 21 is_stmt 0
	li	a4,1
	sb	a4,%lo(charge_status)(a5)
	.loc 1 203 13 is_stmt 1
	.loc 1 203 28 is_stmt 0
	sb	zero,0(s1)
	.loc 1 204 13 is_stmt 1
	.loc 1 204 24 is_stmt 0
	sb	a4,0(s0)
	.loc 1 215 5 is_stmt 1
.L145:
	.loc 1 220 5 is_stmt 0
	lw	ra,12(sp)
	.cfi_remember_state
	.cfi_restore 1
	lw	s0,8(sp)
	.cfi_restore 8
	lw	s1,4(sp)
	.cfi_restore 9
	addi	sp,sp,16
	.cfi_def_cfa_offset 0
	jr	ra
.L146:
	.cfi_restore_state
	.loc 1 210 6 is_stmt 1
	.loc 1 210 20 is_stmt 0
	sb	zero,%lo(charge_status)(a5)
	.loc 1 211 9 is_stmt 1
	.loc 1 211 23 is_stmt 0
	li	a5,1
	sb	a5,0(s1)
	.loc 1 215 5 is_stmt 1
	j	.L150
.L153:
.LBB187:
.LBB184:
	.loc 1 216 158 is_stmt 0
	call	xTaskGetTickCount
.LVL196:
	j	.L154
.LBE184:
.LBE187:
	.cfi_endproc
.LFE76:
	.size	charge_detect, .-charge_detect
	.section	.text.main_task,"ax",@progbits
	.align	1
	.globl	main_task
	.type	main_task, @function
main_task:
.LFB79:
	.loc 1 339 26 is_stmt 1
	.cfi_startproc
.LVL197:
	.loc 1 341 1
	.loc 1 341 6
.LBB188:
.LBB189:
	.loc 2 151 5
	.loc 2 151 31 is_stmt 0
	lui	a5,%hi(TrapNetCounter)
.LBE189:
.LBE188:
	.loc 1 341 6
	lw	a5,%lo(TrapNetCounter)(a5)
	.loc 1 339 26
	addi	sp,sp,-16
	.cfi_def_cfa_offset 16
	sw	ra,12(sp)
	.cfi_offset 1, -4
	.loc 1 341 6
	beq	a5,zero,.L160
	.loc 1 341 106 discriminator 1
	call	xTaskGetTickCountFromISR
.LVL198:
.L161:
	.loc 1 341 6 discriminator 4
	lui	a3,%hi(.LC3)
	lui	a2,%hi(.LC0)
	mv	a1,a0
	lui	a0,%hi(.LC27)
	li	a4,341
	addi	a3,a3,%lo(.LC3)
	addi	a2,a2,%lo(.LC0)
	addi	a0,a0,%lo(.LC27)
	call	bl_printk
.LVL199:
.L162:
	.loc 1 346 5 is_stmt 1 discriminator 1
	.loc 1 348 9 discriminator 1
	call	charge_detect
.LVL200:
	.loc 1 349 9 discriminator 1
	call	ble_light_task
.LVL201:
	.loc 1 350 9 discriminator 1
	call	mada_mode
.LVL202:
	.loc 1 352 9 discriminator 1
	li	a0,1000
	call	vTaskDelay
.LVL203:
	j	.L162
.LVL204:
.L160:
	.loc 1 341 135 is_stmt 0 discriminator 2
	call	xTaskGetTickCount
.LVL205:
	j	.L161
	.cfi_endproc
.LFE79:
	.size	main_task, .-main_task
	.section	.text.user_main,"ax",@progbits
	.align	1
	.globl	user_main
	.type	user_main, @function
user_main:
.LFB80:
	.loc 1 358 21 is_stmt 1
	.cfi_startproc
	.loc 1 360 5
	.loc 1 358 21 is_stmt 0
	addi	sp,sp,-16
	.cfi_def_cfa_offset 16
	sw	ra,12(sp)
	sw	s0,8(sp)
	sw	s1,4(sp)
	sw	s2,0(sp)
	.cfi_offset 1, -4
	.cfi_offset 8, -8
	.cfi_offset 9, -12
	.cfi_offset 18, -16
	.loc 1 360 5
	call	ukey_init
.LVL206:
	.loc 1 361 5 is_stmt 1
	lui	a1,%hi(key_event_cb)
	addi	a1,a1,%lo(key_event_cb)
	li	a0,7
	call	ukey_add
.LVL207:
	.loc 1 362 5
	call	product_init
.LVL208:
	.loc 1 363 5
	li	a0,800
	call	led_status_flash
.LVL209:
	.loc 1 364 5
	.loc 1 364 15 is_stmt 0
	call	hal_timer_now_ms
.LVL210:
	mv	s0,a0
.LVL211:
	.loc 1 365 5 is_stmt 1
	.loc 1 365 29 is_stmt 0
	srai	s2,a0,31
	.loc 1 365 10
	li	s1,199
.L165:
	.loc 1 365 11 discriminator 1
	call	hal_timer_now_ms
.LVL212:
	.loc 1 365 29 discriminator 1
	sub	a5,a0,s0
	sgtu	a0,a5,a0
	sub	a1,a1,s2
	sub	a1,a1,a0
	.loc 1 365 10 discriminator 1
	bgt	a1,zero,.L179
	bne	a1,zero,.L166
	bleu	a5,s1,.L166
.L179:
	.loc 1 366 5 is_stmt 1
	li	a1,1
	li	a0,4
	call	bl_gpio_output_set
.LVL213:
	.loc 1 366 30
	li	a0,0
	call	motor_g_set_vibrate
.LVL214:
	.loc 1 369 5
	.loc 1 369 10
.LBB190:
.LBB191:
	.loc 2 151 5
	.loc 2 151 31 is_stmt 0
	lui	s1,%hi(TrapNetCounter)
.LBE191:
.LBE190:
	.loc 1 369 10
	lw	a5,%lo(TrapNetCounter)(s1)
	beq	a5,zero,.L168
	.loc 1 369 103 discriminator 1
	call	xTaskGetTickCountFromISR
.LVL215:
.L169:
	.loc 1 369 10 discriminator 4
	mv	a1,a0
	lui	s0,%hi(.LC0)
.LVL216:
	lui	a0,%hi(.LC28)
	addi	a2,s0,%lo(.LC0)
	addi	a0,a0,%lo(.LC28)
	call	bl_printk
.LVL217:
	.loc 1 372 5 is_stmt 1 discriminator 4
	call	do_ble_init
.LVL218:
	.loc 1 374 5 discriminator 4
	lui	a0,%hi(ble_reve_cb)
	addi	a0,a0,%lo(ble_reve_cb)
	call	do_ble_set_reve_cb
.LVL219:
	.loc 1 375 5 discriminator 4
	lui	a0,%hi(ble_connect_cb)
	addi	a0,a0,%lo(ble_connect_cb)
	call	do_ble_set_connect_cb
.LVL220:
	.loc 1 377 5 discriminator 4
	call	adc_init
.LVL221:
	.loc 1 380 5 discriminator 4
	.loc 1 380 9 is_stmt 0 discriminator 4
	lui	a1,%hi(.LC29)
	lui	a0,%hi(main_task)
	li	a5,0
	li	a4,6
	li	a3,0
	li	a2,512
	addi	a1,a1,%lo(.LC29)
	addi	a0,a0,%lo(main_task)
	call	xTaskCreate
.LVL222:
	.loc 1 380 8 discriminator 4
	li	a5,1
	beq	a0,a5,.L170
	.loc 1 381 9 is_stmt 1
	.loc 1 381 14
.LBB192:
.LBB193:
	.loc 2 151 5
.LBE193:
.LBE192:
	.loc 1 381 14 is_stmt 0
	lw	a5,%lo(TrapNetCounter)(s1)
	beq	a5,zero,.L171
	.loc 1 381 121 discriminator 1
	call	xTaskGetTickCountFromISR
.LVL223:
.L172:
	.loc 1 381 14 discriminator 4
	mv	a1,a0
	lui	a0,%hi(.LC30)
	addi	a2,s0,%lo(.LC0)
	addi	a0,a0,%lo(.LC30)
	call	bl_printk
.LVL224:
.L170:
	.loc 1 383 5 is_stmt 1
	.loc 1 383 9 is_stmt 0
	lui	a1,%hi(.LC31)
	lui	a0,%hi(light_task)
	li	a5,0
	li	a4,5
	li	a3,0
	li	a2,512
	addi	a1,a1,%lo(.LC31)
	addi	a0,a0,%lo(light_task)
	call	xTaskCreate
.LVL225:
	.loc 1 383 8
	li	a5,1
	beq	a0,a5,.L173
	.loc 1 384 9 is_stmt 1
	.loc 1 384 14
.LBB194:
.LBB195:
	.loc 2 151 5
.LBE195:
.LBE194:
	.loc 1 384 14 is_stmt 0
	lw	a5,%lo(TrapNetCounter)(s1)
	beq	a5,zero,.L174
	.loc 1 384 122 discriminator 1
	call	xTaskGetTickCountFromISR
.LVL226:
.L175:
	.loc 1 384 14 discriminator 4
	mv	a1,a0
	lui	a0,%hi(.LC32)
	addi	a2,s0,%lo(.LC0)
	addi	a0,a0,%lo(.LC32)
	call	bl_printk
.LVL227:
.L173:
	.loc 1 386 5 is_stmt 1
	.loc 1 386 9 is_stmt 0
	lui	a1,%hi(.LC33)
	lui	a0,%hi(sleep_task)
	li	a5,0
	li	a4,4
	li	a3,0
	li	a2,512
	addi	a1,a1,%lo(.LC33)
	addi	a0,a0,%lo(sleep_task)
	call	xTaskCreate
.LVL228:
	.loc 1 386 8
	li	a5,1
	beq	a0,a5,.L164
	.loc 1 387 9 is_stmt 1
	.loc 1 387 14
.LBB196:
.LBB197:
	.loc 2 151 5
.LBE197:
.LBE196:
	.loc 1 387 14 is_stmt 0
	lw	a5,%lo(TrapNetCounter)(s1)
	beq	a5,zero,.L177
	.loc 1 387 122 discriminator 1
	call	xTaskGetTickCountFromISR
.LVL229:
.L178:
	.loc 1 387 14 discriminator 4
	addi	a2,s0,%lo(.LC0)
	.loc 1 390 1 discriminator 4
	lw	s0,8(sp)
	.cfi_remember_state
	.cfi_restore 8
	lw	ra,12(sp)
	.cfi_restore 1
	lw	s1,4(sp)
	.cfi_restore 9
	lw	s2,0(sp)
	.cfi_restore 18
	.loc 1 387 14 discriminator 4
	mv	a1,a0
	lui	a0,%hi(.LC34)
	.loc 1 390 1 discriminator 4
	.loc 1 387 14 discriminator 4
	addi	a0,a0,%lo(.LC34)
	.loc 1 390 1 discriminator 4
	addi	sp,sp,16
	.cfi_def_cfa_offset 0
	.loc 1 387 14 discriminator 4
	tail	bl_printk
.LVL230:
.L166:
	.cfi_restore_state
	.loc 1 365 40 is_stmt 1 discriminator 2
	li	a1,0
	li	a0,4
	call	bl_gpio_output_set
.LVL231:
	.loc 1 365 65 discriminator 2
	li	a0,20
	call	motor_g_set_vibrate
.LVL232:
	j	.L165
.L168:
	.loc 1 369 132 is_stmt 0 discriminator 2
	call	xTaskGetTickCount
.LVL233:
	j	.L169
.LVL234:
.L171:
	.loc 1 381 150 discriminator 2
	call	xTaskGetTickCount
.LVL235:
	j	.L172
.L174:
	.loc 1 384 151 discriminator 2
	call	xTaskGetTickCount
.LVL236:
	j	.L175
.L177:
	.loc 1 387 151 discriminator 2
	call	xTaskGetTickCount
.LVL237:
	j	.L178
.L164:
	.loc 1 390 1
	lw	ra,12(sp)
	.cfi_restore 1
	lw	s0,8(sp)
	.cfi_restore 8
	lw	s1,4(sp)
	.cfi_restore 9
	lw	s2,0(sp)
	.cfi_restore 18
	addi	sp,sp,16
	.cfi_def_cfa_offset 0
	jr	ra
	.cfi_endproc
.LFE80:
	.size	user_main, .-user_main
	.globl	key_weakup_pin
	.comm	data,4,4
	.globl	charge_flag
	.globl	discharge_flag
	.globl	ota_flag
	.globl	ota_time
	.globl	vibrate
	.globl	light_grade
	.globl	light_flag
	.globl	ble_connect
	.globl	_fsymf_info_dolphinapp_main
	.comm	_fsymf_level_dolphinapp_main,1,1
	.comm	_fsymc_level_dolphin,1,1
	.section	.rodata
	.align	2
	.set	.LANCHOR9,. + 0
.LC20:
	.string	"OTA_START"
	.zero	10
.LC23:
	.string	"SET_WIFI"
	.zero	11
	.section	.rodata.adc_init.str1.4,"aMS",@progbits,1
	.align	2
.LC7:
	.string	"\033[31m[%10u][%s %s:%4d] ADC init start PIN :%d\033[0m\r\n"
	.section	.rodata.ble_connect_cb.str1.4,"aMS",@progbits,1
	.align	2
.LC0:
	.string	"app_main"
	.zero	3
.LC1:
	.string	"\033[32m[%10u][%s] ble_connect: %s\033[0m\r\n"
	.zero	2
.LC2:
	.string	"\033[32m[%10u][%s] ble_disconnect: %s\033[0m\r\n"
	.section	.rodata.ble_reve_cb.str1.4,"aMS",@progbits,1
	.align	2
.LC9:
	.string	"\033[32m[%10u][%s] ble_reve_buf: %s\033[0m\r\n"
	.zero	1
.LC10:
	.string	"\033[32m[%10u][%s] cmd: %s  data: %s\033[0m\r\n"
.LC11:
	.string	"Status"
	.zero	1
.LC12:
	.string	"\033[32m[%10u][%s] get Status\033[0m\r\n"
	.zero	3
.LC13:
	.string	"Vibrate"
.LC14:
	.string	"\033[32m[%10u][%s] set Vibrate\033[0m\r\n"
	.zero	2
.LC15:
	.string	"Battery"
.LC16:
	.string	"Light"
	.zero	2
.LC17:
	.string	"PowerOff"
	.zero	3
.LC18:
	.string	"OTA"
.LC19:
	.string	"\033[32m[%10u][%s] OTA\033[0m\r\n"
	.zero	2
.LC21:
	.string	"WIFI"
	.zero	3
.LC22:
	.string	"\033[32m[%10u][%s] SET WIFI \033[0m\r\n"
.LC24:
	.string	"\033[32m[%10u][%s] saved SSID: %s, passwd: %s\033[0m\r\n"
	.section	.rodata.charge_detect.str1.4,"aMS",@progbits,1
	.align	2
.LC25:
	.string	"\033[31m[%10u][%s %s:%4d] CHARGEFULL!!!!!\033[0m\r\n"
	.zero	3
.LC26:
	.string	"\033[31m[%10u][%s %s:%4d] CHARGEFULL AND DISCHARGE !!!!!\033[0m\r\n"
	.section	.rodata.get_battery.str1.4,"aMS",@progbits,1
	.align	2
.LC8:
	.string	"\033[31m[%10u][%s %s:%4d] gpio = %d data = %ld mv  %:%d \r\n\033[0m\r\n"
	.section	.rodata.key_event_cb.str1.4,"aMS",@progbits,1
	.align	2
.LC5:
	.string	"\033[32m[%10u][%s] UKEY_EVEVT_SHORT_PRESS\033[0m\r\n"
	.zero	3
.LC6:
	.string	"\033[32m[%10u][%s] UKEY_EVEVT_LONG_PRESS\033[0m\r\n"
	.section	.rodata.main_task.str1.4,"aMS",@progbits,1
	.align	2
.LC27:
	.string	"\033[31m[%10u][%s %s:%4d] main_task start\033[0m\r\n"
	.section	.rodata.sleep_start.str1.4,"aMS",@progbits,1
	.align	2
.LC3:
	.string	"app_main.c"
	.zero	1
.LC4:
	.string	"\033[31m[%10u][%s %s:%4d] sleep start\033[0m\r\n"
	.section	.rodata.str1.4,"aMS",@progbits,1
	.align	2
.LC35:
	.string	"dolphin.app_main"
	.zero	3
.LC36:
	.string	"dolphin"
	.section	.rodata.user_main.str1.4,"aMS",@progbits,1
	.align	2
.LC28:
	.string	"\033[32m[%10u][%s] user_main_start\033[0m\r\n"
	.zero	2
.LC29:
	.string	"main_task"
	.zero	2
.LC30:
	.string	"\033[32m[%10u][%s] xTaskCreate(main_task) failed\033[0m\r\n"
.LC31:
	.string	"light_task"
	.zero	1
.LC32:
	.string	"\033[32m[%10u][%s] xTaskCreate(light_task) failed\033[0m\r\n"
	.zero	3
.LC33:
	.string	"sleep_task"
	.zero	1
.LC34:
	.string	"\033[32m[%10u][%s] xTaskCreate(sleep_task) failed\033[0m\r\n"
	.section	.sbss.Grade,"aw",@nobits
	.align	2
	.set	.LANCHOR3,. + 0
	.type	Grade, @object
	.size	Grade, 4
Grade:
	.zero	4
	.section	.sbss.ble_connect,"aw",@nobits
	.set	.LANCHOR0,. + 0
	.type	ble_connect, @object
	.size	ble_connect, 1
ble_connect:
	.zero	1
	.section	.sbss.charge_flag,"aw",@nobits
	.set	.LANCHOR10,. + 0
	.type	charge_flag, @object
	.size	charge_flag, 1
charge_flag:
	.zero	1
	.section	.sbss.discharge_flag,"aw",@nobits
	.set	.LANCHOR11,. + 0
	.type	discharge_flag, @object
	.size	discharge_flag, 1
discharge_flag:
	.zero	1
	.section	.sbss.light_grade,"aw",@nobits
	.align	2
	.set	.LANCHOR2,. + 0
	.type	light_grade, @object
	.size	light_grade, 4
light_grade:
	.zero	4
	.section	.sbss.ota_flag,"aw",@nobits
	.set	.LANCHOR6,. + 0
	.type	ota_flag, @object
	.size	ota_flag, 1
ota_flag:
	.zero	1
	.section	.sbss.ota_time,"aw",@nobits
	.align	2
	.set	.LANCHOR8,. + 0
	.type	ota_time, @object
	.size	ota_time, 4
ota_time:
	.zero	4
	.section	.sbss.times.5528,"aw",@nobits
	.align	2
	.set	.LANCHOR5,. + 0
	.type	times.5528, @object
	.size	times.5528, 4
times.5528:
	.zero	4
	.section	.sbss.vibrate,"aw",@nobits
	.align	2
	.set	.LANCHOR4,. + 0
	.type	vibrate, @object
	.size	vibrate, 4
vibrate:
	.zero	4
	.section	.sdata.key_weakup_pin,"aw"
	.set	.LANCHOR7,. + 0
	.type	key_weakup_pin, @object
	.size	key_weakup_pin, 1
key_weakup_pin:
	.byte	7
	.section	.sdata.light_flag,"aw"
	.set	.LANCHOR1,. + 0
	.type	light_flag, @object
	.size	light_flag, 1
light_flag:
	.byte	1
	.section	.sdata2.BLOG_HARD_DECLARE_DISABLE,"a"
	.align	2
	.type	BLOG_HARD_DECLARE_DISABLE, @object
	.size	BLOG_HARD_DECLARE_DISABLE, 4
BLOG_HARD_DECLARE_DISABLE:
	.zero	4
	.section	.static_blogcomponent_code.dolphin,"a"
	.align	2
	.type	_fsymc_info_dolphin, @object
	.size	_fsymc_info_dolphin, 8
_fsymc_info_dolphin:
	.word	_fsymc_level_dolphin
	.word	.LC36
	.section	.static_blogfile_code.dolphinapp_main,"a"
	.align	2
	.type	_fsymf_info_dolphinapp_main, @object
	.size	_fsymf_info_dolphinapp_main, 8
_fsymf_info_dolphinapp_main:
	.word	_fsymf_level_dolphinapp_main
	.word	.LC35
	.text
.Letext0:
	.file 3 "/b-l/bl_iot_sdk_new/toolchain/riscv/Linux/lib/gcc/riscv64-unknown-elf/8.3.0/include/stdint-gcc.h"
	.file 4 "/b-l/bl_iot_sdk_new/toolchain/riscv/Linux/lib/gcc/riscv64-unknown-elf/8.3.0/include/stddef.h"
	.file 5 "/b-l/bl_iot_sdk_new/toolchain/riscv/Linux/riscv64-unknown-elf/include/sys/_types.h"
	.file 6 "/b-l/bl_iot_sdk_new/toolchain/riscv/Linux/riscv64-unknown-elf/include/sys/reent.h"
	.file 7 "/b-l/bl_iot_sdk_new/toolchain/riscv/Linux/riscv64-unknown-elf/include/sys/lock.h"
	.file 8 "/b-l/bl_iot_sdk_new/toolchain/riscv/Linux/riscv64-unknown-elf/include/stdlib.h"
	.file 9 "/b-l/bl_iot_sdk_new/components/stage/blog/blog_type.h"
	.file 10 "/b-l/bl_iot_sdk_new/components/stage/blog/blog.h"
	.file 11 "/b-l/dolphin/components/ukey/include/ukey.h"
	.file 12 "/b-l/bl_iot_sdk_new/components/network/ble/blestack/src/common/include/zephyr/types.h"
	.file 13 "/b-l/bl_iot_sdk_new/components/network/ble/blestack/src/common/include/misc/slist.h"
	.file 14 "/b-l/bl_iot_sdk_new/components/network/ble/blestack/src/port/include/zephyr.h"
	.file 15 "/b-l/bl_iot_sdk_new/components/network/ble/blestack/src/common/include/net/buf.h"
	.file 16 "/b-l/dolphin/components/do_ble/include/do_ble.h"
	.file 17 "/b-l/dolphin/dolphin/include/product.h"
	.file 18 "/b-l/dolphin/components/ota/include/doit_flash.h"
	.file 19 "/b-l/bl_iot_sdk_new/components/hal_drv/bl602_hal/bl_gpio.h"
	.file 20 "/b-l/bl_iot_sdk_new/components/bl602/freertos_riscv_ram/config/task.h"
	.file 21 "/b-l/bl_iot_sdk_new/components/utils/include/utils_log.h"
	.file 22 "/b-l/bl_iot_sdk_new/components/hal_drv/bl602_hal/hal_hbn.h"
	.file 23 "/b-l/bl_iot_sdk_new/toolchain/riscv/Linux/riscv64-unknown-elf/include/string.h"
	.file 24 "/b-l/dolphin/components/ota/include/doit_wifi.h"
	.file 25 "<built-in>"
	.file 26 "/b-l/bl_iot_sdk_new/components/hal_drv/bl602_hal/hal_adc.h"