	.file	"misaligned_ldst.c"
	.option nopic
	.attribute arch, "rv32i2p0_m2p0_f2p0_c2p0"
	.attribute unaligned_access, 0
	.attribute stack_align, 16
	.text
.Ltext0:
	.cfi_sections	.debug_frame
	.section	.text.truly_illegal_insn,"ax",@progbits
	.align	1
	.globl	truly_illegal_insn
	.type	truly_illegal_insn, @function
truly_illegal_insn:
.LFB14:
	.file 1 "/home/hogc/build-tools/sdk/bl/bl_iot_sdk/components/bl602/freertos_riscv_ram/misaligned/misaligned_ldst.c"
	.loc 1 29 1
	.cfi_startproc
.LVL0:
	.loc 1 30 5
 #APP
# 30 "/home/hogc/build-tools/sdk/bl/bl_iot_sdk/components/bl602/freertos_riscv_ram/misaligned/misaligned_ldst.c" 1
	ebreak
# 0 "" 2
 #NO_APP
.L2:
	.loc 1 31 5 discriminator 1
	.loc 1 31 13 discriminator 1
	.loc 1 31 5 discriminator 1
	.loc 1 31 13 discriminator 1
	j	.L2
	.cfi_endproc
.LFE14:
	.size	truly_illegal_insn, .-truly_illegal_insn
	.section	.text.misaligned_load_trap,"ax",@progbits
	.align	1
	.globl	misaligned_load_trap
	.type	misaligned_load_trap, @function
misaligned_load_trap:
.LFB15:
	.loc 1 35 1
	.cfi_startproc
.LVL1:
.LBB44:
.LBB45:
	.file 2 "/home/hogc/build-tools/sdk/bl/bl_iot_sdk/components/bl602/freertos_riscv_ram/misaligned/unprivileged_memory.h"
	.loc 2 71 22 is_stmt 0
	li	a1,655360
.LVL2:
	.loc 2 83 3
	li	a4,3
 #APP
# 83 "/home/hogc/build-tools/sdk/bl/bl_iot_sdk/components/bl602/freertos_riscv_ram/misaligned/unprivileged_memory.h" 1
	csrrs a3, mstatus, a1
and a6, a2, 2
bnez a6, 1f
lw a5, (a2)
and a6, a5, a4
beq a6, a4, 2f
sll a5, a5, 16
srl a5, a5, 16
j 2f
1:
lhu a5, (a2)
and a6, a5, a4
bne a6, a4, 2f
lhu a6, 2(a2)
sll a6, a6, 16
add a5, a5, a6
2: csrw mstatus, a3
# 0 "" 2
 #NO_APP
.LBE45:
.LBE44:
.LBB48:
.LBB49:
	.loc 1 25 16
	andi	a1,a5,3
.LBE49:
.LBE48:
	.loc 1 36 3 is_stmt 1
	.loc 1 37 3
	.loc 1 38 3
.LVL3:
.LBB51:
.LBB46:
	.loc 2 71 3
	.loc 2 72 3
	.loc 2 73 3
	.loc 2 74 3
	.loc 2 82 3
	.loc 2 83 3
.LBE46:
.LBE51:
	.loc 1 35 1 is_stmt 0
	mv	t4,a2
.LBB52:
.LBB47:
	.loc 2 83 3
	mv	t6,a5
.LVL4:
	.loc 2 104 3 is_stmt 1
	.loc 2 105 3
.LBE47:
.LBE52:
	.loc 1 39 3
.LBB53:
.LBB50:
	.loc 1 25 3
	.loc 1 25 33 is_stmt 0
	li	t3,4
	beq	a1,a4,.L5
	li	t3,2
.L5:
.LVL5:
.LBE50:
.LBE53:
	.loc 1 39 13
	add	t3,t4,t3
.LVL6:
	.loc 1 40 3 is_stmt 1
.LBB54:
	.loc 1 40 23
	.loc 1 40 44
 #APP
# 40 "/home/hogc/build-tools/sdk/bl/bl_iot_sdk/components/bl602/freertos_riscv_ram/misaligned/misaligned_ldst.c" 1
	csrr t5, mbadaddr
# 0 "" 2
.LVL7:
	.loc 1 40 97
 #NO_APP
.LBE54:
	.loc 1 42 3
	.loc 1 43 3
	.loc 1 43 13 is_stmt 0
	li	a4,28672
	.loc 1 43 6
	li	a2,8192
.LVL8:
	.loc 1 43 13
	addi	a4,a4,127
	and	a4,a5,a4
	.loc 1 43 6
	addi	a1,a2,3
	beq	a4,a1,.L20
	.loc 1 56 8 is_stmt 1
	.loc 1 56 11 is_stmt 0
	addi	a2,a2,7
	beq	a4,a2,.L21
	.loc 1 59 8 is_stmt 1
	.loc 1 59 11 is_stmt 0
	li	a2,4096
	addi	a2,a2,3
	beq	a4,a2,.L18
	.loc 1 61 8 is_stmt 1
	.loc 1 61 11 is_stmt 0
	li	a2,20480
	addi	a2,a2,3
	beq	a4,a2,.L19
	.loc 1 70 8 is_stmt 1
	.loc 1 70 18 is_stmt 0
	li	a4,57344
	addi	a4,a4,3
	and	a4,a5,a4
	.loc 1 70 11
	li	a2,16384
	beq	a4,a2,.L26
	.loc 1 72 8 is_stmt 1
	.loc 1 72 11 is_stmt 0
	addi	a2,a2,2
	beq	a4,a2,.L27
	.loc 1 82 8 is_stmt 1
	.loc 1 82 11 is_stmt 0
	li	a2,24576
	beq	a4,a2,.L28
	.loc 1 84 8 is_stmt 1
	.loc 1 84 11 is_stmt 0
	addi	a2,a2,2
	beq	a4,a2,.L21
.LVL9:
.L9:
	.loc 1 90 5 is_stmt 1
	.loc 1 91 5
	.loc 1 91 8 is_stmt 0
 #APP
# 91 "/home/hogc/build-tools/sdk/bl/bl_iot_sdk/components/bl602/freertos_riscv_ram/misaligned/misaligned_ldst.c" 1
	csrw mcause, 5
# 0 "" 2
	.loc 1 92 5 is_stmt 1
.LVL10:
 #NO_APP
.LBB55:
.LBB56:
	.loc 1 30 5
 #APP
# 30 "/home/hogc/build-tools/sdk/bl/bl_iot_sdk/components/bl602/freertos_riscv_ram/misaligned/misaligned_ldst.c" 1
	ebreak
# 0 "" 2
 #NO_APP
.L11:
	.loc 1 31 5
	.loc 1 31 13
	.loc 1 31 5
	.loc 1 31 13
	j	.L11
.LVL11:
.L21:
.LBE56:
.LBE55:
	.loc 1 85 17 is_stmt 0
	li	a6,4
	.loc 1 85 8
	li	t1,1
	.loc 1 42 7
	li	a7,0
.LVL12:
.L6:
	.loc 1 95 3 is_stmt 1
	.loc 1 35 1 is_stmt 0
	addi	sp,sp,-16
	.cfi_def_cfa_offset 16
	.loc 1 95 13
	li	a5,0
	li	a4,0
	sw	a5,12(sp)
	.loc 1 96 3 is_stmt 1
.LBB57:
	.loc 1 96 8
.LVL13:
.LBE57:
	.loc 1 95 13 is_stmt 0
	sw	a4,8(sp)
	add	a6,a6,t5
.LVL14:
	mv	a5,t5
.LVL15:
.L12:
.LBB62:
	.loc 1 97 5 is_stmt 1 discriminator 3
.LBB58:
.LBB59:
	.loc 2 39 75 discriminator 3
.LBE59:
.LBE58:
	.loc 1 97 18 is_stmt 0 discriminator 3
	sub	a4,a5,t5
.LVL16:
	addi	a2,sp,8
	add	a4,a2,a4
.LVL17:
.LBB61:
.LBB60:
	.loc 2 39 94 discriminator 3
	li	a1,131072
	.loc 2 39 136 is_stmt 1 discriminator 3
	.loc 2 39 155 is_stmt 0 discriminator 3
	mv	a2,t4
	.loc 2 39 181 is_stmt 1 discriminator 3
	.loc 2 39 222 discriminator 3
	.loc 2 39 235 discriminator 3
	addi	a5,a5,1
.LVL18:
 #APP
# 39 "/home/hogc/build-tools/sdk/bl/bl_iot_sdk/components/bl602/freertos_riscv_ram/misaligned/unprivileged_memory.h" 1
	csrrs a3, mstatus, a1
lbu t0, -1(a5)
csrw mstatus, a3
# 0 "" 2
.LVL19:
	.loc 2 39 390 discriminator 3
 #NO_APP
.LBE60:
.LBE61:
	.loc 1 97 18 is_stmt 0 discriminator 3
	sb	t0,0(a4)
.LVL20:
	.loc 1 96 3 discriminator 3
	bne	a6,a5,.L12
.LVL21:
.LBE62:
	.loc 1 99 3 is_stmt 1
	lw	a4,8(sp)
	.loc 1 99 6 is_stmt 0
	bne	t1,zero,.L13
	.loc 1 100 5 is_stmt 1
.LBB63:
	.loc 1 100 10
.LVL22:
	.loc 1 100 46
	.loc 1 100 127 is_stmt 0
	srli	a5,t6,5
	.loc 1 100 152
	andi	a5,a5,124
.LBE63:
	.loc 1 100 189
	sll	a4,a4,a7
	.loc 1 100 167
	add	a5,a0,a5
	.loc 1 100 198
	sra	a7,a4,a7
.LVL23:
	.loc 1 100 167
	sw	a7,124(a5)
	.loc 1 111 3 is_stmt 1
	.loc 1 111 13 is_stmt 0
	sw	t3,0(a0)
	.loc 1 112 1
	addi	sp,sp,16
	.cfi_remember_state
	.cfi_def_cfa_offset 0
	jr	ra
.LVL24:
.L13:
	.cfi_restore_state
	.loc 1 107 5 is_stmt 1
	.loc 1 108 5
	.loc 1 107 39 is_stmt 0
	srli	a5,t6,7
	.loc 1 107 9
	andi	a5,a5,31
	.loc 1 108 9
	addi	a5,a5,1
	.loc 1 108 21
	slli	a5,a5,2
	add	a5,a0,a5
	sw	a4,0(a5)
	.loc 1 111 3 is_stmt 1
	.loc 1 111 13 is_stmt 0
	sw	t3,0(a0)
	.loc 1 112 1
	addi	sp,sp,16
	.cfi_def_cfa_offset 0
	jr	ra
.LVL25:
.L27:
	.loc 1 72 48 discriminator 1
	srli	a5,a5,7
.LVL26:
	.loc 1 72 54 discriminator 1
	andi	a5,a5,31
	.loc 1 72 38 discriminator 1
	beq	a5,zero,.L9
.L20:
	.loc 1 73 9
	li	a6,4
	.loc 1 42 18
	li	t1,0
	.loc 1 73 20
	li	a7,0
	j	.L6
.LVL27:
.L19:
	.loc 1 62 9
	li	a6,2
	.loc 1 42 18
	li	t1,0
	.loc 1 42 7
	li	a7,0
	j	.L6
.L18:
	.loc 1 60 9
	li	a6,2
	.loc 1 42 18
	li	t1,0
	.loc 1 60 20
	li	a7,16
	j	.L6
.L26:
	.loc 1 71 5 is_stmt 1
.LVL28:
	.loc 1 71 72 is_stmt 0
	srli	a5,a5,2
.LVL29:
	.loc 1 71 80
	andi	a5,a5,7
	.loc 1 71 61
	addi	a5,a5,8
.LVL30:
	.loc 1 71 56
	slli	t6,a5,7
.LVL31:
	.loc 1 71 9
	li	a6,4
	.loc 1 42 18
	li	t1,0
	.loc 1 71 20
	li	a7,0
	j	.L6
.LVL32:
.L28:
	.loc 1 83 5 is_stmt 1
	.loc 1 83 43 is_stmt 0
	srli	a5,a5,2
.LVL33:
	.loc 1 83 51
	andi	a5,a5,7
	.loc 1 83 32
	addi	a5,a5,8
.LVL34:
	.loc 1 83 27
	slli	t6,a5,7
.LVL35:
	.loc 1 83 17
	li	a6,4
	.loc 1 83 8
	li	t1,1
	.loc 1 42 7
	li	a7,0
	j	.L6
	.cfi_endproc
.LFE15:
	.size	misaligned_load_trap, .-misaligned_load_trap
	.section	.text.misaligned_store_trap,"ax",@progbits
	.align	1
	.globl	misaligned_store_trap
	.type	misaligned_store_trap, @function
misaligned_store_trap:
.LFB16:
	.loc 1 115 1 is_stmt 1
	.cfi_startproc
.LVL36:
.LBB64:
.LBB65:
	.loc 2 71 22 is_stmt 0
	li	a1,655360
.LVL37:
	.loc 2 83 3
	li	a4,3
 #APP
# 83 "/home/hogc/build-tools/sdk/bl/bl_iot_sdk/components/bl602/freertos_riscv_ram/misaligned/unprivileged_memory.h" 1
	csrrs a3, mstatus, a1
and a6, a2, 2
bnez a6, 1f
lw a5, (a2)
and a6, a5, a4
beq a6, a4, 2f
sll a5, a5, 16
srl a5, a5, 16
j 2f
1:
lhu a5, (a2)
and a6, a5, a4
bne a6, a4, 2f
lhu a6, 2(a2)
sll a6, a6, 16
add a5, a5, a6
2: csrw mstatus, a3
# 0 "" 2
 #NO_APP
.LBE65:
.LBE64:
.LBB67:
.LBB68:
	.loc 1 25 16
	andi	a1,a5,3
.LBE68:
.LBE67:
	.loc 1 115 1
	addi	sp,sp,-16
	.cfi_def_cfa_offset 16
	.loc 1 115 1
	mv	t3,a0
	.loc 1 116 3 is_stmt 1
	.loc 1 117 3
	.loc 1 118 3
.LVL38:
.LBB71:
.LBB66:
	.loc 2 71 3
	.loc 2 72 3
	.loc 2 73 3
	.loc 2 74 3
	.loc 2 82 3
	.loc 2 83 3
	.loc 2 104 3
	.loc 2 105 3
.LBE66:
.LBE71:
	.loc 1 119 3
.LBB72:
.LBB69:
	.loc 1 25 3
.LBE69:
.LBE72:
	.loc 1 115 1 is_stmt 0
	mv	t1,a2
.LBB73:
.LBB70:
	.loc 1 25 33
	li	t4,4
	beq	a1,a4,.L30
	li	t4,2
.L30:
.LVL39:
.LBE70:
.LBE73:
.LBB74:
	.loc 1 122 138
	srli	a4,a5,18
	addi	a0,t3,124
.LVL40:
	.loc 1 122 164
	andi	a4,a4,124
.LBE74:
	.loc 1 122 15
	add	a4,a4,a0
	.loc 1 122 12
	lw	a4,0(a4)
	.loc 1 123 6
	li	a2,8192
.LVL41:
	addi	a1,a2,35
	.loc 1 122 12
	sw	a4,8(sp)
	.loc 1 123 13
	li	a4,28672
	addi	a4,a4,127
	and	a4,a5,a4
	.loc 1 119 13
	add	t4,t1,t4
.LVL42:
	.loc 1 120 3 is_stmt 1
	.loc 1 122 3
.LBB75:
	.loc 1 122 19
	.loc 1 122 55
.LBE75:
	.loc 1 123 3
	.loc 1 123 6 is_stmt 0
	beq	a4,a1,.L40
	.loc 1 134 8 is_stmt 1
	.loc 1 134 11 is_stmt 0
	addi	a2,a2,39
	beq	a4,a2,.L48
	.loc 1 137 8 is_stmt 1
	.loc 1 137 11 is_stmt 0
	li	a2,4096
	addi	a2,a2,35
	beq	a4,a2,.L41
	.loc 1 146 8 is_stmt 1
	.loc 1 146 18 is_stmt 0
	li	a2,57344
	addi	a4,a2,3
	and	a4,a5,a4
	.loc 1 146 11
	li	a1,49152
	beq	a4,a1,.L49
	.loc 1 148 8 is_stmt 1
	.loc 1 148 11 is_stmt 0
	addi	a1,a1,2
	beq	a4,a1,.L50
	.loc 1 158 8 is_stmt 1
	.loc 1 158 11 is_stmt 0
	beq	a4,a2,.L51
	.loc 1 160 8 is_stmt 1
	.loc 1 160 11 is_stmt 0
	addi	a2,a2,2
	beq	a4,a2,.L52
.L35:
	.loc 1 166 5 is_stmt 1
.LVL43:
	.loc 1 167 5
	.loc 1 167 8 is_stmt 0
 #APP
# 167 "/home/hogc/build-tools/sdk/bl/bl_iot_sdk/components/bl602/freertos_riscv_ram/misaligned/misaligned_ldst.c" 1
	csrw mcause, 7
# 0 "" 2
	.loc 1 168 5 is_stmt 1
.LVL44:
 #NO_APP
.LBB76:
.LBB77:
	.loc 1 30 5
 #APP
# 30 "/home/hogc/build-tools/sdk/bl/bl_iot_sdk/components/bl602/freertos_riscv_ram/misaligned/misaligned_ldst.c" 1
	ebreak
# 0 "" 2
 #NO_APP
.L37:
	.loc 1 31 5
	.loc 1 31 13
	.loc 1 31 5
	.loc 1 31 13
	j	.L37
.LVL45:
.L48:
.LBE77:
.LBE76:
	.loc 1 135 5
.LBB78:
	.loc 1 135 29
	.loc 1 135 102 is_stmt 0
	srli	a5,a5,17
.LVL46:
	.loc 1 135 126
	andi	a0,a5,248
	.loc 1 135 134 is_stmt 1
	.loc 1 135 149
.LBE78:
	.loc 1 135 9 is_stmt 0
	li	a4,4
.LBB79:
	.loc 1 135 149
 #APP
# 135 "/home/hogc/build-tools/sdk/bl/bl_iot_sdk/components/bl602/freertos_riscv_ram/misaligned/misaligned_ldst.c" 1
	1: auipc a5, %pcrel_hi(get_f32_reg); add a5, a5, a0; jalr t0, a5, %pcrel_lo(1b)
# 0 "" 2
.LVL47:
	.loc 1 135 275 is_stmt 1
 #NO_APP
.LBE79:
	.loc 1 135 23 is_stmt 0
	sw	a0,8(sp)
.LVL48:
.L31:
	.loc 1 171 3 is_stmt 1
.LBB80:
	.loc 1 171 23
	.loc 1 171 44
 #APP
# 171 "/home/hogc/build-tools/sdk/bl/bl_iot_sdk/components/bl602/freertos_riscv_ram/misaligned/misaligned_ldst.c" 1
	csrr a7, mbadaddr
# 0 "" 2
.LVL49:
	.loc 1 171 97
 #NO_APP
.LBE80:
	.loc 1 172 3
.LBB81:
	.loc 1 172 8
.LBE81:
.LBB84:
	.loc 1 171 44 is_stmt 0
	addi	a5,sp,8
	add	a4,a4,a5
.LVL50:
	sub	a7,a7,a5
.LVL51:
.L38:
.LBE84:
.LBB85:
	.loc 1 173 5 is_stmt 1 discriminator 3
	add	a6,a7,a5
	lbu	a0,0(a5)
.LVL52:
.LBB82:
.LBB83:
	.loc 2 44 80 discriminator 3
	.loc 2 44 99 is_stmt 0 discriminator 3
	li	a1,131072
	.loc 2 44 141 is_stmt 1 discriminator 3
	.loc 2 44 160 is_stmt 0 discriminator 3
	mv	a2,t1
	.loc 2 44 186 is_stmt 1 discriminator 3
	.loc 2 44 227 discriminator 3
 #APP
# 44 "/home/hogc/build-tools/sdk/bl/bl_iot_sdk/components/bl602/freertos_riscv_ram/misaligned/unprivileged_memory.h" 1
	csrrs a3, mstatus, a1
sb a0, 0(a6)
csrw mstatus, a3
# 0 "" 2
.LVL53:
 #NO_APP
	addi	a5,a5,1
.LVL54:
.LBE83:
.LBE82:
	.loc 1 172 3 is_stmt 0 discriminator 3
	bne	a4,a5,.L38
.LBE85:
	.loc 1 175 3 is_stmt 1
	.loc 1 175 13 is_stmt 0
	sw	t4,0(t3)
	.loc 1 176 1
	addi	sp,sp,16
	.cfi_remember_state
	.cfi_def_cfa_offset 0
.LVL55:
	jr	ra
.LVL56:
.L40:
	.cfi_restore_state
	.loc 1 124 9
	li	a4,4
	j	.L31
.L49:
	.loc 1 147 5 is_stmt 1
.LVL57:
.LBB86:
	.loc 1 147 30
	.loc 1 147 66
	.loc 1 147 129 is_stmt 0
	andi	a5,a5,28
.LVL58:
.LBE86:
	.loc 1 147 26
	add	a5,a0,a5
	.loc 1 147 23
	lw	a5,32(a5)
	.loc 1 147 9
	li	a4,4
	.loc 1 147 23
	sw	a5,8(sp)
	j	.L31
.LVL59:
.L41:
	.loc 1 138 9
	li	a4,2
	j	.L31
.L51:
	.loc 1 159 5 is_stmt 1
.LVL60:
.LBB87:
	.loc 1 159 29
	.loc 1 159 95 is_stmt 0
	srli	a0,a5,2
	.loc 1 159 103
	andi	a0,a0,7
	.loc 1 159 84
	addi	a0,a0,8
	.loc 1 159 138
	slli	a0,a0,3
	.loc 1 159 207 is_stmt 1
	.loc 1 159 222
.LBE87:
	.loc 1 159 9 is_stmt 0
	li	a4,4
.LBB88:
	.loc 1 159 222
 #APP
# 159 "/home/hogc/build-tools/sdk/bl/bl_iot_sdk/components/bl602/freertos_riscv_ram/misaligned/misaligned_ldst.c" 1
	1: auipc a5, %pcrel_hi(get_f32_reg); add a5, a5, a0; jalr t0, a5, %pcrel_lo(1b)
# 0 "" 2
.LVL61:
	.loc 1 159 348 is_stmt 1
 #NO_APP
.LBE88:
	.loc 1 159 23 is_stmt 0
	sw	a0,8(sp)
	j	.L31
.LVL62:
.L50:
	.loc 1 148 48 discriminator 1
	srli	a4,a5,7
	.loc 1 148 54 discriminator 1
	andi	a4,a4,31
	.loc 1 148 38 discriminator 1
	beq	a4,zero,.L35
	.loc 1 149 5 is_stmt 1
.LVL63:
.LBB89:
	.loc 1 149 30
	.loc 1 149 66
	.loc 1 149 172 is_stmt 0
	andi	a5,a5,124
.LVL64:
.LBE89:
	.loc 1 149 26
	add	a5,a5,a0
	.loc 1 149 23
	lw	a5,0(a5)
	.loc 1 149 9
	li	a4,4
	.loc 1 149 23
	sw	a5,8(sp)
	.loc 1 149 12
	j	.L31
.LVL65:
.L52:
	.loc 1 161 5 is_stmt 1
.LBB90:
	.loc 1 161 29
	.loc 1 161 100 is_stmt 0
	slli	a5,a5,1
.LVL66:
	.loc 1 161 123
	andi	a0,a5,248
	.loc 1 161 131 is_stmt 1
	.loc 1 161 146
.LBE90:
	.loc 1 161 9 is_stmt 0
	li	a4,4
.LBB91:
	.loc 1 161 146
 #APP
# 161 "/home/hogc/build-tools/sdk/bl/bl_iot_sdk/components/bl602/freertos_riscv_ram/misaligned/misaligned_ldst.c" 1
	1: auipc a5, %pcrel_hi(get_f32_reg); add a5, a5, a0; jalr t0, a5, %pcrel_lo(1b)
# 0 "" 2
.LVL67:
	.loc 1 161 272 is_stmt 1
 #NO_APP
.LBE91:
	.loc 1 161 23 is_stmt 0
	sw	a0,8(sp)
	j	.L31
	.cfi_endproc
.LFE16:
	.size	misaligned_store_trap, .-misaligned_store_trap
	.text
.Letext0:
	.file 3 "/home/hogc/build-tools/sdk/bl/bl_iot_sdk/toolchain/riscv/Linux/lib/gcc/riscv64-unknown-elf/8.3.0/include/stdint-gcc.h"
	.file 4 "/home/hogc/build-tools/sdk/bl/bl_iot_sdk/components/bl602/freertos_riscv_ram/misaligned/emulation.h"