	.file	"ecp.c"
	.option nopic
	.attribute arch, "rv32i2p0_m2p0_f2p0_c2p0"
	.attribute unaligned_access, 0
	.attribute stack_align, 16
	.text
.Ltext0:
	.cfi_sections	.debug_frame
	.section	.text.ecp_get_type,"ax",@progbits
	.align	1
	.type	ecp_get_type, @function
ecp_get_type:
.LFB11:
	.file 1 "/b-l/bl_iot_sdk/components/security/mbedtls/src/ecp.c"
	.loc 1 263 1
	.cfi_startproc
.LVL0:
	.loc 1 264 5
	.loc 1 264 7 is_stmt 0
	lw	a5,48(a0)
	beq	a5,zero,.L3
	.loc 1 267 5 is_stmt 1
	.loc 1 267 7 is_stmt 0
	lw	a0,60(a0)
.LVL1:
	.loc 1 270 15
	seqz	a0,a0
	addi	a0,a0,1
	ret
.LVL2:
.L3:
	.loc 1 265 15
	li	a0,0
.LVL3:
	.loc 1 271 1
	ret
	.cfi_endproc
.LFE11:
	.size	ecp_get_type, .-ecp_get_type
	.section	.text.ecp_safe_invert_jac,"ax",@progbits
	.align	1
	.type	ecp_safe_invert_jac, @function
ecp_safe_invert_jac:
.LFB33:
	.loc 1 891 1 is_stmt 1
	.cfi_startproc
.LVL4:
	.loc 1 892 5
	.loc 1 893 5
	.loc 1 894 5
	.loc 1 896 5
	.loc 1 891 1 is_stmt 0
	addi	sp,sp,-32
	.cfi_def_cfa_offset 32
	sw	s0,24(sp)
	sw	s1,20(sp)
	.cfi_offset 8, -8
	.cfi_offset 9, -12
	mv	s0,a1
	mv	s1,a0
	.loc 1 896 5
	addi	a0,sp,4
.LVL5:
	.loc 1 891 1
	sw	s2,16(sp)
	sw	ra,28(sp)
	.cfi_offset 18, -16
	.cfi_offset 1, -4
	.loc 1 891 1
	mv	s2,a2
	.loc 1 899 58
	addi	s0,s0,12
	.loc 1 896 5
	call	mbedtls_mpi_init
.LVL6:
	.loc 1 899 5 is_stmt 1
	.loc 1 899 10
	.loc 1 899 22 is_stmt 0
	mv	a2,s0
	addi	a1,s1,4
	addi	a0,sp,4
	call	mbedtls_mpi_sub_mpi
.LVL7:
	.loc 1 899 12
	bne	a0,zero,.L7
	.loc 1 900 5 is_stmt 1
	.loc 1 900 15 is_stmt 0
	li	a1,0
	mv	a0,s0
.LVL8:
	call	mbedtls_mpi_cmp_int
.LVL9:
	.loc 1 901 5 is_stmt 1
	.loc 1 901 10
	.loc 1 900 47 is_stmt 0
	snez	a2,a0
	.loc 1 901 22
	and	a2,s2,a2
	addi	a1,sp,4
	mv	a0,s0
.LVL10:
	call	mbedtls_mpi_safe_cond_assign
.LVL11:
.L7:
.L6:
	mv	s1,a0
.LVL12:
	.loc 1 904 5 is_stmt 1
	addi	a0,sp,4
	call	mbedtls_mpi_free
.LVL13:
	.loc 1 906 5
	.loc 1 907 1 is_stmt 0
	lw	ra,28(sp)
	.cfi_restore 1
	lw	s0,24(sp)
	.cfi_restore 8
.LVL14:
	mv	a0,s1
	lw	s2,16(sp)
	.cfi_restore 18
	lw	s1,20(sp)
	.cfi_restore 9
.LVL15:
	addi	sp,sp,32
	.cfi_def_cfa_offset 0
	jr	ra
	.cfi_endproc
.LFE33:
	.size	ecp_safe_invert_jac, .-ecp_safe_invert_jac
	.section	.text.ecp_select_comb,"ax",@progbits
	.align	1
	.type	ecp_select_comb, @function
ecp_select_comb:
.LFB39:
	.loc 1 1287 1 is_stmt 1
	.cfi_startproc
.LVL16:
	addi	sp,sp,-48
	.cfi_def_cfa_offset 48
	sw	s4,24(sp)
	.cfi_offset 20, -24
	.loc 1 1292 24 is_stmt 0
	srli	s4,a4,1
	.loc 1 1287 1
	sw	s0,40(sp)
	sw	s1,36(sp)
	sw	s3,28(sp)
	sw	s5,20(sp)
	sw	s6,16(sp)
	sw	s7,12(sp)
	sw	s8,8(sp)
	sw	ra,44(sp)
	sw	s2,32(sp)
	.cfi_offset 8, -8
	.cfi_offset 9, -12
	.cfi_offset 19, -20
	.cfi_offset 21, -28
	.cfi_offset 22, -32
	.cfi_offset 23, -36
	.cfi_offset 24, -40
	.cfi_offset 1, -4
	.cfi_offset 18, -16
	.loc 1 1287 1
	mv	s6,a0
	mv	s3,a1
	.loc 1 1288 5 is_stmt 1
	.loc 1 1289 5
	.loc 1 1292 5
	.loc 1 1287 1 is_stmt 0
	mv	s7,a3
	mv	s5,a4
	.loc 1 1292 8
	andi	s4,s4,63
.LVL17:
	.loc 1 1295 5 is_stmt 1
	mv	s1,a2
	.loc 1 1295 12 is_stmt 0
	li	s0,0
	.loc 1 1298 26
	addi	s8,a1,12
.LVL18:
.L11:
	.loc 1 1297 9 is_stmt 1
	.loc 1 1297 14
	.loc 1 1297 26 is_stmt 0
	sub	s2,s4,s0
	seqz	s2,s2
	mv	a2,s2
	mv	a1,s1
	mv	a0,s3
	call	mbedtls_mpi_safe_cond_assign
.LVL19:
	.loc 1 1297 16
	bne	a0,zero,.L9
	.loc 1 1298 9 is_stmt 1
	.loc 1 1298 14
	.loc 1 1298 26 is_stmt 0
	mv	a2,s2
	addi	a1,s1,12
	mv	a0,s8
.LVL20:
	call	mbedtls_mpi_safe_cond_assign
.LVL21:
	.loc 1 1298 16
	bne	a0,zero,.L9
	.loc 1 1295 29 discriminator 2
	addi	s0,s0,1
.LVL22:
	andi	s0,s0,0xff
	addi	s1,s1,36
	.loc 1 1295 5 discriminator 2
	bne	s7,s0,.L11
.LVL23:
.LBB27:
.LBB28:
	.loc 1 1302 5 is_stmt 1
	.loc 1 1302 10
.LBE28:
.LBE27:
	.loc 1 1306 1 is_stmt 0
	lw	s0,40(sp)
	.cfi_remember_state
	.cfi_restore 8
.LVL24:
	lw	ra,44(sp)
	.cfi_restore 1
	lw	s1,36(sp)
	.cfi_restore 9
	lw	s2,32(sp)
	.cfi_restore 18
	lw	s4,24(sp)
	.cfi_restore 20
.LVL25:
	lw	s7,12(sp)
	.cfi_restore 23
	lw	s8,8(sp)
	.cfi_restore 24
.LBB32:
.LBB29:
	.loc 1 1302 22
	srli	a2,s5,7
	mv	a1,s3
.LBE29:
.LBE32:
	.loc 1 1306 1
	lw	s5,20(sp)
	.cfi_restore 21
.LVL26:
	lw	s3,28(sp)
	.cfi_restore 19
.LVL27:
.LBB33:
.LBB30:
	.loc 1 1302 22
	mv	a0,s6
.LVL28:
.LBE30:
.LBE33:
	.loc 1 1306 1
	lw	s6,16(sp)
	.cfi_restore 22
.LVL29:
	addi	sp,sp,48
	.cfi_def_cfa_offset 0
.LBB34:
.LBB31:
	.loc 1 1302 22
	tail	ecp_safe_invert_jac
.LVL30:
.L10:
.L9:
	.cfi_restore_state
.LBE31:
.LBE34:
	.loc 1 1306 1
	lw	ra,44(sp)
	.cfi_restore 1
	lw	s0,40(sp)
	.cfi_restore 8
	lw	s1,36(sp)
	.cfi_restore 9
	lw	s2,32(sp)
	.cfi_restore 18
	lw	s3,28(sp)
	.cfi_restore 19
.LVL31:
	lw	s4,24(sp)
	.cfi_restore 20
.LVL32:
	lw	s5,20(sp)
	.cfi_restore 21
.LVL33:
	lw	s6,16(sp)
	.cfi_restore 22
.LVL34:
	lw	s7,12(sp)
	.cfi_restore 23
	lw	s8,8(sp)
	.cfi_restore 24
.LVL35:
	addi	sp,sp,48
	.cfi_def_cfa_offset 0
	jr	ra
	.cfi_endproc
.LFE39:
	.size	ecp_select_comb, .-ecp_select_comb
	.section	.text.ecp_modp,"ax",@progbits
	.align	1
	.type	ecp_modp, @function
ecp_modp:
.LFB30:
	.loc 1 669 1 is_stmt 1
	.cfi_startproc
.LVL36:
	.loc 1 670 5
	.loc 1 672 5
	.loc 1 669 1 is_stmt 0
	addi	sp,sp,-16
	.cfi_def_cfa_offset 16
	sw	s0,8(sp)
	sw	ra,12(sp)
	sw	s1,4(sp)
	sw	s2,0(sp)
	.cfi_offset 8, -8
	.cfi_offset 1, -4
	.cfi_offset 9, -12
	.cfi_offset 18, -16
	.loc 1 672 7
	lw	a5,100(a1)
	.loc 1 669 1
	mv	s0,a0
	.loc 1 672 7
	bne	a5,zero,.L15
	.loc 1 673 9 is_stmt 1
	.loc 1 694 1 is_stmt 0
	lw	s0,8(sp)
	.cfi_remember_state
	.cfi_restore 8
	lw	ra,12(sp)
	.cfi_restore 1
	lw	s1,4(sp)
	.cfi_restore 9
	lw	s2,0(sp)
	.cfi_restore 18
	.loc 1 673 17
	addi	a2,a1,4
	.loc 1 694 1
	.loc 1 673 17
	mv	a1,a0
.LVL37:
	.loc 1 694 1
	addi	sp,sp,16
	.cfi_def_cfa_offset 0
	.loc 1 673 17
	tail	mbedtls_mpi_mod_mpi
.LVL38:
.L15:
	.cfi_restore_state
	.loc 1 676 7
	lw	a5,0(a0)
	mv	s1,a1
	.loc 1 676 5 is_stmt 1
	.loc 1 676 7 is_stmt 0
	blt	a5,zero,.L16
.LVL39:
.L19:
	.loc 1 677 9
	mv	a0,s0
	call	mbedtls_mpi_bitlen
.LVL40:
	.loc 1 677 37
	lw	a5,88(s1)
	slli	a5,a5,1
	.loc 1 676 58
	bleu	a0,a5,.L32
.L17:
	.loc 1 679 15
	li	s2,-20480
	addi	s2,s2,128
.LVL41:
.L14:
	.loc 1 694 1
	lw	ra,12(sp)
	.cfi_remember_state
	.cfi_restore 1
	lw	s0,8(sp)
	.cfi_restore 8
.LVL42:
	mv	a0,s2
	lw	s1,4(sp)
	.cfi_restore 9
	lw	s2,0(sp)
	.cfi_restore 18
	addi	sp,sp,16
	.cfi_def_cfa_offset 0
	jr	ra
.LVL43:
.L16:
	.cfi_restore_state
	.loc 1 676 23 discriminator 1
	li	a1,0
	call	mbedtls_mpi_cmp_int
.LVL44:
	.loc 1 676 20 discriminator 1
	beq	a0,zero,.L19
	j	.L17
.L32:
	.loc 1 682 5 is_stmt 1
	.loc 1 682 10
	.loc 1 682 22 is_stmt 0
	lw	a5,100(s1)
	mv	a0,s0
	addi	s1,s1,4
.LVL45:
	jalr	a5
.LVL46:
	mv	s2,a0
.LVL47:
	.loc 1 682 12
	bne	a0,zero,.L14
.LVL48:
.L21:
.LBB37:
.LBB38:
	.loc 1 685 10
	lw	a5,0(s0)
	bge	a5,zero,.L23
	.loc 1 685 24
	li	a1,0
	mv	a0,s0
	call	mbedtls_mpi_cmp_int
.LVL49:
	.loc 1 685 21
	bne	a0,zero,.L24
.LVL50:
.L23:
	.loc 1 688 12
	mv	a1,s1
	mv	a0,s0
	call	mbedtls_mpi_cmp_mpi
.LVL51:
	.loc 1 688 10
	blt	a0,zero,.L14
	.loc 1 690 9 is_stmt 1
	.loc 1 690 14
	.loc 1 690 26 is_stmt 0
	mv	a2,s1
	mv	a1,s0
	mv	a0,s0
	call	mbedtls_mpi_sub_abs
.LVL52:
	.loc 1 690 16
	beq	a0,zero,.L23
	j	.L28
.LVL53:
.L24:
	.loc 1 686 9 is_stmt 1
	.loc 1 686 14
	.loc 1 686 26 is_stmt 0
	mv	a2,s1
	mv	a1,s0
	mv	a0,s0
	call	mbedtls_mpi_add_mpi
.LVL54:
	.loc 1 686 16
	beq	a0,zero,.L21
.L28:
	.loc 1 690 26
	mv	s2,a0
.LVL55:
	j	.L14
.LBE38:
.LBE37:
	.cfi_endproc
.LFE30:
	.size	ecp_modp, .-ecp_modp
	.section	.text.ecp_double_jac,"ax",@progbits
	.align	1
	.type	ecp_double_jac, @function
ecp_double_jac:
.LFB34:
	.loc 1 925 1 is_stmt 1
	.cfi_startproc
.LVL56:
	.loc 1 926 5
	.loc 1 927 5
	.loc 1 940 5
	.loc 1 925 1 is_stmt 0
	addi	sp,sp,-96
	.cfi_def_cfa_offset 96
	sw	s2,80(sp)
	.cfi_offset 18, -16
	mv	s2,a0
	.loc 1 940 5
	mv	a0,sp
.LVL57:
	.loc 1 925 1
	sw	ra,92(sp)
	sw	s1,84(sp)
	sw	s4,72(sp)
	sw	s5,68(sp)
	.cfi_offset 1, -4
	.cfi_offset 9, -12
	.cfi_offset 20, -24
	.cfi_offset 21, -28
	mv	s4,a2
	mv	s5,a1
	sw	s0,88(sp)
	sw	s3,76(sp)
	sw	s6,64(sp)
	sw	s7,60(sp)
	.cfi_offset 8, -8
	.cfi_offset 19, -20
	.cfi_offset 22, -32
	.cfi_offset 23, -36
	.loc 1 940 29
	addi	s1,sp,12
	.loc 1 940 5
	call	mbedtls_mpi_init
.LVL58:
	.loc 1 940 29 is_stmt 1
	mv	a0,s1
	call	mbedtls_mpi_init
.LVL59:
	.loc 1 940 53
	addi	a0,sp,24
	call	mbedtls_mpi_init
.LVL60:
	.loc 1 940 77
	addi	a0,sp,36
	call	mbedtls_mpi_init
.LVL61:
	.loc 1 943 5
	.loc 1 943 7 is_stmt 0
	lw	a5,24(s2)
	bne	a5,zero,.L35
	.loc 1 946 9 is_stmt 1
	.loc 1 946 14
	.loc 1 946 26 is_stmt 0
	addi	a2,s4,24
	mv	a1,a2
	mv	a0,s1
	call	mbedtls_mpi_mul_mpi
.LVL62:
	mv	s0,a0
.LVL63:
	.loc 1 946 16
	bne	a0,zero,.L36
	.loc 1 946 103 is_stmt 1 discriminator 2
	.loc 1 946 108 discriminator 2
	.loc 1 946 113 discriminator 2
	.loc 1 946 125 is_stmt 0 discriminator 2
	mv	a1,s2
	mv	a0,s1
	call	ecp_modp
.LVL64:
	mv	s0,a0
.LVL65:
	.loc 1 946 115 discriminator 2
	bne	a0,zero,.L36
	.loc 1 947 9 is_stmt 1
	.loc 1 947 14
	.loc 1 947 26 is_stmt 0
	mv	a2,s1
	mv	a1,s4
	addi	a0,sp,24
	call	mbedtls_mpi_add_mpi
.LVL66:
	mv	s0,a0
.LVL67:
	.loc 1 947 107
	addi	s3,s2,4
	.loc 1 947 16
	beq	a0,zero,.L37
.L36:
	.loc 1 998 5 is_stmt 1
	mv	a0,sp
	call	mbedtls_mpi_free
.LVL68:
	.loc 1 998 29
	mv	a0,s1
	call	mbedtls_mpi_free
.LVL69:
	.loc 1 998 53
	addi	a0,sp,24
	call	mbedtls_mpi_free
.LVL70:
	.loc 1 998 77
	addi	a0,sp,36
	call	mbedtls_mpi_free
.LVL71:
	.loc 1 1000 5
	.loc 1 1001 1 is_stmt 0
	mv	a0,s0
	lw	ra,92(sp)
	.cfi_remember_state
	.cfi_restore 1
	lw	s0,88(sp)
	.cfi_restore 8
.LVL72:
	lw	s1,84(sp)
	.cfi_restore 9
	lw	s2,80(sp)
	.cfi_restore 18
.LVL73:
	lw	s3,76(sp)
	.cfi_restore 19
	lw	s4,72(sp)
	.cfi_restore 20
.LVL74:
	lw	s5,68(sp)
	.cfi_restore 21
.LVL75:
	lw	s6,64(sp)
	.cfi_restore 22
	lw	s7,60(sp)
	.cfi_restore 23
	addi	sp,sp,96
	.cfi_def_cfa_offset 0
	jr	ra
.LVL76:
.L38:
	.cfi_restore_state
	.loc 1 947 149 is_stmt 1 discriminator 5
	.loc 1 947 154 discriminator 5
	.loc 1 947 166 is_stmt 0 discriminator 5
	addi	a1,sp,24
	mv	a2,s3
	mv	a0,a1
	call	mbedtls_mpi_sub_abs
.LVL77:
	mv	s0,a0
.LVL78:
	.loc 1 947 156 discriminator 5
	bne	a0,zero,.L36
.L37:
	.loc 1 947 107 discriminator 4
	mv	a1,s3
	addi	a0,sp,24
	call	mbedtls_mpi_cmp_mpi
.LVL79:
	.loc 1 947 105 discriminator 4
	bge	a0,zero,.L38
	.loc 1 948 9 is_stmt 1
	.loc 1 948 14
	.loc 1 948 26 is_stmt 0
	mv	a2,s1
	mv	a1,s4
	addi	a0,sp,36
	call	mbedtls_mpi_sub_mpi
.LVL80:
.L86:
	.loc 1 948 171 discriminator 6
	mv	s0,a0
.LVL81:
	.loc 1 948 161 discriminator 6
	bne	a0,zero,.L36
	.loc 1 948 105 discriminator 4
	lw	a5,36(sp)
	blt	a5,zero,.L40
.L43:
	.loc 1 949 9 is_stmt 1
	.loc 1 949 14
	.loc 1 949 26 is_stmt 0
	addi	a2,sp,36
	addi	a1,sp,24
	mv	a0,s1
	call	mbedtls_mpi_mul_mpi
.LVL82:
	mv	s0,a0
.LVL83:
	.loc 1 949 16
	bne	a0,zero,.L36
	.loc 1 949 97 is_stmt 1 discriminator 2
	.loc 1 949 102 discriminator 2
	.loc 1 949 107 discriminator 2
	.loc 1 949 119 is_stmt 0 discriminator 2
	mv	a1,s2
	mv	a0,s1
	call	ecp_modp
.LVL84:
	mv	s0,a0
.LVL85:
	.loc 1 949 109 discriminator 2
	bne	a0,zero,.L36
	.loc 1 950 9 is_stmt 1
	.loc 1 950 14
	.loc 1 950 26 is_stmt 0
	li	a2,3
	mv	a1,s1
	mv	a0,sp
	call	mbedtls_mpi_mul_int
.LVL86:
.L87:
	.loc 1 950 162 discriminator 5
	mv	s0,a0
.LVL87:
	.loc 1 950 152 discriminator 5
	bne	a0,zero,.L36
	.loc 1 950 103 discriminator 4
	mv	a1,s3
	mv	a0,sp
	call	mbedtls_mpi_cmp_mpi
.LVL88:
	.loc 1 950 101 discriminator 4
	bge	a0,zero,.L45
.L49:
	.loc 1 970 5 is_stmt 1
	.loc 1 970 10
	.loc 1 970 22 is_stmt 0
	addi	s6,s4,12
	mv	a2,s6
	mv	a1,s6
	addi	a0,sp,24
	call	mbedtls_mpi_mul_mpi
.LVL89:
	mv	s0,a0
.LVL90:
	.loc 1 970 12
	bne	a0,zero,.L36
	.loc 1 970 99 is_stmt 1 discriminator 2
	.loc 1 970 104 discriminator 2
	.loc 1 970 109 discriminator 2
	.loc 1 970 121 is_stmt 0 discriminator 2
	mv	a1,s2
	addi	a0,sp,24
	call	ecp_modp
.LVL91:
	mv	s0,a0
.LVL92:
	.loc 1 970 111 discriminator 2
	bne	a0,zero,.L36
	.loc 1 971 5 is_stmt 1
	.loc 1 971 10
	.loc 1 971 22 is_stmt 0
	li	a1,1
	addi	a0,sp,24
	call	mbedtls_mpi_shift_l
.LVL93:
	mv	s0,a0
.LVL94:
	.loc 1 971 95
	addi	s3,s2,4
	.loc 1 971 12
	bne	a0,zero,.L36
.L52:
	.loc 1 971 95 discriminator 4
	mv	a1,s3
	addi	a0,sp,24
	call	mbedtls_mpi_cmp_mpi
.LVL95:
	.loc 1 971 93 discriminator 4
	bge	a0,zero,.L53
	.loc 1 972 5 is_stmt 1
	.loc 1 972 10
	.loc 1 972 22 is_stmt 0
	addi	a2,sp,24
	mv	a1,s4
	mv	a0,s1
	call	mbedtls_mpi_mul_mpi
.LVL96:
	mv	s0,a0
.LVL97:
	.loc 1 972 12
	bne	a0,zero,.L36
	.loc 1 972 96 is_stmt 1 discriminator 2
	.loc 1 972 101 discriminator 2
	.loc 1 972 106 discriminator 2
	.loc 1 972 118 is_stmt 0 discriminator 2
	mv	a1,s2
	mv	a0,s1
	call	ecp_modp
.LVL98:
	mv	s0,a0
.LVL99:
	.loc 1 972 108 discriminator 2
	bne	a0,zero,.L36
	.loc 1 973 5 is_stmt 1
	.loc 1 973 10
	.loc 1 973 22 is_stmt 0
	li	a1,1
	mv	a0,s1
	call	mbedtls_mpi_shift_l
.LVL100:
.L89:
	.loc 1 973 154 discriminator 5
	mv	s0,a0
.LVL101:
	.loc 1 973 144 discriminator 5
	bne	a0,zero,.L36
	.loc 1 973 95 discriminator 4
	mv	a1,s3
	mv	a0,s1
	call	mbedtls_mpi_cmp_mpi
.LVL102:
	.loc 1 973 93 discriminator 4
	bge	a0,zero,.L55
	.loc 1 976 5 is_stmt 1
	.loc 1 976 10
	.loc 1 976 22 is_stmt 0
	addi	a2,sp,24
	mv	a1,a2
	addi	a0,sp,36
	call	mbedtls_mpi_mul_mpi
.LVL103:
	mv	s0,a0
.LVL104:
	.loc 1 976 12
	bne	a0,zero,.L36
	.loc 1 976 93 is_stmt 1 discriminator 2
	.loc 1 976 98 discriminator 2
	.loc 1 976 103 discriminator 2
	.loc 1 976 115 is_stmt 0 discriminator 2
	mv	a1,s2
	addi	a0,sp,36
	call	ecp_modp
.LVL105:
	mv	s0,a0
.LVL106:
	.loc 1 976 105 discriminator 2
	bne	a0,zero,.L36
	.loc 1 977 5 is_stmt 1
	.loc 1 977 10
	.loc 1 977 22 is_stmt 0
	li	a1,1
	addi	a0,sp,36
	call	mbedtls_mpi_shift_l
.LVL107:
.L90:
	.loc 1 977 154 discriminator 5
	mv	s0,a0
.LVL108:
	.loc 1 977 144 discriminator 5
	bne	a0,zero,.L36
	.loc 1 977 95 discriminator 4
	mv	a1,s3
	addi	a0,sp,36
	call	mbedtls_mpi_cmp_mpi
.LVL109:
	.loc 1 977 93 discriminator 4
	bge	a0,zero,.L57
	.loc 1 980 5 is_stmt 1
	.loc 1 980 10
	.loc 1 980 22 is_stmt 0
	mv	a2,sp
	mv	a1,sp
	addi	a0,sp,24
	call	mbedtls_mpi_mul_mpi
.LVL110:
	mv	s0,a0
.LVL111:
	.loc 1 980 12
	bne	a0,zero,.L36
	.loc 1 980 93 is_stmt 1 discriminator 2
	.loc 1 980 98 discriminator 2
	.loc 1 980 103 discriminator 2
	.loc 1 980 115 is_stmt 0 discriminator 2
	mv	a1,s2
	addi	a0,sp,24
	call	ecp_modp
.LVL112:
	mv	s0,a0
.LVL113:
	.loc 1 980 105 discriminator 2
	bne	a0,zero,.L36
	.loc 1 981 5 is_stmt 1
	.loc 1 981 10
	.loc 1 981 22 is_stmt 0
	addi	a1,sp,24
	mv	a2,s1
	mv	a0,a1
	call	mbedtls_mpi_sub_mpi
.LVL114:
.L91:
	.loc 1 981 164 discriminator 6
	mv	s0,a0
.LVL115:
	.loc 1 981 154 discriminator 6
	bne	a0,zero,.L36
	.loc 1 981 98 discriminator 4
	lw	a5,24(sp)
	blt	a5,zero,.L59
.L62:
	.loc 1 982 5 is_stmt 1
	.loc 1 982 10
	.loc 1 982 22 is_stmt 0
	addi	a1,sp,24
	mv	a2,s1
	mv	a0,a1
	call	mbedtls_mpi_sub_mpi
.LVL116:
.L92:
	.loc 1 982 164 discriminator 6
	mv	s0,a0
.LVL117:
	.loc 1 982 154 discriminator 6
	bne	a0,zero,.L36
	.loc 1 982 98 discriminator 4
	lw	a5,24(sp)
	blt	a5,zero,.L63
.L66:
	.loc 1 985 5 is_stmt 1
	.loc 1 985 10
	.loc 1 985 22 is_stmt 0
	addi	a2,sp,24
	mv	a1,s1
	mv	a0,s1
	call	mbedtls_mpi_sub_mpi
.LVL118:
.L93:
	.loc 1 985 164 discriminator 6
	mv	s0,a0
.LVL119:
	.loc 1 985 154 discriminator 6
	bne	a0,zero,.L36
	.loc 1 985 98 discriminator 4
	lw	a5,12(sp)
	blt	a5,zero,.L67
.L70:
	.loc 1 986 5 is_stmt 1
	.loc 1 986 10
	.loc 1 986 22 is_stmt 0
	mv	a2,sp
	mv	a1,s1
	mv	a0,s1
	call	mbedtls_mpi_mul_mpi
.LVL120:
	mv	s0,a0
.LVL121:
	.loc 1 986 12
	bne	a0,zero,.L36
	.loc 1 986 93 is_stmt 1 discriminator 2
	.loc 1 986 98 discriminator 2
	.loc 1 986 103 discriminator 2
	.loc 1 986 115 is_stmt 0 discriminator 2
	mv	a1,s2
	mv	a0,s1
	call	ecp_modp
.LVL122:
	mv	s0,a0
.LVL123:
	.loc 1 986 105 discriminator 2
	bne	a0,zero,.L36
	.loc 1 987 5 is_stmt 1
	.loc 1 987 10
	.loc 1 987 22 is_stmt 0
	addi	a2,sp,36
	mv	a1,s1
	mv	a0,s1
	call	mbedtls_mpi_sub_mpi
.LVL124:
	mv	s0,a0
.LVL125:
	.loc 1 987 111
	mv	s7,s1
	.loc 1 987 12
	bne	a0,zero,.L36
.L71:
	.loc 1 987 98 discriminator 4
	lw	a5,12(sp)
	blt	a5,zero,.L72
.L75:
	.loc 1 990 5 is_stmt 1
	.loc 1 990 10
	.loc 1 990 22 is_stmt 0
	addi	a2,s4,24
	mv	a1,s6
	addi	a0,sp,36
	call	mbedtls_mpi_mul_mpi
.LVL126:
	mv	s0,a0
.LVL127:
	.loc 1 990 12
	bne	a0,zero,.L36
	.loc 1 990 99 is_stmt 1 discriminator 2
	.loc 1 990 104 discriminator 2
	.loc 1 990 109 discriminator 2
	.loc 1 990 121 is_stmt 0 discriminator 2
	mv	a1,s2
	addi	a0,sp,36
	call	ecp_modp
.LVL128:
	mv	s0,a0
.LVL129:
	.loc 1 990 111 discriminator 2
	bne	a0,zero,.L36
	.loc 1 991 5 is_stmt 1
	.loc 1 991 10
	.loc 1 991 22 is_stmt 0
	li	a1,1
	addi	a0,sp,36
	call	mbedtls_mpi_shift_l
.LVL130:
.L94:
	.loc 1 991 154 discriminator 5
	mv	s0,a0
.LVL131:
	.loc 1 991 144 discriminator 5
	bne	a0,zero,.L36
	.loc 1 991 95 discriminator 4
	mv	a1,s3
	addi	a0,sp,36
	call	mbedtls_mpi_cmp_mpi
.LVL132:
	.loc 1 991 93 discriminator 4
	bge	a0,zero,.L77
	.loc 1 993 5 is_stmt 1
	.loc 1 993 10
	.loc 1 993 22 is_stmt 0
	addi	a1,sp,24
	mv	a0,s5
	call	mbedtls_mpi_copy
.LVL133:
	mv	s0,a0
.LVL134:
	.loc 1 993 12
	bne	a0,zero,.L36
	.loc 1 994 5 is_stmt 1
	.loc 1 994 10
	.loc 1 994 22 is_stmt 0
	addi	a1,sp,12
	addi	a0,s5,12
	call	mbedtls_mpi_copy
.LVL135:
	mv	s0,a0
.LVL136:
	.loc 1 994 12
	bne	a0,zero,.L36
	.loc 1 995 5 is_stmt 1
	.loc 1 995 10
	.loc 1 995 22 is_stmt 0
	addi	a1,sp,36
	addi	a0,s5,24
	call	mbedtls_mpi_copy
.LVL137:
	mv	s0,a0
.LVL138:
	.loc 1 997 1
	j	.L36
.L40:
	.loc 1 948 118 discriminator 5
	li	a1,0
	addi	a0,sp,36
	call	mbedtls_mpi_cmp_int
.LVL139:
	.loc 1 948 115 discriminator 5
	beq	a0,zero,.L43
	.loc 1 948 154 is_stmt 1 discriminator 6
	.loc 1 948 159 discriminator 6
	.loc 1 948 171 is_stmt 0 discriminator 6
	addi	a1,sp,36
	mv	a2,s3
	mv	a0,a1
	call	mbedtls_mpi_add_mpi
.LVL140:
	j	.L86
.L45:
	.loc 1 950 145 is_stmt 1 discriminator 5
	.loc 1 950 150 discriminator 5
	.loc 1 950 162 is_stmt 0 discriminator 5
	mv	a2,s3
	mv	a1,sp
	mv	a0,sp
	call	mbedtls_mpi_sub_abs
.LVL141:
	j	.L87
.LVL142:
.L35:
	.loc 1 955 9 is_stmt 1
	.loc 1 955 14
	.loc 1 955 26 is_stmt 0
	mv	a2,s4
	mv	a1,s4
	mv	a0,s1
	call	mbedtls_mpi_mul_mpi
.LVL143:
	mv	s0,a0
.LVL144:
	.loc 1 955 16
	bne	a0,zero,.L36
	.loc 1 955 103 is_stmt 1 discriminator 2
	.loc 1 955 108 discriminator 2
	.loc 1 955 113 discriminator 2
	.loc 1 955 125 is_stmt 0 discriminator 2
	mv	a1,s2
	mv	a0,s1
	call	ecp_modp
.LVL145:
	mv	s0,a0
.LVL146:
	.loc 1 955 115 discriminator 2
	bne	a0,zero,.L36
	.loc 1 956 9 is_stmt 1
	.loc 1 956 14
	.loc 1 956 26 is_stmt 0
	li	a2,3
	mv	a1,s1
	mv	a0,sp
	call	mbedtls_mpi_mul_int
.LVL147:
	mv	s0,a0
.LVL148:
	.loc 1 956 103
	addi	s3,s2,4
	.loc 1 956 16
	bne	a0,zero,.L36
.L47:
	.loc 1 956 103 discriminator 4
	mv	a1,s3
	mv	a0,sp
	call	mbedtls_mpi_cmp_mpi
.LVL149:
	.loc 1 956 101 discriminator 4
	bge	a0,zero,.L48
	.loc 1 959 9 is_stmt 1
	.loc 1 959 13 is_stmt 0
	addi	s6,s2,16
	li	a1,0
	mv	a0,s6
	call	mbedtls_mpi_cmp_int
.LVL150:
	.loc 1 959 11
	beq	a0,zero,.L49
	.loc 1 962 13 is_stmt 1
	.loc 1 962 18
	.loc 1 962 30 is_stmt 0
	addi	a2,s4,24
	mv	a1,a2
	mv	a0,s1
	call	mbedtls_mpi_mul_mpi
.LVL151:
	mv	s0,a0
.LVL152:
	.loc 1 962 20
	bne	a0,zero,.L36
	.loc 1 962 107 is_stmt 1 discriminator 2
	.loc 1 962 112 discriminator 2
	.loc 1 962 117 discriminator 2
	.loc 1 962 129 is_stmt 0 discriminator 2
	mv	a1,s2
	mv	a0,s1
	call	ecp_modp
.LVL153:
	mv	s0,a0
.LVL154:
	.loc 1 962 119 discriminator 2
	bne	a0,zero,.L36
	.loc 1 963 13 is_stmt 1
	.loc 1 963 18
	.loc 1 963 30 is_stmt 0
	mv	a2,s1
	mv	a1,s1
	addi	a0,sp,24
	call	mbedtls_mpi_mul_mpi
.LVL155:
	mv	s0,a0
.LVL156:
	.loc 1 963 20
	bne	a0,zero,.L36
	.loc 1 963 101 is_stmt 1 discriminator 2
	.loc 1 963 106 discriminator 2
	.loc 1 963 111 discriminator 2
	.loc 1 963 123 is_stmt 0 discriminator 2
	mv	a1,s2
	addi	a0,sp,24
	call	ecp_modp
.LVL157:
	mv	s0,a0
.LVL158:
	.loc 1 963 113 discriminator 2
	bne	a0,zero,.L36
	.loc 1 964 13 is_stmt 1
	.loc 1 964 18
	.loc 1 964 30 is_stmt 0
	mv	a2,s6
	addi	a1,sp,24
	mv	a0,s1
	call	mbedtls_mpi_mul_mpi
.LVL159:
	mv	s0,a0
.LVL160:
	.loc 1 964 20
	bne	a0,zero,.L36
	.loc 1 964 106 is_stmt 1 discriminator 2
	.loc 1 964 111 discriminator 2
	.loc 1 964 116 discriminator 2
	.loc 1 964 128 is_stmt 0 discriminator 2
	mv	a1,s2
	mv	a0,s1
	call	ecp_modp
.LVL161:
	mv	s0,a0
.LVL162:
	.loc 1 964 118 discriminator 2
	bne	a0,zero,.L36
	.loc 1 965 13 is_stmt 1
	.loc 1 965 18
	.loc 1 965 30 is_stmt 0
	mv	a2,s1
	mv	a1,sp
	mv	a0,sp
	call	mbedtls_mpi_add_mpi
.LVL163:
.L88:
	.loc 1 965 167 discriminator 5
	mv	s0,a0
.LVL164:
	.loc 1 965 157 discriminator 5
	bne	a0,zero,.L36
	.loc 1 965 108 discriminator 4
	mv	a1,s3
	mv	a0,sp
	call	mbedtls_mpi_cmp_mpi
.LVL165:
	.loc 1 965 106 discriminator 4
	blt	a0,zero,.L49
	.loc 1 965 150 is_stmt 1 discriminator 5
	.loc 1 965 155 discriminator 5
	.loc 1 965 167 is_stmt 0 discriminator 5
	mv	a2,s3
	mv	a1,sp
	mv	a0,sp
	call	mbedtls_mpi_sub_abs
.LVL166:
	j	.L88
.L48:
	.loc 1 956 145 is_stmt 1 discriminator 5
	.loc 1 956 150 discriminator 5
	.loc 1 956 162 is_stmt 0 discriminator 5
	mv	a2,s3
	mv	a1,sp
	mv	a0,sp
	call	mbedtls_mpi_sub_abs
.LVL167:
	mv	s0,a0
.LVL168:
	.loc 1 956 152 discriminator 5
	beq	a0,zero,.L47
	j	.L36
.L53:
	.loc 1 971 137 is_stmt 1 discriminator 5
	.loc 1 971 142 discriminator 5
	.loc 1 971 154 is_stmt 0 discriminator 5
	addi	a1,sp,24
	mv	a2,s3
	mv	a0,a1
	call	mbedtls_mpi_sub_abs
.LVL169:
	mv	s0,a0
.LVL170:
	.loc 1 971 144 discriminator 5
	beq	a0,zero,.L52
	j	.L36
.L55:
	.loc 1 973 137 is_stmt 1 discriminator 5
	.loc 1 973 142 discriminator 5
	.loc 1 973 154 is_stmt 0 discriminator 5
	mv	a2,s3
	mv	a1,s1
	mv	a0,s1
	call	mbedtls_mpi_sub_abs
.LVL171:
	j	.L89
.L57:
	.loc 1 977 137 is_stmt 1 discriminator 5
	.loc 1 977 142 discriminator 5
	.loc 1 977 154 is_stmt 0 discriminator 5
	addi	a1,sp,36
	mv	a2,s3
	mv	a0,a1
	call	mbedtls_mpi_sub_abs
.LVL172:
	j	.L90
.L59:
	.loc 1 981 111 discriminator 5
	li	a1,0
	addi	a0,sp,24
	call	mbedtls_mpi_cmp_int
.LVL173:
	.loc 1 981 108 discriminator 5
	beq	a0,zero,.L62
	.loc 1 981 147 is_stmt 1 discriminator 6
	.loc 1 981 152 discriminator 6
	.loc 1 981 164 is_stmt 0 discriminator 6
	addi	a1,sp,24
	mv	a2,s3
	mv	a0,a1
	call	mbedtls_mpi_add_mpi
.LVL174:
	j	.L91
.L63:
	.loc 1 982 111 discriminator 5
	li	a1,0
	addi	a0,sp,24
	call	mbedtls_mpi_cmp_int
.LVL175:
	.loc 1 982 108 discriminator 5
	beq	a0,zero,.L66
	.loc 1 982 147 is_stmt 1 discriminator 6
	.loc 1 982 152 discriminator 6
	.loc 1 982 164 is_stmt 0 discriminator 6
	addi	a1,sp,24
	mv	a2,s3
	mv	a0,a1
	call	mbedtls_mpi_add_mpi
.LVL176:
	j	.L92
.L67:
	.loc 1 985 111 discriminator 5
	li	a1,0
	mv	a0,s1
	call	mbedtls_mpi_cmp_int
.LVL177:
	.loc 1 985 108 discriminator 5
	beq	a0,zero,.L70
	.loc 1 985 147 is_stmt 1 discriminator 6
	.loc 1 985 152 discriminator 6
	.loc 1 985 164 is_stmt 0 discriminator 6
	mv	a2,s3
	mv	a1,s1
	mv	a0,s1
	call	mbedtls_mpi_add_mpi
.LVL178:
	j	.L93
.L72:
	.loc 1 987 111 discriminator 5
	li	a1,0
	mv	a0,s7
	call	mbedtls_mpi_cmp_int
.LVL179:
	.loc 1 987 108 discriminator 5
	beq	a0,zero,.L75
	.loc 1 987 147 is_stmt 1 discriminator 6
	.loc 1 987 152 discriminator 6
	.loc 1 987 164 is_stmt 0 discriminator 6
	mv	a2,s3
	mv	a1,s7
	mv	a0,s7
	call	mbedtls_mpi_add_mpi
.LVL180:
	mv	s0,a0
.LVL181:
	.loc 1 987 154 discriminator 6
	beq	a0,zero,.L71
	j	.L36
.L77:
	.loc 1 991 137 is_stmt 1 discriminator 5
	.loc 1 991 142 discriminator 5
	.loc 1 991 154 is_stmt 0 discriminator 5
	addi	a1,sp,36
	mv	a2,s3
	mv	a0,a1
	call	mbedtls_mpi_sub_abs
.LVL182:
	j	.L94
	.cfi_endproc
.LFE34:
	.size	ecp_double_jac, .-ecp_double_jac
	.section	.text.ecp_normalize_jac,"ax",@progbits
	.align	1
	.type	ecp_normalize_jac, @function
ecp_normalize_jac:
.LFB31:
	.loc 1 749 1 is_stmt 1
	.cfi_startproc
.LVL183:
	.loc 1 750 5
	.loc 1 751 5
	.loc 1 753 5
	.loc 1 749 1 is_stmt 0
	addi	sp,sp,-64
	.cfi_def_cfa_offset 64
	sw	s3,44(sp)
	.cfi_offset 19, -20
	.loc 1 753 30
	addi	s3,a1,24
	.loc 1 749 1
	sw	s1,52(sp)
	sw	s2,48(sp)
	.cfi_offset 9, -12
	.cfi_offset 18, -16
	mv	s1,a1
	mv	s2,a0
	.loc 1 753 9
	li	a1,0
.LVL184:
	mv	a0,s3
.LVL185:
	.loc 1 749 1
	sw	s0,56(sp)
	sw	ra,60(sp)
	.cfi_offset 8, -8
	.cfi_offset 1, -4
	.loc 1 753 9
	call	mbedtls_mpi_cmp_int
.LVL186:
	mv	s0,a0
	.loc 1 753 7
	beq	a0,zero,.L95
	.loc 1 762 5 is_stmt 1
	addi	a0,sp,8
	call	mbedtls_mpi_init
.LVL187:
	.loc 1 762 30
	addi	a0,sp,20
	call	mbedtls_mpi_init
.LVL188:
	.loc 1 767 5
	.loc 1 767 10
	.loc 1 767 22 is_stmt 0
	addi	a2,s2,4
	mv	a1,s3
	addi	a0,sp,8
	call	mbedtls_mpi_inv_mod
.LVL189:
	mv	s0,a0
.LVL190:
	.loc 1 767 12
	bne	a0,zero,.L97
	.loc 1 768 5 is_stmt 1
	.loc 1 768 10
	.loc 1 768 22 is_stmt 0
	addi	a2,sp,8
	mv	a1,a2
	addi	a0,sp,20
	call	mbedtls_mpi_mul_mpi
.LVL191:
	mv	s0,a0
.LVL192:
	.loc 1 768 12
	bne	a0,zero,.L97
	.loc 1 768 97 is_stmt 1 discriminator 2
	.loc 1 768 102 discriminator 2
	.loc 1 768 107 discriminator 2
	.loc 1 768 119 is_stmt 0 discriminator 2
	mv	a1,s2
	addi	a0,sp,20
	call	ecp_modp
.LVL193:
	mv	s0,a0
.LVL194:
	.loc 1 768 109 discriminator 2
	bne	a0,zero,.L97
	.loc 1 769 5 is_stmt 1
	.loc 1 769 10
	.loc 1 769 22 is_stmt 0
	addi	a2,sp,20
	mv	a1,s1
	mv	a0,s1
	call	mbedtls_mpi_mul_mpi
.LVL195:
	mv	s0,a0
.LVL196:
	.loc 1 769 12
	bne	a0,zero,.L97
	.loc 1 769 103 is_stmt 1 discriminator 2
	.loc 1 769 108 discriminator 2
	.loc 1 769 113 discriminator 2
	.loc 1 769 125 is_stmt 0 discriminator 2
	mv	a1,s2
	mv	a0,s1
	call	ecp_modp
.LVL197:
	mv	s0,a0
.LVL198:
	.loc 1 769 115 discriminator 2
	bne	a0,zero,.L97
	.loc 1 774 5 is_stmt 1
	.loc 1 774 10
	.loc 1 774 22 is_stmt 0
	addi	s1,s1,12
.LVL199:
	addi	a2,sp,20
	mv	a1,s1
	mv	a0,s1
	call	mbedtls_mpi_mul_mpi
.LVL200:
	mv	s0,a0
.LVL201:
	.loc 1 774 12
	bne	a0,zero,.L97
	.loc 1 774 103 is_stmt 1 discriminator 2
	.loc 1 774 108 discriminator 2
	.loc 1 774 113 discriminator 2
	.loc 1 774 125 is_stmt 0 discriminator 2
	mv	a1,s2
	mv	a0,s1
	call	ecp_modp
.LVL202:
	mv	s0,a0
.LVL203:
	.loc 1 774 115 discriminator 2
	bne	a0,zero,.L97
	.loc 1 775 5 is_stmt 1
	.loc 1 775 10
	.loc 1 775 22 is_stmt 0
	addi	a2,sp,8
	mv	a1,s1
	mv	a0,s1
	call	mbedtls_mpi_mul_mpi
.LVL204:
	mv	s0,a0
.LVL205:
	.loc 1 775 12
	bne	a0,zero,.L97
	.loc 1 775 102 is_stmt 1 discriminator 2
	.loc 1 775 107 discriminator 2
	.loc 1 775 112 discriminator 2
	.loc 1 775 124 is_stmt 0 discriminator 2
	mv	a1,s2
	mv	a0,s1
	call	ecp_modp
.LVL206:
	mv	s0,a0
.LVL207:
	.loc 1 775 114 discriminator 2
	bne	a0,zero,.L97
	.loc 1 780 5 is_stmt 1
	.loc 1 780 10
	.loc 1 780 22 is_stmt 0
	li	a1,1
	mv	a0,s3
	call	mbedtls_mpi_lset
.LVL208:
	mv	s0,a0
.LVL209:
.L97:
	.loc 1 784 5 is_stmt 1
	addi	a0,sp,8
	call	mbedtls_mpi_free
.LVL210:
	.loc 1 784 30
	addi	a0,sp,20
	call	mbedtls_mpi_free
.LVL211:
	.loc 1 786 5
.L95:
	.loc 1 787 1 is_stmt 0
	mv	a0,s0
	lw	ra,60(sp)
	.cfi_restore 1
	lw	s0,56(sp)
	.cfi_restore 8
	lw	s1,52(sp)
	.cfi_restore 9
	lw	s2,48(sp)
	.cfi_restore 18
.LVL212:
	lw	s3,44(sp)
	.cfi_restore 19
.LVL213:
	addi	sp,sp,64
	.cfi_def_cfa_offset 0
	jr	ra
	.cfi_endproc
.LFE31:
	.size	ecp_normalize_jac, .-ecp_normalize_jac
	.section	.text.ecp_normalize_jac_many,"ax",@progbits
	.align	1
	.type	ecp_normalize_jac_many, @function
ecp_normalize_jac_many:
.LFB32:
	.loc 1 802 1 is_stmt 1
	.cfi_startproc
.LVL214:
	.loc 1 803 5
	.loc 1 804 5
	.loc 1 805 5
	.loc 1 807 5
	.loc 1 802 1 is_stmt 0
	addi	sp,sp,-96
	.cfi_def_cfa_offset 96
	sw	s1,84(sp)
	sw	ra,92(sp)
	sw	s0,88(sp)
	sw	s2,80(sp)
	sw	s3,76(sp)
	sw	s4,72(sp)
	sw	s5,68(sp)
	sw	s6,64(sp)
	sw	s7,60(sp)
	.cfi_offset 9, -12
	.cfi_offset 1, -4
	.cfi_offset 8, -8
	.cfi_offset 18, -16
	.cfi_offset 19, -20
	.cfi_offset 20, -24
	.cfi_offset 21, -28
	.cfi_offset 22, -32
	.cfi_offset 23, -36
	.loc 1 807 7
	li	a5,1
	.loc 1 802 1
	mv	s1,a1
	.loc 1 807 7
	bgtu	a2,a5,.L104
	.loc 1 808 9 is_stmt 1
	.loc 1 808 17 is_stmt 0
	lw	a1,0(a1)
.LVL215:
	call	ecp_normalize_jac
.LVL216:
	mv	s0,a0
.LVL217:
.L103:
	.loc 1 882 1
	mv	a0,s0
	lw	ra,92(sp)
	.cfi_remember_state
	.cfi_restore 1
	lw	s0,88(sp)
	.cfi_restore 8
	lw	s1,84(sp)
	.cfi_restore 9
	lw	s2,80(sp)
	.cfi_restore 18
	lw	s3,76(sp)
	.cfi_restore 19
	lw	s4,72(sp)
	.cfi_restore 20
	lw	s5,68(sp)
	.cfi_restore 21
	lw	s6,64(sp)
	.cfi_restore 22
	lw	s7,60(sp)
	.cfi_restore 23
	addi	sp,sp,96
	.cfi_def_cfa_offset 0
	jr	ra
.LVL218:
.L104:
	.cfi_restore_state
	mv	s3,a0
	.loc 1 817 15
	li	a1,12
	mv	a0,a2
.LVL219:
	mv	s2,a2
	.loc 1 817 5 is_stmt 1
	.loc 1 817 15 is_stmt 0
	call	mycalloc
.LVL220:
	mv	s4,a0
.LVL221:
	.loc 1 817 7
	beq	a0,zero,.L113
	.loc 1 820 5 is_stmt 1
	addi	a0,sp,12
.LVL222:
	call	mbedtls_mpi_init
.LVL223:
	.loc 1 820 29
	addi	a0,sp,24
	call	mbedtls_mpi_init
.LVL224:
	.loc 1 820 54
	addi	a0,sp,36
	call	mbedtls_mpi_init
.LVL225:
	.loc 1 825 5
	.loc 1 825 10
	.loc 1 825 47 is_stmt 0
	lw	a1,0(s1)
	.loc 1 825 22
	mv	a0,s4
	addi	a1,a1,24
	call	mbedtls_mpi_copy
.LVL226:
	mv	s0,a0
.LVL227:
	.loc 1 825 12
	bne	a0,zero,.L106
	addi	s6,s4,12
	.loc 1 826 12
	li	s5,1
.L107:
.LVL228:
	.loc 1 828 9 is_stmt 1
	.loc 1 828 14
	.loc 1 828 65 is_stmt 0
	slli	a5,s5,2
	add	a5,s1,a5
	.loc 1 828 63
	lw	a2,0(a5)
	.loc 1 828 26
	addi	a1,s6,-12
	mv	a0,s6
	addi	a2,a2,24
	call	mbedtls_mpi_mul_mpi
.LVL229:
	mv	s0,a0
.LVL230:
	.loc 1 828 16
	bne	a0,zero,.L106
	.loc 1 829 9 is_stmt 1
	.loc 1 829 14
	.loc 1 829 19
	.loc 1 829 31 is_stmt 0
	mv	a1,s3
	mv	a0,s6
	call	ecp_modp
.LVL231:
	mv	s0,a0
.LVL232:
	.loc 1 829 21
	bne	a0,zero,.L106
	.loc 1 826 29 discriminator 2
	addi	a5,s5,1
.LVL233:
	addi	s6,s6,12
	.loc 1 826 5 discriminator 2
	bne	s2,a5,.L114
	.loc 1 835 5 is_stmt 1
	.loc 1 835 10
	.loc 1 835 49 is_stmt 0
	li	a1,12
	mul	a1,s2,a1
	.loc 1 835 22
	addi	a2,s3,4
	addi	a0,sp,12
	.loc 1 835 49
	addi	a1,a1,-12
	.loc 1 835 22
	add	a1,s4,a1
	call	mbedtls_mpi_inv_mod
.LVL234:
	mv	s0,a0
.LVL235:
	.loc 1 835 12
	bne	a0,zero,.L106
	.loc 1 837 5 is_stmt 1
.LVL236:
	slli	a5,s2,2
	add	s1,s1,a5
.LVL237:
	.loc 1 848 30 is_stmt 0
	addi	s6,s4,-12
	li	s7,12
.L111:
	.loc 1 843 9 is_stmt 1
	.loc 1 843 11 is_stmt 0
	bne	s5,zero,.L108
	.loc 1 844 13 is_stmt 1
	.loc 1 844 18
	.loc 1 844 30 is_stmt 0
	addi	a1,sp,12
	addi	a0,sp,24
	call	mbedtls_mpi_copy
.LVL238:
.L121:
	mv	s0,a0
.LVL239:
	.loc 1 844 20
	bne	a0,zero,.L106
	.loc 1 855 9 is_stmt 1
	.loc 1 855 14
	.loc 1 855 26 is_stmt 0
	addi	a2,sp,24
	mv	a1,a2
	addi	a0,sp,36
	call	mbedtls_mpi_mul_mpi
.LVL240:
	mv	s0,a0
.LVL241:
	.loc 1 855 16
	beq	a0,zero,.L119
.LVL242:
.L106:
	.loc 1 876 5 is_stmt 1
	addi	a0,sp,12
	call	mbedtls_mpi_free
.LVL243:
	.loc 1 876 29
	addi	a0,sp,24
	call	mbedtls_mpi_free
.LVL244:
	.loc 1 876 54
	addi	a0,sp,36
	call	mbedtls_mpi_free
.LVL245:
	.loc 1 877 5
	li	a5,12
	mul	s2,s2,a5
.LVL246:
	mv	s1,s4
	add	s2,s2,s4
.LVL247:
.L112:
	.loc 1 878 9 discriminator 3
	mv	a0,s1
	addi	s1,s1,12
	call	mbedtls_mpi_free
.LVL248:
	.loc 1 877 5 is_stmt 0 discriminator 3
	bne	s2,s1,.L112
	.loc 1 879 5 is_stmt 1
	mv	a0,s4
	call	vPortFree
.LVL249:
	.loc 1 881 5
	.loc 1 881 11 is_stmt 0
	j	.L103
.LVL250:
.L114:
	mv	s5,a5
	j	.L107
.LVL251:
.L108:
	.loc 1 848 13 is_stmt 1
	.loc 1 848 18
	.loc 1 848 30 is_stmt 0
	mul	a2,s5,s7
	addi	a1,sp,12
	addi	a0,sp,24
	add	a2,s6,a2
	call	mbedtls_mpi_mul_mpi
.LVL252:
	mv	s0,a0
.LVL253:
	.loc 1 848 20
	bne	a0,zero,.L106
	.loc 1 848 107 is_stmt 1 discriminator 2
	.loc 1 848 112 discriminator 2
	.loc 1 848 117 discriminator 2
	.loc 1 848 129 is_stmt 0 discriminator 2
	mv	a1,s3
	addi	a0,sp,24
	call	ecp_modp
.LVL254:
	mv	s0,a0
.LVL255:
	.loc 1 848 119 discriminator 2
	bne	a0,zero,.L106
	.loc 1 849 13 is_stmt 1
	.loc 1 849 18
	.loc 1 849 59 is_stmt 0
	lw	a2,-4(s1)
	.loc 1 849 30
	addi	a1,sp,12
	mv	a0,a1
	addi	a2,a2,24
	call	mbedtls_mpi_mul_mpi
.LVL256:
	mv	s0,a0
.LVL257:
	.loc 1 849 20
	bne	a0,zero,.L106
	.loc 1 849 107 is_stmt 1 discriminator 2
	.loc 1 849 112 discriminator 2
	.loc 1 849 117 discriminator 2
	.loc 1 849 129 is_stmt 0 discriminator 2
	mv	a1,s3
	addi	a0,sp,12
	call	ecp_modp
.LVL258:
	j	.L121
.L119:
	.loc 1 855 101 is_stmt 1 discriminator 2
	.loc 1 855 106 discriminator 2
	.loc 1 855 111 discriminator 2
	.loc 1 855 123 is_stmt 0 discriminator 2
	mv	a1,s3
	addi	a0,sp,36
	call	ecp_modp
.LVL259:
	mv	s0,a0
.LVL260:
	.loc 1 855 113 discriminator 2
	bne	a0,zero,.L106
	.loc 1 856 9 is_stmt 1
	.loc 1 856 14
	.loc 1 856 26 is_stmt 0
	lw	a1,-4(s1)
	addi	a2,sp,36
	mv	a0,a1
	call	mbedtls_mpi_mul_mpi
.LVL261:
	mv	s0,a0
.LVL262:
	.loc 1 856 16
	bne	a0,zero,.L106
	.loc 1 856 111 is_stmt 1 discriminator 2
	.loc 1 856 116 discriminator 2
	.loc 1 856 121 discriminator 2
	.loc 1 856 133 is_stmt 0 discriminator 2
	lw	a0,-4(s1)
	mv	a1,s3
	call	ecp_modp
.LVL263:
	mv	s0,a0
.LVL264:
	.loc 1 856 123 discriminator 2
	bne	a0,zero,.L106
	.loc 1 857 9 is_stmt 1
	.loc 1 857 14
	.loc 1 857 26 is_stmt 0
	lw	a1,-4(s1)
	addi	a2,sp,36
	addi	a1,a1,12
	mv	a0,a1
	call	mbedtls_mpi_mul_mpi
.LVL265:
	mv	s0,a0
.LVL266:
	.loc 1 857 16
	bne	a0,zero,.L106
	.loc 1 857 111 is_stmt 1 discriminator 2
	.loc 1 857 116 discriminator 2
	.loc 1 857 121 discriminator 2
	.loc 1 857 133 is_stmt 0 discriminator 2
	lw	a0,-4(s1)
	mv	a1,s3
	addi	a0,a0,12
	call	ecp_modp
.LVL267:
	mv	s0,a0
.LVL268:
	.loc 1 857 123 discriminator 2
	bne	a0,zero,.L106
	.loc 1 858 9 is_stmt 1
	.loc 1 858 14
	.loc 1 858 26 is_stmt 0
	lw	a1,-4(s1)
	addi	a2,sp,24
	addi	a1,a1,12
	mv	a0,a1
	call	mbedtls_mpi_mul_mpi
.LVL269:
	mv	s0,a0
.LVL270:
	.loc 1 858 16
	bne	a0,zero,.L106
	.loc 1 858 110 is_stmt 1 discriminator 2
	.loc 1 858 115 discriminator 2
	.loc 1 858 120 discriminator 2
	.loc 1 858 132 is_stmt 0 discriminator 2
	lw	a0,-4(s1)
	mv	a1,s3
	addi	a0,a0,12
	call	ecp_modp
.LVL271:
	mv	s0,a0
.LVL272:
	.loc 1 858 122 discriminator 2
	bne	a0,zero,.L106
	.loc 1 866 9 is_stmt 1
	.loc 1 866 14
	.loc 1 866 26 is_stmt 0
	lw	a1,8(s3)
	lw	a0,-4(s1)
	call	mbedtls_mpi_shrink
.LVL273:
	mv	s0,a0
.LVL274:
	.loc 1 866 16
	bne	a0,zero,.L106
	.loc 1 867 9 is_stmt 1
	.loc 1 867 14
	.loc 1 867 26 is_stmt 0
	lw	a0,-4(s1)
	lw	a1,8(s3)
	addi	a0,a0,12
	call	mbedtls_mpi_shrink
.LVL275:
	mv	s0,a0
.LVL276:
	.loc 1 867 16
	bne	a0,zero,.L106
	.loc 1 868 9 is_stmt 1
	lw	a0,-4(s1)
	addi	s1,s1,-4
	addi	a0,a0,24
	call	mbedtls_mpi_free
.LVL277:
	.loc 1 870 9
	.loc 1 870 11 is_stmt 0
	beq	s5,zero,.L106
	.loc 1 837 28
	addi	s5,s5,-1
.LVL278:
	.loc 1 843 11
	j	.L111
.LVL279:
.L113:
	.loc 1 818 15
	li	s0,-20480
	addi	s0,s0,640
	j	.L103
	.cfi_endproc
.LFE32:
	.size	ecp_normalize_jac_many, .-ecp_normalize_jac_many
	.section	.text.mbedtls_ecp_point_init.part.2,"ax",@progbits
	.align	1
	.type	mbedtls_ecp_point_init.part.2, @function
mbedtls_ecp_point_init.part.2:
.LFB54:
	.loc 1 276 6 is_stmt 1
	.cfi_startproc
.LVL280:
	.loc 1 281 5
	.loc 1 276 6 is_stmt 0
	addi	sp,sp,-16
	.cfi_def_cfa_offset 16
	sw	ra,12(sp)
	sw	s0,8(sp)
	.cfi_offset 1, -4
	.cfi_offset 8, -8
	.loc 1 276 6
	mv	s0,a0
	.loc 1 281 5
	call	mbedtls_mpi_init
.LVL281:
	.loc 1 282 5 is_stmt 1
	addi	a0,s0,12
	call	mbedtls_mpi_init
.LVL282:
	.loc 1 283 5
	addi	a0,s0,24
	.loc 1 284 1 is_stmt 0
	lw	s0,8(sp)
	.cfi_restore 8
.LVL283:
	lw	ra,12(sp)
	.cfi_restore 1
	addi	sp,sp,16
	.cfi_def_cfa_offset 0
	.loc 1 283 5
	tail	mbedtls_mpi_init
.LVL284:
	.cfi_endproc
.LFE54:
	.size	mbedtls_ecp_point_init.part.2, .-mbedtls_ecp_point_init.part.2
	.section	.text.mbedtls_ecp_point_free.part.4,"ax",@progbits
	.align	1
	.type	mbedtls_ecp_point_free.part.4, @function
mbedtls_ecp_point_free.part.4:
.LFB56:
	.loc 1 313 6 is_stmt 1
	.cfi_startproc
.LVL285:
	.loc 1 318 5
	.loc 1 313 6 is_stmt 0
	addi	sp,sp,-16
	.cfi_def_cfa_offset 16
	sw	ra,12(sp)
	sw	s0,8(sp)
	.cfi_offset 1, -4
	.cfi_offset 8, -8
	.loc 1 313 6
	mv	s0,a0
	.loc 1 318 5
	call	mbedtls_mpi_free
.LVL286:
	.loc 1 319 5 is_stmt 1
	addi	a0,s0,12
	call	mbedtls_mpi_free
.LVL287:
	.loc 1 320 5
	addi	a0,s0,24
	.loc 1 321 1 is_stmt 0
	lw	s0,8(sp)
	.cfi_restore 8
.LVL288:
	lw	ra,12(sp)
	.cfi_restore 1
	addi	sp,sp,16
	.cfi_def_cfa_offset 0
	.loc 1 320 5
	tail	mbedtls_mpi_free
.LVL289:
	.cfi_endproc
.LFE56:
	.size	mbedtls_ecp_point_free.part.4, .-mbedtls_ecp_point_free.part.4
	.section	.text.mbedtls_ecp_curve_list,"ax",@progbits
	.align	1
	.globl	mbedtls_ecp_curve_list
	.type	mbedtls_ecp_curve_list, @function
mbedtls_ecp_curve_list:
.LFB6:
	.loc 1 175 1 is_stmt 1
	.cfi_startproc
	.loc 1 176 5
	.loc 1 176 11 is_stmt 0
	lui	a0,%hi(.LANCHOR0)
	.loc 1 177 1
	addi	a0,a0,%lo(.LANCHOR0)
	ret
	.cfi_endproc
.LFE6:
	.size	mbedtls_ecp_curve_list, .-mbedtls_ecp_curve_list
	.section	.text.mbedtls_ecp_grp_id_list,"ax",@progbits
	.align	1
	.globl	mbedtls_ecp_grp_id_list
	.type	mbedtls_ecp_grp_id_list, @function
mbedtls_ecp_grp_id_list:
.LFB7:
	.loc 1 183 1 is_stmt 1
	.cfi_startproc
	.loc 1 184 5
	.loc 1 186 5
	.loc 1 186 9 is_stmt 0
	lui	a5,%hi(.LANCHOR1)
	.loc 1 186 7
	lw	a3,%lo(.LANCHOR1)(a5)
	addi	a4,a5,%lo(.LANCHOR1)
	lui	a0,%hi(.LANCHOR2)
	beq	a3,zero,.L131
.L129:
	.loc 1 202 5 is_stmt 1
	.loc 1 203 1 is_stmt 0
	addi	a0,a0,%lo(.LANCHOR2)
	ret
.LVL290:
.L130:
.LBB39:
	.loc 1 195 13 is_stmt 1
	.loc 1 195 39 is_stmt 0
	add	a6,a3,a2
	sb	a1,0(a6)
	.loc 1 193 24
	addi	a5,a5,12
.LVL291:
	addi	a2,a2,1
.LVL292:
.L128:
	.loc 1 192 24 discriminator 1
	lbu	a1,0(a5)
	.loc 1 191 9 discriminator 1
	bne	a1,zero,.L130
	.loc 1 197 9 is_stmt 1
	.loc 1 197 33 is_stmt 0
	add	a3,a3,a2
	.loc 1 199 19
	li	a5,1
.LVL293:
	.loc 1 197 33
	sb	zero,0(a3)
	.loc 1 199 9 is_stmt 1
	.loc 1 199 19 is_stmt 0
	sw	a5,0(a4)
	j	.L129
.LVL294:
.L131:
	.loc 1 191 27
	lui	a5,%hi(.LANCHOR0)
.LBE39:
	li	a2,0
.LBB40:
	addi	a5,a5,%lo(.LANCHOR0)
	addi	a3,a0,%lo(.LANCHOR2)
	j	.L128
.LBE40:
	.cfi_endproc
.LFE7:
	.size	mbedtls_ecp_grp_id_list, .-mbedtls_ecp_grp_id_list
	.section	.text.mbedtls_ecp_curve_info_from_grp_id,"ax",@progbits
	.align	1
	.globl	mbedtls_ecp_curve_info_from_grp_id
	.type	mbedtls_ecp_curve_info_from_grp_id, @function
mbedtls_ecp_curve_info_from_grp_id:
.LFB8:
	.loc 1 209 1 is_stmt 1
	.cfi_startproc
.LVL295:
	.loc 1 210 5
	.loc 1 212 5
	.loc 1 176 5
	.loc 1 212 23 is_stmt 0
	lui	a5,%hi(.LANCHOR0)
	addi	a5,a5,%lo(.LANCHOR0)
.LVL296:
.L133:
	.loc 1 213 20 discriminator 1
	lbu	a4,0(a5)
	.loc 1 212 5 discriminator 1
	bne	a4,zero,.L135
	.loc 1 220 11
	li	a5,0
.LVL297:
.L132:
	.loc 1 221 1
	mv	a0,a5
.LVL298:
	ret
.LVL299:
.L135:
	.loc 1 216 9 is_stmt 1
	.loc 1 216 11 is_stmt 0
	beq	a4,a0,.L132
	.loc 1 214 20
	addi	a5,a5,12
.LVL300:
	j	.L133
	.cfi_endproc
.LFE8:
	.size	mbedtls_ecp_curve_info_from_grp_id, .-mbedtls_ecp_curve_info_from_grp_id
	.section	.text.mbedtls_ecp_curve_info_from_tls_id,"ax",@progbits
	.align	1
	.globl	mbedtls_ecp_curve_info_from_tls_id
	.type	mbedtls_ecp_curve_info_from_tls_id, @function
mbedtls_ecp_curve_info_from_tls_id:
.LFB9:
	.loc 1 227 1 is_stmt 1
	.cfi_startproc
.LVL301:
	.loc 1 228 5
	.loc 1 230 5
	.loc 1 176 5
	.loc 1 230 23 is_stmt 0
	lui	a5,%hi(.LANCHOR0)
	addi	a5,a5,%lo(.LANCHOR0)
.LVL302:
.L138:
	.loc 1 234 9 is_stmt 1
	.loc 1 234 11 is_stmt 0
	lhu	a4,2(a5)
	beq	a4,a0,.L136
	.loc 1 232 20
	addi	a5,a5,12
.LVL303:
	.loc 1 230 5
	lbu	a4,0(a5)
	bne	a4,zero,.L138
	.loc 1 238 11
	li	a5,0
.LVL304:
.L136:
	.loc 1 239 1
	mv	a0,a5
.LVL305:
	ret
	.cfi_endproc
.LFE9:
	.size	mbedtls_ecp_curve_info_from_tls_id, .-mbedtls_ecp_curve_info_from_tls_id
	.section	.text.mbedtls_ecp_curve_info_from_name,"ax",@progbits
	.align	1
	.globl	mbedtls_ecp_curve_info_from_name
	.type	mbedtls_ecp_curve_info_from_name, @function
mbedtls_ecp_curve_info_from_name:
.LFB10:
	.loc 1 245 1 is_stmt 1
	.cfi_startproc
.LVL306:
	.loc 1 246 5
	.loc 1 248 5
	.loc 1 176 5
	.loc 1 245 1 is_stmt 0
	addi	sp,sp,-16
	.cfi_def_cfa_offset 16
	sw	s0,8(sp)
	.cfi_offset 8, -8
	.loc 1 248 23
	lui	s0,%hi(.LANCHOR0)
	.loc 1 245 1
	sw	s1,4(sp)
	sw	ra,12(sp)
	.cfi_offset 9, -12
	.cfi_offset 1, -4
	.loc 1 245 1
	mv	s1,a0
	.loc 1 248 23
	addi	s0,s0,%lo(.LANCHOR0)
.LVL307:
.L142:
	.loc 1 252 9 is_stmt 1
	.loc 1 252 13 is_stmt 0
	lw	a0,8(s0)
	mv	a1,s1
	call	strcmp
.LVL308:
	.loc 1 252 11
	beq	a0,zero,.L140
	.loc 1 250 20
	addi	s0,s0,12
.LVL309:
	.loc 1 248 5
	lbu	a5,0(s0)
	bne	a5,zero,.L142
	.loc 1 256 11
	li	s0,0
.LVL310:
.L140:
	.loc 1 257 1
	mv	a0,s0
	lw	ra,12(sp)
	.cfi_restore 1
	lw	s0,8(sp)
	.cfi_restore 8
	lw	s1,4(sp)
	.cfi_restore 9
.LVL311:
	addi	sp,sp,16
	.cfi_def_cfa_offset 0
	jr	ra
	.cfi_endproc
.LFE10:
	.size	mbedtls_ecp_curve_info_from_name, .-mbedtls_ecp_curve_info_from_name
	.section	.text.mbedtls_ecp_point_init,"ax",@progbits
	.align	1
	.globl	mbedtls_ecp_point_init
	.type	mbedtls_ecp_point_init, @function
mbedtls_ecp_point_init:
.LFB12:
	.loc 1 277 1 is_stmt 1
	.cfi_startproc
.LVL312:
	.loc 1 278 5
	.loc 1 278 7 is_stmt 0
	beq	a0,zero,.L148
	tail	mbedtls_ecp_point_init.part.2
.LVL313:
.L148:
	.loc 1 284 1
	ret
	.cfi_endproc
.LFE12:
	.size	mbedtls_ecp_point_init, .-mbedtls_ecp_point_init
	.section	.text.mbedtls_ecp_group_init,"ax",@progbits
	.align	1
	.globl	mbedtls_ecp_group_init
	.type	mbedtls_ecp_group_init, @function
mbedtls_ecp_group_init:
.LFB13:
	.loc 1 290 1 is_stmt 1
	.cfi_startproc
.LVL314:
	.loc 1 291 5
	.loc 1 291 7 is_stmt 0
	beq	a0,zero,.L150
.LBB43:
.LBB44:
	.loc 1 294 5 is_stmt 1
	li	a2,124
	li	a1,0
	tail	memset
.LVL315:
.L150:
.LBE44:
.LBE43:
	.loc 1 295 1 is_stmt 0
	ret
	.cfi_endproc
.LFE13:
	.size	mbedtls_ecp_group_init, .-mbedtls_ecp_group_init
	.section	.text.mbedtls_ecp_keypair_init,"ax",@progbits
	.align	1
	.globl	mbedtls_ecp_keypair_init
	.type	mbedtls_ecp_keypair_init, @function
mbedtls_ecp_keypair_init:
.LFB14:
	.loc 1 301 1 is_stmt 1
	.cfi_startproc
.LVL316:
	.loc 1 302 5
	.loc 1 302 7 is_stmt 0
	beq	a0,zero,.L152
	.loc 1 301 1
	addi	sp,sp,-16
	.cfi_def_cfa_offset 16
	sw	ra,12(sp)
	sw	s0,8(sp)
	.cfi_offset 1, -4
	.cfi_offset 8, -8
	mv	s0,a0
	.loc 1 305 5 is_stmt 1
	call	mbedtls_ecp_group_init
.LVL317:
	.loc 1 306 5
	addi	a0,s0,124
	call	mbedtls_mpi_init
.LVL318:
	.loc 1 307 5
	addi	a0,s0,136
	.loc 1 308 1 is_stmt 0
	lw	s0,8(sp)
	.cfi_restore 8
.LVL319:
	lw	ra,12(sp)
	.cfi_restore 1
	addi	sp,sp,16
	.cfi_def_cfa_offset 0
	.loc 1 307 5
	tail	mbedtls_ecp_point_init
.LVL320:
.L152:
	ret
	.cfi_endproc
.LFE14:
	.size	mbedtls_ecp_keypair_init, .-mbedtls_ecp_keypair_init
	.section	.text.mbedtls_ecp_point_free,"ax",@progbits
	.align	1
	.globl	mbedtls_ecp_point_free
	.type	mbedtls_ecp_point_free, @function
mbedtls_ecp_point_free:
.LFB15:
	.loc 1 314 1 is_stmt 1
	.cfi_startproc
.LVL321:
	.loc 1 315 5
	.loc 1 315 7 is_stmt 0
	beq	a0,zero,.L157
	tail	mbedtls_ecp_point_free.part.4
.LVL322:
.L157:
	.loc 1 321 1
	ret
	.cfi_endproc
.LFE15:
	.size	mbedtls_ecp_point_free, .-mbedtls_ecp_point_free
	.section	.text.mbedtls_ecp_group_free,"ax",@progbits
	.align	1
	.globl	mbedtls_ecp_group_free
	.type	mbedtls_ecp_group_free, @function
mbedtls_ecp_group_free:
.LFB16:
	.loc 1 327 1 is_stmt 1
	.cfi_startproc
.LVL323:
	.loc 1 328 5
	.loc 1 330 5
	.loc 1 330 7 is_stmt 0
	beq	a0,zero,.L171
	.loc 1 327 1
	addi	sp,sp,-16
	.cfi_def_cfa_offset 16
	sw	s0,8(sp)
	sw	ra,12(sp)
	sw	s1,4(sp)
	sw	s2,0(sp)
	.cfi_offset 8, -8
	.cfi_offset 1, -4
	.cfi_offset 9, -12
	.cfi_offset 18, -16
	.loc 1 333 7
	lw	a4,96(a0)
	li	a5,1
	mv	s0,a0
	.loc 1 333 5 is_stmt 1
	.loc 1 333 7 is_stmt 0
	beq	a4,a5,.L161
	.loc 1 335 9 is_stmt 1
	addi	a0,a0,4
.LVL324:
	call	mbedtls_mpi_free
.LVL325:
	.loc 1 336 9
	addi	a0,s0,16
	call	mbedtls_mpi_free
.LVL326:
	.loc 1 337 9
	addi	a0,s0,28
	call	mbedtls_mpi_free
.LVL327:
	.loc 1 338 9
	addi	a0,s0,40
	call	mbedtls_ecp_point_free
.LVL328:
	.loc 1 339 9
	addi	a0,s0,76
	call	mbedtls_mpi_free
.LVL329:
.L161:
	.loc 1 342 5
	.loc 1 342 7 is_stmt 0
	lw	a5,116(s0)
	.loc 1 344 16
	li	s1,0
	.loc 1 345 13
	li	s2,36
	.loc 1 342 7
	bne	a5,zero,.L162
.L163:
	addi	a5,s0,124
.LVL330:
.L165:
.LBB47:
.LBB48:
	.loc 1 77 41
	bne	s0,a5,.L166
.LBE48:
.LBE47:
	.loc 1 350 1
	lw	ra,12(sp)
	.cfi_remember_state
	.cfi_restore 1
	lw	s0,8(sp)
	.cfi_restore 8
.LVL331:
	lw	s1,4(sp)
	.cfi_restore 9
	lw	s2,0(sp)
	.cfi_restore 18
	addi	sp,sp,16
	.cfi_def_cfa_offset 0
	jr	ra
.LVL332:
.L164:
	.cfi_restore_state
	.loc 1 345 13 is_stmt 1 discriminator 3
	mul	a5,s1,s2
	.loc 1 344 39 is_stmt 0 discriminator 3
	addi	s1,s1,1
.LVL333:
	.loc 1 345 13 discriminator 3
	add	a0,a0,a5
	call	mbedtls_ecp_point_free
.LVL334:
.L162:
	.loc 1 344 9 discriminator 1
	lw	a5,120(s0)
	lw	a0,116(s0)
	bgtu	a5,s1,.L164
	.loc 1 346 9 is_stmt 1
	call	vPortFree
.LVL335:
	j	.L163
.LVL336:
.L166:
.LBB50:
.LBB49:
	.loc 1 77 49
	.loc 1 77 54 is_stmt 0
	sb	zero,0(s0)
	.loc 1 77 51
	addi	s0,s0,1
.LVL337:
	j	.L165
.LVL338:
.L171:
	.cfi_def_cfa_offset 0
	.cfi_restore 1
	.cfi_restore 8
	.cfi_restore 9
	.cfi_restore 18
	ret
.LBE49:
.LBE50:
	.cfi_endproc
.LFE16:
	.size	mbedtls_ecp_group_free, .-mbedtls_ecp_group_free
	.section	.text.mbedtls_ecp_keypair_free,"ax",@progbits
	.align	1
	.globl	mbedtls_ecp_keypair_free
	.type	mbedtls_ecp_keypair_free, @function
mbedtls_ecp_keypair_free:
.LFB17:
	.loc 1 356 1 is_stmt 1
	.cfi_startproc
.LVL339:
	.loc 1 357 5
	.loc 1 357 7 is_stmt 0
	beq	a0,zero,.L174
	.loc 1 356 1
	addi	sp,sp,-16
	.cfi_def_cfa_offset 16
	sw	ra,12(sp)
	sw	s0,8(sp)
	.cfi_offset 1, -4
	.cfi_offset 8, -8
	mv	s0,a0
	.loc 1 360 5 is_stmt 1
	call	mbedtls_ecp_group_free
.LVL340:
	.loc 1 361 5
	addi	a0,s0,124
	call	mbedtls_mpi_free
.LVL341:
	.loc 1 362 5
	addi	a0,s0,136
	.loc 1 363 1 is_stmt 0
	lw	s0,8(sp)
	.cfi_restore 8
.LVL342:
	lw	ra,12(sp)
	.cfi_restore 1
	addi	sp,sp,16
	.cfi_def_cfa_offset 0
	.loc 1 362 5
	tail	mbedtls_ecp_point_free
.LVL343:
.L174:
	ret
	.cfi_endproc
.LFE17:
	.size	mbedtls_ecp_keypair_free, .-mbedtls_ecp_keypair_free
	.section	.text.mbedtls_ecp_copy,"ax",@progbits
	.align	1
	.globl	mbedtls_ecp_copy
	.type	mbedtls_ecp_copy, @function
mbedtls_ecp_copy:
.LFB18:
	.loc 1 369 1 is_stmt 1
	.cfi_startproc
.LVL344:
	.loc 1 370 5
	.loc 1 372 5
	.loc 1 372 10
	.loc 1 369 1 is_stmt 0
	addi	sp,sp,-16
	.cfi_def_cfa_offset 16
	sw	s0,8(sp)
	sw	s1,4(sp)
	sw	ra,12(sp)
	.cfi_offset 8, -8
	.cfi_offset 9, -12
	.cfi_offset 1, -4
	.loc 1 369 1
	mv	s0,a0
	mv	s1,a1
	.loc 1 372 22
	call	mbedtls_mpi_copy
.LVL345:
	.loc 1 372 12
	bne	a0,zero,.L179
	.loc 1 373 5 is_stmt 1
	.loc 1 373 10
	.loc 1 373 22 is_stmt 0
	addi	a1,s1,12
	addi	a0,s0,12
.LVL346:
	call	mbedtls_mpi_copy
.LVL347:
	.loc 1 373 12
	bne	a0,zero,.L179
.LVL348:
.LBB53:
.LBB54:
	.loc 1 374 5 is_stmt 1
	.loc 1 374 10
	.loc 1 374 22 is_stmt 0
	addi	a0,s0,24
.LVL349:
.LBE54:
.LBE53:
	.loc 1 378 1
	lw	s0,8(sp)
	.cfi_remember_state
	.cfi_restore 8
.LVL350:
	lw	ra,12(sp)
	.cfi_restore 1
.LBB57:
.LBB55:
	.loc 1 374 22
	addi	a1,s1,24
.LBE55:
.LBE57:
	.loc 1 378 1
	lw	s1,4(sp)
	.cfi_restore 9
.LVL351:
	addi	sp,sp,16
	.cfi_def_cfa_offset 0
.LBB58:
.LBB56:
	.loc 1 374 22
	tail	mbedtls_mpi_copy
.LVL352:
.L180:
.L179:
	.cfi_restore_state
.LBE56:
.LBE58:
	.loc 1 378 1
	lw	ra,12(sp)
	.cfi_restore 1
	lw	s0,8(sp)
	.cfi_restore 8
.LVL353:
	lw	s1,4(sp)
	.cfi_restore 9
.LVL354:
	addi	sp,sp,16
	.cfi_def_cfa_offset 0
	jr	ra
	.cfi_endproc
.LFE18:
	.size	mbedtls_ecp_copy, .-mbedtls_ecp_copy
	.section	.text.mbedtls_ecp_group_copy,"ax",@progbits
	.align	1
	.globl	mbedtls_ecp_group_copy
	.type	mbedtls_ecp_group_copy, @function
mbedtls_ecp_group_copy:
.LFB19:
	.loc 1 384 1 is_stmt 1
	.cfi_startproc
.LVL355:
	.loc 1 385 5
	.loc 1 385 12 is_stmt 0
	lbu	a1,0(a1)
.LVL356:
	tail	mbedtls_ecp_group_load
.LVL357:
	.cfi_endproc
.LFE19:
	.size	mbedtls_ecp_group_copy, .-mbedtls_ecp_group_copy
	.section	.text.mbedtls_ecp_set_zero,"ax",@progbits
	.align	1
	.globl	mbedtls_ecp_set_zero
	.type	mbedtls_ecp_set_zero, @function
mbedtls_ecp_set_zero:
.LFB20:
	.loc 1 392 1 is_stmt 1
	.cfi_startproc
.LVL358:
	.loc 1 393 5
	.loc 1 395 5
	.loc 1 395 10
	.loc 1 392 1 is_stmt 0
	addi	sp,sp,-16
	.cfi_def_cfa_offset 16
	.loc 1 395 22
	li	a1,1
	.loc 1 392 1
	sw	s0,8(sp)
	sw	ra,12(sp)
	.cfi_offset 8, -8
	.cfi_offset 1, -4
	.loc 1 392 1
	mv	s0,a0
	.loc 1 395 22
	call	mbedtls_mpi_lset
.LVL359:
	.loc 1 395 12
	bne	a0,zero,.L183
	.loc 1 396 5 is_stmt 1
	.loc 1 396 10
	.loc 1 396 22 is_stmt 0
	li	a1,1
	addi	a0,s0,12
.LVL360:
	call	mbedtls_mpi_lset
.LVL361:
	.loc 1 396 12
	bne	a0,zero,.L183
.LVL362:
.LBB61:
.LBB62:
	.loc 1 397 5 is_stmt 1
	.loc 1 397 10
	.loc 1 397 22 is_stmt 0
	addi	a0,s0,24
.LVL363:
.LBE62:
.LBE61:
	.loc 1 401 1
	lw	s0,8(sp)
	.cfi_remember_state
	.cfi_restore 8
.LVL364:
	lw	ra,12(sp)
	.cfi_restore 1
.LBB65:
.LBB63:
	.loc 1 397 22
	li	a1,0
.LBE63:
.LBE65:
	.loc 1 401 1
	addi	sp,sp,16
	.cfi_def_cfa_offset 0
.LBB66:
.LBB64:
	.loc 1 397 22
	tail	mbedtls_mpi_lset
.LVL365:
.L184:
.L183:
	.cfi_restore_state
.LBE64:
.LBE66:
	.loc 1 401 1
	lw	ra,12(sp)
	.cfi_restore 1
	lw	s0,8(sp)
	.cfi_restore 8
.LVL366:
	addi	sp,sp,16
	.cfi_def_cfa_offset 0
	jr	ra
	.cfi_endproc
.LFE20:
	.size	mbedtls_ecp_set_zero, .-mbedtls_ecp_set_zero
	.section	.text.ecp_add_mixed,"ax",@progbits
	.align	1
	.type	ecp_add_mixed, @function
ecp_add_mixed:
.LFB35:
	.loc 1 1023 1 is_stmt 1
	.cfi_startproc
.LVL367:
	.loc 1 1024 5
	.loc 1 1025 5
	.loc 1 1041 5
	.loc 1 1023 1 is_stmt 0
	addi	sp,sp,-144
	.cfi_def_cfa_offset 144
	sw	s6,112(sp)
	.cfi_offset 22, -32
	.loc 1 1041 9
	addi	s6,a2,24
	.loc 1 1023 1
	sw	s1,132(sp)
	sw	s4,120(sp)
	.cfi_offset 9, -12
	.cfi_offset 20, -24
	mv	s1,a0
	mv	s4,a1
	.loc 1 1041 9
	mv	a0,s6
.LVL368:
	li	a1,0
.LVL369:
	.loc 1 1023 1
	sw	s2,128(sp)
	sw	s5,116(sp)
	sw	ra,140(sp)
	.cfi_offset 18, -16
	.cfi_offset 21, -28
	.cfi_offset 1, -4
	mv	s5,a3
	sw	s0,136(sp)
	sw	s3,124(sp)
	sw	s7,108(sp)
	.cfi_offset 8, -8
	.cfi_offset 19, -20
	.cfi_offset 23, -36
	.loc 1 1023 1
	mv	s2,a2
	.loc 1 1041 9
	call	mbedtls_mpi_cmp_int
.LVL370:
	.loc 1 1042 17
	mv	a1,s5
	.loc 1 1041 7
	beq	a0,zero,.L238
	.loc 1 1044 5 is_stmt 1
	.loc 1 1044 7 is_stmt 0
	lw	a5,32(s5)
	bne	a5,zero,.L189
.L193:
	.loc 1 1053 5 is_stmt 1
	addi	a0,sp,12
	call	mbedtls_mpi_init
.LVL371:
	.loc 1 1053 30
	addi	a0,sp,24
	call	mbedtls_mpi_init
.LVL372:
	.loc 1 1053 55
	addi	a0,sp,36
	call	mbedtls_mpi_init
.LVL373:
	.loc 1 1053 80
	addi	a0,sp,48
	call	mbedtls_mpi_init
.LVL374:
	.loc 1 1054 5
	addi	s3,sp,60
	mv	a0,s3
	call	mbedtls_mpi_init
.LVL375:
	.loc 1 1054 29
	addi	a0,sp,72
	call	mbedtls_mpi_init
.LVL376:
	.loc 1 1054 53
	addi	a0,sp,84
	call	mbedtls_mpi_init
.LVL377:
	.loc 1 1056 5
	.loc 1 1056 10
	.loc 1 1056 22 is_stmt 0
	mv	a2,s6
	mv	a1,s6
	addi	a0,sp,12
	call	mbedtls_mpi_mul_mpi
.LVL378:
	mv	s0,a0
.LVL379:
	.loc 1 1056 12
	bne	a0,zero,.L190
	.loc 1 1056 100 is_stmt 1 discriminator 2
	.loc 1 1056 105 discriminator 2
	.loc 1 1056 110 discriminator 2
	.loc 1 1056 122 is_stmt 0 discriminator 2
	mv	a1,s1
	addi	a0,sp,12
	call	ecp_modp
.LVL380:
	mv	s0,a0
.LVL381:
	.loc 1 1056 112 discriminator 2
	bne	a0,zero,.L190
	.loc 1 1057 5 is_stmt 1
	.loc 1 1057 10
	.loc 1 1057 22 is_stmt 0
	mv	a2,s6
	addi	a1,sp,12
	addi	a0,sp,24
	call	mbedtls_mpi_mul_mpi
.LVL382:
	mv	s0,a0
.LVL383:
	.loc 1 1057 12
	bne	a0,zero,.L190
	.loc 1 1057 98 is_stmt 1 discriminator 2
	.loc 1 1057 103 discriminator 2
	.loc 1 1057 108 discriminator 2
	.loc 1 1057 120 is_stmt 0 discriminator 2
	mv	a1,s1
	addi	a0,sp,24
	call	ecp_modp
.LVL384:
	mv	s0,a0
.LVL385:
	.loc 1 1057 110 discriminator 2
	bne	a0,zero,.L190
	.loc 1 1058 5 is_stmt 1
	.loc 1 1058 10
	.loc 1 1058 22 is_stmt 0
	addi	a1,sp,12
	mv	a2,s5
	mv	a0,a1
	call	mbedtls_mpi_mul_mpi
.LVL386:
	mv	s0,a0
.LVL387:
	.loc 1 1058 12
	bne	a0,zero,.L190
	.loc 1 1058 98 is_stmt 1 discriminator 2
	.loc 1 1058 103 discriminator 2
	.loc 1 1058 108 discriminator 2
	.loc 1 1058 120 is_stmt 0 discriminator 2
	mv	a1,s1
	addi	a0,sp,12
	call	ecp_modp
.LVL388:
	mv	s0,a0
.LVL389:
	.loc 1 1058 110 discriminator 2
	bne	a0,zero,.L190
	.loc 1 1059 5 is_stmt 1
	.loc 1 1059 10
	.loc 1 1059 22 is_stmt 0
	addi	a1,sp,24
	addi	a2,s5,12
	mv	a0,a1
	call	mbedtls_mpi_mul_mpi
.LVL390:
	mv	s0,a0
.LVL391:
	.loc 1 1059 12
	bne	a0,zero,.L190
	.loc 1 1059 98 is_stmt 1 discriminator 2
	.loc 1 1059 103 discriminator 2
	.loc 1 1059 108 discriminator 2
	.loc 1 1059 120 is_stmt 0 discriminator 2
	mv	a1,s1
	addi	a0,sp,24
	call	ecp_modp
.LVL392:
	mv	s0,a0
.LVL393:
	.loc 1 1059 110 discriminator 2
	bne	a0,zero,.L190
	.loc 1 1060 5 is_stmt 1
	.loc 1 1060 10
	.loc 1 1060 22 is_stmt 0
	addi	a1,sp,12
	mv	a2,s2
	mv	a0,a1
	call	mbedtls_mpi_sub_mpi
.LVL394:
	mv	s0,a0
.LVL395:
	.loc 1 1060 171
	addi	s5,s1,4
.LVL396:
	.loc 1 1060 12
	beq	a0,zero,.L194
.LVL397:
.L190:
	.loc 1 1097 5 is_stmt 1
	addi	a0,sp,12
	call	mbedtls_mpi_free
.LVL398:
	.loc 1 1097 30
	addi	a0,sp,24
	call	mbedtls_mpi_free
.LVL399:
	.loc 1 1097 55
	addi	a0,sp,36
	call	mbedtls_mpi_free
.LVL400:
	.loc 1 1097 80
	addi	a0,sp,48
	call	mbedtls_mpi_free
.LVL401:
	.loc 1 1098 5
	mv	a0,s3
	call	mbedtls_mpi_free
.LVL402:
	.loc 1 1098 29
	addi	a0,sp,72
	call	mbedtls_mpi_free
.LVL403:
	.loc 1 1098 53
	addi	a0,sp,84
	call	mbedtls_mpi_free
.LVL404:
	.loc 1 1100 5
	.loc 1 1100 11 is_stmt 0
	j	.L186
.LVL405:
.L189:
	.loc 1 1044 26 discriminator 1
	addi	s0,s5,24
	li	a1,0
.LVL406:
	mv	a0,s0
	call	mbedtls_mpi_cmp_int
.LVL407:
	.loc 1 1044 23 discriminator 1
	bne	a0,zero,.L192
	.loc 1 1045 9 is_stmt 1
	.loc 1 1045 17 is_stmt 0
	mv	a1,s2
.L238:
	mv	a0,s4
	call	mbedtls_ecp_copy
.LVL408:
	mv	s0,a0
.LVL409:
.L186:
	.loc 1 1101 1
	mv	a0,s0
	lw	ra,140(sp)
	.cfi_remember_state
	.cfi_restore 1
	lw	s0,136(sp)
	.cfi_restore 8
	lw	s1,132(sp)
	.cfi_restore 9
.LVL410:
	lw	s2,128(sp)
	.cfi_restore 18
	lw	s3,124(sp)
	.cfi_restore 19
	lw	s4,120(sp)
	.cfi_restore 20
.LVL411:
	lw	s5,116(sp)
	.cfi_restore 21
	lw	s6,112(sp)
	.cfi_restore 22
.LVL412:
	lw	s7,108(sp)
	.cfi_restore 23
	addi	sp,sp,144
	.cfi_def_cfa_offset 0
	jr	ra
.LVL413:
.L192:
	.cfi_restore_state
	.loc 1 1050 5 is_stmt 1
	.loc 1 1050 7 is_stmt 0
	lw	a5,32(s5)
	beq	a5,zero,.L193
	.loc 1 1050 26 discriminator 1
	li	a1,1
	mv	a0,s0
	call	mbedtls_mpi_cmp_int
.LVL414:
	.loc 1 1050 23 discriminator 1
	beq	a0,zero,.L193
	.loc 1 1051 15
	li	s0,-20480
	addi	s0,s0,128
	j	.L186
.LVL415:
.L195:
	.loc 1 1060 117 discriminator 5
	li	a1,0
	addi	a0,sp,12
	call	mbedtls_mpi_cmp_int
.LVL416:
	.loc 1 1060 114 discriminator 5
	beq	a0,zero,.L198
	.loc 1 1060 154 is_stmt 1 discriminator 6
	.loc 1 1060 159 discriminator 6
	.loc 1 1060 171 is_stmt 0 discriminator 6
	addi	a1,sp,12
	mv	a2,s5
	mv	a0,a1
	call	mbedtls_mpi_add_mpi
.LVL417:
	mv	s0,a0
.LVL418:
	.loc 1 1060 161 discriminator 6
	bne	a0,zero,.L190
.L194:
	.loc 1 1060 103 discriminator 4
	lw	a5,12(sp)
	blt	a5,zero,.L195
.L198:
	.loc 1 1061 5 is_stmt 1
	.loc 1 1061 10
	.loc 1 1061 22 is_stmt 0
	addi	a1,sp,24
	addi	s7,s2,12
	mv	a2,s7
	mv	a0,a1
	call	mbedtls_mpi_sub_mpi
.LVL419:
	mv	s0,a0
.LVL420:
	.loc 1 1061 171
	addi	s5,s1,4
	.loc 1 1061 12
	bne	a0,zero,.L190
.L196:
	.loc 1 1061 103 discriminator 4
	lw	a5,24(sp)
	blt	a5,zero,.L199
.L203:
	.loc 1 1064 5 is_stmt 1
	.loc 1 1064 9 is_stmt 0
	li	a1,0
	addi	a0,sp,12
	call	mbedtls_mpi_cmp_int
.LVL421:
	.loc 1 1064 7
	beq	a0,zero,.L200
	.loc 1 1078 5 is_stmt 1
	.loc 1 1078 10
	.loc 1 1078 22 is_stmt 0
	addi	a2,sp,12
	mv	a1,s6
	addi	a0,sp,84
	call	mbedtls_mpi_mul_mpi
.LVL422:
	mv	s0,a0
.LVL423:
	.loc 1 1078 12
	bne	a0,zero,.L190
	.loc 1 1078 97 is_stmt 1 discriminator 2
	.loc 1 1078 102 discriminator 2
	.loc 1 1078 107 discriminator 2
	.loc 1 1078 119 is_stmt 0 discriminator 2
	mv	a1,s1
	addi	a0,sp,84
	call	ecp_modp
.LVL424:
	mv	s0,a0
.LVL425:
	.loc 1 1078 109 discriminator 2
	bne	a0,zero,.L190
	.loc 1 1079 5 is_stmt 1
	.loc 1 1079 10
	.loc 1 1079 22 is_stmt 0
	addi	a2,sp,12
	mv	a1,a2
	addi	a0,sp,36
	call	mbedtls_mpi_mul_mpi
.LVL426:
	mv	s0,a0
.LVL427:
	.loc 1 1079 12
	bne	a0,zero,.L190
	.loc 1 1079 96 is_stmt 1 discriminator 2
	.loc 1 1079 101 discriminator 2
	.loc 1 1079 106 discriminator 2
	.loc 1 1079 118 is_stmt 0 discriminator 2
	mv	a1,s1
	addi	a0,sp,36
	call	ecp_modp
.LVL428:
	mv	s0,a0
.LVL429:
	.loc 1 1079 108 discriminator 2
	bne	a0,zero,.L190
	.loc 1 1080 5 is_stmt 1
	.loc 1 1080 10
	.loc 1 1080 22 is_stmt 0
	addi	a2,sp,12
	addi	a1,sp,36
	addi	a0,sp,48
	call	mbedtls_mpi_mul_mpi
.LVL430:
	mv	s0,a0
.LVL431:
	.loc 1 1080 12
	bne	a0,zero,.L190
	.loc 1 1080 96 is_stmt 1 discriminator 2
	.loc 1 1080 101 discriminator 2
	.loc 1 1080 106 discriminator 2
	.loc 1 1080 118 is_stmt 0 discriminator 2
	mv	a1,s1
	addi	a0,sp,48
	call	ecp_modp
.LVL432:
	mv	s0,a0
.LVL433:
	.loc 1 1080 108 discriminator 2
	bne	a0,zero,.L190
	.loc 1 1081 5 is_stmt 1
	.loc 1 1081 10
	.loc 1 1081 22 is_stmt 0
	addi	a1,sp,36
	mv	a2,s2
	mv	a0,a1
	call	mbedtls_mpi_mul_mpi
.LVL434:
	mv	s0,a0
.LVL435:
	.loc 1 1081 12
	bne	a0,zero,.L190
	.loc 1 1081 98 is_stmt 1 discriminator 2
	.loc 1 1081 103 discriminator 2
	.loc 1 1081 108 discriminator 2
	.loc 1 1081 120 is_stmt 0 discriminator 2
	mv	a1,s1
	addi	a0,sp,36
	call	ecp_modp
.LVL436:
	mv	s0,a0
.LVL437:
	.loc 1 1081 110 discriminator 2
	bne	a0,zero,.L190
	.loc 1 1082 5 is_stmt 1
	.loc 1 1082 10
	.loc 1 1082 22 is_stmt 0
	li	a2,2
	addi	a1,sp,36
	addi	a0,sp,12
	call	mbedtls_mpi_mul_int
.LVL438:
	mv	s0,a0
.LVL439:
	.loc 1 1082 101
	addi	s5,s1,4
	.loc 1 1082 12
	bne	a0,zero,.L190
.L205:
	.loc 1 1082 101 discriminator 4
	mv	a1,s5
	addi	a0,sp,12
	call	mbedtls_mpi_cmp_mpi
.LVL440:
	.loc 1 1082 99 discriminator 4
	bge	a0,zero,.L206
	.loc 1 1083 5 is_stmt 1
	.loc 1 1083 10
	.loc 1 1083 22 is_stmt 0
	addi	a2,sp,24
	mv	a1,a2
	mv	a0,s3
	call	mbedtls_mpi_mul_mpi
.LVL441:
	mv	s0,a0
.LVL442:
	.loc 1 1083 12
	bne	a0,zero,.L190
	.loc 1 1083 95 is_stmt 1 discriminator 2
	.loc 1 1083 100 discriminator 2
	.loc 1 1083 105 discriminator 2
	.loc 1 1083 117 is_stmt 0 discriminator 2
	mv	a1,s1
	mv	a0,s3
	call	ecp_modp
.LVL443:
	mv	s0,a0
.LVL444:
	.loc 1 1083 107 discriminator 2
	bne	a0,zero,.L190
	.loc 1 1084 5 is_stmt 1
	.loc 1 1084 10
	.loc 1 1084 22 is_stmt 0
	addi	a2,sp,12
	mv	a1,s3
	mv	a0,s3
	call	mbedtls_mpi_sub_mpi
.LVL445:
	mv	s0,a0
.LVL446:
	mv	s2,s3
.LVL447:
	.loc 1 1084 12
	bne	a0,zero,.L190
.L207:
	.loc 1 1084 99 discriminator 4
	lw	a5,60(sp)
	blt	a5,zero,.L208
.L211:
	.loc 1 1085 5 is_stmt 1
	.loc 1 1085 10
	.loc 1 1085 22 is_stmt 0
	addi	a2,sp,48
	mv	a1,s2
	mv	a0,s2
	call	mbedtls_mpi_sub_mpi
.LVL448:
.L234:
	.loc 1 1085 165 discriminator 6
	mv	s0,a0
.LVL449:
	.loc 1 1085 155 discriminator 6
	bne	a0,zero,.L190
	.loc 1 1085 99 discriminator 4
	lw	a5,60(sp)
	blt	a5,zero,.L212
.L215:
	.loc 1 1086 5 is_stmt 1
	.loc 1 1086 10
	.loc 1 1086 22 is_stmt 0
	addi	a1,sp,36
	mv	a2,s2
	mv	a0,a1
	call	mbedtls_mpi_sub_mpi
.LVL450:
.L235:
	.loc 1 1086 168 discriminator 6
	mv	s0,a0
.LVL451:
	.loc 1 1086 158 discriminator 6
	bne	a0,zero,.L190
	.loc 1 1086 100 discriminator 4
	lw	a5,36(sp)
	blt	a5,zero,.L216
.L219:
	.loc 1 1087 5 is_stmt 1
	.loc 1 1087 10
	.loc 1 1087 22 is_stmt 0
	addi	a1,sp,36
	addi	a2,sp,24
	mv	a0,a1
	call	mbedtls_mpi_mul_mpi
.LVL452:
	mv	s0,a0
.LVL453:
	.loc 1 1087 12
	bne	a0,zero,.L190
	.loc 1 1087 96 is_stmt 1 discriminator 2
	.loc 1 1087 101 discriminator 2
	.loc 1 1087 106 discriminator 2
	.loc 1 1087 118 is_stmt 0 discriminator 2
	mv	a1,s1
	addi	a0,sp,36
	call	ecp_modp
.LVL454:
	mv	s0,a0
.LVL455:
	.loc 1 1087 108 discriminator 2
	bne	a0,zero,.L190
	.loc 1 1088 5 is_stmt 1
	.loc 1 1088 10
	.loc 1 1088 22 is_stmt 0
	addi	a1,sp,48
	mv	a2,s7
	mv	a0,a1
	call	mbedtls_mpi_mul_mpi
.LVL456:
	mv	s0,a0
.LVL457:
	.loc 1 1088 12
	bne	a0,zero,.L190
	.loc 1 1088 98 is_stmt 1 discriminator 2
	.loc 1 1088 103 discriminator 2
	.loc 1 1088 108 discriminator 2
	.loc 1 1088 120 is_stmt 0 discriminator 2
	mv	a1,s1
	addi	a0,sp,48
	call	ecp_modp
.LVL458:
	mv	s0,a0
.LVL459:
	.loc 1 1088 110 discriminator 2
	bne	a0,zero,.L190
	.loc 1 1089 5 is_stmt 1
	.loc 1 1089 10
	.loc 1 1089 22 is_stmt 0
	addi	a2,sp,48
	addi	a1,sp,36
	addi	a0,sp,72
	call	mbedtls_mpi_sub_mpi
.LVL460:
.L236:
	.loc 1 1089 166 discriminator 6
	mv	s0,a0
.LVL461:
	.loc 1 1089 156 discriminator 6
	bne	a0,zero,.L190
	.loc 1 1089 100 discriminator 4
	lw	a5,72(sp)
	blt	a5,zero,.L221
.L224:
	.loc 1 1091 5 is_stmt 1
	.loc 1 1091 10
	.loc 1 1091 22 is_stmt 0
	mv	a1,s2
	mv	a0,s4
	call	mbedtls_mpi_copy
.LVL462:
	mv	s0,a0
.LVL463:
	.loc 1 1091 12
	bne	a0,zero,.L190
	.loc 1 1092 5 is_stmt 1
	.loc 1 1092 10
	.loc 1 1092 22 is_stmt 0
	addi	a1,sp,72
	addi	a0,s4,12
	call	mbedtls_mpi_copy
.LVL464:
	mv	s0,a0
.LVL465:
	.loc 1 1092 12
	bne	a0,zero,.L190
	.loc 1 1093 5 is_stmt 1
	.loc 1 1093 10
	.loc 1 1093 22 is_stmt 0
	addi	a1,sp,84
	addi	a0,s4,24
	call	mbedtls_mpi_copy
.LVL466:
	j	.L237
.LVL467:
.L199:
	.loc 1 1061 117 discriminator 5
	li	a1,0
	addi	a0,sp,24
	call	mbedtls_mpi_cmp_int
.LVL468:
	.loc 1 1061 114 discriminator 5
	beq	a0,zero,.L203
	.loc 1 1061 154 is_stmt 1 discriminator 6
	.loc 1 1061 159 discriminator 6
	.loc 1 1061 171 is_stmt 0 discriminator 6
	addi	a1,sp,24
	mv	a2,s5
	mv	a0,a1
	call	mbedtls_mpi_add_mpi
.LVL469:
	mv	s0,a0
.LVL470:
	.loc 1 1061 161 discriminator 6
	beq	a0,zero,.L196
	j	.L190
.L200:
	.loc 1 1066 9 is_stmt 1
	.loc 1 1066 13 is_stmt 0
	li	a1,0
	addi	a0,sp,24
	call	mbedtls_mpi_cmp_int
.LVL471:
	.loc 1 1066 11
	bne	a0,zero,.L204
	.loc 1 1068 13 is_stmt 1
	.loc 1 1068 19 is_stmt 0
	mv	a2,s2
	mv	a1,s4
	mv	a0,s1
	call	ecp_double_jac
.LVL472:
.L237:
	.loc 1 1093 22
	mv	s0,a0
.LVL473:
	.loc 1 1095 1
	j	.L190
.LVL474:
.L204:
	.loc 1 1073 13 is_stmt 1
	.loc 1 1073 19 is_stmt 0
	mv	a0,s4
	call	mbedtls_ecp_set_zero
.LVL475:
	j	.L237
.L206:
	.loc 1 1082 144 is_stmt 1 discriminator 5
	.loc 1 1082 149 discriminator 5
	.loc 1 1082 161 is_stmt 0 discriminator 5
	addi	a1,sp,12
	mv	a2,s5
	mv	a0,a1
	call	mbedtls_mpi_sub_abs
.LVL476:
	mv	s0,a0
.LVL477:
	.loc 1 1082 151 discriminator 5
	beq	a0,zero,.L205
	j	.L190
.LVL478:
.L208:
	.loc 1 1084 112 discriminator 5
	li	a1,0
	mv	a0,s2
	call	mbedtls_mpi_cmp_int
.LVL479:
	.loc 1 1084 109 discriminator 5
	beq	a0,zero,.L211
	.loc 1 1084 148 is_stmt 1 discriminator 6
	.loc 1 1084 153 discriminator 6
	.loc 1 1084 165 is_stmt 0 discriminator 6
	mv	a2,s5
	mv	a1,s2
	mv	a0,s2
	call	mbedtls_mpi_add_mpi
.LVL480:
	mv	s0,a0
.LVL481:
	.loc 1 1084 155 discriminator 6
	beq	a0,zero,.L207
	j	.L190
.L212:
	.loc 1 1085 112 discriminator 5
	li	a1,0
	mv	a0,s2
	call	mbedtls_mpi_cmp_int
.LVL482:
	.loc 1 1085 109 discriminator 5
	beq	a0,zero,.L215
	.loc 1 1085 148 is_stmt 1 discriminator 6
	.loc 1 1085 153 discriminator 6
	.loc 1 1085 165 is_stmt 0 discriminator 6
	mv	a2,s5
	mv	a1,s2
	mv	a0,s2
	call	mbedtls_mpi_add_mpi
.LVL483:
	j	.L234
.L216:
	.loc 1 1086 114 discriminator 5
	li	a1,0
	addi	a0,sp,36
	call	mbedtls_mpi_cmp_int
.LVL484:
	.loc 1 1086 111 discriminator 5
	beq	a0,zero,.L219
	.loc 1 1086 151 is_stmt 1 discriminator 6
	.loc 1 1086 156 discriminator 6
	.loc 1 1086 168 is_stmt 0 discriminator 6
	addi	a1,sp,36
	mv	a2,s5
	mv	a0,a1
	call	mbedtls_mpi_add_mpi
.LVL485:
	j	.L235
.L221:
	.loc 1 1089 113 discriminator 5
	li	a1,0
	addi	a0,sp,72
	call	mbedtls_mpi_cmp_int
.LVL486:
	.loc 1 1089 110 discriminator 5
	beq	a0,zero,.L224
	.loc 1 1089 149 is_stmt 1 discriminator 6
	.loc 1 1089 154 discriminator 6
	.loc 1 1089 166 is_stmt 0 discriminator 6
	addi	a1,sp,72
	mv	a2,s5
	mv	a0,a1
	call	mbedtls_mpi_add_mpi
.LVL487:
	j	.L236
	.cfi_endproc
.LFE35:
	.size	ecp_add_mixed, .-ecp_add_mixed
	.section	.text.ecp_mul_comb,"ax",@progbits
	.align	1
	.type	ecp_mul_comb, @function
ecp_mul_comb:
.LFB41:
	.loc 1 1355 1 is_stmt 1
	.cfi_startproc
.LVL488:
	.loc 1 1356 5
	.loc 1 1357 5
	.loc 1 1358 5
	.loc 1 1359 5
	.loc 1 1360 5
	.loc 1 1361 5
	.loc 1 1363 5
	.loc 1 1355 1 is_stmt 0
	addi	sp,sp,-464
	.cfi_def_cfa_offset 464
	sw	s1,452(sp)
	.cfi_offset 9, -12
	mv	s1,a0
	.loc 1 1363 5
	addi	a0,sp,52
.LVL489:
	.loc 1 1355 1
	sw	ra,460(sp)
	sw	a4,12(sp)
	sw	a5,20(sp)
	sw	s0,456(sp)
	sw	s2,448(sp)
	.cfi_offset 1, -4
	.cfi_offset 8, -8
	.cfi_offset 18, -16
	mv	s0,a3
	mv	s2,a1
	sw	s10,416(sp)
	sw	s3,444(sp)
	.cfi_offset 26, -48
	.cfi_offset 19, -20
	mv	s10,a2
	sw	s4,440(sp)
	sw	s5,436(sp)
	sw	s6,432(sp)
	sw	s7,428(sp)
	sw	s8,424(sp)
	sw	s9,420(sp)
	sw	s11,412(sp)
	.cfi_offset 20, -24
	.cfi_offset 21, -28
	.cfi_offset 22, -32
	.cfi_offset 23, -36
	.cfi_offset 24, -40
	.cfi_offset 25, -44
	.cfi_offset 27, -52
	.loc 1 1363 5
	call	mbedtls_mpi_init
.LVL490:
	.loc 1 1364 5 is_stmt 1
	addi	a0,sp,64
	call	mbedtls_mpi_init
.LVL491:
	.loc 1 1367 5
	.loc 1 1367 30 is_stmt 0
	addi	a5,s1,76
	.loc 1 1367 9
	mv	a0,a5
	li	a1,0
	.loc 1 1367 30
	sw	a5,16(sp)
	.loc 1 1367 9
	call	mbedtls_mpi_get_bit
.LVL492:
	.loc 1 1367 7
	li	a5,1
	bne	a0,a5,.L271
	.loc 1 1375 5 is_stmt 1
	.loc 1 1375 7 is_stmt 0
	lw	s4,92(s1)
	li	a5,383
	.loc 1 1383 16
	addi	a1,s1,52
	addi	a0,s0,12
	.loc 1 1375 7
	sgtu	s4,s4,a5
	.loc 1 1383 16
	call	mbedtls_mpi_cmp_mpi
.LVL493:
	.loc 1 1375 7
	addi	s4,s4,4
.LVL494:
	.loc 1 1383 5 is_stmt 1
	.loc 1 1383 16 is_stmt 0
	mv	s7,a0
	.loc 1 1383 61
	bne	a0,zero,.L273
	.loc 1 1384 16 discriminator 1
	addi	a1,s1,40
	mv	a0,s0
	call	mbedtls_mpi_cmp_mpi
.LVL495:
	.loc 1 1385 5 is_stmt 1 discriminator 1
	.loc 1 1385 7 is_stmt 0 discriminator 1
	bne	a0,zero,.L242
	.loc 1 1386 9 is_stmt 1
.LVL496:
	.loc 1 1386 10 is_stmt 0
	addi	s4,s4,1
.LVL497:
	.loc 1 1383 61
	li	s7,1
.LVL498:
.L242:
	.loc 1 1395 5 is_stmt 1
	.loc 1 1397 5
	.loc 1 1397 17 is_stmt 0
	lw	s5,92(s1)
	.loc 1 1397 7
	bltu	s4,s5,.L243
.LVL499:
	.loc 1 1398 11
	li	s4,2
.LVL500:
.L243:
	.loc 1 1401 5 is_stmt 1
	.loc 1 1401 25 is_stmt 0
	addi	s8,s4,-1
	.loc 1 1401 18
	li	s6,1
	.loc 1 1402 26
	addi	s5,s5,-1
	.loc 1 1401 18
	sll	s6,s6,s8
	.loc 1 1402 26
	add	s5,s5,s4
	.loc 1 1401 13
	andi	s9,s6,0xff
.LVL501:
	.loc 1 1402 5 is_stmt 1
	.loc 1 1402 7 is_stmt 0
	divu	s5,s5,s4
.LVL502:
	.loc 1 1408 5 is_stmt 1
	.loc 1 1408 25 is_stmt 0
	beq	s7,zero,.L244
	.loc 1 1408 25 discriminator 1
	lw	s3,116(s1)
.LVL503:
	.loc 1 1410 5 is_stmt 1 discriminator 1
	.loc 1 1410 7 is_stmt 0 discriminator 1
	bne	s3,zero,.L245
.LVL504:
.L244:
	.loc 1 1412 9 is_stmt 1
	.loc 1 1412 13 is_stmt 0
	li	a1,36
	mv	a0,s6
	call	mycalloc
.LVL505:
	mv	s3,a0
.LVL506:
	.loc 1 1413 9 is_stmt 1
	.loc 1 1413 11 is_stmt 0
	beq	a0,zero,.L274
	.loc 1 1419 9 is_stmt 1
	.loc 1 1419 14
.LVL507:
.LBB79:
.LBB80:
	.loc 1 1235 5
	.loc 1 1236 5
	.loc 1 1237 5
	.loc 1 1238 5
	.loc 1 1244 5
	.loc 1 1244 10
	.loc 1 1244 22 is_stmt 0
	mv	a1,s0
	call	mbedtls_ecp_copy
.LVL508:
	mv	s0,a0
.LVL509:
	.loc 1 1244 12
	bne	a0,zero,.L256
	.loc 1 1246 7
	li	s11,0
	.loc 1 1247 12
	li	a4,1
.L248:
.LVL510:
	.loc 1 1247 19
	srl	a6,a4,s8
	.loc 1 1247 5
	beq	a6,zero,.L251
	.loc 1 1257 5 is_stmt 1
	.loc 1 1257 10
	.loc 1 1257 22 is_stmt 0
	mv	a2,s11
	addi	a1,sp,136
	mv	a0,s1
	call	ecp_normalize_jac_many
.LVL511:
	mv	s0,a0
.LVL512:
	.loc 1 1257 12
	bne	a0,zero,.L256
	.loc 1 1263 7
	li	a2,0
	.loc 1 1264 12
	li	a4,1
	.loc 1 1269 70
	li	a7,36
.LVL513:
.L252:
	.loc 1 1264 19
	srl	a5,a4,s8
	mv	a3,a4
	.loc 1 1264 5
	bne	a5,zero,.L254
	.loc 1 1269 70
	mul	a6,a4,a7
	add	a2,a4,a2
	andi	t4,a2,0xff
	.loc 1 1269 68
	add	a6,s3,a6
	j	.L255
.LVL514:
.L273:
.LBE80:
.LBE79:
	.loc 1 1383 61
	li	s7,0
	j	.L242
.LVL515:
.L251:
.LBB83:
.LBB81:
	.loc 1 1249 17
	li	a5,36
	mul	a3,a4,a5
	.loc 1 1250 57
	srli	a1,a4,1
	sw	a6,32(sp)
	.loc 1 1249 9 is_stmt 1
	.loc 1 1250 57 is_stmt 0
	sw	a4,28(sp)
	.loc 1 1250 51
	mul	a1,a1,a5
	.loc 1 1249 13
	add	a3,s3,a3
.LVL516:
	.loc 1 1250 9 is_stmt 1
	.loc 1 1250 14
	.loc 1 1250 26 is_stmt 0
	mv	a0,a3
	sw	a3,24(sp)
	add	a1,s3,a1
	call	mbedtls_ecp_copy
.LVL517:
	mv	s0,a0
.LVL518:
	.loc 1 1250 16
	lw	a3,24(sp)
	lw	a4,28(sp)
	lw	a6,32(sp)
	beq	a0,zero,.L249
.LVL519:
.L256:
.LBE81:
.LBE83:
	.loc 1 1451 5 is_stmt 1
	.loc 1 1451 18 is_stmt 0
	bne	s7,zero,.L246
	li	s1,0
.LVL520:
	.loc 1 1454 13
	li	s4,36
.L270:
.LVL521:
	.loc 1 1454 13 is_stmt 1 discriminator 3
	mul	a0,s1,s4
	addi	s1,s1,1
.LVL522:
	add	a0,s3,a0
	call	mbedtls_ecp_point_free
.LVL523:
	.loc 1 1453 9 is_stmt 0 discriminator 3
	andi	a5,s1,0xff
	bltu	a5,s9,.L270
	.loc 1 1455 9 is_stmt 1
	mv	a0,s3
	call	vPortFree
.LVL524:
.L246:
	.loc 1 1458 5
	addi	a0,sp,52
	call	mbedtls_mpi_free
.LVL525:
	.loc 1 1459 5
	addi	a0,sp,64
	call	mbedtls_mpi_free
.LVL526:
	.loc 1 1461 5
	.loc 1 1461 7 is_stmt 0
	beq	s0,zero,.L239
	.loc 1 1462 9 is_stmt 1
	mv	a0,s2
	call	mbedtls_ecp_point_free
.LVL527:
.L239:
	.loc 1 1465 1 is_stmt 0
	mv	a0,s0
	lw	ra,460(sp)
	.cfi_remember_state
	.cfi_restore 1
	lw	s0,456(sp)
	.cfi_restore 8
	lw	s1,452(sp)
	.cfi_restore 9
	lw	s2,448(sp)
	.cfi_restore 18
.LVL528:
	lw	s3,444(sp)
	.cfi_restore 19
	lw	s4,440(sp)
	.cfi_restore 20
	lw	s5,436(sp)
	.cfi_restore 21
	lw	s6,432(sp)
	.cfi_restore 22
	lw	s7,428(sp)
	.cfi_restore 23
	lw	s8,424(sp)
	.cfi_restore 24
	lw	s9,420(sp)
	.cfi_restore 25
	lw	s10,416(sp)
	.cfi_restore 26
	lw	s11,412(sp)
	.cfi_restore 27
	addi	sp,sp,464
	.cfi_def_cfa_offset 0
.LVL529:
	jr	ra
.LVL530:
.L250:
	.cfi_restore_state
.LBB84:
.LBB82:
	.loc 1 1252 30
	mv	a2,a3
	mv	a1,a3
	mv	a0,s1
	sw	a6,32(sp)
	sw	a4,28(sp)
	.loc 1 1252 13 is_stmt 1
	.loc 1 1252 18
	.loc 1 1252 30 is_stmt 0
	sw	a3,24(sp)
	call	ecp_double_jac
.LVL531:
	mv	s0,a0
.LVL532:
	.loc 1 1252 20
	bne	a0,zero,.L256
	.loc 1 1251 29
	lw	a6,32(sp)
	lw	a4,28(sp)
	lw	a3,24(sp)
	addi	a6,a6,1
.LVL533:
.L249:
	.loc 1 1251 9
	bne	s5,a6,.L250
	.loc 1 1254 9 is_stmt 1
	.loc 1 1254 17 is_stmt 0
	slli	a5,s11,2
	addi	a1,sp,400
	.loc 1 1254 13
	addi	a2,s11,1
.LVL534:
	.loc 1 1254 17
	add	a5,a1,a5
	.loc 1 1247 44
	slli	a4,a4,1
	.loc 1 1254 17
	sw	a3,-264(a5)
	.loc 1 1247 44
	andi	a4,a4,0xff
.LVL535:
	.loc 1 1254 13
	andi	s11,a2,0xff
	j	.L248
.LVL536:
.L253:
	mul	a2,t1,a7
	.loc 1 1269 30
	mv	a3,a6
	mv	a0,s1
	sw	t4,44(sp)
	sw	a4,40(sp)
	sw	a5,36(sp)
	.loc 1 1269 13 is_stmt 1
	.loc 1 1269 18
	sw	t1,32(sp)
	.loc 1 1269 30 is_stmt 0
	sw	a6,28(sp)
	add	t3,a6,a2
	mv	a1,t3
	add	a2,s3,a2
	sw	t3,24(sp)
	call	ecp_add_mixed
.LVL537:
	mv	s0,a0
.LVL538:
	.loc 1 1269 20
	bne	a0,zero,.L256
	.loc 1 1270 13 is_stmt 1
.LVL539:
	.loc 1 1270 21 is_stmt 0
	lw	a5,36(sp)
	lw	t3,24(sp)
	lw	t1,32(sp)
	slli	a2,a5,2
	lw	t4,44(sp)
	addi	a5,sp,400
	lw	a4,40(sp)
	lw	a6,28(sp)
	add	a2,a5,a2
	sw	t3,-264(a2)
	mv	a3,t1
	li	a7,36
.LVL540:
.L255:
	sub	a2,t4,a3
	andi	a5,a2,0xff
.LVL541:
	.loc 1 1267 17
	addi	t1,a3,-1
.LVL542:
	.loc 1 1267 14
	bne	a3,zero,.L253
	.loc 1 1264 44
	slli	a4,a4,1
	andi	a4,a4,0xff
.LVL543:
	mv	a2,a5
	j	.L252
.LVL544:
.L254:
	.loc 1 1274 5 is_stmt 1
	.loc 1 1274 10
	.loc 1 1274 22 is_stmt 0
	addi	a1,sp,136
	mv	a0,s1
	call	ecp_normalize_jac_many
.LVL545:
	mv	s0,a0
.LVL546:
.LDL1:
	.loc 1 1278 5 is_stmt 1
.LBE82:
.LBE84:
	.loc 1 1419 16 is_stmt 0
	bne	a0,zero,.L256
	.loc 1 1421 9 is_stmt 1
	.loc 1 1421 11 is_stmt 0
	beq	s7,zero,.L245
	.loc 1 1423 13 is_stmt 1
	.loc 1 1423 20 is_stmt 0
	sw	s3,116(s1)
	.loc 1 1424 13 is_stmt 1
	.loc 1 1424 25 is_stmt 0
	sw	s6,120(s1)
.LVL547:
.L245:
	.loc 1 1432 5 is_stmt 1
	.loc 1 1432 18 is_stmt 0
	li	a1,0
	mv	a0,s10
	call	mbedtls_mpi_get_bit
.LVL548:
	mv	s8,a0
.LVL549:
	.loc 1 1433 5 is_stmt 1
	.loc 1 1433 10
	.loc 1 1433 22 is_stmt 0
	mv	a1,s10
	addi	a0,sp,52
.LVL550:
	call	mbedtls_mpi_copy
.LVL551:
	mv	s0,a0
.LVL552:
	.loc 1 1433 12
	bne	a0,zero,.L256
	.loc 1 1434 5 is_stmt 1
	.loc 1 1434 10
	.loc 1 1434 22 is_stmt 0
	lw	a1,16(sp)
	mv	a2,s10
	addi	a0,sp,64
	call	mbedtls_mpi_sub_mpi
.LVL553:
	mv	s0,a0
.LVL554:
	.loc 1 1434 12
	bne	a0,zero,.L256
	.loc 1 1435 5 is_stmt 1
	.loc 1 1435 10
	.loc 1 1435 22 is_stmt 0
	addi	s8,s8,-1
.LVL555:
	snez	s8,s8
.LVL556:
	mv	a2,s8
	addi	a1,sp,64
	addi	a0,sp,52
	call	mbedtls_mpi_safe_cond_assign
.LVL557:
	mv	s0,a0
.LVL558:
	.loc 1 1435 12
	bne	a0,zero,.L256
	.loc 1 1440 5 is_stmt 1
.LVL559:
.LBB85:
.LBB86:
	.loc 1 1194 5
	.loc 1 1195 5
	.loc 1 1197 5
	addi	a2,s5,1
	li	a1,0
	addi	a0,sp,136
.LVL560:
	addi	s0,sp,136
.LVL561:
	call	memset
.LVL562:
	.loc 1 1200 5
	.loc 1 1197 5 is_stmt 0
	mv	s10,s0
.LVL563:
	.loc 1 1200 12
	li	s6,0
.LVL564:
.L257:
	.loc 1 1200 5
	bne	s5,s6,.L275
	addi	a5,sp,136
	add	a7,a5,s6
	.loc 1 1205 7
	li	a1,0
.LVL565:
.L259:
	.loc 1 1206 5
	bne	s0,a7,.L260
.LVL566:
.LBE86:
.LBE85:
	.loc 1 1441 5 is_stmt 1
	.loc 1 1441 10
.LBB88:
.LBB89:
	.loc 1 1320 5
	.loc 1 1321 5
	.loc 1 1322 5
	.loc 1 1324 5
.LBB90:
.LBB91:
	.loc 1 278 5
	addi	a0,sp,100
.LVL567:
	call	mbedtls_ecp_point_init.part.2
.LVL568:
.LBE91:
.LBE90:
	.loc 1 1327 5
	.loc 1 1328 5
	.loc 1 1328 10
	.loc 1 1328 22 is_stmt 0
	addi	a5,sp,400
	add	a5,a5,s6
	lbu	a4,-264(a5)
	mv	a3,s9
	mv	a2,s3
	mv	a1,s2
	mv	a0,s1
	call	ecp_select_comb
.LVL569:
	mv	s0,a0
.LVL570:
	.loc 1 1328 12
	bne	a0,zero,.L261
	.loc 1 1329 5 is_stmt 1
	.loc 1 1329 10
	.loc 1 1329 22 is_stmt 0
	addi	s5,s2,24
.LVL571:
	li	a1,1
	mv	a0,s5
	call	mbedtls_mpi_lset
.LVL572:
	mv	s0,a0
.LVL573:
	.loc 1 1329 12
	bne	a0,zero,.L261
	.loc 1 1330 5 is_stmt 1
	.loc 1 1330 7 is_stmt 0
	lw	a5,12(sp)
	beq	a5,zero,.L262
	.loc 1 1331 9 is_stmt 1
	.loc 1 1331 14
.LVL574:
.LBB92:
.LBB93:
	.loc 1 1113 5
	.loc 1 1114 5
	.loc 1 1115 5
	.loc 1 1116 5
	.loc 1 1125 5
	.loc 1 1125 27 is_stmt 0
	lw	s4,88(s1)
	.loc 1 1126 5
	addi	a0,sp,76
	call	mbedtls_mpi_init
.LVL575:
	.loc 1 1125 27
	addi	s4,s4,7
	.loc 1 1126 29
	addi	a0,sp,88
	.loc 1 1125 12
	srli	s4,s4,3
.LVL576:
	.loc 1 1126 5 is_stmt 1
	.loc 1 1126 29
	call	mbedtls_mpi_init
.LVL577:
	li	s10,12
	.loc 1 1133 16 is_stmt 0
	addi	s11,s1,4
.LVL578:
.L267:
	.loc 1 1129 5 is_stmt 1
	.loc 1 1131 9
	lw	a3,20(sp)
	lw	a2,12(sp)
	mv	a1,s4
	addi	a0,sp,76
	call	mbedtls_mpi_fill_random
.LVL579:
	.loc 1 1133 9
.L263:
	.loc 1 1133 16 is_stmt 0
	mv	a1,s11
	addi	a0,sp,76
	call	mbedtls_mpi_cmp_mpi
.LVL580:
	.loc 1 1133 14
	bge	a0,zero,.L265
	.loc 1 1136 9 is_stmt 1
.LVL581:
	addi	s10,s10,-1
.LVL582:
	.loc 1 1136 11 is_stmt 0
	beq	s10,zero,.L266
	.loc 1 1139 12
	li	a1,1
	addi	a0,sp,76
	call	mbedtls_mpi_cmp_int
.LVL583:
	.loc 1 1139 5
	ble	a0,zero,.L267
	.loc 1 1142 5 is_stmt 1
	.loc 1 1142 10
	.loc 1 1142 22 is_stmt 0
	addi	a2,sp,76
	mv	a1,s5
	mv	a0,s5
	call	mbedtls_mpi_mul_mpi
.LVL584:
	mv	a5,a0
.LVL585:
	.loc 1 1142 12
	bne	a0,zero,.L264
	.loc 1 1142 101 is_stmt 1
	.loc 1 1142 106
	.loc 1 1142 111
	.loc 1 1142 123 is_stmt 0
	mv	a1,s1
	mv	a0,s5
.LVL586:
	call	ecp_modp
.LVL587:
	mv	a5,a0
.LVL588:
	.loc 1 1142 113
	bne	a0,zero,.L264
	.loc 1 1145 5 is_stmt 1
	.loc 1 1145 10
	.loc 1 1145 22 is_stmt 0
	addi	a2,sp,76
	mv	a1,a2
	addi	a0,sp,88
.LVL589:
	call	mbedtls_mpi_mul_mpi
.LVL590:
	mv	a5,a0
.LVL591:
	.loc 1 1145 12
	bne	a0,zero,.L264
	.loc 1 1145 94 is_stmt 1
	.loc 1 1145 99
	.loc 1 1145 104
	.loc 1 1145 116 is_stmt 0
	mv	a1,s1
	addi	a0,sp,88
.LVL592:
	call	ecp_modp
.LVL593:
	mv	a5,a0
.LVL594:
	.loc 1 1145 106
	bne	a0,zero,.L264
	.loc 1 1146 5 is_stmt 1
	.loc 1 1146 10
	.loc 1 1146 22 is_stmt 0
	addi	a2,sp,88
	mv	a1,s2
	mv	a0,s2
.LVL595:
	call	mbedtls_mpi_mul_mpi
.LVL596:
	mv	a5,a0
.LVL597:
	.loc 1 1146 12
	bne	a0,zero,.L264
	.loc 1 1146 102 is_stmt 1
	.loc 1 1146 107
	.loc 1 1146 112
	.loc 1 1146 124 is_stmt 0
	mv	a1,s1
	mv	a0,s2
.LVL598:
	call	ecp_modp
.LVL599:
	mv	a5,a0
.LVL600:
	.loc 1 1146 114
	bne	a0,zero,.L264
	.loc 1 1149 5 is_stmt 1
	.loc 1 1149 10
	.loc 1 1149 22 is_stmt 0
	addi	a1,sp,88
	addi	a2,sp,76
	mv	a0,a1
.LVL601:
	call	mbedtls_mpi_mul_mpi
.LVL602:
	mv	a5,a0
.LVL603:
	.loc 1 1149 12
	bne	a0,zero,.L264
	.loc 1 1149 95 is_stmt 1
	.loc 1 1149 100
	.loc 1 1149 105
	.loc 1 1149 117 is_stmt 0
	mv	a1,s1
	addi	a0,sp,88
.LVL604:
	call	ecp_modp
.LVL605:
	mv	a5,a0
.LVL606:
	.loc 1 1149 107
	bne	a0,zero,.L264
	.loc 1 1150 5 is_stmt 1
	.loc 1 1150 10
	.loc 1 1150 22 is_stmt 0
	addi	s4,s2,12
.LVL607:
	addi	a2,sp,88
	mv	a1,s4
	mv	a0,s4
.LVL608:
	call	mbedtls_mpi_mul_mpi
.LVL609:
	mv	a5,a0
.LVL610:
	.loc 1 1150 12
	bne	a0,zero,.L264
	.loc 1 1150 102 is_stmt 1
	.loc 1 1150 107
	.loc 1 1150 112
	.loc 1 1150 124 is_stmt 0
	mv	a1,s1
	mv	a0,s4
.LVL611:
	call	ecp_modp
.LVL612:
	mv	a5,a0
.LVL613:
	j	.L264
.LVL614:
.L275:
.LBE93:
.LBE92:
.LBE89:
.LBE88:
.LBB102:
.LBB87:
	.loc 1 1200 5
	mv	a5,s6
	.loc 1 1201 16
	li	s11,0
.L258:
.LVL615:
	.loc 1 1202 13 is_stmt 1
	.loc 1 1202 21 is_stmt 0
	mv	a1,a5
	addi	a0,sp,52
.LVL616:
	sw	a5,16(sp)
	call	mbedtls_mpi_get_bit
.LVL617:
	.loc 1 1202 18
	lbu	a4,0(s10)
	.loc 1 1202 57
	sll	a0,a0,s11
	lw	a5,16(sp)
	.loc 1 1202 18
	or	a0,a0,a4
	sb	a0,0(s10)
	.loc 1 1201 29
	addi	s11,s11,1
.LVL618:
	add	a5,a5,s5
	.loc 1 1201 9
	bgtu	s4,s11,.L258
	.loc 1 1200 25
	addi	s6,s6,1
.LVL619:
	addi	s10,s10,1
	j	.L257
.LVL620:
.L260:
	.loc 1 1209 9 is_stmt 1
	.loc 1 1209 15 is_stmt 0
	lbu	a2,1(s0)
.LVL621:
	.loc 1 1210 9 is_stmt 1
	.loc 1 1215 24 is_stmt 0
	lbu	a6,0(s0)
	addi	s0,s0,1
.LVL622:
	.loc 1 1210 14
	xor	a4,a2,a1
	.loc 1 1211 9 is_stmt 1
.LVL623:
	.loc 1 1214 9
	not	a5,a4
	andi	a5,a5,1
.LVL624:
	.loc 1 1215 9
	.loc 1 1215 30 is_stmt 0
	mul	a3,a6,a5
	.loc 1 1215 15
	slli	a4,a4,24
	srai	a4,a4,24
	.loc 1 1209 12
	and	a2,a2,a1
.LVL625:
	.loc 1 1217 26
	slli	a5,a5,7
.LVL626:
	.loc 1 1217 16
	or	a5,a5,a6
	sb	a5,-1(s0)
	.loc 1 1215 30
	slli	a3,a3,24
	srai	a3,a3,24
	.loc 1 1215 19
	and	a0,a4,a3
	.loc 1 1215 11
	or	a2,a0,a2
	.loc 1 1216 21
	xor	a4,a4,a3
	.loc 1 1216 14
	sb	a4,0(s0)
.LVL627:
	.loc 1 1215 11
	andi	a1,a2,0xff
.LVL628:
	.loc 1 1216 9 is_stmt 1
	.loc 1 1217 9
	j	.L259
.LVL629:
.L265:
.LBE87:
.LBE102:
.LBB103:
.LBB100:
.LBB96:
.LBB94:
	.loc 1 1134 13
	.loc 1 1134 18
	.loc 1 1134 30 is_stmt 0
	li	a1,1
	addi	a0,sp,76
	call	mbedtls_mpi_shift_r
.LVL630:
	mv	a5,a0
.LVL631:
	.loc 1 1134 20
	beq	a0,zero,.L263
.LVL632:
.L264:
	.loc 1 1153 5
	addi	a0,sp,76
.LVL633:
	sw	a5,12(sp)
.LVL634:
	.loc 1 1153 5 is_stmt 1
	call	mbedtls_mpi_free
.LVL635:
	.loc 1 1153 29
	addi	a0,sp,88
	call	mbedtls_mpi_free
.LVL636:
	.loc 1 1155 5
.LBE94:
.LBE96:
	.loc 1 1331 16 is_stmt 0
	lw	a5,12(sp)
	beq	a5,zero,.L262
	mv	s0,a5
	j	.L261
.LVL637:
.L269:
	.loc 1 1335 9 is_stmt 1
	.loc 1 1335 14
	.loc 1 1335 26 is_stmt 0
	mv	a2,s2
	mv	a1,s2
	mv	a0,s1
	call	ecp_double_jac
.LVL638:
	.loc 1 1335 16
	bne	a0,zero,.L279
	.loc 1 1336 9 is_stmt 1
	.loc 1 1336 14
	.loc 1 1336 26 is_stmt 0
	addi	a5,sp,136
.LVL639:
	add	a5,a5,s6
.LVL640:
	lbu	a4,0(a5)
	mv	a3,s9
	mv	a2,s3
	addi	a1,sp,100
	mv	a0,s1
.LVL641:
	call	ecp_select_comb
.LVL642:
	.loc 1 1336 16
	bne	a0,zero,.L279
	.loc 1 1337 9 is_stmt 1
	.loc 1 1337 14
	.loc 1 1337 26 is_stmt 0
	addi	a3,sp,100
	mv	a2,s2
	mv	a1,s2
	mv	a0,s1
.LVL643:
	call	ecp_add_mixed
.LVL644:
	.loc 1 1337 16
	beq	a0,zero,.L268
.L279:
	mv	s0,a0
	j	.L261
.LVL645:
.L262:
	.loc 1 1333 10
	li	s4,-1
.LVL646:
.L268:
	.loc 1 1333 13
	addi	s6,s6,-1
.LVL647:
	.loc 1 1333 10
	bne	s6,s4,.L269
.LVL648:
.L261:
	.loc 1 1342 5 is_stmt 1
.LBB97:
.LBB98:
	.loc 1 315 5
	addi	a0,sp,100
.LVL649:
	call	mbedtls_ecp_point_free.part.4
.LVL650:
.LBE98:
.LBE97:
	.loc 1 1344 5
.LBE100:
.LBE103:
	.loc 1 1441 12 is_stmt 0
	bne	s0,zero,.L256
.LVL651:
	.loc 1 1446 5 is_stmt 1
	.loc 1 1446 10
	.loc 1 1446 22 is_stmt 0
	mv	a2,s8
	mv	a1,s2
	mv	a0,s1
	call	ecp_safe_invert_jac
.LVL652:
	mv	s0,a0
.LVL653:
	.loc 1 1446 12
	bne	a0,zero,.L256
	.loc 1 1447 5 is_stmt 1
	.loc 1 1447 10
	.loc 1 1447 22 is_stmt 0
	mv	a1,s2
	mv	a0,s1
	call	ecp_normalize_jac
.LVL654:
	mv	s0,a0
.LVL655:
	.loc 1 1449 1
	j	.L256
.LVL656:
.L274:
	.loc 1 1415 17
	li	s0,-20480
.LVL657:
	addi	s0,s0,640
	j	.L246
.LVL658:
.L271:
	.loc 1 1368 15
	li	s0,-20480
.LVL659:
	addi	s0,s0,128
	j	.L239
.LVL660:
.L266:
.LBB104:
.LBB101:
.LBB99:
.LBB95:
	.loc 1 1137 19
	li	s0,-20480
	addi	s0,s0,768
	j	.L261
.LBE95:
.LBE99:
.LBE101:
.LBE104:
	.cfi_endproc
.LFE41:
	.size	ecp_mul_comb, .-ecp_mul_comb
	.section	.text.mbedtls_ecp_is_zero,"ax",@progbits
	.align	1
	.globl	mbedtls_ecp_is_zero
	.type	mbedtls_ecp_is_zero, @function
mbedtls_ecp_is_zero:
.LFB21:
	.loc 1 407 1 is_stmt 1
	.cfi_startproc
.LVL661:
	.loc 1 408 5
	.loc 1 407 1 is_stmt 0
	addi	sp,sp,-16
	.cfi_def_cfa_offset 16
	.loc 1 408 13
	li	a1,0
	addi	a0,a0,24
.LVL662:
	.loc 1 407 1
	sw	ra,12(sp)
	.cfi_offset 1, -4
	.loc 1 408 13
	call	mbedtls_mpi_cmp_int
.LVL663:
	.loc 1 409 1
	lw	ra,12(sp)
	.cfi_restore 1
	seqz	a0,a0
	addi	sp,sp,16
	.cfi_def_cfa_offset 0
	jr	ra
	.cfi_endproc
.LFE21:
	.size	mbedtls_ecp_is_zero, .-mbedtls_ecp_is_zero
	.section	.text.mbedtls_ecp_point_cmp,"ax",@progbits
	.align	1
	.globl	mbedtls_ecp_point_cmp
	.type	mbedtls_ecp_point_cmp, @function
mbedtls_ecp_point_cmp:
.LFB22:
	.loc 1 416 1 is_stmt 1
	.cfi_startproc
.LVL664:
	.loc 1 417 5
	.loc 1 416 1 is_stmt 0
	addi	sp,sp,-16
	.cfi_def_cfa_offset 16
	sw	s0,8(sp)
	sw	s1,4(sp)
	sw	ra,12(sp)
	.cfi_offset 8, -8
	.cfi_offset 9, -12
	.cfi_offset 1, -4
	.loc 1 416 1
	mv	s0,a0
	mv	s1,a1
	.loc 1 417 9
	call	mbedtls_mpi_cmp_mpi
.LVL665:
	.loc 1 417 7
	beq	a0,zero,.L300
.L302:
	.loc 1 424 11
	li	a0,-20480
	addi	a0,a0,128
.L299:
	.loc 1 425 1
	lw	ra,12(sp)
	.cfi_remember_state
	.cfi_restore 1
	lw	s0,8(sp)
	.cfi_restore 8
.LVL666:
	lw	s1,4(sp)
	.cfi_restore 9
.LVL667:
	addi	sp,sp,16
	.cfi_def_cfa_offset 0
	jr	ra
.LVL668:
.L300:
	.cfi_restore_state
	.loc 1 418 9 discriminator 1
	addi	a1,s1,12
	addi	a0,s0,12
	call	mbedtls_mpi_cmp_mpi
.LVL669:
	.loc 1 417 50 discriminator 1
	bne	a0,zero,.L302
	.loc 1 419 9
	addi	a1,s1,24
	addi	a0,s0,24
	call	mbedtls_mpi_cmp_mpi
.LVL670:
	.loc 1 418 50
	beq	a0,zero,.L299
	j	.L302
	.cfi_endproc
.LFE22:
	.size	mbedtls_ecp_point_cmp, .-mbedtls_ecp_point_cmp
	.section	.text.mbedtls_ecp_point_read_string,"ax",@progbits
	.align	1
	.globl	mbedtls_ecp_point_read_string
	.type	mbedtls_ecp_point_read_string, @function
mbedtls_ecp_point_read_string:
.LFB23:
	.loc 1 432 1 is_stmt 1
	.cfi_startproc
.LVL671:
	.loc 1 433 5
	.loc 1 435 5
	.loc 1 435 10
	.loc 1 432 1 is_stmt 0
	addi	sp,sp,-32
	.cfi_def_cfa_offset 32
	sw	s0,24(sp)
	sw	s1,20(sp)
	sw	ra,28(sp)
	.cfi_offset 8, -8
	.cfi_offset 9, -12
	.cfi_offset 1, -4
	.loc 1 432 1
	mv	s0,a0
	mv	s1,a1
	sw	a3,12(sp)
	.loc 1 435 22
	call	mbedtls_mpi_read_string
.LVL672:
	.loc 1 435 12
	bne	a0,zero,.L304
	.loc 1 436 5 is_stmt 1
	.loc 1 436 10
	.loc 1 436 22 is_stmt 0
	lw	a3,12(sp)
	mv	a1,s1
	addi	a0,s0,12
.LVL673:
	mv	a2,a3
	call	mbedtls_mpi_read_string
.LVL674:
	.loc 1 436 12
	bne	a0,zero,.L304
	.loc 1 437 5 is_stmt 1
	.loc 1 437 10
	.loc 1 437 22 is_stmt 0
	addi	a0,s0,24
.LVL675:
	.loc 1 441 1
	lw	s0,24(sp)
	.cfi_remember_state
	.cfi_restore 8
.LVL676:
	lw	ra,28(sp)
	.cfi_restore 1
	lw	s1,20(sp)
	.cfi_restore 9
.LVL677:
	.loc 1 437 22
	li	a1,1
	.loc 1 441 1
	addi	sp,sp,32
	.cfi_def_cfa_offset 0
.LVL678:
	.loc 1 437 22
	tail	mbedtls_mpi_lset
.LVL679:
.L305:
.L304:
	.cfi_restore_state
	.loc 1 441 1
	lw	ra,28(sp)
	.cfi_restore 1
	lw	s0,24(sp)
	.cfi_restore 8
.LVL680:
	lw	s1,20(sp)
	.cfi_restore 9
.LVL681:
	addi	sp,sp,32
	.cfi_def_cfa_offset 0
.LVL682:
	jr	ra
	.cfi_endproc
.LFE23:
	.size	mbedtls_ecp_point_read_string, .-mbedtls_ecp_point_read_string
	.section	.text.mbedtls_ecp_point_write_binary,"ax",@progbits
	.align	1
	.globl	mbedtls_ecp_point_write_binary
	.type	mbedtls_ecp_point_write_binary, @function
mbedtls_ecp_point_write_binary:
.LFB24:
	.loc 1 449 1 is_stmt 1
	.cfi_startproc
.LVL683:
	.loc 1 450 5
	.loc 1 451 5
	.loc 1 453 5
	.loc 1 449 1 is_stmt 0
	addi	sp,sp,-32
	.cfi_def_cfa_offset 32
	sw	s6,0(sp)
	sw	ra,28(sp)
	sw	s0,24(sp)
	sw	s1,20(sp)
	sw	s2,16(sp)
	sw	s3,12(sp)
	sw	s4,8(sp)
	sw	s5,4(sp)
	.cfi_offset 22, -32
	.cfi_offset 1, -4
	.cfi_offset 8, -8
	.cfi_offset 9, -12
	.cfi_offset 18, -16
	.cfi_offset 19, -20
	.cfi_offset 20, -24
	.cfi_offset 21, -28
	.loc 1 453 7
	li	s6,1
	bgtu	a2,s6,.L313
	mv	s1,a1
	mv	s2,a0
	.loc 1 460 5 is_stmt 1
	.loc 1 460 9 is_stmt 0
	li	a1,0
.LVL684:
	addi	a0,s1,24
.LVL685:
	mv	s3,a5
	mv	s0,a4
	mv	s4,a3
	mv	s5,a2
	call	mbedtls_mpi_cmp_int
.LVL686:
	.loc 1 460 7
	bne	a0,zero,.L309
	.loc 1 462 9 is_stmt 1
	.loc 1 462 11 is_stmt 0
	bne	s3,zero,.L310
.LVL687:
.L312:
	.loc 1 463 19
	li	a0,-20480
	addi	a0,a0,256
.LVL688:
.L307:
	.loc 1 497 1
	lw	ra,28(sp)
	.cfi_remember_state
	.cfi_restore 1
	lw	s0,24(sp)
	.cfi_restore 8
	lw	s1,20(sp)
	.cfi_restore 9
	lw	s2,16(sp)
	.cfi_restore 18
	lw	s3,12(sp)
	.cfi_restore 19
	lw	s4,8(sp)
	.cfi_restore 20
	lw	s5,4(sp)
	.cfi_restore 21
	lw	s6,0(sp)
	.cfi_restore 22
	addi	sp,sp,32
	.cfi_def_cfa_offset 0
	jr	ra
.LVL689:
.L310:
	.cfi_restore_state
	.loc 1 465 9 is_stmt 1
	.loc 1 465 16 is_stmt 0
	sb	zero,0(s0)
	.loc 1 466 9 is_stmt 1
	.loc 1 466 15 is_stmt 0
	sw	s6,0(s4)
	.loc 1 468 9 is_stmt 1
	.loc 1 468 15 is_stmt 0
	j	.L307
.L309:
.LVL690:
.LBB107:
.LBB108:
	.loc 1 471 5 is_stmt 1
	.loc 1 471 12 is_stmt 0
	addi	a0,s2,4
	call	mbedtls_mpi_size
.LVL691:
	mv	s2,a0
.LVL692:
	.loc 1 473 5 is_stmt 1
	.loc 1 473 7 is_stmt 0
	bne	s5,zero,.L311
	.loc 1 475 9 is_stmt 1
	.loc 1 475 19 is_stmt 0
	slli	a5,a0,1
	.loc 1 475 26
	addi	a5,a5,1
	.loc 1 475 15
	sw	a5,0(s4)
	.loc 1 477 9 is_stmt 1
	.loc 1 477 11 is_stmt 0
	bltu	s3,a5,.L312
	.loc 1 480 9 is_stmt 1
	.loc 1 480 16 is_stmt 0
	li	a5,4
	.loc 1 481 26
	mv	a2,a0
	.loc 1 480 16
	sb	a5,0(s0)
	.loc 1 481 9 is_stmt 1
	.loc 1 481 14
	.loc 1 481 26 is_stmt 0
	addi	a1,s0,1
	mv	a0,s1
.LVL693:
	call	mbedtls_mpi_write_binary
.LVL694:
	.loc 1 481 16
	bne	a0,zero,.L307
	.loc 1 482 9 is_stmt 1
	.loc 1 482 14
	.loc 1 482 67 is_stmt 0
	addi	a1,s2,1
	.loc 1 482 26
	mv	a2,s2
	add	a1,s0,a1
	addi	a0,s1,12
.LVL695:
.L315:
.LBE108:
.LBE107:
	.loc 1 497 1
	lw	s0,24(sp)
	.cfi_remember_state
	.cfi_restore 8
.LVL696:
	lw	ra,28(sp)
	.cfi_restore 1
	lw	s1,20(sp)
	.cfi_restore 9
.LVL697:
	lw	s2,16(sp)
	.cfi_restore 18
.LVL698:
	lw	s3,12(sp)
	.cfi_restore 19
.LVL699:
	lw	s4,8(sp)
	.cfi_restore 20
.LVL700:
	lw	s5,4(sp)
	.cfi_restore 21
.LVL701:
	lw	s6,0(sp)
	.cfi_restore 22
	addi	sp,sp,32
	.cfi_def_cfa_offset 0
.LBB110:
.LBB109:
	.loc 1 492 26
	tail	mbedtls_mpi_write_binary
.LVL702:
.L311:
	.cfi_restore_state
	.loc 1 484 10 is_stmt 1
	.loc 1 486 9
	.loc 1 486 22 is_stmt 0
	addi	a5,a0,1
	.loc 1 486 15
	sw	a5,0(s4)
	.loc 1 488 9 is_stmt 1
	.loc 1 488 11 is_stmt 0
	bltu	s3,a5,.L312
	.loc 1 491 9 is_stmt 1
	.loc 1 491 25 is_stmt 0
	li	a1,0
	addi	a0,s1,12
.LVL703:
	call	mbedtls_mpi_get_bit
.LVL704:
	.loc 1 491 23
	addi	a0,a0,2
	.loc 1 491 16
	sb	a0,0(s0)
	.loc 1 492 9 is_stmt 1
	.loc 1 492 14
	.loc 1 492 26 is_stmt 0
	mv	a2,s2
	addi	a1,s0,1
	mv	a0,s1
	j	.L315
.LVL705:
.L313:
.LBE109:
.LBE110:
	.loc 1 455 15
	li	a0,-20480
.LVL706:
	addi	a0,a0,128
	j	.L307
	.cfi_endproc
.LFE24:
	.size	mbedtls_ecp_point_write_binary, .-mbedtls_ecp_point_write_binary
	.section	.text.mbedtls_ecp_point_read_binary,"ax",@progbits
	.align	1
	.globl	mbedtls_ecp_point_read_binary
	.type	mbedtls_ecp_point_read_binary, @function
mbedtls_ecp_point_read_binary:
.LFB25:
	.loc 1 504 1 is_stmt 1
	.cfi_startproc
.LVL707:
	.loc 1 505 5
	.loc 1 506 5
	.loc 1 508 5
	.loc 1 508 7 is_stmt 0
	bne	a3,zero,.L317
.L323:
	.loc 1 509 15
	li	a0,-20480
.LVL708:
	addi	a0,a0,128
	.loc 1 533 1
	ret
.LVL709:
.L320:
	.cfi_def_cfa_offset 32
	.cfi_offset 1, -4
	.cfi_offset 8, -8
	.cfi_offset 9, -12
	.cfi_offset 18, -16
	.cfi_offset 19, -20
	.loc 1 509 15
	li	a0,-20480
.LVL710:
	addi	a0,a0,128
.L316:
	.loc 1 533 1
	lw	ra,28(sp)
	.cfi_restore 1
	lw	s0,24(sp)
	.cfi_restore 8
.LVL711:
	lw	s1,20(sp)
	.cfi_restore 9
.LVL712:
	lw	s2,16(sp)
	.cfi_restore 18
.LVL713:
	lw	s3,12(sp)
	.cfi_restore 19
.LVL714:
	addi	sp,sp,32
	.cfi_def_cfa_offset 0
	jr	ra
.LVL715:
.L317:
	.loc 1 511 5 is_stmt 1
	.loc 1 511 7 is_stmt 0
	lbu	a5,0(a2)
	bne	a5,zero,.L319
	.loc 1 513 9 is_stmt 1
	.loc 1 513 11 is_stmt 0
	li	a5,1
	bne	a3,a5,.L323
	.loc 1 514 13 is_stmt 1
	.loc 1 514 21 is_stmt 0
	mv	a0,a1
.LVL716:
	tail	mbedtls_ecp_set_zero
.LVL717:
.L319:
	.loc 1 504 1
	addi	sp,sp,-32
	.cfi_def_cfa_offset 32
.LBB113:
.LBB114:
	.loc 1 519 12
	addi	a0,a0,4
.LVL718:
.LBE114:
.LBE113:
	.loc 1 504 1
	sw	s0,24(sp)
	sw	s1,20(sp)
	sw	s2,16(sp)
	sw	s3,12(sp)
	.cfi_offset 8, -8
	.cfi_offset 9, -12
	.cfi_offset 18, -16
	.cfi_offset 19, -20
	mv	s1,a2
	sw	ra,28(sp)
	.cfi_offset 1, -4
	mv	s2,a3
	mv	s0,a1
.LVL719:
.LBB118:
.LBB115:
	.loc 1 519 5 is_stmt 1
	.loc 1 519 12 is_stmt 0
	call	mbedtls_mpi_size
.LVL720:
	.loc 1 521 7
	lbu	a4,0(s1)
	li	a5,4
	.loc 1 519 12
	mv	s3,a0
.LVL721:
	.loc 1 521 5 is_stmt 1
	.loc 1 521 7 is_stmt 0
	bne	a4,a5,.L321
	.loc 1 524 5 is_stmt 1
	.loc 1 524 19 is_stmt 0
	slli	a5,a0,1
	.loc 1 524 26
	addi	a5,a5,1
	.loc 1 524 7
	bne	s2,a5,.L320
	.loc 1 527 5 is_stmt 1
	.loc 1 527 10
	.loc 1 527 22 is_stmt 0
	mv	a2,a0
	addi	a1,s1,1
	mv	a0,s0
.LVL722:
	call	mbedtls_mpi_read_binary
.LVL723:
	.loc 1 527 12
	bne	a0,zero,.L316
	.loc 1 528 5 is_stmt 1
	.loc 1 528 10
	.loc 1 528 63 is_stmt 0
	addi	a1,s3,1
	.loc 1 528 22
	mv	a2,s3
	add	a1,s1,a1
	addi	a0,s0,12
.LVL724:
	call	mbedtls_mpi_read_binary
.LVL725:
	.loc 1 528 12
	bne	a0,zero,.L316
	.loc 1 529 5 is_stmt 1
	.loc 1 529 10
	.loc 1 529 22 is_stmt 0
	addi	a0,s0,24
.LVL726:
.LBE115:
.LBE118:
	.loc 1 533 1
	lw	s0,24(sp)
	.cfi_remember_state
	.cfi_restore 8
.LVL727:
	lw	ra,28(sp)
	.cfi_restore 1
	lw	s1,20(sp)
	.cfi_restore 9
.LVL728:
	lw	s2,16(sp)
	.cfi_restore 18
.LVL729:
	lw	s3,12(sp)
	.cfi_restore 19
.LVL730:
.LBB119:
.LBB116:
	.loc 1 529 22
	li	a1,1
.LBE116:
.LBE119:
	.loc 1 533 1
	addi	sp,sp,32
	.cfi_def_cfa_offset 0
.LBB120:
.LBB117:
	.loc 1 529 22
	tail	mbedtls_mpi_lset
.LVL731:
.L321:
	.cfi_restore_state
	.loc 1 522 15
	li	a0,-20480
.LVL732:
	addi	a0,a0,384
	j	.L316
.LBE117:
.LBE120:
	.cfi_endproc
.LFE25:
	.size	mbedtls_ecp_point_read_binary, .-mbedtls_ecp_point_read_binary
	.section	.text.mbedtls_ecp_tls_read_point,"ax",@progbits
	.align	1
	.globl	mbedtls_ecp_tls_read_point
	.type	mbedtls_ecp_tls_read_point, @function
mbedtls_ecp_tls_read_point:
.LFB26:
	.loc 1 543 1 is_stmt 1
	.cfi_startproc
.LVL733:
	.loc 1 544 5
	.loc 1 545 5
	.loc 1 550 5
	.loc 1 550 7 is_stmt 0
	li	a5,1
	bleu	a3,a5,.L327
	.loc 1 553 5 is_stmt 1
	.loc 1 553 18 is_stmt 0
	lw	a5,0(a2)
	.loc 1 553 23
	addi	a4,a5,1
	sw	a4,0(a2)
	.loc 1 553 14
	lbu	a5,0(a5)
.LVL734:
	.loc 1 554 5 is_stmt 1
	.loc 1 554 7 is_stmt 0
	beq	a5,zero,.L327
	.loc 1 554 44 discriminator 1
	addi	a3,a3,-1
.LVL735:
	.loc 1 554 22 discriminator 1
	bgtu	a5,a3,.L327
	.loc 1 560 5 is_stmt 1
.LVL736:
	.loc 1 561 5
	.loc 1 561 10 is_stmt 0
	add	a3,a4,a5
.LVL737:
	sw	a3,0(a2)
	.loc 1 563 5 is_stmt 1
	.loc 1 563 12 is_stmt 0
	mv	a3,a5
	mv	a2,a4
.LVL738:
	tail	mbedtls_ecp_point_read_binary
.LVL739:
.L327:
	.loc 1 564 1
	li	a0,-20480
.LVL740:
	addi	a0,a0,128
	ret
	.cfi_endproc
.LFE26:
	.size	mbedtls_ecp_tls_read_point, .-mbedtls_ecp_tls_read_point
	.section	.text.mbedtls_ecp_tls_write_point,"ax",@progbits
	.align	1
	.globl	mbedtls_ecp_tls_write_point
	.type	mbedtls_ecp_tls_write_point, @function
mbedtls_ecp_tls_write_point:
.LFB27:
	.loc 1 575 1 is_stmt 1
	.cfi_startproc
.LVL741:
	.loc 1 576 5
	.loc 1 581 5
	.loc 1 581 7 is_stmt 0
	beq	a5,zero,.L334
	.loc 1 575 1
	addi	sp,sp,-16
	.cfi_def_cfa_offset 16
	sw	s1,4(sp)
	.loc 1 584 17
	addi	a5,a5,-1
.LVL742:
	.cfi_offset 9, -12
	mv	s1,a4
	.loc 1 584 5 is_stmt 1
	.loc 1 584 17 is_stmt 0
	addi	a4,a4,1
.LVL743:
	.loc 1 575 1
	sw	s0,8(sp)
	sw	ra,12(sp)
	.cfi_offset 8, -8
	.cfi_offset 1, -4
	mv	s0,a3
	.loc 1 584 17
	call	mbedtls_ecp_point_write_binary
.LVL744:
	.loc 1 584 7
	bne	a0,zero,.L332
	.loc 1 591 5 is_stmt 1
	.loc 1 591 14 is_stmt 0
	lw	a5,0(s0)
	sb	a5,0(s1)
	.loc 1 592 5 is_stmt 1
	lw	a5,0(s0)
	addi	a5,a5,1
	sw	a5,0(s0)
	.loc 1 594 5
.L332:
	.loc 1 595 1 is_stmt 0
	lw	ra,12(sp)
	.cfi_restore 1
	lw	s0,8(sp)
	.cfi_restore 8
.LVL745:
	lw	s1,4(sp)
	.cfi_restore 9
.LVL746:
	addi	sp,sp,16
	.cfi_def_cfa_offset 0
	jr	ra
.LVL747:
.L334:
	.loc 1 582 15
	li	a0,-20480
.LVL748:
	addi	a0,a0,128
	.loc 1 595 1
	ret
	.cfi_endproc
.LFE27:
	.size	mbedtls_ecp_tls_write_point, .-mbedtls_ecp_tls_write_point
	.section	.text.mbedtls_ecp_tls_read_group,"ax",@progbits
	.align	1
	.globl	mbedtls_ecp_tls_read_group
	.type	mbedtls_ecp_tls_read_group, @function
mbedtls_ecp_tls_read_group:
.LFB28:
	.loc 1 601 1 is_stmt 1
	.cfi_startproc
.LVL749:
	.loc 1 602 5
	.loc 1 603 5
	.loc 1 608 5
	.loc 1 608 7 is_stmt 0
	li	a5,2
	bgtu	a2,a5,.L340
.L342:
	.loc 1 609 15
	li	a0,-20480
.LVL750:
	addi	a0,a0,128
	.loc 1 628 1
	ret
.LVL751:
.L340:
	.loc 1 614 5 is_stmt 1
	.loc 1 614 11 is_stmt 0
	lw	a5,0(a1)
	.loc 1 614 16
	addi	a4,a5,1
	sw	a4,0(a1)
	.loc 1 614 7
	lbu	a3,0(a5)
	li	a4,3
	bne	a3,a4,.L342
	.loc 1 601 1
	addi	sp,sp,-16
	.cfi_def_cfa_offset 16
	sw	s0,8(sp)
	sw	ra,12(sp)
	.cfi_offset 8, -8
	.cfi_offset 1, -4
	.loc 1 620 21
	addi	a4,a5,2
	sw	a4,0(a1)
	.loc 1 622 22
	addi	a3,a5,3
	.loc 1 620 12
	lbu	a4,1(a5)
	.loc 1 622 22
	sw	a3,0(a1)
	mv	s0,a0
	.loc 1 620 5 is_stmt 1
.LVL752:
	.loc 1 621 5
	.loc 1 622 15 is_stmt 0
	lbu	a0,2(a5)
.LVL753:
	.loc 1 621 12
	slli	a4,a4,8
.LVL754:
	.loc 1 622 5 is_stmt 1
	.loc 1 624 5
	.loc 1 624 24 is_stmt 0
	or	a0,a4,a0
	call	mbedtls_ecp_curve_info_from_tls_id
.LVL755:
	.loc 1 624 7
	beq	a0,zero,.L343
	.loc 1 627 5 is_stmt 1
	.loc 1 627 12 is_stmt 0
	lbu	a1,0(a0)
	mv	a0,s0
.LVL756:
	.loc 1 628 1
	lw	s0,8(sp)
	.cfi_remember_state
	.cfi_restore 8
.LVL757:
	lw	ra,12(sp)
	.cfi_restore 1
	addi	sp,sp,16
	.cfi_def_cfa_offset 0
	.loc 1 627 12
	tail	mbedtls_ecp_group_load
.LVL758:
.L343:
	.cfi_restore_state
	.loc 1 628 1
	lw	ra,12(sp)
	.cfi_restore 1
	lw	s0,8(sp)
	.cfi_restore 8
.LVL759:
	.loc 1 625 15
	li	a0,-20480
.LVL760:
	addi	a0,a0,384
	.loc 1 628 1
	addi	sp,sp,16
	.cfi_def_cfa_offset 0
	jr	ra
	.cfi_endproc
.LFE28:
	.size	mbedtls_ecp_tls_read_group, .-mbedtls_ecp_tls_read_group
	.section	.text.mbedtls_ecp_tls_write_group,"ax",@progbits
	.align	1
	.globl	mbedtls_ecp_tls_write_group
	.type	mbedtls_ecp_tls_write_group, @function
mbedtls_ecp_tls_write_group:
.LFB29:
	.loc 1 635 1 is_stmt 1
	.cfi_startproc
.LVL761:
	.loc 1 636 5
	.loc 1 638 5
	.loc 1 635 1 is_stmt 0
	addi	sp,sp,-32
	.cfi_def_cfa_offset 32
	sw	ra,28(sp)
	.cfi_offset 1, -4
	.loc 1 638 24
	lbu	a0,0(a0)
.LVL762:
	.loc 1 635 1
	sw	a1,12(sp)
	sw	a2,8(sp)
	sw	a3,4(sp)
	.loc 1 638 24
	call	mbedtls_ecp_curve_info_from_grp_id
.LVL763:
	.loc 1 638 7
	beq	a0,zero,.L350
	.loc 1 644 5 is_stmt 1
	.loc 1 644 11 is_stmt 0
	lw	a1,12(sp)
	.loc 1 645 7
	lw	a3,4(sp)
	.loc 1 644 11
	li	a5,3
	sw	a5,0(a1)
	.loc 1 645 5 is_stmt 1
	.loc 1 645 7 is_stmt 0
	li	a4,2
	bleu	a3,a4,.L351
	.loc 1 651 5 is_stmt 1
.LVL764:
	.loc 1 651 12 is_stmt 0
	lw	a2,8(sp)
	sb	a5,0(a2)
	.loc 1 656 5 is_stmt 1
	.loc 1 656 12 is_stmt 0
	lhu	a5,2(a0)
	srli	a5,a5,8
	sb	a5,1(a2)
	.loc 1 657 5 is_stmt 1
	.loc 1 657 12 is_stmt 0
	lhu	a5,2(a0)
	.loc 1 659 11
	li	a0,0
.LVL765:
	.loc 1 657 12
	sb	a5,2(a2)
	.loc 1 659 5 is_stmt 1
.LVL766:
.L348:
	.loc 1 660 1 is_stmt 0
	lw	ra,28(sp)
	.cfi_remember_state
	.cfi_restore 1
	addi	sp,sp,32
	.cfi_def_cfa_offset 0
.LVL767:
	jr	ra
.LVL768:
.L350:
	.cfi_restore_state
	.loc 1 639 15
	li	a0,-20480
.LVL769:
	addi	a0,a0,128
	j	.L348
.LVL770:
.L351:
	.loc 1 646 15
	li	a0,-20480
.LVL771:
	addi	a0,a0,256
	j	.L348
	.cfi_endproc
.LFE29:
	.size	mbedtls_ecp_tls_write_group, .-mbedtls_ecp_tls_write_group
	.section	.text.mbedtls_ecp_check_pubkey,"ax",@progbits
	.align	1
	.globl	mbedtls_ecp_check_pubkey
	.type	mbedtls_ecp_check_pubkey, @function
mbedtls_ecp_check_pubkey:
.LFB46:
	.loc 1 1886 1 is_stmt 1
	.cfi_startproc
.LVL772:
	.loc 1 1888 5
	.loc 1 1886 1 is_stmt 0
	addi	sp,sp,-64
	.cfi_def_cfa_offset 64
	sw	s3,44(sp)
	.cfi_offset 19, -20
	mv	s3,a1
	sw	s1,52(sp)
	.loc 1 1888 9
	li	a1,1
.LVL773:
	.cfi_offset 9, -12
	.loc 1 1886 1
	mv	s1,a0
	.loc 1 1888 9
	addi	a0,s3,24
.LVL774:
	.loc 1 1886 1
	sw	ra,60(sp)
	sw	s0,56(sp)
	sw	s2,48(sp)
	.cfi_offset 1, -4
	.cfi_offset 8, -8
	.cfi_offset 18, -16
	.loc 1 1888 9
	call	mbedtls_mpi_cmp_int
.LVL775:
	.loc 1 1888 7
	bne	a0,zero,.L369
	.loc 1 1896 5 is_stmt 1
	.loc 1 1896 9 is_stmt 0
	mv	a0,s1
	call	ecp_get_type
.LVL776:
	.loc 1 1896 7
	li	a5,1
	bne	a0,a5,.L370
	.loc 1 1897 9 is_stmt 1
.LVL777:
.LBB123:
.LBB124:
	.loc 1 1738 5
	.loc 1 1739 5
	.loc 1 1742 5
	.loc 1 1742 9 is_stmt 0
	li	a1,0
	mv	a0,s3
	call	mbedtls_mpi_cmp_int
.LVL778:
	.loc 1 1742 7
	bge	a0,zero,.L355
.LVL779:
.L369:
.LBE124:
.LBE123:
	.loc 1 1889 15
	li	s0,-20480
	addi	s0,s0,896
	j	.L353
.LVL780:
.L355:
.LBB127:
.LBB125:
	.loc 1 1743 9
	addi	s0,s3,12
	li	a1,0
	mv	a0,s0
	call	mbedtls_mpi_cmp_int
.LVL781:
	.loc 1 1742 46
	blt	a0,zero,.L369
	.loc 1 1744 9
	addi	s2,s1,4
	mv	a1,s2
	mv	a0,s3
	call	mbedtls_mpi_cmp_mpi
.LVL782:
	.loc 1 1743 46
	bge	a0,zero,.L369
	.loc 1 1745 9
	mv	a1,s2
	mv	a0,s0
	call	mbedtls_mpi_cmp_mpi
.LVL783:
	.loc 1 1744 53
	bge	a0,zero,.L369
	.loc 1 1748 5 is_stmt 1
	addi	a0,sp,8
	call	mbedtls_mpi_init
.LVL784:
	.loc 1 1748 30
	addi	a0,sp,20
	call	mbedtls_mpi_init
.LVL785:
	.loc 1 1754 5
	.loc 1 1754 10
	.loc 1 1754 22 is_stmt 0
	mv	a2,s0
	mv	a1,s0
	addi	a0,sp,8
	call	mbedtls_mpi_mul_mpi
.LVL786:
	mv	s0,a0
.LVL787:
	.loc 1 1754 12
	bne	a0,zero,.L358
	.loc 1 1754 102 is_stmt 1
	.loc 1 1754 107
	.loc 1 1754 112
	.loc 1 1754 124 is_stmt 0
	mv	a1,s1
	addi	a0,sp,8
	call	ecp_modp
.LVL788:
	mv	s0,a0
.LVL789:
	.loc 1 1754 114
	bne	a0,zero,.L358
	.loc 1 1755 5 is_stmt 1
	.loc 1 1755 10
	.loc 1 1755 22 is_stmt 0
	mv	a2,s3
	mv	a1,s3
	addi	a0,sp,20
	call	mbedtls_mpi_mul_mpi
.LVL790:
	mv	s0,a0
.LVL791:
	.loc 1 1755 12
	bne	a0,zero,.L358
	.loc 1 1755 103 is_stmt 1
	.loc 1 1755 108
	.loc 1 1755 113
	.loc 1 1755 125 is_stmt 0
	mv	a1,s1
	addi	a0,sp,20
	call	ecp_modp
.LVL792:
	mv	s0,a0
.LVL793:
	.loc 1 1755 115
	bne	a0,zero,.L358
	.loc 1 1758 5 is_stmt 1
	.loc 1 1758 7 is_stmt 0
	lw	a5,24(s1)
	bne	a5,zero,.L359
	.loc 1 1760 9 is_stmt 1
	.loc 1 1760 14
	.loc 1 1760 26 is_stmt 0
	addi	a1,sp,20
	li	a2,3
	mv	a0,a1
	call	mbedtls_mpi_sub_int
.LVL794:
.L376:
	.loc 1 1760 175
	mv	s0,a0
.LVL795:
	.loc 1 1760 165
	bne	a0,zero,.L358
	.loc 1 1760 105
	lw	a5,20(sp)
	blt	a5,zero,.L361
.L364:
	.loc 1 1767 5 is_stmt 1
	.loc 1 1767 10
	.loc 1 1767 22 is_stmt 0
	addi	a1,sp,20
	mv	a2,s3
	mv	a0,a1
	call	mbedtls_mpi_mul_mpi
.LVL796:
	mv	s0,a0
.LVL797:
	.loc 1 1767 12
	bne	a0,zero,.L358
	.loc 1 1767 101 is_stmt 1
	.loc 1 1767 106
	.loc 1 1767 111
	.loc 1 1767 123 is_stmt 0
	mv	a1,s1
	addi	a0,sp,20
	call	ecp_modp
.LVL798:
	mv	s0,a0
.LVL799:
	.loc 1 1767 113
	bne	a0,zero,.L358
	.loc 1 1768 5 is_stmt 1
	.loc 1 1768 10
	.loc 1 1768 22 is_stmt 0
	addi	a1,sp,20
	addi	a2,s1,28
	mv	a0,a1
	call	mbedtls_mpi_add_mpi
.LVL800:
.L378:
	.loc 1 1768 170
	mv	s0,a0
.LVL801:
	.loc 1 1768 160
	bne	a0,zero,.L358
.LVL802:
	.loc 1 1768 109
	mv	a1,s2
	addi	a0,sp,20
	call	mbedtls_mpi_cmp_mpi
.LVL803:
	.loc 1 1768 107
	bge	a0,zero,.L368
	.loc 1 1770 5 is_stmt 1
	.loc 1 1770 9 is_stmt 0
	addi	a1,sp,20
	addi	a0,sp,8
	call	mbedtls_mpi_cmp_mpi
.LVL804:
	mv	s0,a0
	.loc 1 1770 7
	beq	a0,zero,.L358
	.loc 1 1771 13
	li	s0,-20480
	addi	s0,s0,896
.LVL805:
.L358:
	.loc 1 1775 5 is_stmt 1
	addi	a0,sp,8
	call	mbedtls_mpi_free
.LVL806:
	.loc 1 1775 30
	addi	a0,sp,20
	call	mbedtls_mpi_free
.LVL807:
	.loc 1 1777 5
.L353:
.LBE125:
.LBE127:
	.loc 1 1900 1 is_stmt 0
	mv	a0,s0
	lw	ra,60(sp)
	.cfi_remember_state
	.cfi_restore 1
	lw	s0,56(sp)
	.cfi_restore 8
	lw	s1,52(sp)
	.cfi_restore 9
.LVL808:
	lw	s2,48(sp)
	.cfi_restore 18
	lw	s3,44(sp)
	.cfi_restore 19
.LVL809:
	addi	sp,sp,64
	.cfi_def_cfa_offset 0
	jr	ra
.LVL810:
.L361:
	.cfi_restore_state
.LBB128:
.LBB126:
	.loc 1 1760 120
	li	a1,0
	addi	a0,sp,20
	call	mbedtls_mpi_cmp_int
.LVL811:
	.loc 1 1760 117
	beq	a0,zero,.L364
	.loc 1 1760 158 is_stmt 1
	.loc 1 1760 163
	.loc 1 1760 175 is_stmt 0
	addi	a1,sp,20
	mv	a2,s2
	mv	a0,a1
	call	mbedtls_mpi_add_mpi
.LVL812:
	j	.L376
.L359:
	.loc 1 1764 9 is_stmt 1
	.loc 1 1764 14
	.loc 1 1764 26 is_stmt 0
	addi	a1,sp,20
	addi	a2,s1,16
	mv	a0,a1
	call	mbedtls_mpi_add_mpi
.LVL813:
.L377:
	.loc 1 1764 174
	mv	s0,a0
.LVL814:
	.loc 1 1764 164
	bne	a0,zero,.L358
	.loc 1 1764 113
	mv	a1,s2
	addi	a0,sp,20
	call	mbedtls_mpi_cmp_mpi
.LVL815:
	.loc 1 1764 111
	blt	a0,zero,.L364
	.loc 1 1764 157 is_stmt 1
	.loc 1 1764 162
	.loc 1 1764 174 is_stmt 0
	addi	a1,sp,20
	mv	a2,s2
	mv	a0,a1
	call	mbedtls_mpi_sub_abs
.LVL816:
	j	.L377
.LVL817:
.L368:
	.loc 1 1768 153 is_stmt 1
	.loc 1 1768 158
	.loc 1 1768 170 is_stmt 0
	addi	a1,sp,20
	mv	a2,s2
	mv	a0,a1
	call	mbedtls_mpi_sub_abs
.LVL818:
	j	.L378
.LVL819:
.L370:
.LBE126:
.LBE128:
	.loc 1 1899 11
	li	s0,-20480
	addi	s0,s0,128
	j	.L353
	.cfi_endproc
.LFE46:
	.size	mbedtls_ecp_check_pubkey, .-mbedtls_ecp_check_pubkey
	.section	.text.mbedtls_ecp_check_privkey,"ax",@progbits
	.align	1
	.globl	mbedtls_ecp_check_privkey
	.type	mbedtls_ecp_check_privkey, @function
mbedtls_ecp_check_privkey:
.LFB47:
	.loc 1 1906 1 is_stmt 1
	.cfi_startproc
.LVL820:
	.loc 1 1921 5
	.loc 1 1906 1 is_stmt 0
	addi	sp,sp,-16
	.cfi_def_cfa_offset 16
	sw	s0,8(sp)
	sw	s1,4(sp)
	sw	ra,12(sp)
	.cfi_offset 8, -8
	.cfi_offset 9, -12
	.cfi_offset 1, -4
	.loc 1 1906 1
	mv	s1,a0
	mv	s0,a1
	.loc 1 1921 9
	call	ecp_get_type
.LVL821:
	.loc 1 1921 7
	li	a5,1
	bne	a0,a5,.L382
	.loc 1 1924 9 is_stmt 1
	.loc 1 1924 13 is_stmt 0
	li	a1,1
	mv	a0,s0
	call	mbedtls_mpi_cmp_int
.LVL822:
	.loc 1 1924 11
	blt	a0,zero,.L381
	.loc 1 1925 13 discriminator 1
	addi	a1,s1,76
	mv	a0,s0
	call	mbedtls_mpi_cmp_mpi
.LVL823:
	.loc 1 1928 19 discriminator 1
	li	a5,0
	.loc 1 1924 45 discriminator 1
	blt	a0,zero,.L379
.L381:
	.loc 1 1926 19
	li	a5,-20480
	addi	a5,a5,896
.L379:
	.loc 1 1933 1
	lw	ra,12(sp)
	.cfi_remember_state
	.cfi_restore 1
	lw	s0,8(sp)
	.cfi_restore 8
.LVL824:
	lw	s1,4(sp)
	.cfi_restore 9
.LVL825:
	mv	a0,a5
	addi	sp,sp,16
	.cfi_def_cfa_offset 0
	jr	ra
.LVL826:
.L382:
	.cfi_restore_state
	.loc 1 1932 11
	li	a5,-20480
	addi	a5,a5,128
	j	.L379
	.cfi_endproc
.LFE47:
	.size	mbedtls_ecp_check_privkey, .-mbedtls_ecp_check_privkey
	.section	.text.mbedtls_ecp_mul,"ax",@progbits
	.align	1
	.globl	mbedtls_ecp_mul
	.type	mbedtls_ecp_mul, @function
mbedtls_ecp_mul:
.LFB42:
	.loc 1 1678 1 is_stmt 1
	.cfi_startproc
.LVL827:
	.loc 1 1679 5
	.loc 1 1685 5
	.loc 1 1678 1 is_stmt 0
	addi	sp,sp,-32
	.cfi_def_cfa_offset 32
	sw	s1,20(sp)
	sw	s4,8(sp)
	.cfi_offset 9, -12
	.cfi_offset 20, -24
	mv	s1,a0
	mv	s4,a1
	.loc 1 1685 9
	addi	a0,a3,24
.LVL828:
	li	a1,1
.LVL829:
	.loc 1 1678 1
	sw	s2,16(sp)
	sw	s3,12(sp)
	sw	s5,4(sp)
	sw	s6,0(sp)
	sw	ra,28(sp)
	sw	s0,24(sp)
	.cfi_offset 18, -16
	.cfi_offset 19, -20
	.cfi_offset 21, -28
	.cfi_offset 22, -32
	.cfi_offset 1, -4
	.cfi_offset 8, -8
	.loc 1 1678 1
	mv	s3,a2
	mv	s2,a3
	mv	s5,a4
	mv	s6,a5
	.loc 1 1685 9
	call	mbedtls_mpi_cmp_int
.LVL830:
	.loc 1 1685 7
	bne	a0,zero,.L387
	.loc 1 1688 5 is_stmt 1
	.loc 1 1688 17 is_stmt 0
	mv	a1,s3
	mv	a0,s1
	call	mbedtls_ecp_check_privkey
.LVL831:
	mv	s0,a0
.LVL832:
	.loc 1 1688 7
	bne	a0,zero,.L385
	.loc 1 1689 17 discriminator 1
	mv	a1,s2
	mv	a0,s1
	call	mbedtls_ecp_check_pubkey
.LVL833:
	mv	s0,a0
.LVL834:
	.loc 1 1688 60 discriminator 1
	bne	a0,zero,.L385
.LVL835:
.LBB131:
.LBB132:
	.loc 1 1710 5 is_stmt 1
	.loc 1 1710 9 is_stmt 0
	mv	a0,s1
	call	ecp_get_type
.LVL836:
	.loc 1 1710 7
	li	a5,1
	bne	a0,a5,.L385
	.loc 1 1711 9 is_stmt 1
.LBE132:
.LBE131:
	.loc 1 1729 1 is_stmt 0
	lw	s0,24(sp)
	.cfi_remember_state
	.cfi_restore 8
.LVL837:
	lw	ra,28(sp)
	.cfi_restore 1
.LBB137:
.LBB133:
	.loc 1 1711 15
	mv	a5,s6
	mv	a4,s5
.LBE133:
.LBE137:
	.loc 1 1729 1
	lw	s6,0(sp)
	.cfi_restore 22
.LVL838:
	lw	s5,4(sp)
	.cfi_restore 21
.LVL839:
.LBB138:
.LBB134:
	.loc 1 1711 15
	mv	a3,s2
	mv	a2,s3
.LBE134:
.LBE138:
	.loc 1 1729 1
	lw	s2,16(sp)
	.cfi_restore 18
.LVL840:
	lw	s3,12(sp)
	.cfi_restore 19
.LVL841:
.LBB139:
.LBB135:
	.loc 1 1711 15
	mv	a1,s4
	mv	a0,s1
.LBE135:
.LBE139:
	.loc 1 1729 1
	lw	s4,8(sp)
	.cfi_restore 20
.LVL842:
	lw	s1,20(sp)
	.cfi_restore 9
.LVL843:
	addi	sp,sp,32
	.cfi_def_cfa_offset 0
.LBB140:
.LBB136:
	.loc 1 1711 15
	tail	ecp_mul_comb
.LVL844:
.L387:
	.cfi_restore_state
.LBE136:
.LBE140:
	.loc 1 1686 15
	li	s0,-20480
	addi	s0,s0,128
.LVL845:
.L385:
	.loc 1 1729 1
	mv	a0,s0
	lw	ra,28(sp)
	.cfi_restore 1
	lw	s0,24(sp)
	.cfi_restore 8
	lw	s1,20(sp)
	.cfi_restore 9
.LVL846:
	lw	s2,16(sp)
	.cfi_restore 18
.LVL847:
	lw	s3,12(sp)
	.cfi_restore 19
.LVL848:
	lw	s4,8(sp)
	.cfi_restore 20
.LVL849:
	lw	s5,4(sp)
	.cfi_restore 21
.LVL850:
	lw	s6,0(sp)
	.cfi_restore 22
.LVL851:
	addi	sp,sp,32
	.cfi_def_cfa_offset 0
	jr	ra
	.cfi_endproc
.LFE42:
	.size	mbedtls_ecp_mul, .-mbedtls_ecp_mul
	.section	.text.mbedtls_ecp_mul_shortcuts,"ax",@progbits
	.align	1
	.type	mbedtls_ecp_mul_shortcuts, @function
mbedtls_ecp_mul_shortcuts:
.LFB44:
	.loc 1 1789 1 is_stmt 1
	.cfi_startproc
.LVL852:
	addi	sp,sp,-32
	.cfi_def_cfa_offset 32
	sw	s0,24(sp)
	sw	s1,20(sp)
	.cfi_offset 8, -8
	.cfi_offset 9, -12
	mv	s0,a1
	.loc 1 1790 5
	.loc 1 1792 5
	.loc 1 1789 1 is_stmt 0
	mv	s1,a0
	.loc 1 1792 9
	li	a1,1
.LVL853:
	mv	a0,a2
.LVL854:
	.loc 1 1789 1
	sw	a3,12(sp)
	.loc 1 1792 9
	sw	a2,8(sp)
	.loc 1 1789 1
	sw	ra,28(sp)
	.cfi_offset 1, -4
	.loc 1 1792 9
	call	mbedtls_mpi_cmp_int
.LVL855:
	.loc 1 1792 7
	lw	a2,8(sp)
	lw	a3,12(sp)
	bne	a0,zero,.L390
	.loc 1 1794 9 is_stmt 1
	.loc 1 1794 14
	.loc 1 1794 26 is_stmt 0
	mv	a0,s0
	.loc 1 1809 1
	lw	s0,24(sp)
	.cfi_remember_state
	.cfi_restore 8
.LVL856:
	lw	ra,28(sp)
	.cfi_restore 1
	lw	s1,20(sp)
	.cfi_restore 9
.LVL857:
	.loc 1 1794 26
	mv	a1,a3
	.loc 1 1809 1
	addi	sp,sp,32
	.cfi_def_cfa_offset 0
.LVL858:
	.loc 1 1794 26
	tail	mbedtls_ecp_copy
.LVL859:
.L390:
	.cfi_restore_state
	.loc 1 1796 14
	mv	a0,a2
	li	a1,-1
	sw	a3,12(sp)
.LVL860:
	.loc 1 1796 10 is_stmt 1
	.loc 1 1796 14 is_stmt 0
	sw	a2,8(sp)
.LVL861:
	call	mbedtls_mpi_cmp_int
.LVL862:
	.loc 1 1796 12
	lw	a2,8(sp)
	lw	a3,12(sp)
	bne	a0,zero,.L391
	.loc 1 1798 9 is_stmt 1
	.loc 1 1798 14
	.loc 1 1798 26 is_stmt 0
	mv	a1,a3
	mv	a0,s0
	call	mbedtls_ecp_copy
.LVL863:
	.loc 1 1798 16
	bne	a0,zero,.L389
.LVL864:
.LBB143:
.LBB144:
	.loc 1 1799 9 is_stmt 1
	.loc 1 1799 34 is_stmt 0
	addi	s0,s0,12
.LVL865:
	.loc 1 1799 13
	li	a1,0
	mv	a0,s0
.LVL866:
	call	mbedtls_mpi_cmp_int
.LVL867:
	.loc 1 1799 11
	beq	a0,zero,.L389
	.loc 1 1800 13 is_stmt 1
	.loc 1 1800 18
	.loc 1 1800 30 is_stmt 0
	mv	a2,s0
	mv	a0,s0
.LBE144:
.LBE143:
	.loc 1 1809 1
	lw	s0,24(sp)
	.cfi_remember_state
	.cfi_restore 8
.LVL868:
	lw	ra,28(sp)
	.cfi_restore 1
.LBB147:
.LBB145:
	.loc 1 1800 30
	addi	a1,s1,4
.LBE145:
.LBE147:
	.loc 1 1809 1
	lw	s1,20(sp)
	.cfi_restore 9
.LVL869:
	addi	sp,sp,32
	.cfi_def_cfa_offset 0
.LBB148:
.LBB146:
	.loc 1 1800 30
	tail	mbedtls_mpi_sub_mpi
.LVL870:
.L391:
	.cfi_restore_state
.LBE146:
.LBE148:
	.loc 1 1804 9 is_stmt 1
	.loc 1 1804 14
	.loc 1 1804 26 is_stmt 0
	mv	a1,s0
	.loc 1 1809 1
	lw	s0,24(sp)
	.cfi_remember_state
	.cfi_restore 8
.LVL871:
	lw	ra,28(sp)
	.cfi_restore 1
	.loc 1 1804 26
	mv	a0,s1
	.loc 1 1809 1
	lw	s1,20(sp)
	.cfi_restore 9
.LVL872:
	.loc 1 1804 26
	li	a5,0
	.loc 1 1809 1
	.loc 1 1804 26
	li	a4,0
	.loc 1 1809 1
	addi	sp,sp,32
	.cfi_def_cfa_offset 0
	.loc 1 1804 26
	tail	mbedtls_ecp_mul
.LVL873:
.L392:
.L389:
	.cfi_restore_state
	.loc 1 1809 1
	lw	ra,28(sp)
	.cfi_restore 1
	lw	s0,24(sp)
	.cfi_restore 8
	lw	s1,20(sp)
	.cfi_restore 9
.LVL874:
	addi	sp,sp,32
	.cfi_def_cfa_offset 0
	jr	ra
	.cfi_endproc
.LFE44:
	.size	mbedtls_ecp_mul_shortcuts, .-mbedtls_ecp_mul_shortcuts
	.section	.text.mbedtls_ecp_muladd,"ax",@progbits
	.align	1
	.globl	mbedtls_ecp_muladd
	.type	mbedtls_ecp_muladd, @function
mbedtls_ecp_muladd:
.LFB45:
	.loc 1 1818 1 is_stmt 1
	.cfi_startproc
.LVL875:
	.loc 1 1819 5
	.loc 1 1820 5
	.loc 1 1825 5
	.loc 1 1818 1 is_stmt 0
	addi	sp,sp,-96
	.cfi_def_cfa_offset 96
	sw	s1,84(sp)
	sw	s2,80(sp)
	sw	s3,76(sp)
	sw	s4,72(sp)
	sw	ra,92(sp)
	.cfi_offset 9, -12
	.cfi_offset 18, -16
	.cfi_offset 19, -20
	.cfi_offset 20, -24
	.cfi_offset 1, -4
	mv	s4,a5
	sw	s0,88(sp)
	.cfi_offset 8, -8
	.loc 1 1818 1
	mv	s1,a0
	mv	s2,a1
	sw	a2,12(sp)
	sw	a3,8(sp)
	mv	s3,a4
	.loc 1 1825 9
	call	ecp_get_type
.LVL876:
	.loc 1 1825 7
	li	a5,1
	bne	a0,a5,.L400
	.loc 1 1828 5 is_stmt 1
.LVL877:
.LBB149:
.LBB150:
	.loc 1 278 5
	addi	a0,sp,28
.LVL878:
	call	mbedtls_ecp_point_init.part.2
.LVL879:
.LBE150:
.LBE149:
	.loc 1 1830 5
	.loc 1 1830 10
	.loc 1 1830 22 is_stmt 0
	lw	a3,8(sp)
	lw	a2,12(sp)
	addi	a1,sp,28
	mv	a0,s1
	call	mbedtls_ecp_mul_shortcuts
.LVL880:
	mv	s0,a0
.LVL881:
	.loc 1 1830 12
	bne	a0,zero,.L399
	.loc 1 1831 5 is_stmt 1
	.loc 1 1831 10
	.loc 1 1831 22 is_stmt 0
	mv	a3,s4
	mv	a2,s3
	mv	a1,s2
	mv	a0,s1
	call	mbedtls_ecp_mul_shortcuts
.LVL882:
	mv	s0,a0
.LVL883:
	.loc 1 1831 12
	bne	a0,zero,.L399
	.loc 1 1845 5 is_stmt 1
	.loc 1 1845 10
	.loc 1 1845 22 is_stmt 0
	mv	a3,s2
	addi	a2,sp,28
	mv	a1,s2
	mv	a0,s1
	call	ecp_add_mixed
.LVL884:
	mv	s0,a0
.LVL885:
	.loc 1 1845 12
	bne	a0,zero,.L399
	.loc 1 1846 5 is_stmt 1
	.loc 1 1846 10
	.loc 1 1846 22 is_stmt 0
	mv	a1,s2
	mv	a0,s1
	call	ecp_normalize_jac
.LVL886:
	mv	s0,a0
.LVL887:
.L399:
	.loc 1 1862 5 is_stmt 1
.LBB151:
.LBB152:
	.loc 1 315 5
	addi	a0,sp,28
.LVL888:
	call	mbedtls_ecp_point_free.part.4
.LVL889:
.LBE152:
.LBE151:
	.loc 1 1864 5
.L397:
	.loc 1 1865 1 is_stmt 0
	mv	a0,s0
	lw	ra,92(sp)
	.cfi_remember_state
	.cfi_restore 1
	lw	s0,88(sp)
	.cfi_restore 8
	lw	s1,84(sp)
	.cfi_restore 9
.LVL890:
	lw	s2,80(sp)
	.cfi_restore 18
.LVL891:
	lw	s3,76(sp)
	.cfi_restore 19
.LVL892:
	lw	s4,72(sp)
	.cfi_restore 20
.LVL893:
	addi	sp,sp,96
	.cfi_def_cfa_offset 0
.LVL894:
	jr	ra
.LVL895:
.L400:
	.cfi_restore_state
	.loc 1 1826 15
	li	s0,-20480
	addi	s0,s0,384
	j	.L397
	.cfi_endproc
.LFE45:
	.size	mbedtls_ecp_muladd, .-mbedtls_ecp_muladd
	.section	.text.mbedtls_ecp_gen_keypair_base,"ax",@progbits
	.align	1
	.globl	mbedtls_ecp_gen_keypair_base
	.type	mbedtls_ecp_gen_keypair_base, @function
mbedtls_ecp_gen_keypair_base:
.LFB48:
	.loc 1 1943 1 is_stmt 1
	.cfi_startproc
.LVL896:
	.loc 1 1944 5
	.loc 1 1945 5
	.loc 1 1943 1 is_stmt 0
	addi	sp,sp,-128
	.cfi_def_cfa_offset 128
	sw	s1,116(sp)
	sw	s2,112(sp)
	sw	s4,104(sp)
	sw	s5,100(sp)
	sw	s7,92(sp)
	sw	s8,88(sp)
	sw	ra,124(sp)
	sw	s0,120(sp)
	sw	s3,108(sp)
	sw	s6,96(sp)
	sw	s9,84(sp)
	.cfi_offset 9, -12
	.cfi_offset 18, -16
	.cfi_offset 20, -24
	.cfi_offset 21, -28
	.cfi_offset 23, -36
	.cfi_offset 24, -40
	.cfi_offset 1, -4
	.cfi_offset 8, -8
	.cfi_offset 19, -20
	.cfi_offset 22, -32
	.cfi_offset 25, -44
	.loc 1 1943 1
	mv	s5,a5
	mv	s2,a0
	mv	s8,a1
	mv	s1,a2
	mv	s7,a3
	mv	s4,a4
	.loc 1 1945 34
	lw	s0,92(a0)
.LVL897:
	.loc 1 1972 5 is_stmt 1
	.loc 1 1972 9 is_stmt 0
	call	ecp_get_type
.LVL898:
	.loc 1 1972 7
	li	a5,1
	bne	a0,a5,.L410
	addi	s0,s0,7
.LVL899:
	srli	s6,s0,3
	li	s3,31
.LBB153:
	.loc 1 1989 56
	andi	s0,s0,-8
.LVL900:
	.loc 1 2004 40
	addi	s9,s2,76
.L403:
.LVL901:
	.loc 1 1976 9 is_stmt 1
	.loc 1 1985 9
	.loc 1 1987 13
	.loc 1 1987 18
	.loc 1 1987 30 is_stmt 0
	mv	a2,s6
	addi	a1,sp,12
	mv	a0,s5
	jalr	s4
.LVL902:
	.loc 1 1987 20
	bne	a0,zero,.L402
	.loc 1 1988 13 is_stmt 1
	.loc 1 1988 18
	.loc 1 1988 30 is_stmt 0
	mv	a2,s6
	addi	a1,sp,12
	mv	a0,s1
.LVL903:
	call	mbedtls_mpi_read_binary
.LVL904:
	.loc 1 1988 20
	bne	a0,zero,.L402
	.loc 1 1989 13 is_stmt 1
	.loc 1 1989 18
	.loc 1 1989 30 is_stmt 0
	lw	a1,92(s2)
	mv	a0,s1
.LVL905:
	sub	a1,s0,a1
	call	mbedtls_mpi_shift_r
.LVL906:
	.loc 1 1989 20
	bne	a0,zero,.L402
	.loc 1 2000 13 is_stmt 1
.LVL907:
	addi	s3,s3,-1
.LVL908:
	.loc 1 2000 15 is_stmt 0
	bne	s3,zero,.L406
	.loc 1 2001 17 is_stmt 1
	.loc 1 2001 23 is_stmt 0
	li	a0,-20480
.LVL909:
	addi	a0,a0,768
	j	.L402
.LVL910:
.L410:
.LBE153:
	.loc 1 2008 15
	li	a0,-20480
	addi	a0,a0,128
.LVL911:
.L402:
	.loc 1 2015 1
	lw	ra,124(sp)
	.cfi_remember_state
	.cfi_restore 1
	lw	s0,120(sp)
	.cfi_restore 8
	lw	s1,116(sp)
	.cfi_restore 9
.LVL912:
	lw	s2,112(sp)
	.cfi_restore 18
.LVL913:
	lw	s3,108(sp)
	.cfi_restore 19
	lw	s4,104(sp)
	.cfi_restore 20
.LVL914:
	lw	s5,100(sp)
	.cfi_restore 21
.LVL915:
	lw	s6,96(sp)
	.cfi_restore 22
	lw	s7,92(sp)
	.cfi_restore 23
.LVL916:
	lw	s8,88(sp)
	.cfi_restore 24
.LVL917:
	lw	s9,84(sp)
	.cfi_restore 25
	addi	sp,sp,128
	.cfi_def_cfa_offset 0
	jr	ra
.LVL918:
.L406:
	.cfi_restore_state
.LBB154:
	.loc 1 2003 16
	li	a1,1
	mv	a0,s1
.LVL919:
	call	mbedtls_mpi_cmp_int
.LVL920:
	.loc 1 2004 16
	blt	a0,zero,.L403
	.loc 1 2004 16 discriminator 1
	mv	a1,s9
	mv	a0,s1
	call	mbedtls_mpi_cmp_mpi
.LVL921:
	.loc 1 2003 48 discriminator 1
	bge	a0,zero,.L403
.LVL922:
.LBE154:
	.loc 1 2011 5 is_stmt 1
	.loc 1 2014 5
	.loc 1 2014 13 is_stmt 0
	mv	a5,s5
	mv	a4,s4
	mv	a3,s8
	mv	a2,s1
	mv	a1,s7
	mv	a0,s2
	call	mbedtls_ecp_mul
.LVL923:
	j	.L402
	.cfi_endproc
.LFE48:
	.size	mbedtls_ecp_gen_keypair_base, .-mbedtls_ecp_gen_keypair_base
	.section	.text.mbedtls_ecp_gen_keypair,"ax",@progbits
	.align	1
	.globl	mbedtls_ecp_gen_keypair
	.type	mbedtls_ecp_gen_keypair, @function
mbedtls_ecp_gen_keypair:
.LFB49:
	.loc 1 2024 1 is_stmt 1
	.cfi_startproc
.LVL924:
	.loc 1 2025 5
	.loc 1 2025 13 is_stmt 0
	mv	a5,a4
	mv	a4,a3
.LVL925:
	mv	a3,a2
.LVL926:
	mv	a2,a1
.LVL927:
	addi	a1,a0,40
.LVL928:
	tail	mbedtls_ecp_gen_keypair_base
.LVL929:
	.cfi_endproc
.LFE49:
	.size	mbedtls_ecp_gen_keypair, .-mbedtls_ecp_gen_keypair
	.section	.text.mbedtls_ecp_gen_key,"ax",@progbits
	.align	1
	.globl	mbedtls_ecp_gen_key
	.type	mbedtls_ecp_gen_key, @function
mbedtls_ecp_gen_key:
.LFB50:
	.loc 1 2033 1 is_stmt 1
	.cfi_startproc
.LVL930:
	.loc 1 2034 5
	.loc 1 2036 5
	.loc 1 2033 1 is_stmt 0
	addi	sp,sp,-32
	.cfi_def_cfa_offset 32
	sw	s0,24(sp)
	.cfi_offset 8, -8
	mv	s0,a1
	.loc 1 2036 17
	mv	a1,a0
.LVL931:
	mv	a0,s0
.LVL932:
	.loc 1 2033 1
	sw	ra,28(sp)
	.cfi_offset 1, -4
	.loc 1 2033 1
	sw	a2,12(sp)
	sw	a3,8(sp)
	.loc 1 2036 17
	call	mbedtls_ecp_group_load
.LVL933:
	.loc 1 2036 7
	bne	a0,zero,.L413
	.loc 1 2039 5 is_stmt 1
	.loc 1 2039 13 is_stmt 0
	lw	a2,12(sp)
	addi	a1,s0,124
	mv	a0,s0
.LVL934:
	mv	a3,a2
	addi	a2,s0,136
	.loc 1 2040 1
	lw	s0,24(sp)
	.cfi_remember_state
	.cfi_restore 8
.LVL935:
	.loc 1 2039 13
	lw	a4,8(sp)
	.loc 1 2040 1
	lw	ra,28(sp)
	.cfi_restore 1
	addi	sp,sp,32
	.cfi_def_cfa_offset 0
.LVL936:
	.loc 1 2039 13
	tail	mbedtls_ecp_gen_keypair
.LVL937:
.L413:
	.cfi_restore_state
	.loc 1 2040 1
	lw	ra,28(sp)
	.cfi_restore 1
	lw	s0,24(sp)
	.cfi_restore 8
.LVL938:
	addi	sp,sp,32
	.cfi_def_cfa_offset 0
.LVL939:
	jr	ra
	.cfi_endproc
.LFE50:
	.size	mbedtls_ecp_gen_key, .-mbedtls_ecp_gen_key
	.section	.text.mbedtls_ecp_check_pub_priv,"ax",@progbits
	.align	1
	.globl	mbedtls_ecp_check_pub_priv
	.type	mbedtls_ecp_check_pub_priv, @function
mbedtls_ecp_check_pub_priv:
.LFB51:
	.loc 1 2046 1 is_stmt 1
	.cfi_startproc
.LVL940:
	.loc 1 2047 5
	.loc 1 2048 5
	.loc 1 2049 5
	.loc 1 2051 5
	.loc 1 2046 1 is_stmt 0
	addi	sp,sp,-192
	.cfi_def_cfa_offset 192
	sw	ra,188(sp)
	sw	s0,184(sp)
	sw	s1,180(sp)
	sw	s2,176(sp)
	sw	s3,172(sp)
	sw	s4,168(sp)
	.cfi_offset 1, -4
	.cfi_offset 8, -8
	.cfi_offset 9, -12
	.cfi_offset 18, -16
	.cfi_offset 19, -20
	.cfi_offset 20, -24
	.loc 1 2051 17
	lbu	a5,0(a0)
	.loc 1 2051 7
	bne	a5,zero,.L417
.LVL941:
.L419:
	.loc 1 2057 15
	li	s0,-20480
	addi	s0,s0,128
.L416:
	.loc 1 2082 1
	mv	a0,s0
	lw	ra,188(sp)
	.cfi_remember_state
	.cfi_restore 1
	lw	s0,184(sp)
	.cfi_restore 8
	lw	s1,180(sp)
	.cfi_restore 9
	lw	s2,176(sp)
	.cfi_restore 18
	lw	s3,172(sp)
	.cfi_restore 19
	lw	s4,168(sp)
	.cfi_restore 20
	addi	sp,sp,192
	.cfi_def_cfa_offset 0
	jr	ra
.LVL942:
.L417:
	.cfi_restore_state
	.loc 1 2051 44 discriminator 1
	lbu	a4,0(a1)
	bne	a4,a5,.L419
	.loc 1 2053 9
	addi	s4,a1,136
	mv	s0,a1
	mv	s1,a0
	mv	a1,s4
.LVL943:
	addi	a0,a0,136
.LVL944:
	call	mbedtls_mpi_cmp_mpi
.LVL945:
	.loc 1 2052 36
	bne	a0,zero,.L419
	.loc 1 2054 9
	addi	s3,s0,148
	mv	a1,s3
	addi	a0,s1,148
	call	mbedtls_mpi_cmp_mpi
.LVL946:
	.loc 1 2053 53
	bne	a0,zero,.L419
	.loc 1 2055 9
	addi	s2,s0,160
	mv	a1,s2
	addi	a0,s1,160
	call	mbedtls_mpi_cmp_mpi
.LVL947:
	.loc 1 2054 53
	bne	a0,zero,.L419
	.loc 1 2060 5 is_stmt 1
.LVL948:
.LBB163:
.LBB164:
	.loc 1 278 5
	mv	a0,sp
	call	mbedtls_ecp_point_init.part.2
.LVL949:
.LBE164:
.LBE163:
	.loc 1 2061 5
	.loc 1 291 5
.LBB165:
.LBB166:
.LBB167:
	.loc 1 294 5
	li	a2,124
	li	a1,0
	addi	a0,sp,36
.LVL950:
	call	memset
.LVL951:
.LBE167:
.LBE166:
.LBE165:
	.loc 1 2064 5
	mv	a1,s0
	addi	a0,sp,36
	call	mbedtls_ecp_group_copy
.LVL952:
	.loc 1 2067 5
	.loc 1 2067 10
	.loc 1 2067 22 is_stmt 0
	addi	a3,s0,40
	addi	a2,s0,124
	li	a5,0
	li	a4,0
	mv	a1,sp
	addi	a0,sp,36
	call	mbedtls_ecp_mul
.LVL953:
	mv	s0,a0
.LVL954:
	.loc 1 2067 12
	bne	a0,zero,.L420
	.loc 1 2069 5 is_stmt 1
	.loc 1 2069 9 is_stmt 0
	mv	a1,s4
	mv	a0,sp
	call	mbedtls_mpi_cmp_mpi
.LVL955:
	.loc 1 2069 7
	bne	a0,zero,.L421
	.loc 1 2070 9 discriminator 1
	mv	a1,s3
	addi	a0,sp,12
	call	mbedtls_mpi_cmp_mpi
.LVL956:
	.loc 1 2069 48 discriminator 1
	bne	a0,zero,.L421
	.loc 1 2071 9
	mv	a1,s2
	addi	a0,sp,24
	call	mbedtls_mpi_cmp_mpi
.LVL957:
	mv	s0,a0
.LVL958:
	.loc 1 2070 48
	beq	a0,zero,.L420
.L421:
	.loc 1 2073 13
	li	s0,-20480
	addi	s0,s0,128
.L420:
.LVL959:
	.loc 1 2078 5 is_stmt 1
.LBB168:
.LBB169:
	.loc 1 315 5
	mv	a0,sp
	call	mbedtls_ecp_point_free.part.4
.LVL960:
.LBE169:
.LBE168:
	.loc 1 2079 5
	addi	a0,sp,36
	call	mbedtls_ecp_group_free
.LVL961:
	.loc 1 2081 5
	.loc 1 2081 11 is_stmt 0
	j	.L416
	.cfi_endproc
.LFE51:
	.size	mbedtls_ecp_check_pub_priv, .-mbedtls_ecp_check_pub_priv
	.section	.rodata.ecp_supported_curves,"a"
	.align	2
	.set	.LANCHOR0,. + 0
	.type	ecp_supported_curves, @object
	.size	ecp_supported_curves, 48
ecp_supported_curves:
	.byte	3
	.zero	1
	.half	23
	.half	256
	.zero	2
	.word	.LC0
	.byte	12
	.zero	1
	.half	22
	.half	256
	.zero	2
	.word	.LC1
	.byte	11
	.zero	1
	.half	20
	.half	224
	.zero	2
	.word	.LC2
	.byte	0
	.zero	1
	.half	0
	.half	0
	.zero	2
	.word	0
	.section	.rodata.str1.4,"aMS",@progbits,1
	.align	2
.LC0:
	.string	"secp256r1"
	.zero	2
.LC1:
	.string	"secp256k1"
	.zero	2
.LC2:
	.string	"secp224k1"
	.section	.sbss.ecp_supported_grp_id,"aw",@nobits
	.align	2
	.set	.LANCHOR2,. + 0
	.type	ecp_supported_grp_id, @object
	.size	ecp_supported_grp_id, 4
ecp_supported_grp_id:
	.zero	4
	.section	.sbss.init_done.3202,"aw",@nobits
	.align	2
	.set	.LANCHOR1,. + 0
	.type	init_done.3202, @object
	.size	init_done.3202, 4
init_done.3202:
	.zero	4
	.text
.Letext0:
	.file 2 "/b-l/bl_iot_sdk/toolchain/riscv/Linux/lib/gcc/riscv64-unknown-elf/8.3.0/include/stddef.h"
	.file 3 "/b-l/bl_iot_sdk/toolchain/riscv/Linux/lib/gcc/riscv64-unknown-elf/8.3.0/include/stdint-gcc.h"
	.file 4 "/b-l/bl_iot_sdk/toolchain/riscv/Linux/riscv64-unknown-elf/include/sys/_types.h"
	.file 5 "/b-l/bl_iot_sdk/toolchain/riscv/Linux/riscv64-unknown-elf/include/sys/reent.h"
	.file 6 "/b-l/bl_iot_sdk/toolchain/riscv/Linux/riscv64-unknown-elf/include/sys/lock.h"
	.file 7 "/b-l/bl_iot_sdk/components/security/mbedtls/include/mbedtls/bignum.h"
	.file 8 "/b-l/bl_iot_sdk/components/security/mbedtls/include/mbedtls/ecp.h"
	.file 9 "/b-l/bl_iot_sdk/toolchain/riscv/Linux/riscv64-unknown-elf/include/stdlib.h"
	.file 10 "/b-l/bl_iot_sdk/toolchain/riscv/Linux/riscv64-unknown-elf/include/time.h"
	.file 11 "/b-l/bl_iot_sdk/components/bl602/freertos_riscv_ram/portable/GCC/RISC-V/portmacro.h"
	.file 12 "/b-l/bl_iot_sdk/toolchain/riscv/Linux/riscv64-unknown-elf/include/string.h"
	.file 13 "/b-l/bl_iot_sdk/components/security/mbedtls/include/mbedtls/mycalloc.h"
	.file 14 "/b-l/bl_iot_sdk/components/bl602/freertos_riscv_ram/config/portable.h"