	.file	"md_wrap.c"
	.option nopic
	.attribute arch, "rv32i2p0_m2p0_f2p0_c2p0"
	.attribute unaligned_access, 0
	.attribute stack_align, 16
	.text
.Ltext0:
	.cfi_sections	.debug_frame
	.section	.text.md5_process_wrap,"ax",@progbits
	.align	1
	.type	md5_process_wrap, @function
md5_process_wrap:
.LFB10:
	.file 1 "/b-l/bl_iot_sdk/components/security/mbedtls/src/md_wrap.c"
	.loc 1 240 1
	.cfi_startproc
.LVL0:
	.loc 1 241 5
	tail	mbedtls_md5_process
.LVL1:
	.cfi_endproc
.LFE10:
	.size	md5_process_wrap, .-md5_process_wrap
	.section	.text.md5_clone_wrap,"ax",@progbits
	.align	1
	.type	md5_clone_wrap, @function
md5_clone_wrap:
.LFB9:
	.loc 1 234 1
	.cfi_startproc
.LVL2:
	.loc 1 235 5
	tail	mbedtls_md5_clone
.LVL3:
	.cfi_endproc
.LFE9:
	.size	md5_clone_wrap, .-md5_clone_wrap
	.section	.text.md5_ctx_free,"ax",@progbits
	.align	1
	.type	md5_ctx_free, @function
md5_ctx_free:
.LFB8:
	.loc 1 228 1
	.cfi_startproc
.LVL4:
	.loc 1 229 5
	.loc 1 228 1 is_stmt 0
	addi	sp,sp,-16
	.cfi_def_cfa_offset 16
	sw	s0,8(sp)
	sw	ra,12(sp)
	.cfi_offset 8, -8
	.cfi_offset 1, -4
	.loc 1 228 1
	mv	s0,a0
	.loc 1 229 5
	call	mbedtls_md5_free
.LVL5:
	.loc 1 230 5 is_stmt 1
	mv	a0,s0
	.loc 1 231 1 is_stmt 0
	lw	s0,8(sp)
	.cfi_restore 8
.LVL6:
	lw	ra,12(sp)
	.cfi_restore 1
	addi	sp,sp,16
	.cfi_def_cfa_offset 0
	.loc 1 230 5
	tail	vPortFree
.LVL7:
	.cfi_endproc
.LFE8:
	.size	md5_ctx_free, .-md5_ctx_free
	.section	.text.md5_ctx_alloc,"ax",@progbits
	.align	1
	.type	md5_ctx_alloc, @function
md5_ctx_alloc:
.LFB7:
	.loc 1 218 1 is_stmt 1
	.cfi_startproc
	.loc 1 219 5
	.loc 1 218 1 is_stmt 0
	addi	sp,sp,-16
	.cfi_def_cfa_offset 16
	.loc 1 219 17
	li	a1,88
	li	a0,1
	.loc 1 218 1
	sw	s0,8(sp)
	sw	ra,12(sp)
	.cfi_offset 8, -8
	.cfi_offset 1, -4
	.loc 1 219 17
	call	mycalloc
.LVL8:
	mv	s0,a0
.LVL9:
	.loc 1 221 5 is_stmt 1
	.loc 1 221 7 is_stmt 0
	beq	a0,zero,.L5
	.loc 1 222 9 is_stmt 1
	call	mbedtls_md5_init
.LVL10:
	.loc 1 224 5
.L5:
	.loc 1 225 1 is_stmt 0
	mv	a0,s0
	lw	ra,12(sp)
	.cfi_restore 1
	lw	s0,8(sp)
	.cfi_restore 8
.LVL11:
	addi	sp,sp,16
	.cfi_def_cfa_offset 0
	jr	ra
	.cfi_endproc
.LFE7:
	.size	md5_ctx_alloc, .-md5_ctx_alloc
	.section	.text.md5_finish_wrap,"ax",@progbits
	.align	1
	.type	md5_finish_wrap, @function
md5_finish_wrap:
.LFB6:
	.loc 1 213 1 is_stmt 1
	.cfi_startproc
.LVL12:
	.loc 1 214 5
	tail	mbedtls_md5_finish
.LVL13:
	.cfi_endproc
.LFE6:
	.size	md5_finish_wrap, .-md5_finish_wrap
	.section	.text.md5_update_wrap,"ax",@progbits
	.align	1
	.type	md5_update_wrap, @function
md5_update_wrap:
.LFB5:
	.loc 1 208 1
	.cfi_startproc
.LVL14:
	.loc 1 209 5
	tail	mbedtls_md5_update
.LVL15:
	.cfi_endproc
.LFE5:
	.size	md5_update_wrap, .-md5_update_wrap
	.section	.text.md5_starts_wrap,"ax",@progbits
	.align	1
	.type	md5_starts_wrap, @function
md5_starts_wrap:
.LFB4:
	.loc 1 202 1
	.cfi_startproc
.LVL16:
	.loc 1 203 5
	tail	mbedtls_md5_starts
.LVL17:
	.cfi_endproc
.LFE4:
	.size	md5_starts_wrap, .-md5_starts_wrap
	.section	.text.sha1_process_wrap,"ax",@progbits
	.align	1
	.type	sha1_process_wrap, @function
sha1_process_wrap:
.LFB17:
	.loc 1 417 1
	.cfi_startproc
.LVL18:
	.loc 1 418 5
	tail	mbedtls_sha1_process
.LVL19:
	.cfi_endproc
.LFE17:
	.size	sha1_process_wrap, .-sha1_process_wrap
	.section	.text.sha1_clone_wrap,"ax",@progbits
	.align	1
	.type	sha1_clone_wrap, @function
sha1_clone_wrap:
.LFB15:
	.loc 1 405 1
	.cfi_startproc
.LVL20:
	.loc 1 406 5
	tail	mbedtls_sha1_clone
.LVL21:
	.cfi_endproc
.LFE15:
	.size	sha1_clone_wrap, .-sha1_clone_wrap
	.section	.text.sha1_ctx_free,"ax",@progbits
	.align	1
	.type	sha1_ctx_free, @function
sha1_ctx_free:
.LFB16:
	.loc 1 411 1
	.cfi_startproc
.LVL22:
	.loc 1 412 5
	.loc 1 411 1 is_stmt 0
	addi	sp,sp,-16
	.cfi_def_cfa_offset 16
	sw	s0,8(sp)
	sw	ra,12(sp)
	.cfi_offset 8, -8
	.cfi_offset 1, -4
	.loc 1 411 1
	mv	s0,a0
	.loc 1 412 5
	call	mbedtls_sha1_free
.LVL23:
	.loc 1 413 5 is_stmt 1
	mv	a0,s0
	.loc 1 414 1 is_stmt 0
	lw	s0,8(sp)
	.cfi_restore 8
.LVL24:
	lw	ra,12(sp)
	.cfi_restore 1
	addi	sp,sp,16
	.cfi_def_cfa_offset 0
	.loc 1 413 5
	tail	vPortFree
.LVL25:
	.cfi_endproc
.LFE16:
	.size	sha1_ctx_free, .-sha1_ctx_free
	.section	.text.sha1_ctx_alloc,"ax",@progbits
	.align	1
	.type	sha1_ctx_alloc, @function
sha1_ctx_alloc:
.LFB14:
	.loc 1 395 1 is_stmt 1
	.cfi_startproc
	.loc 1 396 5
	.loc 1 395 1 is_stmt 0
	addi	sp,sp,-16
	.cfi_def_cfa_offset 16
	.loc 1 396 17
	li	a1,92
	li	a0,1
	.loc 1 395 1
	sw	s0,8(sp)
	sw	ra,12(sp)
	.cfi_offset 8, -8
	.cfi_offset 1, -4
	.loc 1 396 17
	call	mycalloc
.LVL26:
	mv	s0,a0
.LVL27:
	.loc 1 398 5 is_stmt 1
	.loc 1 398 7 is_stmt 0
	beq	a0,zero,.L18
	.loc 1 399 9 is_stmt 1
	call	mbedtls_sha1_init
.LVL28:
	.loc 1 401 5
.L18:
	.loc 1 402 1 is_stmt 0
	mv	a0,s0
	lw	ra,12(sp)
	.cfi_restore 1
	lw	s0,8(sp)
	.cfi_restore 8
.LVL29:
	addi	sp,sp,16
	.cfi_def_cfa_offset 0
	jr	ra
	.cfi_endproc
.LFE14:
	.size	sha1_ctx_alloc, .-sha1_ctx_alloc
	.section	.text.sha1_finish_wrap,"ax",@progbits
	.align	1
	.type	sha1_finish_wrap, @function
sha1_finish_wrap:
.LFB13:
	.loc 1 390 1 is_stmt 1
	.cfi_startproc
.LVL30:
	.loc 1 391 5
	tail	mbedtls_sha1_finish
.LVL31:
	.cfi_endproc
.LFE13:
	.size	sha1_finish_wrap, .-sha1_finish_wrap
	.section	.text.sha1_update_wrap,"ax",@progbits
	.align	1
	.type	sha1_update_wrap, @function
sha1_update_wrap:
.LFB12:
	.loc 1 385 1
	.cfi_startproc
.LVL32:
	.loc 1 386 5
	tail	mbedtls_sha1_update
.LVL33:
	.cfi_endproc
.LFE12:
	.size	sha1_update_wrap, .-sha1_update_wrap
	.section	.text.sha1_starts_wrap,"ax",@progbits
	.align	1
	.type	sha1_starts_wrap, @function
sha1_starts_wrap:
.LFB11:
	.loc 1 379 1
	.cfi_startproc
.LVL34:
	.loc 1 380 5
	tail	mbedtls_sha1_starts
.LVL35:
	.cfi_endproc
.LFE11:
	.size	sha1_starts_wrap, .-sha1_starts_wrap
	.section	.text.sha224_process_wrap,"ax",@progbits
	.align	1
	.type	sha224_process_wrap, @function
sha224_process_wrap:
.LFB25:
	.loc 1 540 1
	.cfi_startproc
.LVL36:
	.loc 1 541 5
	tail	mbedtls_sha256_process
.LVL37:
	.cfi_endproc
.LFE25:
	.size	sha224_process_wrap, .-sha224_process_wrap
	.section	.text.sha224_clone_wrap,"ax",@progbits
	.align	1
	.type	sha224_clone_wrap, @function
sha224_clone_wrap:
.LFB24:
	.loc 1 534 1
	.cfi_startproc
.LVL38:
	.loc 1 535 5
	tail	mbedtls_sha256_clone
.LVL39:
	.cfi_endproc
.LFE24:
	.size	sha224_clone_wrap, .-sha224_clone_wrap
	.section	.text.sha224_ctx_free,"ax",@progbits
	.align	1
	.type	sha224_ctx_free, @function
sha224_ctx_free:
.LFB23:
	.loc 1 528 1
	.cfi_startproc
.LVL40:
	.loc 1 529 5
	.loc 1 528 1 is_stmt 0
	addi	sp,sp,-16
	.cfi_def_cfa_offset 16
	sw	s0,8(sp)
	sw	ra,12(sp)
	.cfi_offset 8, -8
	.cfi_offset 1, -4
	.loc 1 528 1
	mv	s0,a0
	.loc 1 529 5
	call	mbedtls_sha256_free
.LVL41:
	.loc 1 530 5 is_stmt 1
	mv	a0,s0
	.loc 1 531 1 is_stmt 0
	lw	s0,8(sp)
	.cfi_restore 8
.LVL42:
	lw	ra,12(sp)
	.cfi_restore 1
	addi	sp,sp,16
	.cfi_def_cfa_offset 0
	.loc 1 530 5
	tail	vPortFree
.LVL43:
	.cfi_endproc
.LFE23:
	.size	sha224_ctx_free, .-sha224_ctx_free
	.section	.text.sha224_ctx_alloc,"ax",@progbits
	.align	1
	.type	sha224_ctx_alloc, @function
sha224_ctx_alloc:
.LFB22:
	.loc 1 518 1 is_stmt 1
	.cfi_startproc
	.loc 1 519 5
	.loc 1 518 1 is_stmt 0
	addi	sp,sp,-16
	.cfi_def_cfa_offset 16
	.loc 1 519 17
	li	a1,116
	li	a0,1
	.loc 1 518 1
	sw	s0,8(sp)
	sw	ra,12(sp)
	.cfi_offset 8, -8
	.cfi_offset 1, -4
	.loc 1 519 17
	call	mycalloc
.LVL44:
	mv	s0,a0
.LVL45:
	.loc 1 521 5 is_stmt 1
	.loc 1 521 7 is_stmt 0
	beq	a0,zero,.L31
	.loc 1 522 9 is_stmt 1
	call	mbedtls_sha256_init
.LVL46:
	.loc 1 524 5
.L31:
	.loc 1 525 1 is_stmt 0
	mv	a0,s0
	lw	ra,12(sp)
	.cfi_restore 1
	lw	s0,8(sp)
	.cfi_restore 8
.LVL47:
	addi	sp,sp,16
	.cfi_def_cfa_offset 0
	jr	ra
	.cfi_endproc
.LFE22:
	.size	sha224_ctx_alloc, .-sha224_ctx_alloc
	.section	.text.sha224_wrap,"ax",@progbits
	.align	1
	.type	sha224_wrap, @function
sha224_wrap:
.LFB21:
	.loc 1 513 1 is_stmt 1
	.cfi_startproc
.LVL48:
	.loc 1 514 5
	li	a3,1
	tail	mbedtls_sha256
.LVL49:
	.cfi_endproc
.LFE21:
	.size	sha224_wrap, .-sha224_wrap
	.section	.text.sha256_wrap,"ax",@progbits
	.align	1
	.type	sha256_wrap, @function
sha256_wrap:
.LFB27:
	.loc 1 620 1
	.cfi_startproc
.LVL50:
	.loc 1 621 5
	li	a3,0
	tail	mbedtls_sha256
.LVL51:
	.cfi_endproc
.LFE27:
	.size	sha256_wrap, .-sha256_wrap
	.section	.text.sha224_finish_wrap,"ax",@progbits
	.align	1
	.type	sha224_finish_wrap, @function
sha224_finish_wrap:
.LFB20:
	.loc 1 507 1
	.cfi_startproc
.LVL52:
	.loc 1 508 5
	tail	mbedtls_sha256_finish
.LVL53:
	.cfi_endproc
.LFE20:
	.size	sha224_finish_wrap, .-sha224_finish_wrap
	.section	.text.sha224_update_wrap,"ax",@progbits
	.align	1
	.type	sha224_update_wrap, @function
sha224_update_wrap:
.LFB19:
	.loc 1 502 1
	.cfi_startproc
.LVL54:
	.loc 1 503 5
	tail	mbedtls_sha256_update
.LVL55:
	.cfi_endproc
.LFE19:
	.size	sha224_update_wrap, .-sha224_update_wrap
	.section	.text.sha224_starts_wrap,"ax",@progbits
	.align	1
	.type	sha224_starts_wrap, @function
sha224_starts_wrap:
.LFB18:
	.loc 1 496 1
	.cfi_startproc
.LVL56:
	.loc 1 497 5
	li	a1,1
	tail	mbedtls_sha256_starts
.LVL57:
	.cfi_endproc
.LFE18:
	.size	sha224_starts_wrap, .-sha224_starts_wrap
	.section	.text.sha256_starts_wrap,"ax",@progbits
	.align	1
	.type	sha256_starts_wrap, @function
sha256_starts_wrap:
.LFB26:
	.loc 1 614 1
	.cfi_startproc
.LVL58:
	.loc 1 615 5
	li	a1,0
	tail	mbedtls_sha256_starts
.LVL59:
	.cfi_endproc
.LFE26:
	.size	sha256_starts_wrap, .-sha256_starts_wrap
	.globl	mbedtls_sha256_info
	.globl	mbedtls_sha224_info
	.globl	mbedtls_sha1_info
	.globl	mbedtls_md5_info
	.section	.rodata.mbedtls_md5_info,"a"
	.align	2
	.type	mbedtls_md5_info, @object
	.size	mbedtls_md5_info, 48
mbedtls_md5_info:
	.byte	3
	.zero	3
	.word	.LC3
	.word	16
	.word	64
	.word	md5_starts_wrap
	.word	md5_update_wrap
	.word	md5_finish_wrap
	.word	mbedtls_md5
	.word	md5_ctx_alloc
	.word	md5_ctx_free
	.word	md5_clone_wrap
	.word	md5_process_wrap
	.section	.rodata.mbedtls_sha1_info,"a"
	.align	2
	.type	mbedtls_sha1_info, @object
	.size	mbedtls_sha1_info, 48
mbedtls_sha1_info:
	.byte	4
	.zero	3
	.word	.LC2
	.word	20
	.word	64
	.word	sha1_starts_wrap
	.word	sha1_update_wrap
	.word	sha1_finish_wrap
	.word	mbedtls_sha1
	.word	sha1_ctx_alloc
	.word	sha1_ctx_free
	.word	sha1_clone_wrap
	.word	sha1_process_wrap
	.section	.rodata.mbedtls_sha224_info,"a"
	.align	2
	.type	mbedtls_sha224_info, @object
	.size	mbedtls_sha224_info, 48
mbedtls_sha224_info:
	.byte	5
	.zero	3
	.word	.LC1
	.word	28
	.word	64
	.word	sha224_starts_wrap
	.word	sha224_update_wrap
	.word	sha224_finish_wrap
	.word	sha224_wrap
	.word	sha224_ctx_alloc
	.word	sha224_ctx_free
	.word	sha224_clone_wrap
	.word	sha224_process_wrap
	.section	.rodata.mbedtls_sha256_info,"a"
	.align	2
	.type	mbedtls_sha256_info, @object
	.size	mbedtls_sha256_info, 48
mbedtls_sha256_info:
	.byte	6
	.zero	3
	.word	.LC0
	.word	32
	.word	64
	.word	sha256_starts_wrap
	.word	sha224_update_wrap
	.word	sha224_finish_wrap
	.word	sha256_wrap
	.word	sha224_ctx_alloc
	.word	sha224_ctx_free
	.word	sha224_clone_wrap
	.word	sha224_process_wrap
	.section	.rodata.str1.4,"aMS",@progbits,1
	.align	2
.LC0:
	.string	"SHA256"
	.zero	1
.LC1:
	.string	"SHA224"
	.zero	1
.LC2:
	.string	"SHA1"
	.zero	3
.LC3:
	.string	"MD5"
	.text
.Letext0:
	.file 2 "/b-l/bl_iot_sdk/toolchain/riscv/Linux/lib/gcc/riscv64-unknown-elf/8.3.0/include/stddef.h"
	.file 3 "/b-l/bl_iot_sdk/components/security/mbedtls/include/mbedtls/md.h"
	.file 4 "/b-l/bl_iot_sdk/components/security/mbedtls/include/mbedtls/md_internal.h"
	.file 5 "/b-l/bl_iot_sdk/toolchain/riscv/Linux/lib/gcc/riscv64-unknown-elf/8.3.0/include/stdint-gcc.h"
	.file 6 "/b-l/bl_iot_sdk/components/security/mbedtls/include/mbedtls/md5.h"
	.file 7 "/b-l/bl_iot_sdk/components/security/mbedtls/include/mbedtls/sha1.h"
	.file 8 "/b-l/bl_iot_sdk/components/security/mbedtls/include/mbedtls/sha256.h"
	.file 9 "/b-l/bl_iot_sdk/toolchain/riscv/Linux/riscv64-unknown-elf/include/sys/_types.h"
	.file 10 "/b-l/bl_iot_sdk/toolchain/riscv/Linux/riscv64-unknown-elf/include/sys/reent.h"
	.file 11 "/b-l/bl_iot_sdk/toolchain/riscv/Linux/riscv64-unknown-elf/include/sys/lock.h"
	.file 12 "/b-l/bl_iot_sdk/toolchain/riscv/Linux/riscv64-unknown-elf/include/stdlib.h"
	.file 13 "/b-l/bl_iot_sdk/toolchain/riscv/Linux/riscv64-unknown-elf/include/time.h"
	.file 14 "/b-l/bl_iot_sdk/components/bl602/freertos_riscv_ram/portable/GCC/RISC-V/portmacro.h"
	.file 15 "/b-l/bl_iot_sdk/components/bl602/freertos_riscv_ram/config/portable.h"
	.file 16 "/b-l/bl_iot_sdk/components/security/mbedtls/include/mbedtls/mycalloc.h"