	.file	"bl_adc.c"
	.option nopic
	.attribute arch, "rv32i2p0_m2p0_f2p0_c2p0"
	.attribute unaligned_access, 0
	.attribute stack_align, 16
	.text
.Ltext0:
	.cfi_sections	.debug_frame
	.section	.text.adc_data_update,"ax",@progbits
	.align	1
	.type	adc_data_update, @function
adc_data_update:
.LFB33:
	.file 1 "/home/hogc/build-tools/sdk/bl/bl_iot_sdk/components/hal_drv/bl602_hal/bl_adc.c"
	.loc 1 226 1
	.cfi_startproc
	.loc 1 227 5
	.loc 1 229 5
	.loc 1 226 1 is_stmt 0
	addi	sp,sp,-16
	.cfi_def_cfa_offset 16
	.loc 1 229 14
	li	a0,1
	.loc 1 226 1
	sw	ra,12(sp)
	.cfi_offset 1, -4
	.loc 1 229 14
	call	bl_dma_find_ctx_by_channel
.LVL0:
	.loc 1 230 5 is_stmt 1
	.loc 1 230 8 is_stmt 0
	bne	a0,zero,.L2
.LBB24:
.LBB25:
	.loc 1 231 9 is_stmt 1
	.loc 1 231 47
	.loc 1 231 52
	.loc 1 231 75 is_stmt 0
	lui	a5,%hi(_fsymc_level_hal_drv)
	.loc 1 231 55
	lbu	a4,%lo(_fsymc_level_hal_drv)(a5)
	li	a5,4
	bgtu	a4,a5,.L1
	.loc 1 231 121
	lui	a4,%hi(_fsymf_level_hal_drvbl_adc)
	.loc 1 231 100
	lbu	a4,%lo(_fsymf_level_hal_drvbl_adc)(a4)
	bgtu	a4,a5,.L1
	.loc 1 231 156 is_stmt 1
.LBB26:
.LBB27:
	.file 2 "/home/hogc/build-tools/sdk/bl/bl_iot_sdk/components/bl602/freertos_riscv_ram/portable/GCC/RISC-V/portmacro.h"
	.loc 2 151 5
	.loc 2 151 31 is_stmt 0
	lui	a5,%hi(TrapNetCounter)
.LBE27:
.LBE26:
	.loc 1 231 156
	lw	a5,%lo(TrapNetCounter)(a5)
	beq	a5,zero,.L4
	.loc 1 231 238
	call	xTaskGetTickCountFromISR
.LVL1:
.L5:
.LBE25:
.LBE24:
	.loc 1 244 1
	lw	ra,12(sp)
	.cfi_remember_state
	.cfi_restore 1
.LBB31:
.LBB28:
	.loc 1 231 156
	lui	a3,%hi(.LC0)
	lui	a2,%hi(.LC1)
	mv	a1,a0
	lui	a0,%hi(.LC2)
.LBE28:
.LBE31:
	.loc 1 244 1
.LBB32:
.LBB29:
	.loc 1 231 156
	li	a4,231
	addi	a3,a3,%lo(.LC0)
	addi	a2,a2,%lo(.LC1)
	addi	a0,a0,%lo(.LC2)
.LBE29:
.LBE32:
	.loc 1 244 1
	addi	sp,sp,16
	.cfi_def_cfa_offset 0
.LBB33:
.LBB30:
	.loc 1 231 156
	tail	bl_printk
.LVL2:
.L4:
	.cfi_restore_state
	.loc 1 231 267
	call	xTaskGetTickCount
.LVL3:
	j	.L5
.LVL4:
.L2:
.LBE30:
.LBE33:
	.loc 1 235 5 is_stmt 1
	.loc 1 235 8 is_stmt 0
	lw	a4,8(a0)
	lw	a5,4(a0)
	bne	a4,zero,.L6
	.loc 1 236 9 is_stmt 1
	.loc 1 236 30 is_stmt 0
	lw	a5,4(a5)
	sw	a5,0(a0)
	.loc 1 237 9 is_stmt 1
	.loc 1 237 26 is_stmt 0
	li	a5,1
	sw	a5,8(a0)
.L1:
	.loc 1 244 1
	lw	ra,12(sp)
	.cfi_remember_state
	.cfi_restore 1
	addi	sp,sp,16
	.cfi_def_cfa_offset 0
	jr	ra
.L6:
	.cfi_restore_state
	.loc 1 239 9 is_stmt 1
	.loc 1 239 30 is_stmt 0
	lw	a5,20(a5)
	.loc 1 240 26
	sw	zero,8(a0)
	.loc 1 239 30
	sw	a5,0(a0)
	.loc 1 240 9 is_stmt 1
	j	.L1
	.cfi_endproc
.LFE33:
	.size	adc_data_update, .-adc_data_update
	.section	.text.ADC_Clock_Init,"ax",@progbits
	.align	1
	.globl	ADC_Clock_Init
	.type	ADC_Clock_Init, @function
ADC_Clock_Init:
.LFB27:
	.loc 1 78 1
	.cfi_startproc
.LVL5:
	.loc 1 79 5
	.loc 1 78 1 is_stmt 0
	addi	sp,sp,-16
	.cfi_def_cfa_offset 16
	sw	s0,8(sp)
	.loc 1 79 5
	mv	a2,a0
	.cfi_offset 8, -8
	.loc 1 78 1
	mv	s0,a0
	.loc 1 79 5
	li	a1,0
	li	a0,1
.LVL6:
	.loc 1 78 1
	sw	ra,12(sp)
	.cfi_offset 1, -4
	.loc 1 79 5
	call	GLB_Set_ADC_CLK
.LVL7:
	.loc 1 80 5 is_stmt 1
	.loc 1 80 43
	.loc 1 80 48
	.loc 1 80 70 is_stmt 0
	lui	a5,%hi(_fsymc_level_hal_drv)
	.loc 1 80 51
	lbu	a4,%lo(_fsymc_level_hal_drv)(a5)
	li	a5,2
	bgtu	a4,a5,.L8
	.loc 1 80 115 discriminator 3
	lui	a4,%hi(_fsymf_level_hal_drvbl_adc)
	.loc 1 80 95 discriminator 3
	lbu	a4,%lo(_fsymf_level_hal_drvbl_adc)(a4)
	bgtu	a4,a5,.L8
.LVL8:
.LBB38:
.LBB39:
	.loc 1 80 150 is_stmt 1
.LBB40:
.LBB41:
	.loc 2 151 5
	.loc 2 151 31 is_stmt 0
	lui	a5,%hi(TrapNetCounter)
.LBE41:
.LBE40:
	.loc 1 80 150
	lw	a5,%lo(TrapNetCounter)(a5)
	beq	a5,zero,.L10
	.loc 1 80 261
	call	xTaskGetTickCountFromISR
.LVL9:
.L11:
	.loc 1 80 150
	mv	a6,s0
	mv	a5,s0
.LBE39:
.LBE38:
	.loc 1 81 1
	lw	s0,8(sp)
	.cfi_remember_state
	.cfi_restore 8
.LVL10:
	lw	ra,12(sp)
	.cfi_restore 1
.LBB45:
.LBB42:
	.loc 1 80 150
	lui	a3,%hi(.LC0)
	lui	a2,%hi(.LC3)
	mv	a1,a0
	lui	a0,%hi(.LC4)
.LBE42:
.LBE45:
	.loc 1 81 1
.LBB46:
.LBB43:
	.loc 1 80 150
	li	a4,80
	addi	a3,a3,%lo(.LC0)
	addi	a2,a2,%lo(.LC3)
	addi	a0,a0,%lo(.LC4)
.LBE43:
.LBE46:
	.loc 1 81 1
	addi	sp,sp,16
	.cfi_def_cfa_offset 0
.LBB47:
.LBB44:
	.loc 1 80 150
	tail	bl_printk
.LVL11:
.L10:
	.cfi_restore_state
	.loc 1 80 290
	call	xTaskGetTickCount
.LVL12:
	j	.L11
.LVL13:
.L8:
.LBE44:
.LBE47:
	.loc 1 81 1
	lw	ra,12(sp)
	.cfi_restore 1
	lw	s0,8(sp)
	.cfi_restore 8
	addi	sp,sp,16
	.cfi_def_cfa_offset 0
	jr	ra
	.cfi_endproc
.LFE27:
	.size	ADC_Clock_Init, .-ADC_Clock_Init
	.section	.text.TSEN_Calibration,"ax",@progbits
	.align	1
	.globl	TSEN_Calibration
	.type	TSEN_Calibration, @function
TSEN_Calibration:
.LFB28:
	.loc 1 84 1 is_stmt 1
	.cfi_startproc
	.loc 1 85 5
	.loc 1 84 1 is_stmt 0
	addi	sp,sp,-16
	.cfi_def_cfa_offset 16
	sw	ra,12(sp)
	.cfi_offset 1, -4
	.loc 1 85 5
	call	ADC_SET_TSVBE_LOW
.LVL14:
	.loc 1 86 5 is_stmt 1
	call	ADC_Start
.LVL15:
	.loc 1 87 5
	li	a0,100
	call	BL602_Delay_MS
.LVL16:
	.loc 1 88 5
.L14:
	.loc 1 88 37 discriminator 1
	.loc 1 88 11 is_stmt 0 discriminator 1
	call	ADC_Get_FIFO_Count
.LVL17:
	.loc 1 88 10 discriminator 1
	beq	a0,zero,.L14
	.loc 1 89 5 is_stmt 1
	call	ADC_Read_FIFO
.LVL18:
	.loc 1 91 5
	call	ADC_SET_TSVBE_HIGH
.LVL19:
	.loc 1 92 5
	call	ADC_Start
.LVL20:
	.loc 1 93 5
	li	a0,100
	call	BL602_Delay_MS
.LVL21:
	.loc 1 94 5
.L15:
	.loc 1 94 37 discriminator 1
	.loc 1 94 11 is_stmt 0 discriminator 1
	call	ADC_Get_FIFO_Count
.LVL22:
	.loc 1 94 10 discriminator 1
	beq	a0,zero,.L15
	.loc 1 95 5 is_stmt 1
	call	ADC_Read_FIFO
.LVL23:
	.loc 1 97 5
	.loc 1 98 1 is_stmt 0
	lw	ra,12(sp)
	.cfi_restore 1
	addi	sp,sp,16
	.cfi_def_cfa_offset 0
	.loc 1 97 5
	tail	ADC_SET_TSVBE_LOW
.LVL24:
	.cfi_endproc
.LFE28:
	.size	TSEN_Calibration, .-TSEN_Calibration
	.section	.text.test_adc_init,"ax",@progbits
	.align	1
	.globl	test_adc_init
	.type	test_adc_init, @function
test_adc_init:
.LFB30:
	.loc 1 155 1 is_stmt 1
	.cfi_startproc
	.loc 1 156 5
	.loc 1 155 1 is_stmt 0
	addi	sp,sp,-16
	.cfi_def_cfa_offset 16
	.loc 1 156 5
	li	a0,2
	.loc 1 155 1
	sw	ra,12(sp)
	.cfi_offset 1, -4
	.loc 1 156 5
	call	ADC_Clock_Init
.LVL25:
	.loc 1 158 5 is_stmt 1
	call	ADC_Reset
.LVL26:
	.loc 1 160 5
	call	ADC_Disable
.LVL27:
	.loc 1 161 5
	call	ADC_Enable
.LVL28:
	.loc 1 163 5
	lui	a0,%hi(.LANCHOR0)
	addi	a0,a0,%lo(.LANCHOR0)
	call	ADC_Init
.LVL29:
	.loc 1 164 5
	li	a2,0
	li	a1,23
	li	a0,14
	call	ADC_Channel_Config
.LVL30:
	.loc 1 165 5
	li	a0,0
	call	ADC_Tsen_Init
.LVL31:
	.loc 1 167 5
	lui	a0,%hi(.LANCHOR1)
	addi	a0,a0,%lo(.LANCHOR1)
	call	ADC_FIFO_Cfg
.LVL32:
	.loc 1 168 5
	call	TSEN_Calibration
.LVL33:
	.loc 1 170 5
	.loc 1 171 1 is_stmt 0
	lw	ra,12(sp)
	.cfi_restore 1
	li	a0,0
	addi	sp,sp,16
	.cfi_def_cfa_offset 0
	jr	ra
	.cfi_endproc
.LFE30:
	.size	test_adc_init, .-test_adc_init
	.globl	__extendsfdf2
	.globl	__divdf3
	.globl	__truncdfsf2
	.section	.text.test_adc_get,"ax",@progbits
	.align	1
	.globl	test_adc_get
	.type	test_adc_get, @function
test_adc_get:
.LFB31:
	.loc 1 174 1 is_stmt 1
	.cfi_startproc
.LVL34:
	.loc 1 175 5
	.loc 1 176 5
	.loc 1 174 1 is_stmt 0
	addi	sp,sp,-64
	.cfi_def_cfa_offset 64
	.loc 1 203 21
	lui	a5,%hi(.LC5)
	.loc 1 174 1
	fsw	fs0,28(sp)
	.cfi_offset 40, -36
	.loc 1 203 21
	flw	fs0,%lo(.LC5)(a5)
	.loc 1 204 31
	lui	a5,%hi(.LC6)
	.loc 1 174 1
	sw	s4,40(sp)
	sw	s5,36(sp)
	.cfi_offset 20, -24
	.cfi_offset 21, -28
	.loc 1 204 31
	lw	s4,%lo(.LC6)(a5)
	lw	s5,%lo(.LC6+4)(a5)
	.loc 1 174 1
	sw	s0,56(sp)
	sw	s1,52(sp)
	sw	s2,48(sp)
	sw	s3,44(sp)
	sw	ra,60(sp)
	.cfi_offset 8, -8
	.cfi_offset 9, -12
	.cfi_offset 18, -16
	.cfi_offset 19, -20
	.cfi_offset 1, -4
	.loc 1 174 1
	mv	s3,a0
	.loc 1 176 14
	sw	zero,4(sp)
	.loc 1 177 5 is_stmt 1
.LVL35:
	.loc 1 178 5
	.loc 1 179 5
	.loc 1 181 5
	.loc 1 178 19 is_stmt 0
	li	s2,0
	.loc 1 178 14
	li	s1,0
	.loc 1 181 12
	li	s0,0
.LVL36:
.L30:
	.loc 1 182 9 is_stmt 1
	call	ADC_Start
.LVL37:
	.loc 1 184 9
.L24:
	.loc 1 184 15 is_stmt 0
	call	ADC_Get_FIFO_Count
.LVL38:
	.loc 1 184 14
	beq	a0,zero,.L25
.L28:
	.loc 1 189 9 is_stmt 1
	.loc 1 190 13
	.loc 1 190 22 is_stmt 0
	call	ADC_Read_FIFO
.LVL39:
	.loc 1 190 20
	sw	a0,4(sp)
	.loc 1 191 13 is_stmt 1
	addi	a2,sp,8
	li	a1,1
	addi	a0,sp,4
	call	ADC_Parse_Result
.LVL40:
	.loc 1 193 13
	lhu	a5,10(sp)
	.loc 1 193 15 is_stmt 0
	bne	s0,zero,.L26
	.loc 1 194 17 is_stmt 1
	.loc 1 194 20 is_stmt 0
	mv	s1,a5
.LVL41:
.L27:
	.loc 1 198 17
	call	ADC_Get_FIFO_Count
.LVL42:
	.loc 1 198 9
	bne	a0,zero,.L28
	.loc 1 200 9 is_stmt 1
	.loc 1 200 12 is_stmt 0
	beq	s0,zero,.L29
	.loc 1 201 13 is_stmt 1
	.loc 1 201 35 is_stmt 0
	fcvt.s.wu	fa5,s2
	.loc 1 201 23
	fcvt.s.w	fa0,s1
	.loc 1 201 21
	fsub.s	fa0,fa0,fa5
.LVL43:
	.loc 1 203 13 is_stmt 1
	.loc 1 204 13
	.loc 1 204 31 is_stmt 0
	fsub.s	fa0,fa0,fs0
.LVL44:
	call	__extendsfdf2
.LVL45:
	mv	a2,s4
	mv	a3,s5
	call	__divdf3
.LVL46:
	.loc 1 207 13 is_stmt 1
	.loc 1 204 21 is_stmt 0
	call	__truncdfsf2
.LVL47:
	.loc 1 207 20
	fcvt.w.s a5,fa0,rtz
	sh	a5,0(s3)
	.loc 1 209 9 is_stmt 1
	.loc 1 212 13
	call	ADC_SET_TSVBE_LOW
.LVL48:
.L31:
	.loc 1 181 5 is_stmt 0 discriminator 2
	beq	s0,zero,.L32
	.loc 1 216 1
	lw	ra,60(sp)
	.cfi_remember_state
	.cfi_restore 1
	lw	s0,56(sp)
	.cfi_restore 8
.LVL49:
	lw	s1,52(sp)
	.cfi_restore 9
.LVL50:
	lw	s2,48(sp)
	.cfi_restore 18
.LVL51:
	lw	s3,44(sp)
	.cfi_restore 19
.LVL52:
	lw	s4,40(sp)
	.cfi_restore 20
	lw	s5,36(sp)
	.cfi_restore 21
	flw	fs0,28(sp)
	.cfi_restore 40
	li	a0,0
	addi	sp,sp,64
	.cfi_def_cfa_offset 0
	jr	ra
.LVL53:
.L32:
	.cfi_restore_state
	li	s0,1
.LVL54:
	j	.L30
.LVL55:
.L25:
.LBB48:
	.loc 1 185 13 is_stmt 1
	.loc 1 186 13
	li	a0,1
	call	aos_msleep
.LVL56:
	j	.L24
.L26:
.LBE48:
	.loc 1 196 17
	.loc 1 196 20 is_stmt 0
	mv	s2,a5
.LVL57:
	j	.L27
.L29:
	.loc 1 209 9 is_stmt 1
	.loc 1 210 13
	call	ADC_SET_TSVBE_HIGH
.LVL58:
	j	.L31
	.cfi_endproc
.LFE31:
	.size	test_adc_get, .-test_adc_get
	.section	.text.test_adc_test,"ax",@progbits
	.align	1
	.globl	test_adc_test
	.type	test_adc_test, @function
test_adc_test:
.LFB32:
	.loc 1 219 1
	.cfi_startproc
	.loc 1 220 5
.LBB55:
.LBB56:
	.loc 1 102 2
	.loc 1 103 2
.LBE56:
.LBE55:
	.loc 1 219 1 is_stmt 0
	addi	sp,sp,-80
	.cfi_def_cfa_offset 80
	sw	ra,76(sp)
	sw	s0,72(sp)
	sw	s1,68(sp)
	sw	s2,64(sp)
	sw	s3,60(sp)
	sw	s4,56(sp)
	sw	s5,52(sp)
	sw	s6,48(sp)
	fsw	fs0,28(sp)
	sw	s7,44(sp)
	sw	s8,40(sp)
	sw	s9,36(sp)
	.cfi_offset 1, -4
	.cfi_offset 8, -8
	.cfi_offset 9, -12
	.cfi_offset 18, -16
	.cfi_offset 19, -20
	.cfi_offset 20, -24
	.cfi_offset 21, -28
	.cfi_offset 22, -32
	.cfi_offset 40, -52
	.cfi_offset 23, -36
	.cfi_offset 24, -40
	.cfi_offset 25, -44
.LBB62:
.LBB61:
	.loc 1 103 11
	sw	zero,4(sp)
	.loc 1 104 5 is_stmt 1
.LVL59:
	.loc 1 105 5
	.loc 1 106 5
	.loc 1 108 5
	call	ADC_Reset
.LVL60:
	.loc 1 110 5
	call	ADC_Disable
.LVL61:
	.loc 1 111 5
	call	ADC_Enable
.LVL62:
	.loc 1 113 5
	lui	a0,%hi(.LANCHOR0)
	addi	a0,a0,%lo(.LANCHOR0)
	call	ADC_Init
.LVL63:
	.loc 1 114 5
	li	a2,0
	li	a1,23
	li	a0,14
	call	ADC_Channel_Config
.LVL64:
	.loc 1 115 5
	li	a0,0
	call	ADC_Tsen_Init
.LVL65:
	.loc 1 117 5
	lui	a0,%hi(.LANCHOR1)
	addi	a0,a0,%lo(.LANCHOR1)
	call	ADC_FIFO_Cfg
.LVL66:
	.loc 1 118 5
	call	TSEN_Calibration
.LVL67:
	.loc 1 120 2
	.loc 1 138 23 is_stmt 0
	lui	a5,%hi(.LC5)
	flw	fs0,%lo(.LC5)(a5)
	.loc 1 139 33
	lui	a5,%hi(.LC6)
	lw	s4,%lo(.LC6)(a5)
	lw	s5,%lo(.LC6+4)(a5)
	.loc 1 105 19
	li	s2,0
	.loc 1 105 14
	li	s1,0
	.loc 1 120 7
	li	s0,0
	.loc 1 140 158
	lui	s3,%hi(.LC0)
	lui	s6,%hi(.LC3)
.LVL68:
.L51:
	.loc 1 121 3 is_stmt 1
	call	ADC_Start
.LVL69:
	.loc 1 123 3
.L37:
	.loc 1 123 35
	.loc 1 123 9 is_stmt 0
	call	ADC_Get_FIFO_Count
.LVL70:
	.loc 1 123 8
	beq	a0,zero,.L37
	.loc 1 129 20
	andi	s7,s0,1
.L40:
	.loc 1 125 3 is_stmt 1
	.loc 1 126 4
	.loc 1 126 13 is_stmt 0
	call	ADC_Read_FIFO
.LVL71:
	.loc 1 126 11
	sw	a0,4(sp)
	.loc 1 127 4 is_stmt 1
	addi	a2,sp,8
	li	a1,1
	addi	a0,sp,4
	call	ADC_Parse_Result
.LVL72:
	.loc 1 129 13
	lhu	a5,10(sp)
	.loc 1 129 15 is_stmt 0
	bne	s7,zero,.L38
	.loc 1 130 17 is_stmt 1
	.loc 1 130 20 is_stmt 0
	mv	s1,a5
.LVL73:
.L39:
	.loc 1 134 10
	call	ADC_Get_FIFO_Count
.LVL74:
	.loc 1 134 3
	bne	a0,zero,.L40
	.loc 1 136 9 is_stmt 1
	.loc 1 136 11 is_stmt 0
	beq	s7,zero,.L41
	.loc 1 137 15 is_stmt 1
.LVL75:
	.loc 1 138 15
	.loc 1 139 15
	.loc 1 140 13
	.loc 1 140 51
	.loc 1 140 56
	.loc 1 140 78 is_stmt 0
	lui	s9,%hi(_fsymc_level_hal_drv)
	.loc 1 140 59
	lbu	a4,%lo(_fsymc_level_hal_drv)(s9)
	li	a5,2
	bgtu	a4,a5,.L50
	.loc 1 140 123
	lui	s8,%hi(_fsymf_level_hal_drvbl_adc)
	.loc 1 140 103
	lbu	a4,%lo(_fsymf_level_hal_drvbl_adc)(s8)
	bleu	a4,a5,.L43
.L50:
	.loc 1 142 392 is_stmt 1
	.loc 1 144 9
	.loc 1 147 13
	call	ADC_SET_TSVBE_LOW
.LVL76:
	j	.L52
.LVL77:
.L38:
	.loc 1 132 17
	.loc 1 132 20 is_stmt 0
	mv	s2,a5
.LVL78:
	j	.L39
.LVL79:
.L43:
	.loc 1 140 158 is_stmt 1
.LBB57:
.LBB58:
	.loc 2 151 5
	.loc 2 151 31 is_stmt 0
	lui	a5,%hi(TrapNetCounter)
.LBE58:
.LBE57:
	.loc 1 140 158
	lw	a4,%lo(TrapNetCounter)(a5)
	mv	s7,a5
	beq	a4,zero,.L45
	.loc 1 140 242
	call	xTaskGetTickCountFromISR
.LVL80:
.L46:
	.loc 1 140 158
	mv	a1,a0
	lui	a0,%hi(.LC7)
	mv	a5,s1
	li	a4,140
	mv	a6,s2
	addi	a3,s3,%lo(.LC0)
	addi	a2,s6,%lo(.LC3)
	addi	a0,a0,%lo(.LC7)
	call	bl_printk
.LVL81:
	.loc 1 140 358 is_stmt 1
	.loc 1 142 13
	.loc 1 142 51
	.loc 1 142 56
	.loc 1 142 59 is_stmt 0
	lbu	a4,%lo(_fsymc_level_hal_drv)(s9)
	li	a5,2
	bgtu	a4,a5,.L50
	.loc 1 142 103
	lbu	a4,%lo(_fsymf_level_hal_drvbl_adc)(s8)
	bgtu	a4,a5,.L50
	.loc 1 142 158 is_stmt 1
.LBB59:
.LBB60:
	.loc 2 151 5
.LBE60:
.LBE59:
	.loc 1 142 158 is_stmt 0
	lw	a5,%lo(TrapNetCounter)(s7)
	beq	a5,zero,.L48
	.loc 1 142 262
	call	xTaskGetTickCountFromISR
.LVL82:
.L59:
	.loc 1 137 37
	fcvt.s.wu	fa5,s2
	.loc 1 137 25
	fcvt.s.w	fa0,s1
	.loc 1 142 291
	mv	s7,a0
	.loc 1 137 23
	fsub.s	fa0,fa0,fa5
	.loc 1 139 33
	fsub.s	fa0,fa0,fs0
	call	__extendsfdf2
.LVL83:
	mv	a2,s4
	mv	a3,s5
	call	__divdf3
.LVL84:
	.loc 1 139 23
	call	__truncdfsf2
.LVL85:
	.loc 1 142 158
	fcvt.wu.s a5,fa0,rtz
	lui	a0,%hi(.LC8)
	li	a4,142
	addi	a3,s3,%lo(.LC0)
	addi	a2,s6,%lo(.LC3)
	mv	a1,s7
	addi	a0,a0,%lo(.LC8)
	call	bl_printk
.LVL86:
	j	.L50
.L45:
	.loc 1 140 271
	call	xTaskGetTickCount
.LVL87:
	j	.L46
.L48:
	.loc 1 142 291
	call	xTaskGetTickCount
.LVL88:
	j	.L59
.LVL89:
.L41:
	.loc 1 142 392 is_stmt 1
	.loc 1 144 9
	.loc 1 145 13
	call	ADC_SET_TSVBE_HIGH
.LVL90:
.L52:
	.loc 1 149 3
	li	a0,500
	call	BL602_Delay_MS
.LVL91:
	.loc 1 120 16 is_stmt 0
	addi	s0,s0,1
.LVL92:
	andi	s0,s0,0xff
.LVL93:
	.loc 1 120 2
	li	a5,40
	bne	s0,a5,.L51
.LBE61:
.LBE62:
	.loc 1 222 1
	lw	ra,76(sp)
	.cfi_restore 1
	lw	s0,72(sp)
	.cfi_restore 8
.LVL94:
	lw	s1,68(sp)
	.cfi_restore 9
.LVL95:
	lw	s2,64(sp)
	.cfi_restore 18
.LVL96:
	lw	s3,60(sp)
	.cfi_restore 19
	lw	s4,56(sp)
	.cfi_restore 20
	lw	s5,52(sp)
	.cfi_restore 21
	lw	s6,48(sp)
	.cfi_restore 22
	lw	s7,44(sp)
	.cfi_restore 23
	lw	s8,40(sp)
	.cfi_restore 24
	lw	s9,36(sp)
	.cfi_restore 25
	flw	fs0,28(sp)
	.cfi_restore 40
	li	a0,0
	addi	sp,sp,80
	.cfi_def_cfa_offset 0
	jr	ra
	.cfi_endproc
.LFE32:
	.size	test_adc_test, .-test_adc_test
	.section	.text.bl_adc_clock_init,"ax",@progbits
	.align	1
	.globl	bl_adc_clock_init
	.type	bl_adc_clock_init, @function
bl_adc_clock_init:
.LFB34:
	.loc 1 248 1 is_stmt 1
	.cfi_startproc
.LVL97:
	.loc 1 249 5
	.loc 1 251 5
	.loc 1 252 5
	.loc 1 251 40 is_stmt 0
	li	a2,406
	mul	a2,a0,a2
	.loc 1 251 9
	li	a0,1000
.LVL98:
	.loc 1 248 1
	addi	sp,sp,-16
	.cfi_def_cfa_offset 16
	.loc 1 252 5
	li	a1,1
	.loc 1 248 1
	sw	ra,12(sp)
	.cfi_offset 1, -4
	.loc 1 251 9
	div	a2,a2,a0
.LVL99:
	.loc 1 252 5
	li	a0,1
	addi	a2,a2,-1
.LVL100:
	andi	a2,a2,0xff
.LVL101:
	call	GLB_Set_ADC_CLK
.LVL102:
	.loc 1 254 5 is_stmt 1
	.loc 1 255 1 is_stmt 0
	lw	ra,12(sp)
	.cfi_restore 1
	li	a0,0
	addi	sp,sp,16
	.cfi_def_cfa_offset 0
	jr	ra
	.cfi_endproc
.LFE34:
	.size	bl_adc_clock_init, .-bl_adc_clock_init
	.section	.text.bl_adc_init,"ax",@progbits
	.align	1
	.globl	bl_adc_init
	.type	bl_adc_init, @function
bl_adc_init:
.LFB35:
	.loc 1 258 1 is_stmt 1
	.cfi_startproc
	.loc 1 259 5
	.loc 1 260 5
	.loc 1 261 5
	.loc 1 262 5
	.loc 1 263 5
	.loc 1 265 5
	.loc 1 266 5
	.loc 1 267 5
	.loc 1 268 5
	.loc 1 269 5
	.loc 1 270 5
	.loc 1 271 5
	.loc 1 272 5
	.loc 1 273 5
	.loc 1 274 5
	.loc 1 275 5
	.loc 1 276 5
	.loc 1 277 5
	.loc 1 265 18 is_stmt 0
	li	a5,458752
	.loc 1 258 1
	addi	sp,sp,-64
	.cfi_def_cfa_offset 64
	.loc 1 265 18
	addi	a5,a5,258
	sw	a5,32(sp)
	.loc 1 273 16
	li	a5,262144
	sw	a5,40(sp)
	.loc 1 258 1
	sw	ra,60(sp)
	.cfi_offset 1, -4
	.loc 1 269 17
	sw	zero,36(sp)
	.loc 1 277 26
	sh	zero,44(sp)
	.loc 1 279 5 is_stmt 1
	call	ADC_Disable
.LVL103:
	.loc 1 280 5
	call	ADC_Enable
.LVL104:
	.loc 1 281 5
	call	ADC_Reset
.LVL105:
	.loc 1 283 5
	addi	a0,sp,32
	call	ADC_Init
.LVL106:
	.loc 1 285 5
	.loc 1 285 12 is_stmt 0
	li	a5,0
	.loc 1 287 30
	li	a2,23
	.loc 1 285 5
	li	a4,12
.LVL107:
.L63:
	.loc 1 286 9 is_stmt 1 discriminator 3
	.loc 1 286 30 is_stmt 0 discriminator 3
	addi	a3,sp,8
	add	a3,a3,a5
	sb	a5,0(a3)
	.loc 1 287 9 is_stmt 1 discriminator 3
	.loc 1 287 30 is_stmt 0 discriminator 3
	addi	a3,sp,20
	add	a3,a3,a5
	sb	a2,0(a3)
	.loc 1 285 26 discriminator 3
	addi	a5,a5,1
.LVL108:
	.loc 1 285 5 discriminator 3
	bne	a5,a4,.L63
	.loc 1 289 5 is_stmt 1
	addi	a1,sp,20
	addi	a0,sp,8
	li	a3,1
	li	a2,12
	call	ADC_Scan_Channel_Config
.LVL109:
	.loc 1 291 5
	.loc 1 292 5
	.loc 1 293 5 is_stmt 0
	addi	a0,sp,4
	.loc 1 291 32
	li	a5,257
	sh	a5,4(sp)
	.loc 1 293 5 is_stmt 1
	call	ADC_FIFO_Cfg
.LVL110:
	.loc 1 295 5
	.loc 1 296 1 is_stmt 0
	lw	ra,60(sp)
	.cfi_restore 1
	li	a0,0
	addi	sp,sp,64
	.cfi_def_cfa_offset 0
	jr	ra
	.cfi_endproc
.LFE35:
	.size	bl_adc_init, .-bl_adc_init
	.section	.text.bl_adc_dma_init,"ax",@progbits
	.align	1
	.globl	bl_adc_dma_init
	.type	bl_adc_dma_init, @function
bl_adc_dma_init:
.LFB37:
	.loc 1 327 1 is_stmt 1
	.cfi_startproc
	.loc 1 328 5
	.loc 1 329 5
	.loc 1 330 5
	.loc 1 331 5
	.loc 1 333 5
	.loc 1 327 1 is_stmt 0
	addi	sp,sp,-32
	.cfi_def_cfa_offset 32
	.loc 1 333 14
	li	a0,16
	.loc 1 327 1
	sw	ra,28(sp)
	sw	s0,24(sp)
	sw	s1,20(sp)
	sw	s2,16(sp)
	.cfi_offset 1, -4
	.cfi_offset 8, -8
	.cfi_offset 9, -12
	.cfi_offset 18, -16
	.loc 1 333 14
	call	pvPortMalloc
.LVL111:
	.loc 1 334 5 is_stmt 1
	.loc 1 334 8 is_stmt 0
	bne	a0,zero,.L67
	.loc 1 335 9 is_stmt 1 discriminator 1
	.loc 1 335 47 discriminator 1
	.loc 1 335 52 discriminator 1
	.loc 1 335 75 is_stmt 0 discriminator 1
	lui	a5,%hi(_fsymc_level_hal_drv)
	.loc 1 335 55 discriminator 1
	lbu	a4,%lo(_fsymc_level_hal_drv)(a5)
	li	a5,4
	bleu	a4,a5,.L68
.LVL112:
.L81:
	.loc 1 352 16 discriminator 10
	li	a0,-1
.L66:
	.loc 1 370 1
	lw	ra,28(sp)
	.cfi_remember_state
	.cfi_restore 1
	lw	s0,24(sp)
	.cfi_restore 8
	lw	s1,20(sp)
	.cfi_restore 9
	lw	s2,16(sp)
	.cfi_restore 18
	addi	sp,sp,32
	.cfi_def_cfa_offset 0
	jr	ra
.LVL113:
.L68:
	.cfi_restore_state
	.loc 1 335 121 discriminator 3
	lui	a4,%hi(_fsymf_level_hal_drvbl_adc)
	.loc 1 335 100 discriminator 3
	lbu	a4,%lo(_fsymf_level_hal_drvbl_adc)(a4)
	bgtu	a4,a5,.L81
	.loc 1 335 156 is_stmt 1
.LBB71:
.LBB72:
	.loc 2 151 5
	.loc 2 151 31 is_stmt 0
	lui	a5,%hi(TrapNetCounter)
.LBE72:
.LBE71:
	.loc 1 335 156
	lw	a5,%lo(TrapNetCounter)(a5)
	beq	a5,zero,.L71
	.loc 1 335 246 discriminator 7
	call	xTaskGetTickCountFromISR
.LVL114:
.L72:
	.loc 1 335 156 discriminator 10
	lui	a3,%hi(.LC0)
	lui	a2,%hi(.LC1)
	mv	a1,a0
	lui	a0,%hi(.LC9)
	li	a4,335
	addi	a3,a3,%lo(.LC0)
	addi	a2,a2,%lo(.LC1)
	addi	a0,a0,%lo(.LC9)
.L80:
	.loc 1 350 156 discriminator 10
	call	bl_printk
.LVL115:
	j	.L81
.LVL116:
.L71:
	.loc 1 335 275 discriminator 8
	call	xTaskGetTickCount
.LVL117:
	j	.L72
.LVL118:
.L67:
	mv	s1,a0
	.loc 1 340 5 is_stmt 1
	.loc 1 340 14 is_stmt 0
	li	a0,32
.LVL119:
	call	pvPortMalloc
.LVL120:
	mv	s0,a0
.LVL121:
	.loc 1 341 5 is_stmt 1
	.loc 1 341 8 is_stmt 0
	bne	a0,zero,.L73
	.loc 1 342 9 is_stmt 1 discriminator 1
	.loc 1 342 47 discriminator 1
	.loc 1 342 52 discriminator 1
	.loc 1 342 75 is_stmt 0 discriminator 1
	lui	a5,%hi(_fsymc_level_hal_drv)
	.loc 1 342 55 discriminator 1
	lbu	a4,%lo(_fsymc_level_hal_drv)(a5)
	li	a5,4
	bgtu	a4,a5,.L81
	.loc 1 342 121 discriminator 3
	lui	a4,%hi(_fsymf_level_hal_drvbl_adc)
	.loc 1 342 100 discriminator 3
	lbu	a4,%lo(_fsymf_level_hal_drvbl_adc)(a4)
	bgtu	a4,a5,.L81
	.loc 1 342 156 is_stmt 1
.LBB73:
.LBB74:
	.loc 2 151 5
	.loc 2 151 31 is_stmt 0
	lui	a5,%hi(TrapNetCounter)
.LBE74:
.LBE73:
	.loc 1 342 156
	lw	a5,%lo(TrapNetCounter)(a5)
	beq	a5,zero,.L74
	.loc 1 342 243 discriminator 7
	call	xTaskGetTickCountFromISR
.LVL122:
.L75:
	.loc 1 342 156 discriminator 10
	lui	a3,%hi(.LC0)
	lui	a2,%hi(.LC1)
	mv	a1,a0
	lui	a0,%hi(.LC10)
	li	a4,342
	addi	a3,a3,%lo(.LC0)
	addi	a2,a2,%lo(.LC1)
	addi	a0,a0,%lo(.LC10)
	j	.L80
.L74:
	.loc 1 342 272 discriminator 8
	call	xTaskGetTickCount
.LVL123:
	j	.L75
.L73:
	.loc 1 347 5 is_stmt 1
	.loc 1 347 14 is_stmt 0
	li	a0,96
	call	pvPortMalloc
.LVL124:
	mv	s2,a0
.LVL125:
	.loc 1 349 5 is_stmt 1
	.loc 1 349 8 is_stmt 0
	bne	a0,zero,.L76
	.loc 1 350 9 is_stmt 1 discriminator 1
	.loc 1 350 47 discriminator 1
	.loc 1 350 52 discriminator 1
	.loc 1 350 75 is_stmt 0 discriminator 1
	lui	a5,%hi(_fsymc_level_hal_drv)
	.loc 1 350 55 discriminator 1
	lbu	a4,%lo(_fsymc_level_hal_drv)(a5)
	li	a5,4
	bgtu	a4,a5,.L81
	.loc 1 350 121 discriminator 3
	lui	a4,%hi(_fsymf_level_hal_drvbl_adc)
	.loc 1 350 100 discriminator 3
	lbu	a4,%lo(_fsymf_level_hal_drvbl_adc)(a4)
	bgtu	a4,a5,.L81
	.loc 1 350 156 is_stmt 1
.LBB75:
.LBB76:
	.loc 2 151 5
	.loc 2 151 31 is_stmt 0
	lui	a5,%hi(TrapNetCounter)
.LBE76:
.LBE75:
	.loc 1 350 156
	lw	a5,%lo(TrapNetCounter)(a5)
	beq	a5,zero,.L77
	.loc 1 350 247 discriminator 7
	call	xTaskGetTickCountFromISR
.LVL126:
.L78:
	.loc 1 350 156 discriminator 10
	lui	a3,%hi(.LC0)
	lui	a2,%hi(.LC1)
	mv	a1,a0
	lui	a0,%hi(.LC11)
	li	a4,350
	addi	a3,a3,%lo(.LC0)
	addi	a2,a2,%lo(.LC1)
	addi	a0,a0,%lo(.LC11)
	j	.L80
.LVL127:
.L77:
	.loc 1 350 276 discriminator 8
	call	xTaskGetTickCount
.LVL128:
	j	.L78
.LVL129:
.L76:
	.loc 1 355 5 is_stmt 1
	.loc 1 356 5
	.loc 1 357 5
	.loc 1 355 16 is_stmt 0
	li	a5,4096
	addi	a5,a5,1538
	.loc 1 358 5
	li	a0,1
.LVL130:
	.loc 1 355 16
	sh	a5,12(sp)
	.loc 1 357 22
	sb	zero,14(sp)
	.loc 1 358 5 is_stmt 1
	call	DMA_Channel_Disable
.LVL131:
	.loc 1 360 5
.LBB77:
.LBB78:
	.loc 1 300 5
	.loc 1 302 5
	.loc 1 303 5
	.loc 1 304 5
	.loc 1 305 5
	.loc 1 306 5
	.loc 1 307 5
	.loc 1 308 5
	.loc 1 309 5
	.loc 1 310 5
	.loc 1 311 5
	.loc 1 313 5
	.loc 1 316 22 is_stmt 0
	lw	a4,12(s0)
	.loc 1 315 35
	addi	a5,s0,16
	.loc 1 315 23
	sw	a5,8(s0)
	.loc 1 316 22
	li	a3,-2008510464
	li	a5,33554432
	addi	a3,a3,12
	and	a4,a5,a4
	or	a4,a4,a3
	sw	a4,12(s0)
	.loc 1 321 22
	lw	a4,28(s0)
	.loc 1 313 26
	li	a2,1073750016
	addi	a2,a2,4
	.loc 1 321 22
	and	a5,a5,a4
	or	a5,a5,a3
	.loc 1 314 27
	sw	s2,4(s0)
	.loc 1 319 39
	addi	s2,s2,48
.LVL132:
	.loc 1 313 26
	sw	a2,0(s0)
	.loc 1 314 5 is_stmt 1
	.loc 1 315 5
	.loc 1 316 5
	.loc 1 318 5
	.loc 1 318 26 is_stmt 0
	sw	a2,16(s0)
	.loc 1 319 5 is_stmt 1
	.loc 1 321 22 is_stmt 0
	sw	a5,28(s0)
.LBE78:
.LBE77:
	.loc 1 361 5
	addi	a1,sp,12
	li	a0,1
.LBB80:
.LBB79:
	.loc 1 319 27
	sw	s2,20(s0)
	.loc 1 320 5 is_stmt 1
	.loc 1 320 23 is_stmt 0
	sw	s0,24(s0)
	.loc 1 321 5 is_stmt 1
	.loc 1 323 5
.LVL133:
.LBE79:
.LBE80:
	.loc 1 361 5
	call	DMA_LLI_Init
.LVL134:
	.loc 1 362 5
	mv	a1,s0
	li	a0,1
	call	DMA_LLI_Update
.LVL135:
	.loc 1 364 5
	.loc 1 367 5 is_stmt 0
	lui	a1,%hi(adc_data_update)
	.loc 1 364 21
	sw	s0,4(s1)
	.loc 1 365 5 is_stmt 1
	.loc 1 365 22 is_stmt 0
	sw	zero,8(s1)
	.loc 1 366 5 is_stmt 1
	.loc 1 366 29 is_stmt 0
	sw	zero,12(s1)
	.loc 1 367 5 is_stmt 1
	mv	a3,s1
	li	a2,0
	addi	a1,a1,%lo(adc_data_update)
	li	a0,1
	call	bl_dma_irq_register
.LVL136:
	.loc 1 369 5
	.loc 1 369 12 is_stmt 0
	li	a0,0
	j	.L66
	.cfi_endproc
.LFE37:
	.size	bl_adc_dma_init, .-bl_adc_dma_init
	.section	.text.bl_adc_start,"ax",@progbits
	.align	1
	.globl	bl_adc_start
	.type	bl_adc_start, @function
bl_adc_start:
.LFB38:
	.loc 1 373 1 is_stmt 1
	.cfi_startproc
	.loc 1 374 5
	.loc 1 373 1 is_stmt 0
	addi	sp,sp,-16
	.cfi_def_cfa_offset 16
	.loc 1 374 5
	li	a2,1
	li	a1,2
	li	a0,1
	.loc 1 373 1
	sw	ra,12(sp)
	.cfi_offset 1, -4
	.loc 1 374 5
	call	DMA_IntMask
.LVL137:
	.loc 1 375 5 is_stmt 1
	li	a2,0
	li	a1,0
	li	a0,1
	call	DMA_IntMask
.LVL138:
	.loc 1 376 5
	li	a2,0
	li	a1,1
	li	a0,1
	call	DMA_IntMask
.LVL139:
	.loc 1 378 5
	call	ADC_Start
.LVL140:
	.loc 1 379 5
	call	DMA_Enable
.LVL141:
	.loc 1 380 5
	li	a0,1
	call	DMA_Channel_Enable
.LVL142:
	.loc 1 382 5
	.loc 1 383 1 is_stmt 0
	lw	ra,12(sp)
	.cfi_restore 1
	li	a0,0
	addi	sp,sp,16
	.cfi_def_cfa_offset 0
	jr	ra
	.cfi_endproc
.LFE38:
	.size	bl_adc_start, .-bl_adc_start
	.section	.text.bl_adc_gpio_init,"ax",@progbits
	.align	1
	.globl	bl_adc_gpio_init
	.type	bl_adc_gpio_init, @function
bl_adc_gpio_init:
.LFB39:
	.loc 1 386 1 is_stmt 1
	.cfi_startproc
.LVL143:
	.loc 1 387 5
	.loc 1 386 1 is_stmt 0
	addi	sp,sp,-32
	.cfi_def_cfa_offset 32
	.loc 1 387 13
	sb	a0,15(sp)
	.loc 1 389 5 is_stmt 1
	addi	a1,sp,15
	li	a2,1
	li	a0,10
.LVL144:
	.loc 1 386 1 is_stmt 0
	sw	ra,28(sp)
	.cfi_offset 1, -4
	.loc 1 389 5
	call	GLB_GPIO_Func_Init
.LVL145:
	.loc 1 391 5 is_stmt 1
	.loc 1 392 1 is_stmt 0
	lw	ra,28(sp)
	.cfi_restore 1
	li	a0,0
	addi	sp,sp,32
	.cfi_def_cfa_offset 0
	jr	ra
	.cfi_endproc
.LFE39:
	.size	bl_adc_gpio_init, .-bl_adc_gpio_init
	.section	.text.bl_adc_parse_data,"ax",@progbits
	.align	1
	.globl	bl_adc_parse_data
	.type	bl_adc_parse_data, @function
bl_adc_parse_data:
.LFB40:
	.loc 1 395 1 is_stmt 1
	.cfi_startproc
.LVL146:
	.loc 1 396 5
	.loc 1 397 5
	.loc 1 399 5
	.loc 1 395 1 is_stmt 0
	addi	sp,sp,-32
	.cfi_def_cfa_offset 32
	sw	s0,24(sp)
	sw	s1,20(sp)
	sw	s2,16(sp)
	sw	ra,28(sp)
	.cfi_offset 8, -8
	.cfi_offset 9, -12
	.cfi_offset 18, -16
	.cfi_offset 1, -4
	.loc 1 395 1
	mv	s2,a2
	mv	s0,a0
	addi	s1,a0,48
.LVL147:
.L89:
	.loc 1 400 9 is_stmt 1
	addi	a2,sp,8
	li	a1,1
	mv	a0,s0
	call	ADC_Parse_Result
.LVL148:
	.loc 1 401 9
	.loc 1 401 19 is_stmt 0
	lb	a5,8(sp)
	.loc 1 401 12
	bne	a5,s2,.L87
	.loc 1 402 13 is_stmt 1
	.loc 1 402 42 is_stmt 0
	lui	a5,%hi(.LC12)
	flw	fa5,12(sp)
	flw	fa4,%lo(.LC12)(a5)
	fmul.s	fa5,fa5,fa4
	.loc 1 402 20
	fcvt.w.s a0,fa5,rtz
.L86:
	.loc 1 407 1
	lw	ra,28(sp)
	.cfi_remember_state
	.cfi_restore 1
	lw	s0,24(sp)
	.cfi_restore 8
	lw	s1,20(sp)
	.cfi_restore 9
.LVL149:
	lw	s2,16(sp)
	.cfi_restore 18
.LVL150:
	addi	sp,sp,32
	.cfi_def_cfa_offset 0
	jr	ra
.LVL151:
.L87:
	.cfi_restore_state
	addi	s0,s0,4
	.loc 1 399 5 discriminator 2
	bne	s0,s1,.L89
	.loc 1 406 12
	li	a0,-1
	j	.L86
	.cfi_endproc
.LFE40:
	.size	bl_adc_parse_data, .-bl_adc_parse_data
	.globl	adcFifoCfg
	.globl	adcCfg
	.globl	_fsymf_info_hal_drvbl_adc
	.comm	_fsymf_level_hal_drvbl_adc,1,1
	.comm	_fsymc_level_hal_drv,1,1
	.section	.data.adcCfg,"aw"
	.align	2
	.set	.LANCHOR0,. + 0
	.type	adcCfg, @object
	.size	adcCfg, 14
adcCfg:
	.byte	2
	.byte	1
	.byte	4
	.byte	0
	.byte	0
	.byte	2
	.byte	0
	.byte	0
	.byte	1
	.byte	0
	.byte	4
	.byte	0
	.half	0
	.section	.rodata.ADC_Clock_Init.str1.4,"aMS",@progbits,1
	.align	2
.LC3:
	.string	"\033[32mINFO  \033[0m"
.LC4:
	.string	"[%10u][%s: %s:%4d] GLB_Set_ADC_CLK_Div(%d) == clock 96M/(%d+1)\r\n"
	.section	.rodata.adc_data_update.str1.4,"aMS",@progbits,1
	.align	2
.LC0:
	.string	"bl_adc.c"
	.zero	3
.LC1:
	.string	"\033[31mERROR \033[0m"
.LC2:
	.string	"[%10u][%s: %s:%4d] get ctx error \r\n"
	.section	.rodata.bl_adc_dma_init.str1.4,"aMS",@progbits,1
	.align	2
.LC9:
	.string	"[%10u][%s: %s:%4d] malloc adc_ctx failed \r\n"
.LC10:
	.string	"[%10u][%s: %s:%4d] malloc lli failed. \r\n"
	.zero	3
.LC11:
	.string	"[%10u][%s: %s:%4d] malloc lli buf failed. \r\n"
	.section	.rodata.bl_adc_parse_data.cst4,"aM",@progbits,4
	.align	2
.LC12:
	.word	1148846080
	.section	.rodata.str1.4,"aMS",@progbits,1
	.align	2
.LC13:
	.string	"hal_drv.bl_adc"
	.zero	1
.LC14:
	.string	"hal_drv"
	.section	.rodata.test_adc_get.cst4,"aM",@progbits,4
	.align	2
.LC5:
	.word	1158733824
	.section	.rodata.test_adc_get.cst8,"aM",@progbits,8
	.align	3
.LC6:
	.word	1855425872
	.word	1075774226
	.section	.rodata.test_adc_test.str1.4,"aMS",@progbits,1
	.align	2
.LC7:
	.string	"[%10u][%s: %s:%4d]  v0=%ld  v1 = %ld \n"
	.zero	1
.LC8:
	.string	"[%10u][%s: %s:%4d]  chip Tempture = %ld degree centigrade\n"
	.section	.sbss.adcFifoCfg,"aw",@nobits
	.align	2
	.set	.LANCHOR1,. + 0
	.type	adcFifoCfg, @object
	.size	adcFifoCfg, 2
adcFifoCfg:
	.zero	2
	.section	.sdata2.BLOG_HARD_DECLARE_DISABLE,"a"
	.align	2
	.type	BLOG_HARD_DECLARE_DISABLE, @object
	.size	BLOG_HARD_DECLARE_DISABLE, 4
BLOG_HARD_DECLARE_DISABLE:
	.zero	4
	.section	.static_blogcomponent_code.hal_drv,"a"
	.align	2
	.type	_fsymc_info_hal_drv, @object
	.size	_fsymc_info_hal_drv, 8
_fsymc_info_hal_drv:
	.word	_fsymc_level_hal_drv
	.word	.LC14
	.section	.static_blogfile_code.hal_drvbl_adc,"a"
	.align	2
	.type	_fsymf_info_hal_drvbl_adc, @object
	.size	_fsymf_info_hal_drvbl_adc, 8
_fsymf_info_hal_drvbl_adc:
	.word	_fsymf_level_hal_drvbl_adc
	.word	.LC13
	.text
.Letext0:
	.file 3 "/home/hogc/build-tools/sdk/bl/bl_iot_sdk/toolchain/riscv/Linux/riscv64-unknown-elf/include/machine/_default_types.h"
	.file 4 "/home/hogc/build-tools/sdk/bl/bl_iot_sdk/toolchain/riscv/Linux/lib/gcc/riscv64-unknown-elf/8.3.0/include/stddef.h"
	.file 5 "/home/hogc/build-tools/sdk/bl/bl_iot_sdk/toolchain/riscv/Linux/riscv64-unknown-elf/include/sys/_types.h"
	.file 6 "/home/hogc/build-tools/sdk/bl/bl_iot_sdk/toolchain/riscv/Linux/riscv64-unknown-elf/include/sys/reent.h"
	.file 7 "/home/hogc/build-tools/sdk/bl/bl_iot_sdk/toolchain/riscv/Linux/riscv64-unknown-elf/include/sys/lock.h"
	.file 8 "/home/hogc/build-tools/sdk/bl/bl_iot_sdk/toolchain/riscv/Linux/riscv64-unknown-elf/include/sys/_stdint.h"
	.file 9 "/home/hogc/build-tools/sdk/bl/bl_iot_sdk/components/bl602/bl602_std/bl602_std/RISCV/Device/Bouffalo/BL602/Startup/system_bl602.h"
	.file 10 "/home/hogc/build-tools/sdk/bl/bl_iot_sdk/components/bl602/bl602_std/bl602_std/StdDriver/Inc/bl602_common.h"
	.file 11 "/home/hogc/build-tools/sdk/bl/bl_iot_sdk/components/bl602/bl602_std/bl602_std/StdDriver/Inc/bl602_gpio.h"
	.file 12 "/home/hogc/build-tools/sdk/bl/bl_iot_sdk/components/bl602/bl602_std/bl602_std/StdDriver/Inc/bl602_glb.h"
	.file 13 "/home/hogc/build-tools/sdk/bl/bl_iot_sdk/components/bl602/bl602_std/bl602_std/Device/Bouffalo/BL602/Peripherals/dma_reg.h"
	.file 14 "/home/hogc/build-tools/sdk/bl/bl_iot_sdk/components/bl602/bl602_std/bl602_std/StdDriver/Inc/bl602_dma.h"
	.file 15 "/home/hogc/build-tools/sdk/bl/bl_iot_sdk/components/bl602/bl602_std/bl602_std/StdDriver/Inc/bl602_adc.h"
	.file 16 "/home/hogc/build-tools/sdk/bl/bl_iot_sdk/components/stage/blog/blog_type.h"
	.file 17 "/home/hogc/build-tools/sdk/bl/bl_iot_sdk/components/stage/blog/blog.h"
	.file 18 "/home/hogc/build-tools/sdk/bl/bl_iot_sdk/components/hal_drv/bl602_hal/bl_adc.h"
	.file 19 "/home/hogc/build-tools/sdk/bl/bl_iot_sdk/components/bl602/freertos_riscv_ram/config/portable.h"
	.file 20 "/home/hogc/build-tools/sdk/bl/bl_iot_sdk/components/bl602/freertos_riscv_ram/config/task.h"
	.file 21 "/home/hogc/build-tools/sdk/bl/bl_iot_sdk/components/utils/include/utils_log.h"
	.file 22 "/home/hogc/build-tools/sdk/bl/bl_iot_sdk/components/hal_drv/bl602_hal/bl_dma.h"