	.file	"bl_cks.c"
	.option nopic
	.attribute arch, "rv32i2p0_m2p0_f2p0_c2p0"
	.attribute unaligned_access, 0
	.attribute stack_align, 16
	.text
.Ltext0:
	.cfi_sections	.debug_frame
	.section	.text._cb_cmd,"ax",@progbits
	.align	1
	.type	_cb_cmd, @function
_cb_cmd:
.LFB27:
	.file 1 "/home/hogc/build-tools/sdk/bl/bl_iot_sdk/components/hal_drv/bl602_hal/bl_cks.c"
	.loc 1 225 1
	.cfi_startproc
.LVL0:
	.loc 1 226 5
	.loc 1 228 5
	.loc 1 229 70 is_stmt 0
	lui	a5,%hi(_fsymc_level_hal_drv)
	.loc 1 229 51
	lbu	a4,%lo(_fsymc_level_hal_drv)(a5)
	.loc 1 225 1
	addi	sp,sp,-16
	.cfi_def_cfa_offset 16
	sw	s0,8(sp)
	sw	ra,12(sp)
	.cfi_offset 8, -8
	.cfi_offset 1, -4
	.loc 1 229 51
	li	a5,2
	.loc 1 225 1
	mv	s0,a0
.LVL1:
	.loc 1 229 5 is_stmt 1
	.loc 1 229 43
	.loc 1 229 48
	.loc 1 229 51 is_stmt 0
	bgtu	a4,a5,.L2
	.loc 1 229 115 discriminator 3
	lui	a4,%hi(_fsymf_level_hal_drvbl_cks)
	.loc 1 229 95 discriminator 3
	lbu	a4,%lo(_fsymf_level_hal_drvbl_cks)(a4)
	bgtu	a4,a5,.L2
	.loc 1 229 150 is_stmt 1
.LBB46:
.LBB47:
	.file 2 "/home/hogc/build-tools/sdk/bl/bl_iot_sdk/components/bl602/freertos_riscv_ram/portable/GCC/RISC-V/portmacro.h"
	.loc 2 151 5
	.loc 2 151 31 is_stmt 0
	lui	a5,%hi(TrapNetCounter)
.LBE47:
.LBE46:
	.loc 1 229 150
	lw	a5,%lo(TrapNetCounter)(a5)
	beq	a5,zero,.L3
	.loc 1 229 261 discriminator 7
	call	xTaskGetTickCountFromISR
.LVL2:
.L4:
	.loc 1 229 150 discriminator 10
	lui	a3,%hi(.LC0)
	lui	a2,%hi(.LC1)
	mv	a1,a0
	lui	a0,%hi(.LC2)
	mv	a5,s0
	li	a4,229
	addi	a3,a3,%lo(.LC0)
	addi	a2,a2,%lo(.LC1)
	addi	a0,a0,%lo(.LC2)
	call	bl_printk
.LVL3:
.L2:
	.loc 1 229 376 is_stmt 1 discriminator 11
	.loc 1 230 5 discriminator 11
	.loc 1 230 16 is_stmt 0 discriminator 11
	sw	zero,8(s0)
	.loc 1 231 1 discriminator 11
	lw	ra,12(sp)
	.cfi_remember_state
	.cfi_restore 1
	lw	s0,8(sp)
	.cfi_restore 8
.LVL4:
	addi	sp,sp,16
	.cfi_def_cfa_offset 0
	jr	ra
.LVL5:
.L3:
	.cfi_restore_state
	.loc 1 229 290 discriminator 8
	call	xTaskGetTickCount
.LVL6:
	j	.L4
	.cfi_endproc
.LFE27:
	.size	_cb_cmd, .-_cb_cmd
	.section	.text.bl_cks_test,"ax",@progbits
	.align	1
	.globl	bl_cks_test
	.type	bl_cks_test, @function
bl_cks_test:
.LFB29:
	.loc 1 310 1 is_stmt 1
	.cfi_startproc
	.loc 1 311 5
	.loc 1 311 43
	.loc 1 311 48
	.loc 1 310 1 is_stmt 0
	addi	sp,sp,-128
	.cfi_def_cfa_offset 128
	sw	s0,120(sp)
	.cfi_offset 8, -8
	.loc 1 311 70
	lui	s0,%hi(_fsymc_level_hal_drv)
	.loc 1 311 51
	lbu	a4,%lo(_fsymc_level_hal_drv)(s0)
	.loc 1 310 1
	sw	ra,124(sp)
	sw	s1,116(sp)
	sw	s2,112(sp)
	sw	s3,108(sp)
	sw	s4,104(sp)
	sw	s5,100(sp)
	sw	s6,96(sp)
	.cfi_offset 1, -4
	.cfi_offset 9, -12
	.cfi_offset 18, -16
	.cfi_offset 19, -20
	.cfi_offset 20, -24
	.cfi_offset 21, -28
	.cfi_offset 22, -32
	.loc 1 311 51
	li	a5,2
	bgtu	a4,a5,.L7
	.loc 1 311 115 discriminator 3
	lui	a4,%hi(_fsymf_level_hal_drvbl_cks)
	.loc 1 311 95 discriminator 3
	lbu	a4,%lo(_fsymf_level_hal_drvbl_cks)(a4)
	bgtu	a4,a5,.L7
	.loc 1 311 150 is_stmt 1
.LBB100:
.LBB101:
	.loc 2 151 5
	.loc 2 151 31 is_stmt 0
	lui	a5,%hi(TrapNetCounter)
.LBE101:
.LBE100:
	.loc 1 311 150
	lw	a5,%lo(TrapNetCounter)(a5)
	beq	a5,zero,.L8
	.loc 1 311 235 discriminator 7
	call	xTaskGetTickCountFromISR
.LVL7:
.L9:
	.loc 1 311 150 discriminator 10
	lui	a3,%hi(.LC0)
	lui	a2,%hi(.LC1)
	mv	a1,a0
	lui	a0,%hi(.LC3)
	li	a4,311
	addi	a3,a3,%lo(.LC0)
	addi	a2,a2,%lo(.LC1)
	addi	a0,a0,%lo(.LC3)
	call	bl_printk
.LVL8:
.L7:
	.loc 1 311 345 is_stmt 1 discriminator 11
	.loc 1 312 5 discriminator 11
.LBB102:
.LBB103:
	.loc 1 45 5 discriminator 11
	.loc 1 50 5 discriminator 11
	.loc 1 54 5 discriminator 11
	.loc 1 55 5 discriminator 11
	.loc 1 56 5 discriminator 11
	.loc 1 57 5 discriminator 11
	.loc 1 59 5 discriminator 11
	.loc 1 59 36 is_stmt 0 discriminator 11
	li	a5,1073782784
	li	a4,1
	.loc 1 61 51 discriminator 11
	lui	s1,%hi(.LANCHOR0)
	.loc 1 59 36 discriminator 11
	sb	a4,1792(a5)
	.loc 1 60 5 is_stmt 1 discriminator 11
.LVL9:
	.loc 1 61 51 is_stmt 0 discriminator 11
	addi	s1,s1,%lo(.LANCHOR0)
	.loc 1 60 12 discriminator 11
	li	a5,0
	.loc 1 61 40 discriminator 11
	li	a4,1073782784
	.loc 1 60 5 discriminator 11
	li	a3,20
.LVL10:
.L10:
	.loc 1 61 9 is_stmt 1
	.loc 1 61 51 is_stmt 0
	add	a2,s1,a5
	lbu	a2,0(a2)
	.loc 1 60 41
	addi	a5,a5,1
.LVL11:
	.loc 1 61 40
	sb	a2,1796(a4)
	.loc 1 60 5
	bne	a5,a3,.L10
	.loc 1 63 5 is_stmt 1
	.loc 1 63 9 is_stmt 0
	lhu	s2,1800(a4)
	.loc 1 64 51
	lbu	a4,%lo(_fsymc_level_hal_drv)(s0)
	li	a5,2
.LVL12:
	.loc 1 63 9
	slli	s2,s2,16
	srli	s2,s2,16
.LVL13:
	.loc 1 64 5 is_stmt 1
	.loc 1 64 43
	.loc 1 64 48
	.loc 1 64 51 is_stmt 0
	bgtu	a4,a5,.L11
	.loc 1 64 115
	lui	a4,%hi(_fsymf_level_hal_drvbl_cks)
	.loc 1 64 95
	lbu	a4,%lo(_fsymf_level_hal_drvbl_cks)(a4)
	bgtu	a4,a5,.L11
	.loc 1 64 150 is_stmt 1
.LBB104:
.LBB105:
	.loc 2 151 5
	.loc 2 151 31 is_stmt 0
	lui	a5,%hi(TrapNetCounter)
.LBE105:
.LBE104:
	.loc 1 64 150
	lw	a5,%lo(TrapNetCounter)(a5)
	beq	a5,zero,.L12
	.loc 1 64 264
	call	xTaskGetTickCountFromISR
.LVL14:
.L13:
	.loc 1 64 150
	lui	a3,%hi(.LC0)
	lui	a2,%hi(.LC1)
	mv	a1,a0
	lui	a0,%hi(.LC4)
	li	a7,184
	li	a6,97
	mv	a5,s2
	li	a4,64
	addi	a3,a3,%lo(.LC0)
	addi	a2,a2,%lo(.LC1)
	addi	a0,a0,%lo(.LC4)
	call	bl_printk
.LVL15:
.L11:
	.loc 1 64 414 is_stmt 1
	.loc 1 66 5
	.loc 1 66 36 is_stmt 0
	li	a5,1073782784
	li	a4,1
	sb	a4,1792(a5)
	.loc 1 67 5 is_stmt 1
	.loc 1 67 36 is_stmt 0
	li	a4,2
	sb	a4,1792(a5)
	.loc 1 68 5 is_stmt 1
.LVL16:
	li	a3,20
	.loc 1 68 12 is_stmt 0
	li	a5,0
	.loc 1 69 40
	li	a4,1073782784
.LVL17:
.L14:
	.loc 1 69 9 is_stmt 1
	.loc 1 69 51 is_stmt 0
	add	a2,s1,a5
	lbu	a2,0(a2)
	.loc 1 68 41
	addi	a5,a5,1
.LVL18:
	.loc 1 69 40
	sb	a2,1796(a4)
	.loc 1 68 5
	bne	a5,a3,.L14
	.loc 1 71 5 is_stmt 1
	.loc 1 71 9 is_stmt 0
	lhu	s1,1800(a4)
	.loc 1 72 51
	lbu	a4,%lo(_fsymc_level_hal_drv)(s0)
	li	a5,2
.LVL19:
	.loc 1 71 9
	slli	s1,s1,16
	srli	s1,s1,16
.LVL20:
	.loc 1 72 5 is_stmt 1
	.loc 1 72 43
	.loc 1 72 48
	.loc 1 72 51 is_stmt 0
	bgtu	a4,a5,.L16
	.loc 1 72 115
	lui	a4,%hi(_fsymf_level_hal_drvbl_cks)
	.loc 1 72 95
	lbu	a3,%lo(_fsymf_level_hal_drvbl_cks)(a4)
	mv	s4,a4
	bleu	a3,a5,.L17
.LVL21:
.L16:
.LBE103:
.LBE102:
	.loc 1 313 345 is_stmt 1 discriminator 11
	.loc 1 314 5 discriminator 11
.LBB110:
.LBB111:
	.loc 1 77 5 discriminator 11
	.loc 1 78 5 discriminator 11
	.loc 1 79 5 discriminator 11
	.loc 1 80 5 discriminator 11
	.loc 1 82 5 discriminator 11
	.loc 1 82 36 is_stmt 0 discriminator 11
	li	a5,1073782784
	li	a4,1
	sb	a4,1792(a5)
	.loc 1 83 5 is_stmt 1 discriminator 11
.LVL22:
	.loc 1 84 5 discriminator 11
	.loc 1 85 9 discriminator 11
	.loc 1 86 9 discriminator 11
	.loc 1 86 40 is_stmt 0 discriminator 11
	li	a4,31
	sb	a4,1796(a5)
	.loc 1 87 9 is_stmt 1 discriminator 11
	.loc 1 87 40 is_stmt 0 discriminator 11
	li	a4,63
	sb	a4,1796(a5)
.LVL23:
	.loc 1 93 5 is_stmt 1 discriminator 11
	.loc 1 93 9 is_stmt 0 discriminator 11
	lhu	s1,1800(a5)
	.loc 1 94 51 discriminator 11
	lbu	a4,%lo(_fsymc_level_hal_drv)(s0)
	li	a5,2
	.loc 1 93 9 discriminator 11
	slli	s1,s1,16
	srli	s1,s1,16
.LVL24:
	.loc 1 94 5 is_stmt 1 discriminator 11
	.loc 1 94 43 discriminator 11
	.loc 1 94 48 discriminator 11
	.loc 1 94 51 is_stmt 0 discriminator 11
	bgtu	a4,a5,.L25
	.loc 1 94 115
	lui	a4,%hi(_fsymf_level_hal_drvbl_cks)
	.loc 1 94 95
	lbu	a4,%lo(_fsymf_level_hal_drvbl_cks)(a4)
	bgtu	a4,a5,.L25
	.loc 1 94 150 is_stmt 1
.LBB112:
.LBB113:
	.loc 2 151 5
	.loc 2 151 31 is_stmt 0
	lui	a5,%hi(TrapNetCounter)
.LBE113:
.LBE112:
	.loc 1 94 150
	lw	a5,%lo(TrapNetCounter)(a5)
	beq	a5,zero,.L26
	.loc 1 94 245
	call	xTaskGetTickCountFromISR
.LVL25:
.L27:
	.loc 1 94 150
	li	a6,49152
	lui	a3,%hi(.LC0)
	lui	a2,%hi(.LC1)
	mv	a1,a0
	lui	a0,%hi(.LC7)
	addi	a6,a6,224
	mv	a5,s1
	li	a4,97
	addi	a3,a3,%lo(.LC0)
	addi	a2,a2,%lo(.LC1)
	addi	a0,a0,%lo(.LC7)
	call	bl_printk
.LVL26:
.L25:
	.loc 1 97 6 is_stmt 1
	.loc 1 99 5
	.loc 1 99 36 is_stmt 0
	li	a5,1073782784
	li	a4,1
	sb	a4,1792(a5)
	.loc 1 100 5 is_stmt 1
	.loc 1 100 36 is_stmt 0
	li	a4,2
	sb	a4,1792(a5)
	.loc 1 101 5 is_stmt 1
.LVL27:
	.loc 1 102 5
	.loc 1 103 9
	.loc 1 104 9
	.loc 1 104 40 is_stmt 0
	li	a3,31
	sb	a3,1796(a5)
	.loc 1 105 9 is_stmt 1
	.loc 1 105 40 is_stmt 0
	li	a3,63
	sb	a3,1796(a5)
.LVL28:
	.loc 1 111 5 is_stmt 1
	.loc 1 111 9 is_stmt 0
	lhu	s1,1800(a5)
.LVL29:
	.loc 1 112 51
	lbu	a5,%lo(_fsymc_level_hal_drv)(s0)
	.loc 1 111 9
	slli	s1,s1,16
	srli	s1,s1,16
.LVL30:
	.loc 1 112 5 is_stmt 1
	.loc 1 112 43
	.loc 1 112 48
	.loc 1 112 51 is_stmt 0
	bgtu	a5,a4,.L28
	.loc 1 112 115
	lui	s5,%hi(_fsymf_level_hal_drvbl_cks)
	.loc 1 112 95
	lbu	a5,%lo(_fsymf_level_hal_drvbl_cks)(s5)
	bgtu	a5,a4,.L29
	.loc 1 112 150 is_stmt 1
.LBB114:
.LBB115:
	.loc 2 151 5
	.loc 2 151 31 is_stmt 0
	lui	a5,%hi(TrapNetCounter)
.LBE115:
.LBE114:
	.loc 1 112 150
	lw	a4,%lo(TrapNetCounter)(a5)
	mv	s6,a5
	beq	a4,zero,.L30
	.loc 1 112 245
	call	xTaskGetTickCountFromISR
.LVL31:
.L31:
	.loc 1 112 150
	li	s2,49152
	mv	a1,a0
	lui	s4,%hi(.LC0)
	lui	s3,%hi(.LC1)
	lui	a0,%hi(.LC8)
	addi	a6,s2,224
	mv	a5,s1
	li	a4,115
	addi	a3,s4,%lo(.LC0)
	addi	a2,s3,%lo(.LC1)
	addi	a0,a0,%lo(.LC8)
	.loc 1 116 8
	addi	s2,s2,224
	.loc 1 112 150
	call	bl_printk
.LVL32:
	.loc 1 115 6 is_stmt 1
	.loc 1 116 5
	.loc 1 116 8 is_stmt 0
	bne	s1,s2,.L32
	.loc 1 117 9 is_stmt 1
	.loc 1 117 47
	.loc 1 117 52
	.loc 1 117 55 is_stmt 0
	lbu	a4,%lo(_fsymc_level_hal_drv)(s0)
	li	a5,2
	bgtu	a4,a5,.L101
	.loc 1 117 99
	lbu	a4,%lo(_fsymf_level_hal_drvbl_cks)(s5)
	bgtu	a4,a5,.L101
	.loc 1 117 154 is_stmt 1
.LBB116:
.LBB117:
	.loc 2 151 5
.LBE117:
.LBE116:
	.loc 1 117 154 is_stmt 0
	lw	a5,%lo(TrapNetCounter)(s6)
	beq	a5,zero,.L35
	.loc 1 117 255
	call	xTaskGetTickCountFromISR
.LVL33:
.L36:
	.loc 1 117 154
	li	a5,49152
	mv	a1,a0
	lui	a0,%hi(.LC9)
	addi	a5,a5,224
	li	a4,117
	addi	a3,s4,%lo(.LC0)
	addi	a2,s3,%lo(.LC1)
	addi	a0,a0,%lo(.LC9)
.L110:
	.loc 1 119 154
	call	bl_printk
.LVL34:
	.loc 1 119 370 is_stmt 1
.LBE111:
.LBE110:
	.loc 1 315 5
	.loc 1 315 43
	.loc 1 315 48
	.loc 1 315 51 is_stmt 0
	lbu	a4,%lo(_fsymc_level_hal_drv)(s0)
	li	a5,2
	bleu	a4,a5,.L40
.L101:
	.loc 1 315 345 is_stmt 1 discriminator 11
	.loc 1 316 5 discriminator 11
.LBB124:
.LBB125:
	.loc 1 125 5 discriminator 11
.LVL35:
	.loc 1 126 5 discriminator 11
	.loc 1 127 5 discriminator 11
	.loc 1 128 5 discriminator 11
	.loc 1 130 5 discriminator 11
	.loc 1 130 36 is_stmt 0 discriminator 11
	li	a5,1073782784
	li	a4,1
	sb	a4,1792(a5)
	.loc 1 131 5 is_stmt 1 discriminator 11
.LVL36:
	.loc 1 132 5 discriminator 11
	.loc 1 134 40 is_stmt 0 discriminator 11
	li	a2,31
	.loc 1 130 36 discriminator 11
	li	a4,1000
	.loc 1 134 40 discriminator 11
	addi	a5,a5,1796
	.loc 1 135 40 discriminator 11
	li	a3,63
.LVL37:
.L44:
	.loc 1 133 9 is_stmt 1
	.loc 1 134 9
	.loc 1 134 40 is_stmt 0
	sb	a2,0(a5)
	.loc 1 135 9 is_stmt 1
	.loc 1 135 40 is_stmt 0
	sb	a3,0(a5)
.LVL38:
	addi	a4,a4,-1
.LVL39:
	.loc 1 132 5
	bne	a4,zero,.L44
	.loc 1 133 18
	li	s1,16158720
	.loc 1 138 49
	li	a5,65536
	.loc 1 133 18
	addi	s1,s1,280
	.loc 1 138 49
	addi	a5,a5,-1
.LVL40:
.L45:
	.loc 1 137 21
	srli	a4,s1,16
	.loc 1 137 11
	bne	a4,zero,.L46
	.loc 1 141 5 is_stmt 1
	.loc 1 141 9 is_stmt 0
	li	a5,1073782784
	lhu	s2,1800(a5)
	.loc 1 142 51
	lbu	a4,%lo(_fsymc_level_hal_drv)(s0)
	li	a5,2
	.loc 1 141 9
	slli	s2,s2,16
	srli	s2,s2,16
.LVL41:
	.loc 1 142 5 is_stmt 1
	.loc 1 142 43
	.loc 1 142 48
	.loc 1 142 51 is_stmt 0
	bgtu	a4,a5,.L47
	.loc 1 142 115
	lui	a4,%hi(_fsymf_level_hal_drvbl_cks)
	.loc 1 142 95
	lbu	a4,%lo(_fsymf_level_hal_drvbl_cks)(a4)
	bgtu	a4,a5,.L47
	.loc 1 142 150 is_stmt 1
.LBB126:
.LBB127:
	.loc 2 151 5
	.loc 2 151 31 is_stmt 0
	lui	a5,%hi(TrapNetCounter)
.LBE127:
.LBE126:
	.loc 1 142 150
	lw	a5,%lo(TrapNetCounter)(a5)
	beq	a5,zero,.L48
	.loc 1 142 245
	call	xTaskGetTickCountFromISR
.LVL42:
.L49:
	.loc 1 142 12
	not	a6,s1
	.loc 1 142 150
	slli	a6,a6,16
	lui	a3,%hi(.LC0)
	lui	a2,%hi(.LC1)
	mv	a1,a0
	lui	a0,%hi(.LC7)
	srli	a6,a6,16
	mv	a5,s2
	li	a4,145
	addi	a3,a3,%lo(.LC0)
	addi	a2,a2,%lo(.LC1)
	addi	a0,a0,%lo(.LC7)
	call	bl_printk
.LVL43:
.L47:
	.loc 1 145 6 is_stmt 1
	.loc 1 147 5
	.loc 1 147 36 is_stmt 0
	li	a5,1073782784
	li	a4,1
	sb	a4,1792(a5)
	.loc 1 148 5 is_stmt 1
	.loc 1 148 36 is_stmt 0
	li	a4,2
	sb	a4,1792(a5)
	.loc 1 149 5 is_stmt 1
.LVL44:
	.loc 1 150 5
	.loc 1 152 40 is_stmt 0
	li	a2,31
	.loc 1 148 36
	li	a4,1000
	.loc 1 152 40
	addi	a5,a5,1796
	.loc 1 153 40
	li	a3,63
.LVL45:
.L50:
	.loc 1 151 9 is_stmt 1
	.loc 1 152 9
	.loc 1 152 40 is_stmt 0
	sb	a2,0(a5)
	.loc 1 153 9 is_stmt 1
	.loc 1 153 40 is_stmt 0
	sb	a3,0(a5)
.LVL46:
	addi	a4,a4,-1
.LVL47:
	.loc 1 150 5
	bne	a4,zero,.L50
	.loc 1 151 18
	li	a4,16158720
.LVL48:
	.loc 1 156 49
	li	a5,65536
	.loc 1 151 18
	addi	a4,a4,280
	.loc 1 156 49
	addi	a5,a5,-1
.L51:
.LVL49:
	.loc 1 155 21
	srli	a3,a4,16
	.loc 1 155 11
	bne	a3,zero,.L52
	.loc 1 159 5 is_stmt 1
	.loc 1 159 9 is_stmt 0
	li	a5,1073782784
	lhu	s2,1800(a5)
.LVL50:
	.loc 1 160 51
	lbu	a3,%lo(_fsymc_level_hal_drv)(s0)
	li	a5,2
	.loc 1 159 9
	slli	s2,s2,16
	srli	s2,s2,16
.LVL51:
	.loc 1 160 5 is_stmt 1
	.loc 1 160 43
	.loc 1 160 48
	not	s1,a4
	.loc 1 160 51 is_stmt 0
	bgtu	a3,a5,.L53
	.loc 1 160 115
	lui	a4,%hi(_fsymf_level_hal_drvbl_cks)
.LVL52:
	.loc 1 160 95
	lbu	a4,%lo(_fsymf_level_hal_drvbl_cks)(a4)
	bgtu	a4,a5,.L53
	.loc 1 160 150 is_stmt 1
.LBB128:
.LBB129:
	.loc 2 151 5
	.loc 2 151 31 is_stmt 0
	lui	a5,%hi(TrapNetCounter)
.LBE129:
.LBE128:
	.loc 1 160 150
	lw	a5,%lo(TrapNetCounter)(a5)
	beq	a5,zero,.L54
	.loc 1 160 245
	call	xTaskGetTickCountFromISR
.LVL53:
.L55:
	.loc 1 160 150
	slli	a6,s1,16
	lui	a3,%hi(.LC0)
	lui	a2,%hi(.LC1)
	mv	a1,a0
	lui	a0,%hi(.LC8)
	srli	a6,a6,16
	mv	a5,s2
	li	a4,163
	addi	a3,a3,%lo(.LC0)
	addi	a2,a2,%lo(.LC1)
	addi	a0,a0,%lo(.LC8)
	call	bl_printk
.LVL54:
.L53:
	.loc 1 163 6 is_stmt 1
	.loc 1 164 5
	.loc 1 164 8 is_stmt 0
	slli	a4,s1,16
	srli	a4,a4,16
	lbu	a3,%lo(_fsymc_level_hal_drv)(s0)
	bne	s2,a4,.L56
	.loc 1 165 9 is_stmt 1
	.loc 1 165 47
	.loc 1 165 52
	.loc 1 165 55 is_stmt 0
	li	a5,2
	bgtu	a3,a5,.L58
	.loc 1 165 119
	lui	a4,%hi(_fsymf_level_hal_drvbl_cks)
	.loc 1 165 99
	lbu	a4,%lo(_fsymf_level_hal_drvbl_cks)(a4)
	bleu	a4,a5,.L59
.LVL55:
.L58:
.LBE125:
.LBE124:
	.loc 1 317 345 is_stmt 1 discriminator 11
	.loc 1 318 5 discriminator 11
.LBB136:
.LBB137:
	.loc 1 173 5 discriminator 11
	.loc 1 174 5 discriminator 11
	.loc 1 175 5 discriminator 11
	.loc 1 176 5 discriminator 11
	.loc 1 177 5 discriminator 11
	.loc 1 179 5 discriminator 11
	.loc 1 179 36 is_stmt 0 discriminator 11
	li	a5,1073782784
	li	a4,1
	sb	a4,1792(a5)
	.loc 1 180 5 is_stmt 1 discriminator 11
.LVL56:
	.loc 1 181 5 discriminator 11
	.loc 1 182 9 discriminator 11
	.loc 1 183 9 discriminator 11
	.loc 1 183 40 is_stmt 0 discriminator 11
	li	a4,31
	sb	a4,1796(a5)
	.loc 1 184 9 is_stmt 1 discriminator 11
	.loc 1 184 40 is_stmt 0 discriminator 11
	li	a4,63
	sb	a4,1796(a5)
.LVL57:
	.loc 1 186 5 is_stmt 1 discriminator 11
	.loc 1 187 5 discriminator 11
	.loc 1 190 5 discriminator 11
	.loc 1 190 36 is_stmt 0 discriminator 11
	li	a4,-95
	sb	a4,1796(a5)
	.loc 1 192 5 is_stmt 1 discriminator 11
	.loc 1 192 9 is_stmt 0 discriminator 11
	lhu	s1,1800(a5)
	.loc 1 193 51 discriminator 11
	lbu	a4,%lo(_fsymc_level_hal_drv)(s0)
	li	a5,2
	.loc 1 192 9 discriminator 11
	slli	s1,s1,16
	srli	s1,s1,16
.LVL58:
	.loc 1 193 5 is_stmt 1 discriminator 11
	.loc 1 193 43 discriminator 11
	.loc 1 193 48 discriminator 11
	.loc 1 193 51 is_stmt 0 discriminator 11
	bgtu	a4,a5,.L70
	.loc 1 193 115
	lui	a4,%hi(_fsymf_level_hal_drvbl_cks)
	.loc 1 193 95
	lbu	a4,%lo(_fsymf_level_hal_drvbl_cks)(a4)
	bgtu	a4,a5,.L70
	.loc 1 193 150 is_stmt 1
.LBB138:
.LBB139:
	.loc 2 151 5
	.loc 2 151 31 is_stmt 0
	lui	a5,%hi(TrapNetCounter)
.LBE139:
.LBE138:
	.loc 1 193 150
	lw	a5,%lo(TrapNetCounter)(a5)
	beq	a5,zero,.L71
	.loc 1 193 245
	call	xTaskGetTickCountFromISR
.LVL59:
.L72:
	.loc 1 193 150
	li	a6,49152
	lui	a3,%hi(.LC0)
	lui	a2,%hi(.LC1)
	mv	a1,a0
	lui	a0,%hi(.LC7)
	addi	a6,a6,63
	mv	a5,s1
	li	a4,196
	addi	a3,a3,%lo(.LC0)
	addi	a2,a2,%lo(.LC1)
	addi	a0,a0,%lo(.LC7)
	call	bl_printk
.LVL60:
.L70:
	.loc 1 196 6 is_stmt 1
	.loc 1 198 5
	.loc 1 198 36 is_stmt 0
	li	a5,1073782784
	li	a4,1
	sb	a4,1792(a5)
	.loc 1 199 5 is_stmt 1
	.loc 1 199 36 is_stmt 0
	li	a4,2
	sb	a4,1792(a5)
	.loc 1 200 5 is_stmt 1
.LVL61:
	.loc 1 201 5
	.loc 1 202 9
	.loc 1 203 9
	.loc 1 203 40 is_stmt 0
	li	a3,31
	sb	a3,1796(a5)
	.loc 1 204 9 is_stmt 1
	.loc 1 204 40 is_stmt 0
	li	a3,63
	sb	a3,1796(a5)
.LVL62:
	.loc 1 206 5 is_stmt 1
	.loc 1 207 5
	.loc 1 210 5
	.loc 1 210 36 is_stmt 0
	li	a3,-95
	sb	a3,1796(a5)
	.loc 1 212 5 is_stmt 1
	.loc 1 212 9 is_stmt 0
	lhu	s2,1800(a5)
	.loc 1 213 51
	lbu	a5,%lo(_fsymc_level_hal_drv)(s0)
	.loc 1 212 9
	slli	s2,s2,16
	srli	s2,s2,16
.LVL63:
	.loc 1 213 5 is_stmt 1
	.loc 1 213 43
	.loc 1 213 48
	.loc 1 213 51 is_stmt 0
	bgtu	a5,a4,.L73
	.loc 1 213 115
	lui	s5,%hi(_fsymf_level_hal_drvbl_cks)
	.loc 1 213 95
	lbu	a5,%lo(_fsymf_level_hal_drvbl_cks)(s5)
	bgtu	a5,a4,.L74
	.loc 1 213 150 is_stmt 1
.LBB140:
.LBB141:
	.loc 2 151 5
	.loc 2 151 31 is_stmt 0
	lui	a5,%hi(TrapNetCounter)
.LBE141:
.LBE140:
	.loc 1 213 150
	lw	a4,%lo(TrapNetCounter)(a5)
	mv	s6,a5
	beq	a4,zero,.L75
	.loc 1 213 245
	call	xTaskGetTickCountFromISR
.LVL64:
.L76:
	.loc 1 213 150
	li	s1,49152
	mv	a1,a0
	lui	s4,%hi(.LC0)
	lui	s3,%hi(.LC1)
	lui	a0,%hi(.LC8)
	addi	a6,s1,63
	mv	a5,s2
	li	a4,216
	addi	a3,s4,%lo(.LC0)
	addi	a2,s3,%lo(.LC1)
	addi	a0,a0,%lo(.LC8)
	.loc 1 217 8
	addi	s1,s1,63
	.loc 1 213 150
	call	bl_printk
.LVL65:
	.loc 1 216 6 is_stmt 1
	.loc 1 217 5
	.loc 1 217 8 is_stmt 0
	bne	s2,s1,.L77
	.loc 1 218 9 is_stmt 1
	.loc 1 218 47
	.loc 1 218 52
	.loc 1 218 55 is_stmt 0
	lbu	a4,%lo(_fsymc_level_hal_drv)(s0)
	li	a5,2
	bgtu	a4,a5,.L79
	.loc 1 218 99
	lbu	a4,%lo(_fsymf_level_hal_drvbl_cks)(s5)
	bleu	a4,a5,.L80
.LVL66:
.L79:
.LBE137:
.LBE136:
	.loc 1 319 345 is_stmt 1 discriminator 11
	.loc 1 320 5 discriminator 11
.LBB150:
.LBB151:
	.loc 1 235 5 discriminator 11
	.loc 1 236 5 discriminator 11
	.loc 1 237 5 discriminator 11
	.loc 1 238 5 discriminator 11
	.loc 1 238 14 is_stmt 0 discriminator 11
	li	a5,16384
	addi	a5,a5,-225
	.loc 1 245 5 discriminator 11
	addi	s1,sp,12
	.loc 1 238 14 discriminator 11
	sh	a5,0(sp)
	.loc 1 239 5 is_stmt 1 discriminator 11
	.loc 1 240 14 is_stmt 0 discriminator 11
	li	a5,1
	sw	a5,4(sp)
	.loc 1 245 5 discriminator 11
	li	a2,28
	.loc 1 240 14 discriminator 11
	li	a5,2
	.loc 1 245 5 discriminator 11
	li	a1,0
	mv	a0,s1
	.loc 1 240 14 discriminator 11
	sw	a5,8(sp)
	.loc 1 239 14 discriminator 11
	sh	zero,2(sp)
	.loc 1 240 5 is_stmt 1 discriminator 11
	.loc 1 245 5 discriminator 11
	call	memset
.LVL67:
	.loc 1 246 5 discriminator 11
	li	a2,28
	li	a1,0
	addi	a0,sp,40
	call	memset
.LVL68:
	.loc 1 247 5 discriminator 11
	li	a2,28
	li	a1,0
	addi	a0,sp,68
	call	memset
.LVL69:
	.loc 1 250 5 discriminator 11
	.loc 1 250 17 is_stmt 0 discriminator 11
	addi	a5,sp,4
	.loc 1 250 15 discriminator 11
	sw	a5,24(sp)
	.loc 1 251 5 is_stmt 1 discriminator 11
	.loc 1 251 15 is_stmt 0 discriminator 11
	li	a5,1073782784
	addi	a4,a5,1792
	sw	a4,28(sp)
	.loc 1 252 5 is_stmt 1 discriminator 11
	.loc 1 252 18 is_stmt 0 discriminator 11
	addi	a4,sp,52
	.loc 1 252 16 discriminator 11
	sw	a4,32(sp)
	.loc 1 253 5 is_stmt 1 discriminator 11
	.loc 1 253 16 is_stmt 0 discriminator 11
	li	a4,71827456
	addi	a4,a4,2
	sw	a4,36(sp)
	.loc 1 262 5 is_stmt 1 discriminator 11
	.loc 1 262 14 is_stmt 0 discriminator 11
	lui	a4,%hi(_cb_cmd)
	addi	a4,a4,%lo(_cb_cmd)
	sw	a4,16(sp)
	.loc 1 263 5 is_stmt 1 discriminator 11
	.loc 1 267 16 is_stmt 0 discriminator 11
	addi	a4,a5,1796
	.loc 1 281 14 discriminator 11
	addi	a5,a5,1800
	.loc 1 267 16 discriminator 11
	sw	a4,56(sp)
	.loc 1 281 14 discriminator 11
	sw	a5,80(sp)
	.loc 1 268 19 discriminator 11
	addi	a4,sp,80
	.loc 1 282 16 discriminator 11
	addi	a5,sp,2
	.loc 1 268 17 discriminator 11
	sw	a4,60(sp)
	.loc 1 282 14 discriminator 11
	sw	a5,84(sp)
	.loc 1 269 17 discriminator 11
	li	a4,262144
	.loc 1 284 15 discriminator 11
	li	a5,-2145124352
	.loc 1 269 17 discriminator 11
	addi	a4,a4,1000
	.loc 1 284 15 discriminator 11
	addi	a5,a5,1
	.loc 1 295 5 discriminator 11
	mv	a0,s1
	.loc 1 263 15 discriminator 11
	sw	s1,20(sp)
	.loc 1 266 5 is_stmt 1 discriminator 11
	.loc 1 266 16 is_stmt 0 discriminator 11
	sw	sp,52(sp)
	.loc 1 267 5 is_stmt 1 discriminator 11
	.loc 1 268 5 discriminator 11
	.loc 1 269 5 discriminator 11
	.loc 1 269 17 is_stmt 0 discriminator 11
	sw	a4,64(sp)
	.loc 1 277 5 is_stmt 1 discriminator 11
	.loc 1 277 15 is_stmt 0 discriminator 11
	sw	zero,44(sp)
	.loc 1 278 5 is_stmt 1 discriminator 11
	.loc 1 278 16 is_stmt 0 discriminator 11
	sw	zero,48(sp)
	.loc 1 281 5 is_stmt 1 discriminator 11
	.loc 1 282 5 discriminator 11
	.loc 1 283 5 discriminator 11
	.loc 1 283 15 is_stmt 0 discriminator 11
	sw	zero,88(sp)
	.loc 1 284 5 is_stmt 1 discriminator 11
	.loc 1 284 15 is_stmt 0 discriminator 11
	sw	a5,92(sp)
	.loc 1 292 5 is_stmt 1 discriminator 11
	.loc 1 292 13 is_stmt 0 discriminator 11
	sw	zero,72(sp)
	.loc 1 293 5 is_stmt 1 discriminator 11
	.loc 1 293 14 is_stmt 0 discriminator 11
	sw	zero,76(sp)
	.loc 1 295 5 is_stmt 1 discriminator 11
	call	bl_dma_copy
.LVL70:
	.loc 1 299 5 discriminator 11
.L92:
	.loc 1 299 11 is_stmt 0
	lw	a5,20(sp)
	bne	a5,zero,.L93
	.loc 1 302 5 is_stmt 1
	.loc 1 302 8 is_stmt 0
	lhu	a3,2(sp)
	li	a5,28672
	addi	a5,a5,-527
	lbu	a4,%lo(_fsymc_level_hal_drv)(s0)
	bne	a3,a5,.L94
	.loc 1 303 9 is_stmt 1
	.loc 1 303 47
	.loc 1 303 52
	.loc 1 303 55 is_stmt 0
	li	a5,2
	bgtu	a4,a5,.L104
	.loc 1 303 119
	lui	a4,%hi(_fsymf_level_hal_drvbl_cks)
	.loc 1 303 99
	lbu	a4,%lo(_fsymf_level_hal_drvbl_cks)(a4)
	bgtu	a4,a5,.L104
	.loc 1 303 154 is_stmt 1
.LBB152:
.LBB153:
	.loc 2 151 5
	.loc 2 151 31 is_stmt 0
	lui	a5,%hi(TrapNetCounter)
.LBE153:
.LBE152:
	.loc 1 303 154
	lw	a5,%lo(TrapNetCounter)(a5)
	beq	a5,zero,.L96
	.loc 1 303 255
	call	xTaskGetTickCountFromISR
.LVL71:
.L97:
	.loc 1 303 154
	lhu	a5,2(sp)
	lui	a3,%hi(.LC0)
	lui	a2,%hi(.LC1)
	mv	a1,a0
	lui	a0,%hi(.LC9)
	li	a4,303
	addi	a3,a3,%lo(.LC0)
	addi	a2,a2,%lo(.LC1)
	addi	a0,a0,%lo(.LC9)
.L113:
	.loc 1 305 156
	call	bl_printk
.LVL72:
	.loc 1 305 379 is_stmt 1
.LBE151:
.LBE150:
	.loc 1 321 5
.L104:
	.loc 1 322 1 is_stmt 0
	lw	ra,124(sp)
	.cfi_remember_state
	.cfi_restore 1
	lw	s0,120(sp)
	.cfi_restore 8
	lw	s1,116(sp)
	.cfi_restore 9
	lw	s2,112(sp)
	.cfi_restore 18
	lw	s3,108(sp)
	.cfi_restore 19
	lw	s4,104(sp)
	.cfi_restore 20
	lw	s5,100(sp)
	.cfi_restore 21
	lw	s6,96(sp)
	.cfi_restore 22
	li	a0,0
	addi	sp,sp,128
	.cfi_def_cfa_offset 0
	jr	ra
.LVL73:
.L8:
	.cfi_restore_state
	.loc 1 311 264 discriminator 8
	call	xTaskGetTickCount
.LVL74:
	j	.L9
.LVL75:
.L12:
.LBB157:
.LBB108:
	.loc 1 64 293
	call	xTaskGetTickCount
.LVL76:
	j	.L13
.LVL77:
.L17:
	.loc 1 72 150 is_stmt 1
.LBB106:
.LBB107:
	.loc 2 151 5
	.loc 2 151 31 is_stmt 0
	lui	a5,%hi(TrapNetCounter)
.LBE107:
.LBE106:
	.loc 1 72 150
	lw	a4,%lo(TrapNetCounter)(a5)
	mv	s3,a5
	beq	a4,zero,.L20
	.loc 1 72 264
	call	xTaskGetTickCountFromISR
.LVL78:
.L21:
	.loc 1 72 150
	mv	a5,s1
	mv	a1,a0
	lui	s2,%hi(.LC0)
	lui	s1,%hi(.LC1)
.LVL79:
	lui	a0,%hi(.LC5)
	li	a4,72
	li	a7,184
	li	a6,97
	addi	a3,s2,%lo(.LC0)
	addi	a2,s1,%lo(.LC1)
	addi	a0,a0,%lo(.LC5)
	call	bl_printk
.LVL80:
	.loc 1 72 414 is_stmt 1
.LBE108:
.LBE157:
	.loc 1 313 5
	.loc 1 313 43
	.loc 1 313 48
	.loc 1 313 51 is_stmt 0
	lbu	a4,%lo(_fsymc_level_hal_drv)(s0)
	li	a5,2
	bgtu	a4,a5,.L16
	.loc 1 313 95
	lbu	a4,%lo(_fsymf_level_hal_drvbl_cks)(s4)
	bgtu	a4,a5,.L16
	.loc 1 313 150 is_stmt 1
.LBB158:
.LBB159:
	.loc 2 151 5
.LBE159:
.LBE158:
	.loc 1 313 150 is_stmt 0
	lw	a5,%lo(TrapNetCounter)(s3)
	beq	a5,zero,.L23
	.loc 1 313 235 discriminator 7
	call	xTaskGetTickCountFromISR
.LVL81:
.L24:
	.loc 1 313 150 discriminator 10
	mv	a1,a0
	lui	a0,%hi(.LC6)
	li	a4,313
	addi	a3,s2,%lo(.LC0)
	addi	a2,s1,%lo(.LC1)
	addi	a0,a0,%lo(.LC6)
	call	bl_printk
.LVL82:
	j	.L16
.LVL83:
.L20:
.LBB160:
.LBB109:
	.loc 1 72 293
	call	xTaskGetTickCount
.LVL84:
	j	.L21
.LVL85:
.L23:
.LBE109:
.LBE160:
	.loc 1 313 264 discriminator 8
	call	xTaskGetTickCount
.LVL86:
	j	.L24
.LVL87:
.L26:
.LBB161:
.LBB120:
	.loc 1 94 274
	call	xTaskGetTickCount
.LVL88:
	j	.L27
.L30:
	.loc 1 112 274
	call	xTaskGetTickCount
.LVL89:
	j	.L31
.L35:
	.loc 1 117 284
	call	xTaskGetTickCount
.LVL90:
	j	.L36
.L38:
	.loc 1 119 284
	call	xTaskGetTickCount
.LVL91:
	j	.L39
.LVL92:
.L42:
.LBE120:
.LBE161:
	.loc 1 315 264 discriminator 8
	call	xTaskGetTickCount
.LVL93:
	j	.L43
.LVL94:
.L46:
.LBB162:
.LBB134:
	.loc 1 138 9 is_stmt 1
	.loc 1 138 49 is_stmt 0
	and	s1,s1,a5
.LVL95:
	.loc 1 138 18
	add	s1,s1,a4
.LVL96:
	j	.L45
.LVL97:
.L48:
	.loc 1 142 274
	call	xTaskGetTickCount
.LVL98:
	j	.L49
.LVL99:
.L52:
	.loc 1 156 9 is_stmt 1
	.loc 1 156 49 is_stmt 0
	and	a4,a4,a5
.LVL100:
	.loc 1 156 18
	add	a4,a4,a3
.LVL101:
	j	.L51
.LVL102:
.L54:
	.loc 1 160 274
	call	xTaskGetTickCount
.LVL103:
	j	.L55
.L59:
	.loc 1 165 154 is_stmt 1
.LBB130:
.LBB131:
	.loc 2 151 5
	.loc 2 151 31 is_stmt 0
	lui	a5,%hi(TrapNetCounter)
.LBE131:
.LBE130:
	.loc 1 165 154
	lw	a5,%lo(TrapNetCounter)(a5)
	beq	a5,zero,.L62
	.loc 1 165 255
	call	xTaskGetTickCountFromISR
.LVL104:
.L63:
	.loc 1 165 154
	lui	a3,%hi(.LC0)
	lui	a2,%hi(.LC1)
	mv	a1,a0
	lui	a0,%hi(.LC9)
	mv	a5,s2
	li	a4,165
	addi	a3,a3,%lo(.LC0)
	addi	a2,a2,%lo(.LC1)
	addi	a0,a0,%lo(.LC9)
.L111:
	.loc 1 167 156
	call	bl_printk
.LVL105:
.L64:
	.loc 1 167 372 is_stmt 1 discriminator 11
.LBE134:
.LBE162:
	.loc 1 317 5 discriminator 11
	.loc 1 317 43 discriminator 11
	.loc 1 317 48 discriminator 11
	.loc 1 317 51 is_stmt 0 discriminator 11
	lbu	a4,%lo(_fsymc_level_hal_drv)(s0)
	li	a5,2
	bgtu	a4,a5,.L58
	.loc 1 317 115
	lui	a4,%hi(_fsymf_level_hal_drvbl_cks)
	.loc 1 317 95
	lbu	a4,%lo(_fsymf_level_hal_drvbl_cks)(a4)
	bgtu	a4,a5,.L58
	.loc 1 317 150 is_stmt 1
.LBB163:
.LBB164:
	.loc 2 151 5
	.loc 2 151 31 is_stmt 0
	lui	a5,%hi(TrapNetCounter)
.LBE164:
.LBE163:
	.loc 1 317 150
	lw	a5,%lo(TrapNetCounter)(a5)
	beq	a5,zero,.L68
	.loc 1 317 235 discriminator 7
	call	xTaskGetTickCountFromISR
.LVL106:
.L69:
	.loc 1 317 150 discriminator 10
	mv	a1,a0
	lui	a3,%hi(.LC0)
	lui	a2,%hi(.LC1)
	lui	a0,%hi(.LC13)
	li	a4,317
	addi	a3,a3,%lo(.LC0)
	addi	a2,a2,%lo(.LC1)
	addi	a0,a0,%lo(.LC13)
	call	bl_printk
.LVL107:
	j	.L58
.LVL108:
.L62:
.LBB165:
.LBB135:
	.loc 1 165 284
	call	xTaskGetTickCount
.LVL109:
	j	.L63
.L56:
	.loc 1 167 9 is_stmt 1
	.loc 1 167 47
	.loc 1 167 52
	.loc 1 167 55 is_stmt 0
	li	a5,4
	bgtu	a3,a5,.L64
	.loc 1 167 121
	lui	a4,%hi(_fsymf_level_hal_drvbl_cks)
	.loc 1 167 100
	lbu	a4,%lo(_fsymf_level_hal_drvbl_cks)(a4)
	bgtu	a4,a5,.L64
	.loc 1 167 156 is_stmt 1
.LBB132:
.LBB133:
	.loc 2 151 5
	.loc 2 151 31 is_stmt 0
	lui	a5,%hi(TrapNetCounter)
.LBE133:
.LBE132:
	.loc 1 167 156
	lw	a5,%lo(TrapNetCounter)(a5)
	beq	a5,zero,.L65
	.loc 1 167 257
	call	xTaskGetTickCountFromISR
.LVL110:
.L66:
	.loc 1 167 156
	lui	a3,%hi(.LC0)
	lui	a2,%hi(.LC12)
	mv	a1,a0
	lui	a0,%hi(.LC10)
	mv	a5,s2
	li	a4,167
	addi	a3,a3,%lo(.LC0)
	addi	a2,a2,%lo(.LC12)
	addi	a0,a0,%lo(.LC10)
	j	.L111
.L65:
	.loc 1 167 286
	call	xTaskGetTickCount
.LVL111:
	j	.L66
.LVL112:
.L68:
.LBE135:
.LBE165:
	.loc 1 317 264 discriminator 8
	call	xTaskGetTickCount
.LVL113:
	j	.L69
.LVL114:
.L71:
.LBB166:
.LBB146:
	.loc 1 193 274
	call	xTaskGetTickCount
.LVL115:
	j	.L72
.LVL116:
.L75:
	.loc 1 213 274
	call	xTaskGetTickCount
.LVL117:
	j	.L76
.L80:
	.loc 1 218 154 is_stmt 1
.LBB142:
.LBB143:
	.loc 2 151 5
.LBE143:
.LBE142:
	.loc 1 218 154 is_stmt 0
	lw	a5,%lo(TrapNetCounter)(s6)
	beq	a5,zero,.L84
	.loc 1 218 255
	call	xTaskGetTickCountFromISR
.LVL118:
.L85:
	.loc 1 218 154
	li	a5,49152
	mv	a1,a0
	lui	a0,%hi(.LC9)
	addi	a5,a5,63
	li	a4,218
	addi	a3,s4,%lo(.LC0)
	addi	a2,s3,%lo(.LC1)
	addi	a0,a0,%lo(.LC9)
.L112:
	.loc 1 220 156
	call	bl_printk
.LVL119:
.L86:
	.loc 1 220 372 is_stmt 1 discriminator 11
.LBE146:
.LBE166:
	.loc 1 319 5 discriminator 11
	.loc 1 319 43 discriminator 11
	.loc 1 319 48 discriminator 11
	.loc 1 319 51 is_stmt 0 discriminator 11
	lbu	a4,%lo(_fsymc_level_hal_drv)(s0)
	li	a5,2
	bgtu	a4,a5,.L79
	.loc 1 319 115
	lui	a4,%hi(_fsymf_level_hal_drvbl_cks)
	.loc 1 319 95
	lbu	a4,%lo(_fsymf_level_hal_drvbl_cks)(a4)
	bgtu	a4,a5,.L79
	.loc 1 319 150 is_stmt 1
.LBB167:
.LBB168:
	.loc 2 151 5
	.loc 2 151 31 is_stmt 0
	lui	a5,%hi(TrapNetCounter)
.LBE168:
.LBE167:
	.loc 1 319 150
	lw	a5,%lo(TrapNetCounter)(a5)
	beq	a5,zero,.L90
	.loc 1 319 235 discriminator 7
	call	xTaskGetTickCountFromISR
.LVL120:
.L91:
	.loc 1 319 150 discriminator 10
	mv	a1,a0
	lui	a3,%hi(.LC0)
	lui	a2,%hi(.LC1)
	lui	a0,%hi(.LC14)
	li	a4,319
	addi	a3,a3,%lo(.LC0)
	addi	a2,a2,%lo(.LC1)
	addi	a0,a0,%lo(.LC14)
	call	bl_printk
.LVL121:
	j	.L79
.LVL122:
.L84:
.LBB169:
.LBB147:
	.loc 1 218 284
	call	xTaskGetTickCount
.LVL123:
	j	.L85
.L87:
	.loc 1 220 286
	call	xTaskGetTickCount
.LVL124:
	j	.L88
.LVL125:
.L90:
.LBE147:
.LBE169:
	.loc 1 319 264 discriminator 8
	call	xTaskGetTickCount
.LVL126:
	j	.L91
.L93:
.LBB170:
.LBB156:
	.loc 1 300 9 is_stmt 1
	li	a0,2
	call	vTaskDelay
.LVL127:
	j	.L92
.L96:
	.loc 1 303 284 is_stmt 0
	call	xTaskGetTickCount
.LVL128:
	j	.L97
.L94:
	.loc 1 305 9 is_stmt 1
	.loc 1 305 47
	.loc 1 305 52
	.loc 1 305 55 is_stmt 0
	li	a5,4
	bgtu	a4,a5,.L104
	.loc 1 305 121
	lui	a4,%hi(_fsymf_level_hal_drvbl_cks)
	.loc 1 305 100
	lbu	a4,%lo(_fsymf_level_hal_drvbl_cks)(a4)
	bgtu	a4,a5,.L104
	.loc 1 305 156 is_stmt 1
.LBB154:
.LBB155:
	.loc 2 151 5
	.loc 2 151 31 is_stmt 0
	lui	a5,%hi(TrapNetCounter)
.LBE155:
.LBE154:
	.loc 1 305 156
	lw	a5,%lo(TrapNetCounter)(a5)
	beq	a5,zero,.L98
	.loc 1 305 257
	call	xTaskGetTickCountFromISR
.LVL129:
.L99:
	.loc 1 305 156
	lui	a3,%hi(.LC0)
	lui	a2,%hi(.LC12)
	mv	a1,a0
	lui	a0,%hi(.LC10)
	lhu	a5,2(sp)
	li	a4,305
	addi	a3,a3,%lo(.LC0)
	addi	a2,a2,%lo(.LC12)
	addi	a0,a0,%lo(.LC10)
	j	.L113
.L98:
	.loc 1 305 286
	call	xTaskGetTickCount
.LVL130:
	j	.L99
.LVL131:
.L74:
.LBE156:
.LBE170:
.LBB171:
.LBB148:
	.loc 1 216 6 is_stmt 1
	.loc 1 217 5
	.loc 1 217 8 is_stmt 0
	li	a5,49152
	addi	a5,a5,63
	bne	s2,a5,.L100
	j	.L79
.LVL132:
.L40:
.LBE148:
.LBE171:
.LBB172:
.LBB121:
	.loc 1 119 370 is_stmt 1
.LBE121:
.LBE172:
	.loc 1 315 5
	.loc 1 315 43
	.loc 1 315 48
	.loc 1 315 115 is_stmt 0
	lui	a4,%hi(_fsymf_level_hal_drvbl_cks)
	.loc 1 315 95
	lbu	a4,%lo(_fsymf_level_hal_drvbl_cks)(a4)
	bgtu	a4,a5,.L101
	.loc 1 315 150 is_stmt 1
.LBB173:
.LBB174:
	.loc 2 151 5
	.loc 2 151 31 is_stmt 0
	lui	a5,%hi(TrapNetCounter)
.LBE174:
.LBE173:
	.loc 1 315 150
	lw	a5,%lo(TrapNetCounter)(a5)
	beq	a5,zero,.L42
	.loc 1 315 235 discriminator 7
	call	xTaskGetTickCountFromISR
.LVL133:
.L43:
	.loc 1 315 150 discriminator 10
	mv	a1,a0
	lui	a3,%hi(.LC0)
	lui	a2,%hi(.LC1)
	lui	a0,%hi(.LC11)
	li	a4,315
	addi	a3,a3,%lo(.LC0)
	addi	a2,a2,%lo(.LC1)
	addi	a0,a0,%lo(.LC11)
	call	bl_printk
.LVL134:
	j	.L101
.LVL135:
.L29:
.LBB175:
.LBB122:
	.loc 1 115 6 is_stmt 1
	.loc 1 116 5
	.loc 1 116 8 is_stmt 0
	li	a5,49152
	addi	a5,a5,224
	bne	s1,a5,.L103
	j	.L101
.LVL136:
.L73:
.LBE122:
.LBE175:
.LBB176:
.LBB149:
	.loc 1 216 6 is_stmt 1
	.loc 1 217 5
	.loc 1 217 8 is_stmt 0
	li	a5,49152
	addi	a5,a5,63
	beq	s2,a5,.L79
.L77:
	.loc 1 220 9 is_stmt 1
	.loc 1 220 47
	.loc 1 220 52
	.loc 1 220 55 is_stmt 0
	lbu	a4,%lo(_fsymc_level_hal_drv)(s0)
	li	a5,4
	bgtu	a4,a5,.L86
.L100:
	.loc 1 220 121
	lui	a5,%hi(_fsymf_level_hal_drvbl_cks)
	.loc 1 220 100
	lbu	a4,%lo(_fsymf_level_hal_drvbl_cks)(a5)
	li	a5,4
	bgtu	a4,a5,.L86
	.loc 1 220 156 is_stmt 1
.LBB144:
.LBB145:
	.loc 2 151 5
	.loc 2 151 31 is_stmt 0
	lui	a5,%hi(TrapNetCounter)
.LBE145:
.LBE144:
	.loc 1 220 156
	lw	a5,%lo(TrapNetCounter)(a5)
	beq	a5,zero,.L87
	.loc 1 220 257
	call	xTaskGetTickCountFromISR
.LVL137:
.L88:
	.loc 1 220 156
	lui	a3,%hi(.LC0)
	lui	a2,%hi(.LC12)
	mv	a1,a0
	lui	a0,%hi(.LC10)
	mv	a5,s2
	li	a4,220
	addi	a3,a3,%lo(.LC0)
	addi	a2,a2,%lo(.LC12)
	addi	a0,a0,%lo(.LC10)
	j	.L112
.LVL138:
.L28:
.LBE149:
.LBE176:
.LBB177:
.LBB123:
	.loc 1 115 6 is_stmt 1
	.loc 1 116 5
	.loc 1 116 8 is_stmt 0
	li	a5,49152
	addi	a5,a5,224
	beq	s1,a5,.L101
.L32:
	.loc 1 119 9 is_stmt 1
	.loc 1 119 47
	.loc 1 119 52
	.loc 1 119 55 is_stmt 0
	lbu	a4,%lo(_fsymc_level_hal_drv)(s0)
	li	a5,2
	bgtu	a4,a5,.L101
.L103:
	.loc 1 119 119
	lui	a5,%hi(_fsymf_level_hal_drvbl_cks)
	.loc 1 119 99
	lbu	a4,%lo(_fsymf_level_hal_drvbl_cks)(a5)
	li	a5,2
	bgtu	a4,a5,.L101
	.loc 1 119 154 is_stmt 1
.LBB118:
.LBB119:
	.loc 2 151 5
	.loc 2 151 31 is_stmt 0
	lui	a5,%hi(TrapNetCounter)
.LBE119:
.LBE118:
	.loc 1 119 154
	lw	a5,%lo(TrapNetCounter)(a5)
	beq	a5,zero,.L38
	.loc 1 119 255
	call	xTaskGetTickCountFromISR
.LVL139:
.L39:
	.loc 1 119 154
	lui	a3,%hi(.LC0)
	lui	a2,%hi(.LC1)
	mv	a1,a0
	lui	a0,%hi(.LC10)
	mv	a5,s1
	li	a4,119
	addi	a3,a3,%lo(.LC0)
	addi	a2,a2,%lo(.LC1)
	addi	a0,a0,%lo(.LC10)
	j	.L110
.LBE123:
.LBE177:
	.cfi_endproc
.LFE29:
	.size	bl_cks_test, .-bl_cks_test
	.globl	_fsymf_info_hal_drvbl_cks
	.comm	_fsymf_level_hal_drvbl_cks,1,1
	.comm	_fsymc_level_hal_drv,1,1
	.section	.rodata._cb_cmd.str1.4,"aMS",@progbits,1
	.align	2
.LC0:
	.string	"bl_cks.c"
	.zero	3
.LC1:
	.string	"\033[32mINFO  \033[0m"
.LC2:
	.string	"[%10u][%s: %s:%4d] [DMA] [TEST] Callback is working, arg is %p\r\n"
	.section	.rodata.bl_cks_test.str1.4,"aMS",@progbits,1
	.align	2
.LC3:
	.string	"[%10u][%s: %s:%4d] --->>> case1 test\r\n"
	.zero	1
.LC4:
	.string	"[%10u][%s: %s:%4d] CKS result with LE is %04x, should be %02x%02x\r\n"
.LC5:
	.string	"[%10u][%s: %s:%4d] CKS result with BE is %04x, should be %02x%02x\r\n"
.LC6:
	.string	"[%10u][%s: %s:%4d] --->>> case2 test\r\n"
	.zero	1
.LC7:
	.string	"[%10u][%s: %s:%4d] CKS LE result is %04x, %04x\r\n"
	.zero	3
.LC8:
	.string	"[%10u][%s: %s:%4d] CKS BE result is %04x, %04x\r\n"
	.zero	3
.LC9:
	.string	"[%10u][%s: %s:%4d] ====== Success %04X Checksum=====\r\n"
	.zero	1
.LC10:
	.string	"[%10u][%s: %s:%4d] ====== Failed %04X Checksum======\r\n"
	.zero	1
.LC11:
	.string	"[%10u][%s: %s:%4d] --->>> case3 test\r\n"
	.zero	1
.LC12:
	.string	"\033[31mERROR \033[0m"
.LC13:
	.string	"[%10u][%s: %s:%4d] --->>> case4 test\r\n"
	.zero	1
.LC14:
	.string	"[%10u][%s: %s:%4d] --->>> case5 test\r\n"
	.section	.rodata.data_src1.2802,"a"
	.align	2
	.set	.LANCHOR0,. + 0
	.type	data_src1.2802, @object
	.size	data_src1.2802, 20
data_src1.2802:
	.byte	69
	.byte	0
	.byte	0
	.byte	115
	.byte	0
	.byte	0
	.byte	64
	.byte	0
	.byte	64
	.byte	17
	.byte	0
	.byte	0
	.byte	-64
	.byte	-88
	.byte	0
	.byte	1
	.byte	-64
	.byte	-88
	.byte	0
	.byte	-57
	.section	.rodata.str1.4,"aMS",@progbits,1
	.align	2
.LC15:
	.string	"hal_drv.bl_cks"
	.zero	1
.LC16:
	.string	"hal_drv"
	.section	.sdata2.BLOG_HARD_DECLARE_DISABLE,"a"
	.align	2
	.type	BLOG_HARD_DECLARE_DISABLE, @object
	.size	BLOG_HARD_DECLARE_DISABLE, 4
BLOG_HARD_DECLARE_DISABLE:
	.zero	4
	.section	.static_blogcomponent_code.hal_drv,"a"
	.align	2
	.type	_fsymc_info_hal_drv, @object
	.size	_fsymc_info_hal_drv, 8
_fsymc_info_hal_drv:
	.word	_fsymc_level_hal_drv
	.word	.LC16
	.section	.static_blogfile_code.hal_drvbl_cks,"a"
	.align	2
	.type	_fsymf_info_hal_drvbl_cks, @object
	.size	_fsymf_info_hal_drvbl_cks, 8
_fsymf_info_hal_drvbl_cks:
	.word	_fsymf_level_hal_drvbl_cks
	.word	.LC15
	.text
.Letext0:
	.file 3 "/home/hogc/build-tools/sdk/bl/bl_iot_sdk/toolchain/riscv/Linux/lib/gcc/riscv64-unknown-elf/8.3.0/include/stdint-gcc.h"
	.file 4 "/home/hogc/build-tools/sdk/bl/bl_iot_sdk/toolchain/riscv/Linux/lib/gcc/riscv64-unknown-elf/8.3.0/include/stddef.h"
	.file 5 "/home/hogc/build-tools/sdk/bl/bl_iot_sdk/toolchain/riscv/Linux/riscv64-unknown-elf/include/sys/_types.h"
	.file 6 "/home/hogc/build-tools/sdk/bl/bl_iot_sdk/toolchain/riscv/Linux/riscv64-unknown-elf/include/sys/reent.h"
	.file 7 "/home/hogc/build-tools/sdk/bl/bl_iot_sdk/toolchain/riscv/Linux/riscv64-unknown-elf/include/sys/lock.h"
	.file 8 "/home/hogc/build-tools/sdk/bl/bl_iot_sdk/components/utils/include/utils_list.h"
	.file 9 "/home/hogc/build-tools/sdk/bl/bl_iot_sdk/components/hal_drv/bl602_hal/bl_dma.h"
	.file 10 "/home/hogc/build-tools/sdk/bl/bl_iot_sdk/components/stage/blog/blog_type.h"
	.file 11 "/home/hogc/build-tools/sdk/bl/bl_iot_sdk/components/stage/blog/blog.h"
	.file 12 "/home/hogc/build-tools/sdk/bl/bl_iot_sdk/components/bl602/freertos_riscv_ram/config/task.h"
	.file 13 "/home/hogc/build-tools/sdk/bl/bl_iot_sdk/components/utils/include/utils_log.h"
	.file 14 "/home/hogc/build-tools/sdk/bl/bl_iot_sdk/toolchain/riscv/Linux/riscv64-unknown-elf/include/string.h"