	.file	"hal_spi.c"
	.option nopic
	.attribute arch, "rv32i2p0_m2p0_f2p0_c2p0"
	.attribute unaligned_access, 0
	.attribute stack_align, 16
	.text
.Ltext0:
	.cfi_sections	.debug_frame
	.section	.text.fdt32_to_cpu,"ax",@progbits
	.align	1
	.type	fdt32_to_cpu, @function
fdt32_to_cpu:
.LFB29:
	.file 1 "/home/hogc/build-tools/sdk/bl/bl_iot_sdk/components/stage/blfdt/inc/libfdt_env.h"
	.loc 1 121 1
	.cfi_startproc
.LVL0:
	.loc 1 122 5
	.loc 1 122 212 is_stmt 0
	srli	a4,a0,24
	.loc 1 122 12
	slli	a5,a0,24
	or	a5,a5,a4
	.loc 1 122 112
	srli	a4,a0,8
	andi	a4,a4,0xff
	.loc 1 122 163
	srli	a0,a0,16
.LVL1:
	.loc 1 122 117
	slli	a4,a4,16
	.loc 1 122 163
	andi	a0,a0,0xff
	.loc 1 122 12
	or	a5,a5,a4
	.loc 1 122 168
	slli	a0,a0,8
	.loc 1 123 1
	or	a0,a5,a0
	ret
	.cfi_endproc
.LFE29:
	.size	fdt32_to_cpu, .-fdt32_to_cpu
	.section	.text.bl_spi0_dma_int_handler_tx,"ax",@progbits
	.align	1
	.globl	bl_spi0_dma_int_handler_tx
	.type	bl_spi0_dma_int_handler_tx, @function
bl_spi0_dma_int_handler_tx:
.LFB77:
	.file 2 "/home/hogc/build-tools/sdk/bl/bl_iot_sdk/components/hal_drv/bl602_hal/hal_spi.c"
	.loc 2 750 1 is_stmt 1
	.cfi_startproc
	.loc 2 751 5
.LVL2:
	.loc 2 752 5
	.loc 2 750 1 is_stmt 0
	addi	sp,sp,-32
	.cfi_def_cfa_offset 32
	sw	s0,24(sp)
	.cfi_offset 8, -8
	.loc 2 754 13
	lui	s0,%hi(.LANCHOR0)
	addi	s0,s0,%lo(.LANCHOR0)
	lw	a5,0(s0)
	.loc 2 750 1
	sw	ra,28(sp)
	.cfi_offset 1, -4
	.loc 2 752 16
	sw	zero,12(sp)
	.loc 2 754 5 is_stmt 1
	.loc 2 754 8 is_stmt 0
	beq	a5,zero,.L3
	.loc 2 755 9 is_stmt 1
	lbu	a0,9(a5)
	call	bl_dma_int_clear
.LVL3:
	.loc 2 757 9
	.loc 2 757 32 is_stmt 0
	lw	a5,0(s0)
	lw	a0,16(a5)
	.loc 2 757 12
	beq	a0,zero,.L2
	.loc 2 758 13 is_stmt 1
	.loc 2 758 23 is_stmt 0
	addi	a2,sp,12
	li	a1,1
	call	xEventGroupSetBitsFromISR
.LVL4:
	.loc 2 763 9 is_stmt 1
	.loc 2 763 11 is_stmt 0
	beq	a0,zero,.L2
	.loc 2 764 13 is_stmt 1
	.loc 2 764 15 is_stmt 0
	lw	a5,12(sp)
	beq	a5,zero,.L2
	.loc 2 764 44 is_stmt 1 discriminator 1
	call	vTaskSwitchContext
.LVL5:
.L2:
	.loc 2 771 1 is_stmt 0
	lw	ra,28(sp)
	.cfi_remember_state
	.cfi_restore 1
	lw	s0,24(sp)
	.cfi_restore 8
	addi	sp,sp,32
	.cfi_def_cfa_offset 0
	jr	ra
.LVL6:
.L3:
	.cfi_restore_state
	.loc 2 767 9 is_stmt 1 discriminator 1
	.loc 2 767 47 discriminator 1
	.loc 2 767 52 discriminator 1
	.loc 2 767 75 is_stmt 0 discriminator 1
	lui	a5,%hi(_fsymc_level_hal_drv)
	.loc 2 767 55 discriminator 1
	lbu	a4,%lo(_fsymc_level_hal_drv)(a5)
	li	a5,4
	bgtu	a4,a5,.L2
	.loc 2 767 121 discriminator 3
	lui	a4,%hi(_fsymf_level_hal_drvhal_spi)
	.loc 2 767 100 discriminator 3
	lbu	a4,%lo(_fsymf_level_hal_drvhal_spi)(a4)
	bgtu	a4,a5,.L2
.LBB98:
.LBB99:
	.loc 2 767 157 is_stmt 1
.LBB100:
.LBB101:
	.file 3 "/home/hogc/build-tools/sdk/bl/bl_iot_sdk/components/bl602/freertos_riscv_ram/portable/GCC/RISC-V/portmacro.h"
	.loc 3 151 5
	.loc 3 151 31 is_stmt 0
	lui	a5,%hi(TrapNetCounter)
.LBE101:
.LBE100:
	.loc 2 767 157
	lw	a5,%lo(TrapNetCounter)(a5)
	beq	a5,zero,.L7
	.loc 2 767 265
	call	xTaskGetTickCountFromISR
.LVL7:
.L8:
	.loc 2 767 157
	mv	a1,a0
	lui	a3,%hi(.LC0)
	lui	a2,%hi(.LC1)
	lui	a0,%hi(.LC2)
	li	a4,767
	addi	a3,a3,%lo(.LC0)
	addi	a2,a2,%lo(.LC1)
	addi	a0,a0,%lo(.LC2)
	call	bl_printk
.LVL8:
	.loc 2 767 376 is_stmt 1
	.loc 2 770 5
.LBE99:
.LBE98:
	.loc 2 767 376
	.loc 2 770 5
	j	.L2
.L7:
.LBB103:
.LBB102:
	.loc 2 767 294 is_stmt 0
	call	xTaskGetTickCount
.LVL9:
	j	.L8
.LBE102:
.LBE103:
	.cfi_endproc
.LFE77:
	.size	bl_spi0_dma_int_handler_tx, .-bl_spi0_dma_int_handler_tx
	.section	.text.bl_spi0_dma_int_handler_rx,"ax",@progbits
	.align	1
	.globl	bl_spi0_dma_int_handler_rx
	.type	bl_spi0_dma_int_handler_rx, @function
bl_spi0_dma_int_handler_rx:
.LFB78:
	.loc 2 774 1 is_stmt 1
	.cfi_startproc
	.loc 2 775 5
.LVL10:
	.loc 2 776 5
	.loc 2 774 1 is_stmt 0
	addi	sp,sp,-32
	.cfi_def_cfa_offset 32
	sw	s0,24(sp)
	.cfi_offset 8, -8
	.loc 2 778 13
	lui	s0,%hi(.LANCHOR0)
	addi	s0,s0,%lo(.LANCHOR0)
	lw	a5,0(s0)
	.loc 2 774 1
	sw	ra,28(sp)
	.cfi_offset 1, -4
	.loc 2 776 16
	sw	zero,12(sp)
	.loc 2 778 5 is_stmt 1
	.loc 2 778 8 is_stmt 0
	beq	a5,zero,.L17
	.loc 2 779 9 is_stmt 1
	lbu	a0,10(a5)
	call	bl_dma_int_clear
.LVL11:
	.loc 2 781 9
	.loc 2 781 32 is_stmt 0
	lw	a5,0(s0)
	lw	a0,16(a5)
	.loc 2 781 12
	beq	a0,zero,.L16
	.loc 2 782 13 is_stmt 1
	.loc 2 782 23 is_stmt 0
	addi	a2,sp,12
	li	a1,2
	call	xEventGroupSetBitsFromISR
.LVL12:
	.loc 2 787 9 is_stmt 1
	.loc 2 787 11 is_stmt 0
	beq	a0,zero,.L16
	.loc 2 788 13 is_stmt 1
	.loc 2 788 15 is_stmt 0
	lw	a5,12(sp)
	beq	a5,zero,.L16
	.loc 2 788 44 is_stmt 1 discriminator 1
	call	vTaskSwitchContext
.LVL13:
.L16:
	.loc 2 794 1 is_stmt 0
	lw	ra,28(sp)
	.cfi_remember_state
	.cfi_restore 1
	lw	s0,24(sp)
	.cfi_restore 8
	addi	sp,sp,32
	.cfi_def_cfa_offset 0
	jr	ra
.LVL14:
.L17:
	.cfi_restore_state
	.loc 2 791 9 is_stmt 1 discriminator 1
	.loc 2 791 47 discriminator 1
	.loc 2 791 52 discriminator 1
	.loc 2 791 75 is_stmt 0 discriminator 1
	lui	a5,%hi(_fsymc_level_hal_drv)
	.loc 2 791 55 discriminator 1
	lbu	a4,%lo(_fsymc_level_hal_drv)(a5)
	li	a5,4
	bgtu	a4,a5,.L16
	.loc 2 791 121 discriminator 3
	lui	a4,%hi(_fsymf_level_hal_drvhal_spi)
	.loc 2 791 100 discriminator 3
	lbu	a4,%lo(_fsymf_level_hal_drvhal_spi)(a4)
	bgtu	a4,a5,.L16
.LBB108:
.LBB109:
	.loc 2 791 157 is_stmt 1
.LBB110:
.LBB111:
	.loc 3 151 5
	.loc 3 151 31 is_stmt 0
	lui	a5,%hi(TrapNetCounter)
.LBE111:
.LBE110:
	.loc 2 791 157
	lw	a5,%lo(TrapNetCounter)(a5)
	beq	a5,zero,.L21
	.loc 2 791 265
	call	xTaskGetTickCountFromISR
.LVL15:
.L22:
	.loc 2 791 157
	mv	a1,a0
	lui	a3,%hi(.LC0)
	lui	a2,%hi(.LC1)
	lui	a0,%hi(.LC3)
	li	a4,791
	addi	a3,a3,%lo(.LC0)
	addi	a2,a2,%lo(.LC1)
	addi	a0,a0,%lo(.LC3)
	call	bl_printk
.LVL16:
	.loc 2 791 376 is_stmt 1
	.loc 2 793 5
.LBE109:
.LBE108:
	.loc 2 791 376
	.loc 2 793 5
	j	.L16
.L21:
.LBB113:
.LBB112:
	.loc 2 791 294 is_stmt 0
	call	xTaskGetTickCount
.LVL17:
	j	.L22
.LBE112:
.LBE113:
	.cfi_endproc
.LFE78:
	.size	bl_spi0_dma_int_handler_rx, .-bl_spi0_dma_int_handler_rx
	.section	.text.hal_spi_init,"ax",@progbits
	.align	1
	.globl	hal_spi_init
	.type	hal_spi_init, @function
hal_spi_init:
.LFB66:
	.loc 2 343 1 is_stmt 1
	.cfi_startproc
.LVL18:
	.loc 2 344 5
	.loc 2 345 5
	.loc 2 347 5
	.loc 2 343 1 is_stmt 0
	addi	sp,sp,-48
	.cfi_def_cfa_offset 48
	sw	s0,40(sp)
	sw	ra,44(sp)
	sw	s1,36(sp)
	sw	s2,32(sp)
	.cfi_offset 8, -8
	.cfi_offset 1, -4
	.cfi_offset 9, -12
	.cfi_offset 18, -16
	.loc 2 343 1
	mv	s0,a0
	.loc 2 347 8
	bne	a0,zero,.L31
	.loc 2 348 9 is_stmt 1 discriminator 1
	.loc 2 348 47 discriminator 1
	.loc 2 348 52 discriminator 1
	.loc 2 348 75 is_stmt 0 discriminator 1
	lui	a5,%hi(_fsymc_level_hal_drv)
	.loc 2 348 55 discriminator 1
	lbu	a4,%lo(_fsymc_level_hal_drv)(a5)
	li	a5,4
	bgtu	a4,a5,.L31
	.loc 2 348 121 discriminator 3
	lui	a4,%hi(_fsymf_level_hal_drvhal_spi)
	.loc 2 348 100 discriminator 3
	lbu	a4,%lo(_fsymf_level_hal_drvhal_spi)(a4)
	bgtu	a4,a5,.L31
	.loc 2 348 157 is_stmt 1
.LBB124:
.LBB125:
	.loc 3 151 5
	.loc 3 151 31 is_stmt 0
	lui	a5,%hi(TrapNetCounter)
.LBE125:
.LBE124:
	.loc 2 348 157
	lw	a5,%lo(TrapNetCounter)(a5)
	beq	a5,zero,.L32
	.loc 2 348 233 discriminator 7
	call	xTaskGetTickCountFromISR
.LVL19:
.L33:
	.loc 2 348 157 discriminator 10
	lui	a3,%hi(.LC0)
	lui	a2,%hi(.LC1)
	mv	a1,a0
	lui	a0,%hi(.LC4)
	li	a4,348
	addi	a3,a3,%lo(.LC0)
	addi	a2,a2,%lo(.LC1)
	addi	a0,a0,%lo(.LC4)
	call	bl_printk
.LVL20:
.L31:
	.loc 2 348 344 is_stmt 1 discriminator 11
	.loc 2 351 5 discriminator 11
	.loc 2 351 10 is_stmt 0 discriminator 11
	lw	s0,12(s0)
.LVL21:
	.loc 2 352 5 is_stmt 1 discriminator 11
	.loc 2 353 16 is_stmt 0 discriminator 11
	li	a0,-1
	.loc 2 352 8 discriminator 11
	beq	s0,zero,.L30
.LVL22:
	.loc 2 357 9 is_stmt 1 discriminator 1
.LBB126:
.LBB127:
	.loc 2 92 5 discriminator 1
	.loc 2 94 5 discriminator 1
	.loc 2 99 5 discriminator 1
	.loc 2 99 17 is_stmt 0 discriminator 1
	lbu	a5,12(s0)
	.loc 2 104 5 discriminator 1
	li	a2,4
	addi	a1,sp,24
	.loc 2 99 17 discriminator 1
	sb	a5,24(sp)
	.loc 2 100 5 is_stmt 1 discriminator 1
	.loc 2 100 17 is_stmt 0 discriminator 1
	lbu	a5,11(s0)
	.loc 2 104 5 discriminator 1
	li	a0,4
	.loc 2 100 17 discriminator 1
	sb	a5,25(sp)
	.loc 2 101 5 is_stmt 1 discriminator 1
	.loc 2 101 17 is_stmt 0 discriminator 1
	lbu	a5,13(s0)
	sb	a5,26(sp)
	.loc 2 102 5 is_stmt 1 discriminator 1
	.loc 2 102 17 is_stmt 0 discriminator 1
	lbu	a5,14(s0)
	sb	a5,27(sp)
	.loc 2 104 5 is_stmt 1 discriminator 1
	call	GLB_GPIO_Func_Init
.LVL23:
	.loc 2 106 5 discriminator 1
	.loc 2 106 8 is_stmt 0 discriminator 1
	lbu	a5,2(s0)
	.loc 2 107 9 discriminator 1
	li	a0,1
	.loc 2 106 8 discriminator 1
	beq	a5,zero,.L53
	.loc 2 109 9 is_stmt 1
	li	a0,0
.L53:
	call	GLB_Set_SPI_0_ACT_MOD_Sel
.LVL24:
.LBE127:
.LBE126:
	.loc 2 358 9
.LBB128:
.LBB129:
	.loc 2 196 5
	.loc 2 197 5
	.loc 2 198 5
	.loc 2 199 5
	.loc 2 200 5
	.loc 2 201 5
	.loc 2 203 5
	.loc 2 212 34 is_stmt 0
	lw	a5,4(s0)
	li	s1,40001536
	addi	s1,s1,-1536
	divu	s1,s1,a5
	.loc 2 203 12
	lbu	s2,1(s0)
.LVL25:
	.loc 2 212 5 is_stmt 1
	.loc 2 213 5 is_stmt 0
	li	a1,0
	li	a0,1
	call	GLB_Set_SPI_CLK
.LVL26:
	.loc 2 219 5
	addi	a1,sp,16
	mv	a0,s2
	.loc 2 212 13
	andi	s1,s1,0xff
.LVL27:
	.loc 2 213 5 is_stmt 1
	.loc 2 214 5
	.loc 2 214 23 is_stmt 0
	sb	s1,16(sp)
	.loc 2 215 5 is_stmt 1
	.loc 2 215 22 is_stmt 0
	sb	s1,17(sp)
	.loc 2 216 5 is_stmt 1
	.loc 2 216 28 is_stmt 0
	sb	s1,18(sp)
	.loc 2 217 5 is_stmt 1
	.loc 2 217 28 is_stmt 0
	sb	s1,19(sp)
	.loc 2 218 5 is_stmt 1
	.loc 2 218 26 is_stmt 0
	sb	s1,20(sp)
	.loc 2 219 5 is_stmt 1
	call	SPI_ClockConfig
.LVL28:
	.loc 2 222 5
	.loc 2 223 5
	.loc 2 224 5
	.loc 2 222 27 is_stmt 0
	li	a4,256
	sw	a4,24(sp)
	.loc 2 226 22
	sb	zero,30(sp)
	.loc 2 228 5 is_stmt 1
	.loc 2 228 15 is_stmt 0
	lbu	a5,8(s0)
	.loc 2 228 8
	bne	a5,zero,.L37
	.loc 2 229 9 is_stmt 1
	.loc 2 230 9
	.loc 2 229 28 is_stmt 0
	sh	zero,28(sp)
.L38:
	.loc 2 241 361 is_stmt 1
	.loc 2 243 5
	addi	a1,sp,24
	li	a0,0
	call	SPI_Init
.LVL29:
	.loc 2 245 5
	.loc 2 245 8 is_stmt 0
	lbu	a5,2(s0)
	.loc 2 247 9
	li	a1,1
	.loc 2 245 8
	beq	a5,zero,.L55
	.loc 2 249 9 is_stmt 1
	li	a1,0
.L55:
	mv	a0,s2
	call	SPI_Disable
.LVL30:
	.loc 2 252 5
	li	a2,1
	li	a1,6
	mv	a0,s2
	call	SPI_IntMask
.LVL31:
	.loc 2 255 5
	.loc 2 256 5
	.loc 2 257 5
	.loc 2 258 5
	.loc 2 255 29 is_stmt 0
	li	a5,16842752
	addi	a5,a5,257
	.loc 2 259 5
	addi	a1,sp,12
	mv	a0,s2
	.loc 2 255 29
	sw	a5,12(sp)
	.loc 2 259 5 is_stmt 1
	call	SPI_FifoConfig
.LVL32:
	.loc 2 261 5
	call	DMA_Disable
.LVL33:
	.loc 2 262 5
	lbu	a0,9(s0)
	li	a2,1
	li	a1,2
	call	DMA_IntMask
.LVL34:
	.loc 2 263 5
	lbu	a0,9(s0)
	li	a2,0
	li	a1,0
	call	DMA_IntMask
.LVL35:
	.loc 2 264 5
	lbu	a0,9(s0)
	li	a2,0
	li	a1,1
	call	DMA_IntMask
.LVL36:
	.loc 2 266 5
	lbu	a0,10(s0)
	li	a2,1
	li	a1,2
	call	DMA_IntMask
.LVL37:
	.loc 2 267 5
	lbu	a0,10(s0)
	li	a2,0
	li	a1,0
	call	DMA_IntMask
.LVL38:
	.loc 2 268 5
	lbu	a0,10(s0)
	li	a2,0
	li	a1,1
	call	DMA_IntMask
.LVL39:
	.loc 2 270 5
	li	a0,31
	call	bl_irq_enable
.LVL40:
	.loc 2 271 5
	lbu	a0,9(s0)
	lui	a1,%hi(bl_spi0_dma_int_handler_tx)
	li	a3,0
	li	a2,0
	addi	a1,a1,%lo(bl_spi0_dma_int_handler_tx)
	call	bl_dma_irq_register
.LVL41:
	.loc 2 272 5
	lbu	a0,10(s0)
	lui	a1,%hi(bl_spi0_dma_int_handler_rx)
	li	a3,0
	li	a2,0
	addi	a1,a1,%lo(bl_spi0_dma_int_handler_rx)
	call	bl_dma_irq_register
.LVL42:
	.loc 2 274 5
.LBE129:
.LBE128:
	.loc 2 365 12 is_stmt 0
	li	a0,0
.LVL43:
.L30:
	.loc 2 366 1
	lw	ra,44(sp)
	.cfi_remember_state
	.cfi_restore 1
	lw	s0,40(sp)
	.cfi_restore 8
.LVL44:
	lw	s1,36(sp)
	.cfi_restore 9
	lw	s2,32(sp)
	.cfi_restore 18
	addi	sp,sp,48
	.cfi_def_cfa_offset 0
	jr	ra
.LVL45:
.L32:
	.cfi_restore_state
	.loc 2 348 262 discriminator 8
	call	xTaskGetTickCount
.LVL46:
	j	.L33
.LVL47:
.L37:
.LBB133:
.LBB132:
	.loc 2 231 12 is_stmt 1
	.loc 2 231 15 is_stmt 0
	li	a3,1
	bne	a5,a3,.L39
.L54:
	.loc 2 238 28
	sh	a5,28(sp)
	j	.L38
.L39:
	.loc 2 234 12 is_stmt 1
	.loc 2 234 15 is_stmt 0
	li	a3,2
	bne	a5,a3,.L40
	.loc 2 235 9 is_stmt 1
	.loc 2 236 9
	.loc 2 235 28 is_stmt 0
	sh	a4,28(sp)
	j	.L38
.L40:
	.loc 2 237 12 is_stmt 1
	.loc 2 237 15 is_stmt 0
	li	a4,3
	bne	a5,a4,.L41
	.loc 2 238 9 is_stmt 1
	.loc 2 239 9
	.loc 2 238 28 is_stmt 0
	li	a5,257
	j	.L54
.L41:
	.loc 2 241 9 is_stmt 1
	.loc 2 241 47
	.loc 2 241 52
	.loc 2 241 75 is_stmt 0
	lui	a5,%hi(_fsymc_level_hal_drv)
	.loc 2 241 55
	lbu	a4,%lo(_fsymc_level_hal_drv)(a5)
	li	a5,4
	bgtu	a4,a5,.L38
	.loc 2 241 121
	lui	a4,%hi(_fsymf_level_hal_drvhal_spi)
	.loc 2 241 100
	lbu	a4,%lo(_fsymf_level_hal_drvhal_spi)(a4)
	bgtu	a4,a5,.L38
	.loc 2 241 157 is_stmt 1
.LBB130:
.LBB131:
	.loc 3 151 5
	.loc 3 151 31 is_stmt 0
	lui	a5,%hi(TrapNetCounter)
.LBE131:
.LBE130:
	.loc 2 241 157
	lw	a5,%lo(TrapNetCounter)(a5)
	beq	a5,zero,.L42
	.loc 2 241 250
	call	xTaskGetTickCountFromISR
.LVL48:
.L43:
	.loc 2 241 157
	mv	a1,a0
	lui	a3,%hi(.LC0)
	lui	a2,%hi(.LC1)
	lui	a0,%hi(.LC5)
	li	a4,241
	addi	a3,a3,%lo(.LC0)
	addi	a2,a2,%lo(.LC1)
	addi	a0,a0,%lo(.LC5)
	call	bl_printk
.LVL49:
	j	.L38
.L42:
	.loc 2 241 279
	call	xTaskGetTickCount
.LVL50:
	j	.L43
.LBE132:
.LBE133:
	.cfi_endproc
.LFE66:
	.size	hal_spi_init, .-hal_spi_init
	.section	.text.hal_spi_finalize,"ax",@progbits
	.align	1
	.globl	hal_spi_finalize
	.type	hal_spi_finalize, @function
hal_spi_finalize:
.LFB67:
	.loc 2 369 1 is_stmt 1
	.cfi_startproc
.LVL51:
	.loc 2 370 5
	.loc 2 370 43
	.loc 2 370 48
	.loc 2 370 70 is_stmt 0
	lui	a5,%hi(_fsymc_level_hal_drv)
	.loc 2 370 51
	lbu	a4,%lo(_fsymc_level_hal_drv)(a5)
	li	a5,2
	bgtu	a4,a5,.L61
	.loc 2 370 115 discriminator 3
	lui	a4,%hi(_fsymf_level_hal_drvhal_spi)
	.loc 2 370 95 discriminator 3
	lbu	a4,%lo(_fsymf_level_hal_drvhal_spi)(a4)
	bgtu	a4,a5,.L61
	.loc 2 370 151 is_stmt 1
.LBB134:
.LBB135:
	.loc 3 151 5
	.loc 3 151 31 is_stmt 0
	lui	a5,%hi(TrapNetCounter)
.LBE135:
.LBE134:
	.loc 2 370 151
	lw	a5,%lo(TrapNetCounter)(a5)
	.loc 2 369 1
	addi	sp,sp,-16
	.cfi_def_cfa_offset 16
	sw	ra,12(sp)
	.cfi_offset 1, -4
	.loc 2 370 151
	beq	a5,zero,.L58
	.loc 2 370 249 discriminator 7
	call	xTaskGetTickCountFromISR
.LVL52:
.L59:
	.loc 2 370 151 discriminator 10
	mv	a1,a0
	lui	a3,%hi(.LC0)
	lui	a2,%hi(.LC6)
	lui	a0,%hi(.LC7)
	addi	a0,a0,%lo(.LC7)
	li	a4,370
	addi	a3,a3,%lo(.LC0)
	addi	a2,a2,%lo(.LC6)
	call	bl_printk
.LVL53:
	.loc 2 370 360 is_stmt 1 discriminator 10
	.loc 2 371 5 discriminator 10
	.loc 2 372 1 is_stmt 0 discriminator 10
	lw	ra,12(sp)
	.cfi_remember_state
	.cfi_restore 1
	li	a0,0
	addi	sp,sp,16
	.cfi_def_cfa_offset 0
	jr	ra
.LVL54:
.L58:
	.cfi_restore_state
	.loc 2 370 278 discriminator 8
	call	xTaskGetTickCount
.LVL55:
	j	.L59
.LVL56:
.L61:
	.cfi_def_cfa_offset 0
	.cfi_restore 1
	.loc 2 370 360 is_stmt 1
	.loc 2 371 5
	.loc 2 372 1 is_stmt 0
	li	a0,0
.LVL57:
	ret
	.cfi_endproc
.LFE67:
	.size	hal_spi_finalize, .-hal_spi_finalize
	.section	.text.hal_spi_send,"ax",@progbits
	.align	1
	.globl	hal_spi_send
	.type	hal_spi_send, @function
hal_spi_send:
.LFB68:
	.loc 2 375 1 is_stmt 1
	.cfi_startproc
.LVL58:
	.loc 2 376 5
	.loc 2 376 43
	.loc 2 376 48
	.loc 2 376 70 is_stmt 0
	lui	a5,%hi(_fsymc_level_hal_drv)
	.loc 2 376 51
	lbu	a4,%lo(_fsymc_level_hal_drv)(a5)
	li	a5,2
	bgtu	a4,a5,.L69
	.loc 2 376 115 discriminator 3
	lui	a4,%hi(_fsymf_level_hal_drvhal_spi)
	.loc 2 376 95 discriminator 3
	lbu	a4,%lo(_fsymf_level_hal_drvhal_spi)(a4)
	bgtu	a4,a5,.L69
	.loc 2 376 151 is_stmt 1
.LBB136:
.LBB137:
	.loc 3 151 5
	.loc 3 151 31 is_stmt 0
	lui	a5,%hi(TrapNetCounter)
.LBE137:
.LBE136:
	.loc 2 376 151
	lw	a5,%lo(TrapNetCounter)(a5)
	.loc 2 375 1
	addi	sp,sp,-16
	.cfi_def_cfa_offset 16
	sw	ra,12(sp)
	.cfi_offset 1, -4
	.loc 2 376 151
	beq	a5,zero,.L66
	.loc 2 376 245 discriminator 7
	call	xTaskGetTickCountFromISR
.LVL59:
.L67:
	.loc 2 376 151 discriminator 10
	mv	a1,a0
	lui	a3,%hi(.LC0)
	lui	a2,%hi(.LC6)
	lui	a0,%hi(.LC8)
	addi	a0,a0,%lo(.LC8)
	li	a4,376
	addi	a3,a3,%lo(.LC0)
	addi	a2,a2,%lo(.LC6)
	call	bl_printk
.LVL60:
	.loc 2 376 356 is_stmt 1 discriminator 10
	.loc 2 377 5 discriminator 10
	.loc 2 378 1 is_stmt 0 discriminator 10
	lw	ra,12(sp)
	.cfi_remember_state
	.cfi_restore 1
	li	a0,0
	addi	sp,sp,16
	.cfi_def_cfa_offset 0
	jr	ra
.LVL61:
.L66:
	.cfi_restore_state
	.loc 2 376 274 discriminator 8
	call	xTaskGetTickCount
.LVL62:
	j	.L67
.LVL63:
.L69:
	.cfi_def_cfa_offset 0
	.cfi_restore 1
	.loc 2 376 356 is_stmt 1
	.loc 2 377 5
	.loc 2 378 1 is_stmt 0
	li	a0,0
.LVL64:
	ret
	.cfi_endproc
.LFE68:
	.size	hal_spi_send, .-hal_spi_send
	.section	.text.hal_spi_recv,"ax",@progbits
	.align	1
	.globl	hal_spi_recv
	.type	hal_spi_recv, @function
hal_spi_recv:
.LFB69:
	.loc 2 381 1 is_stmt 1
	.cfi_startproc
.LVL65:
	.loc 2 382 5
	.loc 2 382 43
	.loc 2 382 48
	.loc 2 382 70 is_stmt 0
	lui	a5,%hi(_fsymc_level_hal_drv)
	.loc 2 382 51
	lbu	a4,%lo(_fsymc_level_hal_drv)(a5)
	li	a5,2
	bgtu	a4,a5,.L77
	.loc 2 382 115 discriminator 3
	lui	a4,%hi(_fsymf_level_hal_drvhal_spi)
	.loc 2 382 95 discriminator 3
	lbu	a4,%lo(_fsymf_level_hal_drvhal_spi)(a4)
	bgtu	a4,a5,.L77
	.loc 2 382 151 is_stmt 1
.LBB138:
.LBB139:
	.loc 3 151 5
	.loc 3 151 31 is_stmt 0
	lui	a5,%hi(TrapNetCounter)
.LBE139:
.LBE138:
	.loc 2 382 151
	lw	a5,%lo(TrapNetCounter)(a5)
	.loc 2 381 1
	addi	sp,sp,-16
	.cfi_def_cfa_offset 16
	sw	ra,12(sp)
	.cfi_offset 1, -4
	.loc 2 382 151
	beq	a5,zero,.L74
	.loc 2 382 245 discriminator 7
	call	xTaskGetTickCountFromISR
.LVL66:
.L75:
	.loc 2 382 151 discriminator 10
	mv	a1,a0
	lui	a3,%hi(.LC0)
	lui	a2,%hi(.LC6)
	lui	a0,%hi(.LC9)
	addi	a0,a0,%lo(.LC9)
	li	a4,382
	addi	a3,a3,%lo(.LC0)
	addi	a2,a2,%lo(.LC6)
	call	bl_printk
.LVL67:
	.loc 2 382 356 is_stmt 1 discriminator 10
	.loc 2 383 5 discriminator 10
	.loc 2 384 1 is_stmt 0 discriminator 10
	lw	ra,12(sp)
	.cfi_remember_state
	.cfi_restore 1
	li	a0,0
	addi	sp,sp,16
	.cfi_def_cfa_offset 0
	jr	ra
.LVL68:
.L74:
	.cfi_restore_state
	.loc 2 382 274 discriminator 8
	call	xTaskGetTickCount
.LVL69:
	j	.L75
.LVL70:
.L77:
	.cfi_def_cfa_offset 0
	.cfi_restore 1
	.loc 2 382 356 is_stmt 1
	.loc 2 383 5
	.loc 2 384 1 is_stmt 0
	li	a0,0
.LVL71:
	ret
	.cfi_endproc
.LFE69:
	.size	hal_spi_recv, .-hal_spi_recv
	.section	.text.hal_spi_send_recv,"ax",@progbits
	.align	1
	.globl	hal_spi_send_recv
	.type	hal_spi_send_recv, @function
hal_spi_send_recv:
.LFB70:
	.loc 2 387 1 is_stmt 1
	.cfi_startproc
.LVL72:
	.loc 2 388 5
	.loc 2 388 43
	.loc 2 388 48
	.loc 2 388 70 is_stmt 0
	lui	a5,%hi(_fsymc_level_hal_drv)
	.loc 2 388 51
	lbu	a4,%lo(_fsymc_level_hal_drv)(a5)
.LVL73:
	li	a5,2
	bgtu	a4,a5,.L85
	.loc 2 388 115 discriminator 3
	lui	a4,%hi(_fsymf_level_hal_drvhal_spi)
	.loc 2 388 95 discriminator 3
	lbu	a4,%lo(_fsymf_level_hal_drvhal_spi)(a4)
	bgtu	a4,a5,.L85
	.loc 2 388 151 is_stmt 1
.LBB140:
.LBB141:
	.loc 3 151 5
	.loc 3 151 31 is_stmt 0
	lui	a5,%hi(TrapNetCounter)
.LBE141:
.LBE140:
	.loc 2 388 151
	lw	a5,%lo(TrapNetCounter)(a5)
	.loc 2 387 1
	addi	sp,sp,-16
	.cfi_def_cfa_offset 16
	sw	ra,12(sp)
	.cfi_offset 1, -4
	.loc 2 388 151
	beq	a5,zero,.L82
	.loc 2 388 250 discriminator 7
	call	xTaskGetTickCountFromISR
.LVL74:
.L83:
	.loc 2 388 151 discriminator 10
	mv	a1,a0
	lui	a3,%hi(.LC0)
	lui	a2,%hi(.LC6)
	lui	a0,%hi(.LC10)
	addi	a0,a0,%lo(.LC10)
	li	a4,388
	addi	a3,a3,%lo(.LC0)
	addi	a2,a2,%lo(.LC6)
	call	bl_printk
.LVL75:
	.loc 2 388 361 is_stmt 1 discriminator 10
	.loc 2 389 5 discriminator 10
	.loc 2 390 1 is_stmt 0 discriminator 10
	lw	ra,12(sp)
	.cfi_remember_state
	.cfi_restore 1
	li	a0,0
	addi	sp,sp,16
	.cfi_def_cfa_offset 0
	jr	ra
.LVL76:
.L82:
	.cfi_restore_state
	.loc 2 388 279 discriminator 8
	call	xTaskGetTickCount
.LVL77:
	j	.L83
.LVL78:
.L85:
	.cfi_def_cfa_offset 0
	.cfi_restore 1
	.loc 2 388 361 is_stmt 1
	.loc 2 389 5
	.loc 2 390 1 is_stmt 0
	li	a0,0
.LVL79:
	ret
	.cfi_endproc
.LFE70:
	.size	hal_spi_send_recv, .-hal_spi_send_recv
	.section	.text.hal_spi_set_rwmode,"ax",@progbits
	.align	1
	.globl	hal_spi_set_rwmode
	.type	hal_spi_set_rwmode, @function
hal_spi_set_rwmode:
.LFB71:
	.loc 2 393 1 is_stmt 1
	.cfi_startproc
.LVL80:
	.loc 2 394 5
	.loc 2 399 5
	.loc 2 393 1 is_stmt 0
	addi	sp,sp,-16
	.cfi_def_cfa_offset 16
	sw	ra,12(sp)
	.cfi_offset 1, -4
	.loc 2 399 8
	li	a4,3
	bleu	a1,a4,.L89
	.loc 2 400 9 is_stmt 1 discriminator 1
	.loc 2 400 47 discriminator 1
	.loc 2 400 52 discriminator 1
	.loc 2 400 75 is_stmt 0 discriminator 1
	lui	a5,%hi(_fsymc_level_hal_drv)
	.loc 2 400 55 discriminator 1
	lbu	a4,%lo(_fsymc_level_hal_drv)(a5)
	li	a5,4
	.loc 2 401 16 discriminator 1
	li	a0,-1
.LVL81:
	.loc 2 400 55 discriminator 1
	bgtu	a4,a5,.L88
	.loc 2 400 121 discriminator 3
	lui	a4,%hi(_fsymf_level_hal_drvhal_spi)
	.loc 2 400 100 discriminator 3
	lbu	a4,%lo(_fsymf_level_hal_drvhal_spi)(a4)
	bgtu	a4,a5,.L88
	.loc 2 400 157 is_stmt 1
.LBB142:
.LBB143:
	.loc 3 151 5
	.loc 3 151 31 is_stmt 0
	lui	a5,%hi(TrapNetCounter)
.LBE143:
.LBE142:
	.loc 2 400 157
	lw	a5,%lo(TrapNetCounter)(a5)
	beq	a5,zero,.L91
	.loc 2 400 237 discriminator 7
	call	xTaskGetTickCountFromISR
.LVL82:
.L92:
	.loc 2 400 157 discriminator 10
	mv	a1,a0
	lui	a3,%hi(.LC0)
	lui	a2,%hi(.LC1)
	lui	a0,%hi(.LC11)
	addi	a0,a0,%lo(.LC11)
	li	a4,400
	addi	a3,a3,%lo(.LC0)
	addi	a2,a2,%lo(.LC1)
	call	bl_printk
.LVL83:
	.loc 2 401 16 discriminator 10
	li	a0,-1
.L88:
	.loc 2 410 1
	lw	ra,12(sp)
	.cfi_remember_state
	.cfi_restore 1
	addi	sp,sp,16
	.cfi_def_cfa_offset 0
	jr	ra
.LVL84:
.L91:
	.cfi_restore_state
	.loc 2 400 266 discriminator 8
	call	xTaskGetTickCount
.LVL85:
	j	.L92
.LVL86:
.L89:
	.loc 2 404 5 is_stmt 1
	.loc 2 405 24 is_stmt 0
	lbu	a3,0(a0)
	.loc 2 405 37
	li	a2,20
	.loc 2 404 10
	lw	a4,12(a0)
.LVL87:
	.loc 2 405 5 is_stmt 1
	.loc 2 405 37 is_stmt 0
	mul	a3,a3,a2
	andi	a1,a1,0xff
.LVL88:
	add	a4,a4,a3
.LVL89:
	sb	a1,2(a4)
.LVL90:
	.loc 2 406 5 is_stmt 1
	.loc 2 406 26 is_stmt 0
	sb	a1,4(a0)
	.loc 2 408 5 is_stmt 1
	call	hal_spi_init
.LVL91:
	.loc 2 409 5
	.loc 2 409 12 is_stmt 0
	li	a0,0
	j	.L88
	.cfi_endproc
.LFE71:
	.size	hal_spi_set_rwmode, .-hal_spi_set_rwmode
	.section	.text.hal_spi_set_rwspeed,"ax",@progbits
	.align	1
	.globl	hal_spi_set_rwspeed
	.type	hal_spi_set_rwspeed, @function
hal_spi_set_rwspeed:
.LFB72:
	.loc 2 413 1 is_stmt 1
	.cfi_startproc
.LVL92:
	.loc 2 414 5
	.loc 2 415 5
	.loc 2 416 5
	.loc 2 417 5
	.loc 2 422 5
	.loc 2 413 1 is_stmt 0
	addi	sp,sp,-32
	.cfi_def_cfa_offset 32
	sw	ra,28(sp)
	sw	s0,24(sp)
	sw	s1,20(sp)
	sw	s2,16(sp)
	sw	s3,12(sp)
	.cfi_offset 1, -4
	.cfi_offset 8, -8
	.cfi_offset 9, -12
	.cfi_offset 18, -16
	.cfi_offset 19, -20
	.loc 2 422 8
	lw	a5,8(a0)
	bne	a5,a1,.L116
	.loc 2 423 9 is_stmt 1 discriminator 1
	.loc 2 423 47 discriminator 1
	.loc 2 423 52 discriminator 1
	.loc 2 423 74 is_stmt 0 discriminator 1
	lui	a5,%hi(_fsymc_level_hal_drv)
	.loc 2 423 55 discriminator 1
	lbu	a4,%lo(_fsymc_level_hal_drv)(a5)
	li	a5,2
	.loc 2 424 16 discriminator 1
	li	a0,0
.LVL93:
	.loc 2 423 55 discriminator 1
	bgtu	a4,a5,.L96
	.loc 2 423 119 discriminator 3
	lui	a4,%hi(_fsymf_level_hal_drvhal_spi)
	.loc 2 423 99 discriminator 3
	lbu	a4,%lo(_fsymf_level_hal_drvhal_spi)(a4)
	bgtu	a4,a5,.L96
	.loc 2 423 155 is_stmt 1
.LBB144:
.LBB145:
	.loc 3 151 5
	.loc 3 151 31 is_stmt 0
	lui	a5,%hi(TrapNetCounter)
.LBE145:
.LBE144:
	.loc 2 423 155
	lw	a5,%lo(TrapNetCounter)(a5)
	beq	a5,zero,.L99
	.loc 2 423 240 discriminator 7
	call	xTaskGetTickCountFromISR
.LVL94:
.L100:
	.loc 2 423 155 discriminator 10
	lui	a3,%hi(.LC0)
	lui	a2,%hi(.LC6)
	mv	a1,a0
	lui	a0,%hi(.LC12)
	li	a4,423
	addi	a3,a3,%lo(.LC0)
	addi	a2,a2,%lo(.LC6)
	addi	a0,a0,%lo(.LC12)
	call	bl_printk
.LVL95:
.L129:
	.loc 2 461 5 is_stmt 1 discriminator 11
	.loc 2 461 12 is_stmt 0 discriminator 11
	li	a0,0
	j	.L96
.LVL96:
.L99:
	.loc 2 423 269 discriminator 8
	call	xTaskGetTickCount
.LVL97:
	j	.L100
.LVL98:
.L116:
	.loc 2 428 31
	li	a4,40001536
	mv	s1,a1
	mv	s3,a0
	.loc 2 417 14
	li	s0,0
	.loc 2 416 13
	li	a3,0
	.loc 2 427 12
	li	a5,0
	.loc 2 428 31
	addi	a4,a4,-1536
	.loc 2 427 5
	li	a1,256
.LVL99:
.L97:
	.loc 2 428 9 is_stmt 1
	.loc 2 428 34 is_stmt 0
	addi	a2,a5,1
	.loc 2 428 31
	div	s2,a4,a2
	.loc 2 428 12
	beq	s2,s1,.L119
	.loc 2 431 16 is_stmt 1
	.loc 2 431 19 is_stmt 0
	bleu	s2,s1,.L102
.LVL100:
.L101:
	mv	a5,a2
	.loc 2 427 5 discriminator 1
	bne	a2,a1,.L97
	.loc 2 438 5 is_stmt 1
	.loc 2 438 8 is_stmt 0
	bne	a3,zero,.L104
	.loc 2 443 13 is_stmt 1 discriminator 1
	.loc 2 443 51 discriminator 1
	.loc 2 443 56 discriminator 1
	.loc 2 443 79 is_stmt 0 discriminator 1
	lui	a5,%hi(_fsymc_level_hal_drv)
	.loc 2 443 59 discriminator 1
	lbu	a4,%lo(_fsymc_level_hal_drv)(a5)
	li	a5,4
	.loc 2 441 20 discriminator 1
	li	a0,-1
.LVL101:
	.loc 2 443 59 discriminator 1
	bgtu	a4,a5,.L96
	.loc 2 443 125 discriminator 3
	lui	a4,%hi(_fsymf_level_hal_drvhal_spi)
	.loc 2 443 104 discriminator 3
	lbu	a4,%lo(_fsymf_level_hal_drvhal_spi)(a4)
	bgtu	a4,a5,.L96
	.loc 2 443 161 is_stmt 1
.LBB146:
.LBB147:
	.loc 3 151 5
	.loc 3 151 31 is_stmt 0
	lui	a5,%hi(TrapNetCounter)
.LBE147:
.LBE146:
	.loc 2 443 161
	lw	a5,%lo(TrapNetCounter)(a5)
	beq	a5,zero,.L108
	.loc 2 443 274 discriminator 7
	call	xTaskGetTickCountFromISR
.LVL102:
.L109:
	.loc 2 443 161 discriminator 10
	lui	a3,%hi(.LC0)
	lui	a2,%hi(.LC1)
	mv	a1,a0
	lui	a0,%hi(.LC14)
	li	a4,443
	addi	a3,a3,%lo(.LC0)
	addi	a2,a2,%lo(.LC1)
	addi	a0,a0,%lo(.LC14)
	j	.L130
.LVL103:
.L119:
	mv	s0,s1
.LVL104:
	.loc 2 430 23
	li	a3,1
.LVL105:
	j	.L101
.LVL106:
.L102:
	.loc 2 438 5 is_stmt 1
	.loc 2 438 8 is_stmt 0
	bne	a3,zero,.L104
	.loc 2 439 9 is_stmt 1
	lui	a3,%hi(_fsymc_level_hal_drv)
.LVL107:
	lbu	a3,%lo(_fsymc_level_hal_drv)(a3)
	.loc 2 439 12 is_stmt 0
	bne	a5,zero,.L105
	.loc 2 440 13 is_stmt 1 discriminator 1
	.loc 2 440 51 discriminator 1
	.loc 2 440 56 discriminator 1
	.loc 2 440 59 is_stmt 0 discriminator 1
	li	a5,4
.LVL108:
	.loc 2 441 20 discriminator 1
	li	a0,-1
.LVL109:
	.loc 2 440 59 discriminator 1
	bgtu	a3,a5,.L96
	.loc 2 440 125 discriminator 3
	lui	a4,%hi(_fsymf_level_hal_drvhal_spi)
	.loc 2 440 104 discriminator 3
	lbu	a4,%lo(_fsymf_level_hal_drvhal_spi)(a4)
	bgtu	a4,a5,.L96
	.loc 2 440 161 is_stmt 1
.LBB148:
.LBB149:
	.loc 3 151 5
	.loc 3 151 31 is_stmt 0
	lui	a5,%hi(TrapNetCounter)
.LBE149:
.LBE148:
	.loc 2 440 161
	lw	a5,%lo(TrapNetCounter)(a5)
	beq	a5,zero,.L106
	.loc 2 440 277 discriminator 7
	call	xTaskGetTickCountFromISR
.LVL110:
.L107:
	.loc 2 440 161 discriminator 10
	lui	a3,%hi(.LC0)
	lui	a2,%hi(.LC1)
	mv	a1,a0
	lui	a0,%hi(.LC13)
	li	a4,440
	addi	a3,a3,%lo(.LC0)
	addi	a2,a2,%lo(.LC1)
	addi	a0,a0,%lo(.LC13)
.L130:
	.loc 2 443 161 discriminator 10
	call	bl_printk
.LVL111:
	.loc 2 444 20 discriminator 10
	li	a0,-1
.LVL112:
.L96:
	.loc 2 462 1
	lw	ra,28(sp)
	.cfi_remember_state
	.cfi_restore 1
	lw	s0,24(sp)
	.cfi_restore 8
	lw	s1,20(sp)
	.cfi_restore 9
	lw	s2,16(sp)
	.cfi_restore 18
	lw	s3,12(sp)
	.cfi_restore 19
	addi	sp,sp,32
	.cfi_def_cfa_offset 0
	jr	ra
.LVL113:
.L106:
	.cfi_restore_state
	.loc 2 440 306 discriminator 8
	call	xTaskGetTickCount
.LVL114:
	j	.L107
.LVL115:
.L108:
	.loc 2 443 303 discriminator 8
	call	xTaskGetTickCount
.LVL116:
	j	.L109
.LVL117:
.L105:
	.loc 2 442 16 is_stmt 1
	.loc 2 446 13
	.loc 2 446 65 is_stmt 0
	div	s0,a4,a5
.LVL118:
	.loc 2 446 36
	sub	a5,s2,s1
.LVL119:
	.loc 2 446 54
	sub	a4,s1,s0
	.loc 2 446 16
	bleu	a5,a4,.L110
	.loc 2 447 17 is_stmt 1
.LVL120:
	.loc 2 448 17
	.loc 2 448 55
	.loc 2 448 60
	.loc 2 448 63 is_stmt 0
	li	a5,2
	.loc 2 431 37
	mv	s0,s2
	.loc 2 448 63
	bgtu	a3,a5,.L104
.LVL121:
	.loc 2 448 127 discriminator 3
	lui	a4,%hi(_fsymf_level_hal_drvhal_spi)
	.loc 2 448 107 discriminator 3
	lbu	a4,%lo(_fsymf_level_hal_drvhal_spi)(a4)
	bgtu	a4,a5,.L104
	.loc 2 448 163 is_stmt 1
.LBB150:
.LBB151:
	.loc 3 151 5
	.loc 3 151 31 is_stmt 0
	lui	a5,%hi(TrapNetCounter)
.LBE151:
.LBE150:
	.loc 2 448 163
	lw	a5,%lo(TrapNetCounter)(a5)
	beq	a5,zero,.L111
	.loc 2 448 278 discriminator 7
	call	xTaskGetTickCountFromISR
.LVL122:
.L112:
	.loc 2 448 163 discriminator 10
	mv	a1,a0
	lui	a3,%hi(.LC0)
	lui	a2,%hi(.LC6)
	lui	a0,%hi(.LC15)
	mv	a6,s2
	mv	a5,s1
	li	a4,448
	addi	a3,a3,%lo(.LC0)
	addi	a2,a2,%lo(.LC6)
	addi	a0,a0,%lo(.LC15)
	call	bl_printk
.LVL123:
	.loc 2 431 37 discriminator 10
	mv	s0,s2
.LVL124:
.L104:
	.loc 2 451 408 is_stmt 1 discriminator 11
	.loc 2 456 5 discriminator 11
	.loc 2 457 24 is_stmt 0 discriminator 11
	lbu	a4,0(s3)
	.loc 2 457 37 discriminator 11
	li	a3,20
	.loc 2 456 10 discriminator 11
	lw	a5,12(s3)
.LVL125:
	.loc 2 457 5 is_stmt 1 discriminator 11
	.loc 2 457 37 is_stmt 0 discriminator 11
	mul	a4,a4,a3
	.loc 2 460 5 discriminator 11
	mv	a0,s3
	.loc 2 457 37 discriminator 11
	add	a5,a5,a4
.LVL126:
	sw	s0,4(a5)
.LVL127:
	.loc 2 458 5 is_stmt 1 discriminator 11
	.loc 2 458 26 is_stmt 0 discriminator 11
	sw	s0,8(s3)
	.loc 2 460 5 is_stmt 1 discriminator 11
	call	hal_spi_init
.LVL128:
	j	.L129
.LVL129:
.L111:
	.loc 2 448 307 is_stmt 0 discriminator 8
	call	xTaskGetTickCount
.LVL130:
	j	.L112
.LVL131:
.L110:
	.loc 2 450 17 is_stmt 1
	.loc 2 451 17
	.loc 2 451 55
	.loc 2 451 60
	.loc 2 451 63 is_stmt 0
	li	a5,2
	bgtu	a3,a5,.L104
	.loc 2 451 127 discriminator 3
	lui	a4,%hi(_fsymf_level_hal_drvhal_spi)
	.loc 2 451 107 discriminator 3
	lbu	a4,%lo(_fsymf_level_hal_drvhal_spi)(a4)
	bgtu	a4,a5,.L104
	.loc 2 451 163 is_stmt 1
.LBB152:
.LBB153:
	.loc 3 151 5
	.loc 3 151 31 is_stmt 0
	lui	a5,%hi(TrapNetCounter)
.LBE153:
.LBE152:
	.loc 2 451 163
	lw	a5,%lo(TrapNetCounter)(a5)
	beq	a5,zero,.L113
	.loc 2 451 278 discriminator 7
	call	xTaskGetTickCountFromISR
.LVL132:
.L114:
	.loc 2 451 163 discriminator 10
	mv	a1,a0
	lui	a3,%hi(.LC0)
	lui	a2,%hi(.LC6)
	lui	a0,%hi(.LC15)
	mv	a6,s0
	mv	a5,s1
	li	a4,451
	addi	a3,a3,%lo(.LC0)
	addi	a2,a2,%lo(.LC6)
	addi	a0,a0,%lo(.LC15)
	call	bl_printk
.LVL133:
	j	.L104
.LVL134:
.L113:
	.loc 2 451 307 discriminator 8
	call	xTaskGetTickCount
.LVL135:
	j	.L114
	.cfi_endproc
.LFE72:
	.size	hal_spi_set_rwspeed, .-hal_spi_set_rwspeed
	.section	.text.hal_spi_transfer,"ax",@progbits
	.align	1
	.globl	hal_spi_transfer
	.type	hal_spi_transfer, @function
hal_spi_transfer:
.LFB73:
	.loc 2 465 1 is_stmt 1
	.cfi_startproc
.LVL136:
	.loc 2 466 5
	.loc 2 467 5
	.loc 2 468 5
	.loc 2 470 5
	.loc 2 465 1 is_stmt 0
	addi	sp,sp,-96
	.cfi_def_cfa_offset 96
	sw	ra,92(sp)
	sw	s0,88(sp)
	sw	s1,84(sp)
	sw	s2,80(sp)
	sw	s3,76(sp)
	sw	s4,72(sp)
	sw	s5,68(sp)
	sw	s6,64(sp)
	sw	s7,60(sp)
	sw	s8,56(sp)
	sw	s9,52(sp)
	sw	s10,48(sp)
	sw	s11,44(sp)
	.cfi_offset 1, -4
	.cfi_offset 8, -8
	.cfi_offset 9, -12
	.cfi_offset 18, -16
	.cfi_offset 19, -20
	.cfi_offset 20, -24
	.cfi_offset 21, -28
	.cfi_offset 22, -32
	.cfi_offset 23, -36
	.cfi_offset 24, -40
	.cfi_offset 25, -44
	.cfi_offset 26, -48
	.cfi_offset 27, -52
	.loc 2 470 8
	beq	a0,zero,.L132
	.loc 2 470 20 discriminator 1
	bne	a1,zero,.L133
.L132:
	.loc 2 471 9 is_stmt 1 discriminator 1
	.loc 2 471 47 discriminator 1
	.loc 2 471 52 discriminator 1
	.loc 2 471 75 is_stmt 0 discriminator 1
	lui	a5,%hi(_fsymc_level_hal_drv)
	.loc 2 471 55 discriminator 1
	lbu	a4,%lo(_fsymc_level_hal_drv)(a5)
	li	a5,4
	.loc 2 472 16 discriminator 1
	li	a0,-1
.LVL137:
	.loc 2 471 55 discriminator 1
	bgtu	a4,a5,.L131
	.loc 2 471 121 discriminator 3
	lui	a4,%hi(_fsymf_level_hal_drvhal_spi)
	.loc 2 471 100 discriminator 3
	lbu	a4,%lo(_fsymf_level_hal_drvhal_spi)(a4)
	bgtu	a4,a5,.L131
	.loc 2 471 157 is_stmt 1
.LBB172:
.LBB173:
	.loc 3 151 5
	.loc 3 151 31 is_stmt 0
	lui	a5,%hi(TrapNetCounter)
.LBE173:
.LBE172:
	.loc 2 471 157
	lw	a5,%lo(TrapNetCounter)(a5)
	beq	a5,zero,.L135
	.loc 2 471 233 discriminator 7
	call	xTaskGetTickCountFromISR
.LVL138:
.L136:
	.loc 2 471 157 discriminator 10
	lui	a3,%hi(.LC0)
	lui	a2,%hi(.LC1)
	mv	a1,a0
	lui	a0,%hi(.LC4)
	li	a4,471
	addi	a3,a3,%lo(.LC0)
	addi	a2,a2,%lo(.LC1)
	addi	a0,a0,%lo(.LC4)
.L186:
	.loc 2 477 157 discriminator 10
	call	bl_printk
.LVL139:
	.loc 2 478 16 discriminator 10
	li	a0,-1
.L131:
	.loc 2 502 1
	lw	ra,92(sp)
	.cfi_remember_state
	.cfi_restore 1
	lw	s0,88(sp)
	.cfi_restore 8
	lw	s1,84(sp)
	.cfi_restore 9
	lw	s2,80(sp)
	.cfi_restore 18
	lw	s3,76(sp)
	.cfi_restore 19
	lw	s4,72(sp)
	.cfi_restore 20
	lw	s5,68(sp)
	.cfi_restore 21
	lw	s6,64(sp)
	.cfi_restore 22
	lw	s7,60(sp)
	.cfi_restore 23
	lw	s8,56(sp)
	.cfi_restore 24
	lw	s9,52(sp)
	.cfi_restore 25
	lw	s10,48(sp)
	.cfi_restore 26
	lw	s11,44(sp)
	.cfi_restore 27
	addi	sp,sp,96
	.cfi_def_cfa_offset 0
	jr	ra
.LVL140:
.L135:
	.cfi_restore_state
	.loc 2 471 262 discriminator 8
	call	xTaskGetTickCount
.LVL141:
	j	.L136
.LVL142:
.L133:
	.loc 2 475 15
	lw	s7,12(a0)
	mv	s8,a0
	.loc 2 475 5 is_stmt 1
.LVL143:
	.loc 2 476 5
	.loc 2 476 8 is_stmt 0
	beq	s7,zero,.L137
	.loc 2 490 5
	slli	a5,a2,16
	srli	a5,a5,16
	mv	s1,a1
	.loc 2 490 12
	li	s3,0
	.loc 2 490 5
	sw	a5,12(sp)
.LBB174:
.LBB175:
	.loc 2 295 18
	li	s9,4096
	.loc 2 316 75
	lui	s5,%hi(_fsymc_level_hal_drv)
.LVL144:
.L138:
.LBE175:
.LBE174:
	.loc 2 490 5 discriminator 1
	lw	a5,12(sp)
	bgtu	a5,s3,.L168
	.loc 2 501 12
	li	a0,0
	j	.L131
.LVL145:
.L137:
	.loc 2 477 9 is_stmt 1 discriminator 1
	.loc 2 477 47 discriminator 1
	.loc 2 477 52 discriminator 1
	.loc 2 477 75 is_stmt 0 discriminator 1
	lui	a5,%hi(_fsymc_level_hal_drv)
	.loc 2 477 55 discriminator 1
	lbu	a4,%lo(_fsymc_level_hal_drv)(a5)
	li	a5,4
	.loc 2 472 16 discriminator 1
	li	a0,-1
.LVL146:
	.loc 2 477 55 discriminator 1
	bgtu	a4,a5,.L131
	.loc 2 477 121 discriminator 3
	lui	a4,%hi(_fsymf_level_hal_drvhal_spi)
	.loc 2 477 100 discriminator 3
	lbu	a4,%lo(_fsymf_level_hal_drvhal_spi)(a4)
	bgtu	a4,a5,.L131
	.loc 2 477 157 is_stmt 1
.LBB201:
.LBB202:
	.loc 3 151 5
	.loc 3 151 31 is_stmt 0
	lui	a5,%hi(TrapNetCounter)
.LBE202:
.LBE201:
	.loc 2 477 157
	lw	a5,%lo(TrapNetCounter)(a5)
	beq	a5,zero,.L139
	.loc 2 477 240 discriminator 7
	call	xTaskGetTickCountFromISR
.LVL147:
.L140:
	.loc 2 477 157 discriminator 10
	lui	a3,%hi(.LC0)
	lui	a2,%hi(.LC1)
	mv	a1,a0
	lui	a0,%hi(.LC16)
	li	a4,477
	addi	a3,a3,%lo(.LC0)
	addi	a2,a2,%lo(.LC1)
	addi	a0,a0,%lo(.LC16)
	j	.L186
.LVL148:
.L139:
	.loc 2 477 269 discriminator 8
	call	xTaskGetTickCount
.LVL149:
	j	.L140
.LVL150:
.L168:
	.loc 2 494 9 is_stmt 1 discriminator 3
	.loc 2 494 52 is_stmt 0 discriminator 3
	lbu	s2,0(s8)
.LBB203:
.LBB196:
	.loc 2 300 5 discriminator 3
	li	s0,20
.LBE196:
.LBE203:
	.loc 2 495 37 discriminator 3
	lw	a5,0(s1)
.LBB204:
.LBB197:
	.loc 2 300 5 discriminator 3
	mul	s0,s2,s0
	li	a1,3
.LBE197:
.LBE204:
	.loc 2 495 37 discriminator 3
	sw	a5,4(sp)
	.loc 2 495 66 discriminator 3
	lw	a5,4(s1)
	.loc 2 494 9 discriminator 3
	lw	s11,8(s1)
.LBB205:
.LBB198:
	.loc 2 297 24 discriminator 3
	sb	zero,30(sp)
.LBE198:
.LBE205:
	.loc 2 495 66 discriminator 3
	sw	a5,8(sp)
.LVL151:
.LBB206:
.LBB199:
	.loc 2 279 5 is_stmt 1 discriminator 3
	.loc 2 280 5 discriminator 3
	.loc 2 281 5 discriminator 3
	.loc 2 282 5 discriminator 3
	.loc 2 283 5 discriminator 3
	.loc 2 284 5 discriminator 3
	.loc 2 286 5 discriminator 3
	.loc 2 291 5 discriminator 3
	.loc 2 292 5 discriminator 3
	.loc 2 293 5 discriminator 3
	.loc 2 291 18 is_stmt 0 discriminator 3
	li	a5,1
.LVL152:
	sh	a5,24(sp)
	.loc 2 293 24 discriminator 3
	li	a5,11
	.loc 2 300 5 discriminator 3
	add	s0,s7,s0
.LVL153:
	lw	a0,16(s0)
	.loc 2 293 24 discriminator 3
	sb	a5,26(sp)
	.loc 2 295 5 is_stmt 1 discriminator 3
	.loc 2 296 5 discriminator 3
	.loc 2 297 5 discriminator 3
	.loc 2 300 5 discriminator 3
	.loc 2 295 18 is_stmt 0 discriminator 3
	addi	a5,s9,-1534
	sh	a5,28(sp)
	.loc 2 300 5 discriminator 3
	call	xEventGroupClearBits
.LVL154:
	.loc 2 302 5 is_stmt 1 discriminator 3
	lbu	a0,9(s0)
	call	DMA_Channel_Disable
.LVL155:
	.loc 2 303 5 discriminator 3
	lbu	a0,10(s0)
	call	DMA_Channel_Disable
.LVL156:
	.loc 2 304 5 discriminator 3
	lbu	a0,9(s0)
	call	bl_dma_int_clear
.LVL157:
	.loc 2 305 5 discriminator 3
	lbu	a0,10(s0)
	call	bl_dma_int_clear
.LVL158:
	.loc 2 306 5 discriminator 3
	call	DMA_Enable
.LVL159:
	.loc 2 308 5 discriminator 3
	.loc 2 308 8 is_stmt 0 discriminator 3
	lbu	a5,2(s0)
	lbu	a0,1(s0)
	.loc 2 309 9 discriminator 3
	li	a1,1
	.loc 2 308 8 discriminator 3
	beq	a5,zero,.L185
	.loc 2 311 9 is_stmt 1
	li	a1,0
.L185:
.LBB176:
.LBB177:
	.loc 2 123 11 is_stmt 0
	srli	s10,s11,11
	.loc 2 124 15
	andi	s11,s11,2047
.LVL160:
.LBE177:
.LBE176:
	.loc 2 311 9
	call	SPI_Enable
.LVL161:
	.loc 2 314 5 is_stmt 1
.LBB187:
.LBB182:
	.loc 2 117 5
	.loc 2 118 5
	.loc 2 119 5
	.loc 2 120 5
	.loc 2 123 5
	.loc 2 124 5
	.loc 2 126 5
	.loc 2 126 8 is_stmt 0
	beq	s11,zero,.L143
	.loc 2 127 9 is_stmt 1
	.loc 2 127 15 is_stmt 0
	addi	s10,s10,1
.LVL162:
.L143:
	.loc 2 130 5 is_stmt 1
	.loc 2 131 5
	.loc 2 132 5
	.loc 2 133 5
	.loc 2 134 5
	.loc 2 135 5
	.loc 2 137 5
	.loc 2 137 55 is_stmt 0
	slli	s6,s10,4
	.loc 2 137 16
	mv	a0,s6
	call	pvPortMalloc
.LVL163:
	mv	s4,a0
.LVL164:
	.loc 2 138 5 is_stmt 1
	.loc 2 138 8 is_stmt 0
	bne	a0,zero,.L144
	.loc 2 139 9 is_stmt 1
	.loc 2 139 47
	.loc 2 139 52
	.loc 2 139 55 is_stmt 0
	lbu	a4,%lo(_fsymc_level_hal_drv)(s5)
	li	a5,4
	bgtu	a4,a5,.L167
	.loc 2 139 121
	lui	a4,%hi(_fsymf_level_hal_drvhal_spi)
	.loc 2 139 100
	lbu	a4,%lo(_fsymf_level_hal_drvhal_spi)(a4)
	bleu	a4,a5,.L146
.LVL165:
.L167:
.LBE182:
.LBE187:
.LBE199:
.LBE206:
	.loc 2 490 28 discriminator 3
	addi	s3,s3,1
.LVL166:
	slli	s3,s3,16
	srli	s3,s3,16
.LVL167:
	addi	s1,s1,28
	j	.L138
.LVL168:
.L146:
.LBB207:
.LBB200:
.LBB188:
.LBB183:
	.loc 2 139 157 is_stmt 1
.LBB178:
.LBB179:
	.loc 3 151 5
	.loc 3 151 31 is_stmt 0
	lui	a5,%hi(TrapNetCounter)
.LBE179:
.LBE178:
	.loc 2 139 157
	lw	a5,%lo(TrapNetCounter)(a5)
	beq	a5,zero,.L148
	.loc 2 139 244
	call	xTaskGetTickCountFromISR
.LVL169:
.L149:
	.loc 2 139 157
	lui	a3,%hi(.LC0)
	lui	a2,%hi(.LC1)
	mv	a1,a0
	lui	a0,%hi(.LC17)
	li	a4,139
	addi	a3,a3,%lo(.LC0)
	addi	a2,a2,%lo(.LC1)
	addi	a0,a0,%lo(.LC17)
	call	bl_printk
.LVL170:
.LBE183:
.LBE188:
	.loc 2 315 5 is_stmt 1
.L150:
	.loc 2 316 9
	.loc 2 316 47
	.loc 2 316 52
	.loc 2 316 55 is_stmt 0
	lbu	a4,%lo(_fsymc_level_hal_drv)(s5)
	li	a5,4
	bgtu	a4,a5,.L167
	.loc 2 316 121
	lui	a4,%hi(_fsymf_level_hal_drvhal_spi)
	.loc 2 316 100
	lbu	a4,%lo(_fsymf_level_hal_drvhal_spi)(a4)
	bgtu	a4,a5,.L167
	.loc 2 316 157 is_stmt 1
.LBB189:
.LBB190:
	.loc 3 151 5
	.loc 3 151 31 is_stmt 0
	lui	a5,%hi(TrapNetCounter)
.LBE190:
.LBE189:
	.loc 2 316 157
	lw	a5,%lo(TrapNetCounter)(a5)
	beq	a5,zero,.L162
	.loc 2 316 242
	call	xTaskGetTickCountFromISR
.LVL171:
.L163:
	.loc 2 316 157
	mv	a1,a0
	lui	a3,%hi(.LC0)
	lui	a2,%hi(.LC1)
	lui	a0,%hi(.LC19)
	li	a4,316
	addi	a3,a3,%lo(.LC0)
	addi	a2,a2,%lo(.LC1)
	addi	a0,a0,%lo(.LC19)
	call	bl_printk
.LVL172:
	j	.L167
.LVL173:
.L148:
.LBB191:
.LBB184:
	.loc 2 139 273
	call	xTaskGetTickCount
.LVL174:
	j	.L149
.LVL175:
.L144:
	.loc 2 144 5 is_stmt 1
	.loc 2 144 16 is_stmt 0
	mv	a0,s6
.LVL176:
	call	pvPortMalloc
.LVL177:
	mv	s6,a0
.LVL178:
	.loc 2 145 5 is_stmt 1
	.loc 2 145 8 is_stmt 0
	beq	a0,zero,.L151
	.loc 2 157 38
	li	a5,4096
	addi	a5,a5,-1
	and	a1,s11,a5
	.loc 2 174 31
	li	t1,-2113925120
	li	t3,-2147483648
	.loc 2 178 34
	li	a5,1073782784
	.loc 2 145 8
	mv	a4,a0
	mv	a3,s4
	.loc 2 152 12
	li	a2,0
	addi	t5,s10,-1
	.loc 2 154 34
	addi	t6,s9,-2048
	.loc 2 174 31
	li	t0,-4096
	addi	t1,t1,-1
	li	a7,67108864
	xori	t3,t3,-1
	.loc 2 178 34
	addi	t2,a5,652
	.loc 2 180 31
	li	ra,134217728
.LVL179:
.L152:
	.loc 2 152 5
	bne	s10,a2,.L158
.LVL180:
.LBE184:
.LBE191:
	.loc 2 315 5 is_stmt 1
	.loc 2 321 5
	lbu	a0,9(s0)
	addi	a1,sp,24
	call	DMA_LLI_Init
.LVL181:
	.loc 2 322 5
	lbu	a0,10(s0)
	addi	a1,sp,28
	call	DMA_LLI_Init
.LVL182:
	.loc 2 323 5
	lbu	a0,9(s0)
	mv	a1,s4
	call	DMA_LLI_Update
.LVL183:
	.loc 2 324 5
	lbu	a0,10(s0)
	mv	a1,s6
	call	DMA_LLI_Update
.LVL184:
	.loc 2 325 5
	lbu	a0,9(s0)
	call	DMA_Channel_Enable
.LVL185:
	.loc 2 326 5
	lbu	a0,10(s0)
	call	DMA_Channel_Enable
.LVL186:
	.loc 2 328 5
	.loc 2 328 14 is_stmt 0
	li	a5,20
	mul	s2,s2,a5
	li	a4,-1
	li	a3,1
	li	a2,1
	li	a1,3
	add	s2,s7,s2
	lw	a0,16(s2)
	call	xEventGroupWaitBits
.LVL187:
	.loc 2 334 5 is_stmt 1
	.loc 2 334 17 is_stmt 0
	andi	a0,a0,3
.LVL188:
	.loc 2 334 8
	li	a5,3
	bne	a0,a5,.L160
	.loc 2 335 9 is_stmt 1
	.loc 2 335 47
	.loc 2 335 52
	.loc 2 335 55 is_stmt 0
	lbu	a4,%lo(_fsymc_level_hal_drv)(s5)
	li	a5,2
	bgtu	a4,a5,.L160
	.loc 2 335 119
	lui	a4,%hi(_fsymf_level_hal_drvhal_spi)
	.loc 2 335 99
	lbu	a4,%lo(_fsymf_level_hal_drvhal_spi)(a4)
	bgtu	a4,a5,.L160
	.loc 2 335 155 is_stmt 1
.LBB192:
.LBB193:
	.loc 3 151 5
	.loc 3 151 31 is_stmt 0
	lui	a5,%hi(TrapNetCounter)
.LBE193:
.LBE192:
	.loc 2 335 155
	lw	a5,%lo(TrapNetCounter)(a5)
	beq	a5,zero,.L165
	.loc 2 335 244
	call	xTaskGetTickCountFromISR
.LVL189:
.L166:
	.loc 2 335 155
	lui	a3,%hi(.LC0)
	lui	a2,%hi(.LC6)
	mv	a1,a0
	lui	a0,%hi(.LC20)
	li	a4,335
	addi	a3,a3,%lo(.LC0)
	addi	a2,a2,%lo(.LC6)
	addi	a0,a0,%lo(.LC20)
	call	bl_printk
.LVL190:
.L160:
	.loc 2 335 355 is_stmt 1
	.loc 2 338 5
	mv	a0,s4
	call	vPortFree
.LVL191:
	.loc 2 339 5
	mv	a0,s6
	call	vPortFree
.LVL192:
	j	.L167
.LVL193:
.L151:
.LBB194:
.LBB185:
	.loc 2 146 9
	.loc 2 146 47
	.loc 2 146 52
	.loc 2 146 55 is_stmt 0
	lbu	a4,%lo(_fsymc_level_hal_drv)(s5)
	li	a5,4
	bgtu	a4,a5,.L153
	.loc 2 146 121
	lui	a4,%hi(_fsymf_level_hal_drvhal_spi)
	.loc 2 146 100
	lbu	a4,%lo(_fsymf_level_hal_drvhal_spi)(a4)
	bgtu	a4,a5,.L153
	.loc 2 146 157 is_stmt 1
.LBB180:
.LBB181:
	.loc 3 151 5
	.loc 3 151 31 is_stmt 0
	lui	a5,%hi(TrapNetCounter)
.LBE181:
.LBE180:
	.loc 2 146 157
	lw	a5,%lo(TrapNetCounter)(a5)
	beq	a5,zero,.L154
	.loc 2 146 239
	call	xTaskGetTickCountFromISR
.LVL194:
.L155:
	.loc 2 146 157
	lui	a3,%hi(.LC0)
	lui	a2,%hi(.LC1)
	mv	a1,a0
	lui	a0,%hi(.LC18)
	li	a4,146
	addi	a3,a3,%lo(.LC0)
	addi	a2,a2,%lo(.LC1)
	addi	a0,a0,%lo(.LC18)
	call	bl_printk
.LVL195:
.L153:
	.loc 2 146 350 is_stmt 1
	.loc 2 147 9
	mv	a0,s4
	call	vPortFree
.LVL196:
	.loc 2 149 9
.LBE185:
.LBE194:
	.loc 2 315 5
	j	.L150
.LVL197:
.L154:
.LBB195:
.LBB186:
	.loc 2 146 268 is_stmt 0
	call	xTaskGetTickCount
.LVL198:
	j	.L155
.LVL199:
.L158:
	.loc 2 153 9 is_stmt 1
	.loc 2 154 34 is_stmt 0
	mv	a6,t6
	.loc 2 153 12
	beq	s11,zero,.L156
	.loc 2 156 13 is_stmt 1
	.loc 2 156 16 is_stmt 0
	bne	a2,t5,.L156
	.loc 2 157 17 is_stmt 1
	.loc 2 157 38 is_stmt 0
	mv	a6,a1
.LVL200:
.L156:
	.loc 2 163 9 is_stmt 1
	.loc 2 164 9
	.loc 2 166 9
	.loc 2 172 34 is_stmt 0
	lw	a5,4(sp)
	slli	t4,a2,11
	.loc 2 166 12
	sub	a0,a2,t5
	.loc 2 172 34
	add	a5,a5,t4
	sw	a5,0(a3)
	.loc 2 173 35
	li	a5,1073782784
	addi	a5,a5,648
	sw	a5,4(a3)
	.loc 2 174 31
	li	a5,4096
	addi	a5,a5,-1
	and	a6,a6,a5
.LVL201:
	lw	a5,12(a3)
	.loc 2 166 12
	seqz	a0,a0
.LVL202:
	.loc 2 172 9 is_stmt 1
	.loc 2 173 9
	.loc 2 174 9
	.loc 2 174 31 is_stmt 0
	slli	a0,a0,31
.LVL203:
	and	a5,a5,t0
	or	a5,a5,a6
	and	a5,a5,t1
	or	a5,a5,a7
	and	a5,a5,t3
	or	a5,a5,a0
	sw	a5,12(a3)
	.loc 2 176 9 is_stmt 1
.LVL204:
	.loc 2 177 9
	.loc 2 178 9
	.loc 2 179 35 is_stmt 0
	lw	a5,8(sp)
	.loc 2 178 34
	sw	t2,0(a4)
	.loc 2 179 9 is_stmt 1
	.loc 2 179 35 is_stmt 0
	add	t4,a5,t4
	.loc 2 180 31
	lw	a5,12(a4)
	.loc 2 179 35
	sw	t4,4(a4)
	.loc 2 180 9 is_stmt 1
	.loc 2 180 31 is_stmt 0
	and	a5,a5,t0
	or	a5,a5,a6
	and	a5,a5,t1
	or	a5,a5,ra
	and	a5,a5,t3
	or	a0,a5,a0
	sw	a0,12(a4)
	.loc 2 182 9 is_stmt 1
	.loc 2 182 12 is_stmt 0
	beq	a2,zero,.L157
	.loc 2 183 13 is_stmt 1
	.loc 2 183 37 is_stmt 0
	sw	a3,-8(a3)
	.loc 2 184 13 is_stmt 1
	.loc 2 184 37 is_stmt 0
	sw	a4,-8(a4)
.L157:
	.loc 2 187 9 is_stmt 1
	.loc 2 187 31 is_stmt 0
	sw	zero,8(a3)
	.loc 2 188 9 is_stmt 1
	.loc 2 188 31 is_stmt 0
	sw	zero,8(a4)
	.loc 2 152 29
	addi	a2,a2,1
.LVL205:
	addi	a3,a3,16
	addi	a4,a4,16
	j	.L152
.LVL206:
.L162:
.LBE186:
.LBE195:
	.loc 2 316 271
	call	xTaskGetTickCount
.LVL207:
	j	.L163
.LVL208:
.L165:
	.loc 2 335 273
	call	xTaskGetTickCount
.LVL209:
	j	.L166
.LBE200:
.LBE207:
	.cfi_endproc
.LFE73:
	.size	hal_spi_transfer, .-hal_spi_transfer
	.section	.text.vfs_spi_init_fullname,"ax",@progbits
	.align	1
	.globl	vfs_spi_init_fullname
	.type	vfs_spi_init_fullname, @function
vfs_spi_init_fullname:
.LFB74:
	.loc 2 507 1 is_stmt 1
	.cfi_startproc
.LVL210:
	.loc 2 508 5
	.loc 2 509 5
	.loc 2 511 5
	.loc 2 507 1 is_stmt 0
	addi	sp,sp,-112
	.cfi_def_cfa_offset 112
	sw	s8,72(sp)
	.cfi_offset 24, -40
	mv	s8,a5
	lbu	a5,112(sp)
.LVL211:
	sw	s1,100(sp)
	sw	s3,92(sp)
	sw	s4,88(sp)
	sw	s5,84(sp)
	sw	s7,76(sp)
	sw	s9,68(sp)
	sw	s10,64(sp)
	sw	s11,60(sp)
	sw	a5,44(sp)
	sw	ra,108(sp)
	sw	s0,104(sp)
	sw	s2,96(sp)
	sw	s6,80(sp)
	.cfi_offset 9, -12
	.cfi_offset 19, -20
	.cfi_offset 20, -24
	.cfi_offset 21, -28
	.cfi_offset 23, -36
	.cfi_offset 25, -44
	.cfi_offset 26, -48
	.cfi_offset 27, -52
	.cfi_offset 1, -4
	.cfi_offset 8, -8
	.cfi_offset 18, -16
	.cfi_offset 22, -32
	.loc 2 507 1
	sw	a0,36(sp)
	mv	s1,a1
	mv	s4,a2
	mv	s7,a3
	mv	s5,a4
	mv	s9,a6
	sw	a7,40(sp)
	lbu	s10,116(sp)
	lbu	s11,120(sp)
	.loc 2 511 11
	call	strlen
.LVL212:
	.loc 2 512 5 is_stmt 1
	.loc 2 512 8 is_stmt 0
	li	a5,31
	lui	s3,%hi(_fsymc_level_hal_drv)
	ble	a0,a5,.L188
	.loc 2 513 9 is_stmt 1 discriminator 1
	.loc 2 513 47 discriminator 1
	.loc 2 513 52 discriminator 1
	.loc 2 513 55 is_stmt 0 discriminator 1
	lbu	a4,%lo(_fsymc_level_hal_drv)(s3)
	li	a5,4
	.loc 2 514 16 discriminator 1
	li	s3,-22
	.loc 2 513 55 discriminator 1
	bgtu	a4,a5,.L187
	.loc 2 513 121 discriminator 3
	lui	a4,%hi(_fsymf_level_hal_drvhal_spi)
	.loc 2 513 100 discriminator 3
	lbu	a4,%lo(_fsymf_level_hal_drvhal_spi)(a4)
	bgtu	a4,a5,.L187
	.loc 2 513 157 is_stmt 1
.LBB208:
.LBB209:
	.loc 3 151 5
	.loc 3 151 31 is_stmt 0
	lui	a5,%hi(TrapNetCounter)
.LBE209:
.LBE208:
	.loc 2 513 157
	lw	a5,%lo(TrapNetCounter)(a5)
	beq	a5,zero,.L190
	.loc 2 513 233 discriminator 7
	call	xTaskGetTickCountFromISR
.LVL213:
.L191:
	.loc 2 513 157 discriminator 10
	mv	a1,a0
	lui	a3,%hi(.LC0)
	lui	a2,%hi(.LC1)
	lui	a0,%hi(.LC4)
	li	a4,513
	addi	a3,a3,%lo(.LC0)
	addi	a2,a2,%lo(.LC1)
	addi	a0,a0,%lo(.LC4)
	call	bl_printk
.LVL214:
	.loc 2 514 16 discriminator 10
	li	s3,-22
.L187:
	.loc 2 571 1
	lw	ra,108(sp)
	.cfi_remember_state
	.cfi_restore 1
	lw	s0,104(sp)
	.cfi_restore 8
	mv	a0,s3
	lw	s1,100(sp)
	.cfi_restore 9
	lw	s2,96(sp)
	.cfi_restore 18
	lw	s3,92(sp)
	.cfi_restore 19
	lw	s4,88(sp)
	.cfi_restore 20
	lw	s5,84(sp)
	.cfi_restore 21
.LVL215:
	lw	s6,80(sp)
	.cfi_restore 22
	lw	s7,76(sp)
	.cfi_restore 23
	lw	s8,72(sp)
	.cfi_restore 24
	lw	s9,68(sp)
	.cfi_restore 25
	lw	s10,64(sp)
	.cfi_restore 26
	lw	s11,60(sp)
	.cfi_restore 27
	addi	sp,sp,112
	.cfi_def_cfa_offset 0
.LVL216:
	jr	ra
.LVL217:
.L190:
	.cfi_restore_state
	.loc 2 513 262 discriminator 8
	call	xTaskGetTickCount
.LVL218:
	j	.L191
.LVL219:
.L188:
	.loc 2 518 5 is_stmt 1
	.loc 2 518 13 is_stmt 0
	lui	s0,%hi(.LANCHOR0)
	addi	s2,s0,%lo(.LANCHOR0)
	.loc 2 518 8
	lw	a5,0(s2)
	addi	s0,s0,%lo(.LANCHOR0)
	bne	a5,zero,.L192
	.loc 2 519 9 is_stmt 1
	.loc 2 519 39 is_stmt 0
	li	a0,20
.LVL220:
	call	aos_malloc
.LVL221:
	.loc 2 519 19
	sw	a0,0(s2)
	.loc 2 520 9 is_stmt 1
	.loc 2 520 12 is_stmt 0
	bne	a0,zero,.L193
	.loc 2 521 13 is_stmt 1 discriminator 1
	.loc 2 521 51 discriminator 1
	.loc 2 521 56 discriminator 1
	.loc 2 521 59 is_stmt 0 discriminator 1
	lbu	a4,%lo(_fsymc_level_hal_drv)(s3)
	li	a5,4
	.loc 2 522 20 discriminator 1
	li	s3,-12
	.loc 2 521 59 discriminator 1
	bgtu	a4,a5,.L187
	.loc 2 521 125 discriminator 3
	lui	a4,%hi(_fsymf_level_hal_drvhal_spi)
	.loc 2 521 104 discriminator 3
	lbu	a4,%lo(_fsymf_level_hal_drvhal_spi)(a4)
	bgtu	a4,a5,.L187
	.loc 2 521 161 is_stmt 1
.LBB210:
.LBB211:
	.loc 3 151 5
	.loc 3 151 31 is_stmt 0
	lui	a5,%hi(TrapNetCounter)
.LBE211:
.LBE210:
	.loc 2 521 161
	lw	a5,%lo(TrapNetCounter)(a5)
	beq	a5,zero,.L194
	.loc 2 521 237 discriminator 7
	call	xTaskGetTickCountFromISR
.LVL222:
.L195:
	.loc 2 521 161 discriminator 10
	lui	a3,%hi(.LC0)
	lui	a2,%hi(.LC1)
	mv	a1,a0
	lui	a0,%hi(.LC21)
	li	a4,521
	addi	a3,a3,%lo(.LC0)
	addi	a2,a2,%lo(.LC1)
	addi	a0,a0,%lo(.LC21)
	call	bl_printk
.LVL223:
.L215:
	.loc 2 532 9 is_stmt 1
	.loc 2 532 16 is_stmt 0
	li	s3,-12
	j	.L187
.L194:
	.loc 2 521 266 discriminator 8
	call	xTaskGetTickCount
.LVL224:
	j	.L195
.L193:
	.loc 2 524 9 is_stmt 1
	li	a2,20
	li	a1,0
	call	memset
.LVL225:
.L192:
	.loc 2 527 5
	.loc 2 527 14 is_stmt 0
	lw	s2,0(s0)
	.loc 2 527 50
	call	xEventGroupCreate
.LVL226:
	.loc 2 527 48
	li	a5,20
	mul	a5,s1,a5
	.loc 2 528 51
	lbu	a4,%lo(_fsymc_level_hal_drv)(s3)
	.loc 2 527 48
	add	s2,s2,a5
	sw	a0,16(s2)
	.loc 2 528 5 is_stmt 1
	.loc 2 528 43
	.loc 2 528 48
	.loc 2 528 51 is_stmt 0
	li	a5,2
	bgtu	a4,a5,.L196
	.loc 2 528 115 discriminator 2
	lui	a4,%hi(_fsymf_level_hal_drvhal_spi)
	.loc 2 528 95 discriminator 2
	lbu	a4,%lo(_fsymf_level_hal_drvhal_spi)(a4)
	bgtu	a4,a5,.L196
	.loc 2 528 151 is_stmt 1
.LBB212:
.LBB213:
	.loc 3 151 5
	.loc 3 151 31 is_stmt 0
	lui	a5,%hi(TrapNetCounter)
.LBE213:
.LBE212:
	.loc 2 528 151
	lw	a5,%lo(TrapNetCounter)(a5)
	beq	a5,zero,.L197
	.loc 2 528 248 discriminator 4
	call	xTaskGetTickCountFromISR
.LVL227:
.L198:
	.loc 2 528 45 discriminator 7
	li	a4,20
	mul	a4,s1,a4
	lw	a5,0(s0)
	.loc 2 528 151 discriminator 7
	lui	a3,%hi(.LC0)
	lui	a2,%hi(.LC6)
	mv	a1,a0
	lui	a0,%hi(.LC22)
	addi	a3,a3,%lo(.LC0)
	addi	a2,a2,%lo(.LC6)
	addi	a0,a0,%lo(.LC22)
	.loc 2 528 45 discriminator 7
	add	a5,a5,a4
	.loc 2 528 151 discriminator 7
	lw	a6,16(a5)
	li	a4,529
	mv	a5,s1
	call	bl_printk
.LVL228:
.L196:
	.loc 2 529 62 is_stmt 1
	.loc 2 530 5
	.loc 2 530 38 is_stmt 0
	li	a5,20
	mul	s6,s1,a5
	.loc 2 530 25
	lw	a0,0(s0)
	.loc 2 530 38
	add	a4,a0,s6
	.loc 2 530 8
	lw	a4,16(a4)
	bne	a4,zero,.L199
.L216:
	.loc 2 531 9 is_stmt 1
	call	aos_free
.LVL229:
	j	.L215
.L197:
	.loc 2 528 277 is_stmt 0 discriminator 5
	call	xTaskGetTickCount
.LVL230:
	j	.L198
.L199:
	.loc 2 535 5 is_stmt 1
	.loc 2 535 23 is_stmt 0
	li	a0,16
	call	aos_malloc
.LVL231:
	mv	s2,a0
.LVL232:
	.loc 2 536 5 is_stmt 1
	.loc 2 536 8 is_stmt 0
	bne	a0,zero,.L200
	.loc 2 537 9 is_stmt 1 discriminator 1
	.loc 2 537 47 discriminator 1
	.loc 2 537 52 discriminator 1
	.loc 2 537 55 is_stmt 0 discriminator 1
	lbu	a4,%lo(_fsymc_level_hal_drv)(s3)
	li	a5,4
	bgtu	a4,a5,.L201
	.loc 2 537 121 discriminator 3
	lui	a4,%hi(_fsymf_level_hal_drvhal_spi)
	.loc 2 537 100 discriminator 3
	lbu	a4,%lo(_fsymf_level_hal_drvhal_spi)(a4)
	bgtu	a4,a5,.L201
	.loc 2 537 157 is_stmt 1
.LBB214:
.LBB215:
	.loc 3 151 5
	.loc 3 151 31 is_stmt 0
	lui	a5,%hi(TrapNetCounter)
.LBE215:
.LBE214:
	.loc 2 537 157
	lw	a5,%lo(TrapNetCounter)(a5)
	beq	a5,zero,.L202
	.loc 2 537 233 discriminator 7
	call	xTaskGetTickCountFromISR
.LVL233:
.L203:
	.loc 2 537 157 discriminator 10
	lui	a3,%hi(.LC0)
	lui	a2,%hi(.LC1)
	mv	a1,a0
	lui	a0,%hi(.LC21)
	li	a4,537
	addi	a3,a3,%lo(.LC0)
	addi	a2,a2,%lo(.LC1)
	addi	a0,a0,%lo(.LC21)
	call	bl_printk
.LVL234:
.L201:
	.loc 2 537 344 is_stmt 1 discriminator 11
	.loc 2 538 9 discriminator 11
	li	a4,20
	mul	s1,s1,a4
	lw	a5,0(s0)
	add	s1,a5,s1
	lw	a0,16(s1)
	call	vEventGroupDelete
.LVL235:
	.loc 2 539 9 discriminator 11
	lw	a0,0(s0)
	j	.L216
.LVL236:
.L202:
	.loc 2 537 262 is_stmt 0 discriminator 8
	call	xTaskGetTickCount
.LVL237:
	j	.L203
.LVL238:
.L200:
	.loc 2 543 5 is_stmt 1
	li	a2,16
	li	a1,0
	call	memset
.LVL239:
	.loc 2 544 5
	.loc 2 544 15 is_stmt 0
	sb	s1,0(s2)
	.loc 2 545 5 is_stmt 1
	.loc 2 547 14 is_stmt 0
	lw	a4,0(s0)
	.loc 2 545 22
	sb	s4,4(s2)
	.loc 2 546 5 is_stmt 1
	.loc 2 546 22 is_stmt 0
	sw	s5,8(s2)
	.loc 2 547 5 is_stmt 1
	.loc 2 547 35 is_stmt 0
	add	a4,a4,s6
	sb	s1,1(a4)
	.loc 2 548 5 is_stmt 1
	.loc 2 548 14 is_stmt 0
	lw	a4,0(s0)
	.loc 2 553 36
	lw	a3,40(sp)
	.loc 2 548 33
	add	a4,a4,s6
	sb	s4,2(a4)
	.loc 2 549 5 is_stmt 1
	.loc 2 549 14 is_stmt 0
	lw	a4,0(s0)
	add	a5,a4,s6
	.loc 2 553 36
	sb	a3,11(a5)
	.loc 2 554 35
	lw	a3,44(sp)
	.loc 2 549 40
	sb	s7,8(a5)
	.loc 2 550 5 is_stmt 1
	.loc 2 550 33 is_stmt 0
	sw	s5,4(a5)
	.loc 2 551 5 is_stmt 1
	.loc 2 551 38 is_stmt 0
	sb	s8,9(a5)
	.loc 2 552 5 is_stmt 1
	.loc 2 552 38 is_stmt 0
	sb	s9,10(a5)
	.loc 2 553 5 is_stmt 1
	.loc 2 554 5
	.loc 2 554 35 is_stmt 0
	sb	a3,12(a5)
	.loc 2 555 5 is_stmt 1
	.loc 2 555 37 is_stmt 0
	sb	s10,13(a5)
	.loc 2 556 5 is_stmt 1
	.loc 2 556 37 is_stmt 0
	sb	s11,14(a5)
	.loc 2 557 5 is_stmt 1
	.loc 2 557 15 is_stmt 0
	sw	a4,12(s2)
	.loc 2 559 5 is_stmt 1
	.loc 2 559 43
	.loc 2 559 48
	.loc 2 559 51 is_stmt 0
	lbu	a4,%lo(_fsymc_level_hal_drv)(s3)
	li	a5,2
	bgtu	a4,a5,.L204
	.loc 2 559 115 discriminator 2
	lui	a4,%hi(_fsymf_level_hal_drvhal_spi)
	.loc 2 559 95 discriminator 2
	lbu	a4,%lo(_fsymf_level_hal_drvhal_spi)(a4)
	bgtu	a4,a5,.L204
	.loc 2 559 151 is_stmt 1
.LBB216:
.LBB217:
	.loc 3 151 5
	.loc 3 151 31 is_stmt 0
	lui	a5,%hi(TrapNetCounter)
.LBE217:
.LBE216:
	.loc 2 559 151
	lw	a5,%lo(TrapNetCounter)(a5)
	beq	a5,zero,.L205
	.loc 2 559 379 discriminator 4
	call	xTaskGetTickCountFromISR
.LVL240:
.L206:
	.loc 2 559 151 discriminator 7
	lw	a5,44(sp)
	lui	a3,%hi(.LC0)
	lui	a2,%hi(.LC6)
	sw	a5,20(sp)
	lw	a5,40(sp)
	mv	a1,a0
	lui	a0,%hi(.LC23)
	sw	a5,16(sp)
	lw	a5,36(sp)
	sw	s11,28(sp)
	sw	s10,24(sp)
	sw	s9,12(sp)
	sw	s8,8(sp)
	sw	s5,4(sp)
	sw	s7,0(sp)
	mv	a7,s4
	mv	a6,s1
	li	a4,560
	addi	a3,a3,%lo(.LC0)
	addi	a2,a2,%lo(.LC6)
	addi	a0,a0,%lo(.LC23)
	call	bl_printk
.LVL241:
.L204:
	.loc 2 560 108 is_stmt 1
	.loc 2 562 5
	.loc 2 562 11 is_stmt 0
	lw	a0,36(sp)
	lui	a1,%hi(spi_ops)
	mv	a2,s2
	addi	a1,a1,%lo(spi_ops)
	call	aos_register_driver
.LVL242:
	mv	s3,a0
.LVL243:
	.loc 2 563 5 is_stmt 1
	.loc 2 563 8 is_stmt 0
	beq	a0,zero,.L187
	.loc 2 564 9 is_stmt 1
	mv	a0,s2
.LVL244:
	call	aos_free
.LVL245:
	.loc 2 565 9
	li	a4,20
	mul	s1,s1,a4
	lw	a5,0(s0)
	add	s1,a5,s1
	lw	a0,16(s1)
	call	vEventGroupDelete
.LVL246:
	.loc 2 566 9
	lw	a0,0(s0)
	call	aos_free
.LVL247:
	.loc 2 567 9
	.loc 2 567 16 is_stmt 0
	j	.L187
.LVL248:
.L205:
	.loc 2 559 408 discriminator 5
	call	xTaskGetTickCount
.LVL249:
	j	.L206
	.cfi_endproc
.LFE74:
	.size	vfs_spi_init_fullname, .-vfs_spi_init_fullname
	.section	.text.spi_arg_set_fdt2,"ax",@progbits
	.align	1
	.globl	spi_arg_set_fdt2
	.type	spi_arg_set_fdt2, @function
spi_arg_set_fdt2:
.LFB75:
	.loc 2 578 1 is_stmt 1
	.cfi_startproc
.LVL250:
	.loc 2 580 5
	.loc 2 581 5
	.loc 2 582 5
	.loc 2 583 5
	.loc 2 584 5
	.loc 2 585 5
	.loc 2 586 5
	.loc 2 587 5
	.loc 2 588 5
	.loc 2 589 5
	.loc 2 590 5
	.loc 2 592 5
	.loc 2 593 5
	.loc 2 594 5
	.loc 2 595 5
	.loc 2 609 19 is_stmt 0
	lui	a2,%hi(.LC24)
	.loc 2 578 1
	addi	sp,sp,-112
	.cfi_def_cfa_offset 112
	.loc 2 609 19
	addi	a2,a2,%lo(.LC24)
	.loc 2 578 1
	sw	s1,100(sp)
	sw	ra,108(sp)
	sw	s0,104(sp)
	sw	s2,96(sp)
	sw	s3,92(sp)
	sw	s4,88(sp)
	sw	s5,84(sp)
	sw	s6,80(sp)
	sw	s7,76(sp)
	sw	s8,72(sp)
	sw	s9,68(sp)
	sw	s10,64(sp)
	sw	s11,60(sp)
	.cfi_offset 9, -12
	.cfi_offset 1, -4
	.cfi_offset 8, -8
	.cfi_offset 18, -16
	.cfi_offset 19, -20
	.cfi_offset 20, -24
	.cfi_offset 21, -28
	.cfi_offset 22, -32
	.cfi_offset 23, -36
	.cfi_offset 24, -40
	.cfi_offset 25, -44
	.cfi_offset 26, -48
	.cfi_offset 27, -52
	.loc 2 578 1
	mv	s1,a0
	.loc 2 595 9
	sw	zero,44(sp)
	.loc 2 596 5 is_stmt 1
.LVL251:
	.loc 2 597 5
	.loc 2 599 5
	.loc 2 600 5
	.loc 2 602 5
	.loc 2 607 5
	.loc 2 609 9
	.loc 2 609 19 is_stmt 0
	call	fdt_subnode_offset
.LVL252:
	.loc 2 610 9 is_stmt 1
	.loc 2 610 12 is_stmt 0
	ble	a0,zero,.L219
	.loc 2 614 18
	lui	a2,%hi(.LC25)
	mv	a1,a0
	addi	a4,sp,44
	mv	s2,a0
	.loc 2 614 9 is_stmt 1
	.loc 2 614 18 is_stmt 0
	li	a3,0
	addi	a2,a2,%lo(.LC25)
	mv	a0,s1
.LVL253:
	call	fdt_stringlist_get
.LVL254:
	.loc 2 615 12
	lw	a4,44(sp)
	li	a5,4
	.loc 2 614 18
	mv	a1,a0
.LVL255:
	.loc 2 615 9 is_stmt 1
	lui	s0,%hi(_fsymc_level_hal_drv)
	.loc 2 615 12 is_stmt 0
	beq	a4,a5,.L220
.LVL256:
.L223:
	.loc 2 616 13 is_stmt 1
	.loc 2 616 51
	.loc 2 616 56
	.loc 2 616 59 is_stmt 0
	lbu	a4,%lo(_fsymc_level_hal_drv)(s0)
	li	a5,2
	bleu	a4,a5,.L221
.LVL257:
.L219:
	.loc 2 739 5 is_stmt 1
	.loc 2 740 1 is_stmt 0
	lw	ra,108(sp)
	.cfi_remember_state
	.cfi_restore 1
	lw	s0,104(sp)
	.cfi_restore 8
	lw	s1,100(sp)
	.cfi_restore 9
	lw	s2,96(sp)
	.cfi_restore 18
	lw	s3,92(sp)
	.cfi_restore 19
	lw	s4,88(sp)
	.cfi_restore 20
	lw	s5,84(sp)
	.cfi_restore 21
	lw	s6,80(sp)
	.cfi_restore 22
	lw	s7,76(sp)
	.cfi_restore 23
	lw	s8,72(sp)
	.cfi_restore 24
	lw	s9,68(sp)
	.cfi_restore 25
	lw	s10,64(sp)
	.cfi_restore 26
	lw	s11,60(sp)
	.cfi_restore 27
	li	a0,0
	addi	sp,sp,112
	.cfi_def_cfa_offset 0
	jr	ra
.LVL258:
.L220:
	.cfi_restore_state
	.loc 2 615 31 discriminator 1
	lui	a0,%hi(.LC26)
.LVL259:
	li	a2,4
	addi	a0,a0,%lo(.LC26)
	call	memcmp
.LVL260:
	.loc 2 615 27 discriminator 1
	bne	a0,zero,.L223
	.loc 2 620 9 is_stmt 1
	.loc 2 620 18 is_stmt 0
	lui	a2,%hi(.LC28)
	addi	a4,sp,44
	li	a3,0
	addi	a2,a2,%lo(.LC28)
	mv	a1,s2
	mv	a0,s1
	call	fdt_stringlist_get
.LVL261:
	.loc 2 621 26
	lw	a5,44(sp)
	.loc 2 621 12
	li	a4,1
	.loc 2 620 18
	mv	s4,a0
.LVL262:
	.loc 2 621 9 is_stmt 1
	.loc 2 621 26 is_stmt 0
	addi	a5,a5,-5
	.loc 2 621 12
	bleu	a5,a4,.L227
.LVL263:
.L230:
	.loc 2 622 13 is_stmt 1
	.loc 2 622 51
	.loc 2 622 56
	.loc 2 622 59 is_stmt 0
	lbu	a4,%lo(_fsymc_level_hal_drv)(s0)
	li	a5,2
	bgtu	a4,a5,.L219
	.loc 2 622 123 discriminator 3
	lui	a4,%hi(_fsymf_level_hal_drvhal_spi)
	.loc 2 622 103 discriminator 3
	lbu	a4,%lo(_fsymf_level_hal_drvhal_spi)(a4)
	bgtu	a4,a5,.L219
	.loc 2 622 159 is_stmt 1
.LBB218:
.LBB219:
	.loc 3 151 5
	.loc 3 151 31 is_stmt 0
	lui	a5,%hi(TrapNetCounter)
.LBE219:
.LBE218:
	.loc 2 622 159
	lw	a5,%lo(TrapNetCounter)(a5)
	beq	a5,zero,.L231
	.loc 2 622 258 discriminator 7
	call	xTaskGetTickCountFromISR
.LVL264:
.L232:
	.loc 2 622 159 discriminator 10
	lui	a3,%hi(.LC0)
	lui	a2,%hi(.LC6)
	mv	a1,a0
	lui	a0,%hi(.LC31)
	li	a5,0
	li	a4,622
	addi	a3,a3,%lo(.LC0)
	addi	a2,a2,%lo(.LC6)
	addi	a0,a0,%lo(.LC31)
	j	.L279
.LVL265:
.L221:
	.loc 2 616 123 discriminator 3
	lui	a4,%hi(_fsymf_level_hal_drvhal_spi)
	.loc 2 616 103 discriminator 3
	lbu	a4,%lo(_fsymf_level_hal_drvhal_spi)(a4)
	bgtu	a4,a5,.L219
	.loc 2 616 159 is_stmt 1
.LBB220:
.LBB221:
	.loc 3 151 5
	.loc 3 151 31 is_stmt 0
	lui	a5,%hi(TrapNetCounter)
.LBE221:
.LBE220:
	.loc 2 616 159
	lw	a5,%lo(TrapNetCounter)(a5)
	beq	a5,zero,.L225
	.loc 2 616 249 discriminator 7
	call	xTaskGetTickCountFromISR
.LVL266:
.L226:
	.loc 2 616 159 discriminator 10
	lui	a3,%hi(.LC0)
	lui	a2,%hi(.LC6)
	mv	a1,a0
	lui	a0,%hi(.LC27)
	li	a5,0
	li	a4,616
	addi	a3,a3,%lo(.LC0)
	addi	a2,a2,%lo(.LC6)
	addi	a0,a0,%lo(.LC27)
.LVL267:
.L279:
	.loc 2 647 159 discriminator 10
	call	bl_printk
.LVL268:
	j	.L219
.LVL269:
.L225:
	.loc 2 616 278 discriminator 8
	call	xTaskGetTickCount
.LVL270:
	j	.L226
.LVL271:
.L227:
	.loc 2 621 47 discriminator 1
	lui	s3,%hi(.LC29)
	mv	a1,a0
	li	a2,6
	addi	a0,s3,%lo(.LC29)
.LVL272:
	call	memcmp
.LVL273:
	.loc 2 621 42 discriminator 1
	beq	a0,zero,.L229
	.loc 2 621 85 discriminator 2
	lui	a0,%hi(.LC30)
	li	a2,5
	mv	a1,s4
	addi	a0,a0,%lo(.LC30)
	call	memcmp
.LVL274:
	.loc 2 621 81 discriminator 2
	bne	a0,zero,.L230
.L229:
	.loc 2 626 9 is_stmt 1
	.loc 2 626 13 is_stmt 0
	mv	a1,s4
	li	a2,6
	addi	a0,s3,%lo(.LC29)
	call	memcmp
.LVL275:
	.loc 2 633 22
	lui	s3,%hi(.LC32)
	.loc 2 626 13
	mv	s6,a0
.LVL276:
	.loc 2 633 9 is_stmt 1
	.loc 2 633 22 is_stmt 0
	addi	a2,s3,%lo(.LC32)
	mv	a1,s2
	mv	a0,s1
.LVL277:
	call	fdt_stringlist_count
.LVL278:
	.loc 2 634 12
	li	a5,1
	.loc 2 633 22
	mv	s4,a0
.LVL279:
	.loc 2 634 9 is_stmt 1
	.loc 2 634 12 is_stmt 0
	beq	a0,a5,.L233
	.loc 2 635 13 is_stmt 1 discriminator 1
	.loc 2 635 51 discriminator 1
	.loc 2 635 56 discriminator 1
	.loc 2 635 59 is_stmt 0 discriminator 1
	lbu	a4,%lo(_fsymc_level_hal_drv)(s0)
	li	a5,2
	bgtu	a4,a5,.L219
	.loc 2 635 123 discriminator 3
	lui	a4,%hi(_fsymf_level_hal_drvhal_spi)
	.loc 2 635 103 discriminator 3
	lbu	a4,%lo(_fsymf_level_hal_drvhal_spi)(a4)
	bgtu	a4,a5,.L219
	.loc 2 635 159 is_stmt 1
.LBB222:
.LBB223:
	.loc 3 151 5
	.loc 3 151 31 is_stmt 0
	lui	a5,%hi(TrapNetCounter)
.LBE223:
.LBE222:
	.loc 2 635 159
	lw	a5,%lo(TrapNetCounter)(a5)
	beq	a5,zero,.L234
	.loc 2 635 261 discriminator 7
	call	xTaskGetTickCountFromISR
.LVL280:
.L235:
	.loc 2 635 159 discriminator 10
	lui	a3,%hi(.LC0)
	lui	a2,%hi(.LC6)
	mv	a1,a0
	lui	a0,%hi(.LC33)
	mv	a6,s4
	li	a5,0
	li	a4,635
	addi	a3,a3,%lo(.LC0)
	addi	a2,a2,%lo(.LC6)
	addi	a0,a0,%lo(.LC33)
.LVL281:
.L280:
	.loc 2 652 161 discriminator 10
	call	bl_printk
.LVL282:
	j	.L219
.LVL283:
.L231:
	.loc 2 622 287 discriminator 8
	call	xTaskGetTickCount
.LVL284:
	j	.L232
.LVL285:
.L234:
	.loc 2 635 290 discriminator 8
	call	xTaskGetTickCount
.LVL286:
	j	.L235
.LVL287:
.L233:
	.loc 2 638 9 is_stmt 1
	.loc 2 638 18 is_stmt 0
	addi	a4,sp,44
	li	a3,0
	addi	a2,s3,%lo(.LC32)
	mv	a1,s2
	mv	a0,s1
.LVL288:
	call	fdt_stringlist_get
.LVL289:
	.loc 2 639 12
	lw	a4,44(sp)
	li	a5,32
	.loc 2 638 18
	mv	s5,a0
.LVL290:
	.loc 2 639 9 is_stmt 1
	.loc 2 639 12 is_stmt 0
	bleu	a4,a5,.L236
	.loc 2 640 13 is_stmt 1 discriminator 1
	.loc 2 640 51 discriminator 1
	.loc 2 640 56 discriminator 1
	.loc 2 640 59 is_stmt 0 discriminator 1
	lbu	a4,%lo(_fsymc_level_hal_drv)(s0)
	li	a5,2
	bgtu	a4,a5,.L236
	.loc 2 640 123 discriminator 3
	lui	a4,%hi(_fsymf_level_hal_drvhal_spi)
	.loc 2 640 103 discriminator 3
	lbu	a4,%lo(_fsymf_level_hal_drvhal_spi)(a4)
	bgtu	a4,a5,.L236
	.loc 2 640 159 is_stmt 1
.LBB224:
.LBB225:
	.loc 3 151 5
	.loc 3 151 31 is_stmt 0
	lui	a5,%hi(TrapNetCounter)
.LBE225:
.LBE224:
	.loc 2 640 159
	lw	a5,%lo(TrapNetCounter)(a5)
	beq	a5,zero,.L237
	.loc 2 640 251 discriminator 7
	call	xTaskGetTickCountFromISR
.LVL291:
.L238:
	.loc 2 640 159 discriminator 10
	lw	a6,44(sp)
	lui	a3,%hi(.LC0)
	lui	a2,%hi(.LC6)
	mv	a1,a0
	lui	a0,%hi(.LC34)
	li	a5,0
	li	a4,640
	addi	a3,a3,%lo(.LC0)
	addi	a2,a2,%lo(.LC6)
	addi	a0,a0,%lo(.LC34)
	call	bl_printk
.LVL292:
.L236:
	.loc 2 640 373 is_stmt 1 discriminator 11
	.loc 2 642 9 discriminator 11
	.loc 2 645 9 discriminator 11
	.loc 2 645 21 is_stmt 0 discriminator 11
	lui	a2,%hi(.LC35)
	addi	a3,sp,44
	addi	a2,a2,%lo(.LC35)
	mv	a1,s2
	mv	a0,s1
	call	fdt_getprop
.LVL293:
	.loc 2 646 9 is_stmt 1 discriminator 11
	.loc 2 646 12 is_stmt 0 discriminator 11
	bne	a0,zero,.L239
	.loc 2 647 13 is_stmt 1 discriminator 1
	.loc 2 647 51 discriminator 1
	.loc 2 647 56 discriminator 1
	.loc 2 647 59 is_stmt 0 discriminator 1
	lbu	a4,%lo(_fsymc_level_hal_drv)(s0)
	li	a5,2
	bgtu	a4,a5,.L219
	.loc 2 647 123 discriminator 3
	lui	a4,%hi(_fsymf_level_hal_drvhal_spi)
	.loc 2 647 103 discriminator 3
	lbu	a4,%lo(_fsymf_level_hal_drvhal_spi)(a4)
	bgtu	a4,a5,.L219
	.loc 2 647 159 is_stmt 1
.LBB226:
.LBB227:
	.loc 3 151 5
	.loc 3 151 31 is_stmt 0
	lui	a5,%hi(TrapNetCounter)
.LBE227:
.LBE226:
	.loc 2 647 159
	lw	a5,%lo(TrapNetCounter)(a5)
	beq	a5,zero,.L240
	.loc 2 647 245 discriminator 7
	call	xTaskGetTickCountFromISR
.LVL294:
.L241:
	.loc 2 647 159 discriminator 10
	lui	a3,%hi(.LC0)
	lui	a2,%hi(.LC6)
	mv	a1,a0
	lui	a0,%hi(.LC36)
	li	a5,0
	li	a4,647
	addi	a3,a3,%lo(.LC0)
	addi	a2,a2,%lo(.LC6)
	addi	a0,a0,%lo(.LC36)
	j	.L279
.LVL295:
.L237:
	.loc 2 640 280 discriminator 8
	call	xTaskGetTickCount
.LVL296:
	j	.L238
.LVL297:
.L240:
	.loc 2 647 274 discriminator 8
	call	xTaskGetTickCount
.LVL298:
	j	.L241
.LVL299:
.L239:
	.loc 2 650 9 is_stmt 1
	.loc 2 650 26 is_stmt 0
	lw	a0,0(a0)
.LVL300:
	call	fdt32_to_cpu
.LVL301:
	andi	s3,a0,255
	mv	s4,a0
.LVL302:
	.loc 2 651 9 is_stmt 1
	.loc 2 651 12 is_stmt 0
	beq	s3,zero,.L242
	.loc 2 652 13 is_stmt 1 discriminator 1
	.loc 2 652 51 discriminator 1
	.loc 2 652 56 discriminator 1
	.loc 2 652 59 is_stmt 0 discriminator 1
	lbu	a4,%lo(_fsymc_level_hal_drv)(s0)
	li	a5,4
	bgtu	a4,a5,.L219
	.loc 2 652 125 discriminator 3
	lui	a4,%hi(_fsymf_level_hal_drvhal_spi)
	.loc 2 652 104 discriminator 3
	lbu	a4,%lo(_fsymf_level_hal_drvhal_spi)(a4)
	bgtu	a4,a5,.L219
	.loc 2 652 161 is_stmt 1
.LBB228:
.LBB229:
	.loc 3 151 5
	.loc 3 151 31 is_stmt 0
	lui	a5,%hi(TrapNetCounter)
.LBE229:
.LBE228:
	.loc 2 652 161
	lw	a5,%lo(TrapNetCounter)(a5)
	beq	a5,zero,.L243
	.loc 2 652 256 discriminator 7
	call	xTaskGetTickCountFromISR
.LVL303:
.L244:
	.loc 2 652 161 discriminator 10
	lui	a3,%hi(.LC0)
	lui	a2,%hi(.LC1)
	mv	a1,a0
	lui	a0,%hi(.LC37)
	li	a6,0
	mv	a5,s3
	li	a4,652
	addi	a3,a3,%lo(.LC0)
	addi	a2,a2,%lo(.LC1)
	addi	a0,a0,%lo(.LC37)
	j	.L280
.LVL304:
.L243:
	.loc 2 652 285 discriminator 8
	call	xTaskGetTickCount
.LVL305:
	j	.L244
.LVL306:
.L242:
	.loc 2 657 9 is_stmt 1
	.loc 2 657 21 is_stmt 0
	lui	a2,%hi(.LC38)
	addi	a3,sp,44
	addi	a2,a2,%lo(.LC38)
	mv	a1,s2
	mv	a0,s1
.LVL307:
	call	fdt_getprop
.LVL308:
	.loc 2 658 9 is_stmt 1
	.loc 2 658 12 is_stmt 0
	bne	a0,zero,.L245
	.loc 2 659 13 is_stmt 1 discriminator 1
	.loc 2 659 51 discriminator 1
	.loc 2 659 56 discriminator 1
	.loc 2 659 59 is_stmt 0 discriminator 1
	lbu	a4,%lo(_fsymc_level_hal_drv)(s0)
	li	a5,2
	bgtu	a4,a5,.L219
	.loc 2 659 123 discriminator 3
	lui	a4,%hi(_fsymf_level_hal_drvhal_spi)
	.loc 2 659 103 discriminator 3
	lbu	a4,%lo(_fsymf_level_hal_drvhal_spi)(a4)
	bgtu	a4,a5,.L219
	.loc 2 659 159 is_stmt 1
.LBB230:
.LBB231:
	.loc 3 151 5
	.loc 3 151 31 is_stmt 0
	lui	a5,%hi(TrapNetCounter)
.LBE231:
.LBE230:
	.loc 2 659 159
	lw	a5,%lo(TrapNetCounter)(a5)
	beq	a5,zero,.L246
	.loc 2 659 252 discriminator 7
	call	xTaskGetTickCountFromISR
.LVL309:
.L247:
	.loc 2 659 159 discriminator 10
	lui	a3,%hi(.LC0)
	lui	a2,%hi(.LC6)
	mv	a1,a0
	lui	a0,%hi(.LC39)
	li	a5,0
	li	a4,659
	addi	a3,a3,%lo(.LC0)
	addi	a2,a2,%lo(.LC6)
	addi	a0,a0,%lo(.LC39)
	j	.L279
.LVL310:
.L246:
	.loc 2 659 281 discriminator 8
	call	xTaskGetTickCount
.LVL311:
	j	.L247
.LVL312:
.L245:
	.loc 2 662 9 is_stmt 1
	.loc 2 665 21 is_stmt 0
	lui	a2,%hi(.LC40)
	.loc 2 662 33
	lw	s7,0(a0)
	.loc 2 665 9 is_stmt 1
	.loc 2 665 21 is_stmt 0
	addi	a3,sp,44
	addi	a2,a2,%lo(.LC40)
	mv	a1,s2
	mv	a0,s1
.LVL313:
	call	fdt_getprop
.LVL314:
	.loc 2 666 9 is_stmt 1
	.loc 2 666 12 is_stmt 0
	bne	a0,zero,.L248
	.loc 2 667 13 is_stmt 1 discriminator 1
	.loc 2 667 51 discriminator 1
	.loc 2 667 56 discriminator 1
	.loc 2 667 59 is_stmt 0 discriminator 1
	lbu	a4,%lo(_fsymc_level_hal_drv)(s0)
	li	a5,2
	bgtu	a4,a5,.L219
	.loc 2 667 123 discriminator 3
	lui	a4,%hi(_fsymf_level_hal_drvhal_spi)
	.loc 2 667 103 discriminator 3
	lbu	a4,%lo(_fsymf_level_hal_drvhal_spi)(a4)
	bgtu	a4,a5,.L219
	.loc 2 667 159 is_stmt 1
.LBB232:
.LBB233:
	.loc 3 151 5
	.loc 3 151 31 is_stmt 0
	lui	a5,%hi(TrapNetCounter)
.LBE233:
.LBE232:
	.loc 2 667 159
	lw	a5,%lo(TrapNetCounter)(a5)
	beq	a5,zero,.L249
	.loc 2 667 245 discriminator 7
	call	xTaskGetTickCountFromISR
.LVL315:
.L250:
	.loc 2 667 159 discriminator 10
	lui	a3,%hi(.LC0)
	lui	a2,%hi(.LC6)
	mv	a1,a0
	lui	a0,%hi(.LC41)
	li	a5,0
	li	a4,667
	addi	a3,a3,%lo(.LC0)
	addi	a2,a2,%lo(.LC6)
	addi	a0,a0,%lo(.LC41)
	j	.L279
.LVL316:
.L249:
	.loc 2 667 274 discriminator 8
	call	xTaskGetTickCount
.LVL317:
	j	.L250
.LVL318:
.L248:
	.loc 2 670 9 is_stmt 1
	.loc 2 673 19 is_stmt 0
	lui	a2,%hi(.LC42)
	.loc 2 670 27
	lw	s8,0(a0)
	.loc 2 673 9 is_stmt 1
	.loc 2 673 19 is_stmt 0
	addi	a2,a2,%lo(.LC42)
	mv	a1,s2
	mv	a0,s1
.LVL319:
	call	fdt_subnode_offset
.LVL320:
	.loc 2 679 21
	lui	a2,%hi(.LC43)
	.loc 2 673 19
	mv	s3,a0
.LVL321:
	.loc 2 674 9 is_stmt 1
	.loc 2 679 9
	.loc 2 679 21 is_stmt 0
	mv	a1,a0
	addi	a3,sp,44
	addi	a2,a2,%lo(.LC43)
	mv	a0,s1
.LVL322:
	call	fdt_getprop
.LVL323:
	.loc 2 680 9 is_stmt 1
	.loc 2 680 12 is_stmt 0
	bne	a0,zero,.L251
	.loc 2 681 13 is_stmt 1 discriminator 1
	.loc 2 681 51 discriminator 1
	.loc 2 681 56 discriminator 1
	.loc 2 681 59 is_stmt 0 discriminator 1
	lbu	a4,%lo(_fsymc_level_hal_drv)(s0)
	li	a5,2
	bgtu	a4,a5,.L219
	.loc 2 681 123 discriminator 3
	lui	a4,%hi(_fsymf_level_hal_drvhal_spi)
	.loc 2 681 103 discriminator 3
	lbu	a4,%lo(_fsymf_level_hal_drvhal_spi)(a4)
	bgtu	a4,a5,.L219
	.loc 2 681 159 is_stmt 1
.LBB234:
.LBB235:
	.loc 3 151 5
	.loc 3 151 31 is_stmt 0
	lui	a5,%hi(TrapNetCounter)
.LBE235:
.LBE234:
	.loc 2 681 159
	lw	a5,%lo(TrapNetCounter)(a5)
	beq	a5,zero,.L252
	.loc 2 681 244 discriminator 7
	call	xTaskGetTickCountFromISR
.LVL324:
.L253:
	.loc 2 681 159 discriminator 10
	lui	a3,%hi(.LC0)
	lui	a2,%hi(.LC6)
	mv	a1,a0
	lui	a0,%hi(.LC44)
	li	a5,0
	li	a4,681
	addi	a3,a3,%lo(.LC0)
	addi	a2,a2,%lo(.LC6)
	addi	a0,a0,%lo(.LC44)
	j	.L279
.LVL325:
.L252:
	.loc 2 681 273 discriminator 8
	call	xTaskGetTickCount
.LVL326:
	j	.L253
.LVL327:
.L251:
	.loc 2 684 9 is_stmt 1
	.loc 2 687 21 is_stmt 0
	lui	a2,%hi(.LC45)
	.loc 2 684 29
	lw	s9,0(a0)
	.loc 2 687 9 is_stmt 1
	.loc 2 687 21 is_stmt 0
	addi	a3,sp,44
	addi	a2,a2,%lo(.LC45)
	mv	a1,s3
	mv	a0,s1
.LVL328:
	call	fdt_getprop
.LVL329:
	.loc 2 688 9 is_stmt 1
	.loc 2 688 12 is_stmt 0
	bne	a0,zero,.L254
	.loc 2 689 13 is_stmt 1 discriminator 1
	.loc 2 689 51 discriminator 1
	.loc 2 689 56 discriminator 1
	.loc 2 689 59 is_stmt 0 discriminator 1
	lbu	a4,%lo(_fsymc_level_hal_drv)(s0)
	li	a5,2
	bgtu	a4,a5,.L219
	.loc 2 689 123 discriminator 3
	lui	a4,%hi(_fsymf_level_hal_drvhal_spi)
	.loc 2 689 103 discriminator 3
	lbu	a4,%lo(_fsymf_level_hal_drvhal_spi)(a4)
	bgtu	a4,a5,.L219
	.loc 2 689 159 is_stmt 1
.LBB236:
.LBB237:
	.loc 3 151 5
	.loc 3 151 31 is_stmt 0
	lui	a5,%hi(TrapNetCounter)
.LBE237:
.LBE236:
	.loc 2 689 159
	lw	a5,%lo(TrapNetCounter)(a5)
	beq	a5,zero,.L255
	.loc 2 689 243 discriminator 7
	call	xTaskGetTickCountFromISR
.LVL330:
.L256:
	.loc 2 689 159 discriminator 10
	lui	a3,%hi(.LC0)
	lui	a2,%hi(.LC6)
	mv	a1,a0
	lui	a0,%hi(.LC46)
	li	a5,0
	li	a4,689
	addi	a3,a3,%lo(.LC0)
	addi	a2,a2,%lo(.LC6)
	addi	a0,a0,%lo(.LC46)
	j	.L279
.LVL331:
.L255:
	.loc 2 689 272 discriminator 8
	call	xTaskGetTickCount
.LVL332:
	j	.L256
.LVL333:
.L254:
	.loc 2 692 9 is_stmt 1
	.loc 2 695 21 is_stmt 0
	lui	a2,%hi(.LC47)
	.loc 2 692 28
	lw	s10,0(a0)
	.loc 2 695 9 is_stmt 1
	.loc 2 695 21 is_stmt 0
	addi	a3,sp,44
	addi	a2,a2,%lo(.LC47)
	mv	a1,s3
	mv	a0,s1
.LVL334:
	call	fdt_getprop
.LVL335:
	.loc 2 696 9 is_stmt 1
	.loc 2 696 12 is_stmt 0
	bne	a0,zero,.L257
	.loc 2 697 13 is_stmt 1 discriminator 1
	.loc 2 697 51 discriminator 1
	.loc 2 697 56 discriminator 1
	.loc 2 697 59 is_stmt 0 discriminator 1
	lbu	a4,%lo(_fsymc_level_hal_drv)(s0)
	li	a5,2
	bgtu	a4,a5,.L219
	.loc 2 697 123 discriminator 3
	lui	a4,%hi(_fsymf_level_hal_drvhal_spi)
	.loc 2 697 103 discriminator 3
	lbu	a4,%lo(_fsymf_level_hal_drvhal_spi)(a4)
	bgtu	a4,a5,.L219
	.loc 2 697 159 is_stmt 1
.LBB238:
.LBB239:
	.loc 3 151 5
	.loc 3 151 31 is_stmt 0
	lui	a5,%hi(TrapNetCounter)
.LBE239:
.LBE238:
	.loc 2 697 159
	lw	a5,%lo(TrapNetCounter)(a5)
	beq	a5,zero,.L258
	.loc 2 697 245 discriminator 7
	call	xTaskGetTickCountFromISR
.LVL336:
.L259:
	.loc 2 697 159 discriminator 10
	lui	a3,%hi(.LC0)
	lui	a2,%hi(.LC6)
	mv	a1,a0
	lui	a0,%hi(.LC48)
	li	a5,0
	li	a4,697
	addi	a3,a3,%lo(.LC0)
	addi	a2,a2,%lo(.LC6)
	addi	a0,a0,%lo(.LC48)
	j	.L279
.LVL337:
.L258:
	.loc 2 697 274 discriminator 8
	call	xTaskGetTickCount
.LVL338:
	j	.L259
.LVL339:
.L257:
	.loc 2 700 9 is_stmt 1
	.loc 2 703 21 is_stmt 0
	lui	a2,%hi(.LC49)
	.loc 2 700 30
	lw	s11,0(a0)
	.loc 2 703 9 is_stmt 1
	.loc 2 703 21 is_stmt 0
	addi	a3,sp,44
	addi	a2,a2,%lo(.LC49)
	mv	a1,s3
	mv	a0,s1
.LVL340:
	call	fdt_getprop
.LVL341:
	.loc 2 704 9 is_stmt 1
	.loc 2 704 12 is_stmt 0
	bne	a0,zero,.L260
	.loc 2 705 13 is_stmt 1 discriminator 1
	.loc 2 705 51 discriminator 1
	.loc 2 705 56 discriminator 1
	.loc 2 705 59 is_stmt 0 discriminator 1
	lbu	a4,%lo(_fsymc_level_hal_drv)(s0)
	li	a5,2
	bgtu	a4,a5,.L219
	.loc 2 705 123 discriminator 3
	lui	a4,%hi(_fsymf_level_hal_drvhal_spi)
	.loc 2 705 103 discriminator 3
	lbu	a4,%lo(_fsymf_level_hal_drvhal_spi)(a4)
	bgtu	a4,a5,.L219
	.loc 2 705 159 is_stmt 1
.LBB240:
.LBB241:
	.loc 3 151 5
	.loc 3 151 31 is_stmt 0
	lui	a5,%hi(TrapNetCounter)
.LBE241:
.LBE240:
	.loc 2 705 159
	lw	a5,%lo(TrapNetCounter)(a5)
	beq	a5,zero,.L261
	.loc 2 705 245 discriminator 7
	call	xTaskGetTickCountFromISR
.LVL342:
.L262:
	.loc 2 705 159 discriminator 10
	lui	a3,%hi(.LC0)
	lui	a2,%hi(.LC6)
	mv	a1,a0
	lui	a0,%hi(.LC50)
	li	a5,0
	li	a4,705
	addi	a3,a3,%lo(.LC0)
	addi	a2,a2,%lo(.LC6)
	addi	a0,a0,%lo(.LC50)
	j	.L279
.LVL343:
.L261:
	.loc 2 705 274 discriminator 8
	call	xTaskGetTickCount
.LVL344:
	j	.L262
.LVL345:
.L260:
	.loc 2 708 9 is_stmt 1
	.loc 2 711 19 is_stmt 0
	lui	a2,%hi(.LC51)
	.loc 2 708 30
	lw	s3,0(a0)
.LVL346:
	.loc 2 711 9 is_stmt 1
	.loc 2 711 19 is_stmt 0
	addi	a2,a2,%lo(.LC51)
	mv	a1,s2
	mv	a0,s1
.LVL347:
	call	fdt_subnode_offset
.LVL348:
	.loc 2 712 9 is_stmt 1
	.loc 2 717 9
	.loc 2 717 21 is_stmt 0
	lui	a2,%hi(.LC52)
	mv	a1,a0
	sw	a0,20(sp)
	addi	a3,sp,44
	addi	a2,a2,%lo(.LC52)
	mv	a0,s1
.LVL349:
	call	fdt_getprop
.LVL350:
	.loc 2 718 9 is_stmt 1
	.loc 2 718 12 is_stmt 0
	lw	a5,20(sp)
	bne	a0,zero,.L263
	.loc 2 719 13 is_stmt 1 discriminator 1
	.loc 2 719 51 discriminator 1
	.loc 2 719 56 discriminator 1
	.loc 2 719 59 is_stmt 0 discriminator 1
	lbu	a4,%lo(_fsymc_level_hal_drv)(s0)
	li	a5,2
	bgtu	a4,a5,.L219
	.loc 2 719 123 discriminator 3
	lui	a5,%hi(_fsymf_level_hal_drvhal_spi)
	.loc 2 719 103 discriminator 3
	lbu	a4,%lo(_fsymf_level_hal_drvhal_spi)(a5)
	li	a5,2
	bgtu	a4,a5,.L219
	.loc 2 719 159 is_stmt 1
.LBB242:
.LBB243:
	.loc 3 151 5
	.loc 3 151 31 is_stmt 0
	lui	a5,%hi(TrapNetCounter)
.LBE243:
.LBE242:
	.loc 2 719 159
	lw	a5,%lo(TrapNetCounter)(a5)
	beq	a5,zero,.L264
	.loc 2 719 250 discriminator 7
	call	xTaskGetTickCountFromISR
.LVL351:
.L265:
	.loc 2 719 159 discriminator 10
	lui	a3,%hi(.LC0)
	lui	a2,%hi(.LC6)
	mv	a1,a0
	lui	a0,%hi(.LC53)
	li	a5,0
	li	a4,719
	addi	a3,a3,%lo(.LC0)
	addi	a2,a2,%lo(.LC6)
	addi	a0,a0,%lo(.LC53)
	j	.L279
.LVL352:
.L264:
	.loc 2 719 279 discriminator 8
	call	xTaskGetTickCount
.LVL353:
	j	.L265
.LVL354:
.L263:
	.loc 2 722 9 is_stmt 1
	.loc 2 725 21 is_stmt 0
	lui	a2,%hi(.LC54)
	.loc 2 722 31
	lw	s2,0(a0)
.LVL355:
	.loc 2 725 9 is_stmt 1
	.loc 2 725 21 is_stmt 0
	addi	a3,sp,44
	addi	a2,a2,%lo(.LC54)
	mv	a1,a5
	mv	a0,s1
.LVL356:
	call	fdt_getprop
.LVL357:
	.loc 2 726 9 is_stmt 1
	.loc 2 726 12 is_stmt 0
	bne	a0,zero,.L266
	.loc 2 727 13 is_stmt 1 discriminator 1
	.loc 2 727 51 discriminator 1
	.loc 2 727 56 discriminator 1
	.loc 2 727 59 is_stmt 0 discriminator 1
	lbu	a4,%lo(_fsymc_level_hal_drv)(s0)
	li	a5,2
	bgtu	a4,a5,.L219
	.loc 2 727 123 discriminator 3
	lui	a4,%hi(_fsymf_level_hal_drvhal_spi)
	.loc 2 727 103 discriminator 3
	lbu	a4,%lo(_fsymf_level_hal_drvhal_spi)(a4)
	bgtu	a4,a5,.L219
	.loc 2 727 159 is_stmt 1
.LBB244:
.LBB245:
	.loc 3 151 5
	.loc 3 151 31 is_stmt 0
	lui	a5,%hi(TrapNetCounter)
.LBE245:
.LBE244:
	.loc 2 727 159
	lw	a5,%lo(TrapNetCounter)(a5)
	beq	a5,zero,.L267
	.loc 2 727 250 discriminator 7
	call	xTaskGetTickCountFromISR
.LVL358:
.L268:
	.loc 2 727 159 discriminator 10
	lui	a3,%hi(.LC0)
	lui	a2,%hi(.LC6)
	mv	a1,a0
	lui	a0,%hi(.LC55)
	li	a5,0
	li	a4,727
	addi	a3,a3,%lo(.LC0)
	addi	a2,a2,%lo(.LC6)
	addi	a0,a0,%lo(.LC55)
	j	.L279
.LVL359:
.L267:
	.loc 2 727 279 discriminator 8
	call	xTaskGetTickCount
.LVL360:
	j	.L268
.LVL361:
.L266:
	.loc 2 730 9 is_stmt 1
	.loc 2 730 31 is_stmt 0
	lw	a0,0(a0)
.LVL362:
	call	fdt32_to_cpu
.LVL363:
	sw	a0,28(sp)
.LVL364:
	.loc 2 732 9 is_stmt 1
	.loc 2 722 31 is_stmt 0
	mv	a0,s2
	call	fdt32_to_cpu
.LVL365:
	sw	a0,24(sp)
	.loc 2 708 30
	mv	a0,s3
	call	fdt32_to_cpu
.LVL366:
	mv	s3,a0
	.loc 2 700 30
	mv	a0,s11
	call	fdt32_to_cpu
.LVL367:
	mv	s2,a0
	.loc 2 692 28
	mv	a0,s10
	call	fdt32_to_cpu
.LVL368:
	mv	s1,a0
.LVL369:
	.loc 2 684 29
	mv	a0,s9
	call	fdt32_to_cpu
.LVL370:
	mv	s9,a0
	.loc 2 670 27
	mv	a0,s8
	call	fdt32_to_cpu
.LVL371:
	sw	a0,20(sp)
.LVL372:
	.loc 2 662 33
	mv	a0,s7
	call	fdt32_to_cpu
.LVL373:
	.loc 2 732 15
	lw	a6,28(sp)
	lw	a5,24(sp)
	lw	a4,20(sp)
	andi	s3,s3,0xff
	andi	s2,s2,0xff
	andi	s1,s1,0xff
	andi	a5,a5,0xff
	andi	a3,a0,0xff
	sw	s3,8(sp)
	sw	s2,4(sp)
	sw	s1,0(sp)
	andi	a7,s9,0xff
	andi	a6,a6,0xff
	snez	a2,s6
	andi	a1,s4,0xff
	mv	a0,s5
	call	vfs_spi_init_fullname
.LVL374:
	.loc 2 733 9 is_stmt 1
	.loc 2 734 59 is_stmt 0
	lbu	a4,%lo(_fsymc_level_hal_drv)(s0)
	li	a5,2
	.loc 2 733 12
	bne	a0,zero,.L269
	.loc 2 734 13 is_stmt 1 discriminator 1
	.loc 2 734 51 discriminator 1
	.loc 2 734 56 discriminator 1
	.loc 2 734 59 is_stmt 0 discriminator 1
	bgtu	a4,a5,.L219
	.loc 2 734 123 discriminator 3
	lui	a4,%hi(_fsymf_level_hal_drvhal_spi)
	.loc 2 734 103 discriminator 3
	lbu	a4,%lo(_fsymf_level_hal_drvhal_spi)(a4)
	bgtu	a4,a5,.L219
	.loc 2 734 159 is_stmt 1
.LBB246:
.LBB247:
	.loc 3 151 5
	.loc 3 151 31 is_stmt 0
	lui	a5,%hi(TrapNetCounter)
.LBE247:
.LBE246:
	.loc 2 734 159
	lw	a5,%lo(TrapNetCounter)(a5)
	beq	a5,zero,.L270
	.loc 2 734 249 discriminator 7
	call	xTaskGetTickCountFromISR
.LVL375:
.L271:
	.loc 2 734 372 discriminator 10
	lui	a5,%hi(.LANCHOR0)
	lw	a5,%lo(.LANCHOR0)(a5)
	.loc 2 734 159 discriminator 10
	lui	a3,%hi(.LC0)
	lui	a2,%hi(.LC6)
	mv	a1,a0
	lui	a0,%hi(.LC56)
	lw	a5,16(a5)
	li	a4,734
	addi	a3,a3,%lo(.LC0)
	addi	a2,a2,%lo(.LC6)
	addi	a0,a0,%lo(.LC56)
	j	.L279
.LVL376:
.L270:
	.loc 2 734 278 discriminator 8
	call	xTaskGetTickCount
.LVL377:
	j	.L271
.LVL378:
.L269:
	.loc 2 736 13 is_stmt 1 discriminator 1
	.loc 2 736 51 discriminator 1
	.loc 2 736 56 discriminator 1
	.loc 2 736 59 is_stmt 0 discriminator 1
	bgtu	a4,a5,.L219
	.loc 2 736 123 discriminator 3
	lui	a4,%hi(_fsymf_level_hal_drvhal_spi)
	.loc 2 736 103 discriminator 3
	lbu	a4,%lo(_fsymf_level_hal_drvhal_spi)(a4)
	bgtu	a4,a5,.L219
	.loc 2 736 159 is_stmt 1
.LBB248:
.LBB249:
	.loc 3 151 5
	.loc 3 151 31 is_stmt 0
	lui	a5,%hi(TrapNetCounter)
.LBE249:
.LBE248:
	.loc 2 736 159
	lw	a5,%lo(TrapNetCounter)(a5)
	beq	a5,zero,.L272
	.loc 2 736 243 discriminator 7
	call	xTaskGetTickCountFromISR
.LVL379:
.L273:
	.loc 2 736 159 discriminator 10
	mv	a1,a0
	lui	a3,%hi(.LC0)
	lui	a2,%hi(.LC6)
	lui	a0,%hi(.LC57)
	li	a4,736
	addi	a3,a3,%lo(.LC0)
	addi	a2,a2,%lo(.LC6)
	addi	a0,a0,%lo(.LC57)
	call	bl_printk
.LVL380:
	j	.L219
.LVL381:
.L272:
	.loc 2 736 272 discriminator 8
	call	xTaskGetTickCount
.LVL382:
	j	.L273
	.cfi_endproc
.LFE75:
	.size	spi_arg_set_fdt2, .-spi_arg_set_fdt2
	.section	.text.vfs_spi_fdt_init,"ax",@progbits
	.align	1
	.globl	vfs_spi_fdt_init
	.type	vfs_spi_fdt_init, @function
vfs_spi_fdt_init:
.LFB76:
	.loc 2 743 1 is_stmt 1
	.cfi_startproc
.LVL383:
	.loc 2 744 5
	.loc 2 743 1 is_stmt 0
	addi	sp,sp,-16
	.cfi_def_cfa_offset 16
	sw	ra,12(sp)
	.cfi_offset 1, -4
	.loc 2 744 5
	call	spi_arg_set_fdt2
.LVL384:
	.loc 2 745 5 is_stmt 1
	.loc 2 745 43
	.loc 2 745 48
	.loc 2 745 70 is_stmt 0
	lui	a5,%hi(_fsymc_level_hal_drv)
	.loc 2 745 51
	lbu	a4,%lo(_fsymc_level_hal_drv)(a5)
	li	a5,2
	bgtu	a4,a5,.L282
	.loc 2 745 115 discriminator 3
	lui	a4,%hi(_fsymf_level_hal_drvhal_spi)
	.loc 2 745 95 discriminator 3
	lbu	a4,%lo(_fsymf_level_hal_drvhal_spi)(a4)
	bgtu	a4,a5,.L282
	.loc 2 745 151 is_stmt 1
.LBB250:
.LBB251:
	.loc 3 151 5
	.loc 3 151 31 is_stmt 0
	lui	a5,%hi(TrapNetCounter)
.LBE251:
.LBE250:
	.loc 2 745 151
	lw	a5,%lo(TrapNetCounter)(a5)
	beq	a5,zero,.L283
	.loc 2 745 239 discriminator 7
	call	xTaskGetTickCountFromISR
.LVL385:
.L284:
	.loc 2 745 151 discriminator 10
	lui	a3,%hi(.LC0)
	lui	a2,%hi(.LC6)
	mv	a1,a0
	lui	a0,%hi(.LC58)
	li	a4,745
	addi	a3,a3,%lo(.LC0)
	addi	a2,a2,%lo(.LC6)
	addi	a0,a0,%lo(.LC58)
	call	bl_printk
.LVL386:
.L282:
	.loc 2 745 350 is_stmt 1 discriminator 11
	.loc 2 746 5 discriminator 11
	.loc 2 747 1 is_stmt 0 discriminator 11
	lw	ra,12(sp)
	.cfi_remember_state
	.cfi_restore 1
	li	a0,0
	addi	sp,sp,16
	.cfi_def_cfa_offset 0
	jr	ra
.L283:
	.cfi_restore_state
	.loc 2 745 268 discriminator 8
	call	xTaskGetTickCount
.LVL387:
	j	.L284
	.cfi_endproc
.LFE76:
	.size	vfs_spi_fdt_init, .-vfs_spi_fdt_init
	.globl	g_hal_buf
	.globl	_fsymf_info_hal_drvhal_spi
	.comm	_fsymf_level_hal_drvhal_spi,1,1
	.comm	_fsymc_level_hal_drv,1,1
	.section	.rodata.bl_spi0_dma_int_handler_rx.str1.4,"aMS",@progbits,1
	.align	2
.LC3:
	.string	"[%10u][%s: %s:%4d] bl_spi0_dma_int_handler_rx no clear isr.\r\n"
	.section	.rodata.bl_spi0_dma_int_handler_tx.str1.4,"aMS",@progbits,1
	.align	2
.LC0:
	.string	"hal_spi.c"
	.zero	2
.LC1:
	.string	"\033[31mERROR \033[0m"
.LC2:
	.string	"[%10u][%s: %s:%4d] bl_spi0_dma_int_handler_tx no clear isr.\r\n"
	.section	.rodata.hal_spi_finalize.str1.4,"aMS",@progbits,1
	.align	2
.LC6:
	.string	"\033[32mINFO  \033[0m"
.LC7:
	.string	"[%10u][%s: %s:%4d] not support. hal_spi_finalize.\r\n"
	.section	.rodata.hal_spi_init.str1.4,"aMS",@progbits,1
	.align	2
.LC4:
	.string	"[%10u][%s: %s:%4d] arg err.\r\n"
	.zero	2
.LC5:
	.string	"[%10u][%s: %s:%4d] node support polar_phase \r\n"
	.section	.rodata.hal_spi_recv.str1.4,"aMS",@progbits,1
	.align	2
.LC9:
	.string	"[%10u][%s: %s:%4d] not support. hal_spi_recv.\r\n"
	.section	.rodata.hal_spi_send.str1.4,"aMS",@progbits,1
	.align	2
.LC8:
	.string	"[%10u][%s: %s:%4d] not support. hal_spi_send.\r\n"
	.section	.rodata.hal_spi_send_recv.str1.4,"aMS",@progbits,1
	.align	2
.LC10:
	.string	"[%10u][%s: %s:%4d] not support. hal_spi_send_recv.\r\n"
	.section	.rodata.hal_spi_set_rwmode.str1.4,"aMS",@progbits,1
	.align	2
.LC11:
	.string	"[%10u][%s: %s:%4d] mode is err.\r\n"
	.section	.rodata.hal_spi_set_rwspeed.str1.4,"aMS",@progbits,1
	.align	2
.LC12:
	.string	"[%10u][%s: %s:%4d] speed not change.\r\n"
	.zero	1
.LC13:
	.string	"[%10u][%s: %s:%4d] The max speed is 40000000 Hz, please set it smaller."
.LC14:
	.string	"[%10u][%s: %s:%4d] The min speed is 156250 Hz, please set it bigger."
	.zero	3
.LC15:
	.string	"[%10u][%s: %s:%4d] not support speed: %ld, change real_speed = %ld\r\n"
	.section	.rodata.hal_spi_transfer.str1.4,"aMS",@progbits,1
	.align	2
.LC16:
	.string	"[%10u][%s: %s:%4d] priv_data NULL.\r\n"
	.zero	3
.LC17:
	.string	"[%10u][%s: %s:%4d] malloc lli failed. \r\n"
	.zero	3
.LC18:
	.string	"[%10u][%s: %s:%4d] malloc lli failed."
	.zero	2
.LC19:
	.string	"[%10u][%s: %s:%4d] init lli failed. \r\n"
	.zero	1
.LC20:
	.string	"[%10u][%s: %s:%4d] recv all event group.\r\n"
	.section	.rodata.spi_arg_set_fdt2.str1.4,"aMS",@progbits,1
	.align	2
.LC24:
	.string	"spi@4000F000"
	.zero	3
.LC25:
	.string	"status"
	.zero	1
.LC26:
	.string	"okay"
	.zero	3
.LC27:
	.string	"[%10u][%s: %s:%4d] spi[%d] status != okay\r\n"
.LC28:
	.string	"mode"
	.zero	3
.LC29:
	.string	"master"
	.zero	1
.LC30:
	.string	"slave"
	.zero	2
.LC31:
	.string	"[%10u][%s: %s:%4d] spi[%d] mode != master or slave\r\n"
	.zero	3
.LC32:
	.string	"path"
	.zero	3
.LC33:
	.string	"[%10u][%s: %s:%4d] spi[%d] path_countindex = %d NULL.\r\n"
.LC34:
	.string	"[%10u][%s: %s:%4d] spi[%d] path lentmp = %d\r\n"
	.zero	2
.LC35:
	.string	"port"
	.zero	3
.LC36:
	.string	"[%10u][%s: %s:%4d] spi[%d] port NULL.\r\n"
.LC37:
	.string	"[%10u][%s: %s:%4d] fdt err. port[%d] != i[%d].\r\n"
	.zero	3
.LC38:
	.string	"polar_phase"
.LC39:
	.string	"[%10u][%s: %s:%4d] spi[%d] polar_phase NULL.\r\n"
	.zero	1
.LC40:
	.string	"freq"
	.zero	3
.LC41:
	.string	"[%10u][%s: %s:%4d] spi[%d] freq NULL.\r\n"
.LC42:
	.string	"pin"
.LC43:
	.string	"clk"
.LC44:
	.string	"[%10u][%s: %s:%4d] spi[%d] clk NULL.\r\n"
	.zero	1
.LC45:
	.string	"cs"
	.zero	1
.LC46:
	.string	"[%10u][%s: %s:%4d] spi[%d] cs NULL.\r\n"
	.zero	2
.LC47:
	.string	"mosi"
	.zero	3
.LC48:
	.string	"[%10u][%s: %s:%4d] spi[%d] mosi NULL.\r\n"
.LC49:
	.string	"miso"
	.zero	3
.LC50:
	.string	"[%10u][%s: %s:%4d] spi[%d] miso NULL.\r\n"
.LC51:
	.string	"dma_cfg"
.LC52:
	.string	"tx_dma_ch"
	.zero	2
.LC53:
	.string	"[%10u][%s: %s:%4d] spi[%d] tx_dma_ch NULL.\r\n"
	.zero	3
.LC54:
	.string	"rx_dma_ch"
	.zero	2
.LC55:
	.string	"[%10u][%s: %s:%4d] spi[%d] rx_dma_ch NULL.\r\n"
	.zero	3
.LC56:
	.string	"[%10u][%s: %s:%4d] init ok and read %08lx\r\n"
.LC57:
	.string	"[%10u][%s: %s:%4d] spi init failed \r\n"
	.section	.rodata.str1.4,"aMS",@progbits,1
	.align	2
.LC59:
	.string	"hal_drv.hal_spi"
.LC60:
	.string	"hal_drv"
	.section	.rodata.vfs_spi_fdt_init.str1.4,"aMS",@progbits,1
	.align	2
.LC58:
	.string	"[%10u][%s: %s:%4d] vfs_spi_fdt_init ok.\r\n"
	.section	.rodata.vfs_spi_init_fullname.str1.4,"aMS",@progbits,1
	.align	2
.LC21:
	.string	"[%10u][%s: %s:%4d] mem err.\r\n"
	.zero	2
.LC22:
	.string	"[%10u][%s: %s:%4d] port%d eventloop init = %08lx\r\n"
	.zero	1
.LC23:
	.string	"[%10u][%s: %s:%4d] [HAL] [SPI] Register Under %s for :\r\nport=%d, mode=%d, polar_phase = %d, freq=%ld, tx_dma_ch=%d, rx_dma_ch=%d, pin_clk=%d, pin_cs=%d, pin_mosi=%d, pin_miso=%d\r\n"
	.section	.sbss.g_hal_buf,"aw",@nobits
	.align	2
	.set	.LANCHOR0,. + 0
	.type	g_hal_buf, @object
	.size	g_hal_buf, 4
g_hal_buf:
	.zero	4
	.section	.sdata2.BLOG_HARD_DECLARE_DISABLE,"a"
	.align	2
	.type	BLOG_HARD_DECLARE_DISABLE, @object
	.size	BLOG_HARD_DECLARE_DISABLE, 4
BLOG_HARD_DECLARE_DISABLE:
	.zero	4
	.section	.static_blogcomponent_code.hal_drv,"a"
	.align	2
	.type	_fsymc_info_hal_drv, @object
	.size	_fsymc_info_hal_drv, 8
_fsymc_info_hal_drv:
	.word	_fsymc_level_hal_drv
	.word	.LC60
	.section	.static_blogfile_code.hal_drvhal_spi,"a"
	.align	2
	.type	_fsymf_info_hal_drvhal_spi, @object
	.size	_fsymf_info_hal_drvhal_spi, 8
_fsymf_info_hal_drvhal_spi:
	.word	_fsymf_level_hal_drvhal_spi
	.word	.LC59
	.text
.Letext0:
	.file 4 "/home/hogc/build-tools/sdk/bl/bl_iot_sdk/toolchain/riscv/Linux/lib/gcc/riscv64-unknown-elf/8.3.0/include/stddef.h"
	.file 5 "/home/hogc/build-tools/sdk/bl/bl_iot_sdk/toolchain/riscv/Linux/riscv64-unknown-elf/include/machine/_default_types.h"
	.file 6 "/home/hogc/build-tools/sdk/bl/bl_iot_sdk/toolchain/riscv/Linux/riscv64-unknown-elf/include/sys/_types.h"
	.file 7 "/home/hogc/build-tools/sdk/bl/bl_iot_sdk/toolchain/riscv/Linux/riscv64-unknown-elf/include/sys/reent.h"
	.file 8 "/home/hogc/build-tools/sdk/bl/bl_iot_sdk/toolchain/riscv/Linux/riscv64-unknown-elf/include/sys/lock.h"
	.file 9 "/home/hogc/build-tools/sdk/bl/bl_iot_sdk/toolchain/riscv/Linux/riscv64-unknown-elf/include/sys/_stdint.h"
	.file 10 "/home/hogc/build-tools/sdk/bl/bl_iot_sdk/toolchain/riscv/Linux/riscv64-unknown-elf/include/sys/_timeval.h"
	.file 11 "/home/hogc/build-tools/sdk/bl/bl_iot_sdk/toolchain/riscv/Linux/riscv64-unknown-elf/include/sys/types.h"
	.file 12 "/home/hogc/build-tools/sdk/bl/bl_iot_sdk/toolchain/riscv/Linux/riscv64-unknown-elf/include/time.h"
	.file 13 "/home/hogc/build-tools/sdk/bl/bl_iot_sdk/toolchain/riscv/Linux/riscv64-unknown-elf/include/sys/stat.h"
	.file 14 "/home/hogc/build-tools/sdk/bl/bl_iot_sdk/components/fs/vfs/include/vfs_dir.h"
	.file 15 "/home/hogc/build-tools/sdk/bl/bl_iot_sdk/components/fs/vfs/include/vfs_inode.h"
	.file 16 "/home/hogc/build-tools/sdk/bl/bl_iot_sdk/components/fs/vfs/include/device/vfs_spi.h"
	.file 17 "/home/hogc/build-tools/sdk/bl/bl_iot_sdk/toolchain/riscv/Linux/riscv64-unknown-elf/include/sys/errno.h"
	.file 18 "/home/hogc/build-tools/sdk/bl/bl_iot_sdk/components/fs/vfs/include/hal/soc/spi.h"
	.file 19 "/home/hogc/build-tools/sdk/bl/bl_iot_sdk/components/bl602/bl602_std/bl602_std/RISCV/Device/Bouffalo/BL602/Startup/system_bl602.h"
	.file 20 "/home/hogc/build-tools/sdk/bl/bl_iot_sdk/components/bl602/bl602_std/bl602_std/Device/Bouffalo/BL602/Peripherals/bl602.h"
	.file 21 "/home/hogc/build-tools/sdk/bl/bl_iot_sdk/components/bl602/bl602_std/bl602_std/StdDriver/Inc/bl602_common.h"
	.file 22 "/home/hogc/build-tools/sdk/bl/bl_iot_sdk/components/bl602/bl602_std/bl602_std/StdDriver/Inc/bl602_spi.h"
	.file 23 "/home/hogc/build-tools/sdk/bl/bl_iot_sdk/components/bl602/bl602_std/bl602_std/StdDriver/Inc/bl602_gpio.h"
	.file 24 "/home/hogc/build-tools/sdk/bl/bl_iot_sdk/components/bl602/bl602_std/bl602_std/StdDriver/Inc/bl602_glb.h"
	.file 25 "/home/hogc/build-tools/sdk/bl/bl_iot_sdk/components/bl602/bl602_std/bl602_std/Device/Bouffalo/BL602/Peripherals/dma_reg.h"
	.file 26 "/home/hogc/build-tools/sdk/bl/bl_iot_sdk/components/bl602/bl602_std/bl602_std/StdDriver/Inc/bl602_dma.h"
	.file 27 "/home/hogc/build-tools/sdk/bl/bl_iot_sdk/components/bl602/freertos_riscv_ram/config/event_groups.h"
	.file 28 "/home/hogc/build-tools/sdk/bl/bl_iot_sdk/toolchain/riscv/Linux/riscv64-unknown-elf/include/stdlib.h"
	.file 29 "/home/hogc/build-tools/sdk/bl/bl_iot_sdk/components/stage/blog/blog_type.h"
	.file 30 "/home/hogc/build-tools/sdk/bl/bl_iot_sdk/components/stage/blog/blog.h"
	.file 31 "/home/hogc/build-tools/sdk/bl/bl_iot_sdk/components/bl602/freertos_riscv_ram/config/task.h"
	.file 32 "/home/hogc/build-tools/sdk/bl/bl_iot_sdk/components/utils/include/utils_log.h"
	.file 33 "/home/hogc/build-tools/sdk/bl/bl_iot_sdk/components/stage/blfdt/inc/libfdt.h"
	.file 34 "/home/hogc/build-tools/sdk/bl/bl_iot_sdk/toolchain/riscv/Linux/riscv64-unknown-elf/include/string.h"
	.file 35 "/home/hogc/build-tools/sdk/bl/bl_iot_sdk/components/stage/yloop/include/aos/kernel.h"
	.file 36 "/home/hogc/build-tools/sdk/bl/bl_iot_sdk/components/fs/vfs/include/vfs_register.h"
	.file 37 "/home/hogc/build-tools/sdk/bl/bl_iot_sdk/components/bl602/freertos_riscv_ram/config/portable.h"
	.file 38 "/home/hogc/build-tools/sdk/bl/bl_iot_sdk/components/hal_drv/bl602_hal/bl_dma.h"
	.file 39 "/home/hogc/build-tools/sdk/bl/bl_iot_sdk/components/hal_drv/bl602_hal/bl_irq.h"