	.file	"hal_pwm.c"
	.option nopic
	.attribute arch, "rv32i2p0_m2p0_f2p0_c2p0"
	.attribute unaligned_access, 0
	.attribute stack_align, 16
	.text
.Ltext0:
	.cfi_sections	.debug_frame
	.globl	__extendsfdf2
	.section	.text.__ev_complete,"ax",@progbits
	.align	1
	.type	__ev_complete, @function
__ev_complete:
.LFB76:
	.file 1 "/home/hogc/build-tools/sdk/bl/bl_iot_sdk/components/hal_drv/bl602_hal/hal_pwm.c"
	.loc 1 359 1
	.cfi_startproc
.LVL0:
	.loc 1 360 5
	.loc 1 361 5
	.loc 1 359 1 is_stmt 0
	addi	sp,sp,-16
	.cfi_def_cfa_offset 16
	sw	ra,12(sp)
	sw	s0,8(sp)
	.cfi_offset 1, -4
	.cfi_offset 8, -8
	.loc 1 361 5
	flw	fa0,4(a0)
	.loc 1 359 1
	mv	s0,a0
	.loc 1 361 5
	call	__extendsfdf2
.LVL1:
	mv	a2,a0
	lui	a0,%hi(.LC6)
	mv	a3,a1
	addi	a0,a0,%lo(.LC6)
	call	printf
.LVL2:
	.loc 1 362 5 is_stmt 1
	mv	a0,s0
	.loc 1 363 1 is_stmt 0
	lw	s0,8(sp)
	.cfi_restore 8
.LVL3:
	lw	ra,12(sp)
	.cfi_restore 1
	addi	sp,sp,16
	.cfi_def_cfa_offset 0
	.loc 1 362 5
	tail	vPortFree
.LVL4:
	.cfi_endproc
.LFE76:
	.size	__ev_complete, .-__ev_complete
	.section	.text.__loop_pwm_trigger,"ax",@progbits
	.align	1
	.type	__loop_pwm_trigger, @function
__loop_pwm_trigger:
.LFB75:
	.loc 1 339 1 is_stmt 1
	.cfi_startproc
.LVL5:
	.loc 1 340 5
	.loc 1 341 5
	.loc 1 343 5
	.loc 1 339 1 is_stmt 0
	addi	sp,sp,-48
	.cfi_def_cfa_offset 48
	sw	s0,40(sp)
	.cfi_offset 8, -8
	lui	s0,%hi(.LANCHOR0)
	sw	s2,32(sp)
	sw	s3,28(sp)
	sw	s4,24(sp)
	sw	s5,20(sp)
	sw	s6,16(sp)
	sw	s7,12(sp)
	sw	ra,44(sp)
	sw	s1,36(sp)
	.cfi_offset 18, -16
	.cfi_offset 19, -20
	.cfi_offset 20, -24
	.cfi_offset 21, -28
	.cfi_offset 22, -32
	.cfi_offset 23, -36
	.cfi_offset 1, -4
	.cfi_offset 9, -12
	addi	s4,s0,%lo(.LANCHOR0)
	.loc 1 343 5
	call	vTaskEnterCritical
.LVL6:
	.loc 1 344 5 is_stmt 1
	.loc 1 343 5 is_stmt 0
	addi	s0,s0,%lo(.LANCHOR0)
	.loc 1 341 13
	li	s3,1
	.loc 1 344 13
	li	s2,0
.LBB44:
.LBB45:
	.loc 1 332 51
	li	s5,24
	.loc 1 325 32
	li	s7,1
.LBE45:
.LBE44:
	.loc 1 344 5
	li	s6,5
.LVL7:
.L11:
	.loc 1 345 9 is_stmt 1
	.loc 1 345 12 is_stmt 0
	lbu	a5,8(s0)
	beq	a5,zero,.L5
	.loc 1 346 13 is_stmt 1
.LVL8:
.LBB48:
.LBB46:
	.loc 1 307 5
	.loc 1 308 5
	.loc 1 310 5
	.loc 1 310 8 is_stmt 0
	lw	a5,20(s0)
	bne	a5,zero,.L6
	.loc 1 311 9 is_stmt 1
	.loc 1 311 43 is_stmt 0
	mul	a0,s2,s5
	add	a0,s4,a0
	call	utils_list_pop_front
.LVL9:
	.loc 1 311 25
	sw	a0,20(s0)
.L6:
	.loc 1 313 5 is_stmt 1
	.loc 1 313 15 is_stmt 0
	lw	s1,20(s0)
.LVL10:
	.loc 1 313 8
	beq	s1,zero,.L5
	.loc 1 317 5 is_stmt 1
	.loc 1 317 13 is_stmt 0
	lw	a5,12(s1)
	.loc 1 317 8
	beq	a5,zero,.L5
	.loc 1 318 9 is_stmt 1
	.loc 1 318 24 is_stmt 0
	addi	a5,a5,-1
	sw	a5,12(s1)
	.loc 1 319 9 is_stmt 1
	.loc 1 319 43 is_stmt 0
	flw	fa0,16(s0)
	flw	fa5,8(s1)
	.loc 1 321 9
	andi	a0,s2,0xff
	.loc 1 319 43
	fadd.s	fa0,fa0,fa5
	.loc 1 319 25
	fsw	fa0,16(s0)
	.loc 1 321 9 is_stmt 1
	call	bl_pwm_set_duty
.LVL11:
	.loc 1 323 9
	.loc 1 323 12 is_stmt 0
	lw	a5,12(s1)
	bne	a5,zero,.L5
	.loc 1 324 13 is_stmt 1
	.loc 1 324 40 is_stmt 0
	flw	fa5,4(s1)
	.loc 1 324 16
	flw	fa4,16(s0)
	feq.s	a5,fa4,fa5
	bne	a5,zero,.L8
	.loc 1 325 17 is_stmt 1
	.loc 1 325 32 is_stmt 0
	sw	s7,12(s1)
	.loc 1 326 17 is_stmt 1
	.loc 1 326 48 is_stmt 0
	flw	fa4,16(s0)
	fsub.s	fa5,fa5,fa4
	.loc 1 326 35
	fsw	fa5,8(s1)
.LVL12:
.L5:
.LBE46:
.LBE48:
	.loc 1 348 9 is_stmt 1
	.loc 1 348 12 is_stmt 0
	lw	a5,20(s0)
	beq	a5,zero,.L10
	.loc 1 349 18
	li	s3,0
.LVL13:
.L10:
	.loc 1 344 28 discriminator 2
	addi	s2,s2,1
.LVL14:
	addi	s0,s0,24
	.loc 1 344 5 discriminator 2
	bne	s2,s6,.L11
	.loc 1 352 5 is_stmt 1
	.loc 1 352 8 is_stmt 0
	beq	s3,zero,.L12
	.loc 1 353 9 is_stmt 1
	call	loopset_pwm_trigger_stop
.LVL15:
.L12:
	.loc 1 355 5
	.loc 1 356 1 is_stmt 0
	lw	s0,40(sp)
	.cfi_remember_state
	.cfi_restore 8
	lw	ra,44(sp)
	.cfi_restore 1
	lw	s1,36(sp)
	.cfi_restore 9
	lw	s2,32(sp)
	.cfi_restore 18
.LVL16:
	lw	s3,28(sp)
	.cfi_restore 19
.LVL17:
	lw	s4,24(sp)
	.cfi_restore 20
	lw	s5,20(sp)
	.cfi_restore 21
	lw	s6,16(sp)
	.cfi_restore 22
	lw	s7,12(sp)
	.cfi_restore 23
	addi	sp,sp,48
	.cfi_def_cfa_offset 0
	.loc 1 355 5
	tail	vTaskExitCritical
.LVL18:
.L8:
	.cfi_restore_state
.LBB49:
.LBB47:
	.loc 1 328 17 is_stmt 1
	.loc 1 328 25 is_stmt 0
	lw	a5,16(s1)
	.loc 1 328 20
	beq	a5,zero,.L9
	.loc 1 329 21 is_stmt 1
	lw	a0,20(s1)
	jalr	a5
.LVL19:
.L9:
	.loc 1 332 17
	.loc 1 332 51 is_stmt 0
	mul	a0,s2,s5
	add	a0,s4,a0
	call	utils_list_pop_front
.LVL20:
	.loc 1 332 33
	sw	a0,20(s0)
	j	.L5
.LBE47:
.LBE49:
	.cfi_endproc
.LFE75:
	.size	__loop_pwm_trigger, .-__loop_pwm_trigger
	.section	.text.hal_pwm_init_bydev,"ax",@progbits
	.align	1
	.globl	hal_pwm_init_bydev
	.type	hal_pwm_init_bydev, @function
hal_pwm_init_bydev:
.LFB65:
	.loc 1 149 1 is_stmt 1
	.cfi_startproc
.LVL21:
	.loc 1 150 5
	.loc 1 152 5
	.loc 1 153 5
	.loc 1 149 1 is_stmt 0
	addi	sp,sp,-16
	.cfi_def_cfa_offset 16
	sw	ra,12(sp)
.LVL22:
	.cfi_offset 1, -4
	.loc 1 153 9
	lw	a0,12(a0)
.LVL23:
	call	aos_mutex_new
.LVL24:
	.loc 1 158 1
	lw	ra,12(sp)
	.cfi_restore 1
	.loc 1 153 8
	snez	a0,a0
	.loc 1 158 1
	neg	a0,a0
	addi	sp,sp,16
	.cfi_def_cfa_offset 0
	jr	ra
	.cfi_endproc
.LFE65:
	.size	hal_pwm_init_bydev, .-hal_pwm_init_bydev
	.section	.text.hal_pwm_finalize_bydev,"ax",@progbits
	.align	1
	.globl	hal_pwm_finalize_bydev
	.type	hal_pwm_finalize_bydev, @function
hal_pwm_finalize_bydev:
.LFB66:
	.loc 1 161 1 is_stmt 1
	.cfi_startproc
.LVL25:
	.loc 1 162 5
	.loc 1 164 5
	.loc 1 165 5
	.loc 1 161 1 is_stmt 0
	addi	sp,sp,-16
	.cfi_def_cfa_offset 16
	sw	ra,12(sp)
.LVL26:
	.cfi_offset 1, -4
	.loc 1 165 5
	lw	a0,12(a0)
.LVL27:
	call	aos_mutex_free
.LVL28:
	.loc 1 167 5 is_stmt 1
	.loc 1 168 1 is_stmt 0
	lw	ra,12(sp)
	.cfi_restore 1
	li	a0,0
	addi	sp,sp,16
	.cfi_def_cfa_offset 0
	jr	ra
	.cfi_endproc
.LFE66:
	.size	hal_pwm_finalize_bydev, .-hal_pwm_finalize_bydev
	.section	.text.vfs_pwm_init,"ax",@progbits
	.align	1
	.globl	vfs_pwm_init
	.type	vfs_pwm_init, @function
vfs_pwm_init:
.LFB68:
	.loc 1 262 1 is_stmt 1
	.cfi_startproc
.LVL29:
	.loc 1 263 5
	.loc 1 263 16 is_stmt 0
	lui	a5,%hi(.LANCHOR1)
	.loc 1 263 8
	lb	a3,%lo(.LANCHOR1)(a5)
	.loc 1 262 1
	addi	sp,sp,-128
	.cfi_def_cfa_offset 128
	addi	a5,a5,%lo(.LANCHOR1)
	sw	ra,124(sp)
	sw	s0,120(sp)
	sw	s1,116(sp)
	sw	s2,112(sp)
	sw	s3,108(sp)
	sw	s4,104(sp)
	sw	s5,100(sp)
	sw	s6,96(sp)
	sw	s7,92(sp)
	sw	s8,88(sp)
	sw	s9,84(sp)
	sw	s10,80(sp)
	sw	s11,76(sp)
	.cfi_offset 1, -4
	.cfi_offset 8, -8
	.cfi_offset 9, -12
	.cfi_offset 18, -16
	.cfi_offset 19, -20
	.cfi_offset 20, -24
	.cfi_offset 21, -28
	.cfi_offset 22, -32
	.cfi_offset 23, -36
	.cfi_offset 24, -40
	.cfi_offset 25, -44
	.cfi_offset 26, -48
	.cfi_offset 27, -52
	.loc 1 263 8
	li	a4,1
	sw	a5,20(sp)
	beq	a3,a4,.L35
	sw	a1,28(sp)
.LBB96:
.LBB97:
	.loc 1 190 17
	lui	a1,%hi(.LANCHOR2)
.LVL30:
	mv	s3,a0
.LBE97:
.LBE96:
	.loc 1 267 5 is_stmt 1
.LVL31:
.LBB148:
.LBB146:
	.loc 1 177 5
	.loc 1 179 5
	.loc 1 180 5
	.loc 1 190 17 is_stmt 0
	li	a2,20
	addi	a1,a1,%lo(.LANCHOR2)
	addi	a0,sp,44
.LVL32:
	.loc 1 180 9
	sw	zero,40(sp)
	.loc 1 181 5 is_stmt 1
.LVL33:
	.loc 1 182 5
	.loc 1 183 5
	.loc 1 185 5
	.loc 1 186 5
	.loc 1 187 5
	.loc 1 188 5
	.loc 1 190 5
	.loc 1 190 17 is_stmt 0
	call	memcpy
.LVL34:
	.loc 1 198 5 is_stmt 1
	lui	a5,%hi(.LANCHOR3)
	addi	a5,a5,%lo(.LANCHOR3)
	addi	s8,sp,44
	.loc 1 198 12 is_stmt 0
	li	s2,0
	lui	s0,%hi(TrapNetCounter)
	lui	s1,%hi(.LC8)
	lui	s5,%hi(.LC9)
	.loc 1 204 22
	lui	s11,%hi(.LC11)
	.loc 1 216 22
	lui	s10,%hi(.LC15)
	sw	a5,24(sp)
.LVL35:
.L82:
	.loc 1 199 9 is_stmt 1
	.loc 1 199 19 is_stmt 0
	lw	s4,0(s8)
	lw	a1,28(sp)
	mv	a0,s3
	mv	a2,s4
	call	fdt_subnode_offset
.LVL36:
	mv	s6,a0
.LVL37:
	.loc 1 200 9 is_stmt 1
	.loc 1 200 12 is_stmt 0
	bgt	a0,zero,.L36
	.loc 1 201 13 is_stmt 1
	.loc 1 201 18
	.loc 1 201 20
.LBB98:
.LBB99:
	.file 2 "/home/hogc/build-tools/sdk/bl/bl_iot_sdk/components/bl602/freertos_riscv_ram/portable/GCC/RISC-V/portmacro.h"
	.loc 2 151 5
.LBE99:
.LBE98:
	.loc 1 201 20 is_stmt 0
	lw	a5,%lo(TrapNetCounter)(s0)
	beq	a5,zero,.L37
	.loc 1 201 104
	call	xTaskGetTickCountFromISR
.LVL38:
.L38:
	.loc 1 201 20
	mv	a1,a0
	lui	a0,%hi(.LC10)
	mv	a6,s4
	mv	a5,s2
	li	a4,201
	addi	a3,s1,%lo(.LC8)
	addi	a2,s5,%lo(.LC9)
	addi	a0,a0,%lo(.LC10)
.LVL39:
.L92:
	.loc 1 206 20
	call	bl_printk
.LVL40:
	.loc 1 206 234 is_stmt 1
	.loc 1 207 13
.L39:
	.loc 1 256 200
	.loc 1 198 25 is_stmt 0
	addi	s2,s2,1
.LVL41:
	.loc 1 198 5
	li	a5,5
	addi	s8,s8,4
	bne	s2,a5,.L82
.LVL42:
.LBE146:
.LBE148:
	.loc 1 269 5 is_stmt 1
	.loc 1 269 12 is_stmt 0
	lw	a4,20(sp)
	li	a5,1
	sb	a5,0(a4)
	.loc 1 271 5 is_stmt 1
.LVL43:
.L35:
	.loc 1 272 1 is_stmt 0
	lw	ra,124(sp)
	.cfi_remember_state
	.cfi_restore 1
	lw	s0,120(sp)
	.cfi_restore 8
	lw	s1,116(sp)
	.cfi_restore 9
	lw	s2,112(sp)
	.cfi_restore 18
	lw	s3,108(sp)
	.cfi_restore 19
	lw	s4,104(sp)
	.cfi_restore 20
	lw	s5,100(sp)
	.cfi_restore 21
	lw	s6,96(sp)
	.cfi_restore 22
	lw	s7,92(sp)
	.cfi_restore 23
	lw	s8,88(sp)
	.cfi_restore 24
	lw	s9,84(sp)
	.cfi_restore 25
	lw	s10,80(sp)
	.cfi_restore 26
	lw	s11,76(sp)
	.cfi_restore 27
	li	a0,0
	addi	sp,sp,128
	.cfi_def_cfa_offset 0
	jr	ra
.LVL44:
.L37:
	.cfi_restore_state
.LBB149:
.LBB147:
	.loc 1 201 133
	call	xTaskGetTickCount
.LVL45:
	j	.L38
.LVL46:
.L36:
	.loc 1 204 9 is_stmt 1
	.loc 1 204 22 is_stmt 0
	mv	a1,a0
	addi	a2,s11,%lo(.LC11)
	mv	a0,s3
.LVL47:
	call	fdt_stringlist_count
.LVL48:
	.loc 1 205 12
	li	a5,1
	.loc 1 204 22
	mv	s4,a0
.LVL49:
	.loc 1 205 9 is_stmt 1
	.loc 1 205 12 is_stmt 0
	beq	a0,a5,.L40
	.loc 1 206 13 is_stmt 1
	.loc 1 206 18
	.loc 1 206 20
.LBB100:
.LBB101:
	.loc 2 151 5
.LBE101:
.LBE100:
	.loc 1 206 20 is_stmt 0
	lw	a5,%lo(TrapNetCounter)(s0)
	beq	a5,zero,.L41
	.loc 1 206 124
	call	xTaskGetTickCountFromISR
.LVL50:
.L42:
	.loc 1 206 20
	mv	a1,a0
	lui	a0,%hi(.LC12)
	mv	a6,s4
	mv	a5,s2
	li	a4,206
	addi	a3,s1,%lo(.LC8)
	addi	a2,s5,%lo(.LC9)
	addi	a0,a0,%lo(.LC12)
	j	.L92
.LVL51:
.L41:
	.loc 1 206 153
	call	xTaskGetTickCount
.LVL52:
	j	.L42
.LVL53:
.L40:
	.loc 1 209 9 is_stmt 1
	.loc 1 209 18 is_stmt 0
	addi	a4,sp,40
	li	a3,0
	addi	a2,s11,%lo(.LC11)
	mv	a1,s6
	mv	a0,s3
.LVL54:
	call	fdt_stringlist_get
.LVL55:
	.loc 1 210 12
	lw	a4,40(sp)
	li	a5,4
	.loc 1 209 18
	mv	s7,a0
.LVL56:
	.loc 1 210 9 is_stmt 1
	.loc 1 210 12 is_stmt 0
	beq	a4,a5,.L43
.LVL57:
.L46:
	.loc 1 211 13 is_stmt 1
	.loc 1 211 18
	.loc 1 211 20
.LBB102:
.LBB103:
	.loc 2 151 5
.LBE103:
.LBE102:
	.loc 1 211 20 is_stmt 0
	lw	a5,%lo(TrapNetCounter)(s0)
	bne	a5,zero,.L44
	.loc 1 211 136
	call	xTaskGetTickCount
.LVL58:
	j	.L48
.LVL59:
.L43:
	.loc 1 210 31
	lui	a5,%hi(.LC13)
	mv	a1,a0
	li	a2,4
	addi	a0,a5,%lo(.LC13)
.LVL60:
	call	memcmp
.LVL61:
	.loc 1 210 27
	bne	a0,zero,.L46
	.loc 1 216 9 is_stmt 1
	.loc 1 216 22 is_stmt 0
	addi	a2,s10,%lo(.LC15)
	mv	a1,s6
	mv	a0,s3
	call	fdt_stringlist_count
.LVL62:
	mv	s7,a0
.LVL63:
	.loc 1 217 9 is_stmt 1
	.loc 1 217 12 is_stmt 0
	beq	a0,s4,.L49
	.loc 1 218 13 is_stmt 1
	.loc 1 218 18
	.loc 1 218 20
.LBB104:
.LBB105:
	.loc 2 151 5
.LBE105:
.LBE104:
	.loc 1 218 20 is_stmt 0
	lw	a5,%lo(TrapNetCounter)(s0)
	beq	a5,zero,.L50
	.loc 1 218 122
	call	xTaskGetTickCountFromISR
.LVL64:
.L51:
	.loc 1 218 20
	mv	a1,a0
	lui	a0,%hi(.LC16)
	mv	a6,s7
	mv	a5,s2
	li	a4,218
	addi	a3,s1,%lo(.LC8)
	addi	a2,s5,%lo(.LC9)
	addi	a0,a0,%lo(.LC16)
	j	.L92
.LVL65:
.L44:
	.loc 1 211 107
	call	xTaskGetTickCountFromISR
.LVL66:
.L48:
	.loc 1 211 20
	mv	a1,a0
	lui	a0,%hi(.LC14)
	mv	a6,s7
	mv	a5,s2
	li	a4,211
	addi	a3,s1,%lo(.LC8)
	addi	a2,s5,%lo(.LC9)
	addi	a0,a0,%lo(.LC14)
	j	.L92
.LVL67:
.L50:
	.loc 1 218 151
	call	xTaskGetTickCount
.LVL68:
	j	.L51
.LVL69:
.L49:
	.loc 1 221 9 is_stmt 1
	.loc 1 221 18 is_stmt 0
	addi	a4,sp,40
	li	a3,0
	addi	a2,s10,%lo(.LC15)
	mv	a1,s6
	mv	a0,s3
.LVL70:
	call	fdt_stringlist_get
.LVL71:
	.loc 1 222 12
	lw	a4,40(sp)
	li	a5,32
	.loc 1 221 18
	mv	s9,a0
.LVL72:
	.loc 1 222 9 is_stmt 1
	.loc 1 222 12 is_stmt 0
	bleu	a4,a5,.L52
	.loc 1 224 13 is_stmt 1
	.loc 1 224 18
	.loc 1 224 20
.LBB106:
.LBB107:
	.loc 2 151 5
.LBE107:
.LBE106:
	.loc 1 224 20 is_stmt 0
	lw	a5,%lo(TrapNetCounter)(s0)
	beq	a5,zero,.L53
	.loc 1 224 112
	call	xTaskGetTickCountFromISR
.LVL73:
.L54:
	.loc 1 224 20
	lw	a6,40(sp)
	mv	a1,a0
	lui	a0,%hi(.LC17)
	mv	a5,s2
	li	a4,224
	addi	a3,s1,%lo(.LC8)
	addi	a2,s5,%lo(.LC9)
	addi	a0,a0,%lo(.LC17)
	call	bl_printk
.LVL74:
.L52:
	.loc 1 224 218 is_stmt 1
	.loc 1 226 9
	.loc 1 229 9
	.loc 1 229 21 is_stmt 0
	lui	a2,%hi(.LC18)
	addi	a3,sp,40
	addi	a2,a2,%lo(.LC18)
	mv	a1,s6
	mv	a0,s3
	call	fdt_getprop
.LVL75:
	.loc 1 230 9 is_stmt 1
	.loc 1 230 12 is_stmt 0
	bne	a0,zero,.L55
	.loc 1 231 13 is_stmt 1
	.loc 1 231 18
	.loc 1 231 20
.LBB108:
.LBB109:
	.loc 2 151 5
.LBE109:
.LBE108:
	.loc 1 231 20 is_stmt 0
	lw	a5,%lo(TrapNetCounter)(s0)
	beq	a5,zero,.L56
	.loc 1 231 104
	call	xTaskGetTickCountFromISR
.LVL76:
.L57:
	.loc 1 231 20
	mv	a1,a0
	lui	a0,%hi(.LC19)
	mv	a5,s2
	li	a4,231
	addi	a3,s1,%lo(.LC8)
	addi	a2,s5,%lo(.LC9)
	addi	a0,a0,%lo(.LC19)
.LVL77:
.L93:
	.loc 1 247 20
	call	bl_printk
.LVL78:
	.loc 1 247 204 is_stmt 1
	.loc 1 248 13
	j	.L39
.LVL79:
.L53:
	.loc 1 224 141 is_stmt 0
	call	xTaskGetTickCount
.LVL80:
	j	.L54
.LVL81:
.L56:
	.loc 1 231 133
	call	xTaskGetTickCount
.LVL82:
	j	.L57
.LVL83:
.L55:
	.loc 1 234 9 is_stmt 1
	.loc 1 237 21 is_stmt 0
	lui	a2,%hi(.LC20)
	.loc 1 234 24
	lw	s4,0(a0)
.LVL84:
.LBB110:
.LBB111:
	.file 3 "/home/hogc/build-tools/sdk/bl/bl_iot_sdk/components/stage/blfdt/inc/libfdt_env.h"
	.loc 3 122 5 is_stmt 1
.LBE111:
.LBE110:
	.loc 1 237 9
	.loc 1 237 21 is_stmt 0
	addi	a3,sp,40
	addi	a2,a2,%lo(.LC20)
	mv	a1,s6
	mv	a0,s3
.LVL85:
	call	fdt_getprop
.LVL86:
	.loc 1 238 9 is_stmt 1
	.loc 1 238 12 is_stmt 0
	bne	a0,zero,.L58
	.loc 1 239 13 is_stmt 1
	.loc 1 239 18
	.loc 1 239 20
.LBB113:
.LBB114:
	.loc 2 151 5
.LBE114:
.LBE113:
	.loc 1 239 20 is_stmt 0
	lw	a5,%lo(TrapNetCounter)(s0)
	beq	a5,zero,.L59
	.loc 1 239 105
	call	xTaskGetTickCountFromISR
.LVL87:
.L60:
	.loc 1 239 20
	mv	a1,a0
	lui	a0,%hi(.LC21)
	mv	a5,s2
	li	a4,239
	addi	a3,s1,%lo(.LC8)
	addi	a2,s5,%lo(.LC9)
	addi	a0,a0,%lo(.LC21)
	j	.L93
.LVL88:
.L59:
	.loc 1 239 134
	call	xTaskGetTickCount
.LVL89:
	j	.L60
.LVL90:
.L58:
	.loc 1 242 9 is_stmt 1
	.loc 1 242 25 is_stmt 0
	lw	a5,0(a0)
.LVL91:
.LBB115:
.LBB116:
	.loc 3 122 5 is_stmt 1
.LBE116:
.LBE115:
	.loc 1 245 21 is_stmt 0
	lui	a2,%hi(.LC22)
	addi	a3,sp,40
.LBB118:
.LBB117:
	.loc 3 122 212
	srli	a4,a5,24
	.loc 3 122 12
	slli	s7,a5,24
.LVL92:
	or	s7,s7,a4
	.loc 3 122 112
	srli	a4,a5,8
	andi	a4,a4,0xff
	.loc 3 122 163
	srli	a5,a5,16
.LVL93:
	.loc 3 122 117
	slli	a4,a4,16
	.loc 3 122 163
	andi	a5,a5,0xff
	.loc 3 122 168
	slli	a5,a5,8
	.loc 3 122 12
	or	s7,s7,a4
	or	s7,s7,a5
.LVL94:
.LBE117:
.LBE118:
	.loc 1 242 13
	andi	a5,s7,0xff
	.loc 1 245 21
	addi	a2,a2,%lo(.LC22)
	mv	a1,s6
	mv	a0,s3
.LVL95:
	.loc 1 242 13
	sw	a5,16(sp)
.LVL96:
	.loc 1 245 9 is_stmt 1
	.loc 1 245 21 is_stmt 0
	call	fdt_getprop
.LVL97:
	.loc 1 246 9 is_stmt 1
	.loc 1 246 12 is_stmt 0
	bne	a0,zero,.L61
	.loc 1 247 13 is_stmt 1
	.loc 1 247 18
	.loc 1 247 20
.LBB119:
.LBB120:
	.loc 2 151 5
.LBE120:
.LBE119:
	.loc 1 247 20 is_stmt 0
	lw	a5,%lo(TrapNetCounter)(s0)
	beq	a5,zero,.L62
	.loc 1 247 106
	call	xTaskGetTickCountFromISR
.LVL98:
.L63:
	.loc 1 247 20
	mv	a1,a0
	lui	a0,%hi(.LC23)
	mv	a5,s2
	li	a4,247
	addi	a3,s1,%lo(.LC8)
	addi	a2,s5,%lo(.LC9)
	addi	a0,a0,%lo(.LC23)
	j	.L93
.LVL99:
.L62:
	.loc 1 247 135
	call	xTaskGetTickCount
.LVL100:
	j	.L63
.LVL101:
.L61:
	.loc 1 250 9 is_stmt 1
	.loc 1 250 27 is_stmt 0
	lw	a5,0(a0)
.LVL102:
.LBB121:
.LBB122:
	.loc 3 122 5 is_stmt 1
	.loc 3 122 212 is_stmt 0
	srli	a4,a5,24
	.loc 3 122 12
	slli	s6,a5,24
.LVL103:
	or	s6,s6,a4
	.loc 3 122 112
	srli	a4,a5,8
	andi	a4,a4,0xff
	.loc 3 122 163
	srli	a5,a5,16
.LVL104:
	.loc 3 122 117
	slli	a4,a4,16
	.loc 3 122 163
	andi	a5,a5,0xff
	.loc 3 122 168
	slli	a5,a5,8
	.loc 3 122 12
	or	s6,s6,a4
	or	s6,s6,a5
.LVL105:
.LBE122:
.LBE121:
	.loc 1 252 9 is_stmt 1
	.loc 1 252 14
	.loc 1 252 16
.LBB123:
.LBB124:
	.loc 2 151 5
.LBE124:
.LBE123:
	.loc 1 252 16 is_stmt 0
	lw	a5,%lo(TrapNetCounter)(s0)
	beq	a5,zero,.L64
	.loc 1 252 124
	call	xTaskGetTickCountFromISR
.LVL106:
.L65:
.LBB125:
.LBB112:
	.loc 3 122 212
	srli	a5,s4,24
	.loc 3 122 12
	slli	a6,s4,24
	or	a6,a6,a5
	.loc 3 122 112
	srli	a5,s4,8
	andi	a5,a5,0xff
	.loc 3 122 117
	slli	a5,a5,16
	.loc 3 122 12
	or	a5,a6,a5
	.loc 3 122 163
	srli	a6,s4,16
	andi	a6,a6,0xff
	.loc 3 122 168
	slli	a6,a6,8
	.loc 3 122 12
	or	a6,a5,a6
.LBE112:
.LBE125:
	.loc 1 252 16
	mv	a1,a0
	.loc 1 234 12
	andi	s4,a6,0xff
.LVL107:
	.loc 1 252 16
	lui	a0,%hi(.LC24)
	mv	a5,s9
	andi	a7,s7,0xff
	mv	a6,s4
	li	a4,253
	addi	a3,s1,%lo(.LC8)
	addi	a2,s5,%lo(.LC9)
	addi	a0,a0,%lo(.LC24)
	sw	s6,0(sp)
	call	bl_printk
.LVL108:
	.loc 1 252 33 is_stmt 1
	.loc 1 254 9
	lw	a1,16(sp)
	mv	a2,s6
	mv	a0,s4
	call	bl_pwm_init
.LVL109:
	.loc 1 255 9
.LBB126:
.LBB127:
	.loc 1 99 5
	.loc 1 100 5
	.loc 1 102 5
	.loc 1 102 8 is_stmt 0
	li	a5,2
	bgtu	s4,a5,.L66
	.loc 1 102 19
	bne	s9,zero,.L67
.L66:
	.loc 1 103 9 is_stmt 1
	.loc 1 103 14
	.loc 1 103 16
.LBB128:
.LBB129:
	.loc 2 151 5
.LBE129:
.LBE128:
	.loc 1 103 16 is_stmt 0
	lw	a5,%lo(TrapNetCounter)(s0)
	beq	a5,zero,.L68
	.loc 1 103 92
	call	xTaskGetTickCountFromISR
.LVL110:
.L69:
	.loc 1 103 16
	li	a4,103
.LVL111:
.L94:
.LBB130:
.LBB131:
	.loc 1 67 16
	lui	a2,%hi(.LC25)
	mv	a1,a0
	lui	a0,%hi(.LC26)
	addi	a3,s1,%lo(.LC8)
	addi	a2,a2,%lo(.LC25)
	addi	a0,a0,%lo(.LC26)
.L90:
	.loc 1 73 16
	call	bl_printk
.LVL112:
	.loc 1 73 186 is_stmt 1
	.loc 1 74 9
.L70:
.LBE131:
.LBE130:
.LBE127:
.LBE126:
	.loc 1 256 13
	.loc 1 256 18
	.loc 1 256 20
.LBB143:
.LBB144:
	.loc 2 151 5
.LBE144:
.LBE143:
	.loc 1 256 20 is_stmt 0
	lw	a5,%lo(TrapNetCounter)(s0)
	beq	a5,zero,.L80
	.loc 1 256 105
	call	xTaskGetTickCountFromISR
.LVL113:
.L81:
	.loc 1 256 20
	mv	a1,a0
	lui	a2,%hi(.LC25)
	lui	a0,%hi(.LC28)
	li	a4,256
	addi	a3,s1,%lo(.LC8)
	addi	a2,a2,%lo(.LC25)
	addi	a0,a0,%lo(.LC28)
	call	bl_printk
.LVL114:
	j	.L39
.LVL115:
.L64:
	.loc 1 252 153
	call	xTaskGetTickCount
.LVL116:
	j	.L65
.LVL117:
.L68:
.LBB145:
.LBB142:
	.loc 1 103 121
	call	xTaskGetTickCount
.LVL118:
	j	.L69
.L67:
	.loc 1 107 5 is_stmt 1
	lw	a4,24(sp)
	slli	a5,s4,2
	add	a5,a4,a5
	lw	s6,0(a5)
.LVL119:
	.loc 1 132 11
	.loc 1 135 5
.LBB139:
.LBB138:
	.loc 1 66 5
	.loc 1 66 8 is_stmt 0
	lw	a5,0(s6)
	beq	a5,zero,.L71
	.loc 1 67 9 is_stmt 1
	.loc 1 67 14
	.loc 1 67 16
.LBB132:
.LBB133:
	.loc 2 151 5
.LBE133:
.LBE132:
	.loc 1 67 16 is_stmt 0
	lw	a5,%lo(TrapNetCounter)(s0)
	beq	a5,zero,.L72
	.loc 1 67 92
	call	xTaskGetTickCountFromISR
.LVL120:
.L73:
	.loc 1 67 16
	li	a4,67
	j	.L94
.L72:
	.loc 1 67 121
	call	xTaskGetTickCount
.LVL121:
	j	.L73
.L71:
	.loc 1 71 5 is_stmt 1
	.loc 1 71 13 is_stmt 0
	li	a0,16
	call	pvPortMalloc
.LVL122:
	.loc 1 71 11
	sw	a0,0(s6)
	.loc 1 72 5 is_stmt 1
	.loc 1 72 8 is_stmt 0
	bne	a0,zero,.L74
	.loc 1 73 9 is_stmt 1
	.loc 1 73 14
	.loc 1 73 16
.LBB134:
.LBB135:
	.loc 2 151 5
.LBE135:
.LBE134:
	.loc 1 73 16 is_stmt 0
	lw	a5,%lo(TrapNetCounter)(s0)
	beq	a5,zero,.L75
	.loc 1 73 92
	call	xTaskGetTickCountFromISR
.LVL123:
.L76:
	.loc 1 73 16
	li	a4,73
.L91:
	lui	a2,%hi(.LC25)
	mv	a1,a0
	lui	a0,%hi(.LC27)
	addi	a3,s1,%lo(.LC8)
	addi	a2,a2,%lo(.LC25)
	addi	a0,a0,%lo(.LC27)
	j	.L90
.L75:
	.loc 1 73 121
	call	xTaskGetTickCount
.LVL124:
	j	.L76
.L74:
	.loc 1 77 5 is_stmt 1
	.loc 1 77 19 is_stmt 0
	sw	zero,12(a0)
	.loc 1 78 5 is_stmt 1
	.loc 1 78 6 is_stmt 0
	lw	s7,0(s6)
	.loc 1 78 21
	li	a0,4
	call	pvPortMalloc
.LVL125:
	.loc 1 78 19
	sw	a0,12(s7)
	.loc 1 79 5 is_stmt 1
	.loc 1 79 10 is_stmt 0
	lw	a5,0(s6)
	.loc 1 79 8
	lw	a4,12(a5)
	bne	a4,zero,.L77
	.loc 1 80 9 is_stmt 1
	.loc 1 80 14
	.loc 1 80 16
.LBB136:
.LBB137:
	.loc 2 151 5
.LBE137:
.LBE136:
	.loc 1 80 16 is_stmt 0
	lw	a5,%lo(TrapNetCounter)(s0)
	beq	a5,zero,.L78
	.loc 1 80 92
	call	xTaskGetTickCountFromISR
.LVL126:
.L79:
	.loc 1 80 16
	li	a4,80
	j	.L91
.L78:
	.loc 1 80 121
	call	xTaskGetTickCount
.LVL127:
	j	.L79
.L77:
.LVL128:
.LBE138:
.LBE139:
	.loc 1 139 5 is_stmt 1
.LBB140:
.LBB141:
	.loc 1 89 5
	.loc 1 94 5
	.loc 1 94 19 is_stmt 0
	sb	s4,0(a5)
.LBE141:
.LBE140:
	.loc 1 140 5 is_stmt 1
	.loc 1 140 11 is_stmt 0
	lw	a2,0(s6)
	lui	a1,%hi(pwm_ops)
	addi	a1,a1,%lo(pwm_ops)
	mv	a0,s9
	call	aos_register_driver
.LVL129:
	.loc 1 141 5 is_stmt 1
	.loc 1 141 8 is_stmt 0
	beq	a0,zero,.L39
	j	.L70
.LVL130:
.L80:
.LBE142:
.LBE145:
	.loc 1 256 134
	call	xTaskGetTickCount
.LVL131:
	j	.L81
.LBE147:
.LBE149:
	.cfi_endproc
.LFE68:
	.size	vfs_pwm_init, .-vfs_pwm_init
	.section	.text.hal_pwm_start_bydev,"ax",@progbits
	.align	1
	.globl	hal_pwm_start_bydev
	.type	hal_pwm_start_bydev, @function
hal_pwm_start_bydev:
.LFB69:
	.loc 1 275 1 is_stmt 1
	.cfi_startproc
.LVL132:
	.loc 1 276 5
	.loc 1 275 1 is_stmt 0
	addi	sp,sp,-16
	.cfi_def_cfa_offset 16
	sw	ra,12(sp)
	.cfi_offset 1, -4
	.loc 1 276 5
	lbu	a0,0(a0)
.LVL133:
	call	bl_pwm_start
.LVL134:
	.loc 1 277 5 is_stmt 1
	.loc 1 278 1 is_stmt 0
	lw	ra,12(sp)
	.cfi_restore 1
	li	a0,0
	addi	sp,sp,16
	.cfi_def_cfa_offset 0
	jr	ra
	.cfi_endproc
.LFE69:
	.size	hal_pwm_start_bydev, .-hal_pwm_start_bydev
	.section	.text.hal_pwm_stop_bydev,"ax",@progbits
	.align	1
	.globl	hal_pwm_stop_bydev
	.type	hal_pwm_stop_bydev, @function
hal_pwm_stop_bydev:
.LFB70:
	.loc 1 281 1 is_stmt 1
	.cfi_startproc
.LVL135:
	.loc 1 282 5
	.loc 1 281 1 is_stmt 0
	addi	sp,sp,-16
	.cfi_def_cfa_offset 16
	sw	ra,12(sp)
	.cfi_offset 1, -4
	.loc 1 282 5
	lbu	a0,0(a0)
.LVL136:
	call	bl_pwm_stop
.LVL137:
	.loc 1 283 5 is_stmt 1
	.loc 1 284 1 is_stmt 0
	lw	ra,12(sp)
	.cfi_restore 1
	li	a0,0
	addi	sp,sp,16
	.cfi_def_cfa_offset 0
	jr	ra
	.cfi_endproc
.LFE70:
	.size	hal_pwm_stop_bydev, .-hal_pwm_stop_bydev
	.section	.text.hal_pwm_para_chg_bydev,"ax",@progbits
	.align	1
	.globl	hal_pwm_para_chg_bydev
	.type	hal_pwm_para_chg_bydev, @function
hal_pwm_para_chg_bydev:
.LFB71:
	.loc 1 287 1 is_stmt 1
	.cfi_startproc
.LVL138:
	.loc 1 288 5
	.loc 1 287 1 is_stmt 0
	addi	sp,sp,-16
	.cfi_def_cfa_offset 16
	.loc 1 289 1
	li	a0,0
.LVL139:
	addi	sp,sp,16
	.cfi_def_cfa_offset 0
	jr	ra
	.cfi_endproc
.LFE71:
	.size	hal_pwm_para_chg_bydev, .-hal_pwm_para_chg_bydev
	.section	.text.hal_pwm_set_duty_bydev,"ax",@progbits
	.align	1
	.globl	hal_pwm_set_duty_bydev
	.type	hal_pwm_set_duty_bydev, @function
hal_pwm_set_duty_bydev:
.LFB72:
	.loc 1 292 1 is_stmt 1
	.cfi_startproc
.LVL140:
	.loc 1 294 5
	.loc 1 292 1 is_stmt 0
	addi	sp,sp,-16
	.cfi_def_cfa_offset 16
	sw	ra,12(sp)
	.cfi_offset 1, -4
	.loc 1 294 5
	lbu	a0,0(a0)
.LVL141:
	call	bl_pwm_set_duty
.LVL142:
	.loc 1 295 5 is_stmt 1
	.loc 1 296 1 is_stmt 0
	lw	ra,12(sp)
	.cfi_restore 1
	li	a0,0
	addi	sp,sp,16
	.cfi_def_cfa_offset 0
	jr	ra
	.cfi_endproc
.LFE72:
	.size	hal_pwm_set_duty_bydev, .-hal_pwm_set_duty_bydev
	.section	.text.hal_pwm_set_freq_bydev,"ax",@progbits
	.align	1
	.globl	hal_pwm_set_freq_bydev
	.type	hal_pwm_set_freq_bydev, @function
hal_pwm_set_freq_bydev:
.LFB73:
	.loc 1 299 1 is_stmt 1
	.cfi_startproc
.LVL143:
	.loc 1 300 5
	.loc 1 300 10
	.loc 1 300 12
.LBB150:
.LBB151:
	.loc 2 151 5
	.loc 2 151 31 is_stmt 0
	lui	a5,%hi(TrapNetCounter)
.LBE151:
.LBE150:
	.loc 1 300 12
	lw	a5,%lo(TrapNetCounter)(a5)
	.loc 1 299 1
	addi	sp,sp,-16
	.cfi_def_cfa_offset 16
	sw	s0,8(sp)
	sw	s1,4(sp)
	sw	ra,12(sp)
	.cfi_offset 8, -8
	.cfi_offset 9, -12
	.cfi_offset 1, -4
	.loc 1 299 1
	mv	s0,a0
	mv	s1,a1
	.loc 1 300 12
	beq	a5,zero,.L104
	.loc 1 300 92 discriminator 1
	call	xTaskGetTickCountFromISR
.LVL144:
.L105:
	.loc 1 300 12 discriminator 4
	mv	a1,a0
	lui	a3,%hi(.LC8)
	lui	a2,%hi(.LC25)
	lui	a0,%hi(.LC29)
	li	a4,300
	addi	a3,a3,%lo(.LC8)
	addi	a2,a2,%lo(.LC25)
	addi	a0,a0,%lo(.LC29)
	call	bl_printk
.LVL145:
	.loc 1 300 187 is_stmt 1 discriminator 4
	.loc 1 301 5 discriminator 4
	lbu	a0,0(s0)
	mv	a1,s1
	call	bl_pwm_set_freq
.LVL146:
	.loc 1 302 5 discriminator 4
	.loc 1 303 1 is_stmt 0 discriminator 4
	lw	ra,12(sp)
	.cfi_remember_state
	.cfi_restore 1
	lw	s0,8(sp)
	.cfi_restore 8
.LVL147:
	lw	s1,4(sp)
	.cfi_restore 9
.LVL148:
	li	a0,0
	addi	sp,sp,16
	.cfi_def_cfa_offset 0
	jr	ra
.LVL149:
.L104:
	.cfi_restore_state
	.loc 1 300 121 discriminator 2
	call	xTaskGetTickCount
.LVL150:
	j	.L105
	.cfi_endproc
.LFE73:
	.size	hal_pwm_set_freq_bydev, .-hal_pwm_set_freq_bydev
	.section	.text.hal_pwm_start,"ax",@progbits
	.align	1
	.globl	hal_pwm_start
	.type	hal_pwm_start, @function
hal_pwm_start:
.LFB77:
	.loc 1 366 1 is_stmt 1
	.cfi_startproc
.LVL151:
	.loc 1 367 5
	.loc 1 367 8 is_stmt 0
	li	a5,4
	bgtu	a0,a5,.L109
	.loc 1 371 5 is_stmt 1
	.loc 1 366 1 is_stmt 0
	addi	sp,sp,-16
	.cfi_def_cfa_offset 16
	sw	ra,12(sp)
	.cfi_offset 1, -4
	.loc 1 371 5
	call	bl_pwm_start
.LVL152:
	.loc 1 372 5 is_stmt 1
	.loc 1 373 1 is_stmt 0
	lw	ra,12(sp)
	.cfi_restore 1
	.loc 1 372 12
	li	a0,0
	.loc 1 373 1
	addi	sp,sp,16
	.cfi_def_cfa_offset 0
	jr	ra
.LVL153:
.L109:
	.loc 1 368 16
	li	a0,-1
.LVL154:
	.loc 1 373 1
	ret
	.cfi_endproc
.LFE77:
	.size	hal_pwm_start, .-hal_pwm_start
	.section	.text.hal_pwm_stop,"ax",@progbits
	.align	1
	.globl	hal_pwm_stop
	.type	hal_pwm_stop, @function
hal_pwm_stop:
.LFB78:
	.loc 1 376 1 is_stmt 1
	.cfi_startproc
.LVL155:
	.loc 1 377 5
	.loc 1 377 8 is_stmt 0
	li	a5,4
	bgtu	a0,a5,.L116
	.loc 1 381 5 is_stmt 1
	.loc 1 376 1 is_stmt 0
	addi	sp,sp,-16
	.cfi_def_cfa_offset 16
	sw	ra,12(sp)
	.cfi_offset 1, -4
	.loc 1 381 5
	call	bl_pwm_stop
.LVL156:
	.loc 1 382 5 is_stmt 1
	.loc 1 383 1 is_stmt 0
	lw	ra,12(sp)
	.cfi_restore 1
	.loc 1 382 12
	li	a0,0
	.loc 1 383 1
	addi	sp,sp,16
	.cfi_def_cfa_offset 0
	jr	ra
.LVL157:
.L116:
	.loc 1 378 16
	li	a0,-1
.LVL158:
	.loc 1 383 1
	ret
	.cfi_endproc
.LFE78:
	.size	hal_pwm_stop, .-hal_pwm_stop
	.section	.text.hal_pwm_duty_set,"ax",@progbits
	.align	1
	.globl	hal_pwm_duty_set
	.type	hal_pwm_duty_set, @function
hal_pwm_duty_set:
.LFB80:
	.loc 1 394 1 is_stmt 1
	.cfi_startproc
.LVL159:
	.loc 1 395 5
	.loc 1 396 5
	.loc 1 397 5
	.loc 1 399 5
	.loc 1 394 1 is_stmt 0
	addi	sp,sp,-80
	.cfi_def_cfa_offset 80
	sw	ra,76(sp)
	sw	s0,72(sp)
	sw	s1,68(sp)
	sw	s2,64(sp)
	sw	s3,60(sp)
	sw	s4,56(sp)
	fsw	fs0,44(sp)
	fsw	fs1,40(sp)
	.cfi_offset 1, -4
	.cfi_offset 8, -8
	.cfi_offset 9, -12
	.cfi_offset 18, -16
	.cfi_offset 19, -20
	.cfi_offset 20, -24
	.cfi_offset 40, -36
	.cfi_offset 41, -40
	.loc 1 399 8
	li	a5,4
	bleu	a0,a5,.L122
.LVL160:
.L124:
	.loc 1 400 16
	li	s0,-1
.L121:
	.loc 1 447 1
	mv	a0,s0
	lw	ra,76(sp)
	.cfi_remember_state
	.cfi_restore 1
	lw	s0,72(sp)
	.cfi_restore 8
	lw	s1,68(sp)
	.cfi_restore 9
	lw	s2,64(sp)
	.cfi_restore 18
	lw	s3,60(sp)
	.cfi_restore 19
	lw	s4,56(sp)
	.cfi_restore 20
	flw	fs0,44(sp)
	.cfi_restore 40
	flw	fs1,40(sp)
	.cfi_restore 41
	addi	sp,sp,80
	.cfi_def_cfa_offset 0
	jr	ra
.LVL161:
.L122:
	.cfi_restore_state
	.loc 1 399 17 discriminator 1
	li	a4,8192
	addi	a4,a4,1808
	bgtu	a1,a4,.L124
	mv	s2,a0
	mv	s3,a2
	mv	s0,a1
	.loc 1 403 5 is_stmt 1
.LVL162:
	.loc 1 405 5
	.loc 1 405 8 is_stmt 0
	bne	a2,zero,.L125
.LVL163:
	.loc 1 406 9 is_stmt 1
	.loc 1 406 39 is_stmt 0
	lui	a5,%hi(.LC30)
	flw	fa5,%lo(.LC30)(a5)
	.loc 1 406 27
	fcvt.s.w	fa0,a1
	.loc 1 406 25
	li	a5,24
	mul	s2,a0,a5
	.loc 1 406 39
	fdiv.s	fa0,fa0,fa5
	.loc 1 406 25
	lui	a5,%hi(.LANCHOR0)
	addi	a5,a5,%lo(.LANCHOR0)
	.loc 1 408 16
	li	s0,0
.LVL164:
	.loc 1 406 25
	add	a5,a5,s2
	fsw	fa0,16(a5)
	.loc 1 407 9 is_stmt 1
	call	bl_pwm_set_duty
.LVL165:
	.loc 1 408 9
	.loc 1 408 16 is_stmt 0
	j	.L121
.LVL166:
.L125:
	.loc 1 411 5 is_stmt 1
	.loc 1 411 12 is_stmt 0
	li	a0,24
.LVL167:
	call	pvPortMalloc
.LVL168:
	mv	s1,a0
.LVL169:
	.loc 1 412 5 is_stmt 1
	.loc 1 412 8 is_stmt 0
	beq	a0,zero,.L124
	.loc 1 415 5 is_stmt 1
	li	a2,24
	li	a1,0
	call	memset
.LVL170:
	.loc 1 417 5
	.loc 1 417 14 is_stmt 0
	li	a4,24
	mul	a4,s2,a4
	lui	s4,%hi(.LANCHOR0)
	addi	a5,s4,%lo(.LANCHOR0)
	addi	s4,s4,%lo(.LANCHOR0)
	add	a5,a5,a4
	lw	a4,20(a5)
	.loc 1 417 8
	beq	a4,zero,.L126
	.loc 1 418 9 is_stmt 1
.LVL171:
.LBB152:
.LBB153:
	.loc 1 387 5
.LBE153:
.LBE152:
	.file 4 "/home/hogc/build-tools/sdk/bl/bl_iot_sdk/components/utils/include/utils_list.h"
	.loc 4 222 5
.LBB155:
.LBB154:
	.loc 1 387 8 is_stmt 0
	lw	a3,0(a5)
	beq	a3,zero,.L127
	.loc 1 390 5 is_stmt 1
	.loc 1 390 16 is_stmt 0
	lw	a5,4(a5)
.LVL172:
.LBE154:
.LBE155:
	.loc 1 418 12
	beq	a5,zero,.L127
	mv	a4,a5
.LVL173:
.L127:
	.loc 1 421 9 is_stmt 1
	.loc 1 421 18 is_stmt 0
	flw	fa5,4(a4)
	fsw	fa5,28(sp)
.LVL174:
.L128:
	.loc 1 426 5 is_stmt 1
	.loc 1 426 31 is_stmt 0
	lui	a5,%hi(.LC30)
	flw	fa5,%lo(.LC30)(a5)
	.loc 1 426 19
	fcvt.s.w	fs1,s0
	.loc 1 426 17
	flw	fs0,28(sp)
	.loc 1 427 31
	fcvt.s.wu	fa0,s3
	.loc 1 426 31
	fdiv.s	fs1,fs1,fa5
	.loc 1 428 8
	fmv.s.x	fa5,zero
	.loc 1 429 16
	li	s0,0
.LVL175:
	.loc 1 426 17
	fsub.s	fs0,fs1,fs0
.LVL176:
	.loc 1 427 5 is_stmt 1
	.loc 1 427 17 is_stmt 0
	fdiv.s	fs0,fs0,fa0
.LVL177:
	.loc 1 428 5 is_stmt 1
	.loc 1 428 8 is_stmt 0
	feq.s	a5,fs0,fa5
	bne	a5,zero,.L121
	.loc 1 432 5 is_stmt 1
	.loc 1 432 14 is_stmt 0
	lui	a5,%hi(__ev_complete)
	addi	a5,a5,%lo(__ev_complete)
	sw	a5,16(s1)
	.loc 1 433 5 is_stmt 1
	.loc 1 433 17 is_stmt 0
	sw	s1,20(s1)
	.loc 1 435 5 is_stmt 1
	call	vTaskEnterCritical
.LVL178:
	.loc 1 436 5
	.loc 1 439 5 is_stmt 0
	li	a0,24
	mul	a0,s2,a0
	mv	a1,s1
	.loc 1 436 16
	fsw	fs1,4(s1)
	.loc 1 437 5 is_stmt 1
	.loc 1 437 21 is_stmt 0
	sw	s3,12(s1)
	.loc 1 438 5 is_stmt 1
	.loc 1 438 23 is_stmt 0
	fsw	fs0,8(s1)
	.loc 1 439 5 is_stmt 1
	add	a0,s4,a0
	call	utils_list_push_back
.LVL179:
	.loc 1 440 5
	call	vTaskExitCritical
.LVL180:
	.loc 1 442 5
	call	loopset_pwm_trigger_start
.LVL181:
	.loc 1 444 5
	fmv.s	fa0,fs0
	call	__extendsfdf2
.LVL182:
	flw	fa0,28(sp)
	sw	a0,8(sp)
	sw	a1,12(sp)
	call	__extendsfdf2
.LVL183:
	lw	a4,8(sp)
	lw	a5,12(sp)
	mv	a2,a0
	lui	a0,%hi(.LC31)
	mv	a3,a1
	addi	a0,a0,%lo(.LC31)
	call	printf
.LVL184:
	.loc 1 446 5
	.loc 1 446 12 is_stmt 0
	j	.L121
.LVL185:
.L126:
	.loc 1 423 9 is_stmt 1
	addi	a1,sp,28
	mv	a0,s2
	call	bl_pwm_get_duty
.LVL186:
	j	.L128
	.cfi_endproc
.LFE80:
	.size	hal_pwm_duty_set, .-hal_pwm_duty_set
	.section	.text.hal_pwm_duty_get,"ax",@progbits
	.align	1
	.globl	hal_pwm_duty_get
	.type	hal_pwm_duty_get, @function
hal_pwm_duty_get:
.LFB81:
	.loc 1 450 1
	.cfi_startproc
.LVL187:
	.loc 1 451 5
	.loc 1 452 5
	.loc 1 452 8 is_stmt 0
	li	a5,4
	bgtu	a0,a5,.L140
	.loc 1 453 16 discriminator 1
	li	a5,-1
	.loc 1 452 17 discriminator 1
	beq	a1,zero,.L143
	.loc 1 450 1
	addi	sp,sp,-32
	.cfi_def_cfa_offset 32
	sw	s0,24(sp)
	.cfi_offset 8, -8
	mv	s0,a1
	.loc 1 455 5 is_stmt 1
	addi	a1,sp,12
.LVL188:
	.loc 1 450 1 is_stmt 0
	sw	ra,28(sp)
	.cfi_offset 1, -4
	.loc 1 455 5
	call	bl_pwm_get_duty
.LVL189:
	.loc 1 456 5 is_stmt 1
	.loc 1 456 20 is_stmt 0
	lui	a5,%hi(.LC30)
	flw	fa5,12(sp)
	flw	fa4,%lo(.LC30)(a5)
	fmul.s	fa5,fa5,fa4
	.loc 1 456 13
	fcvt.wu.s a5,fa5,rtz
	sw	a5,0(s0)
	.loc 1 457 5 is_stmt 1
	.loc 1 458 1 is_stmt 0
	lw	ra,28(sp)
	.cfi_restore 1
	lw	s0,24(sp)
	.cfi_restore 8
.LVL190:
	.loc 1 457 12
	li	a5,0
	.loc 1 458 1
	mv	a0,a5
	addi	sp,sp,32
	.cfi_def_cfa_offset 0
	jr	ra
.LVL191:
.L140:
	.loc 1 453 16
	li	a5,-1
.L143:
	.loc 1 458 1
	mv	a0,a5
.LVL192:
	ret
	.cfi_endproc
.LFE81:
	.size	hal_pwm_duty_get, .-hal_pwm_duty_get
	.section	.text.hal_pwm_freq_get,"ax",@progbits
	.align	1
	.globl	hal_pwm_freq_get
	.type	hal_pwm_freq_get, @function
hal_pwm_freq_get:
.LFB82:
	.loc 1 461 1 is_stmt 1
	.cfi_startproc
.LVL193:
	.loc 1 462 5
	.loc 1 462 8 is_stmt 0
	li	a5,4
	bgtu	a0,a5,.L148
	.loc 1 463 16 discriminator 1
	li	a5,-1
	.loc 1 462 17 discriminator 1
	beq	a1,zero,.L146
	.loc 1 465 5 is_stmt 1
	.loc 1 465 30 is_stmt 0
	li	a5,24
	mul	a5,a0,a5
	lui	a0,%hi(.LANCHOR0)
.LVL194:
	addi	a0,a0,%lo(.LANCHOR0)
	add	a0,a0,a5
	lw	a5,12(a0)
	.loc 1 465 13
	sw	a5,0(a1)
	.loc 1 466 5 is_stmt 1
	.loc 1 467 5
	.loc 1 467 12 is_stmt 0
	li	a5,0
.L146:
	.loc 1 468 1
	mv	a0,a5
	ret
.LVL195:
.L148:
	.loc 1 463 16
	li	a5,-1
	j	.L146
	.cfi_endproc
.LFE82:
	.size	hal_pwm_freq_get, .-hal_pwm_freq_get
	.section	.text.hal_pwm_freq_update,"ax",@progbits
	.align	1
	.globl	hal_pwm_freq_update
	.type	hal_pwm_freq_update, @function
hal_pwm_freq_update:
.LFB83:
	.loc 1 471 1 is_stmt 1
	.cfi_startproc
.LVL196:
	.loc 1 472 5
	.loc 1 472 8 is_stmt 0
	li	a4,4
	bgtu	a0,a4,.L152
	.loc 1 475 5 is_stmt 1
	.loc 1 475 8 is_stmt 0
	li	a3,401408
	.loc 1 475 42
	addi	a2,a1,-611
	.loc 1 475 8
	addi	a3,a3,-2019
	.loc 1 473 16
	li	a4,-1
	.loc 1 475 8
	bgtu	a2,a3,.L155
	.loc 1 471 1
	addi	sp,sp,-16
	.cfi_def_cfa_offset 16
	sw	s0,8(sp)
	.cfi_offset 8, -8
	.loc 1 478 26
	li	s0,24
	mul	a4,a0,s0
	lui	s0,%hi(.LANCHOR0)
	addi	s0,s0,%lo(.LANCHOR0)
	.loc 1 471 1
	sw	ra,12(sp)
	sw	s1,4(sp)
	.cfi_offset 1, -4
	.cfi_offset 9, -12
	mv	s1,a0
	.loc 1 478 5 is_stmt 1
	.loc 1 478 26 is_stmt 0
	add	s0,s0,a4
	sw	a1,12(s0)
	.loc 1 479 5 is_stmt 1
	call	bl_pwm_set_freq
.LVL197:
	.loc 1 480 5
	flw	fa0,16(s0)
	mv	a0,s1
	call	bl_pwm_set_duty
.LVL198:
	.loc 1 481 5
	.loc 1 482 1 is_stmt 0
	lw	ra,12(sp)
	.cfi_restore 1
	lw	s0,8(sp)
	.cfi_restore 8
	.loc 1 481 12
	li	a4,0
	.loc 1 482 1
	lw	s1,4(sp)
	.cfi_restore 9
	mv	a0,a4
	addi	sp,sp,16
	.cfi_def_cfa_offset 0
	jr	ra
.LVL199:
.L152:
	.loc 1 473 16
	li	a4,-1
.L155:
	.loc 1 482 1
	mv	a0,a4
.LVL200:
	ret
	.cfi_endproc
.LFE83:
	.size	hal_pwm_freq_update, .-hal_pwm_freq_update
	.section	.text.hal_pwm_init,"ax",@progbits
	.align	1
	.globl	hal_pwm_init
	.type	hal_pwm_init, @function
hal_pwm_init:
.LFB84:
	.loc 1 485 1 is_stmt 1
	.cfi_startproc
.LVL201:
	.loc 1 486 5
	.loc 1 485 1 is_stmt 0
	addi	sp,sp,-32
	.cfi_def_cfa_offset 32
	sw	s0,24(sp)
	sw	ra,28(sp)
	sw	s1,20(sp)
	sw	s2,16(sp)
	sw	s3,12(sp)
	.cfi_offset 8, -8
	.cfi_offset 1, -4
	.cfi_offset 9, -12
	.cfi_offset 18, -16
	.cfi_offset 19, -20
	.loc 1 486 8
	li	a5,4
	.loc 1 487 16
	li	s0,-1
	.loc 1 486 8
	bgtu	a0,a5,.L158
	.loc 1 490 12
	li	s0,24
	mul	a5,a0,s0
	lui	s0,%hi(.LANCHOR0)
	addi	s0,s0,%lo(.LANCHOR0)
	.loc 1 490 5
	li	a2,24
	mv	s2,a1
	mv	s1,a0
	.loc 1 490 5 is_stmt 1
	li	a1,0
.LVL202:
	.loc 1 492 28 is_stmt 0
	li	s3,1
	.loc 1 490 12
	add	s0,s0,a5
	.loc 1 490 5
	mv	a0,s0
.LVL203:
	call	memset
.LVL204:
	.loc 1 492 5 is_stmt 1
	.loc 1 493 26 is_stmt 0
	li	a5,2000
	sw	a5,12(s0)
	.loc 1 495 5
	mv	a0,s0
	.loc 1 492 28
	sb	s3,8(s0)
	.loc 1 493 5 is_stmt 1
	.loc 1 495 5
	call	utils_list_init
.LVL205:
	.loc 1 496 5
	lw	a2,12(s0)
	andi	a1,s2,0xff
	mv	a0,s1
	call	bl_pwm_init
.LVL206:
	.loc 1 498 5
	.loc 1 498 9 is_stmt 0
	lui	a5,%hi(.LANCHOR4)
	addi	a5,a5,%lo(.LANCHOR4)
	.loc 1 498 8
	lbu	a4,0(a5)
	.loc 1 504 12
	li	s0,0
	.loc 1 498 8
	bne	a4,zero,.L158
	.loc 1 499 9 is_stmt 1
	.loc 1 499 23 is_stmt 0
	sb	s3,0(a5)
	.loc 1 500 9 is_stmt 1
	call	loopset_pwm_hook_on_looprt
.LVL207:
	.loc 1 501 9
	lui	a1,%hi(__loop_pwm_trigger)
	li	a2,0
	addi	a1,a1,%lo(__loop_pwm_trigger)
	li	a0,1
	call	loopset_pwm_trigger_on
.LVL208:
.L158:
	.loc 1 505 1 is_stmt 0
	mv	a0,s0
	lw	ra,28(sp)
	.cfi_restore 1
	lw	s0,24(sp)
	.cfi_restore 8
	lw	s1,20(sp)
	.cfi_restore 9
	lw	s2,16(sp)
	.cfi_restore 18
	lw	s3,12(sp)
	.cfi_restore 19
	addi	sp,sp,32
	.cfi_def_cfa_offset 0
	jr	ra
	.cfi_endproc
.LFE84:
	.size	hal_pwm_init, .-hal_pwm_init
	.section	.text.hal_pwm_deinit,"ax",@progbits
	.align	1
	.globl	hal_pwm_deinit
	.type	hal_pwm_deinit, @function
hal_pwm_deinit:
.LFB85:
	.loc 1 508 1 is_stmt 1
	.cfi_startproc
.LVL209:
	.loc 1 509 5
	.loc 1 509 8 is_stmt 0
	li	a5,4
	bgtu	a0,a5,.L165
	.loc 1 512 5 is_stmt 1
	.loc 1 508 1 is_stmt 0
	addi	sp,sp,-16
	.cfi_def_cfa_offset 16
	sw	ra,12(sp)
	.cfi_offset 1, -4
	.loc 1 512 5
	call	hal_pwm_stop
.LVL210:
	.loc 1 513 5 is_stmt 1
	lui	a0,%hi(.LANCHOR0)
	li	a2,120
	li	a1,0
	addi	a0,a0,%lo(.LANCHOR0)
	call	memset
.LVL211:
	.loc 1 514 5
	.loc 1 514 19 is_stmt 0
	lui	a5,%hi(.LANCHOR4)
	sb	zero,%lo(.LANCHOR4)(a5)
	.loc 1 516 5 is_stmt 1
	call	loopset_pwm_trigger_off
.LVL212:
	.loc 1 517 5
	call	loopset_pwm_hook_off_looprt
.LVL213:
	.loc 1 519 5
	.loc 1 520 1 is_stmt 0
	lw	ra,12(sp)
	.cfi_restore 1
	.loc 1 519 12
	li	a0,0
	.loc 1 520 1
	addi	sp,sp,16
	.cfi_def_cfa_offset 0
	jr	ra
.LVL214:
.L165:
	.loc 1 510 16
	li	a0,-1
.LVL215:
	.loc 1 520 1
	ret
	.cfi_endproc
.LFE85:
	.size	hal_pwm_deinit, .-hal_pwm_deinit
	.section	.rodata
	.align	2
	.set	.LANCHOR2,. + 0
.LC7:
	.word	.LC0
	.word	.LC1
	.word	.LC2
	.word	.LC3
	.word	.LC4
	.section	.bss.__g_pwm_dev,"aw",@nobits
	.align	2
	.set	.LANCHOR0,. + 0
	.type	__g_pwm_dev, @object
	.size	__g_pwm_dev, 120
__g_pwm_dev:
	.zero	120
	.section	.rodata.CSWTCH.32,"a"
	.align	2
	.set	.LANCHOR3,. + 0
	.type	CSWTCH.32, @object
	.size	CSWTCH.32, 20
CSWTCH.32:
	.word	dev_pwm0
	.word	dev_pwm1
	.word	dev_pwm2
	.word	dev_pwm3
	.word	dev_pwm4
	.section	.rodata.__ev_complete.str1.4,"aMS",@progbits,1
	.align	2
.LC6:
	.string	"pwm_duty_set finish duty %f\r\n"
	.section	.rodata.hal_pwm_duty_set.cst4,"aM",@progbits,4
	.align	2
.LC30:
	.word	1120403456
	.section	.rodata.hal_pwm_duty_set.str1.4,"aMS",@progbits,1
	.align	2
.LC31:
	.string	"now_duty %f, adjust_duty %f\r\n"
	.section	.rodata.hal_pwm_set_freq_bydev.str1.4,"aMS",@progbits,1
	.align	2
.LC29:
	.string	"[%10u][%s: %s:%4d] not support.\r\n"
	.section	.rodata.str1.4,"aMS",@progbits,1
	.align	2
.LC0:
	.string	"pwm@4000A420"
	.zero	3
.LC1:
	.string	"pwm@4000A440"
	.zero	3
.LC2:
	.string	"pwm@4000A460"
	.zero	3
.LC3:
	.string	"pwm@4000A480"
	.zero	3
.LC4:
	.string	"pwm@4000A4A0"
	.section	.rodata.vfs_pwm_init.str1.4,"aMS",@progbits,1
	.align	2
.LC8:
	.string	"hal_pwm.c"
	.zero	2
.LC9:
	.string	"\033[32mINFO  \033[0m"
.LC10:
	.string	"[%10u][%s: %s:%4d] pwm[%d] %s NULL.\r\n"
	.zero	2
.LC11:
	.string	"status"
	.zero	1
.LC12:
	.string	"[%10u][%s: %s:%4d] pwm[%d] status_countindex = %d NULL.\r\n"
	.zero	2
.LC13:
	.string	"okay"
	.zero	3
.LC14:
	.string	"[%10u][%s: %s:%4d] pwm[%d] status = %s\r\n"
	.zero	3
.LC15:
	.string	"path"
	.zero	3
.LC16:
	.string	"[%10u][%s: %s:%4d] pwm[%d] path_countindex = %d NULL.\r\n"
.LC17:
	.string	"[%10u][%s: %s:%4d] pwm[%d] path lentmp = %d\r\n"
	.zero	2
.LC18:
	.string	"id"
	.zero	1
.LC19:
	.string	"[%10u][%s: %s:%4d] pwm[%d] id NULL.\r\n"
	.zero	2
.LC20:
	.string	"pin"
.LC21:
	.string	"[%10u][%s: %s:%4d] pwm[%d] pin NULL.\r\n"
	.zero	1
.LC22:
	.string	"freq"
	.zero	3
.LC23:
	.string	"[%10u][%s: %s:%4d] pwm[%d] freq NULL.\r\n"
.LC24:
	.string	"[%10u][%s: %s:%4d] path = %s, id = %d, pin = %d, freq = %ld\r\n"
	.zero	2
.LC25:
	.string	"\033[31mERROR \033[0m"
.LC26:
	.string	"[%10u][%s: %s:%4d] arg err.\r\n"
	.zero	2
.LC27:
	.string	"[%10u][%s: %s:%4d] mem err.\r\n"
	.zero	2
.LC28:
	.string	"[%10u][%s: %s:%4d] dev_pwm_init err.\r\n"
	.section	.sbss.__g_init_flag,"aw",@nobits
	.set	.LANCHOR4,. + 0
	.type	__g_init_flag, @object
	.size	__g_init_flag, 1
__g_init_flag:
	.zero	1
	.section	.sbss.dev_pwm0,"aw",@nobits
	.align	2
	.type	dev_pwm0, @object
	.size	dev_pwm0, 4
dev_pwm0:
	.zero	4
	.section	.sbss.dev_pwm1,"aw",@nobits
	.align	2
	.type	dev_pwm1, @object
	.size	dev_pwm1, 4
dev_pwm1:
	.zero	4
	.section	.sbss.dev_pwm2,"aw",@nobits
	.align	2
	.type	dev_pwm2, @object
	.size	dev_pwm2, 4
dev_pwm2:
	.zero	4
	.section	.sbss.dev_pwm3,"aw",@nobits
	.align	2
	.type	dev_pwm3, @object
	.size	dev_pwm3, 4
dev_pwm3:
	.zero	4
	.section	.sbss.dev_pwm4,"aw",@nobits
	.align	2
	.type	dev_pwm4, @object
	.size	dev_pwm4, 4
dev_pwm4:
	.zero	4
	.section	.sbss.inited,"aw",@nobits
	.set	.LANCHOR1,. + 0
	.type	inited, @object
	.size	inited, 1
inited:
	.zero	1
	.text
.Letext0:
	.file 5 "/home/hogc/build-tools/sdk/bl/bl_iot_sdk/toolchain/riscv/Linux/lib/gcc/riscv64-unknown-elf/8.3.0/include/stdint-gcc.h"
	.file 6 "/home/hogc/build-tools/sdk/bl/bl_iot_sdk/toolchain/riscv/Linux/lib/gcc/riscv64-unknown-elf/8.3.0/include/stddef.h"
	.file 7 "/home/hogc/build-tools/sdk/bl/bl_iot_sdk/components/hal_drv/bl602_hal/hal_pwm.h"
	.file 8 "/home/hogc/build-tools/sdk/bl/bl_iot_sdk/toolchain/riscv/Linux/riscv64-unknown-elf/include/machine/_default_types.h"
	.file 9 "/home/hogc/build-tools/sdk/bl/bl_iot_sdk/toolchain/riscv/Linux/riscv64-unknown-elf/include/sys/_types.h"
	.file 10 "/home/hogc/build-tools/sdk/bl/bl_iot_sdk/toolchain/riscv/Linux/riscv64-unknown-elf/include/sys/reent.h"
	.file 11 "/home/hogc/build-tools/sdk/bl/bl_iot_sdk/toolchain/riscv/Linux/riscv64-unknown-elf/include/sys/lock.h"
	.file 12 "/home/hogc/build-tools/sdk/bl/bl_iot_sdk/toolchain/riscv/Linux/riscv64-unknown-elf/include/sys/_timeval.h"
	.file 13 "/home/hogc/build-tools/sdk/bl/bl_iot_sdk/toolchain/riscv/Linux/riscv64-unknown-elf/include/sys/types.h"
	.file 14 "/home/hogc/build-tools/sdk/bl/bl_iot_sdk/toolchain/riscv/Linux/riscv64-unknown-elf/include/time.h"
	.file 15 "/home/hogc/build-tools/sdk/bl/bl_iot_sdk/toolchain/riscv/Linux/riscv64-unknown-elf/include/sys/stat.h"
	.file 16 "/home/hogc/build-tools/sdk/bl/bl_iot_sdk/components/fs/vfs/include/vfs_dir.h"
	.file 17 "/home/hogc/build-tools/sdk/bl/bl_iot_sdk/components/fs/vfs/include/vfs_inode.h"
	.file 18 "/home/hogc/build-tools/sdk/bl/bl_iot_sdk/components/fs/vfs/include/device/vfs_pwm.h"
	.file 19 "/home/hogc/build-tools/sdk/bl/bl_iot_sdk/toolchain/riscv/Linux/riscv64-unknown-elf/include/sys/errno.h"
	.file 20 "/home/hogc/build-tools/sdk/bl/bl_iot_sdk/components/fs/vfs/include/hal/soc/pwm.h"
	.file 21 "/home/hogc/build-tools/sdk/bl/bl_iot_sdk/components/stage/yloop/include/aos/kernel.h"
	.file 22 "/home/hogc/build-tools/sdk/bl/bl_iot_sdk/components/bl602/bl602_std/bl602_std/RISCV/Device/Bouffalo/BL602/Startup/system_bl602.h"
	.file 23 "/home/hogc/build-tools/sdk/bl/bl_iot_sdk/components/bl602/bl602_std/bl602_std/StdDriver/Inc/bl602_common.h"
	.file 24 "/home/hogc/build-tools/sdk/bl/bl_iot_sdk/toolchain/riscv/Linux/riscv64-unknown-elf/include/stdlib.h"
	.file 25 "/home/hogc/build-tools/sdk/bl/bl_iot_sdk/components/bl602/freertos_riscv_ram/config/task.h"
	.file 26 "/home/hogc/build-tools/sdk/bl/bl_iot_sdk/components/sys/bloop/bloop/include/bloop.h"
	.file 27 "/home/hogc/build-tools/sdk/bl/bl_iot_sdk/toolchain/riscv/Linux/riscv64-unknown-elf/include/string.h"
	.file 28 "/home/hogc/build-tools/sdk/bl/bl_iot_sdk/components/sys/bloop/loopset/include/loopset_pwm.h"
	.file 29 "/home/hogc/build-tools/sdk/bl/bl_iot_sdk/components/hal_drv/bl602_hal/bl_pwm.h"
	.file 30 "/home/hogc/build-tools/sdk/bl/bl_iot_sdk/components/bl602/freertos_riscv_ram/config/portable.h"
	.file 31 "/home/hogc/build-tools/sdk/bl/bl_iot_sdk/toolchain/riscv/Linux/riscv64-unknown-elf/include/stdio.h"
	.file 32 "/home/hogc/build-tools/sdk/bl/bl_iot_sdk/components/utils/include/utils_log.h"
	.file 33 "/home/hogc/build-tools/sdk/bl/bl_iot_sdk/components/fs/vfs/include/vfs_register.h"
	.file 34 "/home/hogc/build-tools/sdk/bl/bl_iot_sdk/components/stage/blfdt/inc/libfdt.h"
	.file 35 "<built-in>"