	.file	"hal_uart.c"
	.option nopic
	.attribute arch, "rv32i2p0_m2p0_f2p0_c2p0"
	.attribute unaligned_access, 0
	.attribute stack_align, 16
	.text
.Ltext0:
	.cfi_sections	.debug_frame
	.section	.text.dev_uart_init,"ax",@progbits
	.align	1
	.type	dev_uart_init, @function
dev_uart_init:
.LFB46:
	.file 1 "/home/hogc/build-tools/sdk/bl/bl_iot_sdk/components/hal_drv/bl602_hal/hal_uart.c"
	.loc 1 96 1
	.cfi_startproc
.LVL0:
	.loc 1 97 5
	.loc 1 98 5
	.loc 1 100 5
	.loc 1 96 1 is_stmt 0
	addi	sp,sp,-32
	.cfi_def_cfa_offset 32
	sw	ra,28(sp)
	sw	s0,24(sp)
	sw	s1,20(sp)
	sw	s2,16(sp)
	sw	s3,12(sp)
	sw	s4,8(sp)
	.cfi_offset 1, -4
	.cfi_offset 8, -8
	.cfi_offset 9, -12
	.cfi_offset 18, -16
	.cfi_offset 19, -20
	.cfi_offset 20, -24
	.loc 1 100 8
	li	a5,2
	bgtu	a0,a5,.L2
	mv	s3,a1
	.loc 1 100 19 discriminator 1
	bne	a1,zero,.L3
.L2:
	.loc 1 101 9 is_stmt 1 discriminator 1
	.loc 1 101 47 discriminator 1
	.loc 1 101 52 discriminator 1
	.loc 1 101 75 is_stmt 0 discriminator 1
	lui	a5,%hi(_fsymc_level_hal_drv)
	.loc 1 101 55 discriminator 1
	lbu	a4,%lo(_fsymc_level_hal_drv)(a5)
	li	a5,4
	bgtu	a4,a5,.L1
	.loc 1 101 121 discriminator 3
	lui	a4,%hi(_fsymf_level_hal_drvhal_uart)
	.loc 1 101 100 discriminator 3
	lbu	a4,%lo(_fsymf_level_hal_drvhal_uart)(a4)
	bgtu	a4,a5,.L1
	.loc 1 101 158 is_stmt 1
.LBB64:
.LBB65:
	.file 2 "/home/hogc/build-tools/sdk/bl/bl_iot_sdk/components/bl602/freertos_riscv_ram/portable/GCC/RISC-V/portmacro.h"
	.loc 2 151 5
	.loc 2 151 31 is_stmt 0
	lui	a5,%hi(TrapNetCounter)
.LBE65:
.LBE64:
	.loc 1 101 158
	lw	a5,%lo(TrapNetCounter)(a5)
	beq	a5,zero,.L7
	.loc 1 101 234 discriminator 7
	call	xTaskGetTickCountFromISR
.LVL1:
.L8:
	.loc 1 101 158 discriminator 10
	li	a4,101
.LVL2:
.L30:
.LBB66:
.LBB67:
	.loc 1 54 158
	lui	a3,%hi(.LC5)
	lui	a2,%hi(.LC6)
	mv	a1,a0
	lui	a0,%hi(.LC7)
	addi	a3,a3,%lo(.LC5)
	addi	a2,a2,%lo(.LC6)
	addi	a0,a0,%lo(.LC7)
	j	.L29
.LVL3:
.L7:
.LBE67:
.LBE66:
	.loc 1 101 263 discriminator 8
	call	xTaskGetTickCount
.LVL4:
	j	.L8
.LVL5:
.L3:
	mv	s1,a0
	.loc 1 105 5 is_stmt 1
	beq	a0,zero,.L9
	li	a5,1
	bne	a0,a5,.L10
	.loc 1 112 13
.LVL6:
	.loc 1 113 11
	.loc 1 112 18 is_stmt 0
	lui	s0,%hi(.LANCHOR0)
	lw	a5,%lo(.LANCHOR0)(s0)
	addi	s0,s0,%lo(.LANCHOR0)
.LVL7:
.L11:
	.loc 1 118 11 is_stmt 1
	.loc 1 121 5
.LBB77:
.LBB74:
	.loc 1 53 5
	.loc 1 53 8 is_stmt 0
	beq	a5,zero,.L14
	.loc 1 54 9 is_stmt 1
	.loc 1 54 47
	.loc 1 54 52
	.loc 1 54 75 is_stmt 0
	lui	a5,%hi(_fsymc_level_hal_drv)
	.loc 1 54 55
	lbu	a4,%lo(_fsymc_level_hal_drv)(a5)
	li	a5,4
	bgtu	a4,a5,.L1
	.loc 1 54 121
	lui	a4,%hi(_fsymf_level_hal_drvhal_uart)
	.loc 1 54 100
	lbu	a4,%lo(_fsymf_level_hal_drvhal_uart)(a4)
	bgtu	a4,a5,.L1
	.loc 1 54 158 is_stmt 1
.LBB68:
.LBB69:
	.loc 2 151 5
	.loc 2 151 31 is_stmt 0
	lui	a5,%hi(TrapNetCounter)
.LBE69:
.LBE68:
	.loc 1 54 158
	lw	a5,%lo(TrapNetCounter)(a5)
	beq	a5,zero,.L15
	.loc 1 54 234
	call	xTaskGetTickCountFromISR
.LVL8:
.L16:
	.loc 1 54 158
	li	a4,54
	j	.L30
.LVL9:
.L10:
.LBE74:
.LBE77:
	.loc 1 116 13 is_stmt 1 discriminator 1
	.loc 1 116 51 discriminator 1
	.loc 1 116 56 discriminator 1
	.loc 1 116 79 is_stmt 0 discriminator 1
	lui	a5,%hi(_fsymc_level_hal_drv)
	.loc 1 116 59 discriminator 1
	lbu	a4,%lo(_fsymc_level_hal_drv)(a5)
	li	a5,4
	bgtu	a4,a5,.L1
	.loc 1 116 125 discriminator 3
	lui	a4,%hi(_fsymf_level_hal_drvhal_uart)
	.loc 1 116 104 discriminator 3
	lbu	a4,%lo(_fsymf_level_hal_drvhal_uart)(a4)
	bgtu	a4,a5,.L1
	.loc 1 116 162 is_stmt 1
.LBB78:
.LBB79:
	.loc 2 151 5
	.loc 2 151 31 is_stmt 0
	lui	a5,%hi(TrapNetCounter)
.LBE79:
.LBE78:
	.loc 1 116 162
	lw	a5,%lo(TrapNetCounter)(a5)
	beq	a5,zero,.L12
	.loc 1 116 234 discriminator 7
	call	xTaskGetTickCountFromISR
.LVL10:
.L13:
	.loc 1 116 162 discriminator 10
	lui	a3,%hi(.LC5)
	lui	a2,%hi(.LC6)
	mv	a1,a0
	lui	a0,%hi(.LC8)
	li	a4,116
	addi	a3,a3,%lo(.LC5)
	addi	a2,a2,%lo(.LC6)
	addi	a0,a0,%lo(.LC8)
.LVL11:
.L29:
.LBB80:
.LBB75:
	.loc 1 69 158
	call	bl_printk
.LVL12:
.L1:
.LBE75:
.LBE80:
	.loc 1 132 1
	lw	ra,28(sp)
	.cfi_remember_state
	.cfi_restore 1
	lw	s0,24(sp)
	.cfi_restore 8
	lw	s1,20(sp)
	.cfi_restore 9
	lw	s2,16(sp)
	.cfi_restore 18
	lw	s3,12(sp)
	.cfi_restore 19
	lw	s4,8(sp)
	.cfi_restore 20
	li	a0,-1
	addi	sp,sp,32
	.cfi_def_cfa_offset 0
	jr	ra
.LVL13:
.L12:
	.cfi_restore_state
	.loc 1 116 263 discriminator 8
	call	xTaskGetTickCount
.LVL14:
	j	.L13
.LVL15:
.L9:
	.loc 1 108 18
	lui	s0,%hi(.LANCHOR1)
	lw	a5,%lo(.LANCHOR1)(s0)
	addi	s0,s0,%lo(.LANCHOR1)
	j	.L11
.LVL16:
.L15:
.LBB81:
.LBB76:
	.loc 1 54 263
	call	xTaskGetTickCount
.LVL17:
	j	.L16
.LVL18:
.L14:
	.loc 1 58 5 is_stmt 1
	.loc 1 58 13 is_stmt 0
	li	a0,304
.LVL19:
	call	pvPortMalloc
.LVL20:
	.loc 1 58 11
	sw	a0,0(s0)
	.loc 1 59 5 is_stmt 1
	.loc 1 59 8 is_stmt 0
	bne	a0,zero,.L17
	.loc 1 60 9 is_stmt 1
	.loc 1 60 47
	.loc 1 60 52
	.loc 1 60 75 is_stmt 0
	lui	a5,%hi(_fsymc_level_hal_drv)
	.loc 1 60 55
	lbu	a4,%lo(_fsymc_level_hal_drv)(a5)
	li	a5,4
	bgtu	a4,a5,.L1
	.loc 1 60 121
	lui	a4,%hi(_fsymf_level_hal_drvhal_uart)
	.loc 1 60 100
	lbu	a4,%lo(_fsymf_level_hal_drvhal_uart)(a4)
	bgtu	a4,a5,.L1
	.loc 1 60 158 is_stmt 1
.LBB70:
.LBB71:
	.loc 2 151 5
	.loc 2 151 31 is_stmt 0
	lui	a5,%hi(TrapNetCounter)
.LBE71:
.LBE70:
	.loc 1 60 158
	lw	a5,%lo(TrapNetCounter)(a5)
	beq	a5,zero,.L18
	.loc 1 60 234
	call	xTaskGetTickCountFromISR
.LVL21:
.L19:
	.loc 1 60 158
	li	a4,60
.L28:
	.loc 1 69 158
	lui	a3,%hi(.LC5)
	lui	a2,%hi(.LC6)
	mv	a1,a0
	lui	a0,%hi(.LC9)
	addi	a3,a3,%lo(.LC5)
	addi	a2,a2,%lo(.LC6)
	addi	a0,a0,%lo(.LC9)
	j	.L29
.L18:
	.loc 1 60 263
	call	xTaskGetTickCount
.LVL22:
	j	.L19
.L17:
	.loc 1 63 5 is_stmt 1
	li	a2,304
	li	a1,0
	call	memset
.LVL23:
	.loc 1 65 5
	.loc 1 65 6 is_stmt 0
	lw	a5,0(s0)
	.loc 1 65 30
	li	s2,2
	.loc 1 67 21
	li	a0,4
	.loc 1 65 30
	sb	s2,296(a5)
	.loc 1 66 5 is_stmt 1
	.loc 1 66 6 is_stmt 0
	lw	a5,0(s0)
	.loc 1 66 19
	sw	zero,300(a5)
	.loc 1 67 5 is_stmt 1
	.loc 1 67 6 is_stmt 0
	lw	s4,0(s0)
	.loc 1 67 21
	call	pvPortMalloc
.LVL24:
	.loc 1 67 19
	sw	a0,300(s4)
	.loc 1 68 5 is_stmt 1
	.loc 1 68 16 is_stmt 0
	lw	a5,0(s0)
	lw	a0,300(a5)
	.loc 1 68 8
	bne	a0,zero,.L20
	.loc 1 69 9 is_stmt 1
	.loc 1 69 47
	.loc 1 69 52
	.loc 1 69 75 is_stmt 0
	lui	a5,%hi(_fsymc_level_hal_drv)
	.loc 1 69 55
	lbu	a4,%lo(_fsymc_level_hal_drv)(a5)
	li	a5,4
	bgtu	a4,a5,.L1
	.loc 1 69 121
	lui	a4,%hi(_fsymf_level_hal_drvhal_uart)
	.loc 1 69 100
	lbu	a4,%lo(_fsymf_level_hal_drvhal_uart)(a4)
	bgtu	a4,a5,.L1
	.loc 1 69 158 is_stmt 1
.LBB72:
.LBB73:
	.loc 2 151 5
	.loc 2 151 31 is_stmt 0
	lui	a5,%hi(TrapNetCounter)
.LBE73:
.LBE72:
	.loc 1 69 158
	lw	a5,%lo(TrapNetCounter)(a5)
	beq	a5,zero,.L21
	.loc 1 69 234
	call	xTaskGetTickCountFromISR
.LVL25:
.L22:
	.loc 1 69 158
	li	a4,69
	j	.L28
.L21:
	.loc 1 69 263
	call	xTaskGetTickCount
.LVL26:
	j	.L22
.L20:
	.loc 1 72 5 is_stmt 1
	li	a2,4
	li	a1,0
	call	memset
.LVL27:
	.loc 1 74 5
.LBE76:
.LBE81:
	.loc 1 125 5
.LBB82:
.LBB83:
	.loc 1 79 5
	.loc 1 79 9 is_stmt 0
	lw	a5,0(s0)
	.loc 1 79 8
	bne	a5,zero,.L23
	.loc 1 80 9 is_stmt 1
	.loc 1 80 47
	.loc 1 80 52
	.loc 1 80 75 is_stmt 0
	lui	a5,%hi(_fsymc_level_hal_drv)
	.loc 1 80 55
	lbu	a4,%lo(_fsymc_level_hal_drv)(a5)
	li	a5,4
	bgtu	a4,a5,.L24
	.loc 1 80 121
	lui	a4,%hi(_fsymf_level_hal_drvhal_uart)
	.loc 1 80 100
	lbu	a4,%lo(_fsymf_level_hal_drvhal_uart)(a4)
	bgtu	a4,a5,.L24
	.loc 1 80 158 is_stmt 1
.LBB84:
.LBB85:
	.loc 2 151 5
	.loc 2 151 31 is_stmt 0
	lui	a5,%hi(TrapNetCounter)
.LBE85:
.LBE84:
	.loc 1 80 158
	lw	a5,%lo(TrapNetCounter)(a5)
	beq	a5,zero,.L25
	.loc 1 80 234
	call	xTaskGetTickCountFromISR
.LVL28:
.L26:
	.loc 1 80 158
	lui	a3,%hi(.LC5)
	lui	a2,%hi(.LC6)
	mv	a1,a0
	lui	a0,%hi(.LC9)
	li	a4,80
	addi	a3,a3,%lo(.LC5)
	addi	a2,a2,%lo(.LC6)
	addi	a0,a0,%lo(.LC9)
	call	bl_printk
.LVL29:
.L24:
.LBE83:
.LBE82:
	.loc 1 126 5 is_stmt 1
	.loc 1 126 11 is_stmt 0
	lw	a2,0(s0)
	.loc 1 132 1
	lw	s0,24(sp)
	.cfi_remember_state
	.cfi_restore 8
.LVL30:
	lw	ra,28(sp)
	.cfi_restore 1
	lw	s1,20(sp)
	.cfi_restore 9
	lw	s2,16(sp)
	.cfi_restore 18
	lw	s4,8(sp)
	.cfi_restore 20
	.loc 1 126 11
	mv	a0,s3
	.loc 1 132 1
	lw	s3,12(sp)
	.cfi_restore 19
.LVL31:
	.loc 1 126 11
	lui	a1,%hi(uart_ops)
	.loc 1 132 1
	.loc 1 126 11
	addi	a1,a1,%lo(uart_ops)
	.loc 1 132 1
	addi	sp,sp,32
	.cfi_def_cfa_offset 0
	.loc 1 126 11
	tail	aos_register_driver
.LVL32:
.L25:
	.cfi_restore_state
.LBB87:
.LBB86:
	.loc 1 80 263
	call	xTaskGetTickCount
.LVL33:
	j	.L26
.L23:
	.loc 1 84 5 is_stmt 1
	.loc 1 84 19 is_stmt 0
	sb	s1,0(a5)
	.loc 1 85 5 is_stmt 1
	.loc 1 85 6 is_stmt 0
	lw	a5,0(s0)
	.loc 1 85 30
	sb	s2,296(a5)
	.loc 1 87 5 is_stmt 1
	.loc 1 87 6 is_stmt 0
	lw	a4,0(s0)
	.loc 1 87 31
	li	a5,114688
	addi	a5,a5,512
	sw	a5,4(a4)
	.loc 1 88 5 is_stmt 1
	.loc 1 88 6 is_stmt 0
	lw	a5,0(s0)
	.loc 1 88 32
	li	a4,3
	sb	a4,8(a5)
	.loc 1 89 5 is_stmt 1
	.loc 1 89 6 is_stmt 0
	lw	a5,0(s0)
	.loc 1 89 28
	sb	zero,9(a5)
	.loc 1 90 5 is_stmt 1
	.loc 1 90 6 is_stmt 0
	lw	a5,0(s0)
	.loc 1 90 31
	sb	zero,10(a5)
	.loc 1 91 5 is_stmt 1
	.loc 1 91 6 is_stmt 0
	lw	a5,0(s0)
	.loc 1 91 34
	sb	zero,11(a5)
	.loc 1 92 5 is_stmt 1
	.loc 1 92 6 is_stmt 0
	lw	a5,0(s0)
	.loc 1 92 26
	sb	s2,12(a5)
	j	.L24
.LBE86:
.LBE87:
	.cfi_endproc
.LFE46:
	.size	dev_uart_init, .-dev_uart_init
	.section	.text.hal_uart_send_trigger,"ax",@progbits
	.align	1
	.globl	hal_uart_send_trigger
	.type	hal_uart_send_trigger, @function
hal_uart_send_trigger:
.LFB47:
	.loc 1 135 1 is_stmt 1
	.cfi_startproc
.LVL34:
	.loc 1 136 5
	.loc 1 135 1 is_stmt 0
	addi	sp,sp,-16
	.cfi_def_cfa_offset 16
	sw	ra,12(sp)
	.cfi_offset 1, -4
	.loc 1 136 5
	lbu	a0,0(a0)
.LVL35:
	call	bl_uart_int_tx_enable
.LVL36:
	.loc 1 137 5 is_stmt 1
	.loc 1 138 1 is_stmt 0
	lw	ra,12(sp)
	.cfi_restore 1
	li	a0,0
	addi	sp,sp,16
	.cfi_def_cfa_offset 0
	jr	ra
	.cfi_endproc
.LFE47:
	.size	hal_uart_send_trigger, .-hal_uart_send_trigger
	.section	.text.hal_uart_init,"ax",@progbits
	.align	1
	.globl	hal_uart_init
	.type	hal_uart_init, @function
hal_uart_init:
.LFB48:
	.loc 1 141 1 is_stmt 1
	.cfi_startproc
.LVL37:
	.loc 1 142 5
	.loc 1 143 5
	.loc 1 145 5
	.loc 1 146 5
	.loc 1 141 1 is_stmt 0
	addi	sp,sp,-32
	.cfi_def_cfa_offset 32
	sw	s0,24(sp)
.LVL38:
	sw	s1,20(sp)
	sw	ra,28(sp)
	.cfi_offset 8, -8
	.cfi_offset 9, -12
	.cfi_offset 1, -4
	.loc 1 141 1
	mv	s0,a0
	.loc 1 146 9
	lw	a0,300(a0)
.LVL39:
	.loc 1 148 16
	li	s1,-1
	.loc 1 146 9
	call	aos_mutex_new
.LVL40:
	.loc 1 146 8
	bne	a0,zero,.L33
	mv	s1,a0
	.loc 1 151 5 is_stmt 1
	lbu	a0,0(s0)
	addi	a1,sp,15
	call	bl_uart_getdefconfig
.LVL41:
	.loc 1 153 5
	.loc 1 153 16 is_stmt 0
	lbu	a5,15(sp)
	.loc 1 153 8
	bne	a5,zero,.L35
	.loc 1 154 9 is_stmt 1
	.loc 1 154 29 is_stmt 0
	sb	zero,9(s0)
.L36:
	.loc 1 161 5 is_stmt 1
	lbu	a0,0(s0)
	addi	a6,s0,274
	addi	a5,s0,275
	addi	a4,s0,146
	addi	a3,s0,144
	addi	a2,s0,145
	addi	a1,s0,16
	call	bl_uart_int_enable
.LVL42:
	.loc 1 167 5
.L33:
	.loc 1 168 1 is_stmt 0
	lw	ra,28(sp)
	.cfi_remember_state
	.cfi_restore 1
	lw	s0,24(sp)
	.cfi_restore 8
.LVL43:
	mv	a0,s1
	lw	s1,20(sp)
	.cfi_restore 9
	addi	sp,sp,32
	.cfi_def_cfa_offset 0
	jr	ra
.LVL44:
.L35:
	.cfi_restore_state
	.loc 1 155 12 is_stmt 1
	.loc 1 155 15 is_stmt 0
	li	a4,1
	bne	a5,a4,.L37
.L40:
	.loc 1 158 29
	sb	a5,9(s0)
	j	.L36
.L37:
	.loc 1 158 9 is_stmt 1
	.loc 1 158 29 is_stmt 0
	li	a5,2
	j	.L40
	.cfi_endproc
.LFE48:
	.size	hal_uart_init, .-hal_uart_init
	.section	.text.hal_uart_recv_II,"ax",@progbits
	.align	1
	.globl	hal_uart_recv_II
	.type	hal_uart_recv_II, @function
hal_uart_recv_II:
.LFB49:
	.loc 1 171 1 is_stmt 1
	.cfi_startproc
.LVL45:
	.loc 1 172 5
	.loc 1 173 5
	.loc 1 175 5
	.loc 1 171 1 is_stmt 0
	addi	sp,sp,-32
	.cfi_def_cfa_offset 32
	sw	s0,24(sp)
	sw	s1,20(sp)
	sw	ra,28(sp)
	.cfi_offset 8, -8
	.cfi_offset 9, -12
	.cfi_offset 1, -4
	.loc 1 171 1
	mv	s1,a0
	.loc 1 173 14
	li	s0,0
.LVL46:
.L42:
	.loc 1 175 11
	beq	s0,a2,.L45
	.loc 1 175 43 discriminator 1
	lbu	a0,0(s1)
	sw	a3,12(sp)
	sw	a2,8(sp)
	sw	a1,4(sp)
	call	bl_uart_data_recv
.LVL47:
	.loc 1 175 34 discriminator 1
	lw	a1,4(sp)
	lw	a2,8(sp)
	lw	a3,12(sp)
	bge	a0,zero,.L44
.LVL48:
.L45:
	.loc 1 180 5 is_stmt 1
	.loc 1 180 16 is_stmt 0
	sw	s0,0(a3)
	.loc 1 181 5 is_stmt 1
	.loc 1 182 1 is_stmt 0
	lw	ra,28(sp)
	.cfi_remember_state
	.cfi_restore 1
	lw	s0,24(sp)
	.cfi_restore 8
.LVL49:
	lw	s1,20(sp)
	.cfi_restore 9
.LVL50:
	li	a0,0
	addi	sp,sp,32
	.cfi_def_cfa_offset 0
	jr	ra
.LVL51:
.L44:
	.cfi_restore_state
	.loc 1 176 9 is_stmt 1
	.loc 1 176 35 is_stmt 0
	add	a5,a1,s0
	sb	a0,0(a5)
	.loc 1 177 9 is_stmt 1
	.loc 1 177 16 is_stmt 0
	addi	s0,s0,1
.LVL52:
	j	.L42
	.cfi_endproc
.LFE49:
	.size	hal_uart_recv_II, .-hal_uart_recv_II
	.section	.text.hal_uart_finalize,"ax",@progbits
	.align	1
	.globl	hal_uart_finalize
	.type	hal_uart_finalize, @function
hal_uart_finalize:
.LFB50:
	.loc 1 185 1 is_stmt 1
	.cfi_startproc
.LVL53:
	.loc 1 186 5
	.loc 1 188 5
	.loc 1 189 5
	.loc 1 185 1 is_stmt 0
	addi	sp,sp,-16
	.cfi_def_cfa_offset 16
	sw	ra,12(sp)
.LVL54:
	.cfi_offset 1, -4
	.loc 1 189 5
	lw	a0,300(a0)
.LVL55:
	call	aos_mutex_free
.LVL56:
	.loc 1 191 5 is_stmt 1
	.loc 1 192 1 is_stmt 0
	lw	ra,12(sp)
	.cfi_restore 1
	li	a0,0
	addi	sp,sp,16
	.cfi_def_cfa_offset 0
	jr	ra
	.cfi_endproc
.LFE50:
	.size	hal_uart_finalize, .-hal_uart_finalize
	.section	.text.hal_uart_notify_register,"ax",@progbits
	.align	1
	.globl	hal_uart_notify_register
	.type	hal_uart_notify_register, @function
hal_uart_notify_register:
.LFB51:
	.loc 1 196 1 is_stmt 1
	.cfi_startproc
.LVL57:
	.loc 1 197 5
	.loc 1 196 1 is_stmt 0
	addi	sp,sp,-16
	.cfi_def_cfa_offset 16
	sw	ra,12(sp)
	.cfi_offset 1, -4
	.loc 1 196 1
	mv	a2,a0
	.loc 1 197 5
	lbu	a0,0(a0)
.LVL58:
	call	bl_uart_int_cb_notify_register
.LVL59:
	.loc 1 198 5 is_stmt 1
	.loc 1 199 1 is_stmt 0
	lw	ra,12(sp)
	.cfi_restore 1
	li	a0,0
	addi	sp,sp,16
	.cfi_def_cfa_offset 0
	jr	ra
	.cfi_endproc
.LFE51:
	.size	hal_uart_notify_register, .-hal_uart_notify_register
	.section	.text.hal_uart_notify_unregister,"ax",@progbits
	.align	1
	.globl	hal_uart_notify_unregister
	.type	hal_uart_notify_unregister, @function
hal_uart_notify_unregister:
.LFB52:
	.loc 1 202 1 is_stmt 1
	.cfi_startproc
.LVL60:
	.loc 1 203 5
	.loc 1 202 1 is_stmt 0
	addi	sp,sp,-16
	.cfi_def_cfa_offset 16
	sw	ra,12(sp)
	.cfi_offset 1, -4
	.loc 1 202 1
	mv	a2,a0
	.loc 1 203 5
	lbu	a0,0(a0)
.LVL61:
	call	bl_uart_int_cb_notify_unregister
.LVL62:
	.loc 1 204 5 is_stmt 1
	.loc 1 205 1 is_stmt 0
	lw	ra,12(sp)
	.cfi_restore 1
	li	a0,0
	addi	sp,sp,16
	.cfi_def_cfa_offset 0
	jr	ra
	.cfi_endproc
.LFE52:
	.size	hal_uart_notify_unregister, .-hal_uart_notify_unregister
	.section	.text.vfs_uart_init_simple_mode,"ax",@progbits
	.align	1
	.globl	vfs_uart_init_simple_mode
	.type	vfs_uart_init_simple_mode, @function
vfs_uart_init_simple_mode:
.LFB54:
	.loc 1 364 1 is_stmt 1
	.cfi_startproc
.LVL63:
	.loc 1 365 5
	.loc 1 364 1 is_stmt 0
	addi	sp,sp,-32
	.cfi_def_cfa_offset 32
	sw	ra,28(sp)
	sw	s0,24(sp)
	sw	s1,20(sp)
	.cfi_offset 1, -4
	.cfi_offset 8, -8
	.cfi_offset 9, -12
	.loc 1 364 1
	mv	s0,a0
	mv	s1,a4
	sw	a1,12(sp)
	sw	a2,8(sp)
	sw	a3,4(sp)
	.loc 1 365 5
	call	bl_uart_flush
.LVL64:
	.loc 1 367 5 is_stmt 1
	lw	a1,12(sp)
	lw	a5,4(sp)
	lw	a2,8(sp)
	li	a4,255
	li	a3,255
	mv	a0,s0
	call	bl_uart_init
.LVL65:
	.loc 1 369 5
	.loc 1 369 9 is_stmt 0
	mv	a1,s1
	mv	a0,s0
	call	dev_uart_init
.LVL66:
	.loc 1 369 8
	beq	a0,zero,.L55
	.loc 1 370 9 is_stmt 1 discriminator 1
	.loc 1 370 47 discriminator 1
	.loc 1 370 52 discriminator 1
	.loc 1 370 75 is_stmt 0 discriminator 1
	lui	a5,%hi(_fsymc_level_hal_drv)
	.loc 1 370 55 discriminator 1
	lbu	a4,%lo(_fsymc_level_hal_drv)(a5)
	li	a5,4
	bgtu	a4,a5,.L55
	.loc 1 370 121 discriminator 3
	lui	a4,%hi(_fsymf_level_hal_drvhal_uart)
	.loc 1 370 100 discriminator 3
	lbu	a4,%lo(_fsymf_level_hal_drvhal_uart)(a4)
	bgtu	a4,a5,.L55
	.loc 1 370 158 is_stmt 1
.LBB88:
.LBB89:
	.loc 2 151 5
	.loc 2 151 31 is_stmt 0
	lui	a5,%hi(TrapNetCounter)
.LBE89:
.LBE88:
	.loc 1 370 158
	lw	a5,%lo(TrapNetCounter)(a5)
	beq	a5,zero,.L56
	.loc 1 370 244 discriminator 7
	call	xTaskGetTickCountFromISR
.LVL67:
.L57:
	.loc 1 370 158 discriminator 10
	lui	a3,%hi(.LC5)
	lui	a2,%hi(.LC6)
	mv	a1,a0
	lui	a0,%hi(.LC10)
	li	a4,370
	addi	a3,a3,%lo(.LC5)
	addi	a2,a2,%lo(.LC6)
	addi	a0,a0,%lo(.LC10)
	call	bl_printk
.LVL68:
.L55:
	.loc 1 370 356 is_stmt 1 discriminator 11
	.loc 1 373 5 discriminator 11
	.loc 1 374 1 is_stmt 0 discriminator 11
	lw	ra,28(sp)
	.cfi_remember_state
	.cfi_restore 1
	lw	s0,24(sp)
	.cfi_restore 8
	lw	s1,20(sp)
	.cfi_restore 9
.LVL69:
	li	a0,0
	addi	sp,sp,32
	.cfi_def_cfa_offset 0
.LVL70:
	jr	ra
.LVL71:
.L56:
	.cfi_restore_state
	.loc 1 370 273 discriminator 8
	call	xTaskGetTickCount
.LVL72:
	j	.L57
	.cfi_endproc
.LFE54:
	.size	vfs_uart_init_simple_mode, .-vfs_uart_init_simple_mode
	.section	.text.vfs_uart_init,"ax",@progbits
	.align	1
	.globl	vfs_uart_init
	.type	vfs_uart_init, @function
vfs_uart_init:
.LFB55:
	.loc 1 377 1 is_stmt 1
	.cfi_startproc
.LVL73:
	.loc 1 378 5
	.loc 1 378 16 is_stmt 0
	lui	a5,%hi(.LANCHOR2)
	.loc 1 378 8
	lb	a3,%lo(.LANCHOR2)(a5)
	.loc 1 377 1
	addi	sp,sp,-192
	.cfi_def_cfa_offset 192
	addi	a5,a5,%lo(.LANCHOR2)
	sw	ra,188(sp)
	sw	s0,184(sp)
	sw	s1,180(sp)
	sw	s2,176(sp)
	sw	s3,172(sp)
	sw	s4,168(sp)
	sw	s5,164(sp)
	sw	s6,160(sp)
	sw	s7,156(sp)
	sw	s8,152(sp)
	sw	s9,148(sp)
	sw	s10,144(sp)
	sw	s11,140(sp)
	.cfi_offset 1, -4
	.cfi_offset 8, -8
	.cfi_offset 9, -12
	.cfi_offset 18, -16
	.cfi_offset 19, -20
	.cfi_offset 20, -24
	.cfi_offset 21, -28
	.cfi_offset 22, -32
	.cfi_offset 23, -36
	.cfi_offset 24, -40
	.cfi_offset 25, -44
	.cfi_offset 26, -48
	.cfi_offset 27, -52
	.loc 1 378 8
	li	a4,1
	sw	a5,52(sp)
	beq	a3,a4,.L63
.LBB130:
.LBB131:
	.loc 1 229 17
	lui	a5,%hi(.LC11)
	addi	a5,a5,%lo(.LC11)
	sw	a1,56(sp)
	sw	a5,72(sp)
	.loc 1 238 7
	lui	a1,%hi(.LANCHOR3)
.LVL74:
	.loc 1 229 17
	lui	a5,%hi(.LC12)
	addi	a5,a5,%lo(.LC12)
	mv	s3,a0
.LBE131:
.LBE130:
	.loc 1 382 5 is_stmt 1
.LVL75:
.LBB182:
.LBB180:
	.loc 1 216 5
	.loc 1 217 5
	.loc 1 219 5
	.loc 1 220 5
	.loc 1 238 7 is_stmt 0
	li	a2,48
	addi	a1,a1,%lo(.LANCHOR3)
	addi	a0,sp,80
.LVL76:
	.loc 1 229 17
	sw	a5,76(sp)
	.loc 1 220 9
	sw	zero,68(sp)
	.loc 1 221 5 is_stmt 1
.LVL77:
	.loc 1 222 5
	.loc 1 223 5
	.loc 1 225 5
	.loc 1 226 5
	.loc 1 227 5
	.loc 1 229 5
	.loc 1 234 5
	.loc 1 238 7 is_stmt 0
	call	memcpy
.LVL78:
	.loc 1 261 5 is_stmt 1
	addi	a5,sp,72
	sw	a5,36(sp)
	.loc 1 261 12 is_stmt 0
	li	s1,0
	.loc 1 333 164
	lui	s0,%hi(.LC5)
	lui	s2,%hi(.LC14)
.LVL79:
.L134:
	.loc 1 262 9 is_stmt 1
	.loc 1 262 19 is_stmt 0
	lw	a5,36(sp)
	lw	a1,56(sp)
	mv	a0,s3
	lw	s4,0(a5)
	mv	a2,s4
	call	fdt_subnode_offset
.LVL80:
	mv	s5,a0
.LVL81:
	.loc 1 263 9 is_stmt 1
	.loc 1 263 12 is_stmt 0
	bgt	a0,zero,.L64
	.loc 1 264 13 is_stmt 1
	.loc 1 264 51
	.loc 1 264 56
	.loc 1 264 78 is_stmt 0
	lui	a5,%hi(_fsymc_level_hal_drv)
	.loc 1 264 59
	lbu	a4,%lo(_fsymc_level_hal_drv)(a5)
	li	a5,2
	bgtu	a4,a5,.L66
	.loc 1 264 123
	lui	a4,%hi(_fsymf_level_hal_drvhal_uart)
	.loc 1 264 103
	lbu	a4,%lo(_fsymf_level_hal_drvhal_uart)(a4)
	bgtu	a4,a5,.L66
	.loc 1 264 160 is_stmt 1
.LBB132:
.LBB133:
	.loc 2 151 5
	.loc 2 151 31 is_stmt 0
	lui	a5,%hi(TrapNetCounter)
.LBE133:
.LBE132:
	.loc 1 264 160
	lw	a5,%lo(TrapNetCounter)(a5)
	beq	a5,zero,.L68
	.loc 1 264 245
	call	xTaskGetTickCountFromISR
.LVL82:
.L69:
	.loc 1 264 160
	mv	a1,a0
	lui	a0,%hi(.LC15)
	mv	a6,s4
	mv	a5,s1
	li	a4,264
	addi	a3,s0,%lo(.LC5)
	addi	a2,s2,%lo(.LC14)
	addi	a0,a0,%lo(.LC15)
.L144:
	.loc 1 282 160
	call	bl_printk
.LVL83:
	j	.L66
.LVL84:
.L135:
	.loc 1 261 5
	li	s1,1
.LVL85:
	j	.L134
.LVL86:
.L68:
	.loc 1 264 274
	call	xTaskGetTickCount
.LVL87:
	j	.L69
.LVL88:
.L64:
	.loc 1 268 9 is_stmt 1
	.loc 1 268 22 is_stmt 0
	lui	s6,%hi(.LC16)
	mv	a1,a0
	addi	a2,s6,%lo(.LC16)
	mv	a0,s3
.LVL89:
	call	fdt_stringlist_count
.LVL90:
	.loc 1 269 12
	li	a5,1
	.loc 1 268 22
	mv	s4,a0
.LVL91:
	.loc 1 269 9 is_stmt 1
	.loc 1 269 12 is_stmt 0
	beq	a0,a5,.L70
	.loc 1 270 13 is_stmt 1
	.loc 1 270 51
	.loc 1 270 56
	.loc 1 270 78 is_stmt 0
	lui	a5,%hi(_fsymc_level_hal_drv)
	.loc 1 270 59
	lbu	a4,%lo(_fsymc_level_hal_drv)(a5)
	li	a5,2
	bgtu	a4,a5,.L66
	.loc 1 270 123
	lui	a4,%hi(_fsymf_level_hal_drvhal_uart)
	.loc 1 270 103
	lbu	a4,%lo(_fsymf_level_hal_drvhal_uart)(a4)
	bgtu	a4,a5,.L66
	.loc 1 270 160 is_stmt 1
.LBB134:
.LBB135:
	.loc 2 151 5
	.loc 2 151 31 is_stmt 0
	lui	a5,%hi(TrapNetCounter)
.LBE135:
.LBE134:
	.loc 1 270 160
	lw	a5,%lo(TrapNetCounter)(a5)
	beq	a5,zero,.L71
	.loc 1 270 265
	call	xTaskGetTickCountFromISR
.LVL92:
.L72:
	.loc 1 270 160
	mv	a1,a0
	lui	a0,%hi(.LC17)
	mv	a6,s4
	mv	a5,s1
	li	a4,270
	addi	a3,s0,%lo(.LC5)
	addi	a2,s2,%lo(.LC14)
	addi	a0,a0,%lo(.LC17)
	j	.L144
.LVL93:
.L71:
	.loc 1 270 294
	call	xTaskGetTickCount
.LVL94:
	j	.L72
.LVL95:
.L70:
	.loc 1 273 9 is_stmt 1
	.loc 1 273 18 is_stmt 0
	addi	a4,sp,68
	addi	a2,s6,%lo(.LC16)
	li	a3,0
	mv	a1,s5
	mv	a0,s3
.LVL96:
	call	fdt_stringlist_get
.LVL97:
	.loc 1 274 12
	lw	a4,68(sp)
	li	a5,4
	.loc 1 273 18
	mv	s6,a0
.LVL98:
	.loc 1 274 9 is_stmt 1
	.loc 1 274 12 is_stmt 0
	beq	a4,a5,.L73
.LVL99:
.L75:
	.loc 1 275 13 is_stmt 1
	.loc 1 275 51
	.loc 1 275 56
	.loc 1 275 78 is_stmt 0
	lui	a5,%hi(_fsymc_level_hal_drv)
	.loc 1 275 59
	lbu	a4,%lo(_fsymc_level_hal_drv)(a5)
	li	a5,2
	bleu	a4,a5,.L74
.LVL100:
.L66:
	.loc 1 356 360 is_stmt 1
	lw	a5,36(sp)
	addi	a5,a5,4
	sw	a5,36(sp)
	.loc 1 261 5 is_stmt 0
	beq	s1,zero,.L135
.LVL101:
.LBE180:
.LBE182:
	.loc 1 384 5 is_stmt 1
	.loc 1 384 12 is_stmt 0
	lw	a5,52(sp)
	sb	s1,0(a5)
	.loc 1 386 5 is_stmt 1
.LVL102:
.L63:
	.loc 1 387 1 is_stmt 0
	lw	ra,188(sp)
	.cfi_remember_state
	.cfi_restore 1
	lw	s0,184(sp)
	.cfi_restore 8
	lw	s1,180(sp)
	.cfi_restore 9
	lw	s2,176(sp)
	.cfi_restore 18
	lw	s3,172(sp)
	.cfi_restore 19
	lw	s4,168(sp)
	.cfi_restore 20
	lw	s5,164(sp)
	.cfi_restore 21
	lw	s6,160(sp)
	.cfi_restore 22
	lw	s7,156(sp)
	.cfi_restore 23
	lw	s8,152(sp)
	.cfi_restore 24
	lw	s9,148(sp)
	.cfi_restore 25
	lw	s10,144(sp)
	.cfi_restore 26
	lw	s11,140(sp)
	.cfi_restore 27
	li	a0,0
	addi	sp,sp,192
	.cfi_def_cfa_offset 0
	jr	ra
.LVL103:
.L73:
	.cfi_restore_state
.LBB183:
.LBB181:
	.loc 1 274 31
	lui	a5,%hi(.LC18)
	mv	a1,a0
	li	a2,4
	addi	a0,a5,%lo(.LC18)
.LVL104:
	call	memcmp
.LVL105:
	.loc 1 274 27
	bne	a0,zero,.L75
	.loc 1 280 9 is_stmt 1
	.loc 1 280 22 is_stmt 0
	lui	s6,%hi(.LC20)
.LVL106:
	addi	a2,s6,%lo(.LC20)
	mv	a1,s5
	mv	a0,s3
	call	fdt_stringlist_count
.LVL107:
	mv	s7,a0
.LVL108:
	.loc 1 281 9 is_stmt 1
	.loc 1 281 12 is_stmt 0
	beq	a0,s4,.L79
	.loc 1 282 13 is_stmt 1
	.loc 1 282 51
	.loc 1 282 56
	.loc 1 282 78 is_stmt 0
	lui	a5,%hi(_fsymc_level_hal_drv)
	.loc 1 282 59
	lbu	a4,%lo(_fsymc_level_hal_drv)(a5)
	li	a5,2
	bgtu	a4,a5,.L66
	.loc 1 282 123
	lui	a4,%hi(_fsymf_level_hal_drvhal_uart)
	.loc 1 282 103
	lbu	a4,%lo(_fsymf_level_hal_drvhal_uart)(a4)
	bgtu	a4,a5,.L66
	.loc 1 282 160 is_stmt 1
.LBB136:
.LBB137:
	.loc 2 151 5
	.loc 2 151 31 is_stmt 0
	lui	a5,%hi(TrapNetCounter)
.LBE137:
.LBE136:
	.loc 1 282 160
	lw	a5,%lo(TrapNetCounter)(a5)
	beq	a5,zero,.L80
	.loc 1 282 263
	call	xTaskGetTickCountFromISR
.LVL109:
.L81:
	.loc 1 282 160
	mv	a1,a0
	lui	a0,%hi(.LC21)
	mv	a6,s7
	mv	a5,s1
	li	a4,282
	addi	a3,s0,%lo(.LC5)
	addi	a2,s2,%lo(.LC14)
	addi	a0,a0,%lo(.LC21)
	j	.L144
.LVL110:
.L74:
	.loc 1 275 123
	lui	a4,%hi(_fsymf_level_hal_drvhal_uart)
	.loc 1 275 103
	lbu	a4,%lo(_fsymf_level_hal_drvhal_uart)(a4)
	bgtu	a4,a5,.L66
	.loc 1 275 160 is_stmt 1
.LBB138:
.LBB139:
	.loc 2 151 5
	.loc 2 151 31 is_stmt 0
	lui	a5,%hi(TrapNetCounter)
.LBE139:
.LBE138:
	.loc 1 275 160
	lw	a5,%lo(TrapNetCounter)(a5)
	beq	a5,zero,.L77
	.loc 1 275 248
	call	xTaskGetTickCountFromISR
.LVL111:
.L78:
	.loc 1 275 160
	mv	a1,a0
	lui	a0,%hi(.LC19)
	mv	a6,s6
	mv	a5,s1
	li	a4,275
	addi	a3,s0,%lo(.LC5)
	addi	a2,s2,%lo(.LC14)
	addi	a0,a0,%lo(.LC19)
	j	.L144
.L77:
	.loc 1 275 277
	call	xTaskGetTickCount
.LVL112:
	j	.L78
.LVL113:
.L80:
	.loc 1 282 292
	call	xTaskGetTickCount
.LVL114:
	j	.L81
.LVL115:
.L79:
	.loc 1 285 9 is_stmt 1
	.loc 1 285 18 is_stmt 0
	addi	a4,sp,68
	li	a3,0
	addi	a2,s6,%lo(.LC20)
	mv	a1,s5
	mv	a0,s3
.LVL116:
	call	fdt_stringlist_get
.LVL117:
	.loc 1 286 12
	lw	a4,68(sp)
	.loc 1 285 18
	sw	a0,48(sp)
.LVL118:
	.loc 1 286 9 is_stmt 1
	.loc 1 286 12 is_stmt 0
	li	a5,32
	bleu	a4,a5,.L82
	.loc 1 288 13 is_stmt 1
	.loc 1 288 51
	.loc 1 288 56
	.loc 1 288 78 is_stmt 0
	lui	a5,%hi(_fsymc_level_hal_drv)
	.loc 1 288 59
	lbu	a4,%lo(_fsymc_level_hal_drv)(a5)
	li	a5,2
	bgtu	a4,a5,.L82
	.loc 1 288 123
	lui	a4,%hi(_fsymf_level_hal_drvhal_uart)
	.loc 1 288 103
	lbu	a4,%lo(_fsymf_level_hal_drvhal_uart)(a4)
	bgtu	a4,a5,.L82
	.loc 1 288 160 is_stmt 1
.LBB140:
.LBB141:
	.loc 2 151 5
	.loc 2 151 31 is_stmt 0
	lui	a5,%hi(TrapNetCounter)
.LBE141:
.LBE140:
	.loc 1 288 160
	lw	a5,%lo(TrapNetCounter)(a5)
	beq	a5,zero,.L83
	.loc 1 288 253
	call	xTaskGetTickCountFromISR
.LVL119:
.L84:
	.loc 1 288 160
	lw	a6,68(sp)
	mv	a1,a0
	lui	a0,%hi(.LC22)
	mv	a5,s1
	li	a4,288
	addi	a3,s0,%lo(.LC5)
	addi	a2,s2,%lo(.LC14)
	addi	a0,a0,%lo(.LC22)
	call	bl_printk
.LVL120:
.L82:
	.loc 1 288 376 is_stmt 1
	.loc 1 290 9
	.loc 1 293 9
	.loc 1 293 21 is_stmt 0
	lui	a2,%hi(.LC23)
	addi	a3,sp,68
	addi	a2,a2,%lo(.LC23)
	mv	a1,s5
	mv	a0,s3
	call	fdt_getprop
.LVL121:
	.loc 1 294 9 is_stmt 1
	.loc 1 294 12 is_stmt 0
	bne	a0,zero,.L85
	.loc 1 295 13 is_stmt 1
	.loc 1 295 51
	.loc 1 295 56
	.loc 1 295 78 is_stmt 0
	lui	a5,%hi(_fsymc_level_hal_drv)
	.loc 1 295 59
	lbu	a4,%lo(_fsymc_level_hal_drv)(a5)
	li	a5,2
	bgtu	a4,a5,.L66
	.loc 1 295 123
	lui	a4,%hi(_fsymf_level_hal_drvhal_uart)
	.loc 1 295 103
	lbu	a4,%lo(_fsymf_level_hal_drvhal_uart)(a4)
	bgtu	a4,a5,.L66
	.loc 1 295 160 is_stmt 1
.LBB142:
.LBB143:
	.loc 2 151 5
	.loc 2 151 31 is_stmt 0
	lui	a5,%hi(TrapNetCounter)
.LBE143:
.LBE142:
	.loc 1 295 160
	lw	a5,%lo(TrapNetCounter)(a5)
	beq	a5,zero,.L86
	.loc 1 295 251
	call	xTaskGetTickCountFromISR
.LVL122:
.L87:
	.loc 1 295 160
	mv	a1,a0
	lui	a0,%hi(.LC24)
	mv	a5,s1
	li	a4,295
	addi	a3,s0,%lo(.LC5)
	addi	a2,s2,%lo(.LC14)
	addi	a0,a0,%lo(.LC24)
.L143:
	.loc 1 303 160
	call	bl_printk
.LVL123:
	j	.L66
.LVL124:
.L83:
	.loc 1 288 282
	call	xTaskGetTickCount
.LVL125:
	j	.L84
.LVL126:
.L86:
	.loc 1 295 280
	call	xTaskGetTickCount
.LVL127:
	j	.L87
.LVL128:
.L85:
	.loc 1 298 9 is_stmt 1
	.loc 1 301 21 is_stmt 0
	lui	a2,%hi(.LC25)
	.loc 1 298 31
	lw	s6,0(a0)
.LVL129:
.LBB144:
.LBB145:
	.file 3 "/home/hogc/build-tools/sdk/bl/bl_iot_sdk/components/stage/blfdt/inc/libfdt_env.h"
	.loc 3 122 5 is_stmt 1
.LBE145:
.LBE144:
	.loc 1 301 9
	.loc 1 301 21 is_stmt 0
	addi	a3,sp,68
	addi	a2,a2,%lo(.LC25)
	mv	a1,s5
	mv	a0,s3
.LVL130:
	call	fdt_getprop
.LVL131:
	.loc 1 302 9 is_stmt 1
	.loc 1 302 12 is_stmt 0
	bne	a0,zero,.L88
	.loc 1 303 13 is_stmt 1
	.loc 1 303 51
	.loc 1 303 56
	.loc 1 303 78 is_stmt 0
	lui	a5,%hi(_fsymc_level_hal_drv)
	.loc 1 303 59
	lbu	a4,%lo(_fsymc_level_hal_drv)(a5)
	li	a5,2
	bgtu	a4,a5,.L66
	.loc 1 303 123
	lui	a4,%hi(_fsymf_level_hal_drvhal_uart)
	.loc 1 303 103
	lbu	a4,%lo(_fsymf_level_hal_drvhal_uart)(a4)
	bgtu	a4,a5,.L66
	.loc 1 303 160 is_stmt 1
.LBB149:
.LBB150:
	.loc 2 151 5
	.loc 2 151 31 is_stmt 0
	lui	a5,%hi(TrapNetCounter)
.LBE150:
.LBE149:
	.loc 1 303 160
	lw	a5,%lo(TrapNetCounter)(a5)
	beq	a5,zero,.L89
	.loc 1 303 245
	call	xTaskGetTickCountFromISR
.LVL132:
.L90:
	.loc 1 303 160
	mv	a1,a0
	lui	a0,%hi(.LC26)
	mv	a5,s1
	li	a4,303
	addi	a3,s0,%lo(.LC5)
	addi	a2,s2,%lo(.LC14)
	addi	a0,a0,%lo(.LC26)
	j	.L143
.LVL133:
.L89:
	.loc 1 303 274
	call	xTaskGetTickCount
.LVL134:
	j	.L90
.LVL135:
.L88:
.LBB151:
.LBB146:
	.loc 3 122 212
	srli	a5,s6,24
	.loc 3 122 12
	slli	s4,s6,24
	or	s4,s4,a5
	.loc 3 122 112
	srli	a5,s6,8
	andi	a5,a5,0xff
	.loc 3 122 117
	slli	a5,a5,16
	.loc 3 122 12
	or	s4,s4,a5
.LBE146:
.LBE151:
	.loc 1 306 24
	lw	a5,0(a0)
.LBB152:
.LBB147:
	.loc 3 122 163
	srli	s6,s6,16
.LVL136:
	andi	s6,s6,0xff
.LBE147:
.LBE152:
.LBB153:
.LBB154:
	.loc 3 122 212
	srli	a3,a5,24
	.loc 3 122 12
	slli	a4,a5,24
	or	a4,a4,a3
	.loc 3 122 112
	srli	a3,a5,8
	andi	a3,a3,0xff
	.loc 3 122 163
	srli	a5,a5,16
	.loc 3 122 117
	slli	a3,a3,16
	.loc 3 122 163
	andi	a5,a5,0xff
	.loc 3 122 12
	or	a4,a4,a3
	.loc 3 122 168
	slli	a5,a5,8
	.loc 3 122 12
	or	a5,a4,a5
	sw	a5,44(sp)
.LBE154:
.LBE153:
	.loc 1 306 12
	lbu	a5,44(sp)
.LBB156:
.LBB148:
	.loc 3 122 168
	slli	s6,s6,8
	.loc 3 122 12
	or	s4,s4,s6
.LBE148:
.LBE156:
	.loc 1 306 9 is_stmt 1
.LBB157:
.LBB155:
	.loc 3 122 5
.LBE155:
.LBE157:
	.loc 1 306 12 is_stmt 0
	sw	a5,40(sp)
.LVL137:
	.loc 1 308 9 is_stmt 1
	addi	s6,sp,80
	.loc 1 333 82 is_stmt 0
	lui	s10,%hi(_fsymc_level_hal_drv)
	.loc 1 333 127
	lui	s7,%hi(_fsymf_level_hal_drvhal_uart)
.LVL138:
.LBB158:
.LBB159:
	.loc 2 151 31
	lui	s8,%hi(TrapNetCounter)
.LVL139:
.L118:
.LBE159:
.LBE158:
	.loc 1 309 13 is_stmt 1
	.loc 1 309 23 is_stmt 0
	lui	a5,%hi(.LC27)
	addi	a2,a5,%lo(.LC27)
	mv	a1,s5
	mv	a0,s3
	call	fdt_subnode_offset
.LVL140:
	.loc 1 310 13 is_stmt 1
	.loc 1 310 16 is_stmt 0
	bgt	a0,zero,.L91
	.loc 1 311 17 is_stmt 1
	.loc 1 311 55
	.loc 1 311 60
	.loc 1 311 63 is_stmt 0
	lbu	a4,%lo(_fsymc_level_hal_drv)(s10)
	li	a5,2
	bgtu	a4,a5,.L93
	.loc 1 311 107
	lbu	a4,%lo(_fsymf_level_hal_drvhal_uart)(s7)
	bgtu	a4,a5,.L93
	.loc 1 311 164 is_stmt 1
.LBB161:
.LBB162:
	.loc 2 151 5
.LBE162:
.LBE161:
	.loc 1 311 164 is_stmt 0
	lw	a5,%lo(TrapNetCounter)(s8)
	beq	a5,zero,.L95
	.loc 1 311 254
	call	xTaskGetTickCountFromISR
.LVL141:
.L96:
	.loc 1 311 164
	mv	a1,a0
	lui	a0,%hi(.LC28)
	mv	a5,s1
	li	a4,311
	addi	a3,s0,%lo(.LC5)
	addi	a2,s2,%lo(.LC14)
	addi	a0,a0,%lo(.LC28)
	call	bl_printk
.LVL142:
.L93:
	addi	s6,s6,12
	.loc 1 308 9
	addi	a5,sp,128
	bne	a5,s6,.L118
	j	.L114
.LVL143:
.L95:
	.loc 1 311 283
	call	xTaskGetTickCount
.LVL144:
	j	.L96
.LVL145:
.L91:
	.loc 1 314 13 is_stmt 1
	.loc 1 314 75 is_stmt 0
	lw	s9,0(s6)
	.loc 1 314 26
	mv	a1,a0
	sw	a0,60(sp)
	mv	a2,s9
	mv	a0,s3
.LVL146:
	call	fdt_stringlist_count
.LVL147:
	.loc 1 315 16
	li	a4,1
	.loc 1 314 26
	mv	s11,a0
.LVL148:
	.loc 1 315 13 is_stmt 1
	.loc 1 315 16 is_stmt 0
	lw	a5,60(sp)
	beq	a0,a4,.L97
	.loc 1 316 17 is_stmt 1
	.loc 1 316 55
	.loc 1 316 60
	.loc 1 316 63 is_stmt 0
	lbu	a4,%lo(_fsymc_level_hal_drv)(s10)
	li	a5,2
	bgtu	a4,a5,.L93
	.loc 1 316 107
	lbu	a4,%lo(_fsymf_level_hal_drvhal_uart)(s7)
	bgtu	a4,a5,.L93
	.loc 1 316 164 is_stmt 1
.LBB163:
.LBB164:
	.loc 2 151 5
.LBE164:
.LBE163:
	.loc 1 316 164 is_stmt 0
	lw	a5,%lo(TrapNetCounter)(s8)
	beq	a5,zero,.L98
	.loc 1 316 260
	call	xTaskGetTickCountFromISR
.LVL149:
.L99:
	.loc 1 316 164
	mv	a1,a0
	lui	a0,%hi(.LC29)
	mv	a7,s11
	mv	a6,s9
	mv	a5,s1
	li	a4,316
	addi	a3,s0,%lo(.LC5)
	addi	a2,s2,%lo(.LC14)
	addi	a0,a0,%lo(.LC29)
	call	bl_printk
.LVL150:
	j	.L93
.LVL151:
.L98:
	.loc 1 316 289
	call	xTaskGetTickCount
.LVL152:
	j	.L99
.LVL153:
.L97:
	.loc 1 319 13 is_stmt 1
	.loc 1 319 22 is_stmt 0
	addi	a4,sp,68
	mv	a1,a5
	li	a3,0
	mv	a2,s9
	mv	a0,s3
.LVL154:
	call	fdt_stringlist_get
.LVL155:
	.loc 1 320 16
	lw	a4,68(sp)
	li	a5,4
	.loc 1 319 22
	mv	s11,a0
.LVL156:
	.loc 1 320 13 is_stmt 1
	.loc 1 320 16 is_stmt 0
	beq	a4,a5,.L100
.LVL157:
.L102:
	.loc 1 321 17 is_stmt 1
	.loc 1 321 55
	.loc 1 321 60
	.loc 1 321 63 is_stmt 0
	lbu	a4,%lo(_fsymc_level_hal_drv)(s10)
	li	a5,2
	bgtu	a4,a5,.L93
	.loc 1 321 107
	lbu	a4,%lo(_fsymf_level_hal_drvhal_uart)(s7)
	bgtu	a4,a5,.L93
	.loc 1 321 164 is_stmt 1
.LBB165:
.LBB166:
	.loc 2 151 5
.LBE166:
.LBE165:
	.loc 1 321 164 is_stmt 0
	lw	a5,%lo(TrapNetCounter)(s8)
	beq	a5,zero,.L104
	.loc 1 321 267
	call	xTaskGetTickCountFromISR
.LVL158:
.L105:
	.loc 1 321 164
	lw	a5,68(sp)
	mv	a1,a0
	lui	a0,%hi(.LC30)
	sw	a5,0(sp)
	mv	a7,s11
	mv	a6,s9
	mv	a5,s1
	li	a4,321
	addi	a3,s0,%lo(.LC5)
	addi	a2,s2,%lo(.LC14)
	addi	a0,a0,%lo(.LC30)
	call	bl_printk
.LVL159:
	j	.L93
.LVL160:
.L100:
	.loc 1 320 35
	lui	a5,%hi(.LC18)
	mv	a1,a0
	li	a2,4
	addi	a0,a5,%lo(.LC18)
.LVL161:
	call	memcmp
.LVL162:
	.loc 1 320 31
	bne	a0,zero,.L102
	.loc 1 326 13 is_stmt 1
	.loc 1 326 23 is_stmt 0
	lui	a5,%hi(.LC31)
	mv	a1,s5
	addi	a2,a5,%lo(.LC31)
	mv	a0,s3
	call	fdt_subnode_offset
.LVL163:
	mv	a1,a0
.LVL164:
	.loc 1 327 13 is_stmt 1
	.loc 1 327 16 is_stmt 0
	bgt	a0,zero,.L106
	.loc 1 328 17 is_stmt 1
	.loc 1 328 55
	.loc 1 328 60
	.loc 1 328 82 is_stmt 0
	lui	a5,%hi(_fsymc_level_hal_drv)
	.loc 1 328 63
	lbu	a4,%lo(_fsymc_level_hal_drv)(a5)
	li	a5,2
	bgtu	a4,a5,.L108
	.loc 1 328 127
	lui	a4,%hi(_fsymf_level_hal_drvhal_uart)
	.loc 1 328 107
	lbu	a4,%lo(_fsymf_level_hal_drvhal_uart)(a4)
	bleu	a4,a5,.L109
.LVL165:
.L108:
	.loc 1 344 22 is_stmt 1
	.loc 1 347 9
	lw	a0,40(sp)
	.loc 1 352 74 is_stmt 0
	lui	s5,%hi(_fsymc_level_hal_drv)
.LVL166:
	.loc 1 347 9
	call	bl_uart_flush
.LVL167:
	.loc 1 349 9 is_stmt 1
	lbu	a4,124(sp)
	lbu	a3,112(sp)
	lbu	a2,100(sp)
	lbu	a1,88(sp)
	lw	a0,40(sp)
	mv	a5,s4
	call	bl_uart_init
.LVL168:
	.loc 1 352 9
	.loc 1 352 47
	.loc 1 352 52
	.loc 1 352 55 is_stmt 0
	lbu	a4,%lo(_fsymc_level_hal_drv)(s5)
	li	a5,2
	bgtu	a4,a5,.L123
	.loc 1 352 119
	lui	s6,%hi(_fsymf_level_hal_drvhal_uart)
	.loc 1 352 99
	lbu	a4,%lo(_fsymf_level_hal_drvhal_uart)(s6)
	bleu	a4,a5,.L124
.L123:
	.loc 1 353 384 is_stmt 1
	.loc 1 355 9
	.loc 1 355 13 is_stmt 0
	lw	a1,48(sp)
	lw	a0,40(sp)
	call	dev_uart_init
.LVL169:
	.loc 1 355 12
	beq	a0,zero,.L66
	.loc 1 356 13 is_stmt 1
	.loc 1 356 51
	.loc 1 356 56
	.loc 1 356 59 is_stmt 0
	lbu	a4,%lo(_fsymc_level_hal_drv)(s5)
	li	a5,4
	bgtu	a4,a5,.L66
	.loc 1 356 125
	lui	a4,%hi(_fsymf_level_hal_drvhal_uart)
	.loc 1 356 104
	lbu	a4,%lo(_fsymf_level_hal_drvhal_uart)(a4)
	bgtu	a4,a5,.L66
	.loc 1 356 162 is_stmt 1
.LBB167:
.LBB168:
	.loc 2 151 5
	.loc 2 151 31 is_stmt 0
	lui	a5,%hi(TrapNetCounter)
.LBE168:
.LBE167:
	.loc 1 356 162
	lw	a5,%lo(TrapNetCounter)(a5)
	beq	a5,zero,.L132
	.loc 1 356 248
	call	xTaskGetTickCountFromISR
.LVL170:
.L133:
	.loc 1 356 162
	mv	a1,a0
	lui	a2,%hi(.LC6)
	lui	a0,%hi(.LC10)
	li	a4,356
	addi	a3,s0,%lo(.LC5)
	addi	a2,a2,%lo(.LC6)
	addi	a0,a0,%lo(.LC10)
	call	bl_printk
.LVL171:
	j	.L66
.LVL172:
.L104:
	.loc 1 321 296
	call	xTaskGetTickCount
.LVL173:
	j	.L105
.LVL174:
.L109:
	.loc 1 328 164 is_stmt 1
.LBB169:
.LBB170:
	.loc 2 151 5
	.loc 2 151 31 is_stmt 0
	lui	a5,%hi(TrapNetCounter)
.LBE170:
.LBE169:
	.loc 1 328 164
	lw	a5,%lo(TrapNetCounter)(a5)
	beq	a5,zero,.L112
	.loc 1 328 250
	call	xTaskGetTickCountFromISR
.LVL175:
.L113:
	.loc 1 328 164
	mv	a1,a0
	lui	a0,%hi(.LC32)
	mv	a5,s1
	li	a4,328
	addi	a3,s0,%lo(.LC5)
	addi	a2,s2,%lo(.LC14)
	addi	a0,a0,%lo(.LC32)
	call	bl_printk
.LVL176:
.L114:
	.loc 1 338 9 is_stmt 1
	.loc 1 338 47
	.loc 1 338 52
	.loc 1 338 74 is_stmt 0
	lui	a5,%hi(_fsymc_level_hal_drv)
	.loc 1 338 55
	lbu	a4,%lo(_fsymc_level_hal_drv)(a5)
	li	a5,2
	bgtu	a4,a5,.L108
	.loc 1 338 119
	lui	a4,%hi(_fsymf_level_hal_drvhal_uart)
	.loc 1 338 99
	lbu	a4,%lo(_fsymf_level_hal_drvhal_uart)(a4)
	bgtu	a4,a5,.L108
	.loc 1 338 156 is_stmt 1
.LBB171:
.LBB172:
	.loc 2 151 5
	.loc 2 151 31 is_stmt 0
	lui	a5,%hi(TrapNetCounter)
.LBE172:
.LBE171:
	.loc 1 338 156
	lw	a5,%lo(TrapNetCounter)(a5)
	beq	a5,zero,.L120
	.loc 1 338 283
	call	xTaskGetTickCountFromISR
.LVL177:
.L121:
	.loc 1 338 156
	lbu	a5,124(sp)
	lbu	a7,88(sp)
	lw	a6,84(sp)
	sw	a5,20(sp)
	lw	a5,120(sp)
	mv	a1,a0
	lui	a0,%hi(.LC33)
	sw	a5,16(sp)
	lbu	a5,112(sp)
	sw	s4,24(sp)
	li	a4,344
	sw	a5,12(sp)
	lw	a5,108(sp)
	addi	a3,s0,%lo(.LC5)
	addi	a2,s2,%lo(.LC14)
	sw	a5,8(sp)
	lbu	a5,100(sp)
	addi	a0,a0,%lo(.LC33)
	sw	a5,4(sp)
	lw	a5,96(sp)
	sw	a5,0(sp)
	lbu	a5,44(sp)
	call	bl_printk
.LVL178:
	j	.L108
.LVL179:
.L112:
	.loc 1 328 279
	call	xTaskGetTickCount
.LVL180:
	j	.L113
.LVL181:
.L106:
	.loc 1 331 13 is_stmt 1
	.loc 1 331 65 is_stmt 0
	lw	s9,4(s6)
	.loc 1 331 25
	addi	a3,sp,68
	mv	a0,s3
.LVL182:
	mv	a2,s9
	call	fdt_getprop
.LVL183:
	.loc 1 332 13 is_stmt 1
	.loc 1 332 16 is_stmt 0
	bne	a0,zero,.L115
	.loc 1 333 17 is_stmt 1
	.loc 1 333 55
	.loc 1 333 60
	.loc 1 333 63 is_stmt 0
	lbu	a4,%lo(_fsymc_level_hal_drv)(s10)
	li	a5,2
	bgtu	a4,a5,.L93
	.loc 1 333 107
	lbu	a4,%lo(_fsymf_level_hal_drvhal_uart)(s7)
	bgtu	a4,a5,.L93
	.loc 1 333 164 is_stmt 1
.LBB173:
.LBB160:
	.loc 2 151 5
.LBE160:
.LBE173:
	.loc 1 333 164 is_stmt 0
	lw	a5,%lo(TrapNetCounter)(s8)
	beq	a5,zero,.L116
	.loc 1 333 249
	call	xTaskGetTickCountFromISR
.LVL184:
.L117:
	.loc 1 333 164
	mv	a1,a0
	lui	a0,%hi(.LC15)
	mv	a6,s9
	mv	a5,s1
	li	a4,333
	addi	a3,s0,%lo(.LC5)
	addi	a2,s2,%lo(.LC14)
	addi	a0,a0,%lo(.LC15)
	call	bl_printk
.LVL185:
	j	.L93
.LVL186:
.L116:
	.loc 1 333 278
	call	xTaskGetTickCount
.LVL187:
	j	.L117
.LVL188:
.L115:
	.loc 1 336 13 is_stmt 1
.LBB174:
.LBB175:
	.loc 3 122 5
	.loc 3 122 212 is_stmt 0
	lbu	a5,3(a0)
.LBE175:
.LBE174:
	.loc 1 336 37
	sb	a5,8(s6)
	j	.L93
.LVL189:
.L120:
	.loc 1 338 312
	call	xTaskGetTickCount
.LVL190:
	j	.L121
.LVL191:
.L124:
	.loc 1 352 156 is_stmt 1
.LBB176:
.LBB177:
	.loc 2 151 5
	.loc 2 151 31 is_stmt 0
	lui	s8,%hi(TrapNetCounter)
.LBE177:
.LBE176:
	.loc 1 352 156
	lw	a5,%lo(TrapNetCounter)(s8)
	beq	a5,zero,.L127
	.loc 1 352 243
	call	xTaskGetTickCountFromISR
.LVL192:
.L128:
	.loc 1 352 156
	lw	a5,44(sp)
	mv	a1,a0
	lui	a0,%hi(.LC34)
	andi	s7,a5,255
	mv	a5,s7
	li	a4,352
	addi	a3,s0,%lo(.LC5)
	addi	a2,s2,%lo(.LC14)
	addi	a0,a0,%lo(.LC34)
	call	bl_printk
.LVL193:
	.loc 1 352 359 is_stmt 1
	.loc 1 353 9
	.loc 1 353 47
	.loc 1 353 52
	.loc 1 353 55 is_stmt 0
	lbu	a4,%lo(_fsymc_level_hal_drv)(s5)
	li	a5,2
	bgtu	a4,a5,.L123
	.loc 1 353 99
	lbu	a4,%lo(_fsymf_level_hal_drvhal_uart)(s6)
	bgtu	a4,a5,.L123
	.loc 1 353 156 is_stmt 1
.LBB178:
.LBB179:
	.loc 2 151 5
.LBE179:
.LBE178:
	.loc 1 353 156 is_stmt 0
	lw	a5,%lo(TrapNetCounter)(s8)
	beq	a5,zero,.L130
	.loc 1 353 258
	call	xTaskGetTickCountFromISR
.LVL194:
.L131:
	.loc 1 353 156
	mv	a1,a0
	lui	a0,%hi(.LC35)
	mv	a6,s4
	mv	a5,s7
	li	a4,353
	addi	a3,s0,%lo(.LC5)
	addi	a2,s2,%lo(.LC14)
	addi	a0,a0,%lo(.LC35)
	call	bl_printk
.LVL195:
	j	.L123
.L127:
	.loc 1 352 272
	call	xTaskGetTickCount
.LVL196:
	j	.L128
.L130:
	.loc 1 353 287
	call	xTaskGetTickCount
.LVL197:
	j	.L131
.L132:
	.loc 1 356 277
	call	xTaskGetTickCount
.LVL198:
	j	.L133
.LBE181:
.LBE183:
	.cfi_endproc
.LFE55:
	.size	vfs_uart_init, .-vfs_uart_init
	.section	.text.hal_uart_send_flush,"ax",@progbits
	.align	1
	.globl	hal_uart_send_flush
	.type	hal_uart_send_flush, @function
hal_uart_send_flush:
.LFB56:
	.loc 1 390 1 is_stmt 1
	.cfi_startproc
.LVL199:
	.loc 1 391 5
	.loc 1 390 1 is_stmt 0
	addi	sp,sp,-16
	.cfi_def_cfa_offset 16
	sw	ra,12(sp)
	.cfi_offset 1, -4
	.loc 1 391 5
	lbu	a0,0(a0)
.LVL200:
	call	bl_uart_flush
.LVL201:
	.loc 1 392 5 is_stmt 1
	.loc 1 393 1 is_stmt 0
	lw	ra,12(sp)
	.cfi_restore 1
	li	a0,0
	addi	sp,sp,16
	.cfi_def_cfa_offset 0
	jr	ra
	.cfi_endproc
.LFE56:
	.size	hal_uart_send_flush, .-hal_uart_send_flush
	.section	.text.hal_uart_setbaud,"ax",@progbits
	.align	1
	.globl	hal_uart_setbaud
	.type	hal_uart_setbaud, @function
hal_uart_setbaud:
.LFB57:
	.loc 1 396 1 is_stmt 1
	.cfi_startproc
.LVL202:
	.loc 1 397 5
	lbu	a0,0(a0)
.LVL203:
	tail	bl_uart_setbaud
.LVL204:
	.cfi_endproc
.LFE57:
	.size	hal_uart_setbaud, .-hal_uart_setbaud
	.section	.text.hal_uart_setconfig,"ax",@progbits
	.align	1
	.globl	hal_uart_setconfig
	.type	hal_uart_setconfig, @function
hal_uart_setconfig:
.LFB58:
	.loc 1 401 1
	.cfi_startproc
.LVL205:
	.loc 1 402 5
	lbu	a0,0(a0)
.LVL206:
	tail	bl_uart_setconfig
.LVL207:
	.cfi_endproc
.LFE58:
	.size	hal_uart_setconfig, .-hal_uart_setconfig
	.globl	_fsymf_info_hal_drvhal_uart
	.comm	_fsymf_level_hal_drvhal_uart,1,1
	.comm	_fsymc_level_hal_drv,1,1
	.section	.rodata
	.align	2
	.set	.LANCHOR3,. + 0
.LC13:
	.word	.LC0
	.word	.LC0
	.byte	-1
	.zero	3
	.word	.LC1
	.word	.LC1
	.byte	-1
	.zero	3
	.word	.LC2
	.word	.LC2
	.byte	-1
	.zero	3
	.word	.LC3
	.word	.LC3
	.byte	-1
	.zero	3
	.section	.rodata.dev_uart_init.str1.4,"aMS",@progbits,1
	.align	2
.LC5:
	.string	"hal_uart.c"
	.zero	1
.LC6:
	.string	"\033[31mERROR \033[0m"
.LC7:
	.string	"[%10u][%s: %s:%4d] arg err.\r\n"
	.zero	2
.LC8:
	.string	"[%10u][%s: %s:%4d] err.\r\n"
	.zero	2
.LC9:
	.string	"[%10u][%s: %s:%4d] mem err.\r\n"
	.section	.rodata.str1.4,"aMS",@progbits,1
	.align	2
.LC0:
	.string	"tx"
	.zero	1
.LC1:
	.string	"rx"
	.zero	1
.LC2:
	.string	"cts"
.LC3:
	.string	"rts"
.LC36:
	.string	"hal_drv.hal_uart"
	.zero	3
.LC37:
	.string	"hal_drv"
	.section	.rodata.vfs_uart_init.str1.4,"aMS",@progbits,1
	.align	2
.LC11:
	.string	"uart@4000A000"
	.zero	2
.LC12:
	.string	"uart@4000A100"
	.zero	2
.LC14:
	.string	"\033[32mINFO  \033[0m"
.LC15:
	.string	"[%10u][%s: %s:%4d] uart[%d] %s NULL.\r\n"
	.zero	1
.LC16:
	.string	"status"
	.zero	1
.LC17:
	.string	"[%10u][%s: %s:%4d] uart[%d] status_countindex = %d NULL.\r\n"
	.zero	1
.LC18:
	.string	"okay"
	.zero	3
.LC19:
	.string	"[%10u][%s: %s:%4d] uart[%d] status = %s\r\n"
	.zero	2
.LC20:
	.string	"path"
	.zero	3
.LC21:
	.string	"[%10u][%s: %s:%4d] uart[%d] path_countindex = %d NULL.\r\n"
	.zero	3
.LC22:
	.string	"[%10u][%s: %s:%4d] uart[%d] path lentmp = %d\r\n"
	.zero	1
.LC23:
	.string	"baudrate"
	.zero	3
.LC24:
	.string	"[%10u][%s: %s:%4d] uart[%d] baudrate NULL.\r\n"
	.zero	3
.LC25:
	.string	"id"
	.zero	1
.LC26:
	.string	"[%10u][%s: %s:%4d] uart[%d] id NULL.\r\n"
	.zero	1
.LC27:
	.string	"feature"
.LC28:
	.string	"[%10u][%s: %s:%4d] uart[%d] feature NULL.\r\n"
.LC29:
	.string	"[%10u][%s: %s:%4d] uart[%d] %s countindex = %d.\r\n"
	.zero	2
.LC30:
	.string	"[%10u][%s: %s:%4d] uart[%d] %s status = %s lentmp = %d\r\n"
	.zero	3
.LC31:
	.string	"pin"
.LC32:
	.string	"[%10u][%s: %s:%4d] uart[%d] pin NULL.\r\n"
.LC33:
	.string	"[%10u][%s: %s:%4d] id = %d, %s = %d, %s = %d, %s = %d, %s = %d baudrate = %ld.\r\n"
	.zero	3
.LC34:
	.string	"[%10u][%s: %s:%4d] bl_uart_init %d ok.\r\n"
	.zero	3
.LC35:
	.string	"[%10u][%s: %s:%4d] bl_uart_init %d baudrate = %ld ok.\r\n"
	.section	.rodata.vfs_uart_init_simple_mode.str1.4,"aMS",@progbits,1
	.align	2
.LC10:
	.string	"[%10u][%s: %s:%4d] dev_uart_init err.\r\n"
	.section	.sbss.dev_uart0,"aw",@nobits
	.align	2
	.set	.LANCHOR1,. + 0
	.type	dev_uart0, @object
	.size	dev_uart0, 4
dev_uart0:
	.zero	4
	.section	.sbss.dev_uart1,"aw",@nobits
	.align	2
	.set	.LANCHOR0,. + 0
	.type	dev_uart1, @object
	.size	dev_uart1, 4
dev_uart1:
	.zero	4
	.section	.sbss.inited,"aw",@nobits
	.set	.LANCHOR2,. + 0
	.type	inited, @object
	.size	inited, 1
inited:
	.zero	1
	.section	.sdata2.BLOG_HARD_DECLARE_DISABLE,"a"
	.align	2
	.type	BLOG_HARD_DECLARE_DISABLE, @object
	.size	BLOG_HARD_DECLARE_DISABLE, 4
BLOG_HARD_DECLARE_DISABLE:
	.zero	4
	.section	.static_blogcomponent_code.hal_drv,"a"
	.align	2
	.type	_fsymc_info_hal_drv, @object
	.size	_fsymc_info_hal_drv, 8
_fsymc_info_hal_drv:
	.word	_fsymc_level_hal_drv
	.word	.LC37
	.section	.static_blogfile_code.hal_drvhal_uart,"a"
	.align	2
	.type	_fsymf_info_hal_drvhal_uart, @object
	.size	_fsymf_info_hal_drvhal_uart, 8
_fsymf_info_hal_drvhal_uart:
	.word	_fsymf_level_hal_drvhal_uart
	.word	.LC36
	.text
.Letext0:
	.file 4 "/home/hogc/build-tools/sdk/bl/bl_iot_sdk/toolchain/riscv/Linux/lib/gcc/riscv64-unknown-elf/8.3.0/include/stdint-gcc.h"
	.file 5 "/home/hogc/build-tools/sdk/bl/bl_iot_sdk/toolchain/riscv/Linux/riscv64-unknown-elf/include/machine/_default_types.h"
	.file 6 "/home/hogc/build-tools/sdk/bl/bl_iot_sdk/toolchain/riscv/Linux/lib/gcc/riscv64-unknown-elf/8.3.0/include/stddef.h"
	.file 7 "/home/hogc/build-tools/sdk/bl/bl_iot_sdk/toolchain/riscv/Linux/riscv64-unknown-elf/include/sys/_types.h"
	.file 8 "/home/hogc/build-tools/sdk/bl/bl_iot_sdk/toolchain/riscv/Linux/riscv64-unknown-elf/include/sys/reent.h"
	.file 9 "/home/hogc/build-tools/sdk/bl/bl_iot_sdk/toolchain/riscv/Linux/riscv64-unknown-elf/include/sys/lock.h"
	.file 10 "/home/hogc/build-tools/sdk/bl/bl_iot_sdk/toolchain/riscv/Linux/riscv64-unknown-elf/include/sys/_timeval.h"
	.file 11 "/home/hogc/build-tools/sdk/bl/bl_iot_sdk/toolchain/riscv/Linux/riscv64-unknown-elf/include/sys/types.h"
	.file 12 "/home/hogc/build-tools/sdk/bl/bl_iot_sdk/toolchain/riscv/Linux/riscv64-unknown-elf/include/time.h"
	.file 13 "/home/hogc/build-tools/sdk/bl/bl_iot_sdk/toolchain/riscv/Linux/riscv64-unknown-elf/include/sys/stat.h"
	.file 14 "/home/hogc/build-tools/sdk/bl/bl_iot_sdk/components/fs/vfs/include/vfs_dir.h"
	.file 15 "/home/hogc/build-tools/sdk/bl/bl_iot_sdk/components/fs/vfs/include/vfs_inode.h"
	.file 16 "/home/hogc/build-tools/sdk/bl/bl_iot_sdk/components/fs/vfs/include/device/vfs_uart.h"
	.file 17 "/home/hogc/build-tools/sdk/bl/bl_iot_sdk/toolchain/riscv/Linux/riscv64-unknown-elf/include/sys/errno.h"
	.file 18 "/home/hogc/build-tools/sdk/bl/bl_iot_sdk/components/fs/vfs/include/hal/soc/uart.h"
	.file 19 "/home/hogc/build-tools/sdk/bl/bl_iot_sdk/components/stage/yloop/include/aos/kernel.h"
	.file 20 "/home/hogc/build-tools/sdk/bl/bl_iot_sdk/components/bl602/bl602_std/bl602_std/RISCV/Device/Bouffalo/BL602/Startup/system_bl602.h"
	.file 21 "/home/hogc/build-tools/sdk/bl/bl_iot_sdk/components/bl602/bl602_std/bl602_std/StdDriver/Inc/bl602_common.h"
	.file 22 "/home/hogc/build-tools/sdk/bl/bl_iot_sdk/components/bl602/bl602_std/bl602_std/StdDriver/Inc/bl602_uart.h"
	.file 23 "/home/hogc/build-tools/sdk/bl/bl_iot_sdk/toolchain/riscv/Linux/riscv64-unknown-elf/include/stdlib.h"
	.file 24 "/home/hogc/build-tools/sdk/bl/bl_iot_sdk/components/stage/blog/blog_type.h"
	.file 25 "/home/hogc/build-tools/sdk/bl/bl_iot_sdk/components/stage/blog/blog.h"
	.file 26 "/home/hogc/build-tools/sdk/bl/bl_iot_sdk/components/hal_drv/bl602_hal/bl_uart.h"
	.file 27 "/home/hogc/build-tools/sdk/bl/bl_iot_sdk/components/stage/blfdt/inc/libfdt.h"
	.file 28 "/home/hogc/build-tools/sdk/bl/bl_iot_sdk/components/bl602/freertos_riscv_ram/config/task.h"
	.file 29 "/home/hogc/build-tools/sdk/bl/bl_iot_sdk/components/utils/include/utils_log.h"
	.file 30 "/home/hogc/build-tools/sdk/bl/bl_iot_sdk/toolchain/riscv/Linux/riscv64-unknown-elf/include/string.h"
	.file 31 "/home/hogc/build-tools/sdk/bl/bl_iot_sdk/components/bl602/freertos_riscv_ram/config/portable.h"
	.file 32 "/home/hogc/build-tools/sdk/bl/bl_iot_sdk/components/fs/vfs/include/vfs_register.h"
	.file 33 "<built-in>"