	.file	"dns.c"
	.option nopic
	.attribute arch, "rv32i2p0_m2p0_f2p0_c2p0"
	.attribute unaligned_access, 0
	.attribute stack_align, 16
	.text
.Ltext0:
	.cfi_sections	.debug_frame
	.section	.text.dns_call_found,"ax",@progbits
	.align	1
	.type	dns_call_found, @function
dns_call_found:
.LFB12:
	.file 1 "/b-l/bl_iot_sdk/components/network/lwip/src/core/dns.c"
	.loc 1 943 1
	.cfi_startproc
.LVL0:
	.loc 1 970 3
	.loc 1 943 1 is_stmt 0
	addi	sp,sp,-16
	.cfi_def_cfa_offset 16
	.loc 1 970 24
	lui	a5,%hi(.LANCHOR0)
	.loc 1 943 1
	sw	s1,4(sp)
	.loc 1 970 24
	addi	a4,a5,%lo(.LANCHOR0)
	.cfi_offset 9, -12
	slli	s1,a0,3
	.loc 1 943 1
	sw	s0,8(sp)
	sw	ra,12(sp)
	.cfi_offset 8, -8
	.cfi_offset 1, -4
	.loc 1 970 24
	add	a4,a4,s1
	lw	a3,0(a4)
	addi	s0,a5,%lo(.LANCHOR0)
	.loc 1 970 6
	beq	a3,zero,.L2
	.loc 1 971 5 is_stmt 1
	.loc 1 971 46 is_stmt 0
	li	a5,272
	mul	a0,a0,a5
.LVL1:
	.loc 1 971 6
	lw	a2,4(a4)
	lui	a4,%hi(.LANCHOR1)
	addi	a4,a4,%lo(.LANCHOR1)
	.loc 1 971 46
	addi	a0,a0,15
	.loc 1 971 6
	add	a0,a4,a0
	jalr	a3
.LVL2:
.L2:
	.loc 1 973 3 is_stmt 1
	.loc 1 973 27 is_stmt 0
	add	a5,s0,s1
	sw	zero,0(a5)
	.loc 1 996 1
	lw	ra,12(sp)
	.cfi_restore 1
	lw	s0,8(sp)
	.cfi_restore 8
	lw	s1,4(sp)
	.cfi_restore 9
	addi	sp,sp,16
	.cfi_def_cfa_offset 0
	jr	ra
	.cfi_endproc
.LFE12:
	.size	dns_call_found, .-dns_call_found
	.section	.text.dns_send,"ax",@progbits
	.align	1
	.type	dns_send, @function
dns_send:
.LFB11:
	.loc 1 749 1 is_stmt 1
	.cfi_startproc
.LVL3:
	.loc 1 750 3
	.loc 1 751 3
	.loc 1 752 3
	.loc 1 753 3
	.loc 1 754 3
	.loc 1 755 3
	.loc 1 756 3
	.loc 1 757 3
	.loc 1 758 3
	.loc 1 761 68
	.loc 1 762 3
	.loc 1 762 8
	.loc 1 762 40
	.loc 1 763 3
	.loc 1 749 1 is_stmt 0
	addi	sp,sp,-64
	.cfi_def_cfa_offset 64
	sw	s0,56(sp)
	.cfi_offset 8, -8
	.loc 1 762 19
	li	s0,272
	mul	s0,a0,s0
	.loc 1 749 1
	sw	s3,44(sp)
	.cfi_offset 19, -20
	.loc 1 762 19
	lui	s3,%hi(.LANCHOR1)
	.loc 1 749 1
	sw	s2,48(sp)
	.cfi_offset 18, -16
	.loc 1 762 19
	addi	s2,s3,%lo(.LANCHOR1)
	.loc 1 749 1
	sw	s6,32(sp)
	sw	ra,60(sp)
	sw	s1,52(sp)
	sw	s4,40(sp)
	sw	s5,36(sp)
	sw	s7,28(sp)
	sw	s8,24(sp)
	sw	s9,20(sp)
	sw	s10,16(sp)
	.cfi_offset 22, -32
	.cfi_offset 1, -4
	.cfi_offset 9, -12
	.cfi_offset 20, -24
	.cfi_offset 21, -28
	.cfi_offset 23, -36
	.cfi_offset 24, -40
	.cfi_offset 25, -44
	.cfi_offset 26, -48
	.loc 1 762 19
	add	s2,s2,s0
	.loc 1 763 26
	lbu	a4,11(s2)
	.loc 1 763 40
	lui	s6,%hi(.LANCHOR2)
	addi	a5,s6,%lo(.LANCHOR2)
	slli	a4,a4,2
	add	a5,a5,a4
	.loc 1 763 6
	lw	a5,0(a5)
	bne	a5,zero,.L8
	.loc 1 770 5 is_stmt 1
	li	a1,0
	call	dns_call_found
.LVL4:
	.loc 1 772 5
	.loc 1 773 12 is_stmt 0
	li	s4,0
	.loc 1 772 18
	sb	zero,10(s2)
	.loc 1 773 5 is_stmt 1
.L9:
	.loc 1 862 1 is_stmt 0
	lw	ra,60(sp)
	.cfi_remember_state
	.cfi_restore 1
	lw	s0,56(sp)
	.cfi_restore 8
	mv	a0,s4
	lw	s1,52(sp)
	.cfi_restore 9
	lw	s2,48(sp)
	.cfi_restore 18
	lw	s3,44(sp)
	.cfi_restore 19
	lw	s4,40(sp)
	.cfi_restore 20
	lw	s5,36(sp)
	.cfi_restore 21
	lw	s6,32(sp)
	.cfi_restore 22
	lw	s7,28(sp)
	.cfi_restore 23
	lw	s8,24(sp)
	.cfi_restore 24
	lw	s9,20(sp)
	.cfi_restore 25
	lw	s10,16(sp)
	.cfi_restore 26
	addi	sp,sp,64
	.cfi_def_cfa_offset 0
	jr	ra
.LVL5:
.L8:
	.cfi_restore_state
	addi	s3,s3,%lo(.LANCHOR1)
	.loc 1 777 3 is_stmt 1
	.loc 1 777 59 is_stmt 0
	addi	s0,s0,15
	add	s0,s3,s0
	mv	s5,a0
	.loc 1 777 47
	mv	a0,s0
.LVL6:
	call	strlen
.LVL7:
	.loc 1 777 7
	addi	a1,a0,18
	slli	a1,a1,16
	li	a2,640
	srli	a1,a1,16
	li	a0,182
	call	pbuf_alloc
.LVL8:
	mv	s1,a0
.LVL9:
	.loc 1 779 3 is_stmt 1
	.loc 1 855 9 is_stmt 0
	li	s4,-1
	.loc 1 779 6
	beq	a0,zero,.L9
.LBB5:
	.loc 1 783 5
	li	a2,12
	li	a1,0
	addi	a0,sp,4
	call	memset
.LVL10:
	.loc 1 784 14
	lhu	a0,8(s2)
	.loc 1 800 10
	li	s8,65536
	addi	s6,s6,%lo(.LANCHOR2)
	.loc 1 780 5 is_stmt 1
	.loc 1 781 5
	.loc 1 783 5
	.loc 1 784 5
	.loc 1 784 14 is_stmt 0
	call	lwip_htons
.LVL11:
	.loc 1 785 16
	li	a5,1
	.loc 1 784 12
	sh	a0,4(sp)
	.loc 1 785 5 is_stmt 1
	.loc 1 785 16 is_stmt 0
	sb	a5,6(sp)
	.loc 1 786 5 is_stmt 1
	.loc 1 787 5 is_stmt 0
	li	a2,12
	.loc 1 786 22
	li	a5,256
	.loc 1 787 5
	addi	a1,sp,4
	mv	a0,s1
	.loc 1 786 22
	sh	a5,8(sp)
	.loc 1 787 5 is_stmt 1
	.loc 1 789 5 is_stmt 0
	addi	s0,s0,-1
	.loc 1 787 5
	call	pbuf_take
.LVL12:
	.loc 1 788 5 is_stmt 1
	.loc 1 789 5
	.loc 1 792 5
	.loc 1 792 15 is_stmt 0
	li	s2,12
	.loc 1 796 7
	li	s10,46
	.loc 1 800 10
	addi	s8,s8,-2
.LVL13:
.L16:
	.loc 1 793 5 is_stmt 1
	.loc 1 794 7
	addi	s0,s0,1
.LVL14:
	.loc 1 795 7
	.loc 1 796 7
	.loc 1 794 7 is_stmt 0
	mv	s9,s0
	.loc 1 796 14
	li	a2,0
.LVL15:
.L10:
	.loc 1 796 19 discriminator 1
	lbu	a5,0(s0)
	.loc 1 796 7 discriminator 1
	bne	a5,s10,.L11
.L15:
	.loc 1 799 7 is_stmt 1
	.loc 1 799 35 is_stmt 0
	sub	s7,s0,s9
	.loc 1 799 16
	slli	s7,s7,16
	.loc 1 800 21
	add	s4,s2,a2
	.loc 1 799 16
	srli	s7,s7,16
.LVL16:
	.loc 1 800 7 is_stmt 1
	.loc 1 800 10 is_stmt 0
	ble	s4,s8,.L19
	.loc 1 802 9 is_stmt 1
.LDL1:
.LBE5:
	.loc 1 860 3
	mv	a0,s1
	call	pbuf_free
.LVL17:
	.loc 1 861 3
	.loc 1 861 10 is_stmt 0
	li	s4,-6
	j	.L9
.LVL18:
.L11:
.LBB6:
	.loc 1 796 36 discriminator 3
	beq	a5,zero,.L15
	.loc 1 797 9 is_stmt 1 discriminator 4
	addi	a2,a2,1
.LVL19:
	andi	a2,a2,0xff
.LVL20:
	.loc 1 796 55 is_stmt 0 discriminator 4
	addi	s0,s0,1
.LVL21:
	j	.L10
.LVL22:
.L19:
	.loc 1 804 7 is_stmt 1
	mv	a1,s2
	mv	a0,s1
	call	pbuf_put_at
.LVL23:
	.loc 1 805 7
	addi	a3,s2,1
	slli	a3,a3,16
	srli	a3,a3,16
	mv	a2,s7
	mv	a1,s9
	mv	a0,s1
	call	pbuf_take_at
.LVL24:
	.loc 1 806 7
	.loc 1 806 37 is_stmt 0
	slli	s4,s4,16
	srli	s4,s4,16
	.loc 1 807 5
	lbu	a5,0(s0)
	.loc 1 806 17
	addi	s2,s4,1
.LVL25:
	slli	s2,s2,16
	srli	s2,s2,16
.LVL26:
	.loc 1 807 5
	bne	a5,zero,.L16
	.loc 1 808 5 is_stmt 1
	mv	a1,s2
	mv	a0,s1
	li	a2,0
	call	pbuf_put_at
.LVL27:
	.loc 1 809 5
	.loc 1 812 5
	.loc 1 815 7
	.loc 1 817 5
	.loc 1 809 14 is_stmt 0
	addi	s4,s4,2
.LVL28:
	.loc 1 818 5
	slli	a3,s4,16
	.loc 1 815 16
	li	a5,16777216
	addi	a5,a5,256
	.loc 1 818 5
	mv	a1,sp
	srli	a3,a3,16
	li	a2,4
	mv	a0,s1
	.loc 1 815 16
	sw	a5,0(sp)
	.loc 1 818 5 is_stmt 1
	call	pbuf_take_at
.LVL29:
	.loc 1 823 5
	.loc 1 827 74
	.loc 1 847 7
	.loc 1 848 7
	.loc 1 850 5
	.loc 1 848 31 is_stmt 0
	li	a5,272
	mul	s5,s5,a5
.LVL30:
	.loc 1 850 11
	lui	a5,%hi(.LANCHOR3)
	lw	a0,%lo(.LANCHOR3)(a5)
	li	a3,53
	mv	a1,s1
	.loc 1 848 31
	add	s3,s3,s5
	.loc 1 848 11
	lbu	a2,11(s3)
	slli	a2,a2,2
	.loc 1 850 11
	add	a2,s6,a2
	call	udp_sendto
.LVL31:
	mv	s4,a0
.LVL32:
	.loc 1 853 5 is_stmt 1
	mv	a0,s1
	call	pbuf_free
.LVL33:
.LBE6:
	j	.L9
	.cfi_endproc
.LFE11:
	.size	dns_send, .-dns_send
	.section	.text.dns_check_entry,"ax",@progbits
	.align	1
	.type	dns_check_entry, @function
dns_check_entry:
.LFB15:
	.loc 1 1048 1
	.cfi_startproc
.LVL34:
	.loc 1 1049 3
	.loc 1 1050 3
	.loc 1 1052 3
	.loc 1 1052 8
	.loc 1 1052 24
	.loc 1 1054 3
	.loc 1 1054 16 is_stmt 0
	li	a4,272
	mul	a4,a0,a4
	.loc 1 1048 1
	addi	sp,sp,-16
	.cfi_def_cfa_offset 16
	sw	s0,8(sp)
	.cfi_offset 8, -8
	.loc 1 1054 16
	lui	s0,%hi(.LANCHOR1)
	addi	a5,s0,%lo(.LANCHOR1)
	.loc 1 1048 1
	sw	ra,12(sp)
	sw	s1,4(sp)
	.cfi_offset 1, -4
	.cfi_offset 9, -12
	.loc 1 1054 3
	li	a3,2
	addi	s0,s0,%lo(.LANCHOR1)
	.loc 1 1054 16
	add	a5,a5,a4
	lbu	a4,10(a5)
	.loc 1 1054 3
	beq	a4,a3,.L22
	li	a3,3
	beq	a4,a3,.L23
	li	a5,1
	bne	a4,a5,.L21
	lui	a5,%hi(.LANCHOR4)
	lhu	a4,%lo(.LANCHOR4)(a5)
	addi	a3,a5,%lo(.LANCHOR4)
	addi	a2,s0,1088
.LBB13:
.LBB14:
	.loc 1 1010 8
	li	a1,2
.L25:
	.loc 1 1002 3 is_stmt 1
	.loc 1 1003 3
	.loc 1 1006 3
	.loc 1 1006 10 is_stmt 0
	addi	a4,a4,1
	slli	a4,a4,16
	srli	a4,a4,16
.LVL35:
	.loc 1 1009 3 is_stmt 1
	mv	a5,s0
.LVL36:
.L27:
	.loc 1 1010 5
	.loc 1 1010 8 is_stmt 0
	lbu	a6,10(a5)
	bne	a6,a1,.L26
	.loc 1 1010 50
	lhu	a6,8(a5)
	beq	a6,a4,.L25
.L26:
	addi	a5,a5,272
	.loc 1 1009 3
	bne	a2,a5,.L27
.LBE14:
.LBE13:
	.loc 1 1057 19
	li	a5,272
	mul	a5,a0,a5
	sh	a4,0(a3)
.LBB16:
.LBB15:
	.loc 1 1017 3 is_stmt 1
.LBE15:
.LBE16:
	.loc 1 1057 19 is_stmt 0
	add	s0,s0,a5
	.loc 1 1058 20
	li	a5,2
	sh	a5,10(s0)
	.loc 1 1060 18
	li	a5,1
	.loc 1 1057 19
	sh	a4,8(s0)
	.loc 1 1058 7 is_stmt 1
	.loc 1 1059 7
	.loc 1 1060 7
	.loc 1 1061 7
	.loc 1 1060 18 is_stmt 0
	sh	a5,12(s0)
	.loc 1 1064 7 is_stmt 1
.LVL37:
.L31:
	.loc 1 1096 9
	.loc 1 1118 1 is_stmt 0
	lw	s0,8(sp)
	.cfi_remember_state
	.cfi_restore 8
	lw	ra,12(sp)
	.cfi_restore 1
	lw	s1,4(sp)
	.cfi_restore 9
	addi	sp,sp,16
	.cfi_def_cfa_offset 0
	.loc 1 1096 15
	tail	dns_send
.LVL38:
.L22:
	.cfi_restore_state
	.loc 1 1071 7 is_stmt 1
	.loc 1 1071 11 is_stmt 0
	lbu	a4,12(a5)
	addi	a4,a4,-1
	andi	a4,a4,0xff
	.loc 1 1071 10
	sb	a4,12(a5)
	bne	a4,zero,.L21
	.loc 1 1072 9 is_stmt 1
	.loc 1 1072 13 is_stmt 0
	lbu	a4,13(a5)
	.loc 1 1072 12
	li	a3,4
	.loc 1 1072 13
	addi	a4,a4,1
	andi	a4,a4,0xff
	.loc 1 1072 12
	sb	a4,13(a5)
	bne	a4,a3,.L29
	.loc 1 1073 11 is_stmt 1
.LVL39:
.LBB17:
.LBB18:
	.loc 1 1026 3
	.loc 1 1028 3
	.loc 1 1029 5
	.loc 1 1029 8 is_stmt 0
	lbu	a4,11(a5)
	bne	a4,zero,.L30
.LVL40:
.LBB19:
.LBB20:
	.loc 1 1029 80
	lui	a4,%hi(.LANCHOR2+4)
	.loc 1 1029 38
	lw	a4,%lo(.LANCHOR2+4)(a4)
	beq	a4,zero,.L30
	.loc 1 1030 7 is_stmt 1
.LVL41:
.LBE20:
.LBE19:
	.loc 1 1034 3
.LBE18:
.LBE17:
	.loc 1 1079 13
	.loc 1 1080 13
	.loc 1 1081 13
	.loc 1 1079 30 is_stmt 0
	li	a4,1
	sb	a4,11(a5)
	.loc 1 1080 24
	sh	a4,12(a5)
	j	.L31
.LVL42:
.L30:
	.loc 1 1085 13
	li	a1,0
	mv	s1,a0
	.loc 1 1083 13 is_stmt 1
	.loc 1 1085 13
	call	dns_call_found
.LVL43:
	.loc 1 1087 13
	.loc 1 1087 26 is_stmt 0
	li	a0,272
	mul	a0,s1,a0
.LVL44:
.L44:
	.loc 1 1108 22
	add	s0,s0,a0
	sb	zero,10(s0)
.L21:
	.loc 1 1118 1
	lw	ra,12(sp)
	.cfi_remember_state
	.cfi_restore 1
	lw	s0,8(sp)
	.cfi_restore 8
	lw	s1,4(sp)
	.cfi_restore 9
	addi	sp,sp,16
	.cfi_def_cfa_offset 0
	jr	ra
.LVL45:
.L29:
	.cfi_restore_state
	.loc 1 1092 11 is_stmt 1
	.loc 1 1092 22 is_stmt 0
	sb	a4,12(a5)
	j	.L31
.L23:
	.loc 1 1105 7 is_stmt 1
	.loc 1 1105 17 is_stmt 0
	lw	a4,0(a5)
	.loc 1 1105 10
	bne	a4,zero,.L32
.L33:
	.loc 1 1106 9 is_stmt 1
	.loc 1 1108 9
	.loc 1 1108 22 is_stmt 0
	li	a5,272
	mul	a0,a0,a5
.LVL46:
	j	.L44
.LVL47:
.L32:
	.loc 1 1105 33 discriminator 1
	addi	a4,a4,-1
	.loc 1 1105 29 discriminator 1
	sw	a4,0(a5)
	beq	a4,zero,.L33
	j	.L21
	.cfi_endproc
.LFE15:
	.size	dns_check_entry, .-dns_check_entry
	.section	.text.dns_recv,"ax",@progbits
	.align	1
	.type	dns_recv, @function
dns_recv:
.LFB18:
	.loc 1 1171 1 is_stmt 1
	.cfi_startproc
.LVL48:
	.loc 1 1172 3
	.loc 1 1173 3
	.loc 1 1174 3
	.loc 1 1175 3
	.loc 1 1176 3
	.loc 1 1177 3
	.loc 1 1178 3
	.loc 1 1180 3
	.loc 1 1181 3
	.loc 1 1182 3
	.loc 1 1185 3
	.loc 1 1171 1 is_stmt 0
	addi	sp,sp,-112
	.cfi_def_cfa_offset 112
	sw	s1,100(sp)
	sw	ra,108(sp)
	sw	s0,104(sp)
	sw	s2,96(sp)
	sw	s3,92(sp)
	sw	s4,88(sp)
	sw	s5,84(sp)
	sw	s6,80(sp)
	sw	s7,76(sp)
	sw	s8,72(sp)
	sw	s9,68(sp)
	sw	s10,64(sp)
	sw	s11,60(sp)
	.cfi_offset 9, -12
	.cfi_offset 1, -4
	.cfi_offset 8, -8
	.cfi_offset 18, -16
	.cfi_offset 19, -20
	.cfi_offset 20, -24
	.cfi_offset 21, -28
	.cfi_offset 22, -32
	.cfi_offset 23, -36
	.cfi_offset 24, -40
	.cfi_offset 25, -44
	.cfi_offset 26, -48
	.cfi_offset 27, -52
	.loc 1 1185 6
	lhu	a4,8(a2)
.LVL49:
	li	a5,15
	.loc 1 1171 1
	mv	s1,a2
	.loc 1 1185 6
	bleu	a4,a5,.L47
	mv	s7,a3
	.loc 1 1192 3 is_stmt 1
	.loc 1 1192 7 is_stmt 0
	li	a2,12
.LVL50:
	li	a3,0
.LVL51:
	addi	a1,sp,24
.LVL52:
	mv	a0,s1
.LVL53:
	call	pbuf_copy_partial
.LVL54:
	.loc 1 1192 6
	li	a5,12
	.loc 1 1192 7
	mv	s0,a0
	.loc 1 1192 6
	bne	a0,a5,.L47
	.loc 1 1194 5 is_stmt 1
	.loc 1 1194 12 is_stmt 0
	lhu	a0,24(sp)
	lui	s3,%hi(.LANCHOR1)
	li	s2,0
	call	lwip_htons
.LVL55:
	.loc 1 1195 5 is_stmt 1
	addi	a5,s3,%lo(.LANCHOR1)
.LBB36:
	.loc 1 1197 10 is_stmt 0
	li	a3,2
	addi	s3,s3,%lo(.LANCHOR1)
.LBE36:
	.loc 1 1195 5
	li	a4,4
.LVL56:
.L67:
.LBB70:
	.loc 1 1197 10
	lbu	a2,10(a5)
	andi	s6,s2,0xff
.LVL57:
	.loc 1 1196 7 is_stmt 1
	.loc 1 1197 7
	.loc 1 1197 10 is_stmt 0
	bne	a2,a3,.L49
	.loc 1 1197 46 discriminator 1
	lhu	a2,8(a5)
	bne	a2,a0,.L49
	.loc 1 1202 9 is_stmt 1
	.loc 1 1202 22 is_stmt 0
	lhu	a0,28(sp)
.LVL58:
	call	lwip_htons
.LVL59:
	mv	s4,a0
.LVL60:
	.loc 1 1203 9 is_stmt 1
	.loc 1 1203 20 is_stmt 0
	lhu	a0,30(sp)
	call	lwip_htons
.LVL61:
	.loc 1 1206 12
	lb	a5,26(sp)
	.loc 1 1203 20
	mv	s5,a0
.LVL62:
	.loc 1 1206 9 is_stmt 1
	.loc 1 1206 12 is_stmt 0
	bge	a5,zero,.L47
	.loc 1 1210 9 is_stmt 1
	.loc 1 1210 12 is_stmt 0
	li	a5,1
	bne	s4,a5,.L47
	.loc 1 1221 11 is_stmt 1
	.loc 1 1221 52 is_stmt 0
	li	s4,272
.LVL63:
	mul	s4,s2,s4
	.loc 1 1221 66
	lui	s8,%hi(.LANCHOR2)
	addi	a5,s8,%lo(.LANCHOR2)
	addi	s8,s8,%lo(.LANCHOR2)
	.loc 1 1221 52
	add	a4,s3,s4
	lbu	a4,11(a4)
	.loc 1 1221 66
	slli	a4,a4,2
	add	a5,a5,a4
	.loc 1 1221 14
	lw	a5,0(a5)
	lw	a4,0(s7)
	bne	a4,a5,.L47
	.loc 1 1228 9 is_stmt 1
	.loc 1 1228 41 is_stmt 0
	addi	s7,s4,15
.LVL64:
.LBB37:
.LBB38:
	.loc 1 658 17
	li	s9,65536
.LBB39:
.LBB40:
	.loc 1 674 45
	lui	s10,%hi(_ctype_+1)
.LBE40:
.LBE39:
.LBE38:
.LBE37:
	.loc 1 1228 41
	add	s7,s3,s7
.LVL65:
.LBB48:
.LBB46:
	.loc 1 658 17
	addi	s9,s9,-1
.LBB44:
.LBB41:
	.loc 1 674 45
	addi	s10,s10,%lo(_ctype_+1)
	.loc 1 674 97
	li	s11,1
.L54:
.LVL66:
.LBE41:
.LBE44:
	.loc 1 656 3 is_stmt 1
	.loc 1 657 5
	.loc 1 657 9 is_stmt 0
	mv	a1,s0
	mv	a0,s1
	call	pbuf_try_get_at
.LVL67:
	.loc 1 658 5 is_stmt 1
	.loc 1 658 8 is_stmt 0
	blt	a0,zero,.L47
	.loc 1 658 17
	beq	s0,s9,.L47
	.loc 1 662 5 is_stmt 1
	.loc 1 662 20 is_stmt 0
	addi	s0,s0,1
.LVL68:
	slli	s0,s0,16
	.loc 1 664 12
	andi	a5,a0,192
	.loc 1 664 8
	li	a4,192
	.loc 1 662 20
	srli	s0,s0,16
.LVL69:
	.loc 1 664 5 is_stmt 1
	.loc 1 664 8 is_stmt 0
	beq	a5,a4,.L47
	add	a5,s7,a0
.LVL70:
.L50:
	.loc 1 669 13
	bne	s7,a5,.L53
	.loc 1 685 7 is_stmt 1
	.loc 1 687 9 is_stmt 0
	mv	a1,s0
	mv	a0,s1
	.loc 1 685 7
	addi	s7,s7,1
.LVL71:
	.loc 1 687 5 is_stmt 1
	.loc 1 687 9 is_stmt 0
	call	pbuf_try_get_at
.LVL72:
	.loc 1 688 5 is_stmt 1
	.loc 1 688 8 is_stmt 0
	blt	a0,zero,.L47
	.loc 1 691 3
	bne	a0,zero,.L54
	.loc 1 693 3 is_stmt 1
	.loc 1 693 6 is_stmt 0
	li	s9,65536
	addi	a5,s9,-1
	beq	s0,a5,.L47
	.loc 1 697 3 is_stmt 1
	.loc 1 697 10 is_stmt 0
	addi	s7,s0,1
.LVL73:
	slli	s7,s7,16
	srli	s7,s7,16
.LVL74:
.LBE46:
.LBE48:
	.loc 1 1229 9 is_stmt 1
	.loc 1 1229 12 is_stmt 0
	beq	s7,a5,.L47
	.loc 1 1235 9 is_stmt 1
	.loc 1 1235 13 is_stmt 0
	mv	a3,s7
	li	a2,4
	addi	a1,sp,16
	mv	a0,s1
	call	pbuf_copy_partial
.LVL75:
	.loc 1 1235 12
	li	a5,4
	bne	a0,a5,.L47
	.loc 1 1238 9 is_stmt 1
	.loc 1 1238 12 is_stmt 0
	lhu	a5,18(sp)
	li	a4,256
	bne	a5,a4,.L47
	.loc 1 1239 109
	lhu	a4,16(sp)
	bne	a4,a5,.L47
	.loc 1 1245 9 is_stmt 1
	.loc 1 1245 12 is_stmt 0
	addi	s9,s9,-5
	bgtu	s7,s9,.L47
	.loc 1 1248 9 is_stmt 1
.LVL76:
	.loc 1 1251 9
	.loc 1 1251 12 is_stmt 0
	lbu	a5,27(sp)
	andi	a5,a5,15
	bne	a5,zero,.L55
	.loc 1 1248 17
	addi	s0,s0,5
.LVL77:
.LBB49:
.LBB50:
	.loc 1 735 6
	li	s7,65536
.LBE50:
.LBE49:
	.loc 1 1248 17
	slli	s0,s0,16
	srli	s0,s0,16
.LBB54:
.LBB51:
	.loc 1 719 8
	li	s10,192
	.loc 1 735 6
	addi	s8,s7,-1
.LBE51:
.LBE54:
	.loc 1 1279 16
	addi	s11,s7,-11
	.loc 1 1284 16
	li	s9,256
.L56:
.LVL78:
	.loc 1 1268 17
	beq	s5,zero,.L59
	.loc 1 1268 33 discriminator 1
	lhu	a4,8(s1)
	bleu	a4,s0,.L59
.LVL79:
.L61:
.LBB55:
.LBB52:
	.loc 1 713 3 is_stmt 1
	.loc 1 714 5
	.loc 1 714 9 is_stmt 0
	addi	a0,s0,1
	slli	a3,a0,16
	srli	a3,a3,16
	mv	a1,s0
	mv	a0,s1
	sw	a3,12(sp)
.LVL80:
	call	pbuf_try_get_at
.LVL81:
	.loc 1 715 5 is_stmt 1
	.loc 1 715 8 is_stmt 0
	blt	a0,zero,.L47
	.loc 1 715 17
	lw	a3,12(sp)
	beq	a3,zero,.L47
	.loc 1 719 5 is_stmt 1
	.loc 1 719 12 is_stmt 0
	andi	a5,a0,192
	.loc 1 719 8
	beq	a5,s10,.L68
	.loc 1 724 7 is_stmt 1
	.loc 1 724 26 is_stmt 0
	lhu	a5,8(s1)
	.loc 1 724 18
	add	a0,a3,a0
.LVL82:
	.loc 1 724 10
	bge	a0,a5,.L47
	.loc 1 727 7 is_stmt 1
	.loc 1 727 14 is_stmt 0
	slli	s0,a0,16
	srli	s0,s0,16
.LVL83:
	.loc 1 729 5 is_stmt 1
	.loc 1 729 9 is_stmt 0
	mv	a1,s0
	mv	a0,s1
	call	pbuf_try_get_at
.LVL84:
	.loc 1 730 5 is_stmt 1
	.loc 1 730 8 is_stmt 0
	blt	a0,zero,.L47
	.loc 1 733 3
	bne	a0,zero,.L61
.LVL85:
.L60:
	.loc 1 735 3 is_stmt 1
	.loc 1 735 6 is_stmt 0
	beq	s0,s8,.L47
	.loc 1 738 3 is_stmt 1
	.loc 1 738 10 is_stmt 0
	addi	a4,s0,1
	slli	a4,a4,16
	srli	a4,a4,16
.LVL86:
.LBE52:
.LBE55:
	.loc 1 1271 13 is_stmt 1
	.loc 1 1271 16 is_stmt 0
	beq	a4,s8,.L47
	.loc 1 1276 13 is_stmt 1
	.loc 1 1276 17 is_stmt 0
	mv	a3,a4
	li	a2,10
	addi	a1,sp,36
	mv	a0,s1
	sw	a4,12(sp)
	call	pbuf_copy_partial
.LVL87:
	.loc 1 1276 16
	li	a3,10
	bne	a0,a3,.L47
	.loc 1 1279 13 is_stmt 1
	.loc 1 1279 16 is_stmt 0
	lw	a4,12(sp)
	bgtu	a4,s11,.L47
	.loc 1 1282 13 is_stmt 1
	.loc 1 1282 21 is_stmt 0
	addi	a5,s0,11
	slli	s0,a5,16
	.loc 1 1284 16
	lhu	a5,38(sp)
	.loc 1 1282 21
	srli	s0,s0,16
.LVL88:
	.loc 1 1284 13 is_stmt 1
	lhu	a0,44(sp)
	.loc 1 1284 16 is_stmt 0
	bne	a5,s9,.L62
	.loc 1 1286 15 is_stmt 1
	.loc 1 1286 18 is_stmt 0
	lhu	a5,36(sp)
	bne	a5,s9,.L62
	.loc 1 1286 106 discriminator 1
	li	a5,1024
	bne	a0,a5,.L62
.LBB56:
	.loc 1 1291 19 is_stmt 1
	.loc 1 1293 19
	.loc 1 1293 23 is_stmt 0
	mv	a3,s0
	li	a2,4
	addi	a1,sp,20
	mv	a0,s1
	call	pbuf_copy_partial
.LVL89:
	.loc 1 1293 22
	li	a5,4
	bne	a0,a5,.L47
	.loc 1 1296 19 is_stmt 1
	.loc 1 1296 47 is_stmt 0
	li	a5,272
	mul	a5,s2,a5
	lui	s0,%hi(.LANCHOR1)
.LVL90:
	addi	s3,s0,%lo(.LANCHOR1)
	.loc 1 1297 19
	mv	a0,s1
	addi	s0,s0,%lo(.LANCHOR1)
	.loc 1 1296 47
	add	s3,s3,a5
	lw	a5,20(sp)
	sw	a5,4(s3)
	.loc 1 1297 19 is_stmt 1
	call	pbuf_free
.LVL91:
	.loc 1 1299 19
	lw	a0,40(sp)
	call	lwip_htonl
.LVL92:
.LBB57:
.LBB58:
	.loc 1 1139 3
	.loc 1 1141 3
	.loc 1 1141 16 is_stmt 0
	li	a5,3
	sb	a5,10(s3)
	.loc 1 1143 3 is_stmt 1
	.loc 1 1144 3
	.loc 1 1145 3
	.loc 1 1148 3
	.loc 1 1149 3
	.loc 1 1149 6 is_stmt 0
	li	a5,606208
	addi	a5,a5,-1408
	bgtu	a0,a5,.L64
	.loc 1 1148 14
	sw	a0,0(s3)
.L65:
	.loc 1 1152 3 is_stmt 1
	addi	a1,s4,4
	add	a1,s0,a1
	mv	a0,s6
.LVL93:
	call	dns_call_found
.LVL94:
	.loc 1 1154 3
	.loc 1 1154 12 is_stmt 0
	li	a5,272
	mul	s2,s2,a5
.LVL95:
	add	s2,s0,s2
	.loc 1 1154 6
	lw	a5,0(s2)
	bne	a5,zero,.L45
	.loc 1 1160 5 is_stmt 1
	.loc 1 1160 8 is_stmt 0
	lbu	a4,10(s2)
	li	a5,3
	bne	a4,a5,.L45
	.loc 1 1161 7 is_stmt 1
	.loc 1 1161 20 is_stmt 0
	sb	zero,10(s2)
.LVL96:
.LBE58:
.LBE57:
	.loc 1 1300 19 is_stmt 1
	j	.L45
.LVL97:
.L53:
.LBE56:
.LBB61:
.LBB47:
.LBB45:
	.loc 1 670 17 is_stmt 0
	mv	a1,s0
	mv	a0,s1
	sw	a5,12(sp)
	.loc 1 670 9 is_stmt 1
	.loc 1 670 17 is_stmt 0
	call	pbuf_try_get_at
.LVL98:
	.loc 1 671 9 is_stmt 1
	.loc 1 671 12 is_stmt 0
	blt	a0,zero,.L47
	.loc 1 674 9 is_stmt 1
.LBB42:
	.loc 1 674 29
	.loc 1 674 14 is_stmt 0
	lbu	a4,0(s7)
	.loc 1 674 15 is_stmt 1
	.loc 1 674 97 is_stmt 0
	lw	a5,12(sp)
	.loc 1 674 45
	add	a3,a4,s10
	.loc 1 674 97
	lbu	a3,0(a3)
	andi	a3,a3,3
	bne	a3,s11,.L51
	addi	a4,a4,32
.L51:
.LBE42:
.LBB43:
	.loc 1 674 55 is_stmt 1
.LVL99:
	.loc 1 674 41
	andi	a0,a0,255
.LVL100:
	.loc 1 674 71 is_stmt 0
	add	a3,s10,a0
	.loc 1 674 123
	lbu	a3,0(a3)
	andi	a3,a3,3
	bne	a3,s11,.L52
	addi	a0,a0,32
.L52:
.LBE43:
	.loc 1 674 12
	bne	a4,a0,.L47
	.loc 1 677 9 is_stmt 1
	.loc 1 677 12 is_stmt 0
	beq	s0,s9,.L47
	.loc 1 681 9 is_stmt 1
	.loc 1 681 24 is_stmt 0
	addi	s0,s0,1
.LVL101:
	slli	s0,s0,16
	srli	s0,s0,16
.LVL102:
	.loc 1 682 9 is_stmt 1
	addi	s7,s7,1
.LVL103:
	.loc 1 683 9
	j	.L50
.LVL104:
.L55:
.LBE45:
.LBE47:
.LBE61:
	.loc 1 1252 11
	.loc 1 1257 11
.LBB62:
.LBB63:
	.loc 1 1026 3
	.loc 1 1028 3
	.loc 1 1029 5
	.loc 1 1029 16 is_stmt 0
	li	a5,272
	mul	a5,s2,a5
	add	a5,s3,a5
	.loc 1 1029 8
	lbu	a4,11(a5)
	beq	a4,zero,.L57
.LVL105:
.L59:
.LBE63:
.LBE62:
	.loc 1 1348 11 is_stmt 1
	.loc 1 1351 9
	mv	a0,s1
	call	pbuf_free
.LVL106:
	.loc 1 1352 9
	li	a1,0
	mv	a0,s6
	call	dns_call_found
.LVL107:
	.loc 1 1353 9
	.loc 1 1353 28 is_stmt 0
	li	a5,272
	mul	s2,s2,a5
.LVL108:
	add	s3,s3,s2
	sb	zero,10(s3)
	.loc 1 1354 9 is_stmt 1
.LVL109:
.L45:
.LBE70:
	.loc 1 1363 1 is_stmt 0
	lw	ra,108(sp)
	.cfi_remember_state
	.cfi_restore 1
	lw	s0,104(sp)
	.cfi_restore 8
	lw	s1,100(sp)
	.cfi_restore 9
.LVL110:
	lw	s2,96(sp)
	.cfi_restore 18
	lw	s3,92(sp)
	.cfi_restore 19
	lw	s4,88(sp)
	.cfi_restore 20
	lw	s5,84(sp)
	.cfi_restore 21
	lw	s6,80(sp)
	.cfi_restore 22
	lw	s7,76(sp)
	.cfi_restore 23
	lw	s8,72(sp)
	.cfi_restore 24
	lw	s9,68(sp)
	.cfi_restore 25
	lw	s10,64(sp)
	.cfi_restore 26
	lw	s11,60(sp)
	.cfi_restore 27
	addi	sp,sp,112
	.cfi_def_cfa_offset 0
	jr	ra
.LVL111:
.L57:
	.cfi_restore_state
.LBB71:
.LBB67:
.LBB66:
.LBB64:
.LBB65:
	.loc 1 1029 38
	lw	a4,4(s8)
	beq	a4,zero,.L59
	.loc 1 1030 7 is_stmt 1
.LVL112:
.LBE65:
.LBE64:
	.loc 1 1034 3
.LBE66:
.LBE67:
	.loc 1 1259 13
	.loc 1 1260 13
	.loc 1 1260 24 is_stmt 0
	li	a4,769
	sh	a4,12(a5)
	.loc 1 1263 13 is_stmt 1
	mv	a0,s6
	call	dns_check_entry
.LVL113:
	.loc 1 1265 13
.L47:
.LBE71:
	.loc 1 1361 3
	mv	a0,s1
	call	pbuf_free
.LVL114:
	.loc 1 1362 3
	j	.L45
.LVL115:
.L68:
.LBB72:
.LBB68:
.LBB53:
	.loc 1 714 9 is_stmt 0
	mv	s0,a3
	j	.L60
.LVL116:
.L64:
.LBE53:
.LBE68:
.LBB69:
.LBB60:
.LBB59:
	.loc 1 1150 5 is_stmt 1
	.loc 1 1150 16 is_stmt 0
	sw	a5,0(s3)
	j	.L65
.LVL117:
.L62:
.LBE59:
.LBE60:
.LBE69:
	.loc 1 1326 13 is_stmt 1
	.loc 1 1326 33 is_stmt 0
	call	lwip_htons
.LVL118:
	.loc 1 1326 17
	add	a0,s0,a0
	.loc 1 1326 16
	bge	a0,s7,.L47
	.loc 1 1329 13 is_stmt 1
	.loc 1 1329 41 is_stmt 0
	lhu	a0,44(sp)
	.loc 1 1330 13
	addi	s5,s5,-1
.LVL119:
	slli	s5,s5,16
	.loc 1 1329 41
	call	lwip_htons
.LVL120:
	.loc 1 1329 21
	add	a0,a0,s0
	slli	s0,a0,16
.LVL121:
	srli	s0,s0,16
.LVL122:
	.loc 1 1330 13 is_stmt 1
	srli	s5,s5,16
.LVL123:
	j	.L56
.LVL124:
.L49:
	addi	s2,s2,1
.LVL125:
	addi	a5,a5,272
.LBE72:
	.loc 1 1195 5 is_stmt 0 discriminator 2
	bne	s2,a4,.L67
	.loc 1 1359 1
	j	.L47
	.cfi_endproc
.LFE18:
	.size	dns_recv, .-dns_recv
	.section	.text.dns_init,"ax",@progbits
	.align	1
	.globl	dns_init
	.type	dns_init, @function
dns_init:
.LFB4:
	.loc 1 316 1 is_stmt 1
	.cfi_startproc
	.loc 1 324 3
	.loc 1 324 8
	.loc 1 324 48
	.loc 1 326 3
	.loc 1 326 8
	.loc 1 326 50
	.loc 1 329 3
	.loc 1 333 3
	.loc 1 316 1 is_stmt 0
	addi	sp,sp,-16
	.cfi_def_cfa_offset 16
	sw	s0,8(sp)
	.cfi_offset 8, -8
	.loc 1 333 15
	lui	s0,%hi(.LANCHOR3)
	addi	s0,s0,%lo(.LANCHOR3)
	.loc 1 333 6
	lw	a5,0(s0)
	.loc 1 316 1
	sw	ra,12(sp)
	.cfi_offset 1, -4
	.loc 1 333 6
	bne	a5,zero,.L83
	.loc 1 334 5 is_stmt 1
	.loc 1 334 19 is_stmt 0
	li	a0,46
	call	udp_new_ip_type
.LVL126:
	.loc 1 343 5
	lui	a1,%hi(ip_addr_any)
	li	a2,0
	addi	a1,a1,%lo(ip_addr_any)
	.loc 1 334 17
	sw	a0,0(s0)
	.loc 1 335 5 is_stmt 1
	.loc 1 335 10
	.loc 1 335 9
	.loc 1 339 5
	.loc 1 339 10
	.loc 1 339 42
	.loc 1 343 5
	call	udp_bind
.LVL127:
	.loc 1 344 5
	lw	a0,0(s0)
	.loc 1 351 1 is_stmt 0
	lw	s0,8(sp)
	.cfi_remember_state
	.cfi_restore 8
	lw	ra,12(sp)
	.cfi_restore 1
	.loc 1 344 5
	lui	a1,%hi(dns_recv)
	.loc 1 351 1
	.loc 1 344 5
	li	a2,0
	addi	a1,a1,%lo(dns_recv)
	.loc 1 351 1
	addi	sp,sp,16
	.cfi_def_cfa_offset 0
	.loc 1 344 5
	tail	udp_recv
.LVL128:
.L83:
	.cfi_restore_state
	.loc 1 351 1
	lw	ra,12(sp)
	.cfi_restore 1
	lw	s0,8(sp)
	.cfi_restore 8
	addi	sp,sp,16
	.cfi_def_cfa_offset 0
	jr	ra
	.cfi_endproc
.LFE4:
	.size	dns_init, .-dns_init
	.section	.text.dns_setserver,"ax",@progbits
	.align	1
	.globl	dns_setserver
	.type	dns_setserver, @function
dns_setserver:
.LFB5:
	.loc 1 362 1 is_stmt 1
	.cfi_startproc
.LVL129:
	.loc 1 363 3
	.loc 1 363 6 is_stmt 0
	li	a5,1
	bgtu	a0,a5,.L86
	.loc 1 364 5 is_stmt 1
	lui	a5,%hi(.LANCHOR2)
	addi	a5,a5,%lo(.LANCHOR2)
	slli	a0,a0,2
.LVL130:
	.loc 1 365 27 is_stmt 0
	add	a5,a5,a0
	.loc 1 364 8
	beq	a1,zero,.L88
	.loc 1 365 7 is_stmt 1
	.loc 1 365 27 is_stmt 0
	lw	a4,0(a1)
.L89:
	.loc 1 367 27
	sw	a4,0(a5)
.L86:
	.loc 1 370 1
	ret
.L88:
	.loc 1 367 7 is_stmt 1
	.loc 1 367 27 is_stmt 0
	lui	a4,%hi(ip_addr_any)
	lw	a4,%lo(ip_addr_any)(a4)
	j	.L89
	.cfi_endproc
.LFE5:
	.size	dns_setserver, .-dns_setserver
	.section	.text.dns_getserver,"ax",@progbits
	.align	1
	.globl	dns_getserver
	.type	dns_getserver, @function
dns_getserver:
.LFB6:
	.loc 1 382 1 is_stmt 1
	.cfi_startproc
.LVL131:
	.loc 1 383 3
	.loc 1 383 6 is_stmt 0
	li	a5,1
	bgtu	a0,a5,.L92
	.loc 1 384 5 is_stmt 1
	.loc 1 384 12 is_stmt 0
	slli	a5,a0,2
	lui	a0,%hi(.LANCHOR2)
.LVL132:
	addi	a0,a0,%lo(.LANCHOR2)
	add	a0,a0,a5
	ret
.LVL133:
.L92:
	.loc 1 386 13
	lui	a0,%hi(ip_addr_any)
.LVL134:
	addi	a0,a0,%lo(ip_addr_any)
	.loc 1 388 1
	ret
	.cfi_endproc
.LFE6:
	.size	dns_getserver, .-dns_getserver
	.section	.text.dns_tmr,"ax",@progbits
	.align	1
	.globl	dns_tmr
	.type	dns_tmr, @function
dns_tmr:
.LFB7:
	.loc 1 396 1 is_stmt 1
	.cfi_startproc
	.loc 1 397 3
	.loc 1 398 3
.LBB75:
.LBB76:
	.loc 1 1126 3
	.loc 1 1128 3
.LVL135:
	.loc 1 1129 5
.LBE76:
.LBE75:
	.loc 1 396 1 is_stmt 0
	addi	sp,sp,-16
	.cfi_def_cfa_offset 16
.LBB81:
.LBB77:
	.loc 1 1129 5
	li	a0,0
.LBE77:
.LBE81:
	.loc 1 396 1
	sw	ra,12(sp)
	.cfi_offset 1, -4
.LBB82:
.LBB78:
	.loc 1 1129 5
	call	dns_check_entry
.LVL136:
	.loc 1 1129 5 is_stmt 1
	li	a0,1
	call	dns_check_entry
.LVL137:
	.loc 1 1129 5
	li	a0,2
	call	dns_check_entry
.LVL138:
	.loc 1 1129 5
.LBE78:
.LBE82:
	.loc 1 399 1 is_stmt 0
	lw	ra,12(sp)
	.cfi_restore 1
.LBB83:
.LBB79:
	.loc 1 1129 5
	li	a0,3
.LBE79:
.LBE83:
	.loc 1 399 1
	addi	sp,sp,16
	.cfi_def_cfa_offset 0
.LBB84:
.LBB80:
	.loc 1 1129 5
	tail	dns_check_entry
.LVL139:
.LBE80:
.LBE84:
	.cfi_endproc
.LFE7:
	.size	dns_tmr, .-dns_tmr
	.section	.text.dns_gethostbyname_addrtype,"ax",@progbits
	.align	1
	.globl	dns_gethostbyname_addrtype
	.type	dns_gethostbyname_addrtype, @function
dns_gethostbyname_addrtype:
.LFB21:
	.loc 1 1549 1 is_stmt 1
	.cfi_startproc
.LVL140:
	.loc 1 1550 3
	.loc 1 1556 3
	.loc 1 1556 6 is_stmt 0
	bne	a1,zero,.L96
	.loc 1 1558 12
	li	a4,-16
.LVL141:
	.loc 1 1629 1
	mv	a0,a4
.LVL142:
	ret
.LVL143:
.L98:
	.cfi_def_cfa_offset 48
	.cfi_offset 1, -4
	.cfi_offset 8, -8
	.cfi_offset 9, -12
	.cfi_offset 18, -16
	.cfi_offset 19, -20
	.cfi_offset 20, -24
	.cfi_offset 21, -28
	.cfi_offset 22, -32
	.cfi_offset 23, -36
	.cfi_offset 24, -40
	.cfi_offset 25, -44
	.cfi_offset 26, -48
	.loc 1 1558 12
	li	a4,-16
.L117:
	.loc 1 1629 1
	lw	ra,44(sp)
	.cfi_restore 1
	lw	s0,40(sp)
	.cfi_restore 8
	lw	s1,36(sp)
	.cfi_restore 9
	lw	s2,32(sp)
	.cfi_restore 18
.LVL144:
	lw	s3,28(sp)
	.cfi_restore 19
	lw	s4,24(sp)
	.cfi_restore 20
	lw	s5,20(sp)
	.cfi_restore 21
	lw	s6,16(sp)
	.cfi_restore 22
	lw	s7,12(sp)
	.cfi_restore 23
	lw	s8,8(sp)
	.cfi_restore 24
	lw	s9,4(sp)
	.cfi_restore 25
	lw	s10,0(sp)
	.cfi_restore 26
	mv	a0,a4
	addi	sp,sp,48
	.cfi_def_cfa_offset 0
	jr	ra
.LVL145:
.L96:
	.loc 1 1549 1 discriminator 1
	addi	sp,sp,-48
	.cfi_def_cfa_offset 48
	sw	s2,32(sp)
	sw	ra,44(sp)
	sw	s0,40(sp)
	sw	s1,36(sp)
	sw	s3,28(sp)
	sw	s4,24(sp)
	sw	s5,20(sp)
	sw	s6,16(sp)
	sw	s7,12(sp)
	sw	s8,8(sp)
	sw	s9,4(sp)
	sw	s10,0(sp)
	.cfi_offset 18, -16
	.cfi_offset 1, -4
	.cfi_offset 8, -8
	.cfi_offset 9, -12
	.cfi_offset 19, -20
	.cfi_offset 20, -24
	.cfi_offset 21, -28
	.cfi_offset 22, -32
	.cfi_offset 23, -36
	.cfi_offset 24, -40
	.cfi_offset 25, -44
	.cfi_offset 26, -48
	mv	s2,a0
	.loc 1 1556 21 discriminator 1
	beq	a0,zero,.L98
	.loc 1 1557 19
	lbu	a5,0(a0)
	beq	a5,zero,.L98
	.loc 1 1561 3 is_stmt 1
	.loc 1 1561 6 is_stmt 0
	lui	a5,%hi(.LANCHOR3)
	lw	a5,%lo(.LANCHOR3)(a5)
	beq	a5,zero,.L98
	mv	s5,a3
	mv	s4,a2
	mv	s7,a1
	.loc 1 1565 3 is_stmt 1
	.loc 1 1565 17 is_stmt 0
	call	strlen
.LVL146:
	.loc 1 1566 6
	li	a5,255
	.loc 1 1565 17
	mv	s3,a0
.LVL147:
	.loc 1 1566 3 is_stmt 1
	.loc 1 1566 6 is_stmt 0
	bgtu	a0,a5,.L98
	.loc 1 1580 3 is_stmt 1
	.loc 1 1580 7 is_stmt 0
	mv	a1,s7
	mv	a0,s2
.LVL148:
	call	ip4addr_aton
.LVL149:
	.loc 1 1586 14
	li	a4,0
	.loc 1 1580 6
	bne	a0,zero,.L117
	lui	s0,%hi(.LANCHOR1)
	addi	s8,s0,%lo(.LANCHOR1)
	addi	s9,s0,%lo(.LANCHOR1)
	addi	s6,s0,%lo(.LANCHOR1)
	li	s1,0
.LBB90:
.LBB91:
	.loc 1 618 8
	li	s10,3
	.loc 1 617 3
	li	s0,4
.L100:
.LVL150:
	.loc 1 618 5 is_stmt 1
	.loc 1 618 8 is_stmt 0
	lbu	a5,10(s9)
	bne	a5,s10,.L99
	.loc 1 619 10
	li	a2,256
	addi	a1,s9,15
	mv	a0,s2
	call	lwip_strnicmp
.LVL151:
	.loc 1 618 48
	bne	a0,zero,.L99
	.loc 1 621 7 is_stmt 1
	.loc 1 622 7
	.loc 1 623 7
	.loc 1 624 7
	.loc 1 625 9
	.loc 1 625 46 is_stmt 0
	li	s0,272
	mul	s1,s1,s0
.LVL152:
.LBE91:
.LBE90:
	.loc 1 1591 12
	li	a4,0
.LBB93:
.LBB92:
	.loc 1 625 46
	add	s0,s6,s1
	lw	a5,4(s0)
	.loc 1 625 23
	sw	a5,0(s7)
	j	.L117
.LVL153:
.L99:
	addi	s1,s1,1
.LVL154:
	addi	s9,s9,272
	.loc 1 617 3
	bne	s1,s0,.L100
.LBE92:
.LBE93:
	.loc 1 1607 3 is_stmt 1
	.loc 1 1621 5
	.loc 1 1621 8 is_stmt 0
	lui	a5,%hi(.LANCHOR2)
	lw	a5,%lo(.LANCHOR2)(a5)
	.loc 1 1622 14
	li	a4,-6
	.loc 1 1621 8
	beq	a5,zero,.L117
.LBB94:
.LBB95:
.LBB96:
	.loc 1 1425 18
	lui	s7,%hi(.LANCHOR5)
.LVL155:
	lbu	a3,%lo(.LANCHOR5)(s7)
	li	a5,0
.LBE96:
	.loc 1 1416 9
	li	s1,4
	.loc 1 1415 8
	li	a2,0
	addi	s7,s7,%lo(.LANCHOR5)
	.loc 1 1424 8
	li	a6,3
	.loc 1 1417 3
	li	a0,4
.L104:
	.loc 1 1420 14
	lbu	a4,10(s8)
	andi	a1,a5,0xff
.LVL156:
	.loc 1 1418 5 is_stmt 1
	.loc 1 1420 5
	.loc 1 1420 8 is_stmt 0
	bne	a4,zero,.L101
	.loc 1 1418 11
	li	s0,272
	mul	a5,a5,s0
.LVL157:
	mv	s1,a1
.LVL158:
	add	s0,s6,a5
.LVL159:
.L102:
	.loc 1 1463 3 is_stmt 1
	.loc 1 1467 3
	.loc 1 1470 3
	.loc 1 1470 16 is_stmt 0
	li	a5,1
	sb	a5,10(s0)
	.loc 1 1471 3 is_stmt 1
	.loc 1 1474 14 is_stmt 0
	lui	a5,%hi(.LANCHOR0)
	slli	a4,s1,3
	addi	a5,a5,%lo(.LANCHOR0)
	add	a5,a5,a4
	.loc 1 1471 16
	sb	a3,14(s0)
	.loc 1 1472 3 is_stmt 1
	.loc 1 1473 3
	.loc 1 1474 3
	.loc 1 1474 14 is_stmt 0
	sw	s4,0(a5)
	.loc 1 1475 3 is_stmt 1
	.loc 1 1475 12 is_stmt 0
	sw	s5,4(a5)
	.loc 1 1476 3 is_stmt 1
.LVL160:
	.loc 1 1477 3
	mv	a2,s3
	mv	a1,s2
	addi	a0,s0,15
	call	memcpy
.LVL161:
	.loc 1 1478 3
	.loc 1 1496 12 is_stmt 0
	lbu	a5,0(s7)
	.loc 1 1478 24
	add	s0,s0,s3
.LVL162:
	sb	zero,15(s0)
	.loc 1 1496 3 is_stmt 1
	.loc 1 1496 12 is_stmt 0
	addi	a5,a5,1
	.loc 1 1499 3
	mv	a0,s1
	.loc 1 1496 12
	sb	a5,0(s7)
	.loc 1 1499 3 is_stmt 1
	call	dns_check_entry
.LVL163:
	.loc 1 1502 3
	.loc 1 1502 10 is_stmt 0
	li	a4,-5
	j	.L117
.LVL164:
.L101:
	.loc 1 1424 5 is_stmt 1
	.loc 1 1424 8 is_stmt 0
	bne	a4,a6,.L103
.LBB97:
	.loc 1 1425 7 is_stmt 1
	.loc 1 1425 12 is_stmt 0
	lbu	a4,14(s8)
	sub	a4,a3,a4
	andi	a4,a4,0xff
.LVL165:
	.loc 1 1426 7 is_stmt 1
	.loc 1 1426 10 is_stmt 0
	bleu	a4,a2,.L103
	mv	s1,a1
.LVL166:
	mv	a2,a4
.LVL167:
.L103:
	addi	a5,a5,1
.LVL168:
	addi	s8,s8,272
.LBE97:
	.loc 1 1417 3
	bne	a5,a0,.L104
.LVL169:
	.loc 1 1434 3 is_stmt 1
	.loc 1 1435 5
	.loc 1 1438 14 is_stmt 0
	li	a4,-1
	.loc 1 1435 8
	beq	s1,a5,.L117
	.loc 1 1435 42
	li	s0,272
	mul	s0,s1,s0
	.loc 1 1435 22
	li	a5,3
	.loc 1 1438 14
	li	a4,-1
	.loc 1 1435 42
	add	s0,s6,s0
	.loc 1 1435 22
	lbu	a2,10(s0)
.LVL170:
	bne	a2,a5,.L117
	j	.L102
.LBE95:
.LBE94:
	.cfi_endproc
.LFE21:
	.size	dns_gethostbyname_addrtype, .-dns_gethostbyname_addrtype
	.section	.text.dns_gethostbyname,"ax",@progbits
	.align	1
	.globl	dns_gethostbyname
	.type	dns_gethostbyname, @function
dns_gethostbyname:
.LFB20:
	.loc 1 1528 1 is_stmt 1
	.cfi_startproc
.LVL171:
	.loc 1 1529 3
	.loc 1 1529 10 is_stmt 0
	li	a4,0
	tail	dns_gethostbyname_addrtype
.LVL172:
	.cfi_endproc
.LFE20:
	.size	dns_gethostbyname, .-dns_gethostbyname
	.globl	dns_mquery_v4group
	.section	.bss.dns_requests,"aw",@nobits
	.align	2
	.set	.LANCHOR0,. + 0
	.type	dns_requests, @object
	.size	dns_requests, 32
dns_requests:
	.zero	32
	.section	.bss.dns_table,"aw",@nobits
	.align	2
	.set	.LANCHOR1,. + 0
	.type	dns_table, @object
	.size	dns_table, 1088
dns_table:
	.zero	1088
	.section	.sbss.dns_pcbs,"aw",@nobits
	.align	2
	.set	.LANCHOR3,. + 0
	.type	dns_pcbs, @object
	.size	dns_pcbs, 4
dns_pcbs:
	.zero	4
	.section	.sbss.dns_seqno,"aw",@nobits
	.set	.LANCHOR5,. + 0
	.type	dns_seqno, @object
	.size	dns_seqno, 1
dns_seqno:
	.zero	1
	.section	.sbss.dns_servers,"aw",@nobits
	.align	2
	.set	.LANCHOR2,. + 0
	.type	dns_servers, @object
	.size	dns_servers, 8
dns_servers:
	.zero	8
	.section	.sbss.dns_txid,"aw",@nobits
	.align	1
	.set	.LANCHOR4,. + 0
	.type	dns_txid, @object
	.size	dns_txid, 2
dns_txid:
	.zero	2
	.section	.sdata2.dns_mquery_v4group,"a"
	.align	2
	.type	dns_mquery_v4group, @object
	.size	dns_mquery_v4group, 4
dns_mquery_v4group:
	.word	-83885856
	.text
.Letext0:
	.file 2 "/b-l/bl_iot_sdk/components/network/lwip/lwip-port/arch/cc.h"
	.file 3 "/b-l/bl_iot_sdk/toolchain/riscv/Linux/lib/gcc/riscv64-unknown-elf/8.3.0/include/stddef.h"
	.file 4 "/b-l/bl_iot_sdk/toolchain/riscv/Linux/riscv64-unknown-elf/include/sys/_types.h"
	.file 5 "/b-l/bl_iot_sdk/toolchain/riscv/Linux/riscv64-unknown-elf/include/sys/reent.h"
	.file 6 "/b-l/bl_iot_sdk/toolchain/riscv/Linux/riscv64-unknown-elf/include/sys/lock.h"
	.file 7 "/b-l/bl_iot_sdk/toolchain/riscv/Linux/riscv64-unknown-elf/include/stdlib.h"
	.file 8 "/b-l/bl_iot_sdk/toolchain/riscv/Linux/riscv64-unknown-elf/include/ctype.h"
	.file 9 "/b-l/bl_iot_sdk/components/network/lwip/src/include/lwip/err.h"
	.file 10 "/b-l/bl_iot_sdk/components/network/lwip/src/include/lwip/pbuf.h"
	.file 11 "/b-l/bl_iot_sdk/components/network/lwip/src/include/lwip/ip4_addr.h"
	.file 12 "/b-l/bl_iot_sdk/components/network/lwip/src/include/lwip/ip_addr.h"
	.file 13 "/b-l/bl_iot_sdk/components/network/lwip/src/include/lwip/mem.h"
	.file 14 "/b-l/bl_iot_sdk/components/network/lwip/src/include/lwip/memp.h"
	.file 15 "/b-l/bl_iot_sdk/components/network/lwip/src/include/lwip/priv/memp_priv.h"
	.file 16 "/b-l/bl_iot_sdk/components/network/lwip/src/include/lwip/stats.h"
	.file 17 "/b-l/bl_iot_sdk/components/network/lwip/src/include/lwip/netif.h"
	.file 18 "/b-l/bl_iot_sdk/components/network/lwip/src/include/lwip/prot/ip4.h"
	.file 19 "/b-l/bl_iot_sdk/components/network/lwip/src/include/lwip/ip.h"
	.file 20 "/b-l/bl_iot_sdk/components/network/lwip/src/include/lwip/udp.h"
	.file 21 "/b-l/bl_iot_sdk/components/network/lwip/src/include/lwip/dns.h"
	.file 22 "/b-l/bl_iot_sdk/components/network/lwip/src/include/lwip/prot/dns.h"
	.file 23 "/b-l/bl_iot_sdk/components/network/lwip/src/include/lwip/def.h"
	.file 24 "/b-l/bl_iot_sdk/toolchain/riscv/Linux/riscv64-unknown-elf/include/string.h"