	.file	"poll.c"
	.option nopic
	.attribute arch, "rv32i2p0_m2p0_f2p0_c2p0"
	.attribute unaligned_access, 0
	.attribute stack_align, 16
	.text
.Ltext0:
	.cfi_sections	.debug_frame
	.section	.text.polling_events.constprop.1,"ax",@progbits
	.align	1
	.type	polling_events.constprop.1, @function
polling_events.constprop.1:
.LFB57:
	.file 1 "/b-l/bl_iot_sdk_new/components/network/ble/blestack/src/common/poll.c"
	.loc 1 157 12
	.cfi_startproc
.LVL0:
	addi	sp,sp,-80
	.cfi_def_cfa_offset 80
	sw	s4,56(sp)
	.cfi_offset 20, -24
.LBB66:
.LBB67:
.LBB68:
.LBB69:
	.loc 1 154 15 is_stmt 0
	li	s4,-61440
.LBE69:
.LBE68:
.LBE67:
.LBE66:
	.loc 1 157 12
	sw	s0,72(sp)
	sw	s1,68(sp)
	sw	s2,64(sp)
	sw	s3,60(sp)
	sw	s5,52(sp)
	sw	s6,48(sp)
	sw	s7,44(sp)
	sw	s8,40(sp)
	sw	s9,36(sp)
	sw	s10,32(sp)
	sw	ra,76(sp)
	sw	s11,28(sp)
	.cfi_offset 8, -8
	.cfi_offset 9, -12
	.cfi_offset 18, -16
	.cfi_offset 19, -20
	.cfi_offset 21, -28
	.cfi_offset 22, -32
	.cfi_offset 23, -36
	.cfi_offset 24, -40
	.cfi_offset 25, -44
	.cfi_offset 26, -48
	.cfi_offset 1, -4
	.cfi_offset 27, -52
	.loc 1 157 12
	mv	s1,a0
	sw	a1,12(sp)
	mv	s10,a2
	mv	s5,a3
.LBB108:
.LBB102:
	.loc 1 169 21
	mv	s9,a0
.LBE102:
	.loc 1 164 14
	li	s0,0
.LBE108:
	.loc 1 161 9
	li	s2,1
.LBB109:
.LBB103:
.LBB73:
.LBB74:
	.loc 1 47 2
	li	s6,2
	li	s3,20
.LBE74:
.LBE73:
.LBB79:
.LBB80:
	.loc 1 86 2
	li	s7,3
	li	s8,1
.LBE80:
.LBE79:
.LBB91:
.LBB70:
	.loc 1 154 15
	addi	s4,s4,-1
.LVL1:
.L2:
.LBE70:
.LBE91:
.LBE103:
	.loc 1 164 5
	lw	a5,12(sp)
	blt	s0,a5,.L14
.LBE109:
	.loc 1 180 5 is_stmt 1
	.loc 1 181 1 is_stmt 0
	lw	ra,76(sp)
	.cfi_remember_state
	.cfi_restore 1
	lw	s0,72(sp)
	.cfi_restore 8
.LVL2:
	mv	a0,s2
	lw	s1,68(sp)
	.cfi_restore 9
.LVL3:
	lw	s2,64(sp)
	.cfi_restore 18
.LVL4:
	lw	s3,60(sp)
	.cfi_restore 19
	lw	s4,56(sp)
	.cfi_restore 20
	lw	s5,52(sp)
	.cfi_restore 21
.LVL5:
	lw	s6,48(sp)
	.cfi_restore 22
	lw	s7,44(sp)
	.cfi_restore 23
	lw	s8,40(sp)
	.cfi_restore 24
	lw	s9,36(sp)
	.cfi_restore 25
	lw	s10,32(sp)
	.cfi_restore 26
.LVL6:
	lw	s11,28(sp)
	.cfi_restore 27
	addi	sp,sp,80
	.cfi_def_cfa_offset 0
	jr	ra
.LVL7:
.L14:
	.cfi_restore_state
.LBB110:
.LBB104:
	.loc 1 165 9 is_stmt 1
	.loc 1 166 9
	.loc 1 166 15 is_stmt 0
	call	irq_lock
.LVL8:
.LBB92:
.LBB75:
	.loc 1 47 15
	lw	a4,12(s9)
.LBE75:
.LBE92:
	.loc 1 166 15
	mv	s11,a0
.LVL9:
	.loc 1 167 9 is_stmt 1
.LBB93:
.LBB76:
	.loc 1 47 2
	.loc 1 47 15 is_stmt 0
	srli	a4,a4,8
	andi	a4,a4,15
	.loc 1 47 2
	beq	a4,s6,.L3
	beq	a4,s7,.L4
	bne	a4,s8,.L6
	.loc 1 61 3 is_stmt 1
	.loc 1 61 20 is_stmt 0
	lw	a4,16(s9)
	.loc 1 62 11
	li	a2,2
	.loc 1 61 6
	lw	a4,8(a4)
	bne	a4,zero,.L7
.LVL10:
.L6:
.LBE76:
.LBE93:
	.loc 1 170 16 is_stmt 1
	.loc 1 170 19 is_stmt 0
	beq	s10,zero,.L9
	.loc 1 170 33
	beq	s2,zero,.L9
	.loc 1 171 13 is_stmt 1
.LVL11:
.LBB94:
.LBB87:
	.loc 1 86 2
	.loc 1 86 15 is_stmt 0
	lw	a4,12(s9)
	srli	a4,a4,8
	andi	a4,a4,15
	.loc 1 86 2
	beq	a4,s6,.L11
	beq	a4,s7,.L11
	bne	a4,s8,.L13
	.loc 1 96 3 is_stmt 1
	.loc 1 96 8
	.loc 1 97 3
	mul	a4,s0,s3
	.loc 1 97 19 is_stmt 0
	lw	a3,16(s9)
.LVL12:
.LBE87:
.LBE94:
.LBE104:
.LBE110:
	.loc 1 79 5 is_stmt 1
.LBB111:
.LBB105:
.LBB95:
.LBB88:
.LBB81:
.LBB82:
.LBB83:
	.file 2 "/b-l/bl_iot_sdk_new/components/network/ble/blestack/src/common/include/misc/dlist.h"
	.loc 2 339 13 is_stmt 0
	sw	a3,0(s9)
	.loc 2 340 19
	lw	a2,4(a3)
	.loc 2 340 13
	sw	a2,4(s9)
	add	a4,s1,a4
.LVL13:
	.loc 2 339 2 is_stmt 1
	.loc 2 340 2
	.loc 2 342 2
	.loc 2 342 19 is_stmt 0
	sw	a4,0(a2)
	.loc 2 343 2 is_stmt 1
	.loc 2 343 13 is_stmt 0
	sw	a4,4(a3)
.LVL14:
	j	.L13
.LVL15:
.L3:
.LBE83:
.LBE82:
.LBE81:
.LBE88:
.LBE95:
.LBB96:
.LBB77:
	.loc 1 49 3 is_stmt 1
	.loc 1 49 7 is_stmt 0
	lw	a0,16(s9)
.LVL16:
	call	k_sem_count_get
.LVL17:
	.loc 1 49 6
	beq	a0,zero,.L6
	.loc 1 50 11
	li	a2,3
.L7:
.LBE77:
.LBE96:
	.loc 1 168 13 is_stmt 1
.LVL18:
.LBB97:
.LBB71:
	.loc 1 153 2
	.loc 1 154 15 is_stmt 0
	lw	a3,12(s9)
	.loc 1 153 16
	sw	zero,8(s9)
	.loc 1 154 2 is_stmt 1
.LBE71:
.LBE97:
	.loc 1 169 21 is_stmt 0
	li	s2,0
.LVL19:
.LBB98:
.LBB72:
	.loc 1 154 15
	srli	a4,a3,12
	andi	a4,a4,15
	or	a4,a4,a2
	slli	a4,a4,12
	and	a3,a3,s4
	or	a4,a3,a4
	sw	a4,12(s9)
.LVL20:
.LBE72:
.LBE98:
	.loc 1 169 13 is_stmt 1
.L9:
	.loc 1 175 17
	.loc 1 175 22
	.loc 1 178 9
	mv	a0,s11
	call	irq_unlock
.LVL21:
.LBE105:
	.loc 1 164 41 is_stmt 0
	addi	s0,s0,1
.LVL22:
	addi	s9,s9,20
.LVL23:
	j	.L2
.LVL24:
.L4:
.LBB106:
.LBB99:
.LBB78:
	.loc 1 55 3 is_stmt 1
	.loc 1 55 8 is_stmt 0
	lw	a0,16(s9)
.LVL25:
	call	k_queue_is_empty
.LVL26:
	.loc 1 55 6
	bne	a0,zero,.L6
	.loc 1 56 11
	li	a2,4
	j	.L7
.LVL27:
.L11:
.LBE78:
.LBE99:
.LBB100:
.LBB89:
	.loc 1 92 3 is_stmt 1
	.loc 1 92 8
	.loc 1 93 3
	mul	a4,s0,s3
	.loc 1 93 19 is_stmt 0
	lw	a3,16(s9)
.LVL28:
.LBE89:
.LBE100:
.LBE106:
.LBE111:
	.loc 1 79 5 is_stmt 1
.LBB112:
.LBB107:
.LBB101:
.LBB90:
	.loc 1 93 3 is_stmt 0
	addi	a2,a3,4
.LVL29:
.LBB84:
.LBB85:
.LBB86:
	.loc 2 339 13
	sw	a2,0(s9)
	.loc 2 340 19
	lw	a2,8(a3)
.LVL30:
	.loc 2 340 13
	sw	a2,4(s9)
	add	a4,s1,a4
.LVL31:
	.loc 2 339 2 is_stmt 1
	.loc 2 340 2
	.loc 2 342 2
	.loc 2 342 19 is_stmt 0
	sw	a4,0(a2)
.LVL32:
	.loc 2 343 2 is_stmt 1
	.loc 2 343 13 is_stmt 0
	sw	a4,8(a3)
.LVL33:
.L13:
.LBE86:
.LBE85:
.LBE84:
	.loc 1 107 2 is_stmt 1
	.loc 1 107 16 is_stmt 0
	sw	zero,8(s9)
	.loc 1 109 2 is_stmt 1
.LVL34:
.LBE90:
.LBE101:
	.loc 1 172 13
	.loc 1 173 17
	lw	a4,0(s5)
	addi	a4,a4,1
	sw	a4,0(s5)
	j	.L9
.LBE107:
.LBE112:
	.cfi_endproc
.LFE57:
	.size	polling_events.constprop.1, .-polling_events.constprop.1
	.section	.text.k_poll_event_init,"ax",@progbits
	.align	1
	.globl	k_poll_event_init
	.type	k_poll_event_init, @function
k_poll_event_init:
.LFB44:
	.loc 1 29 1
	.cfi_startproc
.LVL35:
	.loc 1 30 2
	.loc 1 30 7
	.loc 1 32 2
	.loc 1 32 7
	.loc 1 33 2
	.loc 1 33 7
	.loc 1 35 2
	.loc 1 37 2
	.loc 1 37 14 is_stmt 0
	andi	a1,a1,15
.LVL36:
	slli	a5,a1,8
	lw	a1,12(a0)
	li	a4,-4096
	addi	a4,a4,255
	and	a1,a1,a4
	or	a1,a1,a5
	.loc 1 38 2 is_stmt 1
	.loc 1 39 2
	.loc 1 39 14 is_stmt 0
	li	a5,-65536
	andi	a2,a2,1
.LVL37:
	addi	a5,a5,-1
	slli	a2,a2,16
	and	a1,a1,a5
	or	a1,a1,a2
	.loc 1 40 2 is_stmt 1
	.loc 1 38 15 is_stmt 0
	li	a2,69632
	addi	a2,a2,-1
	and	a1,a1,a2
	.loc 1 35 16
	sw	zero,8(a0)
	.loc 1 38 15
	sw	a1,12(a0)
	.loc 1 41 2 is_stmt 1
	.loc 1 41 13 is_stmt 0
	sw	a3,16(a0)
	.loc 1 42 1
	ret
	.cfi_endproc
.LFE44:
	.size	k_poll_event_init, .-k_poll_event_init
	.section	.text.k_poll,"ax",@progbits
	.align	1
	.globl	k_poll
	.type	k_poll, @function
k_poll:
.LFB52:
	.loc 1 184 1 is_stmt 1
	.cfi_startproc
.LVL38:
	.loc 1 185 2
	.loc 1 185 7
	.loc 1 186 2
	.loc 1 186 7
	.loc 1 188 9
	.loc 1 184 1 is_stmt 0
	addi	sp,sp,-48
	.cfi_def_cfa_offset 48
	sw	s2,32(sp)
	.loc 1 193 19
	addi	a3,sp,12
	.cfi_offset 18, -16
	.loc 1 188 13
	li	s2,-1
	.loc 1 184 1
	sw	s0,40(sp)
	sw	s1,36(sp)
	sw	s3,28(sp)
	sw	ra,44(sp)
	sw	s4,24(sp)
	sw	s5,20(sp)
	.cfi_offset 8, -8
	.cfi_offset 9, -12
	.cfi_offset 19, -20
	.cfi_offset 1, -4
	.cfi_offset 20, -24
	.cfi_offset 21, -28
	.loc 1 184 1
	mv	s0,a0
	mv	s3,a1
	mv	s1,a2
	.loc 1 188 13
	sw	s2,12(sp)
	.loc 1 189 6 is_stmt 1
	.loc 1 190 8
.LVL39:
	.loc 1 193 9
	.loc 1 193 19 is_stmt 0
	call	polling_events.constprop.1
.LVL40:
	.loc 1 195 9 is_stmt 1
	.loc 1 195 12 is_stmt 0
	beq	a0,zero,.L29
	.loc 1 199 9 is_stmt 1
	lui	a0,%hi(g_poll_sem)
.LVL41:
	mv	a1,s1
	addi	a0,a0,%lo(g_poll_sem)
	call	k_sem_take
.LVL42:
	.loc 1 201 9
	.loc 1 202 9 is_stmt 0
	addi	a3,sp,12
	mv	a2,s1
	mv	a1,s3
	mv	a0,s0
	.loc 1 201 25
	sw	s2,12(sp)
	.loc 1 202 9 is_stmt 1
	call	polling_events.constprop.1
.LVL43:
.L29:
	.loc 1 204 9
	.loc 1 204 15 is_stmt 0
	call	irq_lock
.LVL44:
	.loc 1 205 9
	lw	s1,12(sp)
.LVL45:
	li	a5,20
	.loc 1 204 15
	mv	s2,a0
.LVL46:
	.loc 1 205 9 is_stmt 1
.LBB123:
.LBB124:
	.loc 1 144 2
	mul	a5,s1,a5
.LBB125:
.LBB126:
	.loc 1 117 2 is_stmt 0
	li	s3,2
.LVL47:
	li	s4,3
	li	s5,1
	add	s0,s0,a5
.LVL48:
.L30:
.LBE126:
.LBE125:
	.loc 1 144 2
	bge	s1,zero,.L35
.LVL49:
.LBE124:
.LBE123:
	.loc 1 206 9 is_stmt 1
	mv	a0,s2
	call	irq_unlock
.LVL50:
	.loc 1 207 9
	.loc 1 208 1 is_stmt 0
	lw	ra,44(sp)
	.cfi_remember_state
	.cfi_restore 1
	lw	s0,40(sp)
	.cfi_restore 8
	lw	s1,36(sp)
	.cfi_restore 9
	lw	s2,32(sp)
	.cfi_restore 18
.LVL51:
	lw	s3,28(sp)
	.cfi_restore 19
	lw	s4,24(sp)
	.cfi_restore 20
	lw	s5,20(sp)
	.cfi_restore 21
	li	a0,0
	addi	sp,sp,48
	.cfi_def_cfa_offset 0
	jr	ra
.LVL52:
.L35:
	.cfi_restore_state
.LBB132:
.LBB131:
	.loc 1 145 3 is_stmt 1
.LBB130:
.LBB129:
	.loc 1 115 2
	.loc 1 117 15 is_stmt 0
	lw	a5,12(s0)
	.loc 1 115 16
	sw	zero,8(s0)
	.loc 1 117 2 is_stmt 1
	.loc 1 117 15 is_stmt 0
	srli	a5,a5,8
	andi	a5,a5,15
	.loc 1 117 2
	beq	a5,s3,.L33
	beq	a5,s4,.L33
	bne	a5,s5,.L34
.L33:
	.loc 1 127 3 is_stmt 1
	.loc 1 127 8
	.loc 1 128 3
.LVL53:
.LBB127:
.LBB128:
	.loc 2 463 2
	.loc 2 463 6 is_stmt 0
	lw	a4,4(s0)
	.loc 2 463 25
	lw	a5,0(s0)
	.loc 2 463 19
	sw	a5,0(a4)
	.loc 2 464 2 is_stmt 1
	.loc 2 464 25 is_stmt 0
	lw	a4,4(s0)
	.loc 2 464 19
	sw	a4,4(a5)
.LVL54:
.L34:
.LBE128:
.LBE127:
.LBE129:
.LBE130:
	.loc 1 146 3 is_stmt 1
	call	irq_unlock
.LVL55:
	.loc 1 147 3
	.loc 1 147 9 is_stmt 0
	call	irq_lock
.LVL56:
	.loc 1 144 46
	addi	s1,s1,-1
.LVL57:
	addi	s0,s0,-20
	j	.L30
.LBE131:
.LBE132:
	.cfi_endproc
.LFE52:
	.size	k_poll, .-k_poll
	.section	.text.k_poll_signal_raise,"ax",@progbits
	.align	1
	.globl	k_poll_signal_raise
	.type	k_poll_signal_raise, @function
k_poll_signal_raise:
.LFB54:
	.loc 1 220 1 is_stmt 1
	.cfi_startproc
.LVL58:
	.loc 1 221 2
	.loc 1 220 1 is_stmt 0
	addi	sp,sp,-32
	.cfi_def_cfa_offset 32
	sw	s0,24(sp)
	sw	a1,12(sp)
	.cfi_offset 8, -8
	mv	s0,a0
	sw	ra,28(sp)
	sw	s1,20(sp)
	.cfi_offset 1, -4
	.cfi_offset 9, -12
	.loc 1 221 21
	call	irq_lock
.LVL59:
	.loc 1 222 2 is_stmt 1
	.loc 1 223 2
	.loc 1 225 2
	.loc 1 226 19 is_stmt 0
	li	a5,1
	.loc 1 225 17
	lw	a1,12(sp)
	.loc 1 226 19
	sw	a5,8(s0)
.LBB142:
.LBB143:
.LBB144:
.LBB145:
	.loc 2 234 13
	lw	a5,0(s0)
.LBE145:
.LBE144:
.LBE143:
.LBE142:
	.loc 1 225 17
	sw	a1,12(s0)
	.loc 1 226 2 is_stmt 1
	.loc 1 228 2
.LVL60:
.LBB160:
.LBB156:
	.loc 2 479 2
	.loc 2 481 2
.LBB147:
.LBB146:
	.loc 2 234 2
.LBE146:
.LBE147:
	.loc 2 481 5 is_stmt 0
	bne	s0,a5,.L41
.LVL61:
.L44:
.LBE156:
.LBE160:
	.loc 1 238 9
	call	irq_unlock
.LVL62:
	.loc 1 239 2 is_stmt 1
	.loc 1 240 1 is_stmt 0
	lw	ra,28(sp)
	.cfi_remember_state
	.cfi_restore 1
	lw	s0,24(sp)
	.cfi_restore 8
.LVL63:
	lw	s1,20(sp)
	.cfi_restore 9
	li	a0,0
	addi	sp,sp,32
	.cfi_def_cfa_offset 0
	jr	ra
.LVL64:
.L41:
	.cfi_restore_state
.LBB161:
.LBB157:
.LBB148:
.LBB149:
	.loc 2 463 6
	lw	a3,4(a5)
	.loc 2 463 25
	lw	a4,0(a5)
	mv	s1,a0
.LBE149:
.LBE148:
	.loc 2 485 2 is_stmt 1
.LVL65:
	.loc 2 486 2
.LBB153:
.LBB150:
	.loc 2 463 2
.LBE150:
.LBE153:
.LBE157:
.LBE161:
	.loc 1 237 9 is_stmt 0
	lui	a0,%hi(g_poll_sem)
.LVL66:
.LBB162:
.LBB158:
.LBB154:
.LBB151:
	.loc 2 463 19
	sw	a4,0(a3)
	.loc 2 464 2 is_stmt 1
	.loc 2 464 25 is_stmt 0
	lw	a3,4(a5)
.LBE151:
.LBE154:
.LBE158:
.LBE162:
	.loc 1 237 9
	addi	a0,a0,%lo(g_poll_sem)
.LBB163:
.LBB159:
.LBB155:
.LBB152:
	.loc 2 464 19
	sw	a3,4(a4)
.LVL67:
.LBE152:
.LBE155:
.LBE159:
.LBE163:
	.loc 1 229 2 is_stmt 1
	.loc 1 234 2
	.loc 1 214 2
	.loc 1 215 2
.LBB164:
.LBB165:
.LBB166:
	.loc 1 153 2
	.loc 1 154 15 is_stmt 0
	lw	a4,12(a5)
	li	a3,8192
	.loc 1 153 16
	sw	zero,8(a5)
	.loc 1 154 2 is_stmt 1
	.loc 1 154 15 is_stmt 0
	or	a4,a4,a3
	sw	a4,12(a5)
.LVL68:
.LBE166:
.LBE165:
.LBE164:
	.loc 1 216 2 is_stmt 1
	.loc 1 237 9
	call	k_sem_give
.LVL69:
	.loc 1 238 9
	mv	a0,s1
	j	.L44
	.cfi_endproc
.LFE54:
	.size	k_poll_signal_raise, .-k_poll_signal_raise
	.comm	g_poll_sem,12,4
	.text
.Letext0:
	.file 3 "/b-l/bl_iot_sdk_new/toolchain/riscv/Linux/lib/gcc/riscv64-unknown-elf/8.3.0/include/stddef.h"
	.file 4 "/b-l/bl_iot_sdk_new/toolchain/riscv/Linux/riscv64-unknown-elf/include/sys/_types.h"
	.file 5 "/b-l/bl_iot_sdk_new/toolchain/riscv/Linux/riscv64-unknown-elf/include/sys/reent.h"
	.file 6 "/b-l/bl_iot_sdk_new/toolchain/riscv/Linux/riscv64-unknown-elf/include/sys/lock.h"
	.file 7 "/b-l/bl_iot_sdk_new/components/network/ble/blestack/src/common/include/zephyr/types.h"
	.file 8 "/b-l/bl_iot_sdk_new/components/network/ble/blestack/src/port/include/bl_port.h"
	.file 9 "/b-l/bl_iot_sdk_new/components/network/ble/blestack/src/port/include/zephyr.h"