	.file	"rpa.c"
	.option nopic
	.attribute arch, "rv32i2p0_m2p0_f2p0_c2p0"
	.attribute unaligned_access, 0
	.attribute stack_align, 16
	.text
.Ltext0:
	.cfi_sections	.debug_frame
	.section	.text.bt_rpa_irk_matches,"ax",@progbits
	.align	1
	.globl	bt_rpa_irk_matches
	.type	bt_rpa_irk_matches, @function
bt_rpa_irk_matches:
.LFB87:
	.file 1 "/b-l/bl_iot_sdk_new/components/network/ble/blestack/src/common/rpa.c"
	.loc 1 64 1
	.cfi_startproc
.LVL0:
	.loc 1 65 2
	.loc 1 66 2
	.loc 1 68 2
	.loc 1 70 2
	.loc 1 64 1 is_stmt 0
	addi	sp,sp,-48
	.cfi_def_cfa_offset 48
	sw	s0,40(sp)
	sw	s1,36(sp)
.LBB4:
.LBB5:
	.loc 1 42 2
	li	a2,3
	.cfi_offset 8, -8
	.cfi_offset 9, -12
.LBE5:
.LBE4:
	.loc 1 64 1
	mv	s1,a0
.LVL1:
.LBB9:
.LBB6:
	.loc 1 35 2 is_stmt 1
	.loc 1 36 2
	.loc 1 38 2
	.loc 1 39 2
	.loc 1 42 2
.LBE6:
.LBE9:
	.loc 1 64 1 is_stmt 0
	mv	s0,a1
.LBB10:
.LBB7:
	.loc 1 42 2
	addi	a0,sp,16
.LVL2:
	addi	a1,a1,3
.LVL3:
.LBE7:
.LBE10:
	.loc 1 64 1
	sw	ra,44(sp)
	.cfi_offset 1, -4
.LBB11:
.LBB8:
	.loc 1 42 2
	call	memcpy
.LVL4:
	.loc 1 43 2 is_stmt 1
	.loc 1 43 8 is_stmt 0
	li	a2,13
	li	a1,0
	addi	a0,sp,19
	call	memset
.LVL5:
	.loc 1 45 2 is_stmt 1
	.loc 1 45 8 is_stmt 0
	addi	a2,sp,16
	mv	a1,a2
	mv	a0,s1
	call	bt_encrypt_le
.LVL6:
	.loc 1 46 2 is_stmt 1
	.loc 1 46 5 is_stmt 0
	bne	a0,zero,.L2
	.loc 1 56 2 is_stmt 1
	li	a2,3
	addi	a1,sp,16
	addi	a0,sp,12
.LVL7:
	call	memcpy
.LVL8:
	.loc 1 58 2
.LBE8:
.LBE11:
	.loc 1 71 2
	.loc 1 75 2
	.loc 1 75 10 is_stmt 0
	li	a2,3
	addi	a1,sp,12
	mv	a0,s0
	call	memcmp
.LVL9:
	.loc 1 75 9
	seqz	a0,a0
.LVL10:
.L3:
	.loc 1 76 1
	lw	ra,44(sp)
	.cfi_remember_state
	.cfi_restore 1
	lw	s0,40(sp)
	.cfi_restore 8
.LVL11:
	lw	s1,36(sp)
	.cfi_restore 9
.LVL12:
	addi	sp,sp,48
	.cfi_def_cfa_offset 0
	jr	ra
.LVL13:
.L2:
	.cfi_restore_state
	.loc 1 71 2 is_stmt 1
	.loc 1 72 9 is_stmt 0
	li	a0,0
.LVL14:
	j	.L3
	.cfi_endproc
.LFE87:
	.size	bt_rpa_irk_matches, .-bt_rpa_irk_matches
	.section	.text.bt_rpa_create,"ax",@progbits
	.align	1
	.globl	bt_rpa_create
	.type	bt_rpa_create, @function
bt_rpa_create:
.LFB88:
	.loc 1 102 1 is_stmt 1
	.cfi_startproc
.LVL15:
	.loc 1 103 2
	.loc 1 104 1 is_stmt 0
	li	a0,-35
.LVL16:
	ret
	.cfi_endproc
.LFE88:
	.size	bt_rpa_create, .-bt_rpa_create
	.text
.Letext0:
	.file 2 "/b-l/bl_iot_sdk_new/toolchain/riscv/Linux/lib/gcc/riscv64-unknown-elf/8.3.0/include/stdint-gcc.h"
	.file 3 "/b-l/bl_iot_sdk_new/toolchain/riscv/Linux/lib/gcc/riscv64-unknown-elf/8.3.0/include/stddef.h"
	.file 4 "/b-l/bl_iot_sdk_new/components/network/ble/blestack/src/common/include/zephyr/types.h"
	.file 5 "/b-l/bl_iot_sdk_new/components/network/ble/blestack/src/common/include/misc/slist.h"
	.file 6 "/b-l/bl_iot_sdk_new/toolchain/riscv/Linux/riscv64-unknown-elf/include/sys/_types.h"
	.file 7 "/b-l/bl_iot_sdk_new/toolchain/riscv/Linux/riscv64-unknown-elf/include/sys/reent.h"
	.file 8 "/b-l/bl_iot_sdk_new/toolchain/riscv/Linux/riscv64-unknown-elf/include/sys/lock.h"
	.file 9 "/b-l/bl_iot_sdk_new/components/network/ble/blestack/src/common/include/net/buf.h"
	.file 10 "/b-l/bl_iot_sdk_new/components/network/ble/blestack/src/include/bluetooth/addr.h"
	.file 11 "/b-l/bl_iot_sdk_new/components/bl602/freertos_riscv_ram/portable/GCC/RISC-V/portmacro.h"
	.file 12 "/b-l/bl_iot_sdk_new/toolchain/riscv/Linux/riscv64-unknown-elf/include/string.h"
	.file 13 "/b-l/bl_iot_sdk_new/components/network/ble/blestack/src/common/../include/bluetooth/crypto.h"