	.file	"work_q.c"
	.option nopic
	.attribute arch, "rv32i2p0_m2p0_f2p0_c2p0"
	.attribute unaligned_access, 0
	.attribute stack_align, 16
	.text
.Ltext0:
	.cfi_sections	.debug_frame
	.section	.text.k_work_submit_to_queue,"ax",@progbits
	.align	1
	.type	k_work_submit_to_queue, @function
k_work_submit_to_queue:
.LFB67:
	.file 1 "/b-l/bl_iot_sdk_new/components/network/ble/blestack/src/common/work_q.c"
	.loc 1 33 1
	.cfi_startproc
.LVL0:
	.loc 1 34 5
	.loc 1 33 1 is_stmt 0
	addi	sp,sp,-16
	.cfi_def_cfa_offset 16
	sw	s0,8(sp)
	.cfi_offset 8, -8
	mv	s0,a1
.LVL1:
.LBB4:
.LBB5:
	.file 2 "/b-l/bl_iot_sdk_new/components/network/ble/blestack/src/common/include/atomic.h"
	.loc 2 370 2 is_stmt 1
	.loc 2 371 2
	.loc 2 373 2
.LBE5:
.LBE4:
	.loc 1 33 1 is_stmt 0
	sw	s1,4(sp)
.LBB9:
.LBB6:
	.loc 2 373 8
	li	a1,1
.LVL2:
	.cfi_offset 9, -12
.LBE6:
.LBE9:
	.loc 1 33 1
	mv	s1,a0
.LBB10:
.LBB7:
	.loc 2 373 8
	addi	a0,s0,8
.LVL3:
.LBE7:
.LBE10:
	.loc 1 33 1
	sw	ra,12(sp)
	.cfi_offset 1, -4
.LBB11:
.LBB8:
	.loc 2 373 8
	call	atomic_or
.LVL4:
	.loc 2 375 2 is_stmt 1
	.loc 2 375 14 is_stmt 0
	andi	a0,a0,1
.LBE8:
.LBE11:
	.loc 1 34 8
	bne	a0,zero,.L1
	.loc 1 35 9 is_stmt 1
	mv	a1,s0
	.loc 1 37 1 is_stmt 0
	lw	s0,8(sp)
	.cfi_remember_state
	.cfi_restore 8
.LVL5:
	lw	ra,12(sp)
	.cfi_restore 1
	.loc 1 35 9
	mv	a0,s1
	.loc 1 37 1
	lw	s1,4(sp)
	.cfi_restore 9
.LVL6:
	addi	sp,sp,16
	.cfi_def_cfa_offset 0
	.loc 1 35 9
	tail	k_queue_append
.LVL7:
.L1:
	.cfi_restore_state
	.loc 1 37 1
	lw	ra,12(sp)
	.cfi_restore 1
	lw	s0,8(sp)
	.cfi_restore 8
.LVL8:
	lw	s1,4(sp)
	.cfi_restore 9
.LVL9:
	addi	sp,sp,16
	.cfi_def_cfa_offset 0
	jr	ra
	.cfi_endproc
.LFE67:
	.size	k_work_submit_to_queue, .-k_work_submit_to_queue
	.section	.text.work_queue_main,"ax",@progbits
	.align	1
	.type	work_queue_main, @function
work_queue_main:
.LFB68:
	.loc 1 41 1 is_stmt 1
	.cfi_startproc
.LVL10:
	addi	sp,sp,-16
	.cfi_def_cfa_offset 16
	sw	s1,4(sp)
	sw	ra,12(sp)
	sw	s0,8(sp)
	.cfi_offset 9, -12
	.cfi_offset 1, -4
	.cfi_offset 8, -8
	.loc 1 46 16 is_stmt 0
	lui	s1,%hi(g_work_queue_main)
.LVL11:
.L6:
	.loc 1 42 5 is_stmt 1
	.loc 1 43 5
	.loc 1 45 5
	.loc 1 46 9
	.loc 1 46 16 is_stmt 0
	li	a1,-1
	addi	a0,s1,%lo(g_work_queue_main)
	call	k_queue_get
.LVL12:
	mv	s0,a0
.LVL13:
	.loc 1 48 9 is_stmt 1
.LBB14:
.LBB15:
	.loc 2 349 2
	.loc 2 350 2
	.loc 2 352 2
	.loc 2 352 8 is_stmt 0
	li	a1,-2
	addi	a0,a0,8
.LVL14:
	call	atomic_and
.LVL15:
	.loc 2 354 2 is_stmt 1
	.loc 2 354 14 is_stmt 0
	andi	a0,a0,1
.LBE15:
.LBE14:
	.loc 1 48 12
	beq	a0,zero,.L5
	.loc 1 49 13 is_stmt 1
	lw	a5,4(s0)
	mv	a0,s0
	jalr	a5
.LVL16:
.L5:
	.loc 1 52 9
	call	k_yield
.LVL17:
	.loc 1 46 14 is_stmt 0
	j	.L6
	.cfi_endproc
.LFE68:
	.size	work_queue_main, .-work_queue_main
	.section	.text.k_work_q_start,"ax",@progbits
	.align	1
	.globl	k_work_q_start
	.type	k_work_q_start, @function
k_work_q_start:
.LFB69:
	.loc 1 57 1 is_stmt 1
	.cfi_startproc
	.loc 1 58 5
	.loc 1 217 5
.LBB19:
.LBB20:
	.loc 1 217 9
.LVL18:
	.loc 1 219 9
.LBE20:
.LBE19:
	.loc 1 57 1 is_stmt 0
	addi	sp,sp,-16
	.cfi_def_cfa_offset 16
.LBB24:
.LBB21:
	.loc 1 219 36
	lui	a5,%hi(.LANCHOR0)
.LBE21:
.LBE24:
	.loc 1 57 1
	sw	ra,12(sp)
	.cfi_offset 1, -4
.LBB25:
.LBB22:
	.loc 1 219 36
	addi	a5,a5,%lo(.LANCHOR0)
.LBE22:
.LBE25:
	.loc 1 59 5
	lui	a0,%hi(g_work_queue_main)
	li	a1,20
	addi	a0,a0,%lo(g_work_queue_main)
.LBB26:
.LBB23:
	.loc 1 219 36
	sw	zero,0(a5)
	.loc 1 220 9 is_stmt 1
	.loc 1 220 37 is_stmt 0
	sw	zero,4(a5)
.LVL19:
	.loc 1 219 9 is_stmt 1
	.loc 1 219 36 is_stmt 0
	sw	zero,8(a5)
	.loc 1 220 9 is_stmt 1
	.loc 1 220 37 is_stmt 0
	sw	zero,12(a5)
.LVL20:
	.loc 1 219 9 is_stmt 1
	.loc 1 219 36 is_stmt 0
	sw	zero,16(a5)
	.loc 1 220 9 is_stmt 1
	.loc 1 220 37 is_stmt 0
	sw	zero,20(a5)
.LVL21:
	.loc 1 219 9 is_stmt 1
	.loc 1 219 36 is_stmt 0
	sw	zero,24(a5)
	.loc 1 220 9 is_stmt 1
	.loc 1 220 37 is_stmt 0
	sw	zero,28(a5)
.LVL22:
	.loc 1 219 9 is_stmt 1
	.loc 1 219 36 is_stmt 0
	sw	zero,32(a5)
	.loc 1 220 9 is_stmt 1
	.loc 1 220 37 is_stmt 0
	sw	zero,36(a5)
.LVL23:
.LBE23:
.LBE26:
	.loc 1 59 5 is_stmt 1
	call	k_queue_init
.LVL24:
	.loc 1 60 5
	.loc 1 63 1 is_stmt 0
	lw	ra,12(sp)
	.cfi_restore 1
	.loc 1 60 12
	lui	a3,%hi(work_queue_main)
	lui	a1,%hi(.LC0)
	lui	a0,%hi(work_q_thread)
	.loc 1 63 1
	.loc 1 60 12
	li	a4,30
	addi	a3,a3,%lo(work_queue_main)
	li	a2,1536
	addi	a1,a1,%lo(.LC0)
	addi	a0,a0,%lo(work_q_thread)
	.loc 1 63 1
	addi	sp,sp,16
	.cfi_def_cfa_offset 0
	.loc 1 60 12
	tail	k_thread_create
.LVL25:
	.cfi_endproc
.LFE69:
	.size	k_work_q_start, .-k_work_q_start
	.section	.text.k_work_init,"ax",@progbits
	.align	1
	.globl	k_work_init
	.type	k_work_init, @function
k_work_init:
.LFB70:
	.loc 1 66 1 is_stmt 1
	.cfi_startproc
.LVL26:
	.loc 1 67 5
	.loc 1 69 5
.LBB29:
.LBB30:
	.loc 2 391 2
	.loc 2 393 2
.LBE30:
.LBE29:
	.loc 1 66 1 is_stmt 0
	addi	sp,sp,-16
	.cfi_def_cfa_offset 16
	sw	s0,8(sp)
	sw	s1,4(sp)
	.cfi_offset 8, -8
	.cfi_offset 9, -12
	mv	s0,a0
	mv	s1,a1
.LBB33:
.LBB31:
	.loc 2 393 2
	addi	a0,a0,8
.LVL27:
	li	a1,-2
.LVL28:
.LBE31:
.LBE33:
	.loc 1 66 1
	sw	ra,12(sp)
	.cfi_offset 1, -4
.LBB34:
.LBB32:
	.loc 2 393 2
	call	atomic_and
.LVL29:
.LBE32:
.LBE34:
	.loc 1 70 5 is_stmt 1
	.loc 1 72 1 is_stmt 0
	lw	ra,12(sp)
	.cfi_restore 1
	.loc 1 70 19
	sw	s1,4(s0)
	.loc 1 71 5 is_stmt 1
	.loc 1 72 1 is_stmt 0
	lw	s0,8(sp)
	.cfi_restore 8
.LVL30:
	lw	s1,4(sp)
	.cfi_restore 9
.LVL31:
	li	a0,0
	addi	sp,sp,16
	.cfi_def_cfa_offset 0
	jr	ra
	.cfi_endproc
.LFE70:
	.size	k_work_init, .-k_work_init
	.section	.text.k_work_submit,"ax",@progbits
	.align	1
	.globl	k_work_submit
	.type	k_work_submit, @function
k_work_submit:
.LFB71:
	.loc 1 75 1 is_stmt 1
	.cfi_startproc
.LVL32:
	.loc 1 76 5
	mv	a1,a0
	lui	a0,%hi(g_work_queue_main)
.LVL33:
	addi	a0,a0,%lo(g_work_queue_main)
	tail	k_work_submit_to_queue
.LVL34:
	.cfi_endproc
.LFE71:
	.size	k_work_submit, .-k_work_submit
	.section	.text.k_delayed_work_init,"ax",@progbits
	.align	1
	.globl	k_delayed_work_init
	.type	k_delayed_work_init, @function
k_delayed_work_init:
.LFB73:
	.loc 1 94 1
	.cfi_startproc
.LVL35:
	.loc 1 95 5
	.loc 1 96 5
	.loc 1 94 1 is_stmt 0
	addi	sp,sp,-16
	.cfi_def_cfa_offset 16
	sw	ra,12(sp)
	sw	s0,8(sp)
	.cfi_offset 1, -4
	.cfi_offset 8, -8
	.loc 1 94 1
	mv	s0,a0
	.loc 1 96 5
	call	k_work_init
.LVL36:
	.loc 1 97 5 is_stmt 1
	lui	a1,%hi(work_timeout)
	mv	a2,s0
	addi	a0,s0,16
	addi	a1,a1,%lo(work_timeout)
	call	k_timer_init
.LVL37:
	.loc 1 98 5
	.loc 1 99 1 is_stmt 0
	lw	ra,12(sp)
	.cfi_restore 1
	.loc 1 98 18
	sw	zero,12(s0)
	.loc 1 99 1
	lw	s0,8(sp)
	.cfi_restore 8
.LVL38:
	addi	sp,sp,16
	.cfi_def_cfa_offset 0
	jr	ra
	.cfi_endproc
.LFE73:
	.size	k_delayed_work_init, .-k_delayed_work_init
	.section	.text.k_delayed_work_submit_periodic,"ax",@progbits
	.align	1
	.globl	k_delayed_work_submit_periodic
	.type	k_delayed_work_submit_periodic, @function
k_delayed_work_submit_periodic:
.LFB76:
	.loc 1 150 1 is_stmt 1
	.cfi_startproc
.LVL39:
	.loc 1 152 2
	.loc 1 153 1 is_stmt 0
	li	a0,0
.LVL40:
	ret
	.cfi_endproc
.LFE76:
	.size	k_delayed_work_submit_periodic, .-k_delayed_work_submit_periodic
	.section	.text.k_delayed_work_remaining_get,"ax",@progbits
	.align	1
	.globl	k_delayed_work_remaining_get
	.type	k_delayed_work_remaining_get, @function
k_delayed_work_remaining_get:
.LFB78:
	.loc 1 182 1 is_stmt 1
	.cfi_startproc
.LVL41:
	.loc 1 183 5
	.loc 1 184 5
	.loc 1 186 5
	.loc 1 186 8 is_stmt 0
	beq	a0,zero,.L22
	.loc 1 190 5 is_stmt 1
.LVL42:
	.loc 1 191 5
	.loc 1 182 1 is_stmt 0
	addi	sp,sp,-16
	.cfi_def_cfa_offset 16
	sw	ra,12(sp)
	sw	s0,8(sp)
	sw	s1,4(sp)
	.cfi_offset 1, -4
	.cfi_offset 8, -8
	.cfi_offset 9, -12
	.loc 1 191 19
	lw	s0,28(a0)
	.loc 1 191 50
	lw	s1,32(a0)
	.loc 1 191 32
	call	k_now_ms
.LVL43:
	.loc 1 192 5 is_stmt 1
	.loc 1 191 29 is_stmt 0
	add	s0,s0,s1
.LVL44:
	sub	a0,s0,a0
.LVL45:
	bge	a0,zero,.L19
	li	a0,0
.LVL46:
.L19:
	.loc 1 196 1
	lw	ra,12(sp)
	.cfi_restore 1
	lw	s0,8(sp)
	.cfi_restore 8
	lw	s1,4(sp)
	.cfi_restore 9
	addi	sp,sp,16
	.cfi_def_cfa_offset 0
	jr	ra
.LVL47:
.L22:
	.loc 1 187 16
	li	a0,0
.LVL48:
	.loc 1 196 1
	ret
	.cfi_endproc
.LFE78:
	.size	k_delayed_work_remaining_get, .-k_delayed_work_remaining_get
	.section	.text.k_delayed_work_del_timer,"ax",@progbits
	.align	1
	.globl	k_delayed_work_del_timer
	.type	k_delayed_work_del_timer, @function
k_delayed_work_del_timer:
.LFB79:
	.loc 1 199 1 is_stmt 1
	.cfi_startproc
.LVL49:
	.loc 1 200 5
	.loc 1 200 7 is_stmt 0
	beq	a0,zero,.L36
	.loc 1 200 20 discriminator 1
	lw	a5,16(a0)
	beq	a5,zero,.L36
	.loc 1 199 1
	addi	sp,sp,-16
	.cfi_def_cfa_offset 16
	sw	s0,8(sp)
	.cfi_offset 8, -8
	mv	s0,a0
	.loc 1 203 5 is_stmt 1
	addi	a0,a0,16
.LVL50:
	.loc 1 199 1 is_stmt 0
	sw	ra,12(sp)
	.cfi_offset 1, -4
	.loc 1 203 5
	call	k_timer_delete
.LVL51:
	.loc 1 204 5 is_stmt 1
	.loc 1 204 27 is_stmt 0
	sw	zero,16(s0)
	.loc 1 205 1
	lw	ra,12(sp)
	.cfi_restore 1
	lw	s0,8(sp)
	.cfi_restore 8
.LVL52:
	addi	sp,sp,16
	.cfi_def_cfa_offset 0
	jr	ra
.LVL53:
.L36:
	ret
	.cfi_endproc
.LFE79:
	.size	k_delayed_work_del_timer, .-k_delayed_work_del_timer
	.section	.text.add_timer_record,"ax",@progbits
	.align	1
	.globl	add_timer_record
	.type	add_timer_record, @function
add_timer_record:
.LFB83:
	.loc 1 239 1 is_stmt 1
	.cfi_startproc
.LVL54:
	.loc 1 240 5
.LBB39:
	.loc 1 240 9
	lui	a5,%hi(.LANCHOR0)
	.loc 1 242 65 is_stmt 0
	lw	a2,16(a0)
	addi	a3,a5,%lo(.LANCHOR0)
	addi	a4,a5,%lo(.LANCHOR0)
	addi	a1,a3,40
	addi	a5,a5,%lo(.LANCHOR0)
.LVL55:
.L41:
	.loc 1 242 9 is_stmt 1
	.loc 1 242 11 is_stmt 0
	lw	a6,0(a4)
	beq	a6,a2,.L44
	addi	a4,a4,8
	.loc 1 240 5 discriminator 2
	bne	a4,a1,.L41
.LBE39:
.LBB40:
.LBB41:
.LBB42:
	.loc 1 226 14
	li	a4,0
	.loc 1 226 6
	li	a1,5
.L43:
.LVL56:
	.loc 1 228 9 is_stmt 1
	.loc 1 228 11 is_stmt 0
	lw	a6,0(a3)
	bne	a6,zero,.L42
	.loc 1 230 13 is_stmt 1
	.loc 1 230 40 is_stmt 0
	slli	a4,a4,3
.LVL57:
	add	a5,a5,a4
	sw	a2,0(a5)
	.loc 1 231 13 is_stmt 1
	.loc 1 231 41 is_stmt 0
	sw	a0,4(a5)
	.loc 1 232 13 is_stmt 1
.L44:
.LBE42:
.LBE41:
.LBE40:
.LBB45:
	.loc 1 243 20 is_stmt 0
	li	a0,0
.LVL58:
.LBE45:
	.loc 1 247 1
	ret
.LVL59:
.L42:
.LBB46:
.LBB44:
.LBB43:
	.loc 1 226 229
	addi	a4,a4,1
.LVL60:
	addi	a3,a3,8
	.loc 1 226 6
	bne	a4,a1,.L43
.LBE43:
	.loc 1 235 12
	li	a0,-1
.LVL61:
	ret
.LBE44:
.LBE46:
	.cfi_endproc
.LFE83:
	.size	add_timer_record, .-add_timer_record
	.section	.text.remv_timer_record,"ax",@progbits
	.align	1
	.globl	remv_timer_record
	.type	remv_timer_record, @function
remv_timer_record:
.LFB84:
	.loc 1 250 1 is_stmt 1
	.cfi_startproc
.LVL62:
	.loc 1 251 5
.LBB47:
	.loc 1 251 9
	.loc 1 253 65 is_stmt 0
	lw	a1,16(a0)
	lui	a4,%hi(.LANCHOR0)
	addi	a3,a4,%lo(.LANCHOR0)
	.loc 1 251 13
	li	a5,0
	addi	a4,a4,%lo(.LANCHOR0)
	.loc 1 251 5
	li	a2,5
.LVL63:
.L50:
	.loc 1 253 9 is_stmt 1
	.loc 1 253 11 is_stmt 0
	lw	a0,0(a3)
	bne	a0,a1,.L48
	.loc 1 255 13 is_stmt 1
	.loc 1 255 40 is_stmt 0
	slli	a5,a5,3
.LVL64:
	add	a5,a4,a5
	sw	zero,0(a5)
	.loc 1 256 13 is_stmt 1
.L49:
.LBE47:
	.loc 1 260 5
	.loc 1 261 1 is_stmt 0
	li	a0,0
	ret
.LVL65:
.L48:
.LBB48:
	.loc 1 251 228 discriminator 2
	addi	a5,a5,1
.LVL66:
	addi	a3,a3,8
	.loc 1 251 5 discriminator 2
	bne	a5,a2,.L50
	j	.L49
.LBE48:
	.cfi_endproc
.LFE84:
	.size	remv_timer_record, .-remv_timer_record
	.section	.text.k_delayed_work_cancel,"ax",@progbits
	.align	1
	.globl	k_delayed_work_cancel
	.type	k_delayed_work_cancel, @function
k_delayed_work_cancel:
.LFB77:
	.loc 1 156 1 is_stmt 1
	.cfi_startproc
.LVL67:
	.loc 1 157 5
	.loc 1 158 5
	.loc 1 156 1 is_stmt 0
	addi	sp,sp,-16
	.cfi_def_cfa_offset 16
	sw	ra,12(sp)
	sw	s0,8(sp)
	sw	s1,4(sp)
	sw	s2,0(sp)
	.cfi_offset 1, -4
	.cfi_offset 8, -8
	.cfi_offset 9, -12
	.cfi_offset 18, -16
	.loc 1 156 1
	mv	s0,a0
	.loc 1 158 15
	call	irq_lock
.LVL68:
	mv	s2,a0
.LVL69:
	.loc 1 160 5 is_stmt 1
.LBB51:
.LBB52:
	.loc 2 331 2
	.loc 2 331 21 is_stmt 0
	addi	a0,s0,8
.LVL70:
	call	atomic_get
.LVL71:
	.loc 2 333 2 is_stmt 1
	.loc 2 333 12 is_stmt 0
	andi	s1,a0,1
.LVL72:
.LBE52:
.LBE51:
	.loc 1 160 8
	bne	s1,zero,.L54
	.loc 1 165 5 is_stmt 1
	.loc 1 165 8 is_stmt 0
	lw	a5,12(s0)
	beq	a5,zero,.L55
	.loc 1 170 5 is_stmt 1
	addi	a0,s0,16
	call	k_timer_stop
.LVL73:
	.loc 1 171 5
	mv	a0,s0
	call	remv_timer_record
.LVL74:
	.loc 1 172 5
	.loc 1 172 18 is_stmt 0
	sw	zero,12(s0)
	.loc 1 173 5 is_stmt 1
	.loc 1 173 25 is_stmt 0
	sw	zero,28(s0)
	.loc 1 174 5 is_stmt 1
	.loc 1 174 26 is_stmt 0
	sw	zero,32(s0)
.L53:
.LVL75:
	.loc 1 177 5 is_stmt 1
	mv	a0,s2
	call	irq_unlock
.LVL76:
	.loc 1 178 5
	.loc 1 179 1 is_stmt 0
	lw	ra,12(sp)
	.cfi_remember_state
	.cfi_restore 1
	lw	s0,8(sp)
	.cfi_restore 8
.LVL77:
	mv	a0,s1
	lw	s2,0(sp)
	.cfi_restore 18
.LVL78:
	lw	s1,4(sp)
	.cfi_restore 9
.LVL79:
	addi	sp,sp,16
	.cfi_def_cfa_offset 0
	jr	ra
.LVL80:
.L54:
	.cfi_restore_state
	.loc 1 161 13
	li	s1,-68
	j	.L53
.L55:
	.loc 1 166 13
	li	s1,-22
	j	.L53
	.cfi_endproc
.LFE77:
	.size	k_delayed_work_cancel, .-k_delayed_work_cancel
	.section	.text.k_delayed_work_submit,"ax",@progbits
	.align	1
	.globl	k_delayed_work_submit
	.type	k_delayed_work_submit, @function
k_delayed_work_submit:
.LFB75:
	.loc 1 144 1 is_stmt 1
	.cfi_startproc
.LVL81:
	.loc 1 145 5
	.loc 1 144 1 is_stmt 0
	addi	sp,sp,-48
	.cfi_def_cfa_offset 48
	sw	s1,36(sp)
	sw	s2,32(sp)
	sw	s3,28(sp)
	sw	s4,24(sp)
	.cfi_offset 9, -12
	.cfi_offset 18, -16
	.cfi_offset 19, -20
	.cfi_offset 20, -24
	mv	s1,a0
.LVL82:
.LBB55:
.LBB56:
	.loc 1 105 5 is_stmt 1
.LBE56:
.LBE55:
	.loc 1 144 1 is_stmt 0
	sw	a1,12(sp)
.LVL83:
	sw	ra,44(sp)
	sw	s0,40(sp)
	.cfi_offset 1, -4
	.cfi_offset 8, -8
.LBB59:
.LBB57:
	.loc 1 105 15
	call	irq_lock
.LVL84:
	.loc 1 109 13
	lw	a5,12(s1)
	lui	s2,%hi(g_work_queue_main)
	.loc 1 105 15
	mv	s4,a0
.LVL85:
	.loc 1 106 5 is_stmt 1
	.loc 1 109 5
	addi	s3,s2,%lo(g_work_queue_main)
	.loc 1 109 8 is_stmt 0
	lw	a1,12(sp)
	bne	a5,zero,.L58
.LVL86:
.L62:
	.loc 1 124 5 is_stmt 1
	.loc 1 124 18 is_stmt 0
	sw	s3,12(s1)
	.loc 1 125 5 is_stmt 1
	.loc 1 125 8 is_stmt 0
	beq	a1,zero,.L59
	.loc 1 131 9 is_stmt 1
	addi	a0,s1,16
	call	k_timer_start
.LVL87:
	.loc 1 132 9
	.loc 1 132 15 is_stmt 0
	mv	a0,s1
	call	add_timer_record
.LVL88:
	mv	s0,a0
.LVL89:
	.loc 1 133 9 is_stmt 1
	.loc 1 133 11 is_stmt 0
	beq	a0,zero,.L61
	.loc 1 133 33 is_stmt 1
	call	user_vAssertCalled
.LVL90:
	j	.L69
.LVL91:
.L58:
	sw	a1,12(sp)
.LVL92:
	.loc 1 110 13 is_stmt 0
	li	s0,-48
	.loc 1 109 22
	bne	a5,s3,.L61
	.loc 1 115 5 is_stmt 1
	.loc 1 116 9
	.loc 1 116 15 is_stmt 0
	mv	a0,s1
.LVL93:
	call	k_delayed_work_cancel
.LVL94:
	mv	s0,a0
.LVL95:
	.loc 1 118 9 is_stmt 1
	.loc 1 118 12 is_stmt 0
	lw	a1,12(sp)
	bge	a0,zero,.L62
.LVL96:
.L61:
	.loc 1 139 5 is_stmt 1
	mv	a0,s4
	call	irq_unlock
.LVL97:
	.loc 1 140 5
.LBE57:
.LBE59:
	.loc 1 146 1 is_stmt 0
	mv	a0,s0
	lw	ra,44(sp)
	.cfi_remember_state
	.cfi_restore 1
	lw	s0,40(sp)
	.cfi_restore 8
	lw	s1,36(sp)
	.cfi_restore 9
.LVL98:
	lw	s2,32(sp)
	.cfi_restore 18
	lw	s3,28(sp)
	.cfi_restore 19
	lw	s4,24(sp)
	.cfi_restore 20
.LVL99:
	addi	sp,sp,48
	.cfi_def_cfa_offset 0
	jr	ra
.LVL100:
.L59:
	.cfi_restore_state
.LBB60:
.LBB58:
	.loc 1 127 9 is_stmt 1
	mv	a1,s1
	addi	a0,s2,%lo(g_work_queue_main)
	call	k_work_submit_to_queue
.LVL101:
	.loc 1 128 9
	.loc 1 128 22 is_stmt 0
	sw	zero,12(s1)
.L69:
	.loc 1 136 9
	li	s0,0
	j	.L61
.LBE58:
.LBE60:
	.cfi_endproc
.LFE75:
	.size	k_delayed_work_submit, .-k_delayed_work_submit
	.section	.text.k_delayed_work_free,"ax",@progbits
	.align	1
	.globl	k_delayed_work_free
	.type	k_delayed_work_free, @function
k_delayed_work_free:
.LFB80:
	.loc 1 208 1 is_stmt 1
	.cfi_startproc
.LVL102:
	.loc 1 209 2
	.loc 1 208 1 is_stmt 0
	addi	sp,sp,-16
	.cfi_def_cfa_offset 16
	sw	ra,12(sp)
	sw	s0,8(sp)
	.cfi_offset 1, -4
	.cfi_offset 8, -8
	.loc 1 208 1
	mv	s0,a0
	.loc 1 209 2
	call	remv_timer_record
.LVL103:
	.loc 1 210 2 is_stmt 1
	mv	a0,s0
	call	k_delayed_work_del_timer
.LVL104:
	.loc 1 211 2
	.loc 1 212 1 is_stmt 0
	lw	ra,12(sp)
	.cfi_restore 1
	lw	s0,8(sp)
	.cfi_restore 8
.LVL105:
	li	a0,0
	addi	sp,sp,16
	.cfi_def_cfa_offset 0
	jr	ra
	.cfi_endproc
.LFE80:
	.size	k_delayed_work_free, .-k_delayed_work_free
	.section	.text.get_timer_record,"ax",@progbits
	.align	1
	.globl	get_timer_record
	.type	get_timer_record, @function
get_timer_record:
.LFB85:
	.loc 1 264 1 is_stmt 1
	.cfi_startproc
.LVL106:
	.loc 1 265 5
.LBB61:
	.loc 1 265 9
	lui	a5,%hi(.LANCHOR0)
	addi	a3,a5,%lo(.LANCHOR0)
	.loc 1 265 13 is_stmt 0
	li	a4,0
	addi	a5,a5,%lo(.LANCHOR0)
	.loc 1 265 5
	li	a2,5
.LVL107:
.L75:
	.loc 1 266 9 is_stmt 1
	.loc 1 266 11 is_stmt 0
	lw	a1,0(a3)
	bne	a1,a0,.L73
	.loc 1 267 13 is_stmt 1
	.loc 1 267 20 is_stmt 0
	slli	a0,a4,3
.LVL108:
	add	a0,a5,a0
	ret
.LVL109:
.L73:
	.loc 1 265 228 discriminator 2
	addi	a4,a4,1
.LVL110:
	addi	a3,a3,8
	.loc 1 265 5 discriminator 2
	bne	a4,a2,.L75
.LBE61:
	.loc 1 270 11
	li	a0,0
.LVL111:
	.loc 1 271 1
	ret
	.cfi_endproc
.LFE85:
	.size	get_timer_record, .-get_timer_record
	.section	.text.work_timeout,"ax",@progbits
	.align	1
	.type	work_timeout, @function
work_timeout:
.LFB72:
	.loc 1 80 1 is_stmt 1
	.cfi_startproc
.LVL112:
	.loc 1 81 5
	.loc 1 80 1 is_stmt 0
	addi	sp,sp,-16
	.cfi_def_cfa_offset 16
	sw	s1,4(sp)
	sw	ra,12(sp)
	sw	s0,8(sp)
	.cfi_offset 9, -12
	.cfi_offset 1, -4
	.cfi_offset 8, -8
	.loc 1 81 24
	call	get_timer_record
.LVL113:
	mv	s1,a0
.LVL114:
	.loc 1 82 5 is_stmt 1
	.loc 1 82 7 is_stmt 0
	bne	a0,zero,.L78
	.loc 1 82 13 is_stmt 1 discriminator 1
	call	user_vAssertCalled
.LVL115:
.L78:
	.loc 1 83 5
	.loc 1 83 28 is_stmt 0
	lw	s0,4(s1)
.LVL116:
	.loc 1 86 5 is_stmt 1
	addi	a0,s0,16
	call	k_timer_stop
.LVL117:
	.loc 1 87 5
	lw	a0,12(s0)
	mv	a1,s0
	call	k_work_submit_to_queue
.LVL118:
	.loc 1 89 5
	.loc 1 89 15 is_stmt 0
	sw	zero,12(s0)
	.loc 1 90 5 is_stmt 1
	.loc 1 90 20 is_stmt 0
	sw	zero,0(s1)
	.loc 1 91 1
	lw	ra,12(sp)
	.cfi_restore 1
	lw	s0,8(sp)
	.cfi_restore 8
.LVL119:
	lw	s1,4(sp)
	.cfi_restore 9
.LVL120:
	addi	sp,sp,16
	.cfi_def_cfa_offset 0
	jr	ra
	.cfi_endproc
.LFE72:
	.size	work_timeout, .-work_timeout
	.comm	g_work_queue_main,12,4
	.comm	work_q_thread,4,4
	.section	.bss.timer_records,"aw",@nobits
	.align	2
	.set	.LANCHOR0,. + 0
	.type	timer_records, @object
	.size	timer_records, 40
timer_records:
	.zero	40
	.section	.rodata.k_work_q_start.str1.4,"aMS",@progbits,1
	.align	2
.LC0:
	.string	"work_q_thread"
	.text
.Letext0:
	.file 3 "/b-l/bl_iot_sdk_new/toolchain/riscv/Linux/lib/gcc/riscv64-unknown-elf/8.3.0/include/stdint-gcc.h"
	.file 4 "/b-l/bl_iot_sdk_new/toolchain/riscv/Linux/lib/gcc/riscv64-unknown-elf/8.3.0/include/stddef.h"
	.file 5 "/b-l/bl_iot_sdk_new/components/network/ble/blestack/src/common/include/zephyr/types.h"
	.file 6 "/b-l/bl_iot_sdk_new/components/network/ble/blestack/src/common/include/misc/slist.h"
	.file 7 "/b-l/bl_iot_sdk_new/components/network/ble/blestack/src/common/include/misc/dlist.h"
	.file 8 "/b-l/bl_iot_sdk_new/toolchain/riscv/Linux/riscv64-unknown-elf/include/sys/_types.h"
	.file 9 "/b-l/bl_iot_sdk_new/toolchain/riscv/Linux/riscv64-unknown-elf/include/sys/reent.h"
	.file 10 "/b-l/bl_iot_sdk_new/toolchain/riscv/Linux/riscv64-unknown-elf/include/sys/lock.h"
	.file 11 "/b-l/bl_iot_sdk_new/components/network/ble/blestack/src/port/include/bl_port.h"
	.file 12 "/b-l/bl_iot_sdk_new/components/network/ble/blestack/src/common/include/work_q.h"
	.file 13 "/b-l/bl_iot_sdk_new/components/network/ble/blestack/src/port/include/zephyr.h"
	.file 14 "/b-l/bl_iot_sdk_new/components/network/ble/blestack/src/common/include/net/buf.h"
	.file 15 "/b-l/bl_iot_sdk_new/components/bl602/freertos_riscv_ram/portable/GCC/RISC-V/portmacro.h"
	.file 16 "/b-l/bl_iot_sdk_new/components/network/ble/blestack/src/common/log.h"