	.file	"bl_rx.c"
	.option nopic
	.attribute arch, "rv32i2p0_m2p0_f2p0_c2p0"
	.attribute unaligned_access, 0
	.attribute stack_align, 16
	.text
.Ltext0:
	.cfi_sections	.debug_frame
	.section	.text.bl_rx_chan_pre_switch_ind,"ax",@progbits
	.align	1
	.type	bl_rx_chan_pre_switch_ind, @function
bl_rx_chan_pre_switch_ind:
.LFB50:
	.file 1 "/b-l/bl_iot_sdk/components/bl602/bl602_wifidrv/bl60x_wifi_driver/bl_rx.c"
	.loc 1 257 1
	.cfi_startproc
.LVL0:
	.loc 1 259 5
	.loc 1 259 9
	.loc 1 260 5
	.loc 1 260 9
	.loc 1 261 5
	.loc 1 262 1 is_stmt 0
	li	a0,0
.LVL1:
	ret
	.cfi_endproc
.LFE50:
	.size	bl_rx_chan_pre_switch_ind, .-bl_rx_chan_pre_switch_ind
	.section	.text.bl_rx_rssi_status_ind,"ax",@progbits
	.align	1
	.type	bl_rx_rssi_status_ind, @function
bl_rx_rssi_status_ind:
.LFB58:
	.loc 1 322 1 is_stmt 1
	.cfi_startproc
.LVL2:
	.loc 1 323 5
	.loc 1 325 5
	.loc 1 325 9
	.loc 1 328 5
	.loc 1 328 9 is_stmt 0
	lui	a5,%hi(.LANCHOR0)
	lw	a5,%lo(.LANCHOR0)(a5)
	.loc 1 328 8
	beq	a5,zero,.L8
	.loc 1 329 9 is_stmt 1
	lui	a4,%hi(.LANCHOR1)
	lw	a0,%lo(.LANCHOR1)(a4)
.LVL3:
	lb	a1,10(a2)
.LVL4:
	.loc 1 322 1 is_stmt 0
	addi	sp,sp,-16
	.cfi_def_cfa_offset 16
	sw	ra,12(sp)
	.cfi_offset 1, -4
	.loc 1 329 9
	jalr	a5
.LVL5:
	.loc 1 332 5 is_stmt 1
	.loc 1 332 9
	.loc 1 333 5
	.loc 1 334 1 is_stmt 0
	lw	ra,12(sp)
	.cfi_restore 1
	li	a0,0
	addi	sp,sp,16
	.cfi_def_cfa_offset 0
	jr	ra
.LVL6:
.L8:
	.loc 1 332 5 is_stmt 1
	.loc 1 332 9
	.loc 1 333 5
	.loc 1 334 1 is_stmt 0
	li	a0,0
.LVL7:
	ret
	.cfi_endproc
.LFE58:
	.size	bl_rx_rssi_status_ind, .-bl_rx_rssi_status_ind
	.section	.text.bl_rx_apm_sta_del_ind,"ax",@progbits
	.align	1
	.type	bl_rx_apm_sta_del_ind, @function
bl_rx_apm_sta_del_ind:
.LFB75:
	.loc 1 870 1 is_stmt 1
	.cfi_startproc
.LVL8:
	.loc 1 871 5
	.loc 1 870 1 is_stmt 0
	addi	sp,sp,-16
	.cfi_def_cfa_offset 16
	sw	s1,4(sp)
	.cfi_offset 9, -12
	mv	s1,a0
	.loc 1 874 5
	lui	a0,%hi(.LC0)
.LVL9:
	addi	a0,a0,%lo(.LC0)
	.loc 1 870 1
	sw	ra,12(sp)
	sw	s0,8(sp)
	.cfi_offset 1, -4
	.cfi_offset 8, -8
	.loc 1 870 1
	mv	s0,a2
.LVL10:
	.loc 1 872 5 is_stmt 1
	.loc 1 874 5
	call	printf
.LVL11:
	.loc 1 875 5
	lbu	a1,8(s0)
	lui	a0,%hi(.LC1)
	addi	a0,a0,%lo(.LC1)
	call	printf
.LVL12:
	.loc 1 877 5
	.loc 1 877 12 is_stmt 0
	lbu	a0,8(s0)
	.loc 1 877 8
	li	a5,11
	bgtu	a0,a5,.L12
	.loc 1 878 9 is_stmt 1
.LVL13:
	.loc 1 879 9
	.loc 1 880 13
	.loc 1 882 9
	.loc 1 882 22 is_stmt 0
	li	a5,28
	mul	a0,a0,a5
.LVL14:
	add	s1,s1,a0
.LVL15:
	li	a0,4096
	add	a0,a0,s1
	sb	zero,-872(a0)
.LVL16:
.L13:
	.loc 1 886 5 is_stmt 1
	lbu	a2,8(s0)
	li	a1,22
	li	a0,2
	call	aos_post_event
.LVL17:
	.loc 1 888 5
	.loc 1 889 1 is_stmt 0
	lw	ra,12(sp)
	.cfi_remember_state
	.cfi_restore 1
	lw	s0,8(sp)
	.cfi_restore 8
.LVL18:
	lw	s1,4(sp)
	.cfi_restore 9
	li	a0,0
	addi	sp,sp,16
	.cfi_def_cfa_offset 0
	jr	ra
.LVL19:
.L12:
	.cfi_restore_state
	.loc 1 884 9 is_stmt 1
	lui	a0,%hi(.LC2)
	addi	a0,a0,%lo(.LC2)
	call	printf
.LVL20:
	j	.L13
	.cfi_endproc
.LFE75:
	.size	bl_rx_apm_sta_del_ind, .-bl_rx_apm_sta_del_ind
	.section	.text.bl_rx_apm_sta_add_ind,"ax",@progbits
	.align	1
	.type	bl_rx_apm_sta_add_ind, @function
bl_rx_apm_sta_add_ind:
.LFB74:
	.loc 1 827 1
	.cfi_startproc
.LVL21:
	.loc 1 828 5
	.loc 1 827 1 is_stmt 0
	addi	sp,sp,-32
	.cfi_def_cfa_offset 32
	sw	s3,12(sp)
	.cfi_offset 19, -20
	mv	s3,a0
	.loc 1 831 5
	lui	a0,%hi(.LC3)
.LVL22:
	addi	a0,a0,%lo(.LC3)
	.loc 1 827 1
	sw	ra,28(sp)
	sw	s0,24(sp)
	sw	s2,16(sp)
	.cfi_offset 1, -4
	.cfi_offset 8, -8
	.cfi_offset 18, -16
	mv	s0,a2
.LVL23:
	.loc 1 829 5 is_stmt 1
	.loc 1 831 5
	.loc 1 827 1 is_stmt 0
	sw	s1,20(sp)
	.cfi_offset 9, -12
	.loc 1 831 5
	call	printf
.LVL24:
	.loc 1 832 5 is_stmt 1
	lw	a1,8(s0)
	lui	a0,%hi(.LC4)
	addi	a0,a0,%lo(.LC4)
	call	printf
.LVL25:
	.loc 1 833 5
	lbu	a5,16(s0)
	lbu	a6,17(s0)
	lbu	a4,15(s0)
	lbu	a3,14(s0)
	lbu	a2,13(s0)
	lbu	a1,12(s0)
	lui	a0,%hi(.LC5)
	addi	a0,a0,%lo(.LC5)
	call	printf
.LVL26:
	.loc 1 841 5
	.loc 1 842 5
	.loc 1 843 5
	.loc 1 844 5
	.loc 1 846 5
	lbu	a1,18(s0)
	lui	a0,%hi(.LC6)
	addi	a0,a0,%lo(.LC6)
	call	printf
.LVL27:
	.loc 1 847 5
	lbu	a1,19(s0)
	lui	a0,%hi(.LC1)
	addi	a0,a0,%lo(.LC1)
	call	printf
.LVL28:
	.loc 1 848 5
	.loc 1 848 12 is_stmt 0
	lbu	s2,19(s0)
	.loc 1 848 8
	li	a5,11
	bgtu	s2,a5,.L16
	.loc 1 849 9 is_stmt 1
.LVL29:
	.loc 1 850 9
	.loc 1 851 13
	.loc 1 853 9
	.loc 1 853 29 is_stmt 0
	li	a0,28
	mul	s2,s2,a0
.LVL30:
	li	s1,4096
	addi	a0,s1,-880
	.loc 1 853 9
	li	a2,6
	addi	a1,s0,12
	.loc 1 853 29
	add	a0,s2,a0
	.loc 1 853 9
	add	a0,s3,a0
	call	memcpy
.LVL31:
	.loc 1 854 9 is_stmt 1
	.loc 1 854 27 is_stmt 0
	lbu	a5,19(s0)
	.loc 1 854 22
	add	a0,s3,s2
	add	a0,s1,a0
	sb	a5,-871(a0)
	.loc 1 855 9 is_stmt 1
	.loc 1 855 27 is_stmt 0
	lbu	a5,18(s0)
	.loc 1 855 22
	sb	a5,-870(a0)
	.loc 1 856 9 is_stmt 1
	.loc 1 856 22 is_stmt 0
	li	a5,1
	sb	a5,-872(a0)
	.loc 1 857 9 is_stmt 1
	.loc 1 857 24 is_stmt 0
	lb	a5,20(s0)
	.loc 1 857 19
	sb	a5,-868(a0)
	.loc 1 858 9 is_stmt 1
	.loc 1 858 25 is_stmt 0
	lw	a5,24(s0)
	.loc 1 858 20
	sw	a5,-864(a0)
	.loc 1 859 9 is_stmt 1
	.loc 1 859 25 is_stmt 0
	lw	a5,28(s0)
	.loc 1 859 20
	sw	a5,-860(a0)
	.loc 1 860 9 is_stmt 1
	.loc 1 860 29 is_stmt 0
	lbu	a5,32(s0)
	.loc 1 860 24
	sb	a5,-856(a0)
.L17:
	.loc 1 864 5 is_stmt 1
	lbu	a2,19(s0)
	li	a1,21
	li	a0,2
	call	aos_post_event
.LVL32:
	.loc 1 866 5
	.loc 1 867 1 is_stmt 0
	lw	ra,28(sp)
	.cfi_remember_state
	.cfi_restore 1
	lw	s0,24(sp)
	.cfi_restore 8
.LVL33:
	lw	s1,20(sp)
	.cfi_restore 9
	lw	s2,16(sp)
	.cfi_restore 18
	lw	s3,12(sp)
	.cfi_restore 19
.LVL34:
	li	a0,0
	addi	sp,sp,32
	.cfi_def_cfa_offset 0
	jr	ra
.LVL35:
.L16:
	.cfi_restore_state
	.loc 1 862 9 is_stmt 1
	lui	a0,%hi(.LC7)
	addi	a0,a0,%lo(.LC7)
	call	printf
.LVL36:
	j	.L17
	.cfi_endproc
.LFE74:
	.size	bl_rx_apm_sta_add_ind, .-bl_rx_apm_sta_add_ind
	.section	.text.notify_event_scan_done,"ax",@progbits
	.align	1
	.type	notify_event_scan_done, @function
notify_event_scan_done:
.LFB48:
	.loc 1 225 1
	.cfi_startproc
.LVL37:
	.loc 1 226 5
	.loc 1 227 5
	.loc 1 228 5
	.loc 1 230 5
	.loc 1 225 1 is_stmt 0
	addi	sp,sp,-32
	.cfi_def_cfa_offset 32
.LVL38:
	.loc 1 231 5 is_stmt 1
	.loc 1 232 5
	.loc 1 225 1 is_stmt 0
	sw	s0,24(sp)
	.loc 1 232 5
	li	a2,4
	.cfi_offset 8, -8
	.loc 1 225 1
	mv	s0,a0
	.loc 1 232 5
	li	a1,0
	addi	a0,sp,8
.LVL39:
	.loc 1 225 1
	sw	ra,28(sp)
	.cfi_offset 1, -4
	.loc 1 232 5
	call	memset
.LVL40:
	.loc 1 233 5 is_stmt 1
	li	a2,4
	li	a1,0
	addi	a0,sp,12
.LVL41:
	call	memset
.LVL42:
	.loc 1 235 5
	.loc 1 236 18 is_stmt 0
	li	a5,236
	sw	a5,12(sp)
	.loc 1 239 9
	lui	a5,%hi(.LANCHOR2)
	.loc 1 235 31
	snez	a0,s0
	.loc 1 239 9
	lw	a5,%lo(.LANCHOR2)(a5)
	.loc 1 235 31
	addi	a0,a0,1
	.loc 1 235 15
	sw	a0,8(sp)
	.loc 1 236 5 is_stmt 1
	.loc 1 239 5
	.loc 1 239 8 is_stmt 0
	beq	a5,zero,.L19
	.loc 1 240 9 is_stmt 1
	lui	a4,%hi(.LANCHOR3)
	lw	a0,%lo(.LANCHOR3)(a4)
	addi	a1,sp,8
.LVL43:
	jalr	a5
.LVL44:
.L19:
	.loc 1 242 1 is_stmt 0
	lw	ra,28(sp)
	.cfi_restore 1
	lw	s0,24(sp)
	.cfi_restore 8
.LVL45:
	addi	sp,sp,32
	.cfi_def_cfa_offset 0
.LVL46:
	jr	ra
	.cfi_endproc
.LFE48:
	.size	notify_event_scan_done, .-notify_event_scan_done
	.section	.text.bl_rx_scanu_join_cfm,"ax",@progbits
	.align	1
	.type	bl_rx_scanu_join_cfm, @function
bl_rx_scanu_join_cfm:
.LFB65:
	.loc 1 438 1 is_stmt 1
	.cfi_startproc
.LVL47:
	.loc 1 439 5
	.loc 1 438 1 is_stmt 0
	addi	sp,sp,-16
	.cfi_def_cfa_offset 16
	.loc 1 439 5
	li	a0,1
.LVL48:
	.loc 1 438 1
	sw	ra,12(sp)
	.cfi_offset 1, -4
	.loc 1 439 5
	call	notify_event_scan_done
.LVL49:
	.loc 1 441 5 is_stmt 1
	.loc 1 442 1 is_stmt 0
	lw	ra,12(sp)
	.cfi_restore 1
	li	a0,0
	addi	sp,sp,16
	.cfi_def_cfa_offset 0
	jr	ra
	.cfi_endproc
.LFE65:
	.size	bl_rx_scanu_join_cfm, .-bl_rx_scanu_join_cfm
	.section	.text.bl_rx_scanu_start_cfm,"ax",@progbits
	.align	1
	.type	bl_rx_scanu_start_cfm, @function
bl_rx_scanu_start_cfm:
.LFB64:
	.loc 1 415 1 is_stmt 1
	.cfi_startproc
.LVL50:
	.loc 1 416 5
	.loc 1 416 9
	.loc 1 431 5
	.loc 1 415 1 is_stmt 0
	addi	sp,sp,-16
	.cfi_def_cfa_offset 16
	.loc 1 431 5
	li	a0,0
.LVL51:
	.loc 1 415 1
	sw	ra,12(sp)
	.cfi_offset 1, -4
	.loc 1 431 5
	call	notify_event_scan_done
.LVL52:
	.loc 1 432 5 is_stmt 1
	.loc 1 432 9
	.loc 1 434 5
	.loc 1 435 1 is_stmt 0
	lw	ra,12(sp)
	.cfi_restore 1
	li	a0,0
	addi	sp,sp,16
	.cfi_def_cfa_offset 0
	jr	ra
	.cfi_endproc
.LFE64:
	.size	bl_rx_scanu_start_cfm, .-bl_rx_scanu_start_cfm
	.section	.text.bl_rx_chan_switch_ind,"ax",@progbits
	.align	1
	.type	bl_rx_chan_switch_ind, @function
bl_rx_chan_switch_ind:
.LFB49:
	.loc 1 246 1 is_stmt 1
	.cfi_startproc
.LVL53:
	.loc 1 247 5
	.loc 1 249 5
	.loc 1 249 9
	.loc 1 250 5
	.loc 1 246 1 is_stmt 0
	addi	sp,sp,-32
	.cfi_def_cfa_offset 32
	sw	ra,28(sp)
	sw	s0,24(sp)
	.cfi_offset 1, -4
	.cfi_offset 8, -8
	.loc 1 250 5
	lbu	s0,8(a2)
.LVL54:
.LBB12:
.LBB13:
	.loc 1 206 5 is_stmt 1
	.loc 1 207 5
	.loc 1 208 5
	.loc 1 210 5
	.loc 1 211 5
	.loc 1 212 5
	li	a1,0
.LVL55:
	li	a2,4
.LVL56:
	addi	a0,sp,8
.LVL57:
	call	memset
.LVL58:
	.loc 1 213 5
	li	a2,4
	li	a1,0
	addi	a0,sp,12
.LVL59:
	call	memset
.LVL60:
	.loc 1 215 5
	.loc 1 219 9 is_stmt 0
	lui	a5,%hi(.LANCHOR2)
	lw	a5,%lo(.LANCHOR2)(a5)
	.loc 1 215 15
	sw	zero,8(sp)
	.loc 1 216 5 is_stmt 1
	.loc 1 216 18 is_stmt 0
	sw	s0,12(sp)
	.loc 1 219 5 is_stmt 1
	.loc 1 219 8 is_stmt 0
	beq	a5,zero,.L32
	.loc 1 220 9 is_stmt 1
	lui	a4,%hi(.LANCHOR3)
	lw	a0,%lo(.LANCHOR3)(a4)
	addi	a1,sp,8
.LVL61:
	jalr	a5
.LVL62:
.L32:
.LBE13:
.LBE12:
	.loc 1 251 5
	.loc 1 251 9
	.loc 1 252 5
	.loc 1 253 1 is_stmt 0
	lw	ra,28(sp)
	.cfi_restore 1
	lw	s0,24(sp)
	.cfi_restore 8
	li	a0,0
	addi	sp,sp,32
	.cfi_def_cfa_offset 0
.LVL63:
	jr	ra
	.cfi_endproc
.LFE49:
	.size	bl_rx_chan_switch_ind, .-bl_rx_chan_switch_ind
	.section	.text.bl_rx_sm_connect_ind,"ax",@progbits
	.align	1
	.type	bl_rx_sm_connect_ind, @function
bl_rx_sm_connect_ind:
.LFB72:
	.loc 1 696 1 is_stmt 1
	.cfi_startproc
.LVL64:
	.loc 1 697 5
	.loc 1 698 5
	.loc 1 699 5
	.loc 1 700 5
	.loc 1 702 5
	.loc 1 703 5
	.loc 1 703 9
	.loc 1 705 5
.LBB14:
	.loc 1 705 9
.LBE14:
	.loc 1 696 1 is_stmt 0
	addi	sp,sp,-64
	.cfi_def_cfa_offset 64
	sw	s0,56(sp)
	sw	s1,52(sp)
	sw	s2,48(sp)
	sw	s3,44(sp)
	sw	ra,60(sp)
	.cfi_offset 8, -8
	.cfi_offset 9, -12
	.cfi_offset 18, -16
	.cfi_offset 19, -20
	.cfi_offset 1, -4
.LBB15:
	.loc 1 706 45
	lhu	a3,8(a2)
	lui	a5,%hi(.LANCHOR4)
	addi	a4,a5,%lo(.LANCHOR4)
	addi	s3,a5,%lo(.LANCHOR4)
.LBE15:
	.loc 1 696 1
	mv	s1,a0
	mv	s0,a2
.LBB16:
	.loc 1 705 13
	li	s2,0
	.loc 1 705 5
	li	a5,16
.LVL65:
.L39:
	.loc 1 706 9 is_stmt 1
	.loc 1 706 11 is_stmt 0
	lhu	a2,0(a4)
	beq	a2,a3,.L38
	.loc 1 705 67 discriminator 2
	addi	s2,s2,1
.LVL66:
	addi	a4,a4,8
	.loc 1 705 5 discriminator 2
	bne	s2,a5,.L39
.LBE16:
	.loc 1 700 9
	li	s2,0
.LVL67:
.L38:
	.loc 1 712 5 is_stmt 1
	lui	a0,%hi(.LC8)
.LVL68:
	addi	a0,a0,%lo(.LC8)
	call	printf
.LVL69:
	.loc 1 713 5
	lhu	a1,8(s0)
	lui	a0,%hi(.LC9)
	addi	a0,a0,%lo(.LC9)
	.loc 1 714 5 is_stmt 0
	slli	s2,s2,3
.LVL70:
	.loc 1 713 5
	call	printf
.LVL71:
	.loc 1 714 5 is_stmt 1
	add	s2,s3,s2
	lw	a1,4(s2)
	lui	a0,%hi(.LC10)
	addi	a0,a0,%lo(.LC10)
	call	printf
.LVL72:
	.loc 1 715 5
	lbu	a5,14(s0)
	lbu	a6,15(s0)
	lbu	a4,13(s0)
	lbu	a3,12(s0)
	lbu	a2,11(s0)
	lbu	a1,10(s0)
	lui	a0,%hi(.LC11)
	addi	a0,a0,%lo(.LC11)
	call	printf
.LVL73:
	.loc 1 723 5
	lbu	a1,17(s0)
	lui	a0,%hi(.LC12)
	addi	a0,a0,%lo(.LC12)
	call	printf
.LVL74:
	.loc 1 724 5
	lbu	a1,18(s0)
	lui	a0,%hi(.LC13)
	addi	a0,a0,%lo(.LC13)
	call	printf
.LVL75:
	.loc 1 725 5
	lbu	a1,19(s0)
	lui	a0,%hi(.LC14)
	addi	a0,a0,%lo(.LC14)
	call	printf
.LVL76:
	.loc 1 726 5
	lbu	a1,20(s0)
	lui	a0,%hi(.LC15)
	addi	a0,a0,%lo(.LC15)
	call	printf
.LVL77:
	.loc 1 727 5
	lbu	a1,21(s0)
	lui	a0,%hi(.LC16)
	addi	a0,a0,%lo(.LC16)
	call	printf
.LVL78:
	.loc 1 728 5
	lhu	a1,22(s0)
	lui	a0,%hi(.LC17)
	addi	a0,a0,%lo(.LC17)
	call	printf
.LVL79:
	.loc 1 729 5
	lhu	a1,24(s0)
	lui	a0,%hi(.LC18)
	addi	a0,a0,%lo(.LC18)
	call	printf
.LVL80:
	.loc 1 730 5
	lhu	a1,828(s0)
	lui	a0,%hi(.LC19)
	addi	a0,a0,%lo(.LC19)
	call	printf
.LVL81:
	.loc 1 731 5
	lbu	a1,830(s0)
	lui	a0,%hi(.LC20)
	addi	a0,a0,%lo(.LC20)
	call	printf
.LVL82:
	.loc 1 732 5
	lhu	a1,832(s0)
	lui	a0,%hi(.LC21)
	addi	a0,a0,%lo(.LC21)
	call	printf
.LVL83:
	.loc 1 733 5
	lbu	a1,834(s0)
	lui	a0,%hi(.LC22)
	addi	a0,a0,%lo(.LC22)
	call	printf
.LVL84:
	.loc 1 734 5
	lw	a1,836(s0)
	lui	a0,%hi(.LC23)
	addi	a0,a0,%lo(.LC23)
	call	printf
.LVL85:
	.loc 1 735 5
	lw	a1,840(s0)
	lui	a0,%hi(.LC24)
	addi	a0,a0,%lo(.LC24)
	call	printf
.LVL86:
	.loc 1 737 5
	.loc 1 737 8 is_stmt 0
	lhu	a5,8(s0)
	bne	a5,zero,.L40
	.loc 1 738 9 is_stmt 1
	.loc 1 738 29 is_stmt 0
	lbu	a4,18(s0)
	.loc 1 738 24
	li	a5,4096
	add	a5,s1,a5
	.loc 1 738 29
	sw	a4,-476(a5)
	.loc 1 739 9 is_stmt 1
	.loc 1 739 22 is_stmt 0
	li	a5,1
	sw	a5,0(s1)
.L41:
	.loc 1 743 5 is_stmt 1
	.loc 1 743 9
	.loc 1 745 5
	li	a2,32
	li	a1,0
	mv	a0,sp
	call	memset
.LVL87:
	.loc 1 746 5
	.loc 1 747 5
	.loc 1 748 5
	.loc 1 749 5
	.loc 1 750 5
	.loc 1 751 5
	.loc 1 752 5
	.loc 1 746 25 is_stmt 0
	lw	a5,8(s0)
	sw	a5,0(sp)
	.loc 1 749 22
	lw	a5,12(s0)
	sw	a5,4(sp)
	.loc 1 753 5 is_stmt 1
	.loc 1 753 21 is_stmt 0
	lbu	a5,17(s0)
	sb	a5,8(sp)
	.loc 1 754 5 is_stmt 1
	.loc 1 754 20 is_stmt 0
	lbu	a5,18(s0)
	sb	a5,9(sp)
	.loc 1 755 5 is_stmt 1
	.loc 1 755 20 is_stmt 0
	lbu	a5,19(s0)
	sb	a5,10(sp)
	.loc 1 756 5 is_stmt 1
	.loc 1 756 22 is_stmt 0
	lbu	a5,20(s0)
	sw	a5,12(sp)
	.loc 1 757 5 is_stmt 1
	.loc 1 757 17 is_stmt 0
	lhu	a5,828(s0)
	sh	a5,16(sp)
	.loc 1 758 5 is_stmt 1
	.loc 1 758 18 is_stmt 0
	lbu	a5,830(s0)
	sb	a5,18(sp)
	.loc 1 759 5 is_stmt 1
	.loc 1 759 25 is_stmt 0
	lhu	a5,832(s0)
	sh	a5,20(sp)
	.loc 1 760 5 is_stmt 1
	.loc 1 760 19 is_stmt 0
	lbu	a5,834(s0)
	sb	a5,22(sp)
	.loc 1 761 5 is_stmt 1
	.loc 1 761 26 is_stmt 0
	lw	a5,836(s0)
	sw	a5,24(sp)
	.loc 1 762 5 is_stmt 1
	.loc 1 762 26 is_stmt 0
	lw	a5,840(s0)
	sw	a5,28(sp)
	.loc 1 764 5 is_stmt 1
	.loc 1 764 9 is_stmt 0
	lui	a5,%hi(.LANCHOR5)
	lw	a5,%lo(.LANCHOR5)(a5)
	.loc 1 764 8
	beq	a5,zero,.L42
	.loc 1 765 9 is_stmt 1
	lui	a4,%hi(.LANCHOR6)
	lw	a0,%lo(.LANCHOR6)(a4)
	mv	a1,sp
	jalr	a5
.LVL88:
.L42:
	.loc 1 768 5
	.loc 1 768 8 is_stmt 0
	lhu	a5,8(s0)
	bne	a5,zero,.L43
	.loc 1 772 9 is_stmt 1
	.loc 1 772 40 is_stmt 0
	lbu	a5,17(s0)
	.loc 1 772 16
	li	a4,196
	.loc 1 774 13
	li	a2,0
	.loc 1 772 16
	mul	a5,a5,a4
	addi	a1,a5,864
	add	a1,s1,a1
.LVL89:
	.loc 1 773 9 is_stmt 1
	.loc 1 773 12 is_stmt 0
	beq	a1,zero,.L44
	.loc 1 773 29 discriminator 1
	add	s1,s1,a5
.LVL90:
	lw	a0,872(s1)
	.loc 1 773 20 discriminator 1
	beq	a0,zero,.L44
	.loc 1 774 13 is_stmt 1
	lui	a1,%hi(netif_set_link_up)
.LVL91:
	addi	a1,a1,%lo(netif_set_link_up)
	call	netifapi_netif_common
.LVL92:
	.loc 1 775 13
	lw	a0,872(s1)
	lui	a1,%hi(netif_set_default)
	li	a2,0
	addi	a1,a1,%lo(netif_set_default)
	call	netifapi_netif_common
.LVL93:
.L43:
	.loc 1 783 5
	.loc 1 784 1 is_stmt 0
	lw	ra,60(sp)
	.cfi_remember_state
	.cfi_restore 1
	lw	s0,56(sp)
	.cfi_restore 8
.LVL94:
	lw	s1,52(sp)
	.cfi_restore 9
	lw	s2,48(sp)
	.cfi_restore 18
	lw	s3,44(sp)
	.cfi_restore 19
	li	a0,0
	addi	sp,sp,64
	.cfi_def_cfa_offset 0
	jr	ra
.LVL95:
.L40:
	.cfi_restore_state
	.loc 1 741 9 is_stmt 1
	.loc 1 741 22 is_stmt 0
	sw	zero,0(s1)
	j	.L41
.LVL96:
.L44:
	.loc 1 777 13 discriminator 4
	lui	a0,%hi(.LC25)
	addi	a0,a0,%lo(.LC25)
	call	printf
.LVL97:
	j	.L43
	.cfi_endproc
.LFE72:
	.size	bl_rx_sm_connect_ind, .-bl_rx_sm_connect_ind
	.section	.text.bl_rx_sm_disconnect_ind,"ax",@progbits
	.align	1
	.type	bl_rx_sm_disconnect_ind, @function
bl_rx_sm_disconnect_ind:
.LFB73:
	.loc 1 789 1 is_stmt 1
	.cfi_startproc
.LVL98:
	.loc 1 790 5
	.loc 1 789 1 is_stmt 0
	addi	sp,sp,-32
	.cfi_def_cfa_offset 32
	sw	s1,20(sp)
	.cfi_offset 9, -12
	mv	s1,a0
	.loc 1 797 21
	lui	a0,%hi(.LC26)
.LVL99:
	addi	a0,a0,%lo(.LC26)
	.loc 1 789 1
	sw	ra,28(sp)
	sw	s0,24(sp)
	sw	s2,16(sp)
	.cfi_offset 1, -4
	.cfi_offset 8, -8
	.cfi_offset 18, -16
	.loc 1 789 1
	mv	s0,a2
.LVL100:
	.loc 1 791 5 is_stmt 1
	.loc 1 792 5
	.loc 1 793 5
	.loc 1 795 5
	.loc 1 795 9
	.loc 1 797 5
	.loc 1 797 21 is_stmt 0
	call	ipaddr_addr
.LVL101:
	.loc 1 798 5
	lhu	a1,8(s0)
	.loc 1 797 19
	sw	a0,4(sp)
	.loc 1 798 5 is_stmt 1
	lui	a0,%hi(.LC27)
	addi	a0,a0,%lo(.LC27)
	call	printf
.LVL102:
	.loc 1 800 5
	lbu	a1,10(s0)
	lui	a0,%hi(.LC28)
	addi	a0,a0,%lo(.LC28)
	call	printf
.LVL103:
	.loc 1 801 5
	lbu	a1,11(s0)
	lui	a0,%hi(.LC29)
	addi	a0,a0,%lo(.LC29)
	.loc 1 803 9 is_stmt 0
	lui	s2,%hi(.LANCHOR7)
	.loc 1 801 5
	call	printf
.LVL104:
	.loc 1 803 5 is_stmt 1
	.loc 1 803 9 is_stmt 0
	addi	s2,s2,%lo(.LANCHOR7)
	.loc 1 803 8
	lw	a5,0(s2)
	beq	a5,zero,.L57
	.loc 1 804 9 is_stmt 1
	li	a1,0
	li	a2,8
	addi	a0,sp,8
	call	memset
.LVL105:
	.loc 1 805 9
	.loc 1 805 29 is_stmt 0
	lhu	a5,8(s0)
	.loc 1 808 9
	lui	a4,%hi(.LANCHOR8)
	lw	a0,%lo(.LANCHOR8)(a4)
	.loc 1 805 29
	sh	a5,8(sp)
	.loc 1 806 9 is_stmt 1
	.loc 1 806 25 is_stmt 0
	lbu	a5,10(s0)
	.loc 1 808 9
	addi	a1,sp,8
	.loc 1 806 25
	sb	a5,10(sp)
	.loc 1 807 9 is_stmt 1
	.loc 1 807 33 is_stmt 0
	lbu	a5,11(s0)
	sw	a5,12(sp)
	.loc 1 808 9 is_stmt 1
	lw	a5,0(s2)
	jalr	a5
.LVL106:
.L57:
	.loc 1 812 5
	.loc 1 812 36 is_stmt 0
	lbu	a5,10(s0)
.LVL107:
	.loc 1 813 5 is_stmt 1
	.loc 1 812 12 is_stmt 0
	li	a4,196
	mul	a5,a5,a4
.LVL108:
	addi	a4,a5,864
	add	a4,s1,a4
	.loc 1 813 8
	beq	a4,zero,.L58
	.loc 1 813 25 discriminator 1
	add	s1,s1,a5
.LVL109:
	lw	a0,872(s1)
	.loc 1 813 16 discriminator 1
	beq	a0,zero,.L58
	.loc 1 814 9 is_stmt 1
	lui	a1,%hi(netif_set_link_down)
	li	a2,0
	addi	a1,a1,%lo(netif_set_link_down)
	call	netifapi_netif_common
.LVL110:
	.loc 1 815 9
	lw	a0,872(s1)
	addi	a3,sp,4
	mv	a2,a3
	mv	a1,a3
	call	netifapi_netif_set_addr
.LVL111:
.L58:
	.loc 1 817 5
	.loc 1 817 9
	.loc 1 818 5
	.loc 1 819 1 is_stmt 0
	lw	ra,28(sp)
	.cfi_restore 1
	lw	s0,24(sp)
	.cfi_restore 8
.LVL112:
	lw	s1,20(sp)
	.cfi_restore 9
	lw	s2,16(sp)
	.cfi_restore 18
	li	a0,0
	addi	sp,sp,32
	.cfi_def_cfa_offset 0
	jr	ra
	.cfi_endproc
.LFE73:
	.size	bl_rx_sm_disconnect_ind, .-bl_rx_sm_disconnect_ind
	.section	.text.bl_rx_scanu_result_ind,"ax",@progbits
	.align	1
	.type	bl_rx_scanu_result_ind, @function
bl_rx_scanu_result_ind:
.LFB69:
	.loc 1 508 1 is_stmt 1
	.cfi_startproc
.LVL113:
	.loc 1 509 5
	.loc 1 508 1 is_stmt 0
	addi	sp,sp,-128
	.cfi_def_cfa_offset 128
	sw	s0,120(sp)
	.loc 1 518 5
	li	a1,0
.LVL114:
	.cfi_offset 8, -8
	.loc 1 508 1
	mv	s0,a2
.LVL115:
	.loc 1 510 5 is_stmt 1
	.loc 1 511 5
	.loc 1 512 5
	.loc 1 513 5
	.loc 1 514 5
	.loc 1 515 5
	.loc 1 516 5
	.loc 1 518 5 is_stmt 0
	addi	a0,sp,8
.LVL116:
	li	a2,32
.LVL117:
	.loc 1 508 1
	sw	ra,124(sp)
	sw	s1,116(sp)
	sw	s2,112(sp)
	sw	s3,108(sp)
	sw	s4,104(sp)
	.cfi_offset 1, -4
	.cfi_offset 9, -12
	.cfi_offset 18, -16
	.cfi_offset 19, -20
	.cfi_offset 20, -24
	.loc 1 516 13
	sb	zero,7(sp)
	.loc 1 518 5 is_stmt 1
	call	memset
.LVL118:
	.loc 1 520 5
	.file 2 "/b-l/bl_iot_sdk/components/bl602/bl602_wifidrv/bl60x_wifi_driver/ieee80211.h"
	.loc 2 461 2
	lhu	a5,36(s0)
	.loc 1 520 8 is_stmt 0
	li	a4,128
	andi	a5,a5,252
.LVL119:
	bne	a5,a4,.L70
	.loc 1 521 9 is_stmt 1
	.loc 1 521 13 is_stmt 0
	lui	s3,%hi(.LANCHOR9)
	.loc 1 521 12
	lw	a5,%lo(.LANCHOR9)(s3)
	addi	s3,s3,%lo(.LANCHOR9)
	beq	a5,zero,.L72
	.loc 1 522 13 is_stmt 1
	li	a2,56
	li	a1,0
	addi	a0,sp,40
	call	memset
.LVL120:
	.loc 1 524 13
	.loc 1 525 31 is_stmt 0
	lhu	s1,8(s0)
	.loc 1 524 39
	addi	s4,s0,72
.LVL121:
	.loc 1 525 13 is_stmt 1
	.loc 1 527 13
.LBB25:
.LBB26:
	.loc 1 446 5
	.loc 1 448 5
	.loc 1 449 5
.LBE26:
.LBE25:
	.loc 1 527 13 is_stmt 0
	mv	s2,s4
.LBB29:
.LBB27:
	.loc 1 448 7
	li	a5,0
.LVL122:
.L73:
	.loc 1 449 11
	ble	s1,a5,.L75
	.loc 1 451 9 is_stmt 1
	.loc 1 451 12 is_stmt 0
	lbu	a4,0(s2)
	lbu	a2,1(s2)
	bne	a4,zero,.L74
	.loc 1 452 13 is_stmt 1
	.loc 1 452 16 is_stmt 0
	li	a5,32
.LVL123:
	bgtu	a2,a5,.L75
	.loc 1 455 13 is_stmt 1
	.loc 1 456 13 is_stmt 0
	addi	a1,s2,2
	addi	a0,sp,46
.LVL124:
	.loc 1 455 31
	sw	a2,92(sp)
	.loc 1 456 13 is_stmt 1
	call	memcpy
.LVL125:
	.loc 1 457 13
	.loc 1 457 26 is_stmt 0
	lbu	a5,1(s2)
	.loc 1 457 31
	addi	a4,sp,96
	add	a5,a4,a5
	sb	zero,-50(a5)
	.loc 1 458 13 is_stmt 1
.L75:
.LVL126:
.LBE27:
.LBE29:
	.loc 1 528 13
	lhu	a2,8(s0)
.LVL127:
	mv	a5,s4
.LBB30:
.LBB31:
	.loc 1 473 7 is_stmt 0
	li	a3,0
	.loc 1 476 12
	li	a1,3
.LVL128:
.L77:
	.loc 1 474 11
	ble	a2,a3,.L79
	.loc 1 476 9 is_stmt 1
	.loc 1 476 12 is_stmt 0
	lbu	a0,0(a5)
	lbu	a4,1(a5)
	bne	a0,a1,.L78
	.loc 1 477 13 is_stmt 1
	.loc 1 477 16 is_stmt 0
	li	a3,32
.LVL129:
	bgtu	a4,a3,.L79
	.loc 1 480 13 is_stmt 1
	.loc 1 480 21 is_stmt 0
	lbu	a5,2(a5)
.LVL130:
	sb	a5,82(sp)
	.loc 1 481 13 is_stmt 1
.L79:
.LVL131:
.LBE31:
.LBE30:
	.loc 1 529 13
	.loc 1 529 17 is_stmt 0
	lhu	a5,70(s0)
	.loc 1 529 16
	andi	a5,a5,16
	beq	a5,zero,.L81
	.loc 1 532 17 is_stmt 1
	.loc 1 532 29 is_stmt 0
	addi	s1,s1,-36
.LVL132:
	slli	s1,s1,16
.LVL133:
	srli	s1,s1,16
	mv	a1,s1
	li	a2,48
	mv	a0,s4
	call	mac_ie_find
.LVL134:
	mv	a1,a0
.LVL135:
	.loc 1 533 17 is_stmt 1
	.loc 1 515 13 is_stmt 0
	li	s2,0
	.loc 1 533 20
	beq	a0,zero,.L82
	.loc 1 534 21 is_stmt 1
	.loc 1 534 43 is_stmt 0
	lbu	a5,89(sp)
	ori	a5,a5,32
	sb	a5,89(sp)
	.loc 1 536 21 is_stmt 1
.LVL136:
.LBB33:
.LBB34:
	.loc 1 500 5
.LBE34:
.LBE33:
	.loc 1 537 21
	.loc 1 536 36 is_stmt 0
	lbu	a2,1(a0)
	.loc 1 537 21
	addi	a0,sp,8
.LVL137:
	.loc 1 536 36
	addi	a2,a2,2
	.loc 1 537 21
	andi	a2,a2,0xff
	call	memcpy
.LVL138:
	.loc 1 538 21 is_stmt 1
	.loc 1 538 38 is_stmt 0
	addi	a3,sp,7
	addi	a2,sp,88
	addi	a1,sp,87
	addi	a0,sp,8
	call	process_rsn_ie
.LVL139:
	mv	s2,a0
.LVL140:
.L82:
	.loc 1 543 17 is_stmt 1
	.loc 1 543 29 is_stmt 0
	lui	a2,%hi(.LC30)
	mv	a1,s1
	li	a3,4
	addi	a2,a2,%lo(.LC30)
	mv	a0,s4
	call	mac_vsie_find
.LVL141:
	mv	a1,a0
.LVL142:
	.loc 1 544 17 is_stmt 1
	.loc 1 544 20 is_stmt 0
	beq	a0,zero,.L84
	.loc 1 545 21 is_stmt 1
	.loc 1 545 42 is_stmt 0
	lbu	a5,89(sp)
	ori	a5,a5,8
	sb	a5,89(sp)
	.loc 1 547 21 is_stmt 1
	.loc 1 547 23 is_stmt 0
	bne	s2,zero,.L84
	.loc 1 549 25 is_stmt 1
.LVL143:
.LBB35:
.LBB36:
	.loc 1 500 5
.LBE36:
.LBE35:
	.loc 1 550 25
	.loc 1 549 40 is_stmt 0
	lbu	a2,1(a0)
	.loc 1 550 25
	addi	a0,sp,8
.LVL144:
	.loc 1 549 40
	addi	a2,a2,2
	.loc 1 550 25
	andi	a2,a2,0xff
	call	memcpy
.LVL145:
	.loc 1 551 25 is_stmt 1
	.loc 1 551 42 is_stmt 0
	addi	a2,sp,86
	addi	a1,sp,85
	addi	a0,sp,8
	call	process_wpa_ie
.LVL146:
.L84:
	.loc 1 555 17 is_stmt 1
	.loc 1 555 47 is_stmt 0
	lw	a4,88(sp)
	li	a5,12288
	addi	a5,a5,-2048
	and	a4,a4,a5
	.loc 1 555 20
	bne	a4,a5,.L86
	.loc 1 556 21 is_stmt 1
	.loc 1 557 21
	lbu	a3,86(sp)
	lbu	a5,88(sp)
	or	a5,a5,a3
	andi	a3,a5,8
.LVL147:
	.loc 1 561 21
	.loc 1 561 58 is_stmt 0
	andi	a5,a5,4
	beq	a5,zero,.L87
.LVL148:
.L125:
	.loc 1 562 25 is_stmt 1
	.loc 1 563 25
	.loc 1 566 44 is_stmt 0
	li	a5,3
	.loc 1 563 28
	beq	a3,zero,.L128
.L92:
.LVL149:
	.loc 1 564 29 is_stmt 1
	.loc 1 564 44 is_stmt 0
	li	a5,4
.LVL150:
.L128:
.L89:
	.loc 1 630 17 is_stmt 1
	.loc 1 566 44 is_stmt 0
	sb	a5,84(sp)
	.loc 1 630 20
	li	a5,12288
	addi	a5,a5,-2048
	bne	a4,a5,.L99
.L90:
	.loc 1 631 21 is_stmt 1
	.loc 1 631 34 is_stmt 0
	li	a5,4
.L129:
	.loc 1 633 34
	sb	a5,83(sp)
.L100:
	.loc 1 644 13 is_stmt 1
	.loc 1 644 26 is_stmt 0
	lbu	a5,32(s0)
	.loc 1 653 13
	lui	a4,%hi(.LANCHOR10)
	lw	a0,%lo(.LANCHOR10)(a4)
	.loc 1 644 26
	sb	a5,79(sp)
	.loc 1 645 13 is_stmt 1
	.loc 1 645 29 is_stmt 0
	lbu	a5,33(s0)
	.loc 1 653 13
	addi	a1,sp,40
	.loc 1 645 29
	sb	a5,80(sp)
	.loc 1 646 13 is_stmt 1
	.loc 1 646 29 is_stmt 0
	lbu	a5,34(s0)
	sb	a5,81(sp)
	.loc 1 647 13 is_stmt 1
	.loc 1 648 13
	.loc 1 649 13
	.loc 1 650 13
	.loc 1 651 13
	.loc 1 652 13
	.loc 1 647 30 is_stmt 0
	lhu	a5,52(s0)
	sh	a5,40(sp)
	.loc 1 649 30
	lhu	a5,54(s0)
	sh	a5,42(sp)
	.loc 1 651 30
	lhu	a5,56(s0)
	sh	a5,44(sp)
	.loc 1 653 13 is_stmt 1
	lw	a5,0(s3)
	jalr	a5
.LVL151:
.L72:
	.loc 1 664 5
	.loc 1 665 1 is_stmt 0
	lw	ra,124(sp)
	.cfi_remember_state
	.cfi_restore 1
	lw	s0,120(sp)
	.cfi_restore 8
.LVL152:
	lw	s1,116(sp)
	.cfi_restore 9
	lw	s2,112(sp)
	.cfi_restore 18
	lw	s3,108(sp)
	.cfi_restore 19
	lw	s4,104(sp)
	.cfi_restore 20
	li	a0,0
	addi	sp,sp,128
	.cfi_def_cfa_offset 0
	jr	ra
.LVL153:
.L74:
	.cfi_restore_state
.LBB37:
.LBB28:
	.loc 1 461 13 is_stmt 1
	.loc 1 461 28 is_stmt 0
	addi	a2,a2,2
	.loc 1 461 15
	add	a5,a5,a2
.LVL154:
	.loc 1 462 13 is_stmt 1
	.loc 1 462 20 is_stmt 0
	add	s2,s2,a2
.LVL155:
	j	.L73
.LVL156:
.L78:
.LBE28:
.LBE37:
.LBB38:
.LBB32:
	.loc 1 484 13 is_stmt 1
	.loc 1 484 28 is_stmt 0
	addi	a4,a4,2
	.loc 1 484 15
	add	a3,a3,a4
.LVL157:
	.loc 1 485 13 is_stmt 1
	.loc 1 485 20 is_stmt 0
	add	a5,a5,a4
.LVL158:
	j	.L77
.LVL159:
.L87:
.LBE32:
.LBE38:
	.loc 1 570 21 is_stmt 1
	.loc 1 570 24 is_stmt 0
	beq	a3,zero,.L90
	.loc 1 571 25 is_stmt 1
	.loc 1 571 62 is_stmt 0
	lw	a3,84(sp)
.LVL160:
	li	a5,134221824
	addi	a5,a5,-2048
	and	a5,a3,a5
	.loc 1 571 28
	beq	a5,zero,.L91
.LVL161:
.L93:
	.loc 1 572 29 is_stmt 1
	.loc 1 572 44 is_stmt 0
	li	a5,2
	j	.L128
.LVL162:
.L91:
	.loc 1 573 32 is_stmt 1
	.loc 1 573 68 is_stmt 0
	li	a5,67108864
	addi	a5,a5,1024
	and	a3,a3,a5
	.loc 1 573 34
	bne	a3,zero,.L92
	j	.L93
.LVL163:
.L86:
	.loc 1 579 24 is_stmt 1
	.loc 1 579 49 is_stmt 0
	lbu	a5,89(sp)
	.loc 1 579 27
	andi	a3,a5,8
	beq	a3,zero,.L94
	.loc 1 580 21 is_stmt 1
	.loc 1 581 21
	.loc 1 581 53 is_stmt 0
	lbu	a5,86(sp)
	andi	a3,a5,8
.LVL164:
	.loc 1 584 21 is_stmt 1
	.loc 1 584 24 is_stmt 0
	andi	a5,a5,4
	bne	a5,zero,.L125
	.loc 1 593 21 is_stmt 1
	.loc 1 593 24 is_stmt 0
	beq	a3,zero,.L99
	.loc 1 594 25 is_stmt 1
	.loc 1 594 57 is_stmt 0
	lbu	a5,85(sp)
.LVL165:
.L127:
	.loc 1 617 28
	andi	a3,a5,8
	bne	a3,zero,.L93
	.loc 1 619 32 is_stmt 1
	.loc 1 619 34 is_stmt 0
	andi	a5,a5,4
	bne	a5,zero,.L92
	j	.L93
.LVL166:
.L94:
	.loc 1 602 24 is_stmt 1
	.loc 1 602 27 is_stmt 0
	andi	a5,a5,32
	beq	a5,zero,.L97
	.loc 1 603 21 is_stmt 1
	.loc 1 604 21
	.loc 1 604 53 is_stmt 0
	lbu	a5,88(sp)
	andi	a3,a5,8
.LVL167:
	.loc 1 607 21 is_stmt 1
	.loc 1 607 24 is_stmt 0
	andi	a5,a5,4
	bne	a5,zero,.L125
	.loc 1 616 21 is_stmt 1
	.loc 1 616 24 is_stmt 0
	beq	a3,zero,.L99
	.loc 1 617 25 is_stmt 1
	.loc 1 617 57 is_stmt 0
	lbu	a5,87(sp)
	j	.L127
.LVL168:
.L97:
	.loc 1 626 21 is_stmt 1
	.loc 1 626 34 is_stmt 0
	li	a5,1
	.loc 1 627 21 is_stmt 1
	.loc 1 627 36 is_stmt 0
	sb	a5,84(sp)
	.loc 1 630 17 is_stmt 1
.LVL169:
.L99:
	.loc 1 632 24
	.loc 1 632 28 is_stmt 0
	lbu	a5,89(sp)
	.loc 1 632 27
	andi	a4,a5,32
	beq	a4,zero,.L101
	.loc 1 633 21 is_stmt 1
	.loc 1 633 34 is_stmt 0
	li	a5,3
	j	.L129
.L101:
	.loc 1 634 24 is_stmt 1
	.loc 1 634 27 is_stmt 0
	andi	a5,a5,8
	beq	a5,zero,.L102
	.loc 1 635 21 is_stmt 1
	.loc 1 635 34 is_stmt 0
	li	a5,2
	j	.L129
.L102:
	.loc 1 637 21 is_stmt 1
	.loc 1 637 34 is_stmt 0
	li	a5,1
	j	.L129
.LVL170:
.L81:
	.loc 1 641 17 is_stmt 1
	.loc 1 641 30 is_stmt 0
	sb	zero,83(sp)
	j	.L100
.LVL171:
.L70:
	.loc 1 655 12 is_stmt 1
	.loc 2 501 9
	.loc 1 655 15 is_stmt 0
	li	a4,80
	bne	a5,a4,.L103
	.loc 1 656 9 is_stmt 1
	lui	a0,%hi(.LC31)
	addi	a0,a0,%lo(.LC31)
	call	printf
.LVL172:
	.loc 1 657 9
	.loc 1 657 13 is_stmt 0
	lui	a5,%hi(.LANCHOR11)
	lw	a3,%lo(.LANCHOR11)(a5)
	.loc 1 657 12
	beq	a3,zero,.L72
	.loc 1 658 13 is_stmt 1
	.loc 1 658 54 is_stmt 0
	lhu	a4,62(s0)
	lhu	a5,66(s0)
	lhu	a1,60(s0)
	lhu	a2,64(s0)
	slli	a4,a4,16
	slli	a5,a5,16
	.loc 1 658 13
	or	a1,a4,a1
	or	a2,a5,a2
	li	a0,0
	jalr	a3
.LVL173:
	j	.L72
.L103:
	.loc 1 661 9 is_stmt 1
	lui	a0,%hi(.LC32)
	addi	a0,a0,%lo(.LC32)
	call	printf
.LVL174:
	j	.L72
	.cfi_endproc
.LFE69:
	.size	bl_rx_scanu_result_ind, .-bl_rx_scanu_result_ind
	.section	.text.bl_rx_mesh_path_update_ind,"ax",@progbits
	.align	1
	.type	bl_rx_mesh_path_update_ind, @function
bl_rx_mesh_path_update_ind:
.LFB116:
	.cfi_startproc
	li	a0,0
	ret
	.cfi_endproc
.LFE116:
	.size	bl_rx_mesh_path_update_ind, .-bl_rx_mesh_path_update_ind
	.section	.text.bl_rx_mesh_proxy_update_ind,"ax",@progbits
	.align	1
	.type	bl_rx_mesh_proxy_update_ind, @function
bl_rx_mesh_proxy_update_ind:
.LFB118:
	.cfi_startproc
	li	a0,0
	ret
	.cfi_endproc
.LFE118:
	.size	bl_rx_mesh_proxy_update_ind, .-bl_rx_mesh_proxy_update_ind
	.section	.text.bl_rx_remain_on_channel_exp_ind,"ax",@progbits
	.align	1
	.type	bl_rx_remain_on_channel_exp_ind, @function
bl_rx_remain_on_channel_exp_ind:
.LFB84:
	.cfi_startproc
	li	a0,0
	ret
	.cfi_endproc
.LFE84:
	.size	bl_rx_remain_on_channel_exp_ind, .-bl_rx_remain_on_channel_exp_ind
	.section	.text.bl_rx_ps_change_ind,"ax",@progbits
	.align	1
	.type	bl_rx_ps_change_ind, @function
bl_rx_ps_change_ind:
.LFB86:
	.cfi_startproc
	li	a0,0
	ret
	.cfi_endproc
.LFE86:
	.size	bl_rx_ps_change_ind, .-bl_rx_ps_change_ind
	.section	.text.bl_rx_traffic_req_ind,"ax",@progbits
	.align	1
	.type	bl_rx_traffic_req_ind, @function
bl_rx_traffic_req_ind:
.LFB88:
	.cfi_startproc
	li	a0,0
	ret
	.cfi_endproc
.LFE88:
	.size	bl_rx_traffic_req_ind, .-bl_rx_traffic_req_ind
	.section	.text.bl_rx_csa_counter_ind,"ax",@progbits
	.align	1
	.type	bl_rx_csa_counter_ind, @function
bl_rx_csa_counter_ind:
.LFB90:
	.cfi_startproc
	li	a0,0
	ret
	.cfi_endproc
.LFE90:
	.size	bl_rx_csa_counter_ind, .-bl_rx_csa_counter_ind
	.section	.text.bl_rx_csa_finish_ind,"ax",@progbits
	.align	1
	.type	bl_rx_csa_finish_ind, @function
bl_rx_csa_finish_ind:
.LFB92:
	.cfi_startproc
	li	a0,0
	ret
	.cfi_endproc
.LFE92:
	.size	bl_rx_csa_finish_ind, .-bl_rx_csa_finish_ind
	.section	.text.bl_rx_csa_traffic_ind,"ax",@progbits
	.align	1
	.type	bl_rx_csa_traffic_ind, @function
bl_rx_csa_traffic_ind:
.LFB94:
	.cfi_startproc
	li	a0,0
	ret
	.cfi_endproc
.LFE94:
	.size	bl_rx_csa_traffic_ind, .-bl_rx_csa_traffic_ind
	.section	.text.bl_rx_channel_survey_ind,"ax",@progbits
	.align	1
	.type	bl_rx_channel_survey_ind, @function
bl_rx_channel_survey_ind:
.LFB96:
	.cfi_startproc
	li	a0,0
	ret
	.cfi_endproc
.LFE96:
	.size	bl_rx_channel_survey_ind, .-bl_rx_channel_survey_ind
	.section	.text.bl_rx_dbg_error_ind,"ax",@progbits
	.align	1
	.type	bl_rx_dbg_error_ind, @function
bl_rx_dbg_error_ind:
.LFB98:
	.cfi_startproc
	li	a0,0
	ret
	.cfi_endproc
.LFE98:
	.size	bl_rx_dbg_error_ind, .-bl_rx_dbg_error_ind
	.section	.text.bl_rx_tdls_chan_switch_cfm,"ax",@progbits
	.align	1
	.type	bl_rx_tdls_chan_switch_cfm, @function
bl_rx_tdls_chan_switch_cfm:
.LFB100:
	.cfi_startproc
	li	a0,0
	ret
	.cfi_endproc
.LFE100:
	.size	bl_rx_tdls_chan_switch_cfm, .-bl_rx_tdls_chan_switch_cfm
	.section	.text.bl_rx_tdls_chan_switch_ind,"ax",@progbits
	.align	1
	.type	bl_rx_tdls_chan_switch_ind, @function
bl_rx_tdls_chan_switch_ind:
.LFB102:
	.cfi_startproc
	li	a0,0
	ret
	.cfi_endproc
.LFE102:
	.size	bl_rx_tdls_chan_switch_ind, .-bl_rx_tdls_chan_switch_ind
	.section	.text.bl_rx_tdls_chan_switch_base_ind,"ax",@progbits
	.align	1
	.type	bl_rx_tdls_chan_switch_base_ind, @function
bl_rx_tdls_chan_switch_base_ind:
.LFB104:
	.cfi_startproc
	li	a0,0
	ret
	.cfi_endproc
.LFE104:
	.size	bl_rx_tdls_chan_switch_base_ind, .-bl_rx_tdls_chan_switch_base_ind
	.section	.text.bl_rx_tdls_peer_ps_ind,"ax",@progbits
	.align	1
	.type	bl_rx_tdls_peer_ps_ind, @function
bl_rx_tdls_peer_ps_ind:
.LFB106:
	.cfi_startproc
	li	a0,0
	ret
	.cfi_endproc
.LFE106:
	.size	bl_rx_tdls_peer_ps_ind, .-bl_rx_tdls_peer_ps_ind
	.section	.text.bl_rx_me_tkip_mic_failure_ind,"ax",@progbits
	.align	1
	.type	bl_rx_me_tkip_mic_failure_ind, @function
bl_rx_me_tkip_mic_failure_ind:
.LFB108:
	.cfi_startproc
	li	a0,0
	ret
	.cfi_endproc
.LFE108:
	.size	bl_rx_me_tkip_mic_failure_ind, .-bl_rx_me_tkip_mic_failure_ind
	.section	.text.bl_rx_me_tx_credits_update_ind,"ax",@progbits
	.align	1
	.type	bl_rx_me_tx_credits_update_ind, @function
bl_rx_me_tx_credits_update_ind:
.LFB110:
	.cfi_startproc
	li	a0,0
	ret
	.cfi_endproc
.LFE110:
	.size	bl_rx_me_tx_credits_update_ind, .-bl_rx_me_tx_credits_update_ind
	.section	.text.bl_rx_mesh_path_create_cfm,"ax",@progbits
	.align	1
	.type	bl_rx_mesh_path_create_cfm, @function
bl_rx_mesh_path_create_cfm:
.LFB112:
	.cfi_startproc
	li	a0,0
	ret
	.cfi_endproc
.LFE112:
	.size	bl_rx_mesh_path_create_cfm, .-bl_rx_mesh_path_create_cfm
	.section	.text.bl_rx_mesh_peer_update_ind,"ax",@progbits
	.align	1
	.type	bl_rx_mesh_peer_update_ind, @function
bl_rx_mesh_peer_update_ind:
.LFB114:
	.cfi_startproc
	li	a0,0
	ret
	.cfi_endproc
.LFE114:
	.size	bl_rx_mesh_peer_update_ind, .-bl_rx_mesh_peer_update_ind
	.section	.text.bl_rx_sm_connect_ind_cb_register,"ax",@progbits
	.align	1
	.globl	bl_rx_sm_connect_ind_cb_register
	.type	bl_rx_sm_connect_ind_cb_register, @function
bl_rx_sm_connect_ind_cb_register:
.LFB33:
	.loc 1 85 1
	.cfi_startproc
.LVL175:
	.loc 1 86 5
	.loc 1 86 23 is_stmt 0
	lui	a5,%hi(.LANCHOR5)
	sw	a1,%lo(.LANCHOR5)(a5)
	.loc 1 87 5 is_stmt 1
	.loc 1 87 27 is_stmt 0
	lui	a5,%hi(.LANCHOR6)
	sw	a0,%lo(.LANCHOR6)(a5)
	.loc 1 89 5 is_stmt 1
	.loc 1 90 1 is_stmt 0
	li	a0,0
.LVL176:
	ret
	.cfi_endproc
.LFE33:
	.size	bl_rx_sm_connect_ind_cb_register, .-bl_rx_sm_connect_ind_cb_register
	.section	.text.bl_rx_sm_connect_ind_cb_unregister,"ax",@progbits
	.align	1
	.globl	bl_rx_sm_connect_ind_cb_unregister
	.type	bl_rx_sm_connect_ind_cb_unregister, @function
bl_rx_sm_connect_ind_cb_unregister:
.LFB34:
	.loc 1 94 1 is_stmt 1
	.cfi_startproc
.LVL177:
	.loc 1 95 5
	.loc 1 95 23 is_stmt 0
	lui	a5,%hi(.LANCHOR5)
	sw	zero,%lo(.LANCHOR5)(a5)
	.loc 1 96 5 is_stmt 1
	.loc 1 96 27 is_stmt 0
	lui	a5,%hi(.LANCHOR6)
	sw	zero,%lo(.LANCHOR6)(a5)
	.loc 1 98 5 is_stmt 1
	.loc 1 99 1 is_stmt 0
	li	a0,0
.LVL178:
	ret
	.cfi_endproc
.LFE34:
	.size	bl_rx_sm_connect_ind_cb_unregister, .-bl_rx_sm_connect_ind_cb_unregister
	.section	.text.bl_rx_sm_disconnect_ind_cb_register,"ax",@progbits
	.align	1
	.globl	bl_rx_sm_disconnect_ind_cb_register
	.type	bl_rx_sm_disconnect_ind_cb_register, @function
bl_rx_sm_disconnect_ind_cb_register:
.LFB35:
	.loc 1 102 1 is_stmt 1
	.cfi_startproc
.LVL179:
	.loc 1 103 5
	.loc 1 103 26 is_stmt 0
	lui	a5,%hi(.LANCHOR7)
	sw	a1,%lo(.LANCHOR7)(a5)
	.loc 1 104 5 is_stmt 1
	.loc 1 104 30 is_stmt 0
	lui	a5,%hi(.LANCHOR8)
	sw	a0,%lo(.LANCHOR8)(a5)
	.loc 1 106 5 is_stmt 1
	.loc 1 107 1 is_stmt 0
	li	a0,0
.LVL180:
	ret
	.cfi_endproc
.LFE35:
	.size	bl_rx_sm_disconnect_ind_cb_register, .-bl_rx_sm_disconnect_ind_cb_register
	.section	.text.bl_rx_sm_disconnect_ind_cb_unregister,"ax",@progbits
	.align	1
	.globl	bl_rx_sm_disconnect_ind_cb_unregister
	.type	bl_rx_sm_disconnect_ind_cb_unregister, @function
bl_rx_sm_disconnect_ind_cb_unregister:
.LFB36:
	.loc 1 111 1 is_stmt 1
	.cfi_startproc
.LVL181:
	.loc 1 112 5
	.loc 1 112 26 is_stmt 0
	lui	a5,%hi(.LANCHOR7)
	sw	zero,%lo(.LANCHOR7)(a5)
	.loc 1 113 5 is_stmt 1
	.loc 1 113 30 is_stmt 0
	lui	a5,%hi(.LANCHOR8)
	sw	zero,%lo(.LANCHOR8)(a5)
	.loc 1 115 5 is_stmt 1
	.loc 1 116 1 is_stmt 0
	li	a0,0
.LVL182:
	ret
	.cfi_endproc
.LFE36:
	.size	bl_rx_sm_disconnect_ind_cb_unregister, .-bl_rx_sm_disconnect_ind_cb_unregister
	.section	.text.bl_rx_beacon_ind_cb_register,"ax",@progbits
	.align	1
	.globl	bl_rx_beacon_ind_cb_register
	.type	bl_rx_beacon_ind_cb_register, @function
bl_rx_beacon_ind_cb_register:
.LFB37:
	.loc 1 119 1 is_stmt 1
	.cfi_startproc
.LVL183:
	.loc 1 120 5
	.loc 1 120 19 is_stmt 0
	lui	a5,%hi(.LANCHOR9)
	sw	a1,%lo(.LANCHOR9)(a5)
	.loc 1 121 5 is_stmt 1
	.loc 1 121 23 is_stmt 0
	lui	a5,%hi(.LANCHOR10)
	sw	a0,%lo(.LANCHOR10)(a5)
	.loc 1 123 5 is_stmt 1
	.loc 1 124 1 is_stmt 0
	li	a0,0
.LVL184:
	ret
	.cfi_endproc
.LFE37:
	.size	bl_rx_beacon_ind_cb_register, .-bl_rx_beacon_ind_cb_register
	.section	.text.bl_rx_beacon_ind_cb_unregister,"ax",@progbits
	.align	1
	.globl	bl_rx_beacon_ind_cb_unregister
	.type	bl_rx_beacon_ind_cb_unregister, @function
bl_rx_beacon_ind_cb_unregister:
.LFB38:
	.loc 1 128 1 is_stmt 1
	.cfi_startproc
.LVL185:
	.loc 1 129 5
	.loc 1 129 19 is_stmt 0
	lui	a5,%hi(.LANCHOR9)
	sw	zero,%lo(.LANCHOR9)(a5)
	.loc 1 130 5 is_stmt 1
	.loc 1 130 23 is_stmt 0
	lui	a5,%hi(.LANCHOR10)
	sw	zero,%lo(.LANCHOR10)(a5)
	.loc 1 132 5 is_stmt 1
	.loc 1 133 1 is_stmt 0
	li	a0,0
.LVL186:
	ret
	.cfi_endproc
.LFE38:
	.size	bl_rx_beacon_ind_cb_unregister, .-bl_rx_beacon_ind_cb_unregister
	.section	.text.bl_rx_probe_resp_ind_cb_register,"ax",@progbits
	.align	1
	.globl	bl_rx_probe_resp_ind_cb_register
	.type	bl_rx_probe_resp_ind_cb_register, @function
bl_rx_probe_resp_ind_cb_register:
.LFB39:
	.loc 1 136 1 is_stmt 1
	.cfi_startproc
.LVL187:
	.loc 1 137 5
	.loc 1 137 23 is_stmt 0
	lui	a5,%hi(.LANCHOR11)
	sw	a1,%lo(.LANCHOR11)(a5)
	.loc 1 138 5 is_stmt 1
	.loc 1 140 5
	.loc 1 141 1 is_stmt 0
	li	a0,0
.LVL188:
	ret
	.cfi_endproc
.LFE39:
	.size	bl_rx_probe_resp_ind_cb_register, .-bl_rx_probe_resp_ind_cb_register
	.section	.text.bl_rx_probe_resp_ind_cb_unregister,"ax",@progbits
	.align	1
	.globl	bl_rx_probe_resp_ind_cb_unregister
	.type	bl_rx_probe_resp_ind_cb_unregister, @function
bl_rx_probe_resp_ind_cb_unregister:
.LFB40:
	.loc 1 145 1 is_stmt 1
	.cfi_startproc
.LVL189:
	.loc 1 146 5
	.loc 1 146 23 is_stmt 0
	lui	a5,%hi(.LANCHOR11)
	sw	zero,%lo(.LANCHOR11)(a5)
	.loc 1 147 5 is_stmt 1
	.loc 1 149 5
	.loc 1 150 1 is_stmt 0
	li	a0,0
.LVL190:
	ret
	.cfi_endproc
.LFE40:
	.size	bl_rx_probe_resp_ind_cb_unregister, .-bl_rx_probe_resp_ind_cb_unregister
	.section	.text.bl_rx_pkt_cb_register,"ax",@progbits
	.align	1
	.globl	bl_rx_pkt_cb_register
	.type	bl_rx_pkt_cb_register, @function
bl_rx_pkt_cb_register:
.LFB41:
	.loc 1 154 1 is_stmt 1
	.cfi_startproc
.LVL191:
	.loc 1 155 5
	.loc 1 155 12 is_stmt 0
	lui	a5,%hi(.LANCHOR12)
	sw	a1,%lo(.LANCHOR12)(a5)
	.loc 1 156 5 is_stmt 1
	.loc 1 156 16 is_stmt 0
	lui	a5,%hi(.LANCHOR13)
	sw	a0,%lo(.LANCHOR13)(a5)
	.loc 1 158 5 is_stmt 1
	.loc 1 159 1 is_stmt 0
	li	a0,0
.LVL192:
	ret
	.cfi_endproc
.LFE41:
	.size	bl_rx_pkt_cb_register, .-bl_rx_pkt_cb_register
	.section	.text.bl_rx_pkt_cb_unregister,"ax",@progbits
	.align	1
	.globl	bl_rx_pkt_cb_unregister
	.type	bl_rx_pkt_cb_unregister, @function
bl_rx_pkt_cb_unregister:
.LFB42:
	.loc 1 163 1 is_stmt 1
	.cfi_startproc
.LVL193:
	.loc 1 164 5
	.loc 1 164 12 is_stmt 0
	lui	a5,%hi(.LANCHOR12)
	sw	zero,%lo(.LANCHOR12)(a5)
	.loc 1 165 5 is_stmt 1
	.loc 1 165 16 is_stmt 0
	lui	a5,%hi(.LANCHOR13)
	sw	zero,%lo(.LANCHOR13)(a5)
	.loc 1 167 5 is_stmt 1
	.loc 1 168 1 is_stmt 0
	li	a0,0
.LVL194:
	ret
	.cfi_endproc
.LFE42:
	.size	bl_rx_pkt_cb_unregister, .-bl_rx_pkt_cb_unregister
	.section	.text.bl_rx_rssi_cb_register,"ax",@progbits
	.align	1
	.globl	bl_rx_rssi_cb_register
	.type	bl_rx_rssi_cb_register, @function
bl_rx_rssi_cb_register:
.LFB43:
	.loc 1 172 1 is_stmt 1
	.cfi_startproc
.LVL195:
	.loc 1 173 5
	.loc 1 173 13 is_stmt 0
	lui	a5,%hi(.LANCHOR0)
	sw	a1,%lo(.LANCHOR0)(a5)
	.loc 1 174 5 is_stmt 1
	.loc 1 174 17 is_stmt 0
	lui	a5,%hi(.LANCHOR1)
	sw	a0,%lo(.LANCHOR1)(a5)
	.loc 1 176 5 is_stmt 1
	.loc 1 177 1 is_stmt 0
	li	a0,0
.LVL196:
	ret
	.cfi_endproc
.LFE43:
	.size	bl_rx_rssi_cb_register, .-bl_rx_rssi_cb_register
	.section	.text.bl_rx_rssi_cb_unregister,"ax",@progbits
	.align	1
	.globl	bl_rx_rssi_cb_unregister
	.type	bl_rx_rssi_cb_unregister, @function
bl_rx_rssi_cb_unregister:
.LFB44:
	.loc 1 180 1 is_stmt 1
	.cfi_startproc
.LVL197:
	.loc 1 181 5
	.loc 1 181 13 is_stmt 0
	lui	a5,%hi(.LANCHOR0)
	sw	zero,%lo(.LANCHOR0)(a5)
	.loc 1 182 5 is_stmt 1
	.loc 1 182 17 is_stmt 0
	lui	a5,%hi(.LANCHOR1)
	sw	zero,%lo(.LANCHOR1)(a5)
	.loc 1 184 5 is_stmt 1
	.loc 1 185 1 is_stmt 0
	li	a0,0
.LVL198:
	ret
	.cfi_endproc
.LFE44:
	.size	bl_rx_rssi_cb_unregister, .-bl_rx_rssi_cb_unregister
	.section	.text.bl_rx_event_register,"ax",@progbits
	.align	1
	.globl	bl_rx_event_register
	.type	bl_rx_event_register, @function
bl_rx_event_register:
.LFB45:
	.loc 1 189 1 is_stmt 1
	.cfi_startproc
.LVL199:
	.loc 1 190 5
	.loc 1 190 14 is_stmt 0
	lui	a5,%hi(.LANCHOR2)
	sw	a1,%lo(.LANCHOR2)(a5)
	.loc 1 191 5 is_stmt 1
	.loc 1 191 18 is_stmt 0
	lui	a5,%hi(.LANCHOR3)
	sw	a0,%lo(.LANCHOR3)(a5)
	.loc 1 193 5 is_stmt 1
	.loc 1 194 1 is_stmt 0
	li	a0,0
.LVL200:
	ret
	.cfi_endproc
.LFE45:
	.size	bl_rx_event_register, .-bl_rx_event_register
	.section	.text.bl_rx_event_unregister,"ax",@progbits
	.align	1
	.globl	bl_rx_event_unregister
	.type	bl_rx_event_unregister, @function
bl_rx_event_unregister:
.LFB46:
	.loc 1 197 1 is_stmt 1
	.cfi_startproc
.LVL201:
	.loc 1 198 5
	.loc 1 198 14 is_stmt 0
	lui	a5,%hi(.LANCHOR2)
	sw	zero,%lo(.LANCHOR2)(a5)
	.loc 1 199 5 is_stmt 1
	.loc 1 199 18 is_stmt 0
	lui	a5,%hi(.LANCHOR3)
	sw	zero,%lo(.LANCHOR3)(a5)
	.loc 1 201 5 is_stmt 1
	.loc 1 202 1 is_stmt 0
	li	a0,0
.LVL202:
	ret
	.cfi_endproc
.LFE46:
	.size	bl_rx_event_unregister, .-bl_rx_event_unregister
	.section	.text.bl_rx_handle_msg,"ax",@progbits
	.align	1
	.globl	bl_rx_handle_msg
	.type	bl_rx_handle_msg, @function
bl_rx_handle_msg:
.LFB80:
	.loc 1 947 1 is_stmt 1
	.cfi_startproc
.LVL203:
	.loc 1 949 5
	.loc 1 949 81 is_stmt 0
	lhu	a5,0(a1)
	.loc 1 949 5
	lw	t1,40(a0)
	addi	a0,a0,4
.LVL204:
	.loc 1 949 60
	srli	a4,a5,10
	.loc 1 949 58
	slli	a3,a4,2
	lui	a4,%hi(.LANCHOR14)
	addi	a4,a4,%lo(.LANCHOR14)
	add	a4,a4,a3
	.loc 1 949 5
	lw	a4,0(a4)
	.loc 1 949 107
	andi	a5,a5,1023
	.loc 1 949 5
	slli	a5,a5,2
	add	a5,a4,a5
	lw	a2,0(a5)
	jr	t1
.LVL205:
	.cfi_endproc
.LFE80:
	.size	bl_rx_handle_msg, .-bl_rx_handle_msg
	.section	.text.bl_rx_e2a_handler,"ax",@progbits
	.align	1
	.globl	bl_rx_e2a_handler
	.type	bl_rx_e2a_handler, @function
bl_rx_e2a_handler:
.LFB81:
	.loc 1 953 1 is_stmt 1
	.cfi_startproc
.LVL206:
	.loc 1 954 5
	.loc 1 955 5
	.loc 1 955 83 is_stmt 0
	lhu	a5,0(a0)
	.loc 1 953 1
	mv	a1,a0
	.loc 1 955 5
	lui	a0,%hi(wifi_hw+4)
.LVL207:
	.loc 1 955 62
	srli	a4,a5,10
	.loc 1 955 60
	slli	a3,a4,2
	lui	a4,%hi(.LANCHOR14)
	addi	a4,a4,%lo(.LANCHOR14)
	add	a4,a4,a3
	.loc 1 955 5
	lw	a4,0(a4)
	.loc 1 955 109
	andi	a5,a5,1023
	.loc 1 955 5
	slli	a5,a5,2
	add	a5,a4,a5
	.loc 1 955 20
	lui	a4,%hi(wifi_hw+40)
	.loc 1 955 5
	lw	t1,%lo(wifi_hw+40)(a4)
	lw	a2,0(a5)
	addi	a0,a0,%lo(wifi_hw+4)
	jr	t1
.LVL208:
	.cfi_endproc
.LFE81:
	.size	bl_rx_e2a_handler, .-bl_rx_e2a_handler
	.section	.text.bl_rx_pkt_cb,"ax",@progbits
	.align	1
	.globl	bl_rx_pkt_cb
	.type	bl_rx_pkt_cb, @function
bl_rx_pkt_cb:
.LFB82:
	.loc 1 959 1 is_stmt 1
	.cfi_startproc
.LVL209:
	.loc 1 960 5
	.loc 1 960 9 is_stmt 0
	lui	a5,%hi(.LANCHOR12)
	lw	t1,%lo(.LANCHOR12)(a5)
	.loc 1 959 1
	mv	a2,a1
	.loc 1 960 8
	beq	t1,zero,.L164
	.loc 1 961 9 is_stmt 1
	lui	a5,%hi(.LANCHOR13)
	mv	a1,a0
.LVL210:
	lw	a0,%lo(.LANCHOR13)(a5)
.LVL211:
	jr	t1
.LVL212:
.L164:
	.loc 1 963 1 is_stmt 0
	ret
	.cfi_endproc
.LFE82:
	.size	bl_rx_pkt_cb, .-bl_rx_pkt_cb
	.section	.rodata
	.align	2
.LC30:
	.string	""
	.string	"P\362\001"
	.section	.rodata.apm_hdlrs,"a"
	.align	2
	.type	apm_hdlrs, @object
	.size	apm_hdlrs, 60
apm_hdlrs:
	.zero	32
	.word	bl_rx_apm_sta_add_ind
	.word	bl_rx_apm_sta_del_ind
	.zero	20
	.section	.rodata.bl_rx_apm_sta_add_ind.str1.4,"aMS",@progbits,1
	.align	2
.LC3:
	.string	"[WF] APM_STA_ADD_IND\r\n"
	.zero	1
.LC4:
	.string	"[WF]    flags %08X\r\n"
	.zero	3
.LC5:
	.string	"[WF]    MAC %02X:%02X:%02X:%02X:%02X:%02X\r\n"
.LC6:
	.string	"[WF]    vif_idx %u\r\n"
	.zero	3
.LC7:
	.string	"[WF]    ------ Potential illegal sta_idx\r\n"
	.section	.rodata.bl_rx_apm_sta_del_ind.str1.4,"aMS",@progbits,1
	.align	2
.LC0:
	.string	"[WF] APM_STA_DEL_IND\r\n"
	.zero	1
.LC1:
	.string	"[WF]    sta_idx %u\r\n"
	.zero	3
.LC2:
	.string	"[WF]    --------- Potential illegal sta_idx\r\n"
	.section	.rodata.bl_rx_scanu_result_ind.str1.4,"aMS",@progbits,1
	.align	2
.LC31:
	.string	"Probe Response\r\n"
	.zero	3
.LC32:
	.string	"Bug Scan IND?\r\n"
	.section	.rodata.bl_rx_sm_connect_ind.str1.4,"aMS",@progbits,1
	.align	2
.LC8:
	.string	"[RX] Connection Status\r\n"
	.zero	3
.LC9:
	.string	"[RX]   status_code %u\r\n"
.LC10:
	.string	"[RX]   connect result: %s\r\n"
.LC11:
	.string	"[RX]   MAC %02X:%02X:%02X:%02X:%02X:%02X\r\n"
	.zero	1
.LC12:
	.string	"[RX]   vif_idx %u\r\n"
.LC13:
	.string	"[RX]   ap_idx %u\r\n"
	.zero	1
.LC14:
	.string	"[RX]   ch_idx %u\r\n"
	.zero	1
.LC15:
	.string	"[RX]   qos %u\r\n"
.LC16:
	.string	"[RX]   acm %u\r\n"
.LC17:
	.string	"[RX]   assoc_req_ie_len %u\r\n"
	.zero	3
.LC18:
	.string	"[RX]   assoc_rsp_ie_len %u\r\n"
	.zero	3
.LC19:
	.string	"[RX]   aid %u\r\n"
.LC20:
	.string	"[RX]   band %u\r\n"
	.zero	3
.LC21:
	.string	"[RX]   center_freq %u\r\n"
.LC22:
	.string	"[RX]   width %u\r\n"
	.zero	2
.LC23:
	.string	"[RX]   center_freq1 %u\r\n"
	.zero	3
.LC24:
	.string	"[RX]   center_freq2 %u\r\n"
	.zero	3
.LC25:
	.string	"[RX]  -------- CRITICAL when check netif. ptr is %p:%p\r\n"
	.section	.rodata.bl_rx_sm_disconnect_ind.str1.4,"aMS",@progbits,1
	.align	2
.LC26:
	.string	"0.0.0.0"
.LC27:
	.string	"[RX] sm_disconnect_ind\r\n       reason_code %u\r\n"
.LC28:
	.string	"[RX]    vif_idx %u\r\n"
	.zero	3
.LC29:
	.string	"[RX]     ft_over_ds %u\r\n"
	.section	.rodata.dbg_hdlrs,"a"
	.align	2
	.type	dbg_hdlrs, @object
	.size	dbg_hdlrs, 44
dbg_hdlrs:
	.zero	32
	.word	bl_rx_dbg_error_ind
	.zero	8
	.section	.rodata.me_hdlrs,"a"
	.align	2
	.type	me_hdlrs, @object
	.size	me_hdlrs, 68
me_hdlrs:
	.zero	24
	.word	bl_rx_me_tkip_mic_failure_ind
	.zero	16
	.word	bl_rx_me_tx_credits_update_ind
	.zero	20
	.section	.rodata.mesh_hdlrs,"a"
	.align	2
	.type	mesh_hdlrs, @object
	.size	mesh_hdlrs, 64
mesh_hdlrs:
	.zero	36
	.word	bl_rx_mesh_path_create_cfm
	.zero	12
	.word	bl_rx_mesh_peer_update_ind
	.word	bl_rx_mesh_path_update_ind
	.word	bl_rx_mesh_proxy_update_ind
	.section	.rodata.mm_hdlrs,"a"
	.align	2
	.type	mm_hdlrs, @object
	.size	mm_hdlrs, 384
mm_hdlrs:
	.zero	272
	.word	bl_rx_chan_switch_ind
	.word	bl_rx_chan_pre_switch_ind
	.zero	8
	.word	bl_rx_remain_on_channel_exp_ind
	.word	bl_rx_ps_change_ind
	.word	bl_rx_traffic_req_ind
	.zero	12
	.word	bl_rx_csa_counter_ind
	.word	bl_rx_channel_survey_ind
	.zero	28
	.word	bl_rx_rssi_status_ind
	.word	bl_rx_csa_finish_ind
	.word	bl_rx_csa_traffic_ind
	.zero	24
	.section	.rodata.msg_hdlrs,"a"
	.align	2
	.set	.LANCHOR14,. + 0
	.type	msg_hdlrs, @object
	.size	msg_hdlrs, 40
msg_hdlrs:
	.word	mm_hdlrs
	.word	dbg_hdlrs
	.zero	4
	.word	tdls_hdlrs
	.word	scan_hdlrs
	.word	me_hdlrs
	.word	sm_hdlrs
	.word	apm_hdlrs
	.zero	4
	.word	mesh_hdlrs
	.section	.rodata.reason_list,"a"
	.align	2
	.set	.LANCHOR4,. + 0
	.type	reason_list, @object
	.size	reason_list, 128
reason_list:
	.half	0
	.zero	2
	.word	.LC33
	.half	1
	.zero	2
	.word	.LC34
	.half	2
	.zero	2
	.word	.LC35
	.half	3
	.zero	2
	.word	.LC36
	.half	4
	.zero	2
	.word	.LC37
	.half	5
	.zero	2
	.word	.LC38
	.half	6
	.zero	2
	.word	.LC39
	.half	7
	.zero	2
	.word	.LC40
	.half	8
	.zero	2
	.word	.LC41
	.half	9
	.zero	2
	.word	.LC42
	.half	10
	.zero	2
	.word	.LC43
	.half	11
	.zero	2
	.word	.LC44
	.half	12
	.zero	2
	.word	.LC45
	.half	13
	.zero	2
	.word	.LC46
	.half	14
	.zero	2
	.word	.LC47
	.half	15
	.zero	2
	.word	.LC48
	.section	.rodata.scan_hdlrs,"a"
	.align	2
	.type	scan_hdlrs, @object
	.size	scan_hdlrs, 28
scan_hdlrs:
	.zero	4
	.word	bl_rx_scanu_start_cfm
	.zero	4
	.word	bl_rx_scanu_join_cfm
	.word	bl_rx_scanu_result_ind
	.zero	8
	.section	.rodata.sm_hdlrs,"a"
	.align	2
	.type	sm_hdlrs, @object
	.size	sm_hdlrs, 28
sm_hdlrs:
	.zero	8
	.word	bl_rx_sm_connect_ind
	.zero	8
	.word	bl_rx_sm_disconnect_ind
	.zero	4
	.section	.rodata.str1.4,"aMS",@progbits,1
	.align	2
.LC33:
	.string	"sm connect ind ok"
	.zero	2
.LC34:
	.string	"tx auth frame alloc failure"
.LC35:
	.string	"Authentication failure"
	.zero	1
.LC36:
	.string	"Auth response but auth algo failure"
.LC37:
	.string	"tx assoc frame alloc failure"
	.zero	3
.LC38:
	.string	"Association failure"
.LC39:
	.string	"deauth by AP but state error"
	.zero	3
.LC40:
	.string	"deauth by AP when connecting"
	.zero	3
.LC41:
	.string	"Passwd error, 4-way handshake timeout"
	.zero	2
.LC42:
	.string	"Passwd error, tx deauth frame transmit failure"
	.zero	1
.LC43:
	.string	"Passwd error, tx deauth frame allocate failure"
	.zero	1
.LC44:
	.string	"tx auth or associate frame transmit failure"
.LC45:
	.string	"SSID error, scan no bssid and channel"
	.zero	2
.LC46:
	.string	"create channel context failure when join network"
	.zero	3
.LC47:
	.string	"join network failure"
	.zero	3
.LC48:
	.string	"add sta failure"
	.section	.rodata.tdls_hdlrs,"a"
	.align	2
	.type	tdls_hdlrs, @object
	.size	tdls_hdlrs, 36
tdls_hdlrs:
	.zero	4
	.word	bl_rx_tdls_chan_switch_cfm
	.word	bl_rx_tdls_chan_switch_ind
	.word	bl_rx_tdls_chan_switch_base_ind
	.zero	8
	.word	bl_rx_tdls_peer_ps_ind
	.zero	8
	.section	.sbss.cb_beacon_ind,"aw",@nobits
	.align	2
	.set	.LANCHOR9,. + 0
	.type	cb_beacon_ind, @object
	.size	cb_beacon_ind, 4
cb_beacon_ind:
	.zero	4
	.section	.sbss.cb_beacon_ind_env,"aw",@nobits
	.align	2
	.set	.LANCHOR10,. + 0
	.type	cb_beacon_ind_env, @object
	.size	cb_beacon_ind_env, 4
cb_beacon_ind_env:
	.zero	4
	.section	.sbss.cb_event,"aw",@nobits
	.align	2
	.set	.LANCHOR2,. + 0
	.type	cb_event, @object
	.size	cb_event, 4
cb_event:
	.zero	4
	.section	.sbss.cb_event_env,"aw",@nobits
	.align	2
	.set	.LANCHOR3,. + 0
	.type	cb_event_env, @object
	.size	cb_event_env, 4
cb_event_env:
	.zero	4
	.section	.sbss.cb_pkt,"aw",@nobits
	.align	2
	.set	.LANCHOR12,. + 0
	.type	cb_pkt, @object
	.size	cb_pkt, 4
cb_pkt:
	.zero	4
	.section	.sbss.cb_pkt_env,"aw",@nobits
	.align	2
	.set	.LANCHOR13,. + 0
	.type	cb_pkt_env, @object
	.size	cb_pkt_env, 4
cb_pkt_env:
	.zero	4
	.section	.sbss.cb_probe_resp_ind,"aw",@nobits
	.align	2
	.set	.LANCHOR11,. + 0
	.type	cb_probe_resp_ind, @object
	.size	cb_probe_resp_ind, 4
cb_probe_resp_ind:
	.zero	4
	.section	.sbss.cb_rssi,"aw",@nobits
	.align	2
	.set	.LANCHOR0,. + 0
	.type	cb_rssi, @object
	.size	cb_rssi, 4
cb_rssi:
	.zero	4
	.section	.sbss.cb_rssi_env,"aw",@nobits
	.align	2
	.set	.LANCHOR1,. + 0
	.type	cb_rssi_env, @object
	.size	cb_rssi_env, 4
cb_rssi_env:
	.zero	4
	.section	.sbss.cb_sm_connect_ind,"aw",@nobits
	.align	2
	.set	.LANCHOR5,. + 0
	.type	cb_sm_connect_ind, @object
	.size	cb_sm_connect_ind, 4
cb_sm_connect_ind:
	.zero	4
	.section	.sbss.cb_sm_connect_ind_env,"aw",@nobits
	.align	2
	.set	.LANCHOR6,. + 0
	.type	cb_sm_connect_ind_env, @object
	.size	cb_sm_connect_ind_env, 4
cb_sm_connect_ind_env:
	.zero	4
	.section	.sbss.cb_sm_disconnect_ind,"aw",@nobits
	.align	2
	.set	.LANCHOR7,. + 0
	.type	cb_sm_disconnect_ind, @object
	.size	cb_sm_disconnect_ind, 4
cb_sm_disconnect_ind:
	.zero	4
	.section	.sbss.cb_sm_disconnect_ind_env,"aw",@nobits
	.align	2
	.set	.LANCHOR8,. + 0
	.type	cb_sm_disconnect_ind_env, @object
	.size	cb_sm_disconnect_ind_env, 4
cb_sm_disconnect_ind_env:
	.zero	4
	.text
.Letext0:
	.file 3 "/b-l/bl_iot_sdk/toolchain/riscv/Linux/riscv64-unknown-elf/include/machine/_default_types.h"
	.file 4 "/b-l/bl_iot_sdk/toolchain/riscv/Linux/lib/gcc/riscv64-unknown-elf/8.3.0/include/stddef.h"
	.file 5 "/b-l/bl_iot_sdk/toolchain/riscv/Linux/riscv64-unknown-elf/include/sys/_types.h"
	.file 6 "/b-l/bl_iot_sdk/toolchain/riscv/Linux/riscv64-unknown-elf/include/sys/reent.h"
	.file 7 "/b-l/bl_iot_sdk/toolchain/riscv/Linux/riscv64-unknown-elf/include/sys/lock.h"
	.file 8 "/b-l/bl_iot_sdk/toolchain/riscv/Linux/riscv64-unknown-elf/include/sys/_stdint.h"
	.file 9 "/b-l/bl_iot_sdk/components/network/lwip/lwip-port/arch/cc.h"
	.file 10 "/b-l/bl_iot_sdk/toolchain/riscv/Linux/riscv64-unknown-elf/include/stdlib.h"
	.file 11 "/b-l/bl_iot_sdk/toolchain/riscv/Linux/riscv64-unknown-elf/include/ctype.h"
	.file 12 "/b-l/bl_iot_sdk/components/network/lwip/src/include/lwip/ip4_addr.h"
	.file 13 "/b-l/bl_iot_sdk/components/network/lwip/src/include/lwip/ip_addr.h"
	.file 14 "/b-l/bl_iot_sdk/components/network/lwip/src/include/lwip/inet.h"
	.file 15 "/b-l/bl_iot_sdk/components/network/lwip/src/include/lwip/err.h"
	.file 16 "/b-l/bl_iot_sdk/components/bl602/freertos_riscv_ram/portable/GCC/RISC-V/portmacro.h"
	.file 17 "/b-l/bl_iot_sdk/components/bl602/freertos_riscv_ram/config/FreeRTOS.h"
	.file 18 "/b-l/bl_iot_sdk/components/bl602/freertos_riscv_ram/config/queue.h"
	.file 19 "/b-l/bl_iot_sdk/components/bl602/freertos_riscv_ram/config/semphr.h"
	.file 20 "/b-l/bl_iot_sdk/components/network/lwip/lwip-port/arch/sys_arch.h"
	.file 21 "/b-l/bl_iot_sdk/components/network/lwip/src/include/lwip/pbuf.h"
	.file 22 "/b-l/bl_iot_sdk/components/network/lwip/src/include/lwip/mem.h"
	.file 23 "/b-l/bl_iot_sdk/components/network/lwip/src/include/lwip/priv/memp_priv.h"
	.file 24 "/b-l/bl_iot_sdk/components/network/lwip/src/include/lwip/stats.h"
	.file 25 "/b-l/bl_iot_sdk/components/network/lwip/src/include/lwip/memp.h"
	.file 26 "/b-l/bl_iot_sdk/components/network/lwip/src/include/lwip/netif.h"
	.file 27 "/b-l/bl_iot_sdk/components/network/lwip/src/include/lwip/prot/ip4.h"
	.file 28 "/b-l/bl_iot_sdk/components/network/lwip/src/include/lwip/ip.h"
	.file 29 "/b-l/bl_iot_sdk/components/network/lwip/src/include/lwip/udp.h"
	.file 30 "/b-l/bl_iot_sdk/components/network/lwip/src/include/lwip/timeouts.h"
	.file 31 "/b-l/bl_iot_sdk/components/network/lwip/src/include/lwip/tcpip.h"
	.file 32 "/b-l/bl_iot_sdk/components/bl602/bl602_wifidrv/bl60x_wifi_driver/bl_main.h"
	.file 33 "/b-l/bl_iot_sdk/components/bl602/bl602_wifidrv/bl60x_wifi_driver/lmac_types.h"
	.file 34 "/b-l/bl_iot_sdk/components/bl602/bl602_wifidrv/bl60x_wifi_driver/lmac_mac.h"
	.file 35 "/b-l/bl_iot_sdk/components/bl602/bl602_wifidrv/bl60x_wifi_driver/ipc_shared.h"
	.file 36 "/b-l/bl_iot_sdk/components/bl602/bl602_wifidrv/bl60x_wifi_driver/ipc_host.h"
	.file 37 "/b-l/bl_iot_sdk/components/bl602/bl602_wifidrv/bl60x_wifi_driver/list.h"
	.file 38 "/b-l/bl_iot_sdk/components/bl602/bl602_wifidrv/bl60x_wifi_driver/lmac_msg.h"
	.file 39 "/b-l/bl_iot_sdk/components/bl602/bl602_wifidrv/bl60x_wifi_driver/os_hal.h"
	.file 40 "/b-l/bl_iot_sdk/components/bl602/bl602_wifidrv/bl60x_wifi_driver/bl_cmds.h"
	.file 41 "/b-l/bl_iot_sdk/components/bl602/bl602_wifidrv/bl60x_wifi_driver/bl_defs.h"
	.file 42 "/b-l/bl_iot_sdk/components/bl602/bl602_wifidrv/bl60x_wifi_driver/cfg80211.h"
	.file 43 "/b-l/bl_iot_sdk/components/bl602/bl602_wifidrv/bl60x_wifi_driver/bl_mod_params.h"
	.file 44 "/b-l/bl_iot_sdk/components/bl602/bl602_wifidrv/bl60x_wifi_driver/bl_rx.h"
	.file 45 "/b-l/bl_iot_sdk/toolchain/riscv/Linux/riscv64-unknown-elf/include/stdio.h"
	.file 46 "/b-l/bl_iot_sdk/components/stage/yloop/include/aos/yloop.h"
	.file 47 "/b-l/bl_iot_sdk/toolchain/riscv/Linux/riscv64-unknown-elf/include/string.h"
	.file 48 "/b-l/bl_iot_sdk/components/network/lwip/src/include/lwip/netifapi.h"