	.file	"bl_tx.c"
	.option nopic
	.attribute arch, "rv32i2p0_m2p0_f2p0_c2p0"
	.attribute unaligned_access, 0
	.attribute stack_align, 16
	.text
.Ltext0:
	.cfi_sections	.debug_frame
	.section	.text.bl_tx_push,"ax",@progbits
	.align	1
	.globl	bl_tx_push
	.type	bl_tx_push, @function
bl_tx_push:
.LFB51:
	.file 1 "/b-l/bl_iot_sdk/components/bl602/bl602_wifidrv/bl60x_wifi_driver/bl_tx.c"
	.loc 1 50 1
	.cfi_startproc
.LVL0:
	addi	sp,sp,-32
	.cfi_def_cfa_offset 32
	sw	s0,24(sp)
	sw	s1,20(sp)
	sw	s2,16(sp)
	sw	s3,12(sp)
	sw	ra,28(sp)
	sw	s4,8(sp)
	.cfi_offset 8, -8
	.cfi_offset 9, -12
	.cfi_offset 18, -16
	.cfi_offset 19, -20
	.cfi_offset 1, -4
	.cfi_offset 20, -24
	.loc 1 50 1 is_stmt 0
	mv	s2,a0
	.loc 1 51 5 is_stmt 1
	.loc 1 52 5
	.loc 1 54 14 is_stmt 0
	lw	a0,52(a0)
.LVL1:
	.loc 1 50 1
	mv	s0,a1
	.loc 1 52 15
	lw	s4,8(a1)
.LVL2:
	.loc 1 54 5 is_stmt 1
	.loc 1 54 14 is_stmt 0
	call	ipc_host_txdesc_get
.LVL3:
	.loc 1 54 10
	addi	s1,a0,4
.LVL4:
	.loc 1 55 5 is_stmt 1
	.loc 1 55 10
	.loc 1 54 14 is_stmt 0
	mv	s3,a0
	.loc 1 55 13
	bne	s1,zero,.L2
	.loc 1 55 25 is_stmt 1 discriminator 1
	lui	a0,%hi(.LC0)
	li	a1,55
	addi	a0,a0,%lo(.LC0)
	call	printf
.LVL5:
.L2:
.LBB2:
	.loc 1 58 9
	.loc 1 59 9
	.loc 1 60 9
	.loc 1 61 9
	.loc 1 61 13 is_stmt 0
	addi	a1,s0,12
.LVL6:
	.loc 1 62 9 is_stmt 1
	addi	s3,s3,84
.LVL7:
.L3:
	.loc 1 63 13 discriminator 3
	.loc 1 63 26 is_stmt 0 discriminator 3
	addi	a1,a1,1
.LVL8:
	.loc 1 63 22 discriminator 3
	lbu	a5,-1(a1)
	.loc 1 63 17 discriminator 3
	addi	s1,s1,1
.LVL9:
	.loc 1 63 20 discriminator 3
	sb	a5,-1(s1)
.LVL10:
	.loc 1 62 9 discriminator 3
	bne	s3,s1,.L3
.LBE2:
	.loc 1 67 5 is_stmt 1
	lw	a0,52(s2)
	mv	a1,s4
.LVL11:
	call	ipc_host_txdesc_push
.LVL12:
	.loc 1 68 5
	.loc 1 68 29 is_stmt 0
	lw	a5,56(s2)
	.loc 1 69 1
	lw	ra,28(sp)
	.cfi_restore 1
	lw	s0,24(sp)
	.cfi_restore 8
.LVL13:
	.loc 1 68 29
	addi	a5,a5,1
	sw	a5,56(s2)
	.loc 1 69 1
	lw	s1,20(sp)
	.cfi_restore 9
.LVL14:
	lw	s2,16(sp)
	.cfi_restore 18
.LVL15:
	lw	s3,12(sp)
	.cfi_restore 19
.LVL16:
	lw	s4,8(sp)
	.cfi_restore 20
.LVL17:
	addi	sp,sp,32
	.cfi_def_cfa_offset 0
	jr	ra
	.cfi_endproc
.LFE51:
	.size	bl_tx_push, .-bl_tx_push
	.section	.text.bl_tx_resend,"ax",@progbits
	.align	1
	.globl	bl_tx_resend
	.type	bl_tx_resend, @function
bl_tx_resend:
.LFB52:
	.loc 1 78 1 is_stmt 1
	.cfi_startproc
	.loc 1 79 5
	.loc 1 78 1 is_stmt 0
	addi	sp,sp,-32
	.cfi_def_cfa_offset 32
	sw	s1,20(sp)
	.cfi_offset 9, -12
	.loc 1 84 21
	lui	s1,%hi(txhdr_hodler)
	.loc 1 78 1
	sw	s3,12(sp)
	sw	s4,8(sp)
	sw	s5,4(sp)
	sw	ra,28(sp)
	sw	s0,24(sp)
	sw	s2,16(sp)
	.cfi_offset 19, -20
	.cfi_offset 20, -24
	.cfi_offset 21, -28
	.cfi_offset 1, -4
	.cfi_offset 8, -8
	.cfi_offset 18, -16
	.loc 1 80 24
	lui	s4,%hi(.LANCHOR1)
	.loc 1 79 5
	call	vTaskEnterCritical
.LVL18:
	.loc 1 80 5 is_stmt 1
	.loc 1 80 24 is_stmt 0
	lui	s3,%hi(.LANCHOR2)
	.loc 1 81 52
	lui	s5,%hi(.LANCHOR0)
	.loc 1 84 21
	addi	s1,s1,%lo(txhdr_hodler)
.L7:
	.loc 1 80 24
	addi	s0,s4,%lo(.LANCHOR1)
	.loc 1 80 11
	lw	a4,0(s0)
	lw	a5,%lo(.LANCHOR2)(s3)
	beq	a4,a5,.L10
	.loc 1 81 9 is_stmt 1
	.loc 1 81 52 is_stmt 0
	addi	s2,s5,%lo(.LANCHOR0)
	.loc 1 81 20
	lw	a5,0(s2)
	lw	a0,52(a5)
	call	ipc_host_txdesc_get
.LVL19:
	.loc 1 81 12
	bne	a0,zero,.L8
.L10:
	.loc 1 91 5 is_stmt 1
	.loc 1 92 1 is_stmt 0
	lw	s0,24(sp)
	.cfi_remember_state
	.cfi_restore 8
	lw	ra,28(sp)
	.cfi_restore 1
	lw	s1,20(sp)
	.cfi_restore 9
	lw	s2,16(sp)
	.cfi_restore 18
	lw	s3,12(sp)
	.cfi_restore 19
	lw	s4,8(sp)
	.cfi_restore 20
	lw	s5,4(sp)
	.cfi_restore 21
	addi	sp,sp,32
	.cfi_def_cfa_offset 0
	.loc 1 91 5
	tail	vTaskExitCritical
.LVL20:
.L8:
	.cfi_restore_state
	.loc 1 84 9 is_stmt 1
	.loc 1 84 34 is_stmt 0
	lw	a5,0(s0)
	.loc 1 88 9
	lw	a0,0(s2)
	.loc 1 84 34
	andi	a5,a5,7
	.loc 1 84 21
	slli	a5,a5,2
	add	a5,s1,a5
	lw	a4,0(a5)
	.loc 1 84 57
	sw	zero,4(a4)
	.loc 1 88 9 is_stmt 1
	lw	a1,0(a5)
	call	bl_tx_push
.LVL21:
	.loc 1 89 9
	.loc 1 89 20 is_stmt 0
	lw	a5,0(s0)
	addi	a5,a5,1
	sw	a5,0(s0)
	j	.L7
	.cfi_endproc
.LFE52:
	.size	bl_tx_resend, .-bl_tx_resend
	.section	.text.bl_tx_try_flush,"ax",@progbits
	.align	1
	.globl	bl_tx_try_flush
	.type	bl_tx_try_flush, @function
bl_tx_try_flush:
.LFB53:
	.loc 1 95 1 is_stmt 1
	.cfi_startproc
	.loc 1 96 5
	.loc 1 98 5
	.loc 1 95 1 is_stmt 0
	addi	sp,sp,-16
	.cfi_def_cfa_offset 16
	sw	s1,4(sp)
	sw	s2,0(sp)
	sw	ra,12(sp)
	sw	s0,8(sp)
	.cfi_offset 9, -12
	.cfi_offset 18, -16
	.cfi_offset 1, -4
	.cfi_offset 8, -8
	.loc 1 99 44
	lui	s1,%hi(.LANCHOR0)
	.loc 1 98 5
	call	vTaskEnterCritical
.LVL22:
	.loc 1 99 5 is_stmt 1
	.loc 1 100 35 is_stmt 0
	lui	s2,%hi(tx_list_bl)
.L13:
	.loc 1 99 44
	addi	s0,s1,%lo(.LANCHOR0)
	.loc 1 99 12
	lw	a5,0(s0)
	lw	a0,52(a5)
	call	ipc_host_txdesc_get
.LVL23:
	.loc 1 99 11
	beq	a0,zero,.L16
	.loc 1 100 9 is_stmt 1
	.loc 1 100 35 is_stmt 0
	addi	a0,s2,%lo(tx_list_bl)
	call	utils_list_pop_front
.LVL24:
	mv	a1,a0
.LVL25:
	.loc 1 101 9 is_stmt 1
	.loc 1 101 12 is_stmt 0
	bne	a0,zero,.L14
.LVL26:
.L16:
	.loc 1 106 5 is_stmt 1
	.loc 1 107 1 is_stmt 0
	lw	s0,8(sp)
	.cfi_remember_state
	.cfi_restore 8
	lw	ra,12(sp)
	.cfi_restore 1
	lw	s1,4(sp)
	.cfi_restore 9
	lw	s2,0(sp)
	.cfi_restore 18
	addi	sp,sp,16
	.cfi_def_cfa_offset 0
	.loc 1 106 5
	tail	vTaskExitCritical
.LVL27:
.L14:
	.cfi_restore_state
	.loc 1 104 9 is_stmt 1
	lw	a0,0(s0)
.LVL28:
	call	bl_tx_push
.LVL29:
	j	.L13
	.cfi_endproc
.LFE53:
	.size	bl_tx_try_flush, .-bl_tx_try_flush
	.section	.text.bl_txdatacfm,"ax",@progbits
	.align	1
	.globl	bl_txdatacfm
	.type	bl_txdatacfm, @function
bl_txdatacfm:
.LFB54:
	.loc 1 110 1
	.cfi_startproc
.LVL30:
	.loc 1 112 5
	.loc 1 113 5
	.loc 1 114 5
	.loc 1 116 5
	.loc 1 116 33 is_stmt 0
	lw	a4,4(a1)
	.loc 1 123 16
	li	a0,-1
.LVL31:
	.loc 1 116 99
	neg	a5,a4
	andi	a5,a5,3
	.loc 1 116 55
	add	a5,a5,a4
.LVL32:
	.loc 1 120 5 is_stmt 1
	.loc 1 120 13 is_stmt 0
	lw	a4,4(a5)
.LVL33:
	.loc 1 122 5 is_stmt 1
	.loc 1 122 8 is_stmt 0
	beq	a4,zero,.L29
	.loc 1 125 5 is_stmt 1
	.loc 1 125 8 is_stmt 0
	slli	a3,a4,15
	bge	a3,zero,.L20
	.loc 1 131 9 is_stmt 1
	.loc 1 131 27 is_stmt 0
	lui	a2,%hi(.LANCHOR2)
	addi	a2,a2,%lo(.LANCHOR2)
	lw	a4,0(a2)
.LVL34:
	.loc 1 131 41
	lui	a3,%hi(.LANCHOR1)
	lw	a3,%lo(.LANCHOR1)(a3)
	.loc 1 131 27
	addi	a0,a4,1
	.loc 1 131 41
	xor	a3,a0,a3
	andi	a3,a3,7
	.loc 1 131 12
	beq	a3,zero,.L20
	.loc 1 135 13 is_stmt 1
	.loc 1 135 47 is_stmt 0
	lui	a3,%hi(txhdr_hodler)
	.loc 1 135 38
	andi	a4,a4,7
	.loc 1 135 47
	addi	a3,a3,%lo(txhdr_hodler)
	slli	a4,a4,2
	add	a4,a3,a4
	.loc 1 136 24
	sw	a0,0(a2)
	.loc 1 135 47
	sw	a5,0(a4)
.LVL35:
	.loc 1 136 13 is_stmt 1
	.loc 1 147 12 is_stmt 0
	li	a0,0
	ret
.LVL36:
.L20:
	.loc 1 110 1
	addi	sp,sp,-16
	.cfi_def_cfa_offset 16
	mv	a0,a1
	.loc 1 141 13 is_stmt 1
	.loc 1 110 1 is_stmt 0
	sw	ra,12(sp)
.LVL37:
	.cfi_offset 1, -4
	.loc 1 141 13
	call	pbuf_free
.LVL38:
	.loc 1 148 1
	lw	ra,12(sp)
	.cfi_restore 1
	.loc 1 147 12
	li	a0,0
	.loc 1 148 1
	addi	sp,sp,16
	.cfi_def_cfa_offset 0
	jr	ra
.LVL39:
.L29:
	ret
	.cfi_endproc
.LFE54:
	.size	bl_txdatacfm, .-bl_txdatacfm
	.section	.text.bl_tx_notify,"ax",@progbits
	.align	1
	.globl	bl_tx_notify
	.type	bl_tx_notify, @function
bl_tx_notify:
.LFB55:
	.loc 1 151 1 is_stmt 1
	.cfi_startproc
	.loc 1 153 5
	.loc 1 153 9 is_stmt 0
	lui	a5,%hi(.LANCHOR3)
	lw	a0,%lo(.LANCHOR3)(a5)
	.loc 1 153 8
	beq	a0,zero,.L31
	.loc 1 154 9 is_stmt 1
	li	a3,0
	li	a2,2
	li	a1,0
	tail	xTaskGenericNotify
.LVL40:
.L31:
	.loc 1 158 1 is_stmt 0
	ret
	.cfi_endproc
.LFE55:
	.size	bl_tx_notify, .-bl_tx_notify
	.section	.text.bl_output,"ax",@progbits
	.align	1
	.globl	bl_output
	.type	bl_output, @function
bl_output:
.LFB56:
	.loc 1 161 1 is_stmt 1
	.cfi_startproc
.LVL41:
	.loc 1 162 5
	.loc 1 163 5
	.loc 1 164 5
	.loc 1 165 5
	.loc 1 166 5
	.loc 1 167 5
	.loc 1 168 5
	.loc 1 169 5
	.loc 1 170 5
	.loc 1 172 5
	.loc 1 161 1 is_stmt 0
	addi	sp,sp,-32
	.cfi_def_cfa_offset 32
	sw	ra,28(sp)
	sw	s0,24(sp)
	sw	s1,20(sp)
	sw	s2,16(sp)
	sw	s3,12(sp)
	sw	s4,8(sp)
	sw	s5,4(sp)
	sw	s6,0(sp)
	.cfi_offset 1, -4
	.cfi_offset 8, -8
	.cfi_offset 9, -12
	.cfi_offset 18, -16
	.cfi_offset 19, -20
	.cfi_offset 20, -24
	.cfi_offset 21, -28
	.cfi_offset 22, -32
	.loc 1 172 8
	beq	a0,zero,.L34
	.loc 1 172 27 discriminator 1
	lbu	a5,65(a1)
	.loc 1 172 22 discriminator 1
	andi	a5,a5,4
	bne	a5,zero,.L35
.L34:
	.loc 1 173 9 is_stmt 1
	lui	a0,%hi(.LC1)
.LVL42:
	addi	a0,a0,%lo(.LC1)
	call	printf
.LVL43:
	.loc 1 174 9
	.loc 1 174 16 is_stmt 0
	li	a0,-11
.LVL44:
.L36:
	.loc 1 272 1
	lw	ra,28(sp)
	.cfi_remember_state
	.cfi_restore 1
	lw	s0,24(sp)
	.cfi_restore 8
	lw	s1,20(sp)
	.cfi_restore 9
	lw	s2,16(sp)
	.cfi_restore 18
	lw	s3,12(sp)
	.cfi_restore 19
	lw	s4,8(sp)
	.cfi_restore 20
	lw	s5,4(sp)
	.cfi_restore 21
	lw	s6,0(sp)
	.cfi_restore 22
	addi	sp,sp,32
	.cfi_def_cfa_offset 0
	jr	ra
.LVL45:
.L35:
	.cfi_restore_state
	.loc 1 177 11
	lui	s0,%hi(.LANCHOR3)
	addi	s0,s0,%lo(.LANCHOR3)
	.loc 1 177 8
	lw	a5,0(s0)
	mv	s2,a0
	mv	s1,a2
	mv	s5,a3
	.loc 1 177 5 is_stmt 1
	.loc 1 177 8 is_stmt 0
	bne	a5,zero,.L37
.LVL46:
	.loc 1 178 9 is_stmt 1
	.loc 1 178 29 is_stmt 0
	call	xTaskGetCurrentTaskHandle
.LVL47:
	.loc 1 178 27
	sw	a0,0(s0)
.L37:
	.loc 1 181 5 is_stmt 1
	.loc 1 181 18 is_stmt 0
	lui	a5,%hi(.LANCHOR0)
	.loc 1 186 9
	li	a1,128
	mv	a0,s1
	.loc 1 181 18
	sw	s2,%lo(.LANCHOR0)(a5)
	.loc 1 182 5 is_stmt 1
	.loc 1 182 16 is_stmt 0
	lw	s3,4(s1)
.LVL48:
	.loc 1 183 5 is_stmt 1
	.loc 1 183 16 is_stmt 0
	lhu	s4,8(s1)
.LVL49:
	.loc 1 186 5 is_stmt 1
	.loc 1 186 9 is_stmt 0
	call	pbuf_header
.LVL50:
	.loc 1 186 8
	beq	a0,zero,.L38
	.loc 1 187 9 is_stmt 1
	lui	a0,%hi(.LC2)
	addi	a0,a0,%lo(.LC2)
	call	printf
.LVL51:
	.loc 1 188 9
	.loc 1 188 16 is_stmt 0
	li	a0,-12
	j	.L36
.L38:
	.loc 1 191 5 is_stmt 1
	.loc 1 191 32 is_stmt 0
	lw	a5,4(s1)
	.loc 1 203 5
	li	a2,92
	li	a1,0
	.loc 1 191 98
	neg	s0,a5
	andi	s0,s0,3
	.loc 1 191 54
	add	s0,s0,a5
.LVL52:
	.loc 1 192 5 is_stmt 1
	.loc 1 199 5
	.loc 1 201 5
	.loc 1 202 5
	.loc 1 203 5
	mv	a0,s0
	call	memset
.LVL53:
	.loc 1 204 5
	.loc 1 206 5
	.loc 1 208 5 is_stmt 0
	li	a2,6
	mv	a1,s3
	.loc 1 206 14
	sw	s1,8(s0)
	.loc 1 208 5 is_stmt 1
	addi	a0,s0,28
	call	memcpy
.LVL54:
	.loc 1 209 5
	li	a2,6
	addi	a1,s3,6
	addi	a0,s0,34
	call	memcpy
.LVL55:
	.loc 1 210 5
	.loc 1 210 21 is_stmt 0
	sw	s1,12(s0)
	.loc 1 211 5 is_stmt 1
	.loc 1 211 26 is_stmt 0
	lbu	a5,13(s3)
	lbu	a4,12(s3)
	.loc 1 212 15
	sb	zero,54(s0)
	.loc 1 211 26
	slli	a5,a5,8
	or	a5,a5,a4
	.loc 1 211 21
	sh	a5,40(s0)
	.loc 1 212 5 is_stmt 1
	.loc 1 213 5
	.loc 1 213 36 is_stmt 0
	li	a5,4096
	add	a5,s2,a5
	.loc 1 213 19
	beq	s5,zero,.L39
	.loc 1 213 19 discriminator 1
	lbu	a5,-484(a5)
.L40:
	.loc 1 215 35 discriminator 4
	addi	s4,s4,-14
.LVL56:
	.loc 1 213 19 discriminator 4
	sb	a5,55(s0)
	.loc 1 214 5 is_stmt 1 discriminator 4
	.loc 1 214 17 is_stmt 0 discriminator 4
	sh	zero,58(s0)
	.loc 1 215 5 is_stmt 1 discriminator 4
	.loc 1 215 22 is_stmt 0 discriminator 4
	sh	s4,20(s0)
	.loc 1 216 5 is_stmt 1 discriminator 4
	.loc 1 216 8 is_stmt 0 discriminator 4
	beq	s5,zero,.L41
	.loc 1 217 9 is_stmt 1
	.loc 1 217 28 is_stmt 0
	li	a5,4096
	add	s2,s2,a5
.LVL57:
	.loc 1 217 21
	lw	a5,-476(s2)
	sb	a5,56(s0)
.LVL58:
.L42:
	addi	s4,s0,60
.LVL59:
	.loc 1 161 1
	mv	s2,s1
	li	s3,0
.LVL60:
	.loc 1 230 16
	li	s5,4
.LVL61:
	.loc 1 232 17
	lui	s6,%hi(.LC3)
.LVL62:
.L46:
	.loc 1 224 9 is_stmt 1
	.loc 1 224 12 is_stmt 0
	bne	s3,zero,.L43
.LVL63:
	.loc 1 226 13 is_stmt 1
	.loc 1 226 94 is_stmt 0
	lw	a5,4(s2)
	addi	a5,a5,142
	.loc 1 226 42
	sw	a5,60(s0)
	.loc 1 227 13 is_stmt 1
	.loc 1 227 45 is_stmt 0
	lhu	a5,10(s2)
	.loc 1 227 66
	addi	a5,a5,-142
	.loc 1 227 42
	sw	a5,76(s0)
.LVL64:
.L44:
	.loc 1 251 9 is_stmt 1 discriminator 2
	.loc 1 223 29 is_stmt 0 discriminator 2
	lw	s2,0(s2)
.LVL65:
	.loc 1 251 13 discriminator 2
	addi	s3,s3,1
.LVL66:
	addi	s4,s4,4
	.loc 1 223 5 discriminator 2
	bne	s2,zero,.L46
	.loc 1 253 5 is_stmt 1
	.loc 1 253 8 is_stmt 0
	li	a5,2
	ble	s3,a5,.L47
	.loc 1 254 9 is_stmt 1
	lui	a0,%hi(.LC4)
	mv	a1,s3
	addi	a0,a0,%lo(.LC4)
	call	printf
.LVL67:
.L47:
	.loc 1 257 5
	.loc 1 259 23 is_stmt 0
	li	a5,286330880
	addi	a5,a5,273
	sw	a5,16(s0)
	.loc 1 260 36
	addi	a5,s0,4
	.loc 1 260 23
	sw	a5,24(s0)
	.loc 1 263 5
	mv	a0,s1
	.loc 1 257 25
	sw	zero,4(s0)
	.loc 1 259 5 is_stmt 1
	.loc 1 260 5
	.loc 1 263 5
	call	pbuf_ref
.LVL68:
	.loc 1 265 5
	call	vTaskEnterCritical
.LVL69:
	.loc 1 266 5
	lui	a0,%hi(tx_list_bl)
	addi	a0,a0,%lo(tx_list_bl)
	mv	a1,s0
	call	utils_list_push_back
.LVL70:
	.loc 1 267 5
	call	vTaskExitCritical
.LVL71:
	.loc 1 269 5
	call	bl_irq_handler
.LVL72:
	.loc 1 271 5
	.loc 1 271 12 is_stmt 0
	li	a0,0
	j	.L36
.LVL73:
.L39:
	.loc 1 213 19 discriminator 2
	lbu	a5,-480(a5)
	j	.L40
.LVL74:
.L41:
	.loc 1 219 9 is_stmt 1
	.loc 1 219 23 is_stmt 0
	mv	a1,s3
	mv	a0,s2
	call	bl_utils_idx_lookup
.LVL75:
	.loc 1 219 21
	sb	a0,56(s0)
	j	.L42
.LVL76:
.L43:
	.loc 1 230 13 is_stmt 1
	.loc 1 230 16 is_stmt 0
	bne	s3,s5,.L45
	.loc 1 232 17 is_stmt 1
	lhu	a1,8(s1)
	addi	a0,s6,%lo(.LC3)
	call	printf
.LVL77:
.L45:
	.loc 1 236 13
	.loc 1 236 42 is_stmt 0
	lw	a5,4(s2)
	sw	a5,0(s4)
	.loc 1 237 13 is_stmt 1
	.loc 1 237 45 is_stmt 0
	lhu	a5,10(s2)
	sw	a5,16(s4)
	j	.L44
	.cfi_endproc
.LFE56:
	.size	bl_output, .-bl_output
	.globl	txhdr_pos_w
	.globl	txhdr_pos_r
	.comm	txhdr_hodler,32,4
	.globl	taskHandle_output
	.globl	internel_cal_size_tx_hdr
	.comm	tx_list_bl,8,4
	.section	.rodata.bl_output.str1.4,"aMS",@progbits,1
	.align	2
.LC1:
	.string	"[TX] wifi is down, return now\r\n"
.LC2:
	.string	"[TX] Reserve room failed for header\r\n"
	.zero	2
.LC3:
	.string	"[TX] [PBUF] Please fix for bigger chained pbuf, total_len %d\r\n"
	.zero	1
.LC4:
	.string	"[TX] [LOOP] Chain Used %d\r\n"
	.section	.rodata.bl_tx_push.str1.4,"aMS",@progbits,1
	.align	2
.LC0:
	.string	"%d:ASSERT_ERR(host)\n"
	.section	.sbss.taskHandle_output,"aw",@nobits
	.align	2
	.set	.LANCHOR3,. + 0
	.type	taskHandle_output, @object
	.size	taskHandle_output, 4
taskHandle_output:
	.zero	4
	.section	.sbss.txhdr_pos_r,"aw",@nobits
	.align	2
	.set	.LANCHOR1,. + 0
	.type	txhdr_pos_r, @object
	.size	txhdr_pos_r, 4
txhdr_pos_r:
	.zero	4
	.section	.sbss.txhdr_pos_w,"aw",@nobits
	.align	2
	.set	.LANCHOR2,. + 0
	.type	txhdr_pos_w, @object
	.size	txhdr_pos_w, 4
txhdr_pos_w:
	.zero	4
	.section	.sdata.bl_hw_static,"aw"
	.align	2
	.set	.LANCHOR0,. + 0
	.type	bl_hw_static, @object
	.size	bl_hw_static, 4
bl_hw_static:
	.word	wifi_hw
	.section	.sdata.internel_cal_size_tx_hdr,"aw"
	.align	2
	.type	internel_cal_size_tx_hdr, @object
	.size	internel_cal_size_tx_hdr, 4
internel_cal_size_tx_hdr:
	.word	92
	.text
.Letext0:
	.file 2 "/b-l/bl_iot_sdk/toolchain/riscv/Linux/lib/gcc/riscv64-unknown-elf/8.3.0/include/stddef.h"
	.file 3 "/b-l/bl_iot_sdk/toolchain/riscv/Linux/riscv64-unknown-elf/include/machine/_default_types.h"
	.file 4 "/b-l/bl_iot_sdk/toolchain/riscv/Linux/riscv64-unknown-elf/include/sys/_types.h"
	.file 5 "/b-l/bl_iot_sdk/toolchain/riscv/Linux/riscv64-unknown-elf/include/sys/reent.h"
	.file 6 "/b-l/bl_iot_sdk/toolchain/riscv/Linux/riscv64-unknown-elf/include/sys/lock.h"
	.file 7 "/b-l/bl_iot_sdk/toolchain/riscv/Linux/riscv64-unknown-elf/include/sys/_stdint.h"
	.file 8 "/b-l/bl_iot_sdk/components/network/lwip/lwip-port/arch/cc.h"
	.file 9 "/b-l/bl_iot_sdk/toolchain/riscv/Linux/riscv64-unknown-elf/include/stdlib.h"
	.file 10 "/b-l/bl_iot_sdk/toolchain/riscv/Linux/riscv64-unknown-elf/include/ctype.h"
	.file 11 "/b-l/bl_iot_sdk/components/network/lwip/src/include/lwip/err.h"
	.file 12 "/b-l/bl_iot_sdk/components/network/lwip/src/include/lwip/pbuf.h"
	.file 13 "/b-l/bl_iot_sdk/components/network/lwip/src/include/lwip/ip4_addr.h"
	.file 14 "/b-l/bl_iot_sdk/components/network/lwip/src/include/lwip/ip_addr.h"
	.file 15 "/b-l/bl_iot_sdk/components/network/lwip/src/include/lwip/mem.h"
	.file 16 "/b-l/bl_iot_sdk/components/network/lwip/src/include/lwip/memp.h"
	.file 17 "/b-l/bl_iot_sdk/components/network/lwip/src/include/lwip/priv/memp_priv.h"
	.file 18 "/b-l/bl_iot_sdk/components/network/lwip/src/include/lwip/stats.h"
	.file 19 "/b-l/bl_iot_sdk/components/network/lwip/src/include/lwip/netif.h"
	.file 20 "/b-l/bl_iot_sdk/components/network/lwip/src/include/lwip/prot/ethernet.h"
	.file 21 "/b-l/bl_iot_sdk/components/network/lwip/src/include/netif/ethernet.h"
	.file 22 "/b-l/bl_iot_sdk/components/utils/include/utils_list.h"
	.file 23 "/b-l/bl_iot_sdk/components/bl602/bl602_wifidrv/bl60x_wifi_driver/lmac_types.h"
	.file 24 "/b-l/bl_iot_sdk/components/bl602/bl602_wifidrv/bl60x_wifi_driver/lmac_mac.h"
	.file 25 "/b-l/bl_iot_sdk/components/bl602/bl602_wifidrv/bl60x_wifi_driver/ipc_shared.h"
	.file 26 "/b-l/bl_iot_sdk/components/bl602/bl602_wifidrv/bl60x_wifi_driver/hal_desc.h"
	.file 27 "/b-l/bl_iot_sdk/components/bl602/bl602_wifidrv/bl60x_wifi_driver/ipc_host.h"
	.file 28 "/b-l/bl_iot_sdk/components/bl602/bl602_wifidrv/bl60x_wifi_driver/list.h"
	.file 29 "/b-l/bl_iot_sdk/components/bl602/bl602_wifidrv/bl60x_wifi_driver/lmac_msg.h"
	.file 30 "/b-l/bl_iot_sdk/components/bl602/freertos_riscv_ram/portable/GCC/RISC-V/portmacro.h"
	.file 31 "/b-l/bl_iot_sdk/components/bl602/freertos_riscv_ram/config/FreeRTOS.h"
	.file 32 "/b-l/bl_iot_sdk/components/bl602/freertos_riscv_ram/config/task.h"
	.file 33 "/b-l/bl_iot_sdk/components/bl602/freertos_riscv_ram/config/queue.h"
	.file 34 "/b-l/bl_iot_sdk/components/bl602/freertos_riscv_ram/config/semphr.h"
	.file 35 "/b-l/bl_iot_sdk/components/bl602/bl602_wifidrv/bl60x_wifi_driver/os_hal.h"
	.file 36 "/b-l/bl_iot_sdk/components/bl602/bl602_wifidrv/bl60x_wifi_driver/bl_cmds.h"
	.file 37 "/b-l/bl_iot_sdk/components/bl602/bl602_wifidrv/bl60x_wifi_driver/bl_defs.h"
	.file 38 "/b-l/bl_iot_sdk/components/bl602/bl602_wifidrv/bl60x_wifi_driver/ieee80211.h"
	.file 39 "/b-l/bl_iot_sdk/components/bl602/bl602_wifidrv/bl60x_wifi_driver/cfg80211.h"
	.file 40 "/b-l/bl_iot_sdk/components/bl602/bl602_wifidrv/bl60x_wifi_driver/bl_mod_params.h"
	.file 41 "/b-l/bl_iot_sdk/components/bl602/bl602_wifidrv/bl60x_wifi_driver/bl_tx.h"
	.file 42 "/b-l/bl_iot_sdk/toolchain/riscv/Linux/riscv64-unknown-elf/include/stdio.h"
	.file 43 "/b-l/bl_iot_sdk/toolchain/riscv/Linux/riscv64-unknown-elf/include/string.h"
	.file 44 "/b-l/bl_iot_sdk/components/bl602/bl602_wifidrv/bl60x_wifi_driver/bl_utils.h"