	.file	"fdt_overlay.c"
	.option nopic
	.attribute arch, "rv32i2p0_m2p0_f2p0_c2p0"
	.attribute unaligned_access, 0
	.attribute stack_align, 16
	.text
.Ltext0:
	.cfi_sections	.debug_frame
	.section	.text.fdt32_to_cpu,"ax",@progbits
	.align	1
	.type	fdt32_to_cpu, @function
fdt32_to_cpu:
.LFB3:
	.file 1 "/b-l/bl_iot_sdk_new/components/stage/blfdt/inc/libfdt_env.h"
	.loc 1 121 1
	.cfi_startproc
.LVL0:
	.loc 1 122 5
	.loc 1 122 212 is_stmt 0
	srli	a4,a0,24
	.loc 1 122 12
	slli	a5,a0,24
	or	a5,a5,a4
	.loc 1 122 112
	srli	a4,a0,8
	andi	a4,a4,0xff
	.loc 1 122 163
	srli	a0,a0,16
.LVL1:
	.loc 1 122 117
	slli	a4,a4,16
	.loc 1 122 163
	andi	a0,a0,0xff
	.loc 1 122 12
	or	a5,a5,a4
	.loc 1 122 168
	slli	a0,a0,8
	.loc 1 123 1
	or	a0,a5,a0
	ret
	.cfi_endproc
.LFE3:
	.size	fdt32_to_cpu, .-fdt32_to_cpu
	.set	cpu_to_fdt32,fdt32_to_cpu
	.section	.text.overlay_phandle_add_offset,"ax",@progbits
	.align	1
	.type	overlay_phandle_add_offset, @function
overlay_phandle_add_offset:
.LFB42:
	.file 2 "/b-l/bl_iot_sdk_new/components/stage/blfdt/src/fdt_overlay.c"
	.loc 2 141 1 is_stmt 1
	.cfi_startproc
.LVL2:
	.loc 2 142 5
	.loc 2 143 5
	.loc 2 144 5
	.loc 2 146 5
	.loc 2 141 1 is_stmt 0
	addi	sp,sp,-48
	.cfi_def_cfa_offset 48
	sw	s0,40(sp)
	.cfi_offset 8, -8
	mv	s0,a3
	.loc 2 146 11
	addi	a3,sp,8
.LVL3:
	.loc 2 141 1
	sw	s1,36(sp)
	sw	s2,32(sp)
	sw	s3,28(sp)
	sw	ra,44(sp)
	.cfi_offset 9, -12
	.cfi_offset 18, -16
	.cfi_offset 19, -20
	.cfi_offset 1, -4
	.loc 2 141 1
	mv	s1,a0
	mv	s2,a1
	mv	s3,a2
	.loc 2 146 11
	call	fdt_getprop
.LVL4:
	.loc 2 147 5 is_stmt 1
	lw	a4,8(sp)
	.loc 2 148 16 is_stmt 0
	mv	a5,a4
	.loc 2 147 8
	beq	a0,zero,.L2
	.loc 2 150 5 is_stmt 1
	.loc 2 150 8 is_stmt 0
	li	a3,4
	.loc 2 151 16
	li	a5,-6
	.loc 2 150 8
	bne	a4,a3,.L2
	.loc 2 153 5 is_stmt 1
	.loc 2 153 15 is_stmt 0
	lw	a0,0(a0)
.LVL5:
	call	fdt32_to_cpu
.LVL6:
	.loc 2 154 5 is_stmt 1
	.loc 2 154 18 is_stmt 0
	add	s0,a0,s0
.LVL7:
	.loc 2 155 16
	li	a5,-17
	.loc 2 154 8
	bltu	s0,a0,.L2
	.loc 2 157 5 is_stmt 1
.LVL8:
	.loc 2 158 5
	.loc 2 158 8 is_stmt 0
	li	a4,-1
	beq	s0,a4,.L2
	.loc 2 161 5 is_stmt 1
.LVL9:
.LBB4:
.LBB5:
	.file 3 "/b-l/bl_iot_sdk_new/components/stage/blfdt/inc/libfdt.h"
	.loc 3 1288 5
	.loc 3 1288 19 is_stmt 0
	mv	a0,s0
	call	cpu_to_fdt32
.LVL10:
	.loc 3 1288 13
	sw	a0,12(sp)
	.loc 3 1289 5 is_stmt 1
	.loc 3 1289 12 is_stmt 0
	li	a4,4
	addi	a3,sp,12
	mv	a2,s3
	mv	a1,s2
	mv	a0,s1
	call	fdt_setprop_inplace
.LVL11:
	mv	a5,a0
.LVL12:
.L2:
.LBE5:
.LBE4:
	.loc 2 162 1
	lw	ra,44(sp)
	.cfi_restore 1
	lw	s0,40(sp)
	.cfi_restore 8
	lw	s1,36(sp)
	.cfi_restore 9
.LVL13:
	lw	s2,32(sp)
	.cfi_restore 18
.LVL14:
	lw	s3,28(sp)
	.cfi_restore 19
.LVL15:
	mv	a0,a5
	addi	sp,sp,48
	.cfi_def_cfa_offset 0
	jr	ra
	.cfi_endproc
.LFE42:
	.size	overlay_phandle_add_offset, .-overlay_phandle_add_offset
	.section	.text.overlay_adjust_node_phandles,"ax",@progbits
	.align	1
	.type	overlay_adjust_node_phandles, @function
overlay_adjust_node_phandles:
.LFB43:
	.loc 2 181 1 is_stmt 1
	.cfi_startproc
.LVL16:
	.loc 2 182 5
	.loc 2 183 5
	.loc 2 185 5
	.loc 2 181 1 is_stmt 0
	addi	sp,sp,-32
	.cfi_def_cfa_offset 32
	sw	s2,16(sp)
	.loc 2 185 11
	mv	a3,a2
	.cfi_offset 18, -16
	.loc 2 181 1
	mv	s2,a2
	.loc 2 185 11
	lui	a2,%hi(.LC0)
.LVL17:
	addi	a2,a2,%lo(.LC0)
	.loc 2 181 1
	sw	s0,24(sp)
	sw	s1,20(sp)
	sw	s3,12(sp)
	sw	ra,28(sp)
	.cfi_offset 8, -8
	.cfi_offset 9, -12
	.cfi_offset 19, -20
	.cfi_offset 1, -4
	.loc 2 181 1
	mv	s1,a0
	mv	s0,a1
	.loc 2 185 11
	call	overlay_phandle_add_offset
.LVL18:
	.loc 2 186 5 is_stmt 1
	.loc 2 186 13 is_stmt 0
	addi	a5,a0,1
	.loc 2 186 8
	li	s3,1
	bgtu	a5,s3,.L9
	.loc 2 189 5 is_stmt 1
	.loc 2 189 11 is_stmt 0
	lui	a2,%hi(.LC1)
	mv	a3,s2
	addi	a2,a2,%lo(.LC1)
	mv	a1,s0
	mv	a0,s1
.LVL19:
	call	overlay_phandle_add_offset
.LVL20:
	.loc 2 190 5 is_stmt 1
	.loc 2 190 13 is_stmt 0
	addi	a5,a0,1
	.loc 2 190 8
	bgtu	a5,s3,.L9
	.loc 2 193 5 is_stmt 1
	.loc 2 193 18 is_stmt 0
	mv	a1,s0
	mv	a0,s1
.LVL21:
	call	fdt_first_subnode
.LVL22:
.L14:
	.loc 2 193 69 discriminator 2
	mv	s0,a0
.LVL23:
	.loc 2 193 5 discriminator 2
	bge	a0,zero,.L12
	.loc 2 199 12
	li	a0,0
.LVL24:
.L9:
	.loc 2 200 1
	lw	ra,28(sp)
	.cfi_remember_state
	.cfi_restore 1
	lw	s0,24(sp)
	.cfi_restore 8
	lw	s1,20(sp)
	.cfi_restore 9
.LVL25:
	lw	s2,16(sp)
	.cfi_restore 18
.LVL26:
	lw	s3,12(sp)
	.cfi_restore 19
	addi	sp,sp,32
	.cfi_def_cfa_offset 0
	jr	ra
.LVL27:
.L12:
	.cfi_restore_state
	.loc 2 194 9 is_stmt 1
	.loc 2 194 15 is_stmt 0
	mv	a2,s2
	mv	a1,s0
	mv	a0,s1
	call	overlay_adjust_node_phandles
.LVL28:
	.loc 2 195 9 is_stmt 1
	.loc 2 195 12 is_stmt 0
	bne	a0,zero,.L9
	.loc 2 193 69 discriminator 2
	mv	a1,s0
	mv	a0,s1
.LVL29:
	call	fdt_next_subnode
.LVL30:
	j	.L14
	.cfi_endproc
.LFE43:
	.size	overlay_adjust_node_phandles, .-overlay_adjust_node_phandles
	.section	.text.overlay_update_local_node_references,"ax",@progbits
	.align	1
	.type	overlay_update_local_node_references, @function
overlay_update_local_node_references:
.LFB45:
	.loc 2 247 1 is_stmt 1
	.cfi_startproc
.LVL31:
	.loc 2 248 5
	.loc 2 249 5
	.loc 2 250 5
	.loc 2 252 5
	.loc 2 247 1 is_stmt 0
	addi	sp,sp,-80
	.cfi_def_cfa_offset 80
	sw	s3,60(sp)
	.cfi_offset 19, -20
	mv	s3,a1
	.loc 2 252 23
	mv	a1,a2
.LVL32:
	.loc 2 247 1
	sw	s0,72(sp)
	sw	s1,68(sp)
	sw	s4,56(sp)
	sw	s5,52(sp)
	sw	s7,44(sp)
	sw	ra,76(sp)
	sw	s2,64(sp)
	sw	s6,48(sp)
	sw	s8,40(sp)
	.cfi_offset 8, -8
	.cfi_offset 9, -12
	.cfi_offset 20, -24
	.cfi_offset 21, -28
	.cfi_offset 23, -36
	.cfi_offset 1, -4
	.cfi_offset 18, -16
	.cfi_offset 22, -32
	.cfi_offset 24, -40
	.loc 2 247 1
	mv	s0,a0
	mv	s5,a2
	mv	s4,a3
	.loc 2 252 23
	call	fdt_first_property_offset
.LVL33:
	mv	s1,a0
.LVL34:
.LBB6:
.LBB7:
	.loc 2 299 16
	li	s7,-3
.L16:
.LBE7:
.LBE6:
	.loc 2 252 5 discriminator 1
	bge	s1,zero,.L24
	.loc 2 307 5 is_stmt 1
	.loc 2 307 24 is_stmt 0
	mv	a1,s5
	mv	a0,s0
	call	fdt_first_subnode
.LVL35:
	mv	s1,a0
.LVL36:
.LBB9:
	.loc 2 314 12
	li	s2,-1
.L25:
.LBE9:
	.loc 2 307 5 discriminator 1
	bge	s1,zero,.L26
	.loc 2 327 12
	li	a0,0
.LVL37:
.L15:
	.loc 2 328 1
	lw	ra,76(sp)
	.cfi_remember_state
	.cfi_restore 1
	lw	s0,72(sp)
	.cfi_restore 8
.LVL38:
	lw	s1,68(sp)
	.cfi_restore 9
	lw	s2,64(sp)
	.cfi_restore 18
	lw	s3,60(sp)
	.cfi_restore 19
.LVL39:
	lw	s4,56(sp)
	.cfi_restore 20
.LVL40:
	lw	s5,52(sp)
	.cfi_restore 21
.LVL41:
	lw	s6,48(sp)
	.cfi_restore 22
	lw	s7,44(sp)
	.cfi_restore 23
	lw	s8,40(sp)
	.cfi_restore 24
	addi	sp,sp,80
	.cfi_def_cfa_offset 0
	jr	ra
.LVL42:
.L24:
	.cfi_restore_state
.LBB10:
	.loc 2 253 9 is_stmt 1
	.loc 2 254 9
	.loc 2 255 9
	.loc 2 256 9
	.loc 2 257 9
	.loc 2 258 9
	.loc 2 260 9
	.loc 2 260 21 is_stmt 0
	addi	a3,sp,20
	addi	a2,sp,16
	mv	a1,s1
	mv	a0,s0
	call	fdt_getprop_by_offset
.LVL43:
	mv	s6,a0
.LVL44:
	.loc 2 262 9 is_stmt 1
	lw	a0,20(sp)
.LVL45:
	.loc 2 262 12 is_stmt 0
	beq	s6,zero,.L15
	.loc 2 265 9 is_stmt 1
	.loc 2 265 23 is_stmt 0
	andi	a0,a0,3
	.loc 2 265 12
	bne	a0,zero,.L29
	.loc 2 268 9 is_stmt 1
	.loc 2 268 20 is_stmt 0
	lw	a2,16(sp)
	addi	a3,sp,24
	mv	a1,s3
	mv	a0,s0
	call	fdt_getprop
.LVL46:
	mv	s8,a0
.LVL47:
	.loc 2 269 9 is_stmt 1
	.loc 2 269 12 is_stmt 0
	bne	a0,zero,.L27
	.loc 2 270 13 is_stmt 1
	.loc 2 270 26 is_stmt 0
	lw	a0,24(sp)
.LVL48:
	.loc 2 270 16
	li	a5,-1
	bne	a0,a5,.L15
.LVL49:
.L29:
.LBE10:
.LBB11:
	.loc 2 315 20
	li	a0,-16
	j	.L15
.LVL50:
.L22:
.LBE11:
.LBB12:
.LBB8:
	.loc 2 277 13 is_stmt 1
	.loc 2 278 13
	.loc 2 280 13
	.loc 2 280 23 is_stmt 0
	slli	a5,s2,2
	add	a5,s6,a5
	lw	a0,0(a5)
	call	fdt32_to_cpu
.LVL51:
	.loc 2 288 13 is_stmt 1
	add	a1,s8,a0
	li	a2,4
	sw	a0,12(sp)
	addi	a0,sp,28
.LVL52:
	call	memcpy
.LVL53:
	.loc 2 290 13
	.loc 2 290 36 is_stmt 0
	lw	a0,28(sp)
	call	fdt32_to_cpu
.LVL54:
	.loc 2 290 23
	add	a0,a0,s4
	call	cpu_to_fdt32
.LVL55:
	.loc 2 292 19
	lw	a2,16(sp)
	.loc 2 290 21
	sw	a0,28(sp)
	.loc 2 292 13 is_stmt 1
	.loc 2 295 35 is_stmt 0
	mv	a0,a2
	sw	a2,8(sp)
	call	strlen
.LVL56:
	.loc 2 292 19
	lw	a4,12(sp)
	lw	a2,8(sp)
	mv	a3,a0
	li	a6,4
	addi	a5,sp,28
	mv	a1,s3
	mv	a0,s0
	call	fdt_setprop_inplace_namelen_partial
.LVL57:
	.loc 2 299 13 is_stmt 1
	.loc 2 299 16 is_stmt 0
	beq	a0,s7,.L29
	.loc 2 302 13 is_stmt 1
	.loc 2 302 16 is_stmt 0
	bne	a0,zero,.L15
.LBE8:
	.loc 2 276 58
	addi	s2,s2,1
.LVL58:
.L20:
	.loc 2 276 36 discriminator 1
	lw	a5,20(sp)
	srli	a5,a5,2
	.loc 2 276 9 discriminator 1
	bgtu	a5,s2,.L22
.LBE12:
	.loc 2 252 98
	mv	a1,s1
	mv	a0,s0
	call	fdt_next_property_offset
.LVL59:
	mv	s1,a0
.LVL60:
	j	.L16
.LVL61:
.L27:
.LBB13:
	.loc 2 276 16
	li	s2,0
	j	.L20
.LVL62:
.L26:
.LBE13:
.LBB14:
	.loc 2 308 9 is_stmt 1
	.loc 2 308 40 is_stmt 0
	li	a2,0
	mv	a1,s1
	mv	a0,s0
	call	fdt_get_name
.LVL63:
	.loc 2 310 9 is_stmt 1
	.loc 2 312 9
	.loc 2 312 22 is_stmt 0
	mv	a2,a0
	mv	a1,s3
	mv	a0,s0
.LVL64:
	call	fdt_subnode_offset
.LVL65:
	.loc 2 314 9 is_stmt 1
	.loc 2 314 12 is_stmt 0
	beq	a0,s2,.L29
	.loc 2 316 9 is_stmt 1
	.loc 2 316 12 is_stmt 0
	blt	a0,zero,.L15
	.loc 2 319 9 is_stmt 1
	.loc 2 319 15 is_stmt 0
	mv	a1,a0
	mv	a3,s4
	mv	a2,s1
	mv	a0,s0
.LVL66:
	call	overlay_update_local_node_references
.LVL67:
	.loc 2 323 9 is_stmt 1
	.loc 2 323 12 is_stmt 0
	bne	a0,zero,.L15
.LBE14:
	.loc 2 307 93 discriminator 2
	mv	a1,s1
	mv	a0,s0
.LVL68:
	call	fdt_next_subnode
.LVL69:
	mv	s1,a0
.LVL70:
	j	.L25
	.cfi_endproc
.LFE45:
	.size	overlay_update_local_node_references, .-overlay_update_local_node_references
	.section	.text.overlay_get_target,"ax",@progbits
	.align	1
	.type	overlay_get_target, @function
overlay_get_target:
.LFB41:
	.loc 2 83 1 is_stmt 1
	.cfi_startproc
.LVL71:
	.loc 2 84 5
	.loc 2 85 5
	.loc 2 86 5
	.loc 2 83 1 is_stmt 0
	addi	sp,sp,-48
	.cfi_def_cfa_offset 48
	sw	s0,40(sp)
	sw	s3,28(sp)
	.cfi_offset 8, -8
	.cfi_offset 19, -20
	mv	s0,a1
	mv	s3,a2
.LBB17:
.LBB18:
	.loc 2 56 11
	lui	a2,%hi(.LC2)
.LVL72:
.LBE18:
.LBE17:
	.loc 2 83 1
	sw	s1,36(sp)
	sw	s2,32(sp)
	.cfi_offset 9, -12
	.cfi_offset 18, -16
	mv	s1,a3
	mv	s2,a0
.LBB21:
.LBB19:
	.loc 2 56 11
	addi	a3,sp,12
.LVL73:
	addi	a2,a2,%lo(.LC2)
	mv	a1,s3
.LVL74:
	mv	a0,s0
.LVL75:
.LBE19:
.LBE21:
	.loc 2 83 1
	sw	ra,44(sp)
	.cfi_offset 1, -4
	.loc 2 86 9
	sw	zero,8(sp)
	.loc 2 89 5 is_stmt 1
.LVL76:
.LBB22:
.LBB20:
	.loc 2 53 5
	.loc 2 54 5
	.loc 2 56 5
	.loc 2 56 11 is_stmt 0
	call	fdt_getprop
.LVL77:
	.loc 2 57 5 is_stmt 1
	.loc 2 57 8 is_stmt 0
	beq	a0,zero,.L33
	.loc 2 60 5 is_stmt 1
	.loc 2 60 8 is_stmt 0
	lw	a4,12(sp)
	li	a5,4
	bne	a4,a5,.L34
	.loc 2 60 35
	lw	a0,0(a0)
.LVL78:
	call	fdt32_to_cpu
.LVL79:
	.loc 2 60 31
	li	a5,-1
	.loc 2 60 35
	mv	a1,a0
	.loc 2 60 31
	bne	a0,a5,.L35
.L34:
	.loc 2 61 9 is_stmt 1
.LVL80:
.LBE20:
.LBE22:
	.loc 2 90 5
	.loc 2 91 16 is_stmt 0
	li	a0,-6
.LVL81:
.L31:
	.loc 2 123 1
	lw	ra,44(sp)
	.cfi_remember_state
	.cfi_restore 1
	lw	s0,40(sp)
	.cfi_restore 8
	lw	s1,36(sp)
	.cfi_restore 9
.LVL82:
	lw	s2,32(sp)
	.cfi_restore 18
.LVL83:
	lw	s3,28(sp)
	.cfi_restore 19
.LVL84:
	addi	sp,sp,48
	.cfi_def_cfa_offset 0
	jr	ra
.LVL85:
.L35:
	.cfi_restore_state
	.loc 2 90 5 is_stmt 1
	.loc 2 94 5
	.loc 2 94 8 is_stmt 0
	bne	a0,zero,.L37
.LVL86:
.L33:
	.loc 2 96 9 is_stmt 1
	.loc 2 96 16 is_stmt 0
	lui	a2,%hi(.LC3)
	mv	a0,s0
	addi	a3,sp,8
	addi	a2,a2,%lo(.LC3)
	mv	a1,s3
	call	fdt_getprop
.LVL87:
	mv	s0,a0
.LVL88:
	.loc 2 97 9 is_stmt 1
	.loc 2 97 12 is_stmt 0
	beq	a0,zero,.L38
	.loc 2 98 13 is_stmt 1
	.loc 2 98 19 is_stmt 0
	mv	a1,a0
	mv	a0,s2
	call	fdt_path_offset
.LVL89:
.L39:
	.loc 2 111 5 is_stmt 1
	.loc 2 111 8 is_stmt 0
	bge	a0,zero,.L40
	.loc 2 111 17 discriminator 1
	lw	a4,8(sp)
	li	a5,-1
	bne	a4,a5,.L31
	.loc 2 112 13
	li	a0,-16
.LVL90:
	j	.L31
.L38:
	.loc 2 100 13 is_stmt 1
	.loc 2 100 17 is_stmt 0
	lw	a0,8(sp)
.LVL91:
	j	.L39
.LVL92:
.L37:
	.loc 2 102 9 is_stmt 1
	.loc 2 102 15 is_stmt 0
	mv	a0,s2
.LVL93:
	call	fdt_node_offset_by_phandle
.LVL94:
	.loc 2 85 17
	li	s0,0
.LVL95:
	j	.L39
.LVL96:
.L40:
	.loc 2 115 5 is_stmt 1
	.loc 2 119 5
	.loc 2 119 8 is_stmt 0
	beq	s1,zero,.L31
	.loc 2 120 9 is_stmt 1
	.loc 2 120 16 is_stmt 0
	sw	s0,0(s1)
	j	.L31
	.cfi_endproc
.LFE41:
	.size	overlay_get_target, .-overlay_get_target
	.section	.text.overlay_apply_node,"ax",@progbits
	.align	1
	.type	overlay_apply_node, @function
overlay_apply_node:
.LFB50:
	.loc 2 581 1 is_stmt 1
	.cfi_startproc
.LVL97:
	.loc 2 582 5
	.loc 2 583 5
	.loc 2 585 5
	.loc 2 581 1 is_stmt 0
	addi	sp,sp,-48
	.cfi_def_cfa_offset 48
	sw	s2,32(sp)
	sw	s3,28(sp)
	.cfi_offset 18, -16
	.cfi_offset 19, -20
	mv	s2,a0
	mv	s3,a1
	.loc 2 585 21
	mv	a0,a2
.LVL98:
	mv	a1,a3
.LVL99:
	.loc 2 581 1
	sw	s0,40(sp)
	sw	s1,36(sp)
	sw	s4,24(sp)
	sw	s5,20(sp)
	sw	ra,44(sp)
	sw	s6,16(sp)
	.cfi_offset 8, -8
	.cfi_offset 9, -12
	.cfi_offset 20, -24
	.cfi_offset 21, -28
	.cfi_offset 1, -4
	.cfi_offset 22, -32
	.loc 2 581 1
	mv	s0,a2
	mv	s4,a3
	.loc 2 585 21
	call	fdt_first_property_offset
.LVL100:
	mv	s1,a0
.LVL101:
.LBB23:
	.loc 2 593 12
	li	s5,-1
.L47:
.LBE23:
	.loc 2 585 5 discriminator 1
	bge	s1,zero,.L50
	.loc 2 603 5 is_stmt 1
	.loc 2 603 20 is_stmt 0
	mv	a1,s4
	mv	a0,s0
	call	fdt_first_subnode
.LVL102:
	mv	s1,a0
.LVL103:
.LBB24:
	.loc 2 609 12
	li	s5,-2
	.loc 2 611 16
	li	s6,-1
.LVL104:
.L51:
.LBE24:
	.loc 2 603 5 discriminator 1
	bge	s1,zero,.L53
	.loc 2 623 12
	li	a0,0
.LVL105:
.L46:
	.loc 2 624 1
	lw	ra,44(sp)
	.cfi_remember_state
	.cfi_restore 1
	lw	s0,40(sp)
	.cfi_restore 8
.LVL106:
	lw	s1,36(sp)
	.cfi_restore 9
	lw	s2,32(sp)
	.cfi_restore 18
.LVL107:
	lw	s3,28(sp)
	.cfi_restore 19
.LVL108:
	lw	s4,24(sp)
	.cfi_restore 20
	lw	s5,20(sp)
	.cfi_restore 21
	lw	s6,16(sp)
	.cfi_restore 22
	addi	sp,sp,48
	.cfi_def_cfa_offset 0
	jr	ra
.LVL109:
.L50:
	.cfi_restore_state
.LBB25:
	.loc 2 586 9 is_stmt 1
	.loc 2 587 9
	.loc 2 588 9
	.loc 2 589 9
	.loc 2 591 9
	.loc 2 591 16 is_stmt 0
	addi	a3,sp,12
	addi	a2,sp,8
	mv	a1,s1
	mv	a0,s0
	call	fdt_getprop_by_offset
.LVL110:
	mv	a3,a0
.LVL111:
	.loc 2 593 9 is_stmt 1
	.loc 2 593 22 is_stmt 0
	lw	a0,12(sp)
.LVL112:
	.loc 2 593 12
	beq	a0,s5,.L55
	.loc 2 595 9 is_stmt 1
	.loc 2 595 12 is_stmt 0
	blt	a0,zero,.L46
	.loc 2 598 9 is_stmt 1
	.loc 2 598 15 is_stmt 0
	lw	a2,8(sp)
	mv	a4,a0
	mv	a1,s3
	mv	a0,s2
	call	fdt_setprop
.LVL113:
	.loc 2 599 9 is_stmt 1
	.loc 2 599 12 is_stmt 0
	bne	a0,zero,.L46
.LBE25:
	.loc 2 585 86
	mv	a1,s1
	mv	a0,s0
.LVL114:
	call	fdt_next_property_offset
.LVL115:
	mv	s1,a0
.LVL116:
	j	.L47
.LVL117:
.L53:
.LBB26:
	.loc 2 604 9 is_stmt 1
	.loc 2 604 28 is_stmt 0
	li	a2,0
	mv	a1,s1
	mv	a0,s0
	call	fdt_get_name
.LVL118:
	mv	s4,a0
.LVL119:
	.loc 2 605 9 is_stmt 1
	.loc 2 606 9
	.loc 2 608 9
	.loc 2 608 17 is_stmt 0
	mv	a2,a0
	mv	a1,s3
	mv	a0,s2
.LVL120:
	call	fdt_add_subnode
.LVL121:
	.loc 2 609 9 is_stmt 1
	.loc 2 609 12 is_stmt 0
	bne	a0,s5,.L52
	.loc 2 610 13 is_stmt 1
	.loc 2 610 21 is_stmt 0
	mv	a2,s4
	mv	a1,s3
	mv	a0,s2
.LVL122:
	call	fdt_subnode_offset
.LVL123:
	.loc 2 611 13 is_stmt 1
	.loc 2 611 16 is_stmt 0
	beq	a0,s6,.L55
.L52:
	.loc 2 615 9 is_stmt 1
	.loc 2 615 12 is_stmt 0
	blt	a0,zero,.L46
	.loc 2 618 9 is_stmt 1
	.loc 2 618 15 is_stmt 0
	mv	a1,a0
	mv	a3,s1
	mv	a2,s0
	mv	a0,s2
.LVL124:
	call	overlay_apply_node
.LVL125:
	.loc 2 619 9 is_stmt 1
	.loc 2 619 12 is_stmt 0
	bne	a0,zero,.L46
.LBE26:
	.loc 2 603 75 discriminator 2
	mv	a1,s1
	mv	a0,s0
.LVL126:
	call	fdt_next_subnode
.LVL127:
	mv	s1,a0
.LVL128:
	j	.L51
.LVL129:
.L55:
.LBB27:
	.loc 2 612 24
	li	a0,-13
	j	.L46
.LBE27:
	.cfi_endproc
.LFE50:
	.size	overlay_apply_node, .-overlay_apply_node
	.section	.text.fdt_overlay_apply,"ax",@progbits
	.align	1
	.globl	fdt_overlay_apply
	.type	fdt_overlay_apply, @function
fdt_overlay_apply:
.LFB54:
	.loc 2 843 1 is_stmt 1
	.cfi_startproc
.LVL130:
	.loc 2 844 5
	.loc 2 843 1 is_stmt 0
	addi	sp,sp,-112
	.cfi_def_cfa_offset 112
	sw	ra,108(sp)
	sw	s0,104(sp)
	sw	s1,100(sp)
	sw	s2,96(sp)
	sw	s3,92(sp)
	.cfi_offset 1, -4
	.cfi_offset 8, -8
	.cfi_offset 9, -12
	.cfi_offset 18, -16
	.cfi_offset 19, -20
	mv	s1,a0
	mv	s0,a1
	sw	s4,88(sp)
	sw	s5,84(sp)
	sw	s6,80(sp)
	sw	s7,76(sp)
	sw	s8,72(sp)
	sw	s9,68(sp)
	sw	s10,64(sp)
	sw	s11,60(sp)
	.cfi_offset 20, -24
	.cfi_offset 21, -28
	.cfi_offset 22, -32
	.cfi_offset 23, -36
	.cfi_offset 24, -40
	.cfi_offset 25, -44
	.cfi_offset 26, -48
	.cfi_offset 27, -52
	.loc 2 844 22
	call	fdt_get_max_phandle
.LVL131:
	mv	s2,a0
.LVL132:
	.loc 2 845 5 is_stmt 1
.LBB62:
	.loc 2 847 7
	.loc 2 847 17
	.loc 2 847 29 is_stmt 0
	mv	a0,s1
.LVL133:
	call	fdt_ro_probe_
.LVL134:
	mv	s3,a0
.LVL135:
	.loc 2 847 20
	bne	a0,zero,.L57
.LBE62:
	.loc 2 847 69 is_stmt 1 discriminator 2
.LBB63:
	.loc 2 848 7 discriminator 2
	.loc 2 848 17 discriminator 2
	.loc 2 848 29 is_stmt 0 discriminator 2
	mv	a0,s0
.LVL136:
	call	fdt_ro_probe_
.LVL137:
	mv	s3,a0
.LVL138:
	.loc 2 848 20 discriminator 2
	bne	a0,zero,.L57
.LBE63:
	.loc 2 848 70 is_stmt 1
	.loc 2 850 5
.LVL139:
.LBB64:
.LBB65:
	.loc 2 221 5
	.loc 2 221 12 is_stmt 0
	mv	a2,s2
	li	a1,0
	mv	a0,s0
.LVL140:
	call	overlay_adjust_node_phandles
.LVL141:
	mv	s3,a0
.LVL142:
.LBE65:
.LBE64:
	.loc 2 851 5 is_stmt 1
	mv	s11,a0
	.loc 2 851 8 is_stmt 0
	bne	a0,zero,.L59
	.loc 2 854 5 is_stmt 1
.LVL143:
.LBB66:
.LBB67:
	.loc 2 349 5
	.loc 2 351 5
	.loc 2 351 14 is_stmt 0
	lui	a1,%hi(.LC4)
	addi	a1,a1,%lo(.LC4)
	mv	a0,s0
.LVL144:
	call	fdt_path_offset
.LVL145:
	mv	s11,a0
.LVL146:
	.loc 2 352 5 is_stmt 1
	.loc 2 352 8 is_stmt 0
	bge	a0,zero,.L60
	.loc 2 354 9 is_stmt 1
	.loc 2 354 12 is_stmt 0
	li	a5,-1
	bne	a0,a5,.L59
.LVL147:
.L63:
.LBE67:
.LBE66:
	.loc 2 858 5 is_stmt 1
.LBB69:
.LBB70:
	.loc 2 534 5
	.loc 2 535 5
	.loc 2 538 5
	.loc 2 538 18 is_stmt 0
	lui	a1,%hi(.LC5)
	addi	a1,a1,%lo(.LC5)
	mv	a0,s0
	call	fdt_path_offset
.LVL148:
	.loc 2 539 8
	li	s2,-1
.LVL149:
	.loc 2 538 18
	mv	s11,a0
.LVL150:
	.loc 2 539 5 is_stmt 1
	.loc 2 539 8 is_stmt 0
	bne	a0,s2,.L126
.LVL151:
.L61:
.LBE70:
.LBE69:
	.loc 2 862 5 is_stmt 1
.LBB106:
.LBB107:
	.loc 2 643 5
	.loc 2 645 5
	.loc 2 645 21 is_stmt 0
	li	a1,0
	mv	a0,s0
	call	fdt_first_subnode
.LVL152:
	mv	s2,a0
.LVL153:
.LBB108:
	.loc 2 654 19
	lui	s4,%hi(.LC7)
	.loc 2 655 12
	li	s5,-1
.L64:
.LBE108:
	.loc 2 645 5
	bge	s2,zero,.L80
.LVL154:
.LBE107:
.LBE106:
	.loc 2 866 5 is_stmt 1
.LBB114:
.LBB115:
	.loc 2 719 5
	.loc 2 720 5
	.loc 2 721 5
	.loc 2 722 5
	.loc 2 723 5
	.loc 2 724 5
	.loc 2 725 5
	.loc 2 726 5
	.loc 2 727 5
	.loc 2 728 5
	.loc 2 730 5
	.loc 2 730 14 is_stmt 0
	lui	s2,%hi(.LC8)
	addi	a2,s2,%lo(.LC8)
	li	a1,0
	mv	a0,s0
	call	fdt_subnode_offset
.LVL155:
	mv	s4,a0
.LVL156:
	.loc 2 733 5 is_stmt 1
	.loc 2 733 8 is_stmt 0
	blt	a0,zero,.L82
	.loc 2 736 5 is_stmt 1
	.loc 2 736 16 is_stmt 0
	addi	a2,s2,%lo(.LC8)
	li	a1,0
	mv	a0,s1
.LVL157:
	call	fdt_subnode_offset
.LVL158:
	.loc 2 739 8
	li	a5,-1
	.loc 2 736 16
	mv	s5,a0
.LVL159:
	.loc 2 739 5 is_stmt 1
	.loc 2 739 8 is_stmt 0
	bne	a0,a5,.L83
	.loc 2 740 9 is_stmt 1
	.loc 2 740 20 is_stmt 0
	addi	a2,s2,%lo(.LC8)
	li	a1,0
	mv	a0,s1
.LVL160:
	call	fdt_add_subnode
.LVL161:
	mv	s5,a0
.LVL162:
.L83:
	.loc 2 743 5 is_stmt 1
	.loc 2 743 8 is_stmt 0
	blt	s5,zero,.L107
	.loc 2 747 5 is_stmt 1
	.loc 2 747 17 is_stmt 0
	mv	a1,s4
	mv	a0,s0
.LVL163:
	call	fdt_first_property_offset
.LVL164:
	mv	s7,a0
.LVL165:
	.loc 2 761 12
	li	s9,47
.LVL166:
.L85:
	.loc 2 747 5
	blt	s7,zero,.L82
	.loc 2 748 9 is_stmt 1
	.loc 2 748 16 is_stmt 0
	addi	a2,sp,32
	addi	a3,sp,28
	mv	a1,s7
	mv	a0,s0
.LVL167:
	call	fdt_getprop_by_offset
.LVL168:
	mv	s6,a0
.LVL169:
	.loc 2 749 9 is_stmt 1
	lw	a2,28(sp)
	.loc 2 749 12 is_stmt 0
	bne	a0,zero,.L86
	.loc 2 750 13 is_stmt 1
	.loc 2 750 20 is_stmt 0
	mv	s11,a2
.LVL170:
.LBE115:
.LBE114:
	.loc 2 867 5 is_stmt 1
	.loc 2 867 8 is_stmt 0
	bne	a2,zero,.L59
.LVL171:
.L82:
	.loc 2 873 5 is_stmt 1
.LBB127:
.LBB128:
	.loc 3 295 61
	.loc 3 295 113
.LBE128:
.LBE127:
	.loc 1 122 5
.LBB130:
.LBB129:
	.loc 3 295 125 is_stmt 0
	li	a5,-1
	sw	a5,0(s0)
.LVL172:
.L57:
.LBE129:
.LBE130:
	.loc 2 890 1
	lw	ra,108(sp)
	.cfi_remember_state
	.cfi_restore 1
	lw	s0,104(sp)
	.cfi_restore 8
.LVL173:
	mv	a0,s3
	lw	s1,100(sp)
	.cfi_restore 9
.LVL174:
	lw	s2,96(sp)
	.cfi_restore 18
	lw	s3,92(sp)
	.cfi_restore 19
	lw	s4,88(sp)
	.cfi_restore 20
	lw	s5,84(sp)
	.cfi_restore 21
	lw	s6,80(sp)
	.cfi_restore 22
	lw	s7,76(sp)
	.cfi_restore 23
	lw	s8,72(sp)
	.cfi_restore 24
	lw	s9,68(sp)
	.cfi_restore 25
	lw	s10,64(sp)
	.cfi_restore 26
	lw	s11,60(sp)
	.cfi_restore 27
	addi	sp,sp,112
	.cfi_def_cfa_offset 0
	jr	ra
.LVL175:
.L60:
	.cfi_restore_state
.LBB131:
.LBB68:
	.loc 2 363 5 is_stmt 1
	.loc 2 363 12 is_stmt 0
	mv	a2,a0
	mv	a3,s2
	li	a1,0
	mv	a0,s0
.LVL176:
	call	overlay_update_local_node_references
.LVL177:
	mv	s11,a0
.LVL178:
.LBE68:
.LBE131:
	.loc 2 855 5 is_stmt 1
	.loc 2 855 8 is_stmt 0
	beq	a0,zero,.L63
.LVL179:
.L59:
	.loc 2 881 5 is_stmt 1
.LBB132:
.LBB133:
	.loc 3 295 61
	.loc 3 295 113
.LBE133:
.LBE132:
	.loc 1 122 5
.LBB135:
.LBB134:
	.loc 3 295 125 is_stmt 0
	li	a5,-1
	sw	a5,0(s0)
.LVL180:
.LBE134:
.LBE135:
	.loc 2 887 5 is_stmt 1
.LBB136:
.LBB137:
	.loc 3 295 61
	.loc 3 295 113
.LBE137:
.LBE136:
	.loc 1 122 5
.LBB139:
.LBB138:
	.loc 3 295 125 is_stmt 0
	sw	a5,0(s1)
.LBE138:
.LBE139:
	.loc 2 889 12
	mv	s3,s11
	j	.L57
.LVL181:
.L126:
.LBB140:
.LBB103:
	.loc 2 541 5 is_stmt 1
	.loc 2 541 8 is_stmt 0
	blt	a0,zero,.L59
	.loc 2 545 5 is_stmt 1
	.loc 2 545 19 is_stmt 0
	lui	a1,%hi(.LC6)
	addi	a1,a1,%lo(.LC6)
	mv	a0,s1
.LVL182:
	call	fdt_path_offset
.LVL183:
	mv	s5,a0
.LVL184:
	.loc 2 546 5 is_stmt 1
	.loc 2 546 8 is_stmt 0
	blt	a0,s2,.L107
	.loc 2 549 5 is_stmt 1
	.loc 2 549 21 is_stmt 0
	mv	a1,s11
	mv	a0,s0
.LVL185:
	call	fdt_first_property_offset
.LVL186:
.L128:
	.loc 2 549 92
	mv	s6,a0
.LVL187:
	.loc 2 549 5
	blt	a0,zero,.L61
.LBB71:
	.loc 2 550 9 is_stmt 1
	.loc 2 552 9
.LVL188:
.LBB72:
.LBB73:
	.loc 2 453 5
	.loc 2 454 5
	.loc 2 455 5
	.loc 2 457 5
	.loc 2 457 13 is_stmt 0
	addi	a3,sp,32
	addi	a2,sp,28
	mv	a1,s6
	mv	a0,s0
.LVL189:
	call	fdt_getprop_by_offset
.LVL190:
	mv	s4,a0
.LVL191:
	.loc 2 459 5 is_stmt 1
.LBB74:
.LBB75:
.LBB76:
	.loc 2 402 8 is_stmt 0
	li	s9,-1
.LBE76:
.LBE75:
.LBE74:
	.loc 2 459 8
	bne	a0,zero,.L66
	.loc 2 460 9 is_stmt 1
	.loc 2 460 17 is_stmt 0
	lw	s11,32(sp)
	.loc 2 460 12
	li	a5,-1
	bne	s11,a5,.L67
.LVL192:
.LBE73:
.LBE72:
	.loc 2 553 9 is_stmt 1
.LBB96:
.LBB92:
	.loc 2 461 20 is_stmt 0
	li	s11,-13
	j	.L59
.LVL193:
.L108:
.LBB87:
	.loc 2 480 15
	mv	s4,s7
.LVL194:
.L66:
.LBE87:
	.loc 2 466 5 is_stmt 1
.LBB88:
	.loc 2 467 9
	.loc 2 468 9
	.loc 2 469 9
	.loc 2 470 9
	.loc 2 471 9
	.loc 2 472 9
	.loc 2 474 9
	.loc 2 474 21 is_stmt 0
	lw	a2,32(sp)
	li	a1,0
	mv	a0,s4
	call	memchr
.LVL195:
	.loc 2 475 9 is_stmt 1
	.loc 2 475 12 is_stmt 0
	beq	a0,zero,.L90
	.loc 2 477 9 is_stmt 1
	.loc 2 479 13 is_stmt 0
	lw	a5,32(sp)
	.loc 2 477 31
	sub	s10,a0,s4
.LVL196:
	.loc 2 479 9 is_stmt 1
	.loc 2 480 15 is_stmt 0
	addi	s7,s10,1
	.loc 2 479 13
	addi	a5,a5,-1
	sub	a5,a5,s10
	.loc 2 483 15
	mv	a2,s10
	li	a1,58
	mv	a0,s4
.LVL197:
	.loc 2 479 13
	sw	a5,32(sp)
	.loc 2 480 9 is_stmt 1
	.loc 2 480 15 is_stmt 0
	add	s7,s4,s7
.LVL198:
	.loc 2 482 9 is_stmt 1
	.loc 2 483 9
	.loc 2 483 15 is_stmt 0
	call	memchr
.LVL199:
	.loc 2 484 9 is_stmt 1
	.loc 2 484 12 is_stmt 0
	beq	a0,zero,.L90
	.loc 2 484 18
	lbu	s11,0(a0)
	li	a5,58
	bne	s11,a5,.L90
	.loc 2 487 9 is_stmt 1
	.loc 2 487 24 is_stmt 0
	sub	s8,a0,s4
.LVL200:
	.loc 2 488 9 is_stmt 1
	.loc 2 488 36 is_stmt 0
	addi	a2,s10,-1
	.loc 2 488 12
	beq	s8,a2,.L90
	.loc 2 491 9 is_stmt 1
.LVL201:
	.loc 2 492 9
	.loc 2 492 14 is_stmt 0
	addi	s2,a0,1
.LVL202:
	.loc 2 493 9 is_stmt 1
	.loc 2 493 15 is_stmt 0
	sub	a2,a2,s8
.LVL203:
	li	a1,58
	mv	a0,s2
.LVL204:
	call	memchr
.LVL205:
	.loc 2 494 9 is_stmt 1
	.loc 2 494 12 is_stmt 0
	beq	a0,zero,.L90
	.loc 2 494 18
	lbu	a5,0(a0)
	bne	a5,s11,.L90
	.loc 2 497 9 is_stmt 1
	.loc 2 497 24 is_stmt 0
	sub	s10,a0,s2
.LVL206:
	.loc 2 498 9 is_stmt 1
	.loc 2 498 12 is_stmt 0
	beq	s10,zero,.L90
	.loc 2 501 9 is_stmt 1
	.loc 2 501 31 is_stmt 0
	addi	s11,a0,1
	.loc 2 501 19
	li	a2,10
	addi	a1,sp,36
	mv	a0,s11
.LVL207:
	call	strtoul
.LVL208:
	.loc 2 502 14
	lw	a4,36(sp)
	.loc 2 501 19
	sw	a0,8(sp)
.LVL209:
	.loc 2 502 9 is_stmt 1
	.loc 2 502 12 is_stmt 0
	lbu	a3,0(a4)
	bne	a3,zero,.L90
	.loc 2 502 31
	bgeu	s11,a4,.L90
	.loc 2 505 9 is_stmt 1
.LVL210:
.LBB82:
.LBB77:
	.loc 2 396 5
	.loc 2 397 5
	.loc 2 398 5
	.loc 2 399 5
	.loc 2 400 5
	.loc 2 402 5
	.loc 2 402 8 is_stmt 0
	beq	s5,s9,.L107
	.loc 2 405 5 is_stmt 1
	.loc 2 405 19 is_stmt 0
	lw	a2,28(sp)
	mv	a1,s5
	addi	a3,sp,44
	mv	a0,s1
.LVL211:
	call	fdt_getprop
.LVL212:
	mv	a1,a0
.LVL213:
	.loc 2 407 5 is_stmt 1
	.loc 2 407 8 is_stmt 0
	bne	a0,zero,.L70
	.loc 2 408 9 is_stmt 1
	.loc 2 408 16 is_stmt 0
	lw	s11,44(sp)
.LVL214:
.L71:
.LBE77:
.LBE82:
	.loc 2 508 9 is_stmt 1
	.loc 2 508 12 is_stmt 0
	bne	s11,zero,.L59
.LBE88:
	.loc 2 510 5
	lw	a5,32(sp)
	bgt	a5,zero,.L108
.LVL215:
.L104:
.LBE92:
.LBE96:
.LBE71:
	.loc 2 549 92
	mv	a1,s6
	mv	a0,s0
	call	fdt_next_property_offset
.LVL216:
	j	.L128
.LVL217:
.L70:
.LBB100:
.LBB97:
.LBB93:
.LBB89:
.LBB83:
.LBB78:
	.loc 2 410 5 is_stmt 1
	.loc 2 410 18 is_stmt 0
	mv	a0,s1
.LVL218:
	call	fdt_path_offset
.LVL219:
	mv	s11,a0
.LVL220:
	.loc 2 411 5 is_stmt 1
	.loc 2 411 8 is_stmt 0
	blt	a0,zero,.L59
	.loc 2 414 5 is_stmt 1
	.loc 2 414 15 is_stmt 0
	mv	a1,a0
	mv	a0,s1
.LVL221:
	call	fdt_get_phandle
.LVL222:
	.loc 2 415 5 is_stmt 1
	.loc 2 415 8 is_stmt 0
	bne	a0,zero,.L72
.LVL223:
.LBE78:
.LBE83:
	.loc 2 508 9 is_stmt 1
.LBB84:
.LBB79:
	.loc 2 416 16 is_stmt 0
	li	s11,-1
	j	.L59
.LVL224:
.L72:
	sw	a0,12(sp)
	.loc 2 418 5 is_stmt 1
	.loc 2 418 17 is_stmt 0
	mv	a2,s8
	mv	a1,s4
	mv	a0,s0
.LVL225:
	call	fdt_path_offset_namelen
.LVL226:
	mv	s11,a0
.LVL227:
	.loc 2 419 5 is_stmt 1
	.loc 2 419 8 is_stmt 0
	lw	a5,12(sp)
	bne	a0,s9,.L74
.LVL228:
.L90:
.LBE79:
.LBE84:
.LBE89:
.LBE93:
.LBE97:
.LBE100:
.LBE103:
.LBE140:
.LBB141:
.LBB123:
	.loc 2 767 20
	li	s11,-16
	j	.L59
.LVL229:
.L74:
.LBE123:
.LBE141:
.LBB142:
.LBB104:
.LBB101:
.LBB98:
.LBB94:
.LBB90:
.LBB85:
.LBB80:
	.loc 2 421 5 is_stmt 1
	.loc 2 421 8 is_stmt 0
	blt	a0,zero,.L59
	.loc 2 424 5 is_stmt 1
	.loc 2 424 20 is_stmt 0
	mv	a0,a5
.LVL230:
	call	cpu_to_fdt32
.LVL231:
	.loc 2 425 12
	lw	a4,8(sp)
	.loc 2 424 18
	sw	a0,40(sp)
	.loc 2 425 5 is_stmt 1
	.loc 2 425 12 is_stmt 0
	mv	a1,s11
	li	a6,4
	addi	a5,sp,40
	mv	a3,s10
	mv	a2,s2
	mv	a0,s0
	call	fdt_setprop_inplace_namelen_partial
.LVL232:
	mv	s11,a0
.LVL233:
	j	.L71
.LVL234:
.L67:
.LBE80:
.LBE85:
.LBE90:
.LBE94:
.LBE98:
	.loc 2 553 9 is_stmt 1
	.loc 2 553 12 is_stmt 0
	beq	s11,zero,.L104
	j	.L59
.LVL235:
.L80:
.LBE101:
.LBE104:
.LBE142:
.LBB143:
.LBB112:
.LBB109:
	.loc 2 646 9 is_stmt 1
	.loc 2 647 9
	.loc 2 648 9
	.loc 2 654 9
	.loc 2 654 19 is_stmt 0
	addi	a2,s4,%lo(.LC7)
	mv	a1,s2
	mv	a0,s0
.LVL236:
	call	fdt_subnode_offset
.LVL237:
	mv	s11,a0
.LVL238:
	.loc 2 655 9 is_stmt 1
	.loc 2 655 12 is_stmt 0
	bne	a0,s5,.L78
.LVL239:
.L79:
.LBE109:
	.loc 2 645 75
	mv	a1,s2
	mv	a0,s0
	call	fdt_next_subnode
.LVL240:
	mv	s2,a0
.LVL241:
	j	.L64
.LVL242:
.L78:
.LBB110:
	.loc 2 658 9 is_stmt 1
	.loc 2 658 12 is_stmt 0
	blt	a0,zero,.L59
	.loc 2 661 9 is_stmt 1
	.loc 2 661 18 is_stmt 0
	mv	a1,s0
	li	a3,0
	mv	a2,s2
	mv	a0,s1
.LVL243:
	call	overlay_get_target
.LVL244:
	mv	a1,a0
.LVL245:
	.loc 2 662 9 is_stmt 1
	.loc 2 662 12 is_stmt 0
	blt	a0,zero,.L109
	.loc 2 665 9 is_stmt 1
	.loc 2 665 15 is_stmt 0
	mv	a3,s11
	mv	a2,s0
	mv	a0,s1
.LVL246:
	call	overlay_apply_node
.LVL247:
	mv	s11,a0
.LVL248:
	.loc 2 666 9 is_stmt 1
	.loc 2 666 12 is_stmt 0
	beq	a0,zero,.L79
	j	.L59
.LVL249:
.L86:
.LBE110:
.LBE112:
.LBE143:
.LBB144:
.LBB124:
	.loc 2 753 9 is_stmt 1
	.loc 2 753 12 is_stmt 0
	bgt	a2,zero,.L87
.LVL250:
.L88:
	.loc 2 754 20
	li	s11,-15
	j	.L59
.LVL251:
.L87:
	.loc 2 753 29
	li	a1,0
	call	memchr
.LVL252:
	.loc 2 753 66
	lw	s2,28(sp)
	addi	a5,s2,-1
	.loc 2 753 61
	add	a5,s6,a5
	.loc 2 753 26
	bne	a0,a5,.L88
	.loc 2 757 9 is_stmt 1
	.loc 2 761 12 is_stmt 0
	lbu	a5,0(s6)
	.loc 2 757 11
	add	s2,s6,s2
.LVL253:
	.loc 2 761 9 is_stmt 1
	.loc 2 761 12 is_stmt 0
	bne	a5,s9,.L88
	.loc 2 765 9 is_stmt 1
	.loc 2 765 13 is_stmt 0
	addi	s8,s6,1
	li	a1,47
	mv	a0,s8
	call	strchr
.LVL254:
	mv	s4,a0
.LVL255:
	.loc 2 766 9 is_stmt 1
	.loc 2 766 12 is_stmt 0
	beq	a0,zero,.L90
	.loc 2 769 9 is_stmt 1
.LVL256:
	.loc 2 770 9
	.loc 2 770 27 is_stmt 0
	sub	s6,a0,s6
.LVL257:
	.loc 2 774 16
	sub	a5,s2,a0
	.loc 2 774 12
	li	a4,12
	.loc 2 770 23
	addi	s6,s6,-1
.LVL258:
	.loc 2 773 9 is_stmt 1
	.loc 2 774 9
	.loc 2 774 12 is_stmt 0
	ble	a5,a4,.L90
	.loc 2 774 30
	lui	a5,%hi(.LC9)
	li	a2,13
	addi	a1,a5,%lo(.LC9)
	call	memcmp
.LVL259:
	.loc 2 774 27
	bne	a0,zero,.L90
	.loc 2 777 9 is_stmt 1
	.loc 2 781 15 is_stmt 0
	mv	a2,s8
	mv	a3,s6
	li	a1,0
	mv	a0,s0
	.loc 2 777 18
	addi	s4,s4,13
.LVL260:
	.loc 2 778 9 is_stmt 1
	.loc 2 781 15 is_stmt 0
	call	fdt_subnode_offset_namelen
.LVL261:
	.loc 2 778 22
	sub	s2,s2,s4
.LVL262:
	.loc 2 781 9 is_stmt 1
	.loc 2 781 15 is_stmt 0
	mv	s8,a0
.LVL263:
	.loc 2 784 9 is_stmt 1
	.loc 2 784 12 is_stmt 0
	blt	a0,zero,.L90
	.loc 2 786 9 is_stmt 1
.LVL264:
	.loc 2 789 9
	.loc 2 789 15 is_stmt 0
	lui	a5,%hi(.LC7)
	mv	a1,a0
	addi	a2,a5,%lo(.LC7)
	mv	a0,s0
.LVL265:
	call	fdt_subnode_offset
.LVL266:
	.loc 2 790 9 is_stmt 1
	.loc 2 790 12 is_stmt 0
	blt	a0,zero,.L90
	.loc 2 794 9 is_stmt 1
	.loc 2 794 15 is_stmt 0
	addi	a3,sp,36
	mv	a2,s8
	mv	a1,s0
	mv	a0,s1
.LVL267:
	call	overlay_get_target
.LVL268:
	mv	s6,a0
.LVL269:
	.loc 2 795 9 is_stmt 1
	.loc 2 795 12 is_stmt 0
	blt	a0,zero,.L111
	.loc 2 797 9 is_stmt 1
.LVL270:
	.loc 2 800 9
	.loc 2 800 13 is_stmt 0
	lw	a0,36(sp)
.LVL271:
	.loc 2 800 12
	bne	a0,zero,.L91
	.loc 2 801 13 is_stmt 1
.LVL272:
.LBB116:
.LBB117:
	.loc 2 675 5
	.loc 2 676 5
.LBB118:
	.loc 2 678 7
	.loc 2 678 17
	.loc 2 678 29 is_stmt 0
	mv	a0,s1
	call	fdt_ro_probe_
.LVL273:
	mv	s11,a0
.LVL274:
	.loc 2 678 20
	bne	a0,zero,.L92
	mv	a5,s6
.LVL275:
.L96:
.LBE118:
	.loc 2 678 69 is_stmt 1
	.loc 2 680 5
	.loc 2 681 9
	.loc 2 681 16 is_stmt 0
	mv	a1,a5
	addi	a2,sp,44
	mv	a0,s1
	sw	a5,8(sp)
	call	fdt_get_name
.LVL276:
	.loc 2 682 9 is_stmt 1
	lw	a4,44(sp)
	.loc 2 682 12 is_stmt 0
	lw	a5,8(sp)
	bne	a0,zero,.L93
	.loc 2 683 13 is_stmt 1
	.loc 2 683 20 is_stmt 0
	mv	s11,a4
.LVL277:
.L92:
.LBE117:
.LBE116:
	.loc 2 802 13 is_stmt 1
	.loc 2 802 16 is_stmt 0
	blt	s11,zero,.L59
	mv	s10,s11
	j	.L97
.LVL278:
.L93:
.LBB121:
.LBB119:
	.loc 2 686 9 is_stmt 1
	.loc 2 686 12 is_stmt 0
	beq	a4,zero,.L94
	.loc 2 689 9 is_stmt 1
	.loc 2 689 22 is_stmt 0
	mv	a1,a5
	mv	a0,s1
.LVL279:
	call	fdt_parent_offset
.LVL280:
	mv	a5,a0
.LVL281:
	.loc 2 690 9 is_stmt 1
	.loc 2 690 12 is_stmt 0
	blt	a0,zero,.L95
	.loc 2 692 9 is_stmt 1
	.loc 2 692 24 is_stmt 0
	lw	a4,44(sp)
	addi	a4,a4,1
	.loc 2 692 13
	add	s11,s11,a4
.LVL282:
	j	.L96
.LVL283:
.L94:
	.loc 2 696 5 is_stmt 1
	.loc 2 697 12 is_stmt 0
	li	s10,1
	.loc 2 696 8
	bne	s11,zero,.L92
.LVL284:
.L97:
.LBE119:
.LBE121:
	.loc 2 809 9 is_stmt 1
	.loc 2 810 28 is_stmt 0
	slti	a3,s10,2
	xori	a3,a3,1
	.loc 2 810 21
	add	a3,a3,s10
	.loc 2 809 15
	lw	a2,32(sp)
	.loc 2 810 33
	add	a3,a3,s2
	.loc 2 809 15
	addi	a4,sp,40
	addi	a3,a3,1
	mv	a1,s5
	mv	a0,s1
	call	fdt_setprop_placeholder
.LVL285:
	mv	s11,a0
.LVL286:
	.loc 2 811 9 is_stmt 1
	.loc 2 811 12 is_stmt 0
	blt	a0,zero,.L59
	.loc 2 814 9 is_stmt 1
	.loc 2 814 12 is_stmt 0
	lw	a4,36(sp)
	mv	s11,s6
	bne	a4,zero,.L98
	.loc 2 816 13 is_stmt 1
	.loc 2 816 19 is_stmt 0
	addi	a3,sp,36
	mv	a2,s8
	mv	a1,s0
	mv	a0,s1
.LVL287:
	call	overlay_get_target
.LVL288:
	mv	s11,a0
.LVL289:
	.loc 2 817 13 is_stmt 1
	.loc 2 817 16 is_stmt 0
	blt	a0,zero,.L59
.L98:
.LVL290:
	.loc 2 822 9 is_stmt 1
	.loc 2 823 12 is_stmt 0
	li	a4,1
	.loc 2 822 13
	lw	s6,40(sp)
.LVL291:
	.loc 2 823 9 is_stmt 1
	.loc 2 823 12 is_stmt 0
	ble	s10,a4,.L99
	.loc 2 824 13 is_stmt 1
	.loc 2 824 17 is_stmt 0
	lw	a1,36(sp)
	addi	a3,s10,1
	.loc 2 824 16
	bne	a1,zero,.L100
	.loc 2 825 17 is_stmt 1
	.loc 2 825 23 is_stmt 0
	mv	a1,s11
	mv	a2,s6
	mv	a0,s1
.LVL292:
	call	fdt_get_path
.LVL293:
	mv	s11,a0
.LVL294:
	.loc 2 826 17 is_stmt 1
	.loc 2 826 20 is_stmt 0
	blt	a0,zero,.L59
.LVL295:
.L101:
	.loc 2 834 9 is_stmt 1
	.loc 2 834 18 is_stmt 0
	add	a4,s6,s10
	.loc 2 835 26
	addi	a0,s10,1
	.loc 2 835 9
	mv	a2,s2
	.loc 2 834 18
	sb	s9,0(a4)
	.loc 2 835 9 is_stmt 1
	mv	a1,s4
	add	a0,s6,a0
	call	memcpy
.LVL296:
	.loc 2 836 9
	.loc 2 836 37 is_stmt 0
	add	s2,s6,s2
.LVL297:
	add	a5,s2,s10
	.loc 2 747 76
	mv	a1,s7
	.loc 2 836 37
	sb	zero,1(a5)
	.loc 2 747 76
	mv	a0,s0
	call	fdt_next_property_offset
.LVL298:
	mv	s7,a0
.LVL299:
	j	.L85
.LVL300:
.L91:
	.loc 2 806 13 is_stmt 1
	.loc 2 806 19 is_stmt 0
	call	strlen
.LVL301:
	mv	s10,a0
.LVL302:
	j	.L97
.LVL303:
.L100:
	.loc 2 829 17 is_stmt 1
	mv	a2,a3
	mv	a0,s6
.LVL304:
	call	memcpy
.LVL305:
	j	.L101
.LVL306:
.L99:
	.loc 2 832 13
	.loc 2 832 16 is_stmt 0
	addi	s10,s10,-1
.LVL307:
	j	.L101
.LVL308:
.L109:
.LBE124:
.LBE144:
.LBB145:
.LBB113:
.LBB111:
	.loc 2 661 18
	mv	s11,a0
.LVL309:
	j	.L59
.LVL310:
.L111:
.LBE111:
.LBE113:
.LBE145:
.LBB146:
.LBB125:
	.loc 2 794 15
	mv	s11,a0
.LVL311:
.LBE125:
.LBE146:
	.loc 2 867 5 is_stmt 1
	j	.L59
.LVL312:
.L95:
.LBB147:
.LBB126:
	.loc 2 802 13
.LBB122:
.LBB120:
	.loc 2 689 22 is_stmt 0
	mv	s11,a0
	j	.L59
.LVL313:
.L107:
.LBE120:
.LBE122:
.LBE126:
.LBE147:
.LBB148:
.LBB105:
.LBB102:
.LBB99:
.LBB95:
.LBB91:
.LBB86:
.LBB81:
	.loc 2 402 8
	mv	s11,s5
.LBE81:
.LBE86:
	.loc 2 508 9 is_stmt 1
	j	.L59
.LBE91:
.LBE95:
.LBE99:
.LBE102:
.LBE105:
.LBE148:
	.cfi_endproc
.LFE54:
	.size	fdt_overlay_apply, .-fdt_overlay_apply
	.section	.rodata.fdt_overlay_apply.str1.4,"aMS",@progbits,1
	.align	2
.LC4:
	.string	"/__local_fixups__"
	.zero	2
.LC5:
	.string	"/__fixups__"
.LC6:
	.string	"/__symbols__"
	.zero	3
.LC7:
	.string	"__overlay__"
.LC8:
	.string	"__symbols__"
.LC9:
	.string	"/__overlay__/"
	.section	.rodata.overlay_adjust_node_phandles.str1.4,"aMS",@progbits,1
	.align	2
.LC0:
	.string	"phandle"
.LC1:
	.string	"linux,phandle"
	.section	.rodata.overlay_get_target.str1.4,"aMS",@progbits,1
	.align	2
.LC2:
	.string	"target"
	.zero	1
.LC3:
	.string	"target-path"
	.text
.Letext0:
	.file 4 "/b-l/bl_iot_sdk_new/toolchain/riscv/Linux/lib/gcc/riscv64-unknown-elf/8.3.0/include/stdint-gcc.h"
	.file 5 "/b-l/bl_iot_sdk_new/toolchain/riscv/Linux/lib/gcc/riscv64-unknown-elf/8.3.0/include/stddef.h"
	.file 6 "/b-l/bl_iot_sdk_new/toolchain/riscv/Linux/riscv64-unknown-elf/include/sys/_types.h"
	.file 7 "/b-l/bl_iot_sdk_new/toolchain/riscv/Linux/riscv64-unknown-elf/include/sys/reent.h"
	.file 8 "/b-l/bl_iot_sdk_new/toolchain/riscv/Linux/riscv64-unknown-elf/include/sys/lock.h"
	.file 9 "/b-l/bl_iot_sdk_new/toolchain/riscv/Linux/riscv64-unknown-elf/include/stdlib.h"
	.file 10 "/b-l/bl_iot_sdk_new/components/stage/blfdt/inc/fdt.h"
	.file 11 "/b-l/bl_iot_sdk_new/components/stage/blfdt/inc/libfdt_internal.h"
	.file 12 "/b-l/bl_iot_sdk_new/toolchain/riscv/Linux/riscv64-unknown-elf/include/string.h"