	.file	"fdt_sw.c"
	.option nopic
	.attribute arch, "rv32i2p0_m2p0_f2p0_c2p0"
	.attribute unaligned_access, 0
	.attribute stack_align, 16
	.text
.Ltext0:
	.cfi_sections	.debug_frame
	.section	.text.fdt32_to_cpu,"ax",@progbits
	.align	1
	.type	fdt32_to_cpu, @function
fdt32_to_cpu:
.LFB3:
	.file 1 "/b-l/bl_iot_sdk_new/components/stage/blfdt/inc/libfdt_env.h"
	.loc 1 121 1
	.cfi_startproc
.LVL0:
	.loc 1 122 5
	.loc 1 122 212 is_stmt 0
	srli	a4,a0,24
	.loc 1 122 12
	slli	a5,a0,24
	or	a5,a5,a4
	.loc 1 122 112
	srli	a4,a0,8
	andi	a4,a4,0xff
	.loc 1 122 163
	srli	a0,a0,16
.LVL1:
	.loc 1 122 117
	slli	a4,a4,16
	.loc 1 122 163
	andi	a0,a0,0xff
	.loc 1 122 12
	or	a5,a5,a4
	.loc 1 122 168
	slli	a0,a0,8
	.loc 1 123 1
	or	a0,a5,a0
	ret
	.cfi_endproc
.LFE3:
	.size	fdt32_to_cpu, .-fdt32_to_cpu
	.set	cpu_to_fdt32,fdt32_to_cpu
	.section	.text.cpu_to_fdt64,"ax",@progbits
	.align	1
	.type	cpu_to_fdt64, @function
cpu_to_fdt64:
.LFB6:
	.loc 1 134 1 is_stmt 1
	.cfi_startproc
.LVL2:
	.loc 1 135 5
	.loc 1 135 111 is_stmt 0
	srli	a4,a0,8
	.loc 1 135 76
	andi	a4,a4,0xff
	.loc 1 135 12
	slli	a3,a0,24
	.loc 1 135 116
	slli	a4,a4,16
	.loc 1 135 12
	or	a3,a3,a4
	.loc 1 135 162
	srli	a4,a0,16
	.loc 1 135 127
	andi	a4,a4,0xff
	.loc 1 135 167
	slli	a4,a4,8
	.loc 1 135 12
	or	a3,a3,a4
	.loc 1 135 380
	srli	a5,a1,24
	.loc 1 135 178
	srli	a4,a0,24
	.loc 1 135 269
	slli	a0,a1,24
.LVL3:
	.loc 1 135 12
	or	a5,a5,a0
	.loc 1 135 315
	srli	a0,a1,8
	.loc 1 135 280
	andi	a0,a0,0xff
	.loc 1 135 320
	slli	a0,a0,16
	.loc 1 135 12
	or	a0,a5,a0
	.loc 1 135 366
	srli	a5,a1,16
	.loc 1 135 331
	andi	a5,a5,0xff
	.loc 1 135 371
	slli	a5,a5,8
	.loc 1 136 1
	or	a0,a0,a5
	or	a1,a3,a4
	ret
	.cfi_endproc
.LFE6:
	.size	cpu_to_fdt64, .-cpu_to_fdt64
	.section	.text.fdt32_ld,"ax",@progbits
	.align	1
	.type	fdt32_ld, @function
fdt32_ld:
.LFB8:
	.file 2 "/b-l/bl_iot_sdk_new/components/stage/blfdt/inc/libfdt.h"
	.loc 2 194 1 is_stmt 1
	.cfi_startproc
.LVL4:
	.loc 2 195 5
	.loc 2 197 5
	.loc 2 197 13 is_stmt 0
	lbu	a5,0(a0)
	.loc 2 198 12
	lbu	a4,1(a0)
	.loc 2 197 29
	slli	a5,a5,24
	.loc 2 198 28
	slli	a4,a4,16
	.loc 2 198 9
	or	a5,a5,a4
	.loc 2 200 13
	lbu	a4,3(a0)
	.loc 2 199 12
	lbu	a0,2(a0)
.LVL5:
	.loc 2 200 9
	or	a5,a5,a4
	.loc 2 199 28
	slli	a0,a0,8
	.loc 2 201 1
	or	a0,a5,a0
	ret
	.cfi_endproc
.LFE8:
	.size	fdt32_ld, .-fdt32_ld
	.section	.text.fdt_sw_probe_,"ax",@progbits
	.align	1
	.type	fdt_sw_probe_, @function
fdt_sw_probe_:
.LFB40:
	.file 3 "/b-l/bl_iot_sdk_new/components/stage/blfdt/src/fdt_sw.c"
	.loc 3 38 1 is_stmt 1
	.cfi_startproc
.LVL6:
	.loc 3 39 5
	.loc 3 38 1 is_stmt 0
	addi	sp,sp,-16
	.cfi_def_cfa_offset 16
	sw	ra,12(sp)
	.cfi_offset 1, -4
	.loc 3 39 11
	call	fdt32_ld
.LVL7:
	.loc 3 39 8
	li	a5,-804388864
	addi	a5,a5,-275
	beq	a0,a5,.L6
	.loc 3 41 10 is_stmt 1
	.loc 3 41 13 is_stmt 0
	li	a4,804388864
	addi	a4,a4,274
	.loc 3 43 12
	li	a5,0
	.loc 3 41 13
	beq	a0,a4,.L4
	.loc 3 42 16
	li	a5,-9
.L4:
	.loc 3 44 1
	lw	ra,12(sp)
	.cfi_remember_state
	.cfi_restore 1
	mv	a0,a5
	addi	sp,sp,16
	.cfi_def_cfa_offset 0
	jr	ra
.L6:
	.cfi_restore_state
	.loc 3 40 16
	li	a5,-7
	j	.L4
	.cfi_endproc
.LFE40:
	.size	fdt_sw_probe_, .-fdt_sw_probe_
	.section	.text.fdt_sw_probe_struct_,"ax",@progbits
	.align	1
	.type	fdt_sw_probe_struct_, @function
fdt_sw_probe_struct_:
.LFB42:
	.loc 3 86 1 is_stmt 1
	.cfi_startproc
.LVL8:
	.loc 3 87 5
	.loc 3 86 1 is_stmt 0
	addi	sp,sp,-16
	.cfi_def_cfa_offset 16
	sw	s0,8(sp)
	sw	s1,4(sp)
	sw	ra,12(sp)
	sw	s2,0(sp)
	.cfi_offset 8, -8
	.cfi_offset 9, -12
	.cfi_offset 1, -4
	.cfi_offset 18, -16
	.loc 3 86 1
	mv	s1,a0
	.loc 3 87 15
	call	fdt_sw_probe_
.LVL9:
	mv	s0,a0
.LVL10:
	.loc 3 88 5 is_stmt 1
	.loc 3 88 8 is_stmt 0
	bne	a0,zero,.L9
.LVL11:
.LBB25:
.LBB26:
	.loc 3 91 5 is_stmt 1
	.loc 3 91 11 is_stmt 0
	addi	a0,s1,12
	call	fdt32_ld
.LVL12:
	mv	s2,a0
	.loc 3 91 80
	addi	a0,s1,4
	call	fdt32_ld
.LVL13:
	.loc 3 91 8
	beq	s2,a0,.L9
	.loc 3 92 16
	li	s0,-7
.LVL14:
.L9:
.LBE26:
.LBE25:
	.loc 3 94 1
	mv	a0,s0
	lw	ra,12(sp)
	.cfi_restore 1
	lw	s0,8(sp)
	.cfi_restore 8
	lw	s1,4(sp)
	.cfi_restore 9
.LVL15:
	lw	s2,0(sp)
	.cfi_restore 18
	addi	sp,sp,16
	.cfi_def_cfa_offset 0
	jr	ra
	.cfi_endproc
.LFE42:
	.size	fdt_sw_probe_struct_, .-fdt_sw_probe_struct_
	.section	.text.fdt_grab_space_,"ax",@progbits
	.align	1
	.type	fdt_grab_space_, @function
fdt_grab_space_:
.LFB43:
	.loc 3 109 1 is_stmt 1
	.cfi_startproc
.LVL16:
	.loc 3 110 5
	.loc 3 109 1 is_stmt 0
	addi	sp,sp,-48
	.cfi_def_cfa_offset 48
	sw	s0,40(sp)
	.cfi_offset 8, -8
	mv	s0,a0
	.loc 3 110 20
	addi	a0,a0,36
.LVL17:
	.loc 3 109 1
	sw	a1,12(sp)
	sw	ra,44(sp)
	sw	s1,36(sp)
	sw	s2,32(sp)
	sw	s3,28(sp)
	sw	s4,24(sp)
	.cfi_offset 1, -4
	.cfi_offset 9, -12
	.cfi_offset 18, -16
	.cfi_offset 19, -20
	.cfi_offset 20, -24
	.loc 3 110 20
	call	fdt32_ld
.LVL18:
	mv	s1,a0
.LVL19:
	.loc 3 111 5 is_stmt 1
	.loc 3 113 5
	.loc 3 113 19 is_stmt 0
	addi	a0,s0,4
	call	fdt32_ld
.LVL20:
	.loc 3 113 82
	addi	s4,s0,8
	.loc 3 113 19
	mv	s2,a0
	.loc 3 113 82
	mv	a0,s4
	call	fdt32_ld
.LVL21:
	mv	s3,a0
	.loc 3 114 13
	addi	a0,s0,32
	call	fdt32_ld
.LVL22:
	.loc 3 116 17
	lw	a1,12(sp)
	.loc 3 114 9
	add	a0,s3,a0
	sub	s2,s2,a0
.LVL23:
	.loc 3 116 5 is_stmt 1
	.loc 3 116 17 is_stmt 0
	add	a1,s1,a1
	.loc 3 117 15
	li	a0,0
	.loc 3 116 8
	bgtu	s1,a1,.L12
	.loc 3 116 33 discriminator 1
	bltu	s2,a1,.L12
	.loc 3 119 5 is_stmt 1
.LVL24:
.LBB33:
.LBB34:
	.loc 2 304 70
	.loc 2 304 122
	.loc 2 304 145 is_stmt 0
	mv	a0,a1
	call	cpu_to_fdt32
.LVL25:
	.loc 2 304 143
	sw	a0,36(s0)
.LVL26:
.LBE34:
.LBE33:
	.loc 3 120 5 is_stmt 1
	.file 4 "/b-l/bl_iot_sdk_new/components/stage/blfdt/inc/libfdt_internal.h"
	.loc 4 107 5
.LBB35:
.LBB36:
.LBB37:
	.loc 4 102 5
	.loc 4 102 34 is_stmt 0
	mv	a0,s4
	call	fdt32_ld
.LVL27:
	.loc 4 102 97
	add	a0,s1,a0
	add	a0,s0,a0
.LVL28:
.L12:
.LBE37:
.LBE36:
.LBE35:
	.loc 3 121 1
	lw	ra,44(sp)
	.cfi_restore 1
	lw	s0,40(sp)
	.cfi_restore 8
.LVL29:
	lw	s1,36(sp)
	.cfi_restore 9
.LVL30:
	lw	s2,32(sp)
	.cfi_restore 18
.LVL31:
	lw	s3,28(sp)
	.cfi_restore 19
	lw	s4,24(sp)
	.cfi_restore 20
.LVL32:
	addi	sp,sp,48
	.cfi_def_cfa_offset 0
.LVL33:
	jr	ra
	.cfi_endproc
.LFE43:
	.size	fdt_grab_space_, .-fdt_grab_space_
	.section	.text.fdt_create,"ax",@progbits
	.align	1
	.globl	fdt_create
	.type	fdt_create, @function
fdt_create:
.LFB44:
	.loc 3 124 1 is_stmt 1
	.cfi_startproc
.LVL34:
	.loc 3 125 5
	.loc 3 127 5
	.loc 3 129 5
	.loc 3 129 8 is_stmt 0
	li	a5,47
	bleu	a1,a5,.L19
	.loc 3 124 1
	addi	sp,sp,-16
	.cfi_def_cfa_offset 16
	sw	s1,4(sp)
	.loc 3 132 5
	mv	a2,a1
	.cfi_offset 9, -12
	mv	s1,a1
	.loc 3 132 5 is_stmt 1
	li	a1,0
.LVL35:
	.loc 3 124 1 is_stmt 0
	sw	ra,12(sp)
	sw	s0,8(sp)
	.cfi_offset 1, -4
	.cfi_offset 8, -8
	mv	s0,a0
	.loc 3 132 5
	call	memset
.LVL36:
	.loc 3 134 5 is_stmt 1
.LBB62:
.LBB63:
	.loc 2 295 61
	.loc 2 295 113
.LBE63:
.LBE62:
	.loc 1 122 5
.LBB65:
.LBB64:
	.loc 2 295 125 is_stmt 0
	li	a5,302116864
	addi	a5,a5,559
	sw	a5,0(s0)
.LVL37:
.LBE64:
.LBE65:
	.loc 3 135 5 is_stmt 1
.LBB66:
.LBB67:
	.loc 2 300 63
	.loc 2 300 115
.LBE67:
.LBE66:
	.loc 1 122 5
.LBB69:
.LBB68:
	.loc 2 300 129 is_stmt 0
	li	a5,285212672
	sw	a5,20(s0)
.LVL38:
.LBE68:
.LBE69:
	.loc 3 136 5 is_stmt 1
.LBB70:
.LBB71:
	.loc 2 301 73
	.loc 2 301 125
.LBE71:
.LBE70:
	.loc 1 122 5
.LBB73:
.LBB72:
	.loc 2 301 149 is_stmt 0
	li	a5,33554432
	sw	a5,24(s0)
.LVL39:
.LBE72:
.LBE73:
	.loc 3 137 5 is_stmt 1
.LBB74:
.LBB75:
	.loc 2 296 65
	.loc 2 296 117
	.loc 2 296 135 is_stmt 0
	mv	a0,s1
	call	cpu_to_fdt32
.LVL40:
.LBE75:
.LBE74:
.LBB77:
.LBB78:
	.loc 2 299 143
	li	a5,805306368
.LBE78:
.LBE77:
.LBB81:
.LBB76:
	.loc 2 296 133
	sw	a0,4(s0)
.LVL41:
.LBE76:
.LBE81:
	.loc 3 139 5 is_stmt 1
.LBB82:
.LBB79:
	.loc 2 299 70
	.loc 2 299 122
.LBE79:
.LBE82:
	.loc 1 122 5
.LBB83:
.LBB80:
	.loc 2 299 143 is_stmt 0
	sw	a5,16(s0)
.LVL42:
.LBE80:
.LBE83:
	.loc 3 140 5 is_stmt 1
	addi	a0,s0,16
	call	fdt32_ld
.LVL43:
.LBB84:
.LBB85:
	.loc 2 297 69
	.loc 2 297 121
	.loc 2 297 143 is_stmt 0
	call	cpu_to_fdt32
.LVL44:
	.loc 2 297 141
	sw	a0,8(s0)
.LVL45:
.LBE85:
.LBE84:
	.loc 3 141 5 is_stmt 1
.LBB86:
.LBB87:
	.loc 2 298 70
	.loc 2 298 122
.LBE87:
.LBE86:
	.loc 1 122 5
.LBB89:
.LBB88:
	.loc 2 298 143 is_stmt 0
	sw	zero,12(s0)
.LBE88:
.LBE89:
	.loc 3 144 1
	lw	ra,12(sp)
	.cfi_restore 1
	lw	s0,8(sp)
	.cfi_restore 8
.LVL46:
	lw	s1,4(sp)
	.cfi_restore 9
.LVL47:
	.loc 3 143 12
	li	a0,0
	.loc 3 144 1
	addi	sp,sp,16
	.cfi_def_cfa_offset 0
	jr	ra
.LVL48:
.L19:
	.loc 3 130 16
	li	a0,-3
.LVL49:
	.loc 3 144 1
	ret
	.cfi_endproc
.LFE44:
	.size	fdt_create, .-fdt_create
	.section	.text.fdt_resize,"ax",@progbits
	.align	1
	.globl	fdt_resize
	.type	fdt_resize, @function
fdt_resize:
.LFB45:
	.loc 3 147 1 is_stmt 1
	.cfi_startproc
.LVL50:
	.loc 3 148 5
	.loc 3 149 5
.LBB95:
	.loc 3 151 7
	.loc 3 151 16
.LBE95:
	.loc 3 147 1 is_stmt 0
	addi	sp,sp,-48
	.cfi_def_cfa_offset 48
	sw	s0,40(sp)
	sw	s1,36(sp)
	sw	s5,20(sp)
	sw	s7,12(sp)
	sw	ra,44(sp)
	sw	s2,32(sp)
	sw	s3,28(sp)
	sw	s4,24(sp)
	sw	s6,16(sp)
	.cfi_offset 8, -8
	.cfi_offset 9, -12
	.cfi_offset 21, -28
	.cfi_offset 23, -36
	.cfi_offset 1, -4
	.cfi_offset 18, -16
	.cfi_offset 19, -20
	.cfi_offset 20, -24
	.cfi_offset 22, -32
	.loc 3 147 1
	mv	s0,a0
	mv	s1,a1
	mv	s7,a2
.LBB96:
	.loc 3 151 27
	call	fdt_sw_probe_
.LVL51:
	mv	s5,a0
.LVL52:
	.loc 3 151 19
	bne	a0,zero,.L24
.LBE96:
	.loc 3 151 66 is_stmt 1 discriminator 2
	.loc 3 153 5 discriminator 2
	.loc 3 153 18 is_stmt 0 discriminator 2
	addi	a0,s0,8
.LVL53:
	call	fdt32_ld
.LVL54:
	mv	s3,a0
	.loc 3 153 85 discriminator 2
	addi	a0,s0,36
	call	fdt32_ld
.LVL55:
	.loc 3 153 14 discriminator 2
	add	s3,s3,a0
.LVL56:
	.loc 3 154 5 is_stmt 1 discriminator 2
	.loc 3 154 18 is_stmt 0 discriminator 2
	addi	a0,s0,32
	call	fdt32_ld
.LVL57:
	.loc 3 156 19 discriminator 2
	add	s2,s3,a0
	.loc 3 154 18 discriminator 2
	mv	s4,a0
.LVL58:
	.loc 3 156 5 is_stmt 1 discriminator 2
	.loc 3 156 35 is_stmt 0 discriminator 2
	addi	a0,s0,4
.LVL59:
	call	fdt32_ld
.LVL60:
	.loc 3 156 8 discriminator 2
	bgtu	s2,a0,.L28
	.loc 3 159 5 is_stmt 1
	.loc 3 159 8 is_stmt 0
	bgtu	s2,s7,.L29
	.loc 3 162 5 is_stmt 1
	.loc 3 162 90 is_stmt 0
	sub	s2,a0,s4
	.loc 3 163 37
	sub	s6,s7,s4
	.loc 3 162 13
	add	s2,s0,s2
.LVL61:
	.loc 3 163 5 is_stmt 1
	.loc 3 163 13 is_stmt 0
	add	s6,s1,s6
.LVL62:
	.loc 3 167 5 is_stmt 1
	.loc 3 167 8 is_stmt 0
	bltu	s0,s1,.L26
	.loc 3 168 9 is_stmt 1
	mv	a2,s3
	mv	a1,s0
	mv	a0,s1
	call	memmove
.LVL63:
	.loc 3 169 9
	mv	a2,s4
	mv	a1,s2
	mv	a0,s6
.L34:
	.loc 3 172 9 is_stmt 0
	call	memmove
.LVL64:
	.loc 3 175 5 is_stmt 1
.LBB97:
.LBB98:
	.loc 2 296 65
	.loc 2 296 117
	.loc 2 296 135 is_stmt 0
	mv	a0,s7
	call	cpu_to_fdt32
.LVL65:
	mv	s0,a0
.LVL66:
	.loc 2 296 133
	sw	a0,4(s1)
.LVL67:
.LBE98:
.LBE97:
	.loc 3 176 5 is_stmt 1
	.loc 3 176 11 is_stmt 0
	addi	a0,s1,12
	call	fdt32_ld
.LVL68:
	.loc 3 176 8
	beq	a0,zero,.L24
	.loc 3 177 9 is_stmt 1
.LVL69:
.LBB99:
.LBB100:
	.loc 2 298 70
	.loc 2 298 122
	.loc 2 298 143 is_stmt 0
	sw	s0,12(s1)
.LVL70:
.L24:
.LBE100:
.LBE99:
	.loc 3 180 1
	lw	ra,44(sp)
	.cfi_remember_state
	.cfi_restore 1
	lw	s0,40(sp)
	.cfi_restore 8
	mv	a0,s5
	lw	s1,36(sp)
	.cfi_restore 9
.LVL71:
	lw	s2,32(sp)
	.cfi_restore 18
	lw	s3,28(sp)
	.cfi_restore 19
	lw	s4,24(sp)
	.cfi_restore 20
	lw	s5,20(sp)
	.cfi_restore 21
	lw	s6,16(sp)
	.cfi_restore 22
	lw	s7,12(sp)
	.cfi_restore 23
.LVL72:
	addi	sp,sp,48
	.cfi_def_cfa_offset 0
	jr	ra
.LVL73:
.L26:
	.cfi_restore_state
	.loc 3 171 9 is_stmt 1
	mv	a2,s4
	mv	a1,s2
	mv	a0,s6
	call	memmove
.LVL74:
	.loc 3 172 9
	mv	a2,s3
	mv	a1,s0
	mv	a0,s1
	j	.L34
.LVL75:
.L28:
	.loc 3 157 16 is_stmt 0
	li	s5,-13
.LVL76:
	j	.L24
.LVL77:
.L29:
	.loc 3 160 16
	li	s5,-3
.LVL78:
	j	.L24
	.cfi_endproc
.LFE45:
	.size	fdt_resize, .-fdt_resize
	.section	.text.fdt_add_reservemap_entry,"ax",@progbits
	.align	1
	.globl	fdt_add_reservemap_entry
	.type	fdt_add_reservemap_entry, @function
fdt_add_reservemap_entry:
.LFB46:
	.loc 3 183 1 is_stmt 1
	.cfi_startproc
.LVL79:
	.loc 3 184 5
	.loc 3 185 5
.LBB109:
	.loc 3 187 7
	.loc 3 187 16
.LBE109:
	.loc 3 183 1 is_stmt 0
	addi	sp,sp,-48
	.cfi_def_cfa_offset 48
	sw	s0,40(sp)
	sw	s2,32(sp)
	sw	s4,24(sp)
	sw	s5,20(sp)
	sw	s6,16(sp)
	sw	s7,12(sp)
	sw	ra,44(sp)
	sw	s1,36(sp)
	sw	s3,28(sp)
	.cfi_offset 8, -8
	.cfi_offset 18, -16
	.cfi_offset 20, -24
	.cfi_offset 21, -28
	.cfi_offset 22, -32
	.cfi_offset 23, -36
	.cfi_offset 1, -4
	.cfi_offset 9, -12
	.cfi_offset 19, -20
	.loc 3 183 1
	mv	s0,a0
.LVL80:
.LBB116:
.LBB110:
.LBB111:
	.loc 3 61 5 is_stmt 1
.LBE111:
.LBE110:
.LBE116:
	.loc 3 183 1 is_stmt 0
	mv	s6,a1
	mv	s7,a2
	mv	s4,a3
	mv	s5,a4
.LBB117:
.LBB114:
.LBB112:
	.loc 3 61 15
	call	fdt_sw_probe_
.LVL81:
	mv	s2,a0
.LVL82:
	.loc 3 62 5 is_stmt 1
	.loc 3 62 8 is_stmt 0
	bne	a0,zero,.L35
	.loc 3 65 5 is_stmt 1
	.loc 3 65 11 is_stmt 0
	addi	a0,s0,12
.LVL83:
	call	fdt32_ld
.LVL84:
	.loc 3 65 8
	bne	a0,zero,.L37
.LVL85:
.LBE112:
.LBE114:
.LBE117:
.LBB118:
.LBB119:
	.loc 3 187 73 is_stmt 1
	.loc 3 189 5
	.loc 3 189 16 is_stmt 0
	addi	a0,s0,8
	call	fdt32_ld
.LVL86:
	.loc 3 190 17
	addi	s3,a0,16
	.loc 3 189 16
	mv	s1,a0
.LVL87:
	.loc 3 190 5 is_stmt 1
	.loc 3 190 36 is_stmt 0
	addi	a0,s0,4
	call	fdt32_ld
.LVL88:
	.loc 3 190 8
	bgtu	s3,a0,.L38
	.loc 3 193 5 is_stmt 1
	.loc 3 194 19 is_stmt 0
	mv	a0,s6
	mv	a1,s7
	call	cpu_to_fdt64
.LVL89:
	.loc 3 193 8
	add	s1,s0,s1
.LVL90:
	.loc 3 194 5 is_stmt 1
	.loc 3 194 17 is_stmt 0
	sw	a0,0(s1)
	sw	a1,4(s1)
	.loc 3 195 5 is_stmt 1
	.loc 3 195 16 is_stmt 0
	mv	a0,s4
	mv	a1,s5
	call	cpu_to_fdt64
.LVL91:
	.loc 3 195 14
	sw	a0,8(s1)
	sw	a1,12(s1)
	.loc 3 197 5 is_stmt 1
.LVL92:
.LBB120:
.LBB121:
	.loc 2 297 69
	.loc 2 297 121
	.loc 2 297 143 is_stmt 0
	mv	a0,s3
	call	cpu_to_fdt32
.LVL93:
	.loc 2 297 141
	sw	a0,8(s0)
.LVL94:
.L35:
.LBE121:
.LBE120:
.LBE119:
.LBE118:
	.loc 3 200 1
	lw	ra,44(sp)
	.cfi_remember_state
	.cfi_restore 1
	lw	s0,40(sp)
	.cfi_restore 8
.LVL95:
	mv	a0,s2
	lw	s1,36(sp)
	.cfi_restore 9
	lw	s2,32(sp)
	.cfi_restore 18
	lw	s3,28(sp)
	.cfi_restore 19
	lw	s4,24(sp)
	.cfi_restore 20
	lw	s5,20(sp)
	.cfi_restore 21
	lw	s6,16(sp)
	.cfi_restore 22
	lw	s7,12(sp)
	.cfi_restore 23
	addi	sp,sp,48
	.cfi_def_cfa_offset 0
	jr	ra
.LVL96:
.L37:
	.cfi_restore_state
.LBB123:
.LBB115:
.LBB113:
	.loc 3 66 16
	li	s2,-7
.LVL97:
	j	.L35
.LVL98:
.L38:
.LBE113:
.LBE115:
.LBE123:
.LBB124:
.LBB122:
	.loc 3 191 16
	li	s2,-3
	j	.L35
.LBE122:
.LBE124:
	.cfi_endproc
.LFE46:
	.size	fdt_add_reservemap_entry, .-fdt_add_reservemap_entry
	.section	.text.fdt_finish_reservemap,"ax",@progbits
	.align	1
	.globl	fdt_finish_reservemap
	.type	fdt_finish_reservemap, @function
fdt_finish_reservemap:
.LFB47:
	.loc 3 203 1 is_stmt 1
	.cfi_startproc
.LVL99:
	.loc 3 204 5
	.loc 3 203 1 is_stmt 0
	addi	sp,sp,-16
	.cfi_def_cfa_offset 16
	.loc 3 204 15
	li	a3,0
	li	a4,0
	li	a1,0
	li	a2,0
	.loc 3 203 1
	sw	s0,8(sp)
	sw	s1,4(sp)
	sw	ra,12(sp)
	.cfi_offset 8, -8
	.cfi_offset 9, -12
	.cfi_offset 1, -4
	.loc 3 203 1
	mv	s1,a0
	.loc 3 204 15
	call	fdt_add_reservemap_entry
.LVL100:
	mv	s0,a0
.LVL101:
	.loc 3 206 5 is_stmt 1
	.loc 3 206 8 is_stmt 0
	bne	a0,zero,.L40
	.loc 3 209 5 is_stmt 1
	addi	a0,s1,4
	call	fdt32_ld
.LVL102:
.LBB127:
.LBB128:
	.loc 2 298 70
	.loc 2 298 122
	.loc 2 298 145 is_stmt 0
	call	cpu_to_fdt32
.LVL103:
	.loc 2 298 143
	sw	a0,12(s1)
.LVL104:
.L40:
.LBE128:
.LBE127:
	.loc 3 211 1
	mv	a0,s0
	lw	ra,12(sp)
	.cfi_restore 1
	lw	s0,8(sp)
	.cfi_restore 8
.LVL105:
	lw	s1,4(sp)
	.cfi_restore 9
.LVL106:
	addi	sp,sp,16
	.cfi_def_cfa_offset 0
	jr	ra
	.cfi_endproc
.LFE47:
	.size	fdt_finish_reservemap, .-fdt_finish_reservemap
	.section	.text.fdt_begin_node,"ax",@progbits
	.align	1
	.globl	fdt_begin_node
	.type	fdt_begin_node, @function
fdt_begin_node:
.LFB48:
	.loc 3 214 1 is_stmt 1
	.cfi_startproc
.LVL107:
	.loc 3 215 5
	.loc 3 216 5
.LBB129:
	.loc 3 218 7
	.loc 3 218 16
.LBE129:
	.loc 3 214 1 is_stmt 0
	addi	sp,sp,-32
	.cfi_def_cfa_offset 32
	sw	s0,24(sp)
	sw	s1,20(sp)
	sw	s2,16(sp)
	sw	ra,28(sp)
	.cfi_offset 8, -8
	.cfi_offset 9, -12
	.cfi_offset 18, -16
	.cfi_offset 1, -4
	.loc 3 214 1
	mv	s2,a0
	mv	s1,a1
.LBB130:
	.loc 3 218 27
	call	fdt_sw_probe_struct_
.LVL108:
	mv	s0,a0
.LVL109:
	.loc 3 218 19
	bne	a0,zero,.L43
.LBE130:
	.loc 3 218 73 is_stmt 1 discriminator 2
	.loc 3 220 5 discriminator 2
	.loc 3 220 15 is_stmt 0 discriminator 2
	mv	a0,s1
	call	strlen
.LVL110:
	.loc 3 220 28 discriminator 2
	addi	a2,a0,1
	.loc 3 221 80 discriminator 2
	addi	a0,a0,4
	.loc 3 221 85 discriminator 2
	andi	a1,a0,-4
	.loc 3 221 10 discriminator 2
	addi	a1,a1,4
	mv	a0,s2
	.loc 3 220 28 discriminator 2
	sw	a2,12(sp)
.LVL111:
	.loc 3 221 5 is_stmt 1 discriminator 2
	.loc 3 221 10 is_stmt 0 discriminator 2
	call	fdt_grab_space_
.LVL112:
	.loc 3 222 5 is_stmt 1 discriminator 2
	.loc 3 222 8 is_stmt 0 discriminator 2
	beq	a0,zero,.L45
	.loc 3 225 5 is_stmt 1
.LVL113:
	.loc 1 126 5
	.loc 3 226 5 is_stmt 0
	lw	a2,12(sp)
	.loc 3 225 13
	li	a5,16777216
	sw	a5,0(a0)
	.loc 3 226 5 is_stmt 1
	mv	a1,s1
	addi	a0,a0,4
.LVL114:
	call	memcpy
.LVL115:
	.loc 3 227 5
.L43:
	.loc 3 228 1 is_stmt 0
	mv	a0,s0
	lw	ra,28(sp)
	.cfi_remember_state
	.cfi_restore 1
	lw	s0,24(sp)
	.cfi_restore 8
	lw	s1,20(sp)
	.cfi_restore 9
.LVL116:
	lw	s2,16(sp)
	.cfi_restore 18
.LVL117:
	addi	sp,sp,32
	.cfi_def_cfa_offset 0
	jr	ra
.LVL118:
.L45:
	.cfi_restore_state
	.loc 3 223 16
	li	s0,-3
.LVL119:
	j	.L43
	.cfi_endproc
.LFE48:
	.size	fdt_begin_node, .-fdt_begin_node
	.section	.text.fdt_end_node,"ax",@progbits
	.align	1
	.globl	fdt_end_node
	.type	fdt_end_node, @function
fdt_end_node:
.LFB49:
	.loc 3 231 1 is_stmt 1
	.cfi_startproc
.LVL120:
	.loc 3 232 5
.LBB131:
	.loc 3 234 7
	.loc 3 234 16
.LBE131:
	.loc 3 231 1 is_stmt 0
	addi	sp,sp,-16
	.cfi_def_cfa_offset 16
	sw	s0,8(sp)
	sw	s1,4(sp)
	sw	ra,12(sp)
	.cfi_offset 8, -8
	.cfi_offset 9, -12
	.cfi_offset 1, -4
	.loc 3 231 1
	mv	s1,a0
.LBB132:
	.loc 3 234 27
	call	fdt_sw_probe_struct_
.LVL121:
	mv	s0,a0
.LVL122:
	.loc 3 234 19
	bne	a0,zero,.L47
.LBE132:
	.loc 3 234 73 is_stmt 1 discriminator 2
	.loc 3 236 5 discriminator 2
	.loc 3 236 10 is_stmt 0 discriminator 2
	li	a1,4
	mv	a0,s1
	call	fdt_grab_space_
.LVL123:
	.loc 3 237 5 is_stmt 1 discriminator 2
	.loc 3 237 8 is_stmt 0 discriminator 2
	beq	a0,zero,.L49
	.loc 3 240 5 is_stmt 1
.LVL124:
	.loc 1 126 5
	.loc 3 240 9 is_stmt 0
	li	a5,33554432
	sw	a5,0(a0)
	.loc 3 241 5 is_stmt 1
.LVL125:
.L47:
	.loc 3 242 1 is_stmt 0
	mv	a0,s0
	lw	ra,12(sp)
	.cfi_remember_state
	.cfi_restore 1
	lw	s0,8(sp)
	.cfi_restore 8
	lw	s1,4(sp)
	.cfi_restore 9
.LVL126:
	addi	sp,sp,16
	.cfi_def_cfa_offset 0
	jr	ra
.LVL127:
.L49:
	.cfi_restore_state
	.loc 3 238 16
	li	s0,-3
.LVL128:
	j	.L47
	.cfi_endproc
.LFE49:
	.size	fdt_end_node, .-fdt_end_node
	.section	.text.fdt_property_placeholder,"ax",@progbits
	.align	1
	.globl	fdt_property_placeholder
	.type	fdt_property_placeholder, @function
fdt_property_placeholder:
.LFB51:
	.loc 3 268 1 is_stmt 1
	.cfi_startproc
.LVL129:
	.loc 3 269 5
	.loc 3 270 5
.LBB143:
	.loc 3 272 7
	.loc 3 272 16
.LBE143:
	.loc 3 268 1 is_stmt 0
	addi	sp,sp,-48
	.cfi_def_cfa_offset 48
	sw	s1,36(sp)
	sw	s4,24(sp)
	sw	s6,16(sp)
	sw	s7,12(sp)
	sw	s8,8(sp)
	sw	ra,44(sp)
	sw	s0,40(sp)
	sw	s2,32(sp)
	sw	s3,28(sp)
	sw	s5,20(sp)
	sw	s9,4(sp)
	sw	s10,0(sp)
	.cfi_offset 9, -12
	.cfi_offset 20, -24
	.cfi_offset 22, -32
	.cfi_offset 23, -36
	.cfi_offset 24, -40
	.cfi_offset 1, -4
	.cfi_offset 8, -8
	.cfi_offset 18, -16
	.cfi_offset 19, -20
	.cfi_offset 21, -28
	.cfi_offset 25, -44
	.cfi_offset 26, -48
	.loc 3 268 1
	mv	s1,a0
	mv	s6,a1
	mv	s8,a2
	mv	s7,a3
.LBB144:
	.loc 3 272 27
	call	fdt_sw_probe_struct_
.LVL130:
	mv	s4,a0
.LVL131:
	.loc 3 272 19
	bne	a0,zero,.L51
.LVL132:
.LBE144:
.LBB145:
.LBB146:
	.loc 3 272 73 is_stmt 1
	.loc 3 274 5
.LBB147:
.LBB148:
	.loc 3 246 5
	.loc 3 246 36 is_stmt 0
	addi	s9,s1,4
	mv	a0,s9
.LVL133:
	call	fdt32_ld
.LVL134:
	.loc 3 246 11
	add	s5,s1,a0
.LVL135:
	.loc 3 247 5 is_stmt 1
	.loc 3 248 5
	.loc 3 248 24 is_stmt 0
	addi	a0,s1,32
	call	fdt32_ld
.LVL136:
	mv	s3,a0
.LVL137:
	.loc 3 249 5 is_stmt 1
	.loc 3 249 15 is_stmt 0
	mv	a0,s6
.LVL138:
	call	strlen
.LVL139:
	mv	s2,a0
.LVL140:
	.loc 3 250 5 is_stmt 1
	.loc 3 252 5
	.loc 3 252 9 is_stmt 0
	mv	a2,s6
	mv	a1,s3
	sub	a0,s5,s3
.LVL141:
	call	fdt_find_string_
.LVL142:
	.loc 3 253 5 is_stmt 1
	.loc 3 254 18 is_stmt 0
	sub	s0,a0,s5
	.loc 3 253 8
	bne	a0,zero,.L54
	.loc 3 258 20
	addi	a0,s1,8
.LVL143:
	call	fdt32_ld
.LVL144:
	mv	s10,a0
	.loc 3 258 87
	addi	a0,s1,36
	call	fdt32_ld
.LVL145:
	.loc 3 249 25
	addi	s2,s2,1
.LVL146:
	.loc 3 257 5 is_stmt 1
	.loc 3 257 14 is_stmt 0
	neg	s0,s3
	.loc 3 258 83
	add	s10,s10,a0
	.loc 3 259 11
	mv	a0,s9
	.loc 3 257 12
	sub	s0,s0,s2
.LVL147:
	.loc 3 258 5 is_stmt 1
	.loc 3 259 5
	.loc 3 259 11 is_stmt 0
	call	fdt32_ld
.LVL148:
	.loc 3 259 70
	add	a0,a0,s0
	.loc 3 259 8
	bleu	s10,a0,.L55
.LVL149:
.L56:
.LBE148:
.LBE147:
	.loc 3 276 16
	li	s4,-3
.LVL150:
.L51:
.LBE146:
.LBE145:
	.loc 3 287 1
	lw	ra,44(sp)
	.cfi_remember_state
	.cfi_restore 1
	lw	s0,40(sp)
	.cfi_restore 8
	mv	a0,s4
	lw	s1,36(sp)
	.cfi_restore 9
	lw	s2,32(sp)
	.cfi_restore 18
	lw	s3,28(sp)
	.cfi_restore 19
	lw	s4,24(sp)
	.cfi_restore 20
	lw	s5,20(sp)
	.cfi_restore 21
	lw	s6,16(sp)
	.cfi_restore 22
.LVL151:
	lw	s7,12(sp)
	.cfi_restore 23
.LVL152:
	lw	s8,8(sp)
	.cfi_restore 24
.LVL153:
	lw	s9,4(sp)
	.cfi_restore 25
	lw	s10,0(sp)
	.cfi_restore 26
	addi	sp,sp,48
	.cfi_def_cfa_offset 0
	jr	ra
.LVL154:
.L55:
	.cfi_restore_state
.LBB155:
.LBB153:
.LBB152:
.LBB151:
	.loc 3 262 5 is_stmt 1
	mv	a2,s2
	mv	a1,s6
	add	a0,s5,s0
	call	memcpy
.LVL155:
	.loc 3 263 5
.LBB149:
.LBB150:
	.loc 2 303 71
	.loc 2 303 123
	.loc 2 303 147 is_stmt 0
	add	a0,s3,s2
.LVL156:
	call	cpu_to_fdt32
.LVL157:
	.loc 2 303 145
	sw	a0,32(s1)
.LVL158:
.L54:
.LBE150:
.LBE149:
.LBE151:
.LBE152:
	.loc 3 275 5 is_stmt 1
	.loc 3 275 8 is_stmt 0
	beq	s0,zero,.L56
	.loc 3 278 5 is_stmt 1
	.loc 3 278 80 is_stmt 0
	addi	a1,s8,3
	.loc 3 278 85
	andi	a1,a1,-4
	.loc 3 278 12
	mv	a0,s1
	addi	a1,a1,12
	call	fdt_grab_space_
.LVL159:
	mv	s1,a0
.LVL160:
	.loc 3 279 5 is_stmt 1
	.loc 3 279 8 is_stmt 0
	beq	a0,zero,.L56
	.loc 3 282 5 is_stmt 1
.LVL161:
.LBE153:
.LBE155:
	.loc 1 126 5
.LBB156:
.LBB154:
	.loc 3 282 15 is_stmt 0
	li	a5,50331648
	sw	a5,0(a0)
	.loc 3 283 5 is_stmt 1
	.loc 3 283 21 is_stmt 0
	mv	a0,s0
	call	cpu_to_fdt32
.LVL162:
	.loc 3 283 19
	sw	a0,8(s1)
	.loc 3 284 5 is_stmt 1
	.loc 3 284 17 is_stmt 0
	mv	a0,s8
	call	cpu_to_fdt32
.LVL163:
	.loc 3 284 15
	sw	a0,4(s1)
	.loc 3 285 5 is_stmt 1
	.loc 3 285 13 is_stmt 0
	addi	s1,s1,12
.LVL164:
	.loc 3 285 11
	sw	s1,0(s7)
	.loc 3 286 5 is_stmt 1
	j	.L51
.LBE154:
.LBE156:
	.cfi_endproc
.LFE51:
	.size	fdt_property_placeholder, .-fdt_property_placeholder
	.section	.text.fdt_property,"ax",@progbits
	.align	1
	.globl	fdt_property
	.type	fdt_property, @function
fdt_property:
.LFB52:
	.loc 3 290 1
	.cfi_startproc
.LVL165:
	.loc 3 291 5
	.loc 3 292 5
	.loc 3 294 5
	.loc 3 290 1 is_stmt 0
	addi	sp,sp,-32
	.cfi_def_cfa_offset 32
	sw	s1,20(sp)
	.cfi_offset 9, -12
	mv	s1,a3
	sw	s2,16(sp)
	.loc 3 294 11
	addi	a3,sp,12
.LVL166:
	.cfi_offset 18, -16
	.loc 3 290 1
	mv	s2,a2
	.loc 3 294 11
	mv	a2,s1
.LVL167:
	.loc 3 290 1
	sw	s0,24(sp)
	sw	ra,28(sp)
	.cfi_offset 8, -8
	.cfi_offset 1, -4
	.loc 3 294 11
	call	fdt_property_placeholder
.LVL168:
	mv	s0,a0
.LVL169:
	.loc 3 295 5 is_stmt 1
	.loc 3 295 8 is_stmt 0
	bne	a0,zero,.L64
	.loc 3 297 5 is_stmt 1
	lw	a0,12(sp)
	mv	a2,s1
	mv	a1,s2
	call	memcpy
.LVL170:
	.loc 3 298 5
.L64:
	.loc 3 299 1 is_stmt 0
	mv	a0,s0
	lw	ra,28(sp)
	.cfi_restore 1
	lw	s0,24(sp)
	.cfi_restore 8
.LVL171:
	lw	s1,20(sp)
	.cfi_restore 9
.LVL172:
	lw	s2,16(sp)
	.cfi_restore 18
.LVL173:
	addi	sp,sp,32
	.cfi_def_cfa_offset 0
	jr	ra
	.cfi_endproc
.LFE52:
	.size	fdt_property, .-fdt_property
	.section	.text.fdt_finish,"ax",@progbits
	.align	1
	.globl	fdt_finish
	.type	fdt_finish, @function
fdt_finish:
.LFB53:
	.loc 3 302 1 is_stmt 1
	.cfi_startproc
.LVL174:
	.loc 3 303 5
	.loc 3 302 1 is_stmt 0
	addi	sp,sp,-80
	.cfi_def_cfa_offset 80
	sw	s0,72(sp)
	sw	s3,60(sp)
	sw	ra,76(sp)
	sw	s1,68(sp)
	sw	s2,64(sp)
	sw	s4,56(sp)
	sw	s5,52(sp)
	sw	s6,48(sp)
	sw	s7,44(sp)
	sw	s8,40(sp)
	sw	s9,36(sp)
	.cfi_offset 8, -8
	.cfi_offset 19, -20
	.cfi_offset 1, -4
	.cfi_offset 9, -12
	.cfi_offset 18, -16
	.cfi_offset 20, -24
	.cfi_offset 21, -28
	.cfi_offset 22, -32
	.cfi_offset 23, -36
	.cfi_offset 24, -40
	.cfi_offset 25, -44
	.loc 3 302 1
	mv	s0,a0
.LVL175:
	.loc 3 304 5 is_stmt 1
	.loc 3 305 5
	.loc 3 306 5
	.loc 3 307 5
.LBB171:
	.loc 3 309 7
	.loc 3 309 16
	.loc 3 309 27 is_stmt 0
	call	fdt_sw_probe_struct_
.LVL176:
	mv	s3,a0
.LVL177:
	.loc 3 309 19
	bne	a0,zero,.L67
.LBE171:
	.loc 3 309 73 is_stmt 1 discriminator 2
	.loc 3 312 5 discriminator 2
	.loc 3 312 11 is_stmt 0 discriminator 2
	li	a1,4
	mv	a0,s0
.LVL178:
	call	fdt_grab_space_
.LVL179:
	.loc 3 313 5 is_stmt 1 discriminator 2
	.loc 3 313 8 is_stmt 0 discriminator 2
	beq	a0,zero,.L72
	.loc 3 315 5 is_stmt 1
.LVL180:
	.loc 1 126 5
	.loc 3 315 10 is_stmt 0
	li	a5,150994944
	sw	a5,0(a0)
	.loc 3 318 5 is_stmt 1
	.loc 3 318 22 is_stmt 0
	addi	a0,s0,4
.LVL181:
	call	fdt32_ld
.LVL182:
	.loc 3 318 85
	addi	s5,s0,32
	.loc 3 318 22
	mv	s1,a0
	.loc 3 318 85
	mv	a0,s5
	call	fdt32_ld
.LVL183:
	.loc 3 319 22
	addi	s6,s0,8
	.loc 3 318 81
	sub	s1,s1,a0
	sw	a0,12(sp)
.LVL184:
	.loc 3 319 5 is_stmt 1
	.loc 3 319 22 is_stmt 0
	mv	a0,s6
	call	fdt32_ld
.LVL185:
	mv	s2,a0
	.loc 3 319 89
	addi	a0,s0,36
	call	fdt32_ld
.LVL186:
	.loc 3 320 5
	lw	a2,12(sp)
	.loc 3 319 85
	add	s2,s2,a0
.LVL187:
	.loc 3 320 5 is_stmt 1
	add	a1,s0,s1
	add	a0,s0,s2
	call	memmove
.LVL188:
	.loc 3 321 5
.LBB172:
.LBB173:
	.loc 2 298 70
	.loc 2 298 122
	.loc 2 298 145 is_stmt 0
	mv	a0,s2
	call	cpu_to_fdt32
.LVL189:
	.loc 2 298 143
	sw	a0,12(s0)
.LBE173:
.LBE172:
	.loc 3 324 12
	li	s1,0
.LVL190:
	.loc 3 325 11
	li	s7,9
	.loc 3 326 12
	li	s8,3
.L69:
.LVL191:
	.loc 3 325 19
	addi	a2,sp,28
	mv	a1,s1
	mv	a0,s0
	call	fdt_next_tag
.LVL192:
	lw	s4,28(sp)
	.loc 3 325 11
	bne	a0,s7,.L71
	.loc 3 337 5 is_stmt 1
	.loc 3 337 8 is_stmt 0
	blt	s4,zero,.L73
	.loc 3 341 5 is_stmt 1
	.loc 3 341 45 is_stmt 0
	mv	a0,s5
.LVL193:
	call	fdt32_ld
.LVL194:
.LBB174:
.LBB175:
	.loc 2 296 65 is_stmt 1
	.loc 2 296 117
	.loc 2 296 135 is_stmt 0
	add	a0,s2,a0
.LVL195:
	call	cpu_to_fdt32
.LVL196:
.LBE175:
.LBE174:
.LBB177:
.LBB178:
	.loc 2 295 125
	li	a5,-302116864
	addi	a5,a5,-560
.LBE178:
.LBE177:
.LBB181:
.LBB176:
	.loc 2 296 133
	sw	a0,4(s0)
.LVL197:
.LBE176:
.LBE181:
	.loc 3 342 5 is_stmt 1
.LBB182:
.LBB179:
	.loc 2 295 61
	.loc 2 295 113
.LBE179:
.LBE182:
	.loc 1 122 5
.LBB183:
.LBB180:
	.loc 2 295 125 is_stmt 0
	sw	a5,0(s0)
.LVL198:
.L67:
.LBE180:
.LBE183:
	.loc 3 344 1
	lw	ra,76(sp)
	.cfi_remember_state
	.cfi_restore 1
	lw	s0,72(sp)
	.cfi_restore 8
.LVL199:
	mv	a0,s3
	lw	s1,68(sp)
	.cfi_restore 9
	lw	s2,64(sp)
	.cfi_restore 18
	lw	s3,60(sp)
	.cfi_restore 19
	lw	s4,56(sp)
	.cfi_restore 20
	lw	s5,52(sp)
	.cfi_restore 21
	lw	s6,48(sp)
	.cfi_restore 22
	lw	s7,44(sp)
	.cfi_restore 23
	lw	s8,40(sp)
	.cfi_restore 24
	lw	s9,36(sp)
	.cfi_restore 25
	addi	sp,sp,80
	.cfi_def_cfa_offset 0
	jr	ra
.LVL200:
.L71:
	.cfi_restore_state
	.loc 3 326 9 is_stmt 1
	.loc 3 326 12 is_stmt 0
	bne	a0,s8,.L70
.LBB184:
	.loc 3 327 13 is_stmt 1
.LVL201:
.LBE184:
	.loc 4 107 5
.LBB188:
.LBB185:
.LBB186:
.LBB187:
	.loc 4 102 5
	.loc 4 102 34 is_stmt 0
	mv	a0,s6
.LVL202:
	call	fdt32_ld
.LVL203:
	.loc 4 102 97
	add	s1,s1,a0
.LVL204:
	add	s1,s0,s1
.LVL205:
.LBE187:
.LBE186:
.LBE185:
	.loc 3 329 13 is_stmt 1
	.loc 3 331 13
	.loc 3 331 23 is_stmt 0
	lw	a0,8(s1)
	call	fdt32_to_cpu
.LVL206:
	mv	s9,a0
.LVL207:
	.loc 3 332 13 is_stmt 1
	.loc 3 332 26 is_stmt 0
	mv	a0,s5
.LVL208:
	call	fdt32_ld
.LVL209:
	.loc 3 333 13 is_stmt 1
	.loc 3 333 29 is_stmt 0
	add	a0,s9,a0
.LVL210:
	call	cpu_to_fdt32
.LVL211:
	.loc 3 333 27
	sw	a0,8(s1)
.LVL212:
.L70:
.LBE188:
	.loc 3 335 9 is_stmt 1
	.loc 3 335 16 is_stmt 0
	mv	s1,s4
.LVL213:
	j	.L69
.LVL214:
.L72:
	.loc 3 314 16
	li	s3,-3
.LVL215:
	j	.L67
.LVL216:
.L73:
	mv	s3,s4
.LVL217:
	j	.L67
	.cfi_endproc
.LFE53:
	.size	fdt_finish, .-fdt_finish
	.text
.Letext0:
	.file 5 "/b-l/bl_iot_sdk_new/toolchain/riscv/Linux/lib/gcc/riscv64-unknown-elf/8.3.0/include/stddef.h"
	.file 6 "/b-l/bl_iot_sdk_new/toolchain/riscv/Linux/lib/gcc/riscv64-unknown-elf/8.3.0/include/stdint-gcc.h"
	.file 7 "/b-l/bl_iot_sdk_new/toolchain/riscv/Linux/riscv64-unknown-elf/include/sys/_types.h"
	.file 8 "/b-l/bl_iot_sdk_new/toolchain/riscv/Linux/riscv64-unknown-elf/include/sys/reent.h"
	.file 9 "/b-l/bl_iot_sdk_new/toolchain/riscv/Linux/riscv64-unknown-elf/include/sys/lock.h"
	.file 10 "/b-l/bl_iot_sdk_new/toolchain/riscv/Linux/riscv64-unknown-elf/include/stdlib.h"
	.file 11 "/b-l/bl_iot_sdk_new/components/stage/blfdt/inc/fdt.h"
	.file 12 "/b-l/bl_iot_sdk_new/toolchain/riscv/Linux/riscv64-unknown-elf/include/string.h"