	.file	"easyflash.c"
	.option nopic
	.attribute arch, "rv32i2p0_m2p0_f2p0_c2p0"
	.attribute unaligned_access, 0
	.attribute stack_align, 16
	.text
.Ltext0:
	.cfi_sections	.debug_frame
	.section	.text.easyflash_init,"ax",@progbits
	.align	1
	.globl	easyflash_init
	.type	easyflash_init, @function
easyflash_init:
.LFB0:
	.file 1 "/b-l/bl_iot_sdk_new/components/stage/easyflash4/src/easyflash.c"
	.loc 1 65 32
	.cfi_startproc
	.loc 1 66 5
	.loc 1 67 5
	.loc 1 68 5
	.loc 1 69 5
	.loc 1 71 5
	.loc 1 65 32 is_stmt 0
	addi	sp,sp,-32
	.cfi_def_cfa_offset 32
	.loc 1 75 14
	addi	a1,sp,8
	addi	a0,sp,12
	.loc 1 65 32
	sw	s0,24(sp)
	sw	s1,20(sp)
	sw	ra,28(sp)
	.cfi_offset 8, -8
	.cfi_offset 9, -12
	.cfi_offset 1, -4
	.loc 1 71 12
	sw	zero,8(sp)
	.loc 1 72 5 is_stmt 1
	.loc 1 73 5
.LVL0:
	.loc 1 75 5
	.loc 1 75 14 is_stmt 0
	call	ef_port_init
.LVL1:
	.loc 1 78 5 is_stmt 1
	lui	s1,%hi(.LC0)
	mv	s0,a0
	.loc 1 78 8 is_stmt 0
	bne	a0,zero,.L2
	.loc 1 79 9 is_stmt 1
	.loc 1 79 18 is_stmt 0
	lw	a1,8(sp)
	lw	a0,12(sp)
.LVL2:
	call	ef_env_init
.LVL3:
	mv	s0,a0
.LVL4:
	.loc 1 95 5 is_stmt 1
	.loc 1 95 8 is_stmt 0
	bne	a0,zero,.L2
	.loc 1 96 9 is_stmt 1
	lui	a0,%hi(.LC1)
.LVL5:
	addi	a1,s1,%lo(.LC0)
	addi	a0,a0,%lo(.LC1)
.L6:
	.loc 1 98 9 is_stmt 0
	call	ef_log_info
.LVL6:
	.loc 1 100 5 is_stmt 1
	lui	a0,%hi(.LC3)
	addi	a0,a0,%lo(.LC3)
	call	ef_log_info
.LVL7:
	.loc 1 102 5
	.loc 1 103 1 is_stmt 0
	mv	a0,s0
	lw	ra,28(sp)
	.cfi_remember_state
	.cfi_restore 1
	lw	s0,24(sp)
	.cfi_restore 8
	lw	s1,20(sp)
	.cfi_restore 9
	addi	sp,sp,32
	.cfi_def_cfa_offset 0
	jr	ra
.L2:
	.cfi_restore_state
.LVL8:
	.loc 1 98 9 is_stmt 1
	lui	a0,%hi(.LC2)
	addi	a1,s1,%lo(.LC0)
	addi	a0,a0,%lo(.LC2)
	j	.L6
	.cfi_endproc
.LFE0:
	.size	easyflash_init, .-easyflash_init
	.section	.rodata.easyflash_init.str1.4,"aMS",@progbits,1
	.align	2
.LC0:
	.string	"4.0.99"
	.zero	1
.LC1:
	.string	"EasyFlash V%s is initialize success.\r\n"
	.zero	1
.LC2:
	.string	"EasyFlash V%s is initialize fail.\r\n"
.LC3:
	.string	"You can get the latest version on https://github.com/armink/EasyFlash .\r\n"
	.text
.Letext0:
	.file 2 "/b-l/bl_iot_sdk_new/components/stage/easyflash4/inc/ef_def.h"
	.file 3 "/b-l/bl_iot_sdk_new/toolchain/riscv/Linux/lib/gcc/riscv64-unknown-elf/8.3.0/include/stddef.h"
	.file 4 "/b-l/bl_iot_sdk_new/components/stage/easyflash4/inc/easyflash.h"