	.file	"loopset_led.c"
	.option nopic
	.attribute arch, "rv32i2p0_m2p0_f2p0_c2p0"
	.attribute unaligned_access, 0
	.attribute stack_align, 16
	.text
.Ltext0:
	.cfi_sections	.debug_frame
	.section	.text._cb_led_trigger,"ax",@progbits
	.align	1
	.type	_cb_led_trigger, @function
_cb_led_trigger:
.LFB27:
	.file 1 "/home/hogc/build-tools/sdk/bl/bl_iot_sdk/components/sys/bloop/loopset/src/loopset_led.c"
	.loc 1 142 1
	.cfi_startproc
.LVL0:
	.loc 1 143 5
	.loc 1 145 5
	.loc 1 142 1 is_stmt 0
	addi	sp,sp,-16
	.cfi_def_cfa_offset 16
	sw	s0,8(sp)
	sw	ra,12(sp)
	.cfi_offset 8, -8
	.cfi_offset 1, -4
	.loc 1 145 5
	lw	a1,56(a2)
.LVL1:
	lbu	a0,48(a2)
.LVL2:
	.loc 1 142 1
	mv	s0,a2
	.loc 1 145 5
	snez	a1,a1
	call	bl_gpio_output_set
.LVL3:
	.loc 1 146 5 is_stmt 1
	.loc 1 146 43
	.loc 1 146 48
	.loc 1 146 71 is_stmt 0
	lui	a5,%hi(_fsymc_level_loopset)
	.loc 1 146 51
	lbu	a4,%lo(_fsymc_level_loopset)(a5)
	li	a5,1
	bgtu	a4,a5,.L2
	.loc 1 146 117 discriminator 2
	lui	a4,%hi(_fsymf_level_loopsetloopset_led)
	.loc 1 146 96 discriminator 2
	lbu	a4,%lo(_fsymf_level_loopsetloopset_led)(a4)
	bgtu	a4,a5,.L2
	.loc 1 146 157 is_stmt 1
.LBB30:
.LBB31:
	.file 2 "/home/hogc/build-tools/sdk/bl/bl_iot_sdk/components/bl602/freertos_riscv_ram/portable/GCC/RISC-V/portmacro.h"
	.loc 2 151 5
	.loc 2 151 31 is_stmt 0
	lui	a5,%hi(TrapNetCounter)
.LBE31:
.LBE30:
	.loc 1 146 157
	lw	a5,%lo(TrapNetCounter)(a5)
	beq	a5,zero,.L3
	.loc 1 146 252 discriminator 4
	call	xTaskGetTickCountFromISR
.LVL4:
.L4:
	.loc 1 146 157 discriminator 7
	lw	a4,56(s0)
	lw	a5,48(s0)
	bne	a4,zero,.L6
	.loc 1 146 157
	lui	a6,%hi(.LC1)
	addi	a6,a6,%lo(.LC1)
.L5:
	.loc 1 146 157 discriminator 11
	lui	a3,%hi(.LC2)
	lui	a2,%hi(.LC3)
	mv	a1,a0
	lui	a0,%hi(.LC4)
	li	a4,149
	addi	a3,a3,%lo(.LC2)
	addi	a2,a2,%lo(.LC3)
	addi	a0,a0,%lo(.LC4)
	call	bl_printk
.LVL5:
.L2:
	.loc 1 149 6 is_stmt 1
	.loc 1 150 5
	.loc 1 150 28 is_stmt 0
	lw	a5,56(s0)
	.loc 1 151 1
	lw	ra,12(sp)
	.cfi_remember_state
	.cfi_restore 1
	.loc 1 150 28
	seqz	a5,a5
	.loc 1 150 26
	sw	a5,56(s0)
	.loc 1 151 1
	lw	s0,8(sp)
	.cfi_restore 8
.LVL6:
	addi	sp,sp,16
	.cfi_def_cfa_offset 0
	jr	ra
.LVL7:
.L3:
	.cfi_restore_state
	.loc 1 146 281 discriminator 5
	call	xTaskGetTickCount
.LVL8:
	j	.L4
.L6:
	.loc 1 146 157
	lui	a6,%hi(.LC0)
	addi	a6,a6,%lo(.LC0)
	j	.L5
	.cfi_endproc
.LFE27:
	.size	_cb_led_trigger, .-_cb_led_trigger
	.section	.text._led_bloop_msg,"ax",@progbits
	.align	1
	.type	_led_bloop_msg, @function
_led_bloop_msg:
.LFB25:
	.loc 1 106 1 is_stmt 1
	.cfi_startproc
.LVL9:
	.loc 1 107 5
	.loc 1 107 43
	.loc 1 107 48
	.loc 1 107 71 is_stmt 0
	lui	a5,%hi(_fsymc_level_loopset)
	.loc 1 107 51
	lbu	a4,%lo(_fsymc_level_loopset)(a5)
	li	a5,1
	bgtu	a4,a5,.L13
	.loc 1 107 117 discriminator 2
	lui	a4,%hi(_fsymf_level_loopsetloopset_led)
	.loc 1 107 96 discriminator 2
	lbu	a4,%lo(_fsymf_level_loopsetloopset_led)(a4)
	bgtu	a4,a5,.L13
.LBB36:
.LBB37:
.LBB38:
.LBB39:
	.loc 2 151 31
	lui	a5,%hi(TrapNetCounter)
.LBE39:
.LBE38:
	.loc 1 107 157
	lw	a5,%lo(TrapNetCounter)(a5)
.LBE37:
.LBE36:
	.loc 1 106 1
	addi	sp,sp,-32
	.cfi_def_cfa_offset 32
	sw	s0,24(sp)
	sw	ra,28(sp)
	.cfi_offset 8, -8
	.cfi_offset 1, -4
	mv	s0,a2
.LVL10:
.LBB44:
.LBB42:
	.loc 1 107 157 is_stmt 1
.LBB41:
.LBB40:
	.loc 2 151 5
.LBE40:
.LBE41:
	.loc 1 107 157 is_stmt 0
	beq	a5,zero,.L10
	.loc 1 107 368
	call	xTaskGetTickCountFromISR
.LVL11:
.L11:
	.loc 1 107 157
	lw	a5,12(s0)
	mv	a1,a0
	lui	a3,%hi(.LC2)
	sw	a5,8(sp)
	lw	a5,8(s0)
	lui	a2,%hi(.LC3)
	lui	a0,%hi(.LC5)
	sw	a5,4(sp)
	lbu	a5,7(s0)
	addi	a0,a0,%lo(.LC5)
	li	a4,120
	sw	a5,0(sp)
	lbu	a7,6(s0)
	lbu	a6,5(s0)
	lbu	a5,4(s0)
	addi	a3,a3,%lo(.LC2)
	addi	a2,a2,%lo(.LC3)
	call	bl_printk
.LVL12:
.LBE42:
.LBE44:
	.loc 1 120 6 is_stmt 1
	.loc 1 121 5
	.loc 1 122 1 is_stmt 0
	lw	ra,28(sp)
	.cfi_remember_state
	.cfi_restore 1
	lw	s0,24(sp)
	.cfi_restore 8
.LVL13:
	li	a0,0
	addi	sp,sp,32
	.cfi_def_cfa_offset 0
	jr	ra
.LVL14:
.L10:
	.cfi_restore_state
.LBB45:
.LBB43:
	.loc 1 107 397
	call	xTaskGetTickCount
.LVL15:
	j	.L11
.LVL16:
.L13:
	.cfi_def_cfa_offset 0
	.cfi_restore 1
	.cfi_restore 8
.LBE43:
.LBE45:
	.loc 1 120 6 is_stmt 1
	.loc 1 121 5
	.loc 1 122 1 is_stmt 0
	li	a0,0
.LVL17:
	ret
	.cfi_endproc
.LFE25:
	.size	_led_bloop_msg, .-_led_bloop_msg
	.section	.text._led_bloop_evt,"ax",@progbits
	.align	1
	.type	_led_bloop_evt, @function
_led_bloop_evt:
.LFB24:
	.loc 1 83 1 is_stmt 1
	.cfi_startproc
.LVL18:
	addi	sp,sp,-48
	.cfi_def_cfa_offset 48
	sw	s4,24(sp)
	sw	s5,20(sp)
	sw	s6,16(sp)
	sw	s8,8(sp)
	sw	s9,4(sp)
	sw	ra,44(sp)
	sw	s0,40(sp)
	sw	s1,36(sp)
	sw	s2,32(sp)
	sw	s3,28(sp)
	sw	s7,12(sp)
	.cfi_offset 20, -24
	.cfi_offset 21, -28
	.cfi_offset 22, -32
	.cfi_offset 24, -40
	.cfi_offset 25, -44
	.cfi_offset 1, -4
	.cfi_offset 8, -8
	.cfi_offset 9, -12
	.cfi_offset 18, -16
	.cfi_offset 19, -20
	.cfi_offset 23, -36
	.loc 1 84 14 is_stmt 0
	lw	s1,0(a3)
.LBB58:
.LBB59:
	.loc 1 71 159
	lui	s4,%hi(.LC6)
	lui	s5,%hi(.LC7)
	lui	s6,%hi(.LC0)
.LBE59:
.LBE58:
	.loc 1 83 1
	mv	s9,a1
	.loc 1 84 5 is_stmt 1
.LVL19:
	.loc 1 85 5
	.loc 1 83 1 is_stmt 0
	mv	s8,a3
.LBB71:
.LBB68:
	.loc 1 71 159
	addi	s4,s4,%lo(.LC6)
	addi	s5,s5,%lo(.LC7)
	addi	s6,s6,%lo(.LC0)
.LVL20:
.L17:
.LBE68:
.LBE71:
	.loc 1 88 5 is_stmt 1
	.loc 1 88 13 is_stmt 0
	andi	a5,s1,1
	.loc 1 88 8
	beq	a5,zero,.L18
	.loc 1 89 9 is_stmt 1
	.loc 1 89 13 is_stmt 0
	andi	s1,s1,-2
.LVL21:
.L19:
	.loc 1 97 5 is_stmt 1
	.loc 1 97 8 is_stmt 0
	bne	s1,zero,.L17
.L32:
.LVL22:
	.loc 1 101 5 is_stmt 1
	.loc 1 103 1 is_stmt 0
	lw	ra,44(sp)
	.cfi_remember_state
	.cfi_restore 1
	lw	s0,40(sp)
	.cfi_restore 8
	.loc 1 101 19
	sw	zero,0(s8)
	.loc 1 102 5 is_stmt 1
	.loc 1 103 1 is_stmt 0
	lw	s1,36(sp)
	.cfi_restore 9
	lw	s2,32(sp)
	.cfi_restore 18
	lw	s3,28(sp)
	.cfi_restore 19
	lw	s4,24(sp)
	.cfi_restore 20
	lw	s5,20(sp)
	.cfi_restore 21
	lw	s6,16(sp)
	.cfi_restore 22
	lw	s7,12(sp)
	.cfi_restore 23
	lw	s8,8(sp)
	.cfi_restore 24
.LVL23:
	lw	s9,4(sp)
	.cfi_restore 25
.LVL24:
	li	a0,0
	addi	sp,sp,48
	.cfi_def_cfa_offset 0
	jr	ra
.LVL25:
.L18:
	.cfi_restore_state
	.loc 1 90 12 is_stmt 1
	.loc 1 90 20 is_stmt 0
	andi	a5,s1,2
	.loc 1 90 15
	beq	a5,zero,.L20
	.loc 1 91 9 is_stmt 1
	lw	s2,12(s9)
.LVL26:
.LBB72:
.LBB69:
	.loc 1 67 5
	.loc 1 68 5
	.loc 1 70 5
	.loc 1 70 217 is_stmt 0
	li	s3,0
	.loc 1 70 15
	lw	s0,12(s2)
.LVL27:
	.loc 1 70 217
	beq	s0,zero,.L21
	lw	s3,4(s0)
.L21:
	.loc 1 71 159
	lui	s7,%hi(.LC1)
	addi	s7,s7,%lo(.LC1)
.L22:
.LVL28:
	.loc 1 70 28
	addi	a5,s2,8
	.loc 1 70 5
	bne	s0,a5,.L29
.LVL29:
.LBE69:
.LBE72:
	.loc 1 92 9 is_stmt 1
	.loc 1 92 13 is_stmt 0
	andi	s1,s1,-3
.LVL30:
	j	.L19
.LVL31:
.L29:
.LBB73:
.LBB70:
	.loc 1 71 9 is_stmt 1
	.loc 1 71 47
	.loc 1 71 52
	.loc 1 71 74 is_stmt 0
	lui	a5,%hi(_fsymc_level_loopset)
	.loc 1 71 55
	lbu	a4,%lo(_fsymc_level_loopset)(a5)
	li	a5,2
	bgtu	a4,a5,.L23
	.loc 1 71 119
	lui	a4,%hi(_fsymf_level_loopsetloopset_led)
	.loc 1 71 99
	lbu	a4,%lo(_fsymf_level_loopsetloopset_led)(a4)
	bgtu	a4,a5,.L23
	.loc 1 71 159 is_stmt 1
.LBB60:
.LBB61:
	.loc 2 151 5
	.loc 2 151 31 is_stmt 0
	lui	a5,%hi(TrapNetCounter)
.LBE61:
.LBE60:
	.loc 1 71 159
	lw	a5,%lo(TrapNetCounter)(a5)
	beq	a5,zero,.L24
	.loc 1 71 278
	call	xTaskGetTickCountFromISR
.LVL32:
.L25:
	.loc 1 71 159
	lw	a4,52(s0)
	lw	a5,48(s0)
	mv	a6,s6
	bne	a4,zero,.L26
	mv	a6,s7
.L26:
	lw	a4,44(s0)
	mv	a7,s4
	bne	a4,zero,.L27
	mv	a7,s5
.L27:
	lui	a3,%hi(.LC2)
	lui	a2,%hi(.LC8)
	mv	a1,a0
	lui	a0,%hi(.LC9)
	li	a4,75
	addi	a3,a3,%lo(.LC2)
	addi	a2,a2,%lo(.LC8)
	addi	a0,a0,%lo(.LC9)
	call	bl_printk
.LVL33:
.L23:
	.loc 1 75 10 is_stmt 1
	.loc 1 76 9
	addi	a0,s0,8
	call	looprt_timer_register
.LVL34:
	.loc 1 77 9
.LBB62:
.LBB63:
	.file 3 "/home/hogc/build-tools/sdk/bl/bl_iot_sdk/components/utils/include/utils_list.h"
	.loc 3 317 5
	.loc 3 318 20 is_stmt 0
	lw	a5,4(s0)
	.loc 3 317 20
	lw	a4,0(s0)
.LVL35:
	.loc 3 318 5 is_stmt 1
	.loc 3 320 5
	.loc 3 320 16 is_stmt 0
	sw	a5,4(a4)
	.loc 3 321 5 is_stmt 1
	.loc 3 321 16 is_stmt 0
	sw	a4,0(a5)
.LVL36:
.LBE63:
.LBE62:
	.loc 1 78 9 is_stmt 1
.LBB64:
.LBB65:
	.loc 3 307 5
	.loc 3 307 41 is_stmt 0
	lw	a5,4(s2)
.LVL37:
.LBB66:
.LBB67:
	.loc 3 287 5 is_stmt 1
	.loc 3 288 16 is_stmt 0
	sw	s2,0(s0)
	.loc 3 287 16
	sw	a5,4(s0)
	.loc 3 288 5 is_stmt 1
	.loc 3 290 5
	.loc 3 290 16 is_stmt 0
	sw	s0,4(s2)
	.loc 3 291 5 is_stmt 1
	.loc 3 291 16 is_stmt 0
	sw	s0,0(a5)
.LVL38:
.LBE67:
.LBE66:
.LBE65:
.LBE64:
	.loc 1 70 185
	li	a5,0
	beq	s3,zero,.L28
	lw	a5,4(s3)
.L28:
	mv	s0,s3
	mv	s3,a5
.LVL39:
	j	.L22
.LVL40:
.L24:
	.loc 1 71 307
	call	xTaskGetTickCount
.LVL41:
	j	.L25
.LVL42:
.L20:
.LBE70:
.LBE73:
	.loc 1 94 9 is_stmt 1
	.loc 1 94 14
	.loc 1 94 17 is_stmt 0
	beq	s1,zero,.L32
.LVL43:
.LBB74:
.LBB75:
	.loc 1 94 33 is_stmt 1
	lui	a1,%hi(.LC2)
	lui	a0,%hi(.LC10)
	li	a2,94
	addi	a1,a1,%lo(.LC2)
	addi	a0,a0,%lo(.LC10)
	call	printf
.LVL44:
.L31:
	.loc 1 94 90
	.loc 1 94 102
	j	.L31
.LBE75:
.LBE74:
	.cfi_endproc
.LFE24:
	.size	_led_bloop_evt, .-_led_bloop_evt
	.section	.text.loopset_led_hook_on_looprt,"ax",@progbits
	.align	1
	.globl	loopset_led_hook_on_looprt
	.type	loopset_led_hook_on_looprt, @function
loopset_led_hook_on_looprt:
.LFB26:
	.loc 1 125 1
	.cfi_startproc
	.loc 1 126 5
	.loc 1 135 5
.LVL45:
.LBB76:
.LBB77:
	.loc 3 331 5
	.loc 3 331 16 is_stmt 0
	lui	a5,%hi(.LANCHOR0)
	addi	a5,a5,%lo(.LANCHOR0)
.LBE77:
.LBE76:
.LBB79:
.LBB80:
	addi	a4,a5,8
.LBE80:
.LBE79:
	.loc 1 138 12
	lui	a0,%hi(.LANCHOR1)
.LBB82:
.LBB78:
	.loc 3 331 16
	sw	a5,4(a5)
	.loc 3 332 5 is_stmt 1
	.loc 3 332 16 is_stmt 0
	sw	a5,0(a5)
.LVL46:
.LBE78:
.LBE82:
	.loc 1 136 5 is_stmt 1
.LBB83:
.LBB81:
	.loc 3 331 5
	.loc 3 331 16 is_stmt 0
	sw	a4,12(a5)
	.loc 3 332 5 is_stmt 1
	.loc 3 332 16 is_stmt 0
	sw	a4,8(a5)
.LVL47:
.LBE81:
.LBE83:
	.loc 1 138 5 is_stmt 1
	.loc 1 138 12 is_stmt 0
	li	a1,1
	addi	a0,a0,%lo(.LANCHOR1)
	tail	looprt_handler_register
.LVL48:
	.cfi_endproc
.LFE26:
	.size	loopset_led_hook_on_looprt, .-loopset_led_hook_on_looprt
	.section	.text.loopset_led_trigger,"ax",@progbits
	.align	1
	.globl	loopset_led_trigger
	.type	loopset_led_trigger, @function
loopset_led_trigger:
.LFB28:
	.loc 1 154 1 is_stmt 1
	.cfi_startproc
.LVL49:
	.loc 1 155 5
	.loc 1 157 5
	.loc 1 154 1 is_stmt 0
	addi	sp,sp,-32
	.cfi_def_cfa_offset 32
	sw	s2,16(sp)
	.cfi_offset 18, -16
	mv	s2,a0
	.loc 1 157 15
	li	a0,60
.LVL50:
	.loc 1 154 1
	sw	s3,12(sp)
	sw	ra,28(sp)
	sw	s0,24(sp)
	sw	s1,20(sp)
	.cfi_offset 19, -20
	.cfi_offset 1, -4
	.cfi_offset 8, -8
	.cfi_offset 9, -12
	.loc 1 154 1
	mv	s3,a1
	.loc 1 157 15
	call	pvPortMalloc
.LVL51:
	.loc 1 158 5 is_stmt 1
	.loc 1 158 10
	.loc 1 158 13 is_stmt 0
	bne	a0,zero,.L42
	.loc 1 158 28 is_stmt 1
	.loc 1 158 33
	.loc 1 158 35
.LBB84:
.LBB85:
	.loc 2 151 5
	.loc 2 151 31 is_stmt 0
	lui	a5,%hi(TrapNetCounter)
.LBE85:
.LBE84:
	.loc 1 158 35
	lw	a5,%lo(TrapNetCounter)(a5)
	beq	a5,zero,.L43
	.loc 1 158 116 discriminator 2
	call	xTaskGetTickCountFromISR
.LVL52:
.L44:
	.loc 1 158 35 discriminator 5
	lui	a3,%hi(.LC2)
	lui	a2,%hi(.LC11)
	mv	a1,a0
	lui	a0,%hi(.LC12)
	addi	a5,a3,%lo(.LC2)
	li	a6,158
	li	a4,158
	addi	a3,a3,%lo(.LC2)
	addi	a2,a2,%lo(.LC11)
	addi	a0,a0,%lo(.LC12)
	call	bl_printk
.LVL53:
.L45:
	.loc 1 158 237 is_stmt 1 discriminator 1
	.loc 1 158 254 discriminator 1
	.loc 1 158 266 discriminator 1
	j	.L45
.LVL54:
.L43:
	.loc 1 158 145 is_stmt 0 discriminator 3
	call	xTaskGetTickCount
.LVL55:
	j	.L44
.LVL56:
.L42:
	mv	s0,a0
	.loc 1 159 5 is_stmt 1
	li	a2,60
	li	a1,0
	call	memset
.LVL57:
	.loc 1 160 5
	.loc 1 162 5 is_stmt 0
	addi	s1,s0,8
	.loc 1 160 18
	sw	s2,48(s0)
	.loc 1 162 5 is_stmt 1
	li	a1,0
	mv	a0,s1
	call	bloop_timer_init
.LVL58:
	.loc 1 163 5
	mv	a0,s1
	call	bloop_timer_repeat_enable
.LVL59:
	.loc 1 164 5
	lui	a2,%hi(_cb_led_trigger)
	mv	a3,s0
	li	a5,1
	li	a4,1
	mv	a1,s3
	mv	a0,s1
	addi	a2,a2,%lo(_cb_led_trigger)
	call	bloop_timer_configure
.LVL60:
	.loc 1 170 5
	li	a1,0
	li	a2,0
	andi	a0,s2,0xff
	call	bl_gpio_enable_output
.LVL61:
	.loc 1 172 5
	call	vTaskEnterCritical
.LVL62:
	.loc 1 173 5
.LBB86:
.LBB87:
	.loc 3 307 5
	.loc 3 307 41 is_stmt 0
	lui	a5,%hi(.LANCHOR0)
	addi	a5,a5,%lo(.LANCHOR0)
	lw	a4,12(a5)
.LVL63:
.LBB88:
.LBB89:
	.loc 3 287 5 is_stmt 1
	.loc 3 288 16 is_stmt 0
	addi	a3,a5,8
	sw	a3,0(s0)
	.loc 3 287 16
	sw	a4,4(s0)
	.loc 3 288 5 is_stmt 1
	.loc 3 290 5
	.loc 3 290 16 is_stmt 0
	sw	s0,12(a5)
	.loc 3 291 5 is_stmt 1
	.loc 3 291 16 is_stmt 0
	sw	s0,0(a4)
.LVL64:
.LBE89:
.LBE88:
.LBE87:
.LBE86:
	.loc 1 174 5 is_stmt 1
	call	vTaskExitCritical
.LVL65:
	.loc 1 176 5
	.loc 1 177 1 is_stmt 0
	lw	s0,24(sp)
	.cfi_restore 8
.LVL66:
	lw	ra,28(sp)
	.cfi_restore 1
	lw	s1,20(sp)
	.cfi_restore 9
.LVL67:
	lw	s2,16(sp)
	.cfi_restore 18
.LVL68:
	lw	s3,12(sp)
	.cfi_restore 19
.LVL69:
	.loc 1 176 5
	li	a1,2
	.loc 1 177 1
	.loc 1 176 5
	li	a0,1
	.loc 1 177 1
	addi	sp,sp,32
	.cfi_def_cfa_offset 0
	.loc 1 176 5
	tail	looprt_evt_notify_async
.LVL70:
	.cfi_endproc
.LFE28:
	.size	loopset_led_trigger, .-loopset_led_trigger
	.globl	_fsymf_info_loopsetloopset_led
	.comm	_fsymf_level_loopsetloopset_led,1,1
	.comm	_fsymc_level_loopset,1,1
	.section	.bss.led_ctx,"aw",@nobits
	.align	2
	.set	.LANCHOR0,. + 0
	.type	led_ctx, @object
	.size	led_ctx, 16
led_ctx:
	.zero	16
	.section	.rodata._cb_led_trigger.str1.4,"aMS",@progbits,1
	.align	2
.LC0:
	.string	"Hi"
	.zero	1
.LC1:
	.string	"Lo"
	.zero	1
.LC2:
	.string	"loopset_led.c"
	.zero	2
.LC3:
	.string	"DEBUG "
	.zero	1
.LC4:
	.string	"[%10u][%s: %s:%4d] [LED] [CB] Set pin %d to %s\r\n"
	.section	.rodata._led_bloop_evt.str1.4,"aMS",@progbits,1
	.align	2
.LC6:
	.string	"Hearbeat"
	.zero	3
.LC7:
	.string	"Blink"
	.zero	2
.LC8:
	.string	"\033[32mINFO  \033[0m"
.LC9:
	.string	"[%10u][%s: %s:%4d] [LED] New Trigger: PIN %d, active level %s, type %s\r\n"
	.zero	3
.LC10:
	.string	"[ASSERT] [ERR] %s:%d\r\n"
	.section	.rodata._led_bloop_handler_holder.3378,"a"
	.align	2
	.set	.LANCHOR1,. + 0
	.type	_led_bloop_handler_holder.3378, @object
	.size	_led_bloop_handler_holder.3378, 16
_led_bloop_handler_holder.3378:
	.word	.LC13
	.word	_led_bloop_evt
	.word	_led_bloop_msg
	.word	led_ctx
	.section	.rodata._led_bloop_msg.str1.4,"aMS",@progbits,1
	.align	2
.LC5:
	.string	"[%10u][%s: %s:%4d] [LED] [MSG] called with msg info\r\n    priority %u\r\n    dst %u\r\n    msgid %u\r\n    src %u\r\n    arg1 %p\r\n    arg2 %p\r\n"
	.section	.rodata.loopset_led_trigger.str1.4,"aMS",@progbits,1
	.align	2
.LC11:
	.string	"\033[35mASSERT\033[0m"
.LC12:
	.string	"[%10u][%s: %s:%4d] ASSERT: %s:%d\r\n"
	.section	.rodata.str1.4,"aMS",@progbits,1
	.align	2
.LC13:
	.string	"Led Trigger"
.LC14:
	.string	"loopset.loopset_led"
.LC15:
	.string	"loopset"
	.section	.sdata2.BLOG_HARD_DECLARE_DISABLE,"a"
	.align	2
	.type	BLOG_HARD_DECLARE_DISABLE, @object
	.size	BLOG_HARD_DECLARE_DISABLE, 4
BLOG_HARD_DECLARE_DISABLE:
	.zero	4
	.section	.static_blogcomponent_code.loopset,"a"
	.align	2
	.type	_fsymc_info_loopset, @object
	.size	_fsymc_info_loopset, 8
_fsymc_info_loopset:
	.word	_fsymc_level_loopset
	.word	.LC15
	.section	.static_blogfile_code.loopsetloopset_led,"a"
	.align	2
	.type	_fsymf_info_loopsetloopset_led, @object
	.size	_fsymf_info_loopsetloopset_led, 8
_fsymf_info_loopsetloopset_led:
	.word	_fsymf_level_loopsetloopset_led
	.word	.LC14
	.text
.Letext0:
	.file 4 "/home/hogc/build-tools/sdk/bl/bl_iot_sdk/toolchain/riscv/Linux/lib/gcc/riscv64-unknown-elf/8.3.0/include/stddef.h"
	.file 5 "/home/hogc/build-tools/sdk/bl/bl_iot_sdk/toolchain/riscv/Linux/lib/gcc/riscv64-unknown-elf/8.3.0/include/stdint-gcc.h"
	.file 6 "/home/hogc/build-tools/sdk/bl/bl_iot_sdk/components/bl602/freertos_riscv_ram/config/task.h"
	.file 7 "/home/hogc/build-tools/sdk/bl/bl_iot_sdk/toolchain/riscv/Linux/riscv64-unknown-elf/include/sys/_types.h"
	.file 8 "/home/hogc/build-tools/sdk/bl/bl_iot_sdk/toolchain/riscv/Linux/riscv64-unknown-elf/include/sys/reent.h"
	.file 9 "/home/hogc/build-tools/sdk/bl/bl_iot_sdk/toolchain/riscv/Linux/riscv64-unknown-elf/include/sys/lock.h"
	.file 10 "/home/hogc/build-tools/sdk/bl/bl_iot_sdk/toolchain/riscv/Linux/riscv64-unknown-elf/include/stdlib.h"
	.file 11 "/home/hogc/build-tools/sdk/bl/bl_iot_sdk/components/stage/blog/blog_type.h"
	.file 12 "/home/hogc/build-tools/sdk/bl/bl_iot_sdk/components/stage/blog/blog.h"
	.file 13 "/home/hogc/build-tools/sdk/bl/bl_iot_sdk/components/sys/bloop/bloop/include/bloop.h"
	.file 14 "/home/hogc/build-tools/sdk/bl/bl_iot_sdk/components/bl602/freertos_riscv_ram/config/portable.h"
	.file 15 "/home/hogc/build-tools/sdk/bl/bl_iot_sdk/components/utils/include/utils_log.h"
	.file 16 "/home/hogc/build-tools/sdk/bl/bl_iot_sdk/toolchain/riscv/Linux/riscv64-unknown-elf/include/string.h"
	.file 17 "/home/hogc/build-tools/sdk/bl/bl_iot_sdk/components/hal_drv/bl602_hal/bl_gpio.h"
	.file 18 "/home/hogc/build-tools/sdk/bl/bl_iot_sdk/components/sys/bloop/looprt/include/looprt.h"
	.file 19 "/home/hogc/build-tools/sdk/bl/bl_iot_sdk/toolchain/riscv/Linux/riscv64-unknown-elf/include/stdio.h"