	.file	"ping.c"
	.option nopic
	.attribute arch, "rv32i2p0_m2p0_f2p0_c2p0"
	.attribute unaligned_access, 0
	.attribute stack_align, 16
	.text
.Ltext0:
	.cfi_sections	.debug_frame
	.section	.text.ping_usage,"ax",@progbits
	.align	1
	.type	ping_usage, @function
ping_usage:
.LFB32:
	.file 1 "/b-l/bl_iot_sdk_new/components/network/netutils/ping/ping.c"
	.loc 1 400 1
	.cfi_startproc
	.loc 1 401 5
	lui	a1,%hi(.LC0)
	lui	a0,%hi(.LC1)
	addi	a1,a1,%lo(.LC0)
	addi	a0,a0,%lo(.LC1)
	tail	printf
.LVL0:
	.cfi_endproc
.LFE32:
	.size	ping_usage, .-ping_usage
	.section	.text.ping_free,"ax",@progbits
	.align	1
	.type	ping_free, @function
ping_free:
.LFB27:
	.loc 1 230 1
	.cfi_startproc
.LVL1:
	.loc 1 231 5
	.loc 1 232 5
	.loc 1 230 1 is_stmt 0
	addi	sp,sp,-32
	.cfi_def_cfa_offset 32
	sw	s0,24(sp)
	sw	s1,20(sp)
	sw	s2,16(sp)
	sw	ra,28(sp)
	sw	s3,12(sp)
	.cfi_offset 8, -8
	.cfi_offset 9, -12
	.cfi_offset 18, -16
	.cfi_offset 1, -4
	.cfi_offset 19, -20
	.loc 1 230 1
	mv	s0,a0
	.loc 1 233 9
	lui	s1,%hi(.LC2)
	.loc 1 234 36
	addi	s2,a0,32
.LVL2:
.L3:
	.loc 1 232 25
	lw	a5,32(s0)
	.loc 1 232 11
	bne	a5,zero,.L4
	.loc 1 237 5 is_stmt 1
	lw	a0,28(s0)
	call	raw_remove
.LVL3:
	.loc 1 238 5
	lw	a0,24(s0)
	call	utils_memp_deinit
.LVL4:
	.loc 1 239 5
	mv	a0,s0
	.loc 1 240 1 is_stmt 0
	lw	s0,24(sp)
	.cfi_remember_state
	.cfi_restore 8
.LVL5:
	lw	ra,28(sp)
	.cfi_restore 1
	lw	s1,20(sp)
	.cfi_restore 9
	lw	s2,16(sp)
	.cfi_restore 18
	lw	s3,12(sp)
	.cfi_restore 19
	addi	sp,sp,32
	.cfi_def_cfa_offset 0
	.loc 1 239 5
	tail	vPortFree
.LVL6:
.L4:
	.cfi_restore_state
	.loc 1 233 9 is_stmt 1
	.loc 1 233 56 is_stmt 0
	lhu	a0,4(a5)
	call	lwip_htons
.LVL7:
	.loc 1 233 9
	mv	a1,a0
	addi	a0,s1,%lo(.LC2)
	call	printf
.LVL8:
	.loc 1 234 9 is_stmt 1
	lw	s3,24(s0)
	.loc 1 234 36 is_stmt 0
	mv	a0,s2
	call	utils_list_pop_front
.LVL9:
	.loc 1 234 9
	mv	a1,a0
	mv	a0,s3
	call	utils_memp_free
.LVL10:
	.loc 1 235 9 is_stmt 1
	.loc 1 235 22 is_stmt 0
	lbu	a5,18(s0)
	addi	a5,a5,-1
	sb	a5,18(s0)
	j	.L3
	.cfi_endproc
.LFE27:
	.size	ping_free, .-ping_free
	.section	.text.ping_timeout,"ax",@progbits
	.align	1
	.type	ping_timeout, @function
ping_timeout:
.LFB26:
	.loc 1 189 1 is_stmt 1
	.cfi_startproc
.LVL11:
	.loc 1 190 5
	.loc 1 197 5
	.loc 1 189 1 is_stmt 0
	addi	sp,sp,-32
	.cfi_def_cfa_offset 32
	sw	s0,24(sp)
	sw	s1,20(sp)
	sw	s2,16(sp)
	sw	ra,28(sp)
	sw	s3,12(sp)
	sw	s4,8(sp)
	sw	s5,4(sp)
	.cfi_offset 8, -8
	.cfi_offset 9, -12
	.cfi_offset 18, -16
	.cfi_offset 1, -4
	.cfi_offset 19, -20
	.cfi_offset 20, -24
	.cfi_offset 21, -28
	.loc 1 189 1
	mv	s0,a0
	.loc 1 198 9
	lui	s1,%hi(.LC2)
	.loc 1 199 52
	addi	s2,a0,32
.LVL12:
.L7:
	.loc 1 197 11
	lw	a5,32(s0)
	bne	a5,zero,.L8
.L12:
	.loc 1 202 5 is_stmt 1
	.loc 1 202 8 is_stmt 0
	lbu	a4,18(s0)
	li	a5,10
	bne	a4,a5,.L10
	.loc 1 203 9 is_stmt 1
	lw	s1,24(s0)
	.loc 1 203 52 is_stmt 0
	addi	a0,s0,32
	call	utils_list_pop_front
.LVL13:
	.loc 1 203 9
	mv	a1,a0
	mv	a0,s1
	call	utils_memp_free
.LVL14:
	.loc 1 204 9 is_stmt 1
	.loc 1 204 22 is_stmt 0
	lbu	a5,18(s0)
	addi	a5,a5,-1
	sb	a5,18(s0)
.L10:
	.loc 1 209 5 is_stmt 1
.LVL15:
.LBB6:
.LBB7:
	.loc 1 152 5
	.loc 1 153 5
	.loc 1 154 5
	.loc 1 155 5
	.loc 1 156 5
	.loc 1 156 10
	.loc 1 156 40
	.loc 1 157 5
	.loc 1 157 9 is_stmt 0
	lhu	s3,10(s0)
.LVL16:
	li	a2,640
	li	a0,162
	addi	s3,s3,8
.LVL17:
	slli	s3,s3,16
.LVL18:
	srli	s3,s3,16
	mv	a1,s3
	call	pbuf_alloc
.LVL19:
	mv	s2,a0
.LVL20:
	.loc 1 158 5 is_stmt 1
	.loc 1 158 8 is_stmt 0
	beq	a0,zero,.L13
	.loc 1 162 5 is_stmt 1
	.loc 1 162 8 is_stmt 0
	lhu	a4,10(a0)
	lhu	a5,8(a0)
	bne	a4,a5,.L17
	.loc 1 162 32
	lw	a5,0(a0)
	bne	a5,zero,.L17
	.loc 1 163 9 is_stmt 1
	.loc 1 163 15 is_stmt 0
	lw	s1,4(a0)
.LVL21:
	.loc 1 164 9 is_stmt 1
	.loc 1 164 35 is_stmt 0
	lw	a0,24(s0)
.LVL22:
	call	utils_memp_malloc
.LVL23:
	mv	s4,a0
.LVL24:
	.loc 1 165 9 is_stmt 1
	.loc 1 165 12 is_stmt 0
	beq	a0,zero,.L17
	.loc 1 172 9 is_stmt 1
.LVL25:
.LBB8:
.LBB9:
	.loc 1 97 5
	.loc 1 98 5
	.loc 1 100 20 is_stmt 0
	li	a5,8
	sb	a5,0(s1)
	.loc 1 101 20
	sb	zero,1(s1)
	.loc 1 102 19
	sb	zero,2(s1)
	sb	zero,3(s1)
	.loc 1 103 20
	lhu	a5,14(s0)
	.loc 1 98 12
	addi	s5,s3,-8
.LVL26:
	.loc 1 99 5 is_stmt 1
	.loc 1 100 5
	.loc 1 101 5
	.loc 1 102 5
	.loc 1 103 5
	.loc 1 103 15 is_stmt 0
	sb	a5,4(s1)
	srli	a5,a5,8
	sb	a5,5(s1)
	.loc 1 104 5 is_stmt 1
	.loc 1 104 20 is_stmt 0
	lhu	a0,12(s0)
.LVL27:
	addi	a0,a0,1
	slli	a0,a0,16
	srli	a0,a0,16
	.loc 1 104 18
	sh	a0,12(s0)
	.loc 1 104 20
	call	lwip_htons
.LVL28:
	.loc 1 104 18
	sb	a0,6(s1)
	srli	a0,a0,8
	sb	a0,7(s1)
	.loc 1 106 5 is_stmt 1
.LVL29:
	.loc 1 106 11 is_stmt 0
	li	a5,0
.LVL30:
.L15:
	.loc 1 106 5
	bgtu	s5,a5,.L16
	.loc 1 109 5 is_stmt 1
	.loc 1 109 21 is_stmt 0
	mv	a1,s3
	mv	a0,s1
	call	inet_chksum
.LVL31:
.LBE9:
.LBE8:
	.loc 1 173 35
	lbu	a5,7(s1)
	lbu	a4,6(s1)
.LBB14:
.LBB10:
	.loc 1 109 19
	sb	a0,2(s1)
.LBE10:
.LBE14:
	.loc 1 173 35
	slli	a5,a5,8
.LBB15:
.LBB11:
	.loc 1 109 19
	srli	a0,a0,8
.LBE11:
.LBE15:
	.loc 1 173 35
	or	a5,a5,a4
.LBB16:
.LBB12:
	.loc 1 109 19
	sb	a0,3(s1)
.LVL32:
.LBE12:
.LBE16:
	.loc 1 173 9 is_stmt 1
	.loc 1 173 28 is_stmt 0
	sh	a5,4(s4)
	.loc 1 175 9 is_stmt 1
	lw	a0,28(s0)
	addi	a2,s0,20
	mv	a1,s2
	call	raw_sendto
.LVL33:
	.loc 1 176 9
	.loc 1 176 31 is_stmt 0
	call	sys_now
.LVL34:
	.loc 1 176 29
	sw	a0,8(s4)
	.loc 1 177 9 is_stmt 1
	mv	a1,s4
	addi	a0,s0,32
	call	utils_list_push_back
.LVL35:
	.loc 1 178 9
	.loc 1 178 22 is_stmt 0
	lbu	a5,18(s0)
	addi	a5,a5,1
	sb	a5,18(s0)
	.loc 1 179 9 is_stmt 1
	.loc 1 179 28 is_stmt 0
	lw	a5,4(s0)
	addi	a5,a5,1
	sw	a5,4(s0)
.LVL36:
.L17:
	.loc 1 183 5 is_stmt 1
	.loc 1 184 9
	mv	a0,s2
	call	pbuf_free
.LVL37:
.L13:
.LBE7:
.LBE6:
	.loc 1 215 5
	lhu	a0,8(s0)
	lui	s1,%hi(ping_timeout)
	mv	a2,s0
	addi	a1,s1,%lo(ping_timeout)
	call	sys_timeout
.LVL38:
	.loc 1 222 5
	.loc 1 222 8 is_stmt 0
	lw	a4,4(s0)
	lw	a5,0(s0)
	bne	a4,a5,.L6
	.loc 1 223 9 is_stmt 1
	mv	a1,s0
	addi	a0,s1,%lo(ping_timeout)
	call	sys_untimeout
.LVL39:
	.loc 1 224 9
	lhu	a0,16(s0)
	mv	a2,s0
	.loc 1 227 1 is_stmt 0
	lw	s0,24(sp)
	.cfi_remember_state
	.cfi_restore 8
.LVL40:
	lw	ra,28(sp)
	.cfi_restore 1
	lw	s1,20(sp)
	.cfi_restore 9
	lw	s2,16(sp)
	.cfi_restore 18
	lw	s3,12(sp)
	.cfi_restore 19
	lw	s4,8(sp)
	.cfi_restore 20
	lw	s5,4(sp)
	.cfi_restore 21
	.loc 1 224 9
	lui	a1,%hi(ping_free)
	.loc 1 227 1
	.loc 1 224 9
	addi	a1,a1,%lo(ping_free)
	.loc 1 227 1
	addi	sp,sp,32
	.cfi_def_cfa_offset 0
	.loc 1 224 9
	tail	sys_timeout
.LVL41:
.L8:
	.cfi_restore_state
	.loc 1 197 35 discriminator 1
	call	sys_now
.LVL42:
	.loc 1 197 77 discriminator 1
	lw	a4,32(s0)
	.loc 1 197 45 discriminator 1
	lw	a5,8(a4)
	sub	a0,a0,a5
	.loc 1 197 97 discriminator 1
	lhu	a5,16(s0)
	.loc 1 197 32 discriminator 1
	bleu	a0,a5,.L12
	.loc 1 198 9 is_stmt 1
	.loc 1 198 56 is_stmt 0
	lhu	a0,4(a4)
	call	lwip_htons
.LVL43:
	.loc 1 198 9
	mv	a1,a0
	addi	a0,s1,%lo(.LC2)
	call	printf
.LVL44:
	.loc 1 199 9 is_stmt 1
	lw	s3,24(s0)
	.loc 1 199 52 is_stmt 0
	mv	a0,s2
	call	utils_list_pop_front
.LVL45:
	.loc 1 199 9
	mv	a1,a0
	mv	a0,s3
	call	utils_memp_free
.LVL46:
	.loc 1 200 9 is_stmt 1
	.loc 1 200 22 is_stmt 0
	lbu	a5,18(s0)
	addi	a5,a5,-1
	sb	a5,18(s0)
	j	.L7
.LVL47:
.L16:
.LBB19:
.LBB18:
.LBB17:
.LBB13:
	.loc 1 107 9 is_stmt 1
	.loc 1 107 58 is_stmt 0
	add	a4,s1,a5
	sb	a5,8(a4)
	.loc 1 106 31
	addi	a5,a5,1
.LVL48:
	j	.L15
.LVL49:
.L6:
.LBE13:
.LBE17:
.LBE18:
.LBE19:
	.loc 1 227 1
	lw	ra,28(sp)
	.cfi_restore 1
	lw	s0,24(sp)
	.cfi_restore 8
.LVL50:
	lw	s1,20(sp)
	.cfi_restore 9
	lw	s2,16(sp)
	.cfi_restore 18
	lw	s3,12(sp)
	.cfi_restore 19
	lw	s4,8(sp)
	.cfi_restore 20
	lw	s5,4(sp)
	.cfi_restore 21
	addi	sp,sp,32
	.cfi_def_cfa_offset 0
	jr	ra
	.cfi_endproc
.LFE26:
	.size	ping_timeout, .-ping_timeout
	.section	.text.ping_recv,"ax",@progbits
	.align	1
	.type	ping_recv, @function
ping_recv:
.LFB24:
	.loc 1 114 1 is_stmt 1
	.cfi_startproc
.LVL51:
	.loc 1 115 5
	.loc 1 116 5
	.loc 1 117 5
	.loc 1 118 5
	.loc 1 119 5
	.loc 1 120 5
	.loc 1 121 5
	.loc 1 122 5
	.loc 1 122 10
	.loc 1 122 9
	.loc 1 129 5
	.loc 1 129 65 is_stmt 0
	lhu	a5,10(a0)
	.loc 1 129 11
	lhu	a4,8(a2)
	.loc 1 129 60
	addi	a5,a5,28
	.loc 1 129 8
	bne	a4,a5,.L34
	.loc 1 129 78 discriminator 1
	lw	a1,20(a0)
.LVL52:
	lw	a4,0(a3)
	.loc 1 147 12 discriminator 1
	li	a5,0
	.loc 1 129 78 discriminator 1
	bne	a1,a4,.L51
	.loc 1 114 1
	addi	sp,sp,-48
	.cfi_def_cfa_offset 48
	sw	s0,40(sp)
	sw	s2,32(sp)
	sw	ra,44(sp)
	sw	s1,36(sp)
	.cfi_offset 8, -8
	.cfi_offset 18, -16
	.cfi_offset 1, -4
	.cfi_offset 9, -12
.LBB24:
.LBB25:
	.loc 1 130 38
	lw	a1,4(a2)
	mv	s2,a2
	mv	s0,a0
.LVL53:
	.loc 1 130 9 is_stmt 1
	li	a2,8
.LVL54:
	addi	a1,a1,20
	addi	a0,sp,24
.LVL55:
	call	memcpy
.LVL56:
	.loc 1 131 9
	.loc 1 133 9
	lbu	a5,24(sp)
	lbu	a0,25(sp)
	or	a5,a5,a0
	.loc 1 133 32 is_stmt 0
	bne	a5,zero,.L36
	.loc 1 133 54
	lhu	a3,28(sp)
	lhu	a4,14(s0)
	bne	a3,a4,.L39
	.loc 1 133 86
	lbu	a4,18(s0)
	.loc 1 133 80
	beq	a4,zero,.L39
	.loc 1 134 13 is_stmt 1
.LBB26:
.LBB27:
	.loc 1 365 15 is_stmt 0
	lw	s1,32(s0)
.LBE27:
.LBE26:
	.loc 1 134 24
	lhu	a4,30(sp)
.LVL57:
.LBB30:
.LBB28:
	.loc 1 363 5 is_stmt 1
	.loc 1 364 5
	.loc 1 365 5
	.loc 1 366 5
	.loc 1 366 8 is_stmt 0
	beq	s1,zero,.L39
	.loc 1 366 38
	lhu	a3,4(s1)
	.loc 1 366 26
	bltu	a4,a3,.L39
	.loc 1 368 5 is_stmt 1
	.loc 1 368 8 is_stmt 0
	bne	a4,a3,.L29
	lw	a5,0(s1)
	.loc 1 369 9 is_stmt 1
.LVL58:
	.loc 1 370 9
	.loc 1 370 21 is_stmt 0
	sw	a5,32(s0)
.LVL59:
.L30:
.LBE28:
.LBE30:
	.loc 1 136 13 is_stmt 1
	.loc 1 137 17
	lhu	a1,8(s2)
	addi	a0,s0,20
	sw	a1,12(sp)
	call	ip4addr_ntoa
.LVL60:
	sw	a0,8(sp)
	.loc 1 137 119 is_stmt 0
	lhu	a0,30(sp)
	call	lwip_htons
.LVL61:
	.loc 1 137 145
	lw	a5,4(s2)
	.loc 1 137 119
	sw	a0,4(sp)
	.loc 1 137 17
	lbu	a4,8(a5)
	sw	a4,0(sp)
	.loc 1 137 176
	call	sys_now
.LVL62:
	.loc 1 137 17
	lw	a5,8(s1)
	lw	a4,0(sp)
	lw	a3,4(sp)
	lw	a2,8(sp)
	lw	a1,12(sp)
	sub	a5,a0,a5
	lui	a0,%hi(.LC3)
	addi	a0,a0,%lo(.LC3)
	call	printf
.LVL63:
	.loc 1 139 17 is_stmt 1
	lw	a0,24(s0)
	mv	a1,s1
	call	utils_memp_free
.LVL64:
	.loc 1 140 17
	.loc 1 140 30 is_stmt 0
	lbu	a5,18(s0)
	.loc 1 141 17
	mv	a0,s2
	.loc 1 140 30
	addi	a5,a5,-1
	sb	a5,18(s0)
	.loc 1 141 17 is_stmt 1
	call	pbuf_free
.LVL65:
	.loc 1 142 17
	.loc 1 142 24 is_stmt 0
	li	a5,1
	j	.L39
.LVL66:
.L38:
.LBB31:
.LBB29:
	.loc 1 374 41
	mv	s1,a3
.LVL67:
.L29:
	.loc 1 374 26
	lw	a3,0(s1)
	.loc 1 374 15
	beq	a3,zero,.L39
	.loc 1 374 60
	lhu	a2,4(a3)
	.loc 1 374 41
	bgtu	a4,a2,.L38
	.loc 1 378 9 is_stmt 1
	.loc 1 378 36 is_stmt 0
	bne	a4,a2,.L39
	.loc 1 380 13 is_stmt 1
	.loc 1 380 16 is_stmt 0
	lw	a5,36(s0)
	bne	a3,a5,.L32
	.loc 1 382 17 is_stmt 1
	.loc 1 382 28 is_stmt 0
	sw	s1,36(s0)
.L32:
	.loc 1 384 13 is_stmt 1
	.loc 1 384 18 is_stmt 0
	lw	a5,0(s1)
.LVL68:
	.loc 1 385 13 is_stmt 1
	.loc 1 385 35 is_stmt 0
	lw	a4,0(a5)
.LVL69:
	.loc 1 385 29
	sw	a4,0(s1)
.LVL70:
	mv	s1,a5
.LVL71:
	j	.L30
.LVL72:
.L36:
.LBE29:
.LBE31:
	.loc 1 147 12
	li	a5,0
.L39:
.LBE25:
.LBE24:
	.loc 1 148 1
	lw	ra,44(sp)
	.cfi_restore 1
	lw	s0,40(sp)
	.cfi_restore 8
.LVL73:
	lw	s1,36(sp)
	.cfi_restore 9
	lw	s2,32(sp)
	.cfi_restore 18
.LVL74:
	mv	a0,a5
	addi	sp,sp,48
	.cfi_def_cfa_offset 0
.LVL75:
	jr	ra
.LVL76:
.L34:
	.loc 1 147 12
	li	a5,0
.LVL77:
.L51:
	.loc 1 148 1
	mv	a0,a5
.LVL78:
	ret
	.cfi_endproc
.LFE24:
	.size	ping_recv, .-ping_recv
	.section	.text.ping_api_init,"ax",@progbits
	.align	1
	.globl	ping_api_init
	.type	ping_api_init, @function
ping_api_init:
.LFB29:
	.loc 1 274 1 is_stmt 1
	.cfi_startproc
.LVL79:
	.loc 1 275 5
	.loc 1 276 5
	.loc 1 274 1 is_stmt 0
	addi	sp,sp,-48
	.cfi_def_cfa_offset 48
	sw	s3,28(sp)
	.cfi_offset 19, -20
	mv	s3,a0
	.loc 1 276 29
	li	a0,40
.LVL80:
	.loc 1 274 1
	sw	s0,40(sp)
	sw	s1,36(sp)
	sw	s2,32(sp)
	sw	a1,12(sp)
	sw	a2,8(sp)
	sw	ra,44(sp)
	.cfi_offset 8, -8
	.cfi_offset 9, -12
	.cfi_offset 18, -16
	.cfi_offset 1, -4
	.loc 1 274 1
	mv	s2,a3
	mv	s1,a4
	.loc 1 276 29
	call	pvPortMalloc
.LVL81:
	mv	s0,a0
.LVL82:
	.loc 1 277 5 is_stmt 1
	.loc 1 277 8 is_stmt 0
	lw	a2,8(sp)
	lw	a1,12(sp)
	bne	a0,zero,.L55
	.loc 1 278 9 is_stmt 1
	lui	a0,%hi(.LC4)
	addi	a0,a0,%lo(.LC4)
	call	printf
.LVL83:
	.loc 1 279 9
.L54:
	.loc 1 295 1 is_stmt 0
	mv	a0,s0
	lw	ra,44(sp)
	.cfi_remember_state
	.cfi_restore 1
	lw	s0,40(sp)
	.cfi_restore 8
.LVL84:
	lw	s1,36(sp)
	.cfi_restore 9
	lw	s2,32(sp)
	.cfi_restore 18
	lw	s3,28(sp)
	.cfi_restore 19
	addi	sp,sp,48
	.cfi_def_cfa_offset 0
.LVL85:
	jr	ra
.LVL86:
.L55:
	.cfi_restore_state
	.loc 1 281 5 is_stmt 1
	.loc 1 281 22 is_stmt 0
	sw	a2,0(a0)
	.loc 1 282 5 is_stmt 1
	.loc 1 284 20 is_stmt 0
	sh	a1,10(a0)
	.loc 1 282 25
	sw	zero,4(a0)
	.loc 1 283 5 is_stmt 1
	.loc 1 283 19 is_stmt 0
	sh	s3,8(a0)
	.loc 1 284 5 is_stmt 1
	.loc 1 285 5
	.loc 1 285 18 is_stmt 0
	sh	zero,12(a0)
	.loc 1 286 5 is_stmt 1
	.loc 1 286 15 is_stmt 0
	call	bl_rand
.LVL87:
	.loc 1 286 13
	sh	a0,14(s0)
	.loc 1 287 5 is_stmt 1
	.loc 1 287 18 is_stmt 0
	sh	s2,16(s0)
	.loc 1 288 5 is_stmt 1
	.loc 1 288 19 is_stmt 0
	sb	zero,18(s0)
	.loc 1 289 5 is_stmt 1
	.loc 1 289 15 is_stmt 0
	lw	a5,0(s1)
.LBB34:
.LBB35:
	.loc 1 246 9
	li	a3,4
	li	a2,10
.LBE35:
.LBE34:
	.loc 1 289 15
	sw	a5,20(s0)
	.loc 1 290 5 is_stmt 1
.LVL88:
.LBB38:
.LBB36:
	.loc 1 244 5
	.loc 1 245 5
	.loc 1 246 5
	.loc 1 246 9 is_stmt 0
	li	a1,12
	addi	a0,s0,24
	call	utils_memp_init
.LVL89:
	.loc 1 246 8
	beq	a0,zero,.L57
	.loc 1 247 9 is_stmt 1
	lui	a0,%hi(.LC5)
	addi	a0,a0,%lo(.LC5)
.LVL90:
.L61:
	.loc 1 261 9 is_stmt 0
	call	printf
.LVL91:
	.loc 1 262 9 is_stmt 1
.LBE36:
.LBE38:
	.loc 1 291 9
	lui	a0,%hi(.LC7)
	addi	a0,a0,%lo(.LC7)
	call	printf
.LVL92:
	.loc 1 292 9
	mv	a0,s0
	call	vPortFree
.LVL93:
	j	.L54
.LVL94:
.L57:
.LBB39:
.LBB37:
	.loc 1 250 5
	addi	a0,s0,32
	call	utils_list_init
.LVL95:
	.loc 1 256 5
	.loc 1 257 5
	.loc 1 257 11 is_stmt 0
	li	a0,1
	call	raw_new
.LVL96:
	mv	s1,a0
.LVL97:
	.loc 1 259 5 is_stmt 1
	.loc 1 259 8 is_stmt 0
	bne	a0,zero,.L59
	.loc 1 260 9 is_stmt 1
	.loc 1 261 9
	lui	a0,%hi(.LC6)
	addi	a0,a0,%lo(.LC6)
	j	.L61
.L59:
	.loc 1 264 5
	.loc 1 265 5 is_stmt 0
	lui	a1,%hi(ping_recv)
	mv	a2,s0
	.loc 1 264 14
	sw	a0,28(s0)
	.loc 1 265 5 is_stmt 1
	addi	a1,a1,%lo(ping_recv)
	call	raw_recv
.LVL98:
	.loc 1 266 5
	lui	a1,%hi(ip_addr_any)
	addi	a1,a1,%lo(ip_addr_any)
	mv	a0,s1
	call	raw_bind
.LVL99:
	.loc 1 267 5
	lui	a1,%hi(ping_timeout)
	mv	a2,s0
	addi	a1,a1,%lo(ping_timeout)
	li	a0,0
	call	sys_timeout
.LVL100:
	.loc 1 268 5
	.loc 1 270 5
	j	.L54
.LBE37:
.LBE39:
	.cfi_endproc
.LFE29:
	.size	ping_api_init, .-ping_api_init
	.section	.text.ping_cmd,"ax",@progbits
	.align	1
	.type	ping_cmd, @function
ping_cmd:
.LFB30:
	.loc 1 298 1
	.cfi_startproc
.LVL101:
	.loc 1 304 5
	.loc 1 305 5
	.loc 1 306 5
	.loc 1 298 1 is_stmt 0
	addi	sp,sp,-96
	.cfi_def_cfa_offset 96
	sw	s1,84(sp)
	.loc 1 306 5
	li	a1,0
.LVL102:
	addi	a0,sp,12
.LVL103:
	.cfi_offset 9, -12
	.loc 1 310 11
	li	s1,4096
	.loc 1 298 1
	sw	s0,88(sp)
	sw	s2,80(sp)
	sw	s3,76(sp)
	sw	s4,72(sp)
	sw	s5,68(sp)
	sw	s6,64(sp)
	sw	s7,60(sp)
	sw	s8,56(sp)
	sw	s9,52(sp)
	sw	s10,48(sp)
	sw	ra,92(sp)
	sw	s11,44(sp)
	.cfi_offset 8, -8
	.cfi_offset 18, -16
	.cfi_offset 19, -20
	.cfi_offset 20, -24
	.cfi_offset 21, -28
	.cfi_offset 22, -32
	.cfi_offset 23, -36
	.cfi_offset 24, -40
	.cfi_offset 25, -44
	.cfi_offset 26, -48
	.cfi_offset 1, -4
	.cfi_offset 27, -52
	.loc 1 298 1
	mv	s5,a2
	mv	s0,a3
	.loc 1 310 11
	addi	s1,s1,904
	.loc 1 306 5
	call	utils_getopt_init
.LVL104:
	.loc 1 307 5 is_stmt 1
	.loc 1 308 5
	.loc 1 309 5
	.loc 1 310 5
	.loc 1 311 5
	.loc 1 313 5
	.loc 1 309 11 is_stmt 0
	li	s4,0
	.loc 1 308 11
	li	s3,32
	.loc 1 307 11
	li	s2,1000
	.loc 1 313 19
	lui	s8,%hi(.LC10)
	.loc 1 313 11
	li	s7,-1
	.loc 1 314 9
	li	s6,99
	li	s9,105
	li	s10,115
.LVL105:
.L63:
	li	s11,104
.L78:
.LVL106:
	.loc 1 313 19
	addi	a3,s8,%lo(.LC10)
	mv	a2,s0
	mv	a1,s5
	addi	a0,sp,12
	call	utils_getopt
.LVL107:
	.loc 1 313 11
	li	a5,63
	li	a4,87
	bne	a0,s7,.L75
	.loc 1 344 5 is_stmt 1
	.loc 1 344 19 is_stmt 0
	lw	a5,16(sp)
	.loc 1 344 27
	addi	a4,a5,1
	.loc 1 344 8
	bne	a4,s5,.L76
.LBB40:
	.loc 1 345 9 is_stmt 1
	.loc 1 345 36 is_stmt 0
	slli	a5,a5,2
	add	s0,s0,a5
.LVL108:
	lw	a0,0(s0)
.LVL109:
	call	lwip_gethostbyname
.LVL110:
	.loc 1 346 9 is_stmt 1
	.loc 1 346 12 is_stmt 0
	bne	a0,zero,.L77
	.loc 1 347 13 is_stmt 1
	lui	a0,%hi(.LC11)
.LVL111:
	addi	a0,a0,%lo(.LC11)
	call	printf
.LVL112:
.L62:
.LBE40:
	.loc 1 359 1 is_stmt 0
	lw	ra,92(sp)
	.cfi_remember_state
	.cfi_restore 1
	lw	s0,88(sp)
	.cfi_restore 8
	lw	s1,84(sp)
	.cfi_restore 9
.LVL113:
	lw	s2,80(sp)
	.cfi_restore 18
.LVL114:
	lw	s3,76(sp)
	.cfi_restore 19
.LVL115:
	lw	s4,72(sp)
	.cfi_restore 20
.LVL116:
	lw	s5,68(sp)
	.cfi_restore 21
.LVL117:
	lw	s6,64(sp)
	.cfi_restore 22
	lw	s7,60(sp)
	.cfi_restore 23
	lw	s8,56(sp)
	.cfi_restore 24
	lw	s9,52(sp)
	.cfi_restore 25
	lw	s10,48(sp)
	.cfi_restore 26
	lw	s11,44(sp)
	.cfi_restore 27
	addi	sp,sp,96
	.cfi_def_cfa_offset 0
	jr	ra
.LVL118:
.L75:
	.cfi_restore_state
	.loc 1 314 9 is_stmt 1
	beq	a0,s6,.L64
	bgt	a0,s6,.L65
	beq	a0,a5,.L66
	beq	a0,a4,.L67
	li	a3,58
	bne	a0,a3,.L78
	.loc 1 334 17
	lw	a2,24(sp)
	lw	a1,0(s0)
	lui	a0,%hi(.LC8)
.LVL119:
	addi	a0,a0,%lo(.LC8)
.L81:
	.loc 1 338 17 is_stmt 0
	call	printf
.LVL120:
	.loc 1 339 17 is_stmt 1
	j	.L80
.LVL121:
.L65:
	.loc 1 314 9 is_stmt 0
	beq	a0,s9,.L70
	beq	a0,s10,.L71
	bne	a0,s11,.L78
.LVL122:
.L80:
	.loc 1 356 9 is_stmt 1
	call	ping_usage
.LVL123:
	j	.L62
.LVL124:
.L70:
	.loc 1 316 17
	.loc 1 316 28 is_stmt 0
	lw	a0,12(sp)
.LVL125:
	call	atoi
.LVL126:
	.loc 1 316 26
	slli	s2,a0,16
.LVL127:
	srli	s2,s2,16
.LVL128:
	.loc 1 317 17 is_stmt 1
	j	.L63
.LVL129:
.L71:
	.loc 1 319 17
	.loc 1 319 29 is_stmt 0
	lw	a0,12(sp)
.LVL130:
	call	atoi
.LVL131:
	.loc 1 319 27
	slli	s3,a0,16
.LVL132:
	srli	s3,s3,16
.LVL133:
	.loc 1 320 17 is_stmt 1
	j	.L63
.LVL134:
.L64:
	.loc 1 322 17
	.loc 1 322 31 is_stmt 0
	lw	a0,12(sp)
.LVL135:
	call	atoi
.LVL136:
	mv	s4,a0
.LVL137:
	.loc 1 326 17 is_stmt 1
	j	.L63
.LVL138:
.L67:
	.loc 1 328 17
	.loc 1 328 27 is_stmt 0
	lw	a0,12(sp)
.LVL139:
	call	atoi
.LVL140:
	.loc 1 328 25
	slli	s1,a0,16
.LVL141:
	srli	s1,s1,16
.LVL142:
	.loc 1 329 17 is_stmt 1
	j	.L63
.LVL143:
.L66:
	.loc 1 338 17
	lui	a0,%hi(.LC9)
.LVL144:
	lw	a2,24(sp)
	lw	a1,0(s0)
	addi	a0,a0,%lo(.LC9)
	j	.L81
.LVL145:
.L77:
.LBB41:
	.loc 1 351 13
	.loc 1 352 13
	.loc 1 351 18 is_stmt 0
	lw	a5,16(a0)
	.loc 1 352 13
	mv	a3,s1
	mv	a2,s4
	lw	a4,0(a5)
	mv	a1,s3
	mv	a0,s2
.LVL146:
	call	ping_api_init
.LVL147:
	j	.L62
.LVL148:
.L76:
.LBE41:
	.loc 1 355 9 is_stmt 1
	lui	a0,%hi(.LC12)
.LVL149:
	addi	a0,a0,%lo(.LC12)
	call	printf
.LVL150:
	j	.L80
	.cfi_endproc
.LFE30:
	.size	ping_cmd, .-ping_cmd
	.section	.text.network_netutils_ping_cli_register,"ax",@progbits
	.align	1
	.globl	network_netutils_ping_cli_register
	.type	network_netutils_ping_cli_register, @function
network_netutils_ping_cli_register:
.LFB33:
	.loc 1 410 1
	.cfi_startproc
	.loc 1 415 5
	.loc 1 416 1 is_stmt 0
	li	a0,0
	ret
	.cfi_endproc
.LFE33:
	.size	network_netutils_ping_cli_register, .-network_netutils_ping_cli_register
	.section	.rodata.ping_api_init.str1.4,"aMS",@progbits,1
	.align	2
.LC4:
	.string	"mem malloc failed!\r\n"
	.zero	3
.LC5:
	.string	"pool_alloc failed\n"
	.zero	1
.LC6:
	.string	"pcb null, maybe the pcb pool or sys_timeout pool is empty\r\n"
.LC7:
	.string	"ping_init failed\r\n"
	.section	.rodata.ping_cmd.str1.4,"aMS",@progbits,1
	.align	2
.LC8:
	.string	"%s: %c requires an argument\r\n"
	.zero	2
.LC9:
	.string	"%s: unknown option %c\r\n"
.LC10:
	.string	":i:s:c:W:h"
	.zero	1
.LC11:
	.string	"Failed to resolve domain name\r\n"
.LC12:
	.string	"Need target address\r\n"
	.section	.rodata.ping_free.str1.4,"aMS",@progbits,1
	.align	2
.LC2:
	.string	"The sequence number %d timed out\r\n"
	.section	.rodata.ping_recv.str1.4,"aMS",@progbits,1
	.align	2
.LC3:
	.string	"%d bytes from %s: icmp_seq=%d ttl=%d time=%lu ms\r\n "
	.section	.rodata.ping_usage.str1.4,"aMS",@progbits,1
	.align	2
.LC0:
	.ascii	"ping [-c count]"
	.string	" [-i interval] [-W timeout] [-s size] [-h help] destination\r\n\t\t-c count of ping requests. default is infinite\r\n\t\t-i interval in ms. default is 1000\r\n\t\t-W timeout in ms. default is 5000\r\n\t\t-s ICMP payload size in bytes. default is 32\r\n\t\t-h print this help\r\n"
.LC1:
	.string	"%s"
	.section	.rodata.str1.4,"aMS",@progbits,1
	.align	2
.LC13:
	.string	"ping"
	.section	.static_cli_cmds,"a"
	.align	2
	.type	cmds_user, @object
	.size	cmds_user, 12
cmds_user:
	.word	.LC13
	.word	.LC0
	.word	ping_cmd
	.text
.Letext0:
	.file 2 "/b-l/bl_iot_sdk_new/toolchain/riscv/Linux/riscv64-unknown-elf/include/machine/_default_types.h"
	.file 3 "/b-l/bl_iot_sdk_new/toolchain/riscv/Linux/lib/gcc/riscv64-unknown-elf/8.3.0/include/stddef.h"
	.file 4 "/b-l/bl_iot_sdk_new/toolchain/riscv/Linux/riscv64-unknown-elf/include/sys/_types.h"
	.file 5 "/b-l/bl_iot_sdk_new/toolchain/riscv/Linux/riscv64-unknown-elf/include/sys/reent.h"
	.file 6 "/b-l/bl_iot_sdk_new/toolchain/riscv/Linux/riscv64-unknown-elf/include/sys/lock.h"
	.file 7 "/b-l/bl_iot_sdk_new/toolchain/riscv/Linux/riscv64-unknown-elf/include/sys/_stdint.h"
	.file 8 "/b-l/bl_iot_sdk_new/toolchain/riscv/Linux/riscv64-unknown-elf/include/stdlib.h"
	.file 9 "/b-l/bl_iot_sdk_new/components/network/lwip/src/include/lwip/arch.h"
	.file 10 "/b-l/bl_iot_sdk_new/toolchain/riscv/Linux/riscv64-unknown-elf/include/ctype.h"
	.file 11 "/b-l/bl_iot_sdk_new/components/network/lwip/src/include/lwip/mem.h"
	.file 12 "/b-l/bl_iot_sdk_new/components/network/lwip/src/include/lwip/err.h"
	.file 13 "/b-l/bl_iot_sdk_new/components/network/lwip/src/include/lwip/pbuf.h"
	.file 14 "/b-l/bl_iot_sdk_new/components/network/lwip/src/include/lwip/ip4_addr.h"
	.file 15 "/b-l/bl_iot_sdk_new/components/network/lwip/src/include/lwip/ip_addr.h"
	.file 16 "/b-l/bl_iot_sdk_new/components/network/lwip/src/include/lwip/memp.h"
	.file 17 "/b-l/bl_iot_sdk_new/components/network/lwip/src/include/lwip/priv/memp_priv.h"
	.file 18 "/b-l/bl_iot_sdk_new/components/network/lwip/src/include/lwip/stats.h"
	.file 19 "/b-l/bl_iot_sdk_new/components/network/lwip/src/include/lwip/netif.h"
	.file 20 "/b-l/bl_iot_sdk_new/components/network/lwip/src/include/lwip/prot/ip4.h"
	.file 21 "/b-l/bl_iot_sdk_new/components/network/lwip/src/include/lwip/ip.h"
	.file 22 "/b-l/bl_iot_sdk_new/components/network/lwip/src/include/lwip/raw.h"
	.file 23 "/b-l/bl_iot_sdk_new/components/network/lwip/src/include/lwip/prot/icmp.h"
	.file 24 "/b-l/bl_iot_sdk_new/components/bl602/freertos_riscv_ram/portable/GCC/RISC-V/portmacro.h"
	.file 25 "/b-l/bl_iot_sdk_new/components/bl602/freertos_riscv_ram/config/queue.h"
	.file 26 "/b-l/bl_iot_sdk_new/components/bl602/freertos_riscv_ram/config/semphr.h"
	.file 27 "/b-l/bl_iot_sdk_new/components/network/lwip/src/include/lwip/timeouts.h"
	.file 28 "/b-l/bl_iot_sdk_new/components/network/lwip/src/include/lwip/dns.h"
	.file 29 "/b-l/bl_iot_sdk_new/components/network/lwip/src/include/lwip/inet.h"
	.file 30 "/b-l/bl_iot_sdk_new/components/network/lwip/src/include/lwip/errno.h"
	.file 31 "/b-l/bl_iot_sdk_new/components/network/lwip/src/include/lwip/netdb.h"
	.file 32 "/b-l/bl_iot_sdk_new/components/utils/include/utils_list.h"
	.file 33 "/b-l/bl_iot_sdk_new/toolchain/riscv/Linux/riscv64-unknown-elf/include/time.h"
	.file 34 "/b-l/bl_iot_sdk_new/components/utils/include/utils_getopt.h"
	.file 35 "/b-l/bl_iot_sdk_new/components/hal_drv/bl602_hal/bl_sec.h"
	.file 36 "/b-l/bl_iot_sdk_new/components/stage/cli/cli/include/cli.h"
	.file 37 "/b-l/bl_iot_sdk_new/components/utils/include/utils_memp.h"
	.file 38 "/b-l/bl_iot_sdk_new/components/network/netutils/include/ping.h"
	.file 39 "/b-l/bl_iot_sdk_new/toolchain/riscv/Linux/riscv64-unknown-elf/include/stdio.h"
	.file 40 "/b-l/bl_iot_sdk_new/components/bl602/freertos_riscv_ram/config/portable.h"
	.file 41 "/b-l/bl_iot_sdk_new/components/network/lwip/src/include/lwip/def.h"
	.file 42 "/b-l/bl_iot_sdk_new/components/network/lwip/src/include/lwip/inet_chksum.h"
	.file 43 "/b-l/bl_iot_sdk_new/components/network/lwip/src/include/lwip/sys.h"
	.file 44 "/b-l/bl_iot_sdk_new/toolchain/riscv/Linux/riscv64-unknown-elf/include/string.h"