	.file	"xz_dec_lzma2.c"
	.option nopic
	.attribute arch, "rv32i2p0_m2p0_f2p0_c2p0"
	.attribute unaligned_access, 0
	.attribute stack_align, 16
	.text
.Ltext0:
	.cfi_sections	.debug_frame
	.section	.text.lzma_len,"ax",@progbits
	.align	1
	.type	lzma_len, @function
lzma_len:
.LFB30:
	.file 1 "/b-l/bl_iot_sdk/components/bl602/bl602_std/bl602_std/Common/xz/xz_dec_lzma2.c"
	.loc 1 621 1
	.cfi_startproc
.LVL0:
	.loc 1 622 2
	.loc 1 623 2
	.loc 1 625 2
.LBB136:
.LBB137:
	.loc 1 499 2
	.loc 1 500 2
	.loc 1 502 2
.LBB138:
.LBB139:
	.loc 1 480 2
	.loc 1 480 8 is_stmt 0
	lw	a5,0(a0)
	.loc 1 480 5
	li	a4,16777216
	bgeu	a5,a4,.L2
	.loc 1 482 41
	lw	a3,16(a0)
	.loc 1 481 13
	slli	a5,a5,8
	sw	a5,0(a0)
	.loc 1 482 34
	lw	a5,12(a0)
	.loc 1 482 49
	addi	a6,a3,1
	lw	a4,4(a0)
	.loc 1 481 3 is_stmt 1
	.loc 1 482 3
	.loc 1 482 49 is_stmt 0
	sw	a6,16(a0)
	.loc 1 482 38
	add	a5,a5,a3
	lbu	a5,0(a5)
	.loc 1 482 24
	slli	a4,a4,8
	.loc 1 482 30
	add	a5,a5,a4
	.loc 1 482 12
	sw	a5,4(a0)
.L2:
.LVL1:
.LBE139:
.LBE138:
	.loc 1 503 2 is_stmt 1
	.loc 1 503 13 is_stmt 0
	lw	a3,0(a0)
	.loc 1 503 30
	lhu	a4,0(a1)
	.loc 1 503 21
	srli	a5,a3,11
	.loc 1 503 8
	mul	a5,a5,a4
.LVL2:
	.loc 1 504 2 is_stmt 1
	.loc 1 504 8 is_stmt 0
	lw	a4,4(a0)
	.loc 1 504 5
	bleu	a5,a4,.L3
	.loc 1 505 3 is_stmt 1
	.loc 1 505 13 is_stmt 0
	sw	a5,0(a0)
	.loc 1 506 3 is_stmt 1
	.loc 1 506 9 is_stmt 0
	lhu	a4,0(a1)
	.loc 1 506 23
	li	a5,4096
.LVL3:
	addi	a5,a5,-2048
	sub	a5,a5,a4
	.loc 1 506 32
	srai	a5,a5,5
.LBE137:
.LBE136:
	.loc 1 626 9
	slli	a2,a2,4
.LVL4:
.LBB143:
.LBB140:
	.loc 1 506 9
	add	a5,a4,a5
.LBE140:
.LBE143:
	.loc 1 626 9
	addi	a2,a2,4
.LBB144:
.LBB141:
	.loc 1 506 9
	sh	a5,0(a1)
.LVL5:
	.loc 1 507 3 is_stmt 1
	.loc 1 515 2
.LBE141:
.LBE144:
	.loc 1 626 3
	.loc 1 626 9 is_stmt 0
	add	a1,a1,a2
.LVL6:
	.loc 1 627 3 is_stmt 1
	.loc 1 628 3
	.loc 1 628 15 is_stmt 0
	li	a5,2
.L12:
	.loc 1 633 16
	sw	a5,100(a0)
	.loc 1 632 10
	li	a2,8
.LVL7:
.L4:
	.loc 1 642 2 is_stmt 1
.LBB145:
.LBB146:
	.loc 1 522 2
.LBB147:
.LBB148:
	.loc 1 506 23 is_stmt 0
	li	t1,4096
.LBE148:
.LBE147:
	.loc 1 522 11
	li	a5,1
.LBB160:
.LBB155:
.LBB149:
.LBB150:
	.loc 1 480 5
	li	t3,16777216
.LBE150:
.LBE149:
	.loc 1 506 23
	addi	t1,t1,-2048
.LVL8:
.L10:
.LBE155:
.LBE160:
	.loc 1 524 2 is_stmt 1
	.loc 1 525 3
.LBB161:
.LBB156:
.LBB153:
.LBB151:
	.loc 1 480 8 is_stmt 0
	lw	a4,0(a0)
.LBE151:
.LBE153:
.LBE156:
.LBE161:
	.loc 1 525 24
	slli	a5,a5,1
	.loc 1 525 7
	add	a3,a1,a5
.LVL9:
.LBB162:
.LBB157:
	.loc 1 499 2 is_stmt 1
	.loc 1 500 2
	.loc 1 502 2
.LBB154:
.LBB152:
	.loc 1 480 2
	.loc 1 480 5 is_stmt 0
	bgeu	a4,t3,.L7
	.loc 1 482 41
	lw	a7,16(a0)
	.loc 1 481 13
	slli	a4,a4,8
	sw	a4,0(a0)
	.loc 1 482 34
	lw	a4,12(a0)
	.loc 1 482 49
	addi	t4,a7,1
	lw	a6,4(a0)
	.loc 1 481 3 is_stmt 1
	.loc 1 482 3
	.loc 1 482 49 is_stmt 0
	sw	t4,16(a0)
	.loc 1 482 38
	add	a4,a4,a7
	lbu	a4,0(a4)
	.loc 1 482 24
	slli	a6,a6,8
	.loc 1 482 30
	add	a4,a4,a6
	.loc 1 482 12
	sw	a4,4(a0)
.L7:
.LVL10:
.LBE152:
.LBE154:
	.loc 1 503 2 is_stmt 1
	.loc 1 503 13 is_stmt 0
	lw	a7,0(a0)
	.loc 1 503 30
	lhu	a6,0(a3)
	.loc 1 503 21
	srli	a4,a7,11
	.loc 1 503 8
	mul	a4,a4,a6
.LVL11:
	.loc 1 504 2 is_stmt 1
	.loc 1 504 8 is_stmt 0
	lw	a6,4(a0)
.LVL12:
	.loc 1 504 5
	bleu	a4,a6,.L8
	.loc 1 505 3 is_stmt 1
	.loc 1 505 13 is_stmt 0
	sw	a4,0(a0)
	.loc 1 506 3 is_stmt 1
	.loc 1 506 9 is_stmt 0
	lhu	a4,0(a3)
.LVL13:
	.loc 1 506 23
	sub	a6,t1,a4
	.loc 1 506 32
	srai	a6,a6,5
	.loc 1 506 9
	add	a4,a4,a6
	sh	a4,0(a3)
.LVL14:
	.loc 1 507 3 is_stmt 1
	.loc 1 515 2
.LBE157:
.LBE162:
	.loc 1 528 4
.L9:
	.loc 1 529 2 is_stmt 0
	bgtu	a2,a5,.L10
	.loc 1 531 2 is_stmt 1
.LVL15:
.LBE146:
.LBE145:
	.loc 1 642 14 is_stmt 0
	lw	a4,100(a0)
	sub	a4,a4,a2
	add	a5,a4,a5
	sw	a5,100(a0)
	.loc 1 643 1
	ret
.LVL16:
.L3:
.LBB166:
.LBB142:
	.loc 1 509 3 is_stmt 1
	.loc 1 509 13 is_stmt 0
	sub	a3,a3,a5
	.loc 1 510 12
	sub	a5,a4,a5
.LVL17:
	.loc 1 509 13
	sw	a3,0(a0)
.LVL18:
	.loc 1 510 3 is_stmt 1
	.loc 1 510 12 is_stmt 0
	sw	a5,4(a0)
	.loc 1 511 3 is_stmt 1
	.loc 1 511 9 is_stmt 0
	lhu	a5,0(a1)
	srli	a4,a5,5
	sub	a5,a5,a4
	sh	a5,0(a1)
	.loc 1 512 3 is_stmt 1
.LVL19:
	.loc 1 515 2
.LBE142:
.LBE166:
	.loc 1 630 3
.LBB167:
.LBB168:
	.loc 1 499 2
	.loc 1 500 2
	.loc 1 502 2
.LBB169:
.LBB170:
	.loc 1 480 2
	.loc 1 480 8 is_stmt 0
	lw	a5,0(a0)
	.loc 1 480 5
	li	a4,16777216
	bgeu	a5,a4,.L5
	.loc 1 481 3 is_stmt 1
	.loc 1 481 13 is_stmt 0
	slli	a5,a5,8
	sw	a5,0(a0)
	.loc 1 482 3 is_stmt 1
	.loc 1 482 24 is_stmt 0
	lw	a5,4(a0)
	.loc 1 482 41
	lw	a3,16(a0)
	.loc 1 482 24
	slli	a4,a5,8
	.loc 1 482 34
	lw	a5,12(a0)
	.loc 1 482 49
	addi	a6,a3,1
	sw	a6,16(a0)
	.loc 1 482 38
	add	a5,a5,a3
	lbu	a5,0(a5)
	.loc 1 482 30
	add	a5,a5,a4
	.loc 1 482 12
	sw	a5,4(a0)
.L5:
.LVL20:
.LBE170:
.LBE169:
	.loc 1 503 2 is_stmt 1
	.loc 1 503 13 is_stmt 0
	lw	a3,0(a0)
	.loc 1 503 30
	lhu	a4,2(a1)
	.loc 1 503 21
	srli	a5,a3,11
	.loc 1 503 8
	mul	a5,a5,a4
.LVL21:
	.loc 1 504 2 is_stmt 1
	.loc 1 504 8 is_stmt 0
	lw	a4,4(a0)
	.loc 1 504 5
	bleu	a5,a4,.L6
	.loc 1 505 3 is_stmt 1
	.loc 1 505 13 is_stmt 0
	sw	a5,0(a0)
	.loc 1 506 3 is_stmt 1
	.loc 1 506 9 is_stmt 0
	lhu	a4,2(a1)
	.loc 1 506 23
	li	a5,4096
.LVL22:
	addi	a5,a5,-2048
	sub	a5,a5,a4
	.loc 1 506 32
	srai	a5,a5,5
.LBE168:
.LBE167:
	.loc 1 631 10
	slli	a2,a2,4
.LVL23:
.LBB175:
.LBB171:
	.loc 1 506 9
	add	a5,a4,a5
.LBE171:
.LBE175:
	.loc 1 631 10
	addi	a2,a2,260
.LBB176:
.LBB172:
	.loc 1 506 9
	sh	a5,2(a1)
.LVL24:
	.loc 1 507 3 is_stmt 1
	.loc 1 515 2
.LBE172:
.LBE176:
	.loc 1 631 4
	.loc 1 631 10 is_stmt 0
	add	a1,a1,a2
.LVL25:
	.loc 1 632 4 is_stmt 1
	.loc 1 633 4
	.loc 1 633 16 is_stmt 0
	li	a5,10
	j	.L12
.LVL26:
.L6:
.LBB177:
.LBB173:
	.loc 1 509 3 is_stmt 1
	.loc 1 509 13 is_stmt 0
	sub	a3,a3,a5
	.loc 1 510 12
	sub	a5,a4,a5
.LVL27:
	.loc 1 509 13
	sw	a3,0(a0)
.LVL28:
	.loc 1 510 3 is_stmt 1
	.loc 1 510 12 is_stmt 0
	sw	a5,4(a0)
	.loc 1 511 3 is_stmt 1
	.loc 1 511 9 is_stmt 0
	lhu	a5,2(a1)
.LBE173:
.LBE177:
	.loc 1 636 10
	li	a2,256
.LVL29:
	.loc 1 635 10
	addi	a1,a1,516
.LVL30:
.LBB178:
.LBB174:
	.loc 1 511 9
	srli	a4,a5,5
	sub	a5,a5,a4
	sh	a5,-514(a1)
	.loc 1 512 3 is_stmt 1
.LVL31:
	.loc 1 515 2
.LBE174:
.LBE178:
	.loc 1 635 4
	.loc 1 636 4
	.loc 1 637 4
	.loc 1 637 16 is_stmt 0
	li	a5,18
	sw	a5,100(a0)
	j	.L4
.LVL32:
.L8:
.LBB179:
.LBB165:
.LBB163:
.LBB158:
	.loc 1 509 3 is_stmt 1
	.loc 1 509 13 is_stmt 0
	sub	a7,a7,a4
	.loc 1 510 12
	sub	a4,a6,a4
.LVL33:
	.loc 1 509 13
	sw	a7,0(a0)
.LVL34:
	.loc 1 510 3 is_stmt 1
	.loc 1 510 12 is_stmt 0
	sw	a4,4(a0)
	.loc 1 511 3 is_stmt 1
	.loc 1 511 9 is_stmt 0
	lhu	a4,0(a3)
.LBE158:
.LBE163:
	.loc 1 526 11
	addi	a5,a5,1
.LVL35:
.LBB164:
.LBB159:
	.loc 1 511 9
	srli	a6,a4,5
	sub	a4,a4,a6
	sh	a4,0(a3)
	.loc 1 512 3 is_stmt 1
.LVL36:
	.loc 1 515 2
.LBE159:
.LBE164:
	.loc 1 526 4
	j	.L9
.LBE165:
.LBE179:
	.cfi_endproc
.LFE30:
	.size	lzma_len, .-lzma_len
	.section	.text.dict_repeat.part.0,"ax",@progbits
	.align	1
	.type	dict_repeat.part.0, @function
dict_repeat.part.0:
.LFB41:
	.loc 1 346 12
	.cfi_startproc
.LVL37:
	.loc 1 354 2
	.loc 1 354 23 is_stmt 0
	lw	a4,16(a0)
	lw	a3,8(a0)
	.loc 1 354 36
	lw	a5,0(a1)
	.loc 1 354 23
	sub	a4,a4,a3
	.loc 1 354 7
	bleu	a4,a5,.L14
	mv	a4,a5
.L14:
.LVL38:
	.loc 1 355 2 is_stmt 1
	.loc 1 355 7 is_stmt 0
	sub	a5,a5,a4
	sw	a5,0(a1)
	.loc 1 357 2 is_stmt 1
	.loc 1 357 13 is_stmt 0
	lw	a3,8(a0)
	.loc 1 357 7
	not	a5,a2
	add	a5,a5,a3
.LVL39:
	.loc 1 358 2 is_stmt 1
	.loc 1 358 5 is_stmt 0
	bgtu	a3,a2,.L17
	.loc 1 359 3 is_stmt 1
	.loc 1 359 8 is_stmt 0
	lw	a3,20(a0)
	add	a5,a5,a3
.LVL40:
.L17:
	.loc 1 361 2 is_stmt 1
	.loc 1 362 3
	.loc 1 362 17 is_stmt 0
	lw	a2,8(a0)
	.loc 1 362 32
	lw	a3,0(a0)
	.loc 1 362 22
	addi	a1,a2,1
	sw	a1,8(a0)
	.loc 1 362 37
	add	a1,a3,a5
	lbu	a1,0(a1)
	.loc 1 362 26
	add	a3,a3,a2
	.loc 1 363 6
	addi	a5,a5,1
.LVL41:
	.loc 1 362 26
	sb	a1,0(a3)
	.loc 1 363 3 is_stmt 1
	.loc 1 363 6 is_stmt 0
	lw	a3,20(a0)
	bne	a5,a3,.L16
	.loc 1 364 9
	li	a5,0
.LVL42:
.L16:
	.loc 1 365 2
	addi	a4,a4,-1
.LVL43:
	bne	a4,zero,.L17
	.loc 1 367 2 is_stmt 1
	.loc 1 367 23 is_stmt 0
	lw	a5,8(a0)
.LVL44:
	.loc 1 367 5
	lw	a4,12(a0)
.LVL45:
	bgeu	a4,a5,.L18
	.loc 1 368 3 is_stmt 1
	.loc 1 368 14 is_stmt 0
	sw	a5,12(a0)
.L18:
	.loc 1 371 1
	li	a0,1
.LVL46:
	ret
	.cfi_endproc
.LFE41:
	.size	dict_repeat.part.0, .-dict_repeat.part.0
	.section	.text.lzma_main,"ax",@progbits
	.align	1
	.type	lzma_main, @function
lzma_main:
.LFB33:
	.loc 1 723 1 is_stmt 1
	.cfi_startproc
.LVL47:
	.loc 1 724 2
	.loc 1 730 2
.LBB272:
.LBB273:
	.loc 1 311 2
.LBE273:
.LBE272:
	.loc 1 723 1 is_stmt 0
	addi	sp,sp,-32
	.cfi_def_cfa_offset 32
	sw	s0,24(sp)
	sw	ra,28(sp)
	sw	s1,20(sp)
	sw	s2,16(sp)
	sw	s3,12(sp)
	sw	s4,8(sp)
	sw	s5,4(sp)
	.cfi_offset 8, -8
	.cfi_offset 1, -4
	.cfi_offset 9, -12
	.cfi_offset 18, -16
	.cfi_offset 19, -20
	.cfi_offset 20, -24
	.cfi_offset 21, -28
	.loc 1 730 5
	lw	a4,32(a0)
	lw	a5,40(a0)
	.loc 1 723 1
	mv	s0,a0
	.loc 1 730 5
	bgeu	a4,a5,.L22
	.loc 1 730 31 discriminator 1
	lw	a5,100(a0)
	beq	a5,zero,.L22
	.loc 1 731 3 is_stmt 1
	lw	a2,80(a0)
.LVL48:
.LBB274:
.LBB275:
	.loc 1 348 2
	.loc 1 349 2
	.loc 1 351 2
	.loc 1 351 5 is_stmt 0
	lw	a5,36(a0)
	bgeu	a2,a5,.L22
	.loc 1 351 25
	lw	a5,48(a0)
	bgeu	a2,a5,.L22
	addi	a1,a0,100
.LVL49:
	addi	a0,a0,24
.LVL50:
	call	dict_repeat.part.0
.LVL51:
.L22:
.LBE275:
.LBE274:
.LBB276:
.LBB277:
	.loc 1 718 2
	li	s1,4096
	addi	s2,s1,-1316
.LBE277:
.LBE276:
.LBB314:
.LBB315:
	.loc 1 672 18
	li	s3,-2147483648
.LBE315:
.LBE314:
	.loc 1 749 9
	addi	s4,s0,100
.LBB385:
.LBB312:
	.loc 1 718 2
	add	s2,s0,s2
.LBB278:
.LBB279:
	.loc 1 506 23
	addi	s5,s1,-2048
.LBE279:
.LBE278:
.LBE312:
.LBE385:
.LBB386:
.LBB382:
	.loc 1 672 18
	xori	s3,s3,-1
.L23:
.LVL52:
.LBE382:
.LBE386:
.LBB387:
.LBB388:
	.loc 1 311 2 is_stmt 1
	.loc 1 311 13 is_stmt 0
	lw	a7,32(s0)
.LVL53:
.LBE388:
.LBE387:
	.loc 1 737 8
	lw	a4,40(s0)
	lw	a5,0(s0)
	bgeu	a7,a4,.L84
.LVL54:
.LBB389:
.LBB390:
	.loc 1 465 2 is_stmt 1 discriminator 1
	.loc 1 465 11 is_stmt 0 discriminator 1
	lw	a4,16(s0)
.LVL55:
.LBE390:
.LBE389:
	.loc 1 737 34 discriminator 1
	lw	a3,20(s0)
	bleu	a4,a3,.L85
.L84:
	.loc 1 758 2 is_stmt 1
.LVL56:
.LBB391:
.LBB392:
	.loc 1 480 2
	.loc 1 480 5 is_stmt 0
	li	a4,16777216
.LBE392:
.LBE391:
	.loc 1 760 8
	li	a0,1
.LBB394:
.LBB393:
	.loc 1 480 5
	bgeu	a5,a4,.L82
	.loc 1 481 3 is_stmt 1
	.loc 1 481 13 is_stmt 0
	slli	a5,a5,8
	sw	a5,0(s0)
	.loc 1 482 3 is_stmt 1
	.loc 1 482 24 is_stmt 0
	lw	a5,4(s0)
	.loc 1 482 41
	lw	a3,16(s0)
	.loc 1 482 24
	slli	a4,a5,8
	.loc 1 482 34
	lw	a5,12(s0)
	.loc 1 482 49
	addi	a2,a3,1
	sw	a2,16(s0)
	.loc 1 482 38
	add	a5,a5,a3
	lbu	a5,0(a5)
	.loc 1 482 30
	add	a5,a5,a4
	.loc 1 482 12
	sw	a5,4(s0)
	j	.L82
.LVL57:
.L85:
.LBE393:
.LBE394:
	.loc 1 738 3 is_stmt 1
	.loc 1 738 13 is_stmt 0
	lw	a2,112(s0)
.LBB395:
.LBB396:
.LBB397:
.LBB398:
	.loc 1 480 5
	li	a3,16777216
.LBE398:
.LBE397:
.LBE396:
.LBE395:
	.loc 1 741 12
	lbu	a6,96(s0)
	.loc 1 738 13
	and	a2,a7,a2
.LVL58:
	.loc 1 740 3 is_stmt 1
.LBB403:
.LBB401:
	.loc 1 499 2
	.loc 1 500 2
	.loc 1 502 2
.LBB400:
.LBB399:
	.loc 1 480 2
	.loc 1 480 5 is_stmt 0
	bgeu	a5,a3,.L24
	.loc 1 481 13
	slli	a5,a5,8
	sw	a5,0(s0)
	.loc 1 482 34
	lw	a5,12(s0)
	.loc 1 482 49
	addi	a1,a4,1
	lw	a3,4(s0)
	.loc 1 481 3 is_stmt 1
	.loc 1 482 3
	.loc 1 482 38 is_stmt 0
	add	a4,a5,a4
	.loc 1 482 49
	sw	a1,16(s0)
	.loc 1 482 38
	lbu	a5,0(a4)
	.loc 1 482 24
	slli	a4,a3,8
	.loc 1 482 30
	add	a5,a5,a4
	.loc 1 482 12
	sw	a5,4(s0)
.L24:
.LVL59:
.LBE399:
.LBE400:
	.loc 1 503 2 is_stmt 1
	slli	a4,a6,4
	add	a4,a4,a2
	slli	a4,a4,1
	.loc 1 503 13 is_stmt 0
	lw	a3,0(s0)
	add	a4,s0,a4
	.loc 1 503 30
	lhu	a5,116(a4)
	.loc 1 503 21
	srli	a1,a3,11
	.loc 1 503 8
	mul	a0,a1,a5
.LVL60:
	.loc 1 504 2 is_stmt 1
	.loc 1 504 8 is_stmt 0
	lw	a1,4(s0)
	.loc 1 504 5
	bleu	a0,a1,.L25
	.loc 1 505 3 is_stmt 1
	.loc 1 506 23 is_stmt 0
	sub	a3,s5,a5
	.loc 1 506 32
	srai	a3,a3,5
	.loc 1 506 9
	add	a5,a5,a3
	.loc 1 505 13
	sw	a0,0(s0)
	.loc 1 506 3 is_stmt 1
	.loc 1 506 9 is_stmt 0
	sh	a5,116(a4)
	.loc 1 507 3 is_stmt 1
.LVL61:
	.loc 1 515 2
.LBE401:
.LBE403:
	.loc 1 742 4
.LBB404:
.LBB405:
	.loc 1 583 2
	.loc 1 584 2
	.loc 1 585 2
	.loc 1 586 2
	.loc 1 587 2
	.loc 1 588 2
	.loc 1 590 2
.LBB406:
.LBB407:
	.loc 1 574 2
.LBB408:
.LBB409:
	.loc 1 322 2
	.loc 1 322 9 is_stmt 0
	addi	a5,a7,-1
.LVL62:
	.loc 1 324 2 is_stmt 1
	.loc 1 324 5 is_stmt 0
	mv	a4,a5
	bne	a7,zero,.L26
	.loc 1 325 3 is_stmt 1
	.loc 1 325 10 is_stmt 0
	lw	a4,44(s0)
	addi	a4,a4,-1
.LVL63:
.L26:
	.loc 1 327 2 is_stmt 1
	.loc 1 327 13 is_stmt 0
	lw	a0,36(s0)
	.loc 1 327 44
	li	a3,0
	beq	a0,zero,.L27
	.loc 1 327 35
	lw	a3,24(s0)
	add	a4,a3,a4
.LVL64:
	.loc 1 327 44
	lbu	a3,0(a4)
.L27:
.LVL65:
.LBE409:
.LBE408:
	.loc 1 575 2 is_stmt 1
	.loc 1 575 42 is_stmt 0
	lw	a1,104(s0)
.LVL66:
	.loc 1 576 2 is_stmt 1
	.loc 1 577 2
	.loc 1 576 31 is_stmt 0
	lw	a4,108(s0)
	.loc 1 575 33
	li	a2,8
.LVL67:
	sub	a2,a2,a1
	.loc 1 576 31
	and	a4,a7,a4
	.loc 1 575 11
	srl	a3,a3,a2
.LVL68:
	.loc 1 576 11
	sll	a4,a4,a1
	.loc 1 577 29
	add	a4,a4,a3
	.loc 1 577 9
	li	a3,1536
	mul	a4,a4,a3
	addi	a3,s1,-288
	add	a4,a4,a3
.LBE407:
.LBE406:
	.loc 1 592 5
	li	a3,6
.LBB411:
.LBB410:
	.loc 1 577 9
	add	a4,s0,a4
.LVL69:
.LBE410:
.LBE411:
	.loc 1 592 2 is_stmt 1
.LBE405:
.LBE404:
	.file 2 "/b-l/bl_iot_sdk/components/bl602/bl602_std/bl602_std/Common/xz/xz_lzma2.h"
	.loc 2 95 2
.LBB461:
.LBB460:
	.loc 1 592 5 is_stmt 0
	bgtu	a6,a3,.L28
.LBB412:
.LBB413:
	.loc 1 522 11
	li	a5,1
.LBB414:
.LBB415:
.LBB416:
.LBB417:
	.loc 1 480 5
	li	a7,16777216
.LBE417:
.LBE416:
.LBE415:
.LBE414:
	.loc 1 529 2
	li	a6,255
.L32:
.LVL70:
	.loc 1 524 2 is_stmt 1
	.loc 1 525 3
.LBB426:
.LBB422:
.LBB420:
.LBB418:
	.loc 1 480 8 is_stmt 0
	lw	a3,0(s0)
.LBE418:
.LBE420:
.LBE422:
.LBE426:
	.loc 1 525 24
	slli	a5,a5,1
	.loc 1 525 7
	add	a2,a4,a5
.LVL71:
.LBB427:
.LBB423:
	.loc 1 499 2 is_stmt 1
	.loc 1 500 2
	.loc 1 502 2
.LBB421:
.LBB419:
	.loc 1 480 2
	.loc 1 480 5 is_stmt 0
	bgeu	a3,a7,.L29
	.loc 1 482 41
	lw	a0,16(s0)
	.loc 1 481 13
	slli	a3,a3,8
	sw	a3,0(s0)
	.loc 1 482 34
	lw	a3,12(s0)
	.loc 1 482 49
	addi	t1,a0,1
	lw	a1,4(s0)
	.loc 1 481 3 is_stmt 1
	.loc 1 482 3
	.loc 1 482 49 is_stmt 0
	sw	t1,16(s0)
	.loc 1 482 38
	add	a3,a3,a0
	lbu	a3,0(a3)
	.loc 1 482 24
	slli	a1,a1,8
	.loc 1 482 30
	add	a3,a3,a1
	.loc 1 482 12
	sw	a3,4(s0)
.L29:
.LBE419:
.LBE421:
	.loc 1 503 2 is_stmt 1
	.loc 1 503 13 is_stmt 0
	lw	a0,0(s0)
	.loc 1 503 30
	lhu	a1,0(a2)
	.loc 1 503 21
	srli	a3,a0,11
	.loc 1 503 8
	mul	a3,a3,a1
.LVL72:
	.loc 1 504 2 is_stmt 1
	.loc 1 504 8 is_stmt 0
	lw	a1,4(s0)
.LVL73:
	.loc 1 504 5
	bleu	a3,a1,.L30
	.loc 1 505 3 is_stmt 1
	.loc 1 505 13 is_stmt 0
	sw	a3,0(s0)
	.loc 1 506 3 is_stmt 1
	.loc 1 506 9 is_stmt 0
	lhu	a3,0(a2)
.LVL74:
	.loc 1 506 23
	sub	a1,s5,a3
	.loc 1 506 32
	srai	a1,a1,5
	.loc 1 506 9
	add	a3,a3,a1
	sh	a3,0(a2)
.LVL75:
	.loc 1 507 3 is_stmt 1
	.loc 1 515 2
.LBE423:
.LBE427:
	.loc 1 528 4
.L31:
	.loc 1 529 2 is_stmt 0
	bleu	a5,a6,.L32
.L33:
.LVL76:
.LBE413:
.LBE412:
	.loc 1 614 2 is_stmt 1
.LBB431:
.LBB432:
	.loc 1 335 2
	.loc 1 335 16 is_stmt 0
	lw	a3,32(s0)
	.loc 1 335 6
	lw	a4,24(s0)
.LVL77:
	.loc 1 335 21
	addi	a2,a3,1
	sw	a2,32(s0)
	.loc 1 335 25
	add	a4,a4,a3
.LBE432:
.LBE431:
	.loc 1 614 2
	sb	a5,0(a4)
.LBB434:
.LBB433:
	.loc 1 337 2 is_stmt 1
	.loc 1 337 23 is_stmt 0
	lw	a5,32(s0)
	.loc 1 337 5
	lw	a4,36(s0)
	bgeu	a4,a5,.L40
	.loc 1 338 3 is_stmt 1
	.loc 1 338 14 is_stmt 0
	sw	a5,36(s0)
.L40:
.LVL78:
.LBE433:
.LBE434:
	.loc 1 615 2 is_stmt 1
.LBB435:
.LBB436:
	.loc 2 66 2
	.loc 2 66 6 is_stmt 0
	lbu	a5,96(s0)
	.loc 2 66 5
	li	a4,3
	bgtu	a5,a4,.L41
	.loc 2 67 3 is_stmt 1
	.loc 2 67 10 is_stmt 0
	sb	zero,96(s0)
	j	.L23
.LVL79:
.L30:
.LBE436:
.LBE435:
.LBB438:
.LBB430:
.LBB428:
.LBB424:
	.loc 1 509 3 is_stmt 1
	.loc 1 509 13 is_stmt 0
	sub	a0,a0,a3
	.loc 1 510 12
	sub	a3,a1,a3
.LVL80:
	.loc 1 509 13
	sw	a0,0(s0)
.LVL81:
	.loc 1 510 3 is_stmt 1
	.loc 1 510 12 is_stmt 0
	sw	a3,4(s0)
	.loc 1 511 3 is_stmt 1
	.loc 1 511 9 is_stmt 0
	lhu	a3,0(a2)
.LBE424:
.LBE428:
	.loc 1 526 11
	addi	a5,a5,1
.LVL82:
.LBB429:
.LBB425:
	.loc 1 511 9
	srli	a1,a3,5
	sub	a3,a3,a1
	sh	a3,0(a2)
	.loc 1 512 3 is_stmt 1
.LVL83:
	.loc 1 515 2
.LBE425:
.LBE429:
	.loc 1 526 4
	j	.L31
.L28:
.LBE430:
.LBE438:
	.loc 1 595 3
.LVL84:
	.loc 1 596 3
	.loc 1 596 16 is_stmt 0
	lw	a3,80(s0)
.LVL85:
.LBB439:
.LBB440:
	.loc 1 322 2 is_stmt 1
	.loc 1 322 9 is_stmt 0
	sub	a5,a5,a3
.LVL86:
	.loc 1 324 2 is_stmt 1
	.loc 1 324 5 is_stmt 0
	bgtu	a7,a3,.L34
	.loc 1 325 3 is_stmt 1
	.loc 1 325 10 is_stmt 0
	lw	a3,44(s0)
.LVL87:
	add	a5,a5,a3
.LVL88:
.L34:
	.loc 1 327 2 is_stmt 1
	.loc 1 327 44 is_stmt 0
	beq	a0,zero,.L35
	.loc 1 327 35
	lw	a3,24(s0)
	add	a5,a3,a5
.LVL89:
	.loc 1 327 44
	lbu	a0,0(a5)
.L35:
.LVL90:
.LBE440:
.LBE439:
	.loc 1 596 14
	slli	a0,a0,1
.LVL91:
	.loc 1 597 3 is_stmt 1
	.loc 1 597 10 is_stmt 0
	li	a1,256
	.loc 1 595 10
	li	a5,1
.LBB441:
.LBB442:
.LBB443:
.LBB444:
	.loc 1 480 5
	li	t4,16777216
.LBE444:
.LBE443:
.LBE442:
.LBE441:
	.loc 1 611 3
	li	t3,255
.LVL92:
.L39:
	.loc 1 599 3 is_stmt 1
	.loc 1 600 4
	.loc 1 600 14 is_stmt 0
	and	a6,a0,a1
.LVL93:
	.loc 1 601 4 is_stmt 1
	.loc 1 602 6 is_stmt 0
	add	a3,a1,a5
.LBB454:
.LBB449:
.LBB447:
.LBB445:
	.loc 1 480 8
	lw	a2,0(s0)
.LBE445:
.LBE447:
.LBE449:
.LBE454:
	.loc 1 602 6
	add	a3,a3,a6
	.loc 1 604 29
	slli	a3,a3,1
	.loc 1 601 15
	slli	a0,a0,1
.LVL94:
	.loc 1 602 4 is_stmt 1
	.loc 1 604 4
	.loc 1 604 8 is_stmt 0
	add	a3,a4,a3
.LVL95:
.LBB455:
.LBB450:
	.loc 1 499 2 is_stmt 1
	.loc 1 500 2
	.loc 1 502 2
.LBB448:
.LBB446:
	.loc 1 480 2
	.loc 1 480 5 is_stmt 0
	bgeu	a2,t4,.L36
	.loc 1 482 41
	lw	t1,16(s0)
	.loc 1 481 13
	slli	a2,a2,8
	sw	a2,0(s0)
	.loc 1 482 34
	lw	a2,12(s0)
	.loc 1 482 49
	addi	t5,t1,1
	lw	a7,4(s0)
	.loc 1 481 3 is_stmt 1
	.loc 1 482 3
	.loc 1 482 49 is_stmt 0
	sw	t5,16(s0)
	.loc 1 482 38
	add	a2,a2,t1
	lbu	a2,0(a2)
	.loc 1 482 24
	slli	a7,a7,8
	.loc 1 482 30
	add	a2,a2,a7
	.loc 1 482 12
	sw	a2,4(s0)
.L36:
.LVL96:
.LBE446:
.LBE448:
	.loc 1 503 2 is_stmt 1
	.loc 1 503 13 is_stmt 0
	lw	t1,0(s0)
	.loc 1 503 30
	lhu	a7,0(a3)
	slli	a5,a5,1
	.loc 1 503 21
	srli	a2,t1,11
	.loc 1 503 8
	mul	a2,a2,a7
.LVL97:
	.loc 1 504 2 is_stmt 1
	.loc 1 504 8 is_stmt 0
	lw	a7,4(s0)
	.loc 1 504 5
	bleu	a2,a7,.L37
	.loc 1 505 3 is_stmt 1
	.loc 1 505 13 is_stmt 0
	sw	a2,0(s0)
	.loc 1 506 3 is_stmt 1
	.loc 1 506 9 is_stmt 0
	lhu	a2,0(a3)
.LVL98:
.LBE450:
.LBE455:
	.loc 1 609 15
	not	a6,a6
.LVL99:
	.loc 1 609 12
	and	a1,a1,a6
.LVL100:
.LBB456:
.LBB451:
	.loc 1 506 23
	sub	a7,s5,a2
	.loc 1 506 32
	srai	a7,a7,5
	.loc 1 506 9
	add	a2,a2,a7
	sh	a2,0(a3)
.LVL101:
	.loc 1 507 3 is_stmt 1
	.loc 1 515 2
.LBE451:
.LBE456:
	.loc 1 608 5
	.loc 1 609 5
.L38:
	.loc 1 611 3 is_stmt 0
	bleu	a5,t3,.L39
	j	.L33
.LVL102:
.L37:
.LBB457:
.LBB452:
	.loc 1 509 3 is_stmt 1
	.loc 1 509 13 is_stmt 0
	sub	t1,t1,a2
	.loc 1 510 12
	sub	a2,a7,a2
.LVL103:
	.loc 1 509 13
	sw	t1,0(s0)
.LVL104:
	.loc 1 510 3 is_stmt 1
	.loc 1 510 12 is_stmt 0
	sw	a2,4(s0)
	.loc 1 511 3 is_stmt 1
	.loc 1 511 9 is_stmt 0
	lhu	a2,0(a3)
.LBE452:
.LBE457:
	.loc 1 605 12
	addi	a5,a5,1
.LBB458:
.LBB453:
	.loc 1 511 9
	srli	a1,a2,5
.LVL105:
	sub	a2,a2,a1
	sh	a2,0(a3)
	.loc 1 512 3 is_stmt 1
.LVL106:
	.loc 1 515 2
.LBE453:
.LBE458:
	.loc 1 605 5
	.loc 1 606 5
	.loc 1 606 12 is_stmt 0
	mv	a1,a6
	j	.L38
.LVL107:
.L41:
.LBB459:
.LBB437:
	.loc 2 68 7 is_stmt 1
	.loc 2 68 10 is_stmt 0
	li	a4,9
	bgtu	a5,a4,.L43
	.loc 2 69 3 is_stmt 1
	.loc 2 69 10 is_stmt 0
	addi	a5,a5,-3
.L109:
	.loc 2 71 10
	sb	a5,96(s0)
	j	.L23
.L43:
	.loc 2 71 3 is_stmt 1
	.loc 2 71 10 is_stmt 0
	addi	a5,a5,-6
	j	.L109
.LVL108:
.L25:
.LBE437:
.LBE459:
.LBE460:
.LBE461:
.LBB462:
.LBB402:
	.loc 1 509 3 is_stmt 1
	.loc 1 509 13 is_stmt 0
	sub	a3,a3,a0
	.loc 1 510 12
	sub	a1,a1,a0
	.loc 1 511 9
	srli	a0,a5,5
.LVL109:
	sub	a5,a5,a0
.LVL110:
	.loc 1 509 13
	sw	a3,0(s0)
.LVL111:
	.loc 1 510 3 is_stmt 1
	.loc 1 510 12 is_stmt 0
	sw	a1,4(s0)
	.loc 1 511 3 is_stmt 1
	.loc 1 511 9 is_stmt 0
	sh	a5,116(a4)
	.loc 1 512 3 is_stmt 1
.LVL112:
	.loc 1 515 2
.LBE402:
.LBE462:
	.loc 1 744 4
.LBB463:
.LBB464:
	.loc 1 499 2
	.loc 1 500 2
	.loc 1 502 2
.LBB465:
.LBB466:
	.loc 1 480 2
	.loc 1 480 5 is_stmt 0
	li	a5,16777216
	bgeu	a3,a5,.L44
	.loc 1 481 3 is_stmt 1
	.loc 1 481 13 is_stmt 0
	slli	a3,a3,8
	sw	a3,0(s0)
	.loc 1 482 3 is_stmt 1
	.loc 1 482 41 is_stmt 0
	lw	a3,16(s0)
	.loc 1 482 34
	lw	a5,12(s0)
	.loc 1 482 24
	slli	a1,a1,8
	.loc 1 482 49
	addi	a0,a3,1
	sw	a0,16(s0)
	.loc 1 482 38
	add	a5,a5,a3
	lbu	a5,0(a5)
	.loc 1 482 30
	add	a1,a5,a1
	.loc 1 482 12
	sw	a1,4(s0)
.L44:
.LVL113:
.LBE466:
.LBE465:
	.loc 1 503 2 is_stmt 1
	slli	a5,a6,1
	.loc 1 503 13 is_stmt 0
	lw	a1,0(s0)
	add	a5,s0,a5
	.loc 1 503 30
	lhu	a3,500(a5)
	.loc 1 503 21
	srli	a0,a1,11
	.loc 1 503 8
	mul	a7,a0,a3
.LVL114:
	.loc 1 504 2 is_stmt 1
	.loc 1 504 8 is_stmt 0
	lw	a0,4(s0)
	.loc 1 504 5
	bleu	a7,a0,.L45
	.loc 1 505 3 is_stmt 1
	.loc 1 506 23 is_stmt 0
	sub	a4,s5,a3
	.loc 1 506 32
	srai	a4,a4,5
	.loc 1 506 9
	add	a3,a3,a4
	.loc 1 505 13
	sw	a7,0(s0)
	.loc 1 506 3 is_stmt 1
	.loc 1 506 9 is_stmt 0
	sh	a3,500(a5)
	.loc 1 507 3 is_stmt 1
.LVL115:
	.loc 1 515 2
.LBE464:
.LBE463:
	.loc 1 747 5
.LBB468:
.LBB383:
	.loc 1 648 2
	.loc 1 649 2
	.loc 1 650 2
	.loc 1 652 2
.LBB316:
.LBB317:
	.loc 2 77 2
	.loc 2 77 40 is_stmt 0
	li	a4,6
	li	a5,7
	bleu	a6,a4,.L46
	li	a5,10
.L46:
	.loc 2 77 9
	sb	a5,96(s0)
.LVL116:
.LBE317:
.LBE316:
	.loc 1 654 2 is_stmt 1
	.loc 1 654 15 is_stmt 0
	lw	a5,88(s0)
	.loc 1 658 2
	addi	a1,s0,1752
	mv	a0,s0
	.loc 1 654 15
	sw	a5,92(s0)
	.loc 1 655 2 is_stmt 1
	.loc 1 655 15 is_stmt 0
	lw	a5,84(s0)
	sw	a5,88(s0)
	.loc 1 656 2 is_stmt 1
	.loc 1 656 15 is_stmt 0
	lw	a5,80(s0)
	sw	a5,84(s0)
	.loc 1 658 2 is_stmt 1
	call	lzma_len
.LVL117:
	.loc 1 660 2
.LBB318:
.LBB319:
	.loc 2 149 2
	.loc 2 150 14 is_stmt 0
	lw	a5,100(s0)
	li	a4,5
	bleu	a5,a4,.L47
	li	a5,5
.L47:
	slli	a5,a5,7
	addi	a3,a5,724
.LVL118:
.LBE319:
.LBE318:
	.loc 1 661 2 is_stmt 1
.LBB320:
.LBB321:
.LBB322:
.LBB323:
.LBB324:
.LBB325:
	.loc 1 480 5 is_stmt 0
	li	a7,16777216
.LBE325:
.LBE324:
.LBE323:
.LBE322:
	.loc 1 522 11
	li	a5,1
	.loc 1 529 2
	li	a6,63
.L51:
.LVL119:
	.loc 1 524 2 is_stmt 1
	.loc 1 525 3
.LBB334:
.LBB330:
.LBB328:
.LBB326:
	.loc 1 480 8 is_stmt 0
	lw	a4,0(s0)
.LBE326:
.LBE328:
.LBE330:
.LBE334:
	.loc 1 525 24
	slli	a5,a5,1
	.loc 1 525 7
	add	a2,a5,a3
	add	a2,s0,a2
.LVL120:
.LBB335:
.LBB331:
	.loc 1 499 2 is_stmt 1
	.loc 1 500 2
	.loc 1 502 2
.LBB329:
.LBB327:
	.loc 1 480 2
	.loc 1 480 5 is_stmt 0
	bgeu	a4,a7,.L48
	.loc 1 482 41
	lw	a0,16(s0)
	.loc 1 481 13
	slli	a4,a4,8
	sw	a4,0(s0)
	.loc 1 482 34
	lw	a4,12(s0)
	.loc 1 482 49
	addi	t1,a0,1
	lw	a1,4(s0)
	.loc 1 481 3 is_stmt 1
	.loc 1 482 3
	.loc 1 482 49 is_stmt 0
	sw	t1,16(s0)
	.loc 1 482 38
	add	a4,a4,a0
	lbu	a4,0(a4)
	.loc 1 482 24
	slli	a1,a1,8
	.loc 1 482 30
	add	a4,a4,a1
	.loc 1 482 12
	sw	a4,4(s0)
.L48:
.LVL121:
.LBE327:
.LBE329:
	.loc 1 503 2 is_stmt 1
	.loc 1 503 13 is_stmt 0
	lw	a0,0(s0)
	.loc 1 503 30
	lhu	a1,0(a2)
	.loc 1 503 21
	srli	a4,a0,11
	.loc 1 503 8
	mul	a4,a4,a1
.LVL122:
	.loc 1 504 2 is_stmt 1
	.loc 1 504 8 is_stmt 0
	lw	a1,4(s0)
.LVL123:
	.loc 1 504 5
	bleu	a4,a1,.L49
	.loc 1 505 3 is_stmt 1
	.loc 1 505 13 is_stmt 0
	sw	a4,0(s0)
	.loc 1 506 3 is_stmt 1
	.loc 1 506 9 is_stmt 0
	lhu	a4,0(a2)
.LVL124:
	.loc 1 506 23
	sub	a1,s5,a4
	.loc 1 506 32
	srai	a1,a1,5
	.loc 1 506 9
	add	a4,a4,a1
	sh	a4,0(a2)
.LVL125:
	.loc 1 507 3 is_stmt 1
	.loc 1 515 2
.LBE331:
.LBE335:
	.loc 1 528 4
.L50:
	.loc 1 529 2 is_stmt 0
	bleu	a5,a6,.L51
	.loc 1 531 2 is_stmt 1
.LVL126:
.LBE321:
.LBE320:
	.loc 1 661 12 is_stmt 0
	addi	a5,a5,-64
.LVL127:
	.loc 1 663 2 is_stmt 1
	.loc 1 663 5 is_stmt 0
	li	a4,3
	bgtu	a5,a4,.L52
	.loc 1 664 3 is_stmt 1
	.loc 1 664 16 is_stmt 0
	sw	a5,80(s0)
.LVL128:
.L53:
.LBE383:
.LBE468:
	.loc 1 749 4 is_stmt 1
	.loc 1 749 9 is_stmt 0
	lw	a2,80(s0)
.LVL129:
.LBB469:
.LBB470:
	.loc 1 348 2 is_stmt 1
	.loc 1 349 2
	.loc 1 351 2
	.loc 1 351 5 is_stmt 0
	lw	a5,36(s0)
	bltu	a2,a5,.L81
.LVL130:
.L83:
.LBE470:
.LBE469:
	.loc 1 750 11
	li	a0,0
.L82:
	.loc 1 761 1
	lw	ra,28(sp)
	.cfi_remember_state
	.cfi_restore 1
	lw	s0,24(sp)
	.cfi_restore 8
.LVL131:
	lw	s1,20(sp)
	.cfi_restore 9
	lw	s2,16(sp)
	.cfi_restore 18
.LVL132:
	lw	s3,12(sp)
	.cfi_restore 19
	lw	s4,8(sp)
	.cfi_restore 20
.LVL133:
	lw	s5,4(sp)
	.cfi_restore 21
	addi	sp,sp,32
	.cfi_def_cfa_offset 0
	jr	ra
.LVL134:
.L49:
	.cfi_restore_state
.LBB472:
.LBB384:
.LBB339:
.LBB338:
.LBB336:
.LBB332:
	.loc 1 509 3 is_stmt 1
	.loc 1 509 13 is_stmt 0
	sub	a0,a0,a4
	.loc 1 510 12
	sub	a4,a1,a4
.LVL135:
	.loc 1 509 13
	sw	a0,0(s0)
.LVL136:
	.loc 1 510 3 is_stmt 1
	.loc 1 510 12 is_stmt 0
	sw	a4,4(s0)
	.loc 1 511 3 is_stmt 1
	.loc 1 511 9 is_stmt 0
	lhu	a4,0(a2)
.LBE332:
.LBE336:
	.loc 1 526 11
	addi	a5,a5,1
.LVL137:
.LBB337:
.LBB333:
	.loc 1 511 9
	srli	a1,a4,5
	sub	a4,a4,a1
	sh	a4,0(a2)
	.loc 1 512 3 is_stmt 1
.LVL138:
	.loc 1 515 2
.LBE333:
.LBE337:
	.loc 1 526 4
	j	.L50
.LVL139:
.L52:
.LBE338:
.LBE339:
	.loc 1 666 3
	.loc 1 667 33 is_stmt 0
	andi	a4,a5,1
	.loc 1 669 6
	li	a2,13
	.loc 1 666 22
	srli	a3,a5,1
.LVL140:
	.loc 1 667 3 is_stmt 1
	.loc 1 667 20 is_stmt 0
	addi	a4,a4,2
	.loc 1 669 3 is_stmt 1
	.loc 1 669 6 is_stmt 0
	bgtu	a5,a2,.L54
	.loc 1 666 9
	addi	a3,a3,-1
.LVL141:
	.loc 1 670 4 is_stmt 1
	.loc 1 670 17 is_stmt 0
	sll	a4,a4,a3
	.loc 1 672 18
	sub	a5,s3,a5
.LVL142:
	.loc 1 670 17
	sw	a4,80(s0)
	.loc 1 671 4 is_stmt 1
	.loc 1 671 12 is_stmt 0
	addi	t1,s0,1492
	.loc 1 672 18
	add	a5,a5,a4
.LVL143:
	.loc 1 673 4 is_stmt 1
.LBB340:
.LBB341:
	.loc 1 539 2
	.loc 1 540 2
	.loc 1 540 11 is_stmt 0
	li	a0,0
	.loc 1 539 11
	li	a1,1
.LBB342:
.LBB343:
.LBB344:
.LBB345:
	.loc 1 480 5
	li	t3,16777216
.LBE345:
.LBE344:
.LBE343:
.LBE342:
	.loc 1 545 15
	li	t4,1
.LVL144:
.L58:
	.loc 1 542 2 is_stmt 1
	.loc 1 543 3
.LBB354:
.LBB350:
.LBB348:
.LBB346:
	.loc 1 480 8 is_stmt 0
	lw	a4,0(s0)
.LBE346:
.LBE348:
.LBE350:
.LBE354:
	.loc 1 543 7
	add	a2,a5,a1
	slli	a2,a2,1
	add	a2,t1,a2
.LVL145:
.LBB355:
.LBB351:
	.loc 1 499 2 is_stmt 1
	.loc 1 500 2
	.loc 1 502 2
.LBB349:
.LBB347:
	.loc 1 480 2
	.loc 1 480 5 is_stmt 0
	bgeu	a4,t3,.L55
	.loc 1 482 41
	lw	a7,16(s0)
	.loc 1 481 13
	slli	a4,a4,8
	sw	a4,0(s0)
	.loc 1 482 34
	lw	a4,12(s0)
	.loc 1 482 49
	addi	t5,a7,1
	lw	a6,4(s0)
	.loc 1 481 3 is_stmt 1
	.loc 1 482 3
	.loc 1 482 49 is_stmt 0
	sw	t5,16(s0)
	.loc 1 482 38
	add	a4,a4,a7
	lbu	a4,0(a4)
	.loc 1 482 24
	slli	a6,a6,8
	.loc 1 482 30
	add	a4,a4,a6
	.loc 1 482 12
	sw	a4,4(s0)
.L55:
.LVL146:
.LBE347:
.LBE349:
	.loc 1 503 2 is_stmt 1
	.loc 1 503 13 is_stmt 0
	lw	a7,0(s0)
	.loc 1 503 30
	lhu	a6,0(a2)
	slli	a1,a1,1
.LVL147:
	.loc 1 503 21
	srli	a4,a7,11
	.loc 1 503 8
	mul	a4,a4,a6
.LVL148:
	.loc 1 504 2 is_stmt 1
	.loc 1 504 8 is_stmt 0
	lw	a6,4(s0)
	.loc 1 504 5
	bleu	a4,a6,.L56
	.loc 1 505 3 is_stmt 1
	.loc 1 505 13 is_stmt 0
	sw	a4,0(s0)
	.loc 1 506 3 is_stmt 1
	.loc 1 506 9 is_stmt 0
	lhu	a4,0(a2)
.LVL149:
	.loc 1 506 23
	sub	a6,s5,a4
	.loc 1 506 32
	srai	a6,a6,5
	.loc 1 506 9
	add	a4,a4,a6
	sh	a4,0(a2)
.LVL150:
	.loc 1 507 3 is_stmt 1
	.loc 1 515 2
.LBE351:
.LBE355:
	.loc 1 547 4
.L57:
	.loc 1 549 2 is_stmt 0
	addi	a0,a0,1
.LVL151:
	bgtu	a3,a0,.L58
	j	.L53
.LVL152:
.L56:
.LBB356:
.LBB352:
	.loc 1 509 3 is_stmt 1
	.loc 1 509 13 is_stmt 0
	sub	a7,a7,a4
	.loc 1 510 12
	sub	a4,a6,a4
.LVL153:
	.loc 1 509 13
	sw	a7,0(s0)
.LVL154:
	.loc 1 510 3 is_stmt 1
	.loc 1 510 12 is_stmt 0
	sw	a4,4(s0)
	.loc 1 511 3 is_stmt 1
	.loc 1 511 9 is_stmt 0
	lhu	a4,0(a2)
.LBE352:
.LBE356:
	.loc 1 544 11
	addi	a1,a1,1
.LBB357:
.LBB353:
	.loc 1 511 9
	srli	a6,a4,5
	sub	a4,a4,a6
	sh	a4,0(a2)
	.loc 1 512 3 is_stmt 1
.LVL155:
	.loc 1 515 2
.LBE353:
.LBE357:
	.loc 1 544 4
	.loc 1 545 4
	.loc 1 545 10 is_stmt 0
	lw	a2,80(s0)
	.loc 1 545 15
	sll	a4,t4,a0
	.loc 1 545 10
	add	a4,a2,a4
	sw	a4,80(s0)
	j	.L57
.LVL156:
.L54:
.LBE341:
.LBE340:
	.loc 1 667 16
	sw	a4,80(s0)
	.loc 1 676 4 is_stmt 1
	addi	a5,a3,-5
.LVL157:
.LBB358:
.LBB359:
.LBB360:
.LBB361:
	.loc 1 480 5 is_stmt 0
	li	a0,16777216
.LVL158:
.L60:
.LBE361:
.LBE360:
	.loc 1 555 2 is_stmt 1
	.loc 1 557 2
	.loc 1 558 3
.LBB363:
.LBB362:
	.loc 1 480 2
	.loc 1 480 8 is_stmt 0
	lw	a4,0(s0)
	.loc 1 480 5
	bgeu	a4,a0,.L59
	.loc 1 482 41
	lw	a2,16(s0)
	.loc 1 481 13
	slli	a4,a4,8
	sw	a4,0(s0)
	.loc 1 482 34
	lw	a4,12(s0)
	.loc 1 482 49
	addi	a1,a2,1
	lw	a3,4(s0)
	.loc 1 481 3 is_stmt 1
	.loc 1 482 3
	.loc 1 482 49 is_stmt 0
	sw	a1,16(s0)
	.loc 1 482 38
	add	a4,a4,a2
	lbu	a4,0(a4)
	.loc 1 482 24
	slli	a3,a3,8
	.loc 1 482 30
	add	a4,a4,a3
	.loc 1 482 12
	sw	a4,4(s0)
.L59:
.LVL159:
.LBE362:
.LBE363:
	.loc 1 559 3 is_stmt 1
	.loc 1 559 13 is_stmt 0
	lw	a3,0(s0)
	.loc 1 560 12
	lw	a2,4(s0)
	.loc 1 563 18
	lw	a4,80(s0)
	.loc 1 559 13
	srli	a3,a3,1
	.loc 1 560 12
	sub	a2,a2,a3
	.loc 1 561 22
	srai	a1,a2,31
	.loc 1 563 18
	slli	a4,a4,1
	.loc 1 559 13
	sw	a3,0(s0)
	.loc 1 560 3 is_stmt 1
	.loc 1 561 3
.LVL160:
	.loc 1 562 3
	.loc 1 563 24 is_stmt 0
	addi	a4,a4,1
	.loc 1 562 25
	and	a3,a3,a1
	.loc 1 562 12
	add	a3,a3,a2
	.loc 1 563 24
	add	a4,a4,a1
	.loc 1 562 12
	sw	a3,4(s0)
	.loc 1 563 3 is_stmt 1
	.loc 1 563 9 is_stmt 0
	sw	a4,80(s0)
	.loc 1 564 2
	addi	a5,a5,-1
.LVL161:
	bne	a5,zero,.L60
.LVL162:
.LBE359:
.LBE358:
	.loc 1 677 4 is_stmt 1
	.loc 1 677 17 is_stmt 0
	slli	a4,a4,4
	sw	a4,80(s0)
	.loc 1 678 4 is_stmt 1
	.loc 1 678 38 is_stmt 0
	addi	a7,s0,1720
.LVL163:
.LBB364:
.LBB365:
	.loc 1 539 2 is_stmt 1
	.loc 1 540 2
	.loc 1 539 11 is_stmt 0
	li	a3,1
.LBB366:
.LBB367:
.LBB368:
.LBB369:
	.loc 1 480 5
	li	t1,16777216
.LBE369:
.LBE368:
.LBE367:
.LBE366:
	.loc 1 545 15
	li	t3,1
	.loc 1 549 2
	li	a6,4
.LVL164:
.L64:
	.loc 1 542 2 is_stmt 1
	.loc 1 543 3
.LBB378:
.LBB374:
.LBB372:
.LBB370:
	.loc 1 480 8 is_stmt 0
	lw	a4,0(s0)
.LBE370:
.LBE372:
.LBE374:
.LBE378:
	.loc 1 543 24
	slli	a3,a3,1
	.loc 1 543 7
	add	a2,a7,a3
.LVL165:
.LBB379:
.LBB375:
	.loc 1 499 2 is_stmt 1
	.loc 1 500 2
	.loc 1 502 2
.LBB373:
.LBB371:
	.loc 1 480 2
	.loc 1 480 5 is_stmt 0
	bgeu	a4,t1,.L61
	.loc 1 482 41
	lw	a0,16(s0)
	.loc 1 481 13
	slli	a4,a4,8
	sw	a4,0(s0)
	.loc 1 482 34
	lw	a4,12(s0)
	.loc 1 482 49
	addi	t4,a0,1
	lw	a1,4(s0)
	.loc 1 481 3 is_stmt 1
	.loc 1 482 3
	.loc 1 482 49 is_stmt 0
	sw	t4,16(s0)
	.loc 1 482 38
	add	a4,a4,a0
	lbu	a4,0(a4)
	.loc 1 482 24
	slli	a1,a1,8
	.loc 1 482 30
	add	a4,a4,a1
	.loc 1 482 12
	sw	a4,4(s0)
.L61:
.LVL166:
.LBE371:
.LBE373:
	.loc 1 503 2 is_stmt 1
	.loc 1 503 13 is_stmt 0
	lw	a0,0(s0)
	.loc 1 503 30
	lhu	a1,0(a2)
	.loc 1 503 21
	srli	a4,a0,11
	.loc 1 503 8
	mul	a4,a4,a1
.LVL167:
	.loc 1 504 2 is_stmt 1
	.loc 1 504 8 is_stmt 0
	lw	a1,4(s0)
.LVL168:
	.loc 1 504 5
	bleu	a4,a1,.L62
	.loc 1 505 3 is_stmt 1
	.loc 1 505 13 is_stmt 0
	sw	a4,0(s0)
	.loc 1 506 3 is_stmt 1
	.loc 1 506 9 is_stmt 0
	lhu	a4,0(a2)
.LVL169:
	.loc 1 506 23
	sub	a1,s5,a4
	.loc 1 506 32
	srai	a1,a1,5
	.loc 1 506 9
	add	a4,a4,a1
	sh	a4,0(a2)
.LVL170:
	.loc 1 507 3 is_stmt 1
	.loc 1 515 2
.LBE375:
.LBE379:
	.loc 1 547 4
.L63:
	.loc 1 549 2 is_stmt 0
	addi	a5,a5,1
.LVL171:
	bne	a5,a6,.L64
	j	.L53
.LVL172:
.L62:
.LBB380:
.LBB376:
	.loc 1 509 3 is_stmt 1
	.loc 1 509 13 is_stmt 0
	sub	a0,a0,a4
	.loc 1 510 12
	sub	a4,a1,a4
.LVL173:
	.loc 1 509 13
	sw	a0,0(s0)
.LVL174:
	.loc 1 510 3 is_stmt 1
	.loc 1 510 12 is_stmt 0
	sw	a4,4(s0)
	.loc 1 511 3 is_stmt 1
	.loc 1 511 9 is_stmt 0
	lhu	a4,0(a2)
.LBE376:
.LBE380:
	.loc 1 544 11
	addi	a3,a3,1
.LVL175:
.LBB381:
.LBB377:
	.loc 1 511 9
	srli	a1,a4,5
	sub	a4,a4,a1
	sh	a4,0(a2)
	.loc 1 512 3 is_stmt 1
.LVL176:
	.loc 1 515 2
.LBE377:
.LBE381:
	.loc 1 544 4
	.loc 1 545 4
	.loc 1 545 10 is_stmt 0
	lw	a2,80(s0)
	.loc 1 545 15
	sll	a4,t3,a5
	.loc 1 545 10
	add	a4,a2,a4
	sw	a4,80(s0)
	j	.L63
.LVL177:
.L45:
.LBE365:
.LBE364:
.LBE384:
.LBE472:
.LBB473:
.LBB467:
	.loc 1 509 3 is_stmt 1
	.loc 1 509 13 is_stmt 0
	sub	a1,a1,a7
	.loc 1 510 12
	sub	a0,a0,a7
	.loc 1 511 9
	srli	a7,a3,5
.LVL178:
	sub	a3,a3,a7
.LVL179:
	.loc 1 509 13
	sw	a1,0(s0)
.LVL180:
	.loc 1 510 3 is_stmt 1
	.loc 1 510 12 is_stmt 0
	sw	a0,4(s0)
	.loc 1 511 3 is_stmt 1
	.loc 1 511 9 is_stmt 0
	sh	a3,500(a5)
	.loc 1 512 3 is_stmt 1
.LVL181:
	.loc 1 515 2
.LBE467:
.LBE473:
	.loc 1 745 5
.LBB474:
.LBB313:
	.loc 1 690 2
	.loc 1 692 2
.LBB284:
.LBB285:
	.loc 1 499 2
	.loc 1 500 2
	.loc 1 502 2
.LBB286:
.LBB287:
	.loc 1 480 2
	.loc 1 480 5 is_stmt 0
	li	a3,16777216
	bgeu	a1,a3,.L66
	.loc 1 481 3 is_stmt 1
	.loc 1 481 13 is_stmt 0
	slli	a1,a1,8
	sw	a1,0(s0)
	.loc 1 482 3 is_stmt 1
	.loc 1 482 41 is_stmt 0
	lw	a1,16(s0)
	.loc 1 482 34
	lw	a3,12(s0)
	.loc 1 482 24
	slli	a0,a0,8
	.loc 1 482 49
	addi	a7,a1,1
	sw	a7,16(s0)
	.loc 1 482 38
	add	a3,a3,a1
	lbu	a3,0(a3)
	.loc 1 482 30
	add	a0,a3,a0
	.loc 1 482 12
	sw	a0,4(s0)
.L66:
.LVL182:
.LBE287:
.LBE286:
	.loc 1 503 2 is_stmt 1
	.loc 1 503 13 is_stmt 0
	lw	a7,0(s0)
	.loc 1 503 30
	lhu	a0,524(a5)
	.loc 1 503 21
	srli	a3,a7,11
	.loc 1 503 8
	mul	a1,a3,a0
.LVL183:
	.loc 1 504 2 is_stmt 1
	.loc 1 504 8 is_stmt 0
	lw	a3,4(s0)
	.loc 1 504 5
	bleu	a1,a3,.L67
	.loc 1 505 3 is_stmt 1
	.loc 1 506 23 is_stmt 0
	sub	a7,s5,a0
	.loc 1 506 32
	srai	a7,a7,5
	.loc 1 505 13
	sw	a1,0(s0)
	.loc 1 506 3 is_stmt 1
	.loc 1 506 9 is_stmt 0
	add	a0,a0,a7
	sh	a0,524(a5)
	.loc 1 507 3 is_stmt 1
.LVL184:
	.loc 1 515 2
.LBE285:
.LBE284:
	.loc 1 693 3
.LBB289:
.LBB290:
	.loc 1 499 2
	.loc 1 500 2
	.loc 1 502 2
.LBB291:
.LBB292:
	.loc 1 480 2
	.loc 1 480 5 is_stmt 0
	li	a5,16777216
	bltu	a1,a5,.L68
.L69:
.LVL185:
.LBE292:
.LBE291:
	.loc 1 503 2 is_stmt 1
	.loc 1 503 13 is_stmt 0
	lw	a0,0(s0)
	.loc 1 503 30
	lhu	a5,596(a4)
	.loc 1 504 8
	lw	a1,4(s0)
	.loc 1 503 21
	srli	a3,a0,11
	.loc 1 503 8
	mul	a3,a3,a5
.LVL186:
	.loc 1 504 2 is_stmt 1
	.loc 1 504 5 is_stmt 0
	bleu	a3,a1,.L72
	.loc 1 505 3 is_stmt 1
	.loc 1 505 13 is_stmt 0
	sw	a3,0(s0)
	.loc 1 506 3 is_stmt 1
	.loc 1 506 23 is_stmt 0
	sub	a3,s5,a5
.LVL187:
	.loc 1 506 32
	srai	a3,a3,5
	.loc 1 506 9
	add	a5,a5,a3
	sh	a5,596(a4)
.LVL188:
	.loc 1 507 3 is_stmt 1
	.loc 1 515 2
.LBE290:
.LBE289:
	.loc 1 695 4
.LBB296:
.LBB297:
	.loc 2 89 2
	.loc 2 89 43 is_stmt 0
	li	a4,6
	li	a5,9
	bleu	a6,a4,.L73
	li	a5,11
.L73:
	.loc 2 89 9
	sb	a5,96(s0)
.LVL189:
.LBE297:
.LBE296:
	.loc 1 696 4 is_stmt 1
	.loc 1 696 16 is_stmt 0
	li	a5,1
	sw	a5,100(s0)
	.loc 1 697 4 is_stmt 1
	j	.L53
.LVL190:
.L67:
.LBB298:
.LBB288:
	.loc 1 509 3
	.loc 1 509 13 is_stmt 0
	sub	a4,a7,a1
	.loc 1 510 12
	sub	a3,a3,a1
	.loc 1 511 9
	srli	a1,a0,5
.LVL191:
	sub	a0,a0,a1
.LVL192:
	.loc 1 509 13
	sw	a4,0(s0)
.LVL193:
	.loc 1 510 3 is_stmt 1
	.loc 1 510 12 is_stmt 0
	sw	a3,4(s0)
	.loc 1 511 3 is_stmt 1
	.loc 1 511 9 is_stmt 0
	sh	a0,524(a5)
	.loc 1 512 3 is_stmt 1
.LVL194:
	.loc 1 515 2
.LBE288:
.LBE298:
	.loc 1 700 3
.LBB299:
.LBB300:
	.loc 1 499 2
	.loc 1 500 2
	.loc 1 502 2
.LBB301:
.LBB302:
	.loc 1 480 2
	.loc 1 480 5 is_stmt 0
	li	a1,16777216
	bltu	a4,a1,.L70
.L71:
.LVL195:
.LBE302:
.LBE301:
	.loc 1 503 2 is_stmt 1
	.loc 1 503 13 is_stmt 0
	lw	a3,0(s0)
	.loc 1 503 30
	lhu	a4,548(a5)
	lw	a6,84(s0)
.LVL196:
	.loc 1 503 21
	srli	a1,a3,11
	.loc 1 503 8
	mul	a0,a1,a4
.LVL197:
	.loc 1 504 2 is_stmt 1
	.loc 1 504 8 is_stmt 0
	lw	a1,4(s0)
	.loc 1 504 5
	bleu	a0,a1,.L75
	.loc 1 505 3 is_stmt 1
	.loc 1 506 23 is_stmt 0
	sub	a3,s5,a4
	.loc 1 506 32
	srai	a3,a3,5
	.loc 1 505 13
	sw	a0,0(s0)
	.loc 1 506 3 is_stmt 1
	.loc 1 506 9 is_stmt 0
	add	a4,a4,a3
	sh	a4,548(a5)
	.loc 1 507 3 is_stmt 1
.LVL198:
	.loc 1 515 2
.LBE300:
.LBE299:
	.loc 1 701 4
.L76:
	.loc 1 713 3
	.loc 1 713 16 is_stmt 0
	lw	a5,80(s0)
	.loc 1 714 16
	sw	a6,80(s0)
	.loc 1 713 16
	sw	a5,84(s0)
	.loc 1 714 3 is_stmt 1
	j	.L74
.LVL199:
.L68:
.LBB306:
.LBB295:
.LBB294:
.LBB293:
	.loc 1 481 3
	.loc 1 481 13 is_stmt 0
	slli	a1,a1,8
	sw	a1,0(s0)
	.loc 1 482 3 is_stmt 1
	.loc 1 482 41 is_stmt 0
	lw	a1,16(s0)
	.loc 1 482 34
	lw	a5,12(s0)
	.loc 1 482 24
	slli	a3,a3,8
	.loc 1 482 49
	addi	a0,a1,1
	sw	a0,16(s0)
	.loc 1 482 38
	add	a5,a5,a1
	lbu	a5,0(a5)
	.loc 1 482 30
	add	a3,a5,a3
	.loc 1 482 12
	sw	a3,4(s0)
	j	.L69
.LVL200:
.L72:
.LBE293:
.LBE294:
	.loc 1 509 3 is_stmt 1
	.loc 1 509 13 is_stmt 0
	sub	a0,a0,a3
	.loc 1 510 12
	sub	a3,a1,a3
.LVL201:
	sw	a3,4(s0)
	.loc 1 511 9
	srli	a3,a5,5
	.loc 1 509 13
	sw	a0,0(s0)
.LVL202:
	.loc 1 510 3 is_stmt 1
	.loc 1 511 3
	.loc 1 511 9 is_stmt 0
	sub	a5,a5,a3
	sh	a5,596(a4)
	.loc 1 512 3 is_stmt 1
.LVL203:
	.loc 1 515 2
.L74:
.LBE295:
.LBE306:
	.loc 1 717 2
.LBB307:
.LBB308:
	.loc 2 83 2
	.loc 2 83 42 is_stmt 0
	lbu	a3,96(s0)
	li	a4,6
	li	a5,8
	bleu	a3,a4,.L80
	li	a5,11
.L80:
	.loc 2 83 9
	sb	a5,96(s0)
.LVL204:
.LBE308:
.LBE307:
	.loc 1 718 2 is_stmt 1
	mv	a1,s2
	mv	a0,s0
	call	lzma_len
.LVL205:
	j	.L53
.LVL206:
.L70:
.LBB309:
.LBB305:
.LBB304:
.LBB303:
	.loc 1 481 3
	.loc 1 482 41 is_stmt 0
	lw	a1,16(s0)
	.loc 1 481 13
	slli	a4,a4,8
	sw	a4,0(s0)
	.loc 1 482 3 is_stmt 1
	.loc 1 482 34 is_stmt 0
	lw	a4,12(s0)
	.loc 1 482 49
	addi	a0,a1,1
	sw	a0,16(s0)
	.loc 1 482 38
	add	a4,a4,a1
	lbu	a4,0(a4)
	.loc 1 482 24
	slli	a3,a3,8
	.loc 1 482 30
	add	a3,a4,a3
	.loc 1 482 12
	sw	a3,4(s0)
	j	.L71
.LVL207:
.L75:
.LBE303:
.LBE304:
	.loc 1 509 3 is_stmt 1
	.loc 1 509 13 is_stmt 0
	sub	a3,a3,a0
	.loc 1 510 12
	sub	a1,a1,a0
	.loc 1 511 9
	srli	a0,a4,5
.LVL208:
	sub	a4,a4,a0
.LVL209:
	.loc 1 509 13
	sw	a3,0(s0)
.LVL210:
	.loc 1 510 3 is_stmt 1
	.loc 1 510 12 is_stmt 0
	sw	a1,4(s0)
	.loc 1 511 3 is_stmt 1
	.loc 1 511 9 is_stmt 0
	sh	a4,548(a5)
	.loc 1 512 3 is_stmt 1
.LVL211:
	.loc 1 515 2
.LBE305:
.LBE309:
	.loc 1 703 4
.LBB310:
.LBB282:
	.loc 1 499 2
	.loc 1 500 2
	.loc 1 502 2
.LBB280:
.LBB281:
	.loc 1 480 2
	.loc 1 480 5 is_stmt 0
	li	a4,16777216
	bgeu	a3,a4,.L77
	.loc 1 481 3 is_stmt 1
	.loc 1 481 13 is_stmt 0
	slli	a3,a3,8
	sw	a3,0(s0)
	.loc 1 482 3 is_stmt 1
	.loc 1 482 41 is_stmt 0
	lw	a3,16(s0)
	.loc 1 482 34
	lw	a4,12(s0)
	.loc 1 482 24
	slli	a1,a1,8
	.loc 1 482 49
	addi	a0,a3,1
	sw	a0,16(s0)
	.loc 1 482 38
	add	a4,a4,a3
	lbu	a4,0(a4)
	.loc 1 482 30
	add	a1,a4,a1
	.loc 1 482 12
	sw	a1,4(s0)
.L77:
.LVL212:
.LBE281:
.LBE280:
	.loc 1 503 2 is_stmt 1
	.loc 1 503 13 is_stmt 0
	lw	a0,0(s0)
	.loc 1 503 30
	lhu	a4,572(a5)
	.loc 1 504 8
	lw	a1,4(s0)
	.loc 1 503 21
	srli	a3,a0,11
	.loc 1 503 8
	mul	a3,a3,a4
.LVL213:
	.loc 1 504 2 is_stmt 1
	lw	a7,88(s0)
	.loc 1 504 5 is_stmt 0
	bleu	a3,a1,.L78
	.loc 1 505 3 is_stmt 1
	.loc 1 505 13 is_stmt 0
	sw	a3,0(s0)
	.loc 1 506 3 is_stmt 1
	.loc 1 506 23 is_stmt 0
	sub	a3,s5,a4
.LVL214:
	.loc 1 506 32
	srai	a3,a3,5
	.loc 1 506 9
	add	a4,a4,a3
	sh	a4,572(a5)
.LVL215:
	.loc 1 507 3 is_stmt 1
	.loc 1 515 2
.LBE282:
.LBE310:
	.loc 1 704 5
.L79:
	.loc 1 710 4
	.loc 1 710 17 is_stmt 0
	sw	a6,88(s0)
	mv	a6,a7
	j	.L76
.LVL216:
.L78:
.LBB311:
.LBB283:
	.loc 1 509 3 is_stmt 1
	.loc 1 509 13 is_stmt 0
	sub	a0,a0,a3
	.loc 1 510 12
	sub	a3,a1,a3
.LVL217:
	sw	a3,4(s0)
	.loc 1 511 9
	srli	a3,a4,5
	.loc 1 509 13
	sw	a0,0(s0)
.LVL218:
	.loc 1 510 3 is_stmt 1
	.loc 1 511 3
	.loc 1 511 9 is_stmt 0
	sub	a4,a4,a3
	sh	a4,572(a5)
	.loc 1 512 3 is_stmt 1
.LVL219:
	.loc 1 515 2
.LBE283:
.LBE311:
	.loc 1 706 5
	.loc 1 706 9 is_stmt 0
	lw	a5,92(s0)
.LVL220:
	.loc 1 707 5 is_stmt 1
	.loc 1 707 18 is_stmt 0
	sw	a7,92(s0)
	.loc 1 706 9
	mv	a7,a5
	j	.L79
.LVL221:
.L81:
.LBE313:
.LBE474:
.LBB475:
.LBB471:
	.loc 1 351 25
	lw	a5,48(s0)
	bgeu	a2,a5,.L83
	mv	a1,s4
	addi	a0,s0,24
	call	dict_repeat.part.0
.LVL222:
.LBE471:
.LBE475:
	.loc 1 749 7
	bne	a0,zero,.L23
	j	.L83
	.cfi_endproc
.LFE33:
	.size	lzma_main, .-lzma_main
	.section	.text.xz_dec_lzma2_run,"ax",@progbits
	.align	1
	.globl	xz_dec_lzma2_run
	.type	xz_dec_lzma2_run, @function
xz_dec_lzma2_run:
.LFB37:
	.loc 1 933 1 is_stmt 1
	.cfi_startproc
.LVL223:
	.loc 1 934 2
	.loc 1 936 2
	.loc 1 933 1 is_stmt 0
	addi	sp,sp,-48
	.cfi_def_cfa_offset 48
	sw	s5,20(sp)
	.cfi_offset 21, -28
.LBB500:
.LBB501:
	.loc 1 852 13
	li	s5,28672
.LBE501:
.LBE500:
	.loc 1 933 1
	sw	s3,28(sp)
	sw	s4,24(sp)
	sw	s6,16(sp)
	.cfi_offset 19, -20
	.cfi_offset 20, -24
	.cfi_offset 22, -32
.LBB506:
.LBB502:
	.loc 1 919 17
	addi	s4,s5,-284
	.loc 1 852 13
	add	s3,a0,s5
.LBE502:
.LBE506:
	.loc 1 937 3
	lui	s6,%hi(.L114)
	addi	s5,s5,-288
	.loc 1 933 1
	sw	s0,40(sp)
	sw	s1,36(sp)
	sw	ra,44(sp)
	sw	s2,32(sp)
	sw	s7,12(sp)
	sw	s8,8(sp)
	.cfi_offset 8, -8
	.cfi_offset 9, -12
	.cfi_offset 1, -4
	.cfi_offset 18, -16
	.cfi_offset 23, -36
	.cfi_offset 24, -40
	.loc 1 933 1
	mv	s0,a0
	mv	s1,a1
.LBB507:
.LBB503:
	.loc 1 919 17
	add	s4,a0,s4
.LBE503:
.LBE507:
	.loc 1 937 3
	addi	s6,s6,%lo(.L114)
	add	s5,a0,s5
.LVL224:
.L111:
	.loc 1 936 10
	lw	a5,4(s1)
	.loc 1 936 22
	lw	a3,8(s1)
	lbu	a4,64(s0)
	.loc 1 937 3
	li	a2,8
.L112:
	.loc 1 936 8
	bltu	a5,a3,.L170
	.loc 1 936 32 discriminator 1
	li	a5,7
	bne	a4,a5,.L161
.L115:
	.loc 1 1060 9 is_stmt 1
	.loc 1 1072 4
	.loc 1 1072 39 is_stmt 0
	lw	a5,20(s1)
	lw	a3,16(s1)
	.loc 1 1072 4
	lw	a4,68(s0)
	sub	a5,a5,a3
	bleu	a5,a4,.L143
	mv	a5,a4
.L143:
.LVL225:
.LBB508:
.LBB509:
	.loc 1 302 2 is_stmt 1
	.loc 1 302 10 is_stmt 0
	lw	a4,44(s0)
	.loc 1 302 22
	lw	a3,32(s0)
	.loc 1 302 16
	sub	a2,a4,a3
	.loc 1 302 5
	bgeu	a5,a2,.L144
	.loc 1 305 3 is_stmt 1
	.loc 1 305 27 is_stmt 0
	add	a4,a5,a3
.L144:
	sw	a4,40(s0)
.LVL226:
.LBE509:
.LBE508:
	.loc 1 1075 4 is_stmt 1
.LBB510:
.LBB504:
	.loc 1 848 2
	.loc 1 849 2
	.loc 1 851 2
	.loc 1 852 2
	.loc 1 852 13 is_stmt 0
	lw	a0,-288(s3)
	lw	a5,72(s0)
	.loc 1 852 5
	bne	a0,zero,.L145
	.loc 1 852 23
	bne	a5,zero,.L146
.L145:
	.loc 1 853 7
	li	a4,42
	sub	a4,a4,a0
	.loc 1 854 33
	sub	a5,a5,a0
	.loc 1 851 27
	lw	a3,4(s1)
	.loc 1 853 3 is_stmt 1
.LVL227:
	.loc 1 854 3
	bleu	a5,a4,.L147
	mv	a5,a4
.L147:
.LVL228:
	.loc 1 856 3
	.loc 1 851 11 is_stmt 0
	lw	s2,8(s1)
	sub	s2,s2,a3
	bleu	s2,a5,.L148
	mv	s2,a5
.L148:
.LVL229:
	.loc 1 859 3 is_stmt 1
	.loc 1 859 44 is_stmt 0
	lw	a1,0(s1)
	.loc 1 859 3
	mv	a2,s2
	add	a0,s4,a0
	add	a1,a1,a3
	call	memcpy
.LVL230:
	.loc 1 861 3 is_stmt 1
	.loc 1 861 20 is_stmt 0
	lw	a0,-288(s3)
	.loc 1 861 6
	lw	a5,72(s0)
	.loc 1 861 20
	add	a0,s2,a0
	.loc 1 861 6
	bne	a0,a5,.L149
	.loc 1 862 4 is_stmt 1
	li	a2,63
	sub	a2,a2,a0
	li	a1,0
	add	a0,s4,a0
	call	memset
.LVL231:
	.loc 1 865 4
	.loc 1 865 34 is_stmt 0
	lw	a5,-288(s3)
	add	a5,a5,s2
	.loc 1 865 19
	sw	a5,20(s0)
.L150:
	.loc 1 874 3 is_stmt 1
	.loc 1 874 12 is_stmt 0
	sw	s4,12(s0)
	.loc 1 875 3 is_stmt 1
	.loc 1 875 16 is_stmt 0
	sw	zero,16(s0)
	.loc 1 877 3 is_stmt 1
	.loc 1 877 8 is_stmt 0
	mv	a0,s0
	call	lzma_main
.LVL232:
	.loc 1 877 6
	beq	a0,zero,.L131
	.loc 1 877 46
	lw	a2,-288(s3)
	.loc 1 877 29
	lw	a1,16(s0)
	.loc 1 877 52
	add	s2,a2,s2
.LVL233:
	.loc 1 877 21
	bgtu	a1,s2,.L131
	.loc 1 880 3 is_stmt 1
	.loc 1 880 23 is_stmt 0
	lw	a5,72(s0)
	sub	a5,a5,a1
	sw	a5,72(s0)
	.loc 1 882 3 is_stmt 1
	.loc 1 882 6 is_stmt 0
	bgeu	a1,a2,.L153
	.loc 1 883 4 is_stmt 1
	.loc 1 883 17 is_stmt 0
	sub	a2,a2,a1
	sw	a2,-288(s3)
	.loc 1 884 4 is_stmt 1
	add	a1,s4,a1
	mv	a0,s4
	call	memmove
.LVL234:
	.loc 1 886 4
.L152:
.LBE504:
.LBE510:
	.loc 1 1078 4
.LBB511:
.LBB512:
	.loc 1 418 2
	.loc 1 418 25 is_stmt 0
	lw	s7,32(s0)
	.loc 1 418 37
	lw	s2,28(s0)
	.loc 1 420 5
	lbu	a5,60(s0)
	.loc 1 418 9
	sub	s8,s7,s2
.LVL235:
	.loc 1 420 2 is_stmt 1
	.loc 1 420 5 is_stmt 0
	beq	a5,zero,.L158
	.loc 1 421 3 is_stmt 1
	.loc 1 421 6 is_stmt 0
	lw	a5,44(s0)
	bne	s7,a5,.L159
	.loc 1 422 4 is_stmt 1
	.loc 1 422 14 is_stmt 0
	sw	zero,32(s0)
.L159:
	.loc 1 424 3 is_stmt 1
	.loc 1 424 41 is_stmt 0
	lw	a1,24(s0)
	.loc 1 424 17
	lw	a0,12(s1)
	lw	a5,16(s1)
	.loc 1 424 3
	mv	a2,s8
	add	a1,a1,s2
	add	a0,a0,a5
	call	memcpy
.LVL236:
.L158:
	.loc 1 428 2 is_stmt 1
	.loc 1 428 14 is_stmt 0
	lw	a5,32(s0)
	sw	a5,28(s0)
	.loc 1 429 2 is_stmt 1
	.loc 1 429 13 is_stmt 0
	lw	a2,16(s1)
	add	a2,a2,s8
	sw	a2,16(s1)
	.loc 1 430 2 is_stmt 1
.LVL237:
.LBE512:
.LBE511:
	.loc 1 1078 26 is_stmt 0
	lw	a5,68(s0)
	add	s2,s2,a5
	sub	s2,s2,s7
	sw	s2,68(s0)
	.loc 1 1080 4 is_stmt 1
	.loc 1 1080 7 is_stmt 0
	bne	s2,zero,.L160
	.loc 1 1081 5 is_stmt 1
	.loc 1 1081 8 is_stmt 0
	lw	a5,72(s0)
	bne	a5,zero,.L131
	.loc 1 1081 33 discriminator 1
	lw	a5,100(s0)
	bne	a5,zero,.L131
.LVL238:
	.loc 1 474 2 is_stmt 1
	.loc 1 1082 7 is_stmt 0
	lw	a5,4(s0)
	bne	a5,zero,.L131
	.loc 1 1085 5 is_stmt 1
.LVL239:
.LBB513:
.LBB514:
	.loc 1 440 2
	.loc 1 440 12 is_stmt 0
	li	a5,-1
	sw	a5,0(s0)
	.loc 1 441 2 is_stmt 1
	.loc 1 442 2
	.loc 1 442 22 is_stmt 0
	li	a5,5
	sw	a5,8(s0)
.LVL240:
.LBE514:
.LBE513:
	.loc 1 1086 5 is_stmt 1
.L168:
	.loc 1 1099 4
	.loc 1 1102 4
	.loc 1 1102 22 is_stmt 0
	sb	zero,64(s0)
	.loc 1 1103 4 is_stmt 1
	j	.L111
.L170:
	.loc 1 937 3
	bgtu	a4,a2,.L112
	slli	a4,a4,2
	add	a4,a4,s6
	lw	a4,0(a4)
	jr	a4
	.section	.rodata.xz_dec_lzma2_run,"a",@progbits
	.align	2
	.align	2
.L114:
	.word	.L122
	.word	.L121
	.word	.L120
	.word	.L119
	.word	.L118
	.word	.L117
	.word	.L116
	.word	.L115
	.word	.L113
	.section	.text.xz_dec_lzma2_run
.L122:
	.loc 1 970 4
	.loc 1 970 11 is_stmt 0
	lw	a4,0(s1)
	.loc 1 970 25
	addi	a3,a5,1
	sw	a3,4(s1)
	.loc 1 970 15
	add	a5,a4,a5
	.loc 1 970 8
	lbu	a5,0(a5)
.LVL241:
	.loc 1 972 4 is_stmt 1
	.loc 1 972 7 is_stmt 0
	beq	a5,zero,.L171
	.loc 1 975 4 is_stmt 1
	.loc 1 975 7 is_stmt 0
	li	a4,223
	bgtu	a5,a4,.L124
	.loc 1 975 20 discriminator 1
	li	a4,1
	bne	a5,a4,.L125
.L124:
	.loc 1 976 5 is_stmt 1
	.loc 1 977 5
	.loc 1 977 30 is_stmt 0
	li	a4,256
	sh	a4,76(s0)
	.loc 1 978 5 is_stmt 1
.LVL242:
.LBB515:
.LBB516:
	.loc 1 288 2
	.loc 1 288 5 is_stmt 0
	lbu	a4,60(s0)
	bne	a4,zero,.L126
	.loc 1 289 3 is_stmt 1
	.loc 1 289 22 is_stmt 0
	lw	a3,16(s1)
	lw	a4,12(s1)
	add	a4,a4,a3
	.loc 1 289 13
	sw	a4,24(s0)
	.loc 1 290 3 is_stmt 1
	.loc 1 290 27 is_stmt 0
	lw	a4,20(s1)
	lw	a3,16(s1)
	sub	a4,a4,a3
	.loc 1 290 13
	sw	a4,44(s0)
.L126:
	.loc 1 293 2 is_stmt 1
	.loc 1 293 14 is_stmt 0
	sw	zero,28(s0)
	.loc 1 294 2 is_stmt 1
	.loc 1 294 12 is_stmt 0
	sw	zero,32(s0)
	.loc 1 295 2 is_stmt 1
	.loc 1 295 14 is_stmt 0
	sw	zero,40(s0)
	.loc 1 296 2 is_stmt 1
	.loc 1 296 13 is_stmt 0
	sw	zero,36(s0)
.LVL243:
.L127:
.LBE516:
.LBE515:
	.loc 1 983 4 is_stmt 1
	.loc 1 983 7 is_stmt 0
	li	a4,127
	bleu	a5,a4,.L128
	.loc 1 984 5 is_stmt 1
	.loc 1 984 42 is_stmt 0
	slli	a4,a5,16
	li	a3,2031616
	and	a4,a4,a3
	.loc 1 984 27
	sw	a4,68(s0)
	.loc 1 985 5 is_stmt 1
	.loc 1 985 23 is_stmt 0
	li	a4,1
	sb	a4,64(s0)
	.loc 1 987 5 is_stmt 1
	.loc 1 987 8 is_stmt 0
	li	a4,191
	bleu	a5,a4,.L129
	.loc 1 993 6 is_stmt 1
	.loc 1 995 8 is_stmt 0
	li	a5,5
.LVL244:
	.loc 1 993 26
	sb	zero,77(s0)
	.loc 1 994 6 is_stmt 1
	.loc 1 995 8 is_stmt 0
	sb	a5,65(s0)
	j	.L111
.LVL245:
.L125:
	.loc 1 979 11 is_stmt 1
	.loc 1 979 14 is_stmt 0
	lbu	a4,76(s0)
	beq	a4,zero,.L127
.LVL246:
.L131:
	.loc 1 980 12
	li	a0,7
.L191:
	.loc 1 1110 1
	lw	ra,44(sp)
	.cfi_remember_state
	.cfi_restore 1
	lw	s0,40(sp)
	.cfi_restore 8
.LVL247:
	lw	s1,36(sp)
	.cfi_restore 9
.LVL248:
	lw	s2,32(sp)
	.cfi_restore 18
	lw	s3,28(sp)
	.cfi_restore 19
	lw	s4,24(sp)
	.cfi_restore 20
	lw	s5,20(sp)
	.cfi_restore 21
.LVL249:
	lw	s6,16(sp)
	.cfi_restore 22
	lw	s7,12(sp)
	.cfi_restore 23
	lw	s8,8(sp)
	.cfi_restore 24
	addi	sp,sp,48
	.cfi_def_cfa_offset 0
	jr	ra
.LVL250:
.L129:
	.cfi_restore_state
	.loc 1 997 12 is_stmt 1
	.loc 1 997 15 is_stmt 0
	lbu	a4,77(s0)
	bne	a4,zero,.L131
	.loc 1 1001 6 is_stmt 1
	.loc 1 1002 8 is_stmt 0
	li	a4,6
	sb	a4,65(s0)
	.loc 1 1003 6 is_stmt 1
	.loc 1 1003 9 is_stmt 0
	li	a4,159
	bleu	a5,a4,.L111
	.loc 1 1004 7 is_stmt 1
.LVL251:
.LBB517:
.LBB518:
	.loc 1 769 2
	.loc 1 770 2
	.loc 1 772 2
	.loc 1 772 16 is_stmt 0
	sb	zero,96(s0)
	.loc 1 773 2 is_stmt 1
	.loc 1 773 15 is_stmt 0
	sw	zero,80(s0)
	.loc 1 774 2 is_stmt 1
	.loc 1 774 15 is_stmt 0
	sw	zero,84(s0)
	.loc 1 775 2 is_stmt 1
	.loc 1 775 15 is_stmt 0
	sw	zero,88(s0)
	.loc 1 776 2 is_stmt 1
	.loc 1 776 15 is_stmt 0
	sw	zero,92(s0)
	.loc 1 787 2 is_stmt 1
.LVL252:
	.loc 1 788 2
	addi	a5,s0,116
.LVL253:
	.loc 1 789 12 is_stmt 0
	li	a4,1024
.LVL254:
.L133:
	.loc 1 789 3 is_stmt 1
	.loc 1 789 12 is_stmt 0
	sh	a4,0(a5)
	addi	a5,a5,2
	.loc 1 788 2
	bne	s5,a5,.L133
	.loc 1 791 2 is_stmt 1
.LVL255:
.LBB519:
.LBB520:
	.loc 1 440 2
	.loc 1 440 12 is_stmt 0
	li	a5,-1
	sw	a5,0(s0)
	.loc 1 441 2 is_stmt 1
	.loc 1 442 22 is_stmt 0
	li	a5,5
	.loc 1 441 11
	sw	zero,4(s0)
	.loc 1 442 2 is_stmt 1
	.loc 1 442 22 is_stmt 0
	sw	a5,8(s0)
.LVL256:
	j	.L111
.LVL257:
.L128:
.LBE520:
.LBE519:
.LBE518:
.LBE517:
	.loc 1 1007 5 is_stmt 1
	.loc 1 1007 8 is_stmt 0
	li	a4,2
	bgtu	a5,a4,.L131
	.loc 1 1010 5 is_stmt 1
	.loc 1 1011 5
	.loc 1 1010 23 is_stmt 0
	li	a5,4096
.LVL258:
	addi	a5,a5,-2045
	sh	a5,64(s0)
	j	.L111
.L121:
	.loc 1 1017 4 is_stmt 1
	.loc 1 1018 20 is_stmt 0
	lw	a4,0(s1)
	.loc 1 1018 34
	addi	a3,a5,1
	sw	a3,4(s1)
	.loc 1 1018 24
	add	a5,a4,a5
	.loc 1 1018 9
	lbu	a5,0(a5)
	.loc 1 1018 38
	slli	a4,a5,8
	.loc 1 1018 6
	lw	a5,68(s0)
	add	a5,a5,a4
	sw	a5,68(s0)
	.loc 1 1019 4 is_stmt 1
	.loc 1 1019 22 is_stmt 0
	li	a5,2
.L195:
	.loc 1 1025 22
	sb	a5,64(s0)
	.loc 1 1026 4 is_stmt 1
	j	.L111
.L120:
	.loc 1 1023 4
	.loc 1 1024 20 is_stmt 0
	lw	a4,0(s1)
	.loc 1 1024 34
	addi	a3,a5,1
	sw	a3,4(s1)
	.loc 1 1024 24
	add	a5,a4,a5
	.loc 1 1024 6
	lw	a4,68(s0)
	.loc 1 1024 9
	lbu	a5,0(a5)
	.loc 1 1024 6
	addi	a4,a4,1
	add	a5,a5,a4
	sw	a5,68(s0)
	.loc 1 1025 4 is_stmt 1
	.loc 1 1025 22 is_stmt 0
	li	a5,3
	j	.L195
.L119:
	.loc 1 1029 4 is_stmt 1
	.loc 1 1030 19 is_stmt 0
	lw	a4,0(s1)
	.loc 1 1030 33
	addi	a3,a5,1
	sw	a3,4(s1)
	.loc 1 1030 23
	add	a5,a4,a5
	.loc 1 1030 8
	lbu	a5,0(a5)
	.loc 1 1030 37
	slli	a5,a5,8
	.loc 1 1030 6
	sw	a5,72(s0)
	.loc 1 1031 4 is_stmt 1
	.loc 1 1031 22 is_stmt 0
	li	a5,4
	j	.L195
.L118:
	.loc 1 1035 4 is_stmt 1
	.loc 1 1036 20 is_stmt 0
	lw	a4,0(s1)
	.loc 1 1036 34
	addi	a3,a5,1
	sw	a3,4(s1)
	.loc 1 1036 24
	add	a5,a4,a5
	.loc 1 1036 6
	lw	a4,72(s0)
	.loc 1 1036 9
	lbu	a5,0(a5)
	.loc 1 1036 6
	addi	a4,a4,1
	add	a5,a5,a4
	sw	a5,72(s0)
	.loc 1 1037 4 is_stmt 1
	.loc 1 1037 22 is_stmt 0
	lbu	a5,65(s0)
	j	.L195
.L117:
	.loc 1 1041 4 is_stmt 1
	.loc 1 1041 24 is_stmt 0
	lw	a4,0(s1)
	.loc 1 1041 38
	addi	a3,a5,1
	sw	a3,4(s1)
	.loc 1 1041 9
	add	a5,a4,a5
	lbu	a5,0(a5)
.LVL259:
.LBB521:
.LBB522:
	.loc 1 801 2 is_stmt 1
	.loc 1 801 5 is_stmt 0
	li	a4,224
	bgtu	a5,a4,.L131
	.loc 1 804 2 is_stmt 1
	.loc 1 804 19 is_stmt 0
	sw	zero,112(s0)
	.loc 1 805 2 is_stmt 1
	.loc 1 805 8 is_stmt 0
	li	a2,44
.L134:
	lw	a3,112(s0)
	bgtu	a5,a2,.L135
	.loc 1 810 2 is_stmt 1
	.loc 1 810 24 is_stmt 0
	li	a4,1
	sll	a4,a4,a3
	.loc 1 810 45
	addi	a4,a4,-1
	.loc 1 810 19
	sw	a4,112(s0)
	.loc 1 812 2 is_stmt 1
	.loc 1 812 27 is_stmt 0
	sw	zero,108(s0)
	.loc 1 813 2 is_stmt 1
	.loc 1 813 8 is_stmt 0
	li	a3,8
.L136:
	lw	a4,108(s0)
	bgtu	a5,a3,.L137
	.loc 1 818 2 is_stmt 1
	.loc 1 818 13 is_stmt 0
	sw	a5,104(s0)
	.loc 1 820 2 is_stmt 1
	.loc 1 820 5 is_stmt 0
	li	a3,4
	.loc 1 820 17
	add	a5,a5,a4
.LVL260:
	.loc 1 820 5
	bgtu	a5,a3,.L131
	.loc 1 823 2 is_stmt 1
	.loc 1 823 32 is_stmt 0
	li	a5,1
	sll	a5,a5,a4
	.loc 1 823 61
	addi	a5,a5,-1
	.loc 1 823 27
	sw	a5,108(s0)
	.loc 1 825 2 is_stmt 1
.LVL261:
.LBB523:
.LBB524:
	.loc 1 769 2
	.loc 1 770 2
	.loc 1 772 2
	.loc 1 772 16 is_stmt 0
	sb	zero,96(s0)
	.loc 1 773 2 is_stmt 1
	.loc 1 773 15 is_stmt 0
	sw	zero,80(s0)
	.loc 1 774 2 is_stmt 1
	.loc 1 774 15 is_stmt 0
	sw	zero,84(s0)
	.loc 1 775 2 is_stmt 1
	.loc 1 775 15 is_stmt 0
	sw	zero,88(s0)
	.loc 1 776 2 is_stmt 1
	.loc 1 776 15 is_stmt 0
	sw	zero,92(s0)
	.loc 1 787 2 is_stmt 1
.LVL262:
	.loc 1 788 2
	addi	a5,s0,116
.LVL263:
	.loc 1 789 12 is_stmt 0
	li	a4,1024
.LVL264:
.L138:
	.loc 1 789 3 is_stmt 1
	.loc 1 789 12 is_stmt 0
	sh	a4,0(a5)
	addi	a5,a5,2
	.loc 1 788 2
	bne	s5,a5,.L138
	.loc 1 791 2 is_stmt 1
.LVL265:
.LBB525:
.LBB526:
	.loc 1 440 2
	.loc 1 440 12 is_stmt 0
	li	a5,-1
	sw	a5,0(s0)
	.loc 1 441 2 is_stmt 1
	.loc 1 442 22 is_stmt 0
	li	a5,5
	sw	a5,8(s0)
.LBE526:
.LBE525:
.LBE524:
.LBE523:
.LBE522:
.LBE521:
	.loc 1 1044 22
	li	a5,6
.LBB533:
.LBB531:
.LBB530:
.LBB529:
.LBB528:
.LBB527:
	.loc 1 441 11
	sw	zero,4(s0)
	.loc 1 442 2 is_stmt 1
.LVL266:
.LBE527:
.LBE528:
.LBE529:
.LBE530:
.LBE531:
.LBE533:
	.loc 1 1044 4
	.loc 1 1044 22 is_stmt 0
	sb	a5,64(s0)
.LVL267:
.L116:
	.loc 1 1047 9 is_stmt 1
	.loc 1 1050 4
	.loc 1 1050 7 is_stmt 0
	lw	a4,72(s0)
	li	a5,4
	bleu	a4,a5,.L131
.L139:
.LBB534:
.LBB535:
	.loc 1 451 8
	lw	a5,8(s0)
	bne	a5,zero,.L141
.LBE535:
.LBE534:
	.loc 1 1056 4 is_stmt 1
	.loc 1 1056 24 is_stmt 0
	lw	a5,72(s0)
	addi	a5,a5,-5
	sw	a5,72(s0)
	.loc 1 1057 4 is_stmt 1
	.loc 1 1057 22 is_stmt 0
	li	a5,7
	sb	a5,64(s0)
	j	.L115
.LVL268:
.L135:
.LBB538:
.LBB532:
	.loc 1 806 3 is_stmt 1
	.loc 1 806 9 is_stmt 0
	addi	a5,a5,-45
.LVL269:
	.loc 1 807 3
	addi	a4,a3,1
	.loc 1 806 9
	andi	a5,a5,0xff
.LVL270:
	.loc 1 807 3 is_stmt 1
	sw	a4,112(s0)
	j	.L134
.L137:
	.loc 1 814 3
	.loc 1 814 9 is_stmt 0
	addi	a5,a5,-9
.LVL271:
	.loc 1 815 3
	addi	a4,a4,1
	.loc 1 814 9
	andi	a5,a5,0xff
.LVL272:
	.loc 1 815 3 is_stmt 1
	sw	a4,108(s0)
	j	.L136
.LVL273:
.L141:
.LBE532:
.LBE538:
.LBB539:
.LBB536:
	.loc 1 452 3
	.loc 1 452 8 is_stmt 0
	lw	a3,4(s1)
	.loc 1 452 6
	lw	a5,8(s1)
	bne	a3,a5,.L140
.L161:
.LBE536:
.LBE539:
	.loc 1 1054 12
	li	a0,0
	j	.L191
.L140:
.LBB540:
.LBB537:
	.loc 1 455 3 is_stmt 1
	.loc 1 455 24 is_stmt 0
	lw	a5,4(s0)
	.loc 1 455 47
	addi	a2,a3,1
	sw	a2,4(s1)
	.loc 1 455 24
	slli	a4,a5,8
	.loc 1 455 33
	lw	a5,0(s1)
	.loc 1 455 37
	add	a5,a5,a3
	lbu	a5,0(a5)
	.loc 1 455 30
	add	a5,a5,a4
	.loc 1 455 12
	sw	a5,4(s0)
	.loc 1 456 3 is_stmt 1
	lw	a5,8(s0)
	addi	a5,a5,-1
	sw	a5,8(s0)
	j	.L139
.LVL274:
.L149:
.LBE537:
.LBE540:
.LBB541:
.LBB505:
	.loc 1 866 10
	.loc 1 866 13 is_stmt 0
	li	a5,20
	bgtu	a0,a5,.L151
	.loc 1 867 4 is_stmt 1
	.loc 1 867 17 is_stmt 0
	sw	a0,-288(s3)
	.loc 1 868 4 is_stmt 1
.LVL275:
.L194:
	.loc 1 921 3
	.loc 1 921 13 is_stmt 0
	lw	a5,4(s1)
	add	s2,a5,s2
	sw	s2,4(s1)
.LVL276:
	j	.L152
.LVL277:
.L151:
	.loc 1 871 4 is_stmt 1
	.loc 1 871 40 is_stmt 0
	addi	a0,a0,-21
	.loc 1 871 19
	sw	a0,20(s0)
	j	.L150
.LVL278:
.L153:
	.loc 1 889 3 is_stmt 1
	.loc 1 889 13 is_stmt 0
	lw	a5,4(s1)
	sub	a2,a5,a2
	add	a2,a2,a1
	sw	a2,4(s1)
	.loc 1 890 3 is_stmt 1
	.loc 1 890 16 is_stmt 0
	sw	zero,-288(s3)
.L146:
	.loc 1 893 2 is_stmt 1
	.loc 1 893 11 is_stmt 0
	lw	a5,4(s1)
	lw	a4,8(s1)
	sub	a4,a4,a5
.LVL279:
	.loc 1 894 2 is_stmt 1
	.loc 1 894 5 is_stmt 0
	li	a5,20
	bleu	a4,a5,.L154
	.loc 1 895 3 is_stmt 1
	.loc 1 895 15 is_stmt 0
	lw	a5,0(s1)
	.loc 1 898 27
	lw	a3,72(s0)
	.loc 1 895 12
	sw	a5,12(s0)
	.loc 1 896 3 is_stmt 1
	.loc 1 896 19 is_stmt 0
	lw	a5,4(s1)
	.loc 1 898 39
	addi	a2,a3,21
	.loc 1 896 16
	sw	a5,16(s0)
	.loc 1 898 3 is_stmt 1
	.loc 1 899 31 is_stmt 0
	add	a5,a5,a3
	.loc 1 898 6
	bgeu	a4,a2,.L156
	.loc 1 901 4 is_stmt 1
	.loc 1 901 32 is_stmt 0
	lw	a5,8(s1)
	addi	a5,a5,-21
.L156:
	sw	a5,20(s0)
	.loc 1 903 3 is_stmt 1
	.loc 1 903 8 is_stmt 0
	mv	a0,s0
	call	lzma_main
.LVL280:
	.loc 1 903 6
	beq	a0,zero,.L131
	.loc 1 906 3 is_stmt 1
	.loc 1 906 19 is_stmt 0
	lw	a4,16(s0)
	.loc 1 906 30
	lw	a5,4(s1)
.LVL281:
	.loc 1 907 3 is_stmt 1
	.loc 1 907 26 is_stmt 0
	lw	a3,72(s0)
	.loc 1 906 12
	sub	a2,a4,a5
.LVL282:
	.loc 1 907 6
	bgtu	a2,a3,.L131
	.loc 1 910 3 is_stmt 1
	.loc 1 910 23 is_stmt 0
	sub	a5,a5,a4
	add	a5,a5,a3
	sw	a5,72(s0)
	.loc 1 911 3 is_stmt 1
	.loc 1 911 13 is_stmt 0
	sw	a4,4(s1)
.LVL283:
.L154:
	.loc 1 914 2 is_stmt 1
	.loc 1 914 27 is_stmt 0
	lw	a4,4(s1)
	.loc 1 914 11
	lw	a5,8(s1)
	.loc 1 915 5
	li	a3,20
	.loc 1 914 11
	sub	a5,a5,a4
.LVL284:
	.loc 1 915 2 is_stmt 1
	.loc 1 915 5 is_stmt 0
	bgtu	a5,a3,.L152
	.loc 1 916 3 is_stmt 1
	lw	s2,72(s0)
	bleu	s2,a5,.L157
	mv	s2,a5
.L157:
.LVL285:
	.loc 1 919 3
	.loc 1 919 29 is_stmt 0
	lw	a1,0(s1)
	.loc 1 919 3
	mv	a2,s2
	mv	a0,s4
	add	a1,a1,a4
	call	memcpy
.LVL286:
	.loc 1 920 3 is_stmt 1
	.loc 1 920 16 is_stmt 0
	sw	s2,-288(s3)
	j	.L194
.LVL287:
.L160:
.LBE505:
.LBE541:
	.loc 1 1088 11 is_stmt 1
	.loc 1 1088 14 is_stmt 0
	lw	a4,16(s1)
	lw	a5,20(s1)
	beq	a4,a5,.L161
	.loc 1 1089 6
	lw	a4,4(s1)
	lw	a5,8(s1)
	bne	a4,a5,.L111
	.loc 1 1090 7
	lw	a4,-288(s3)
	lw	a5,72(s0)
	bgeu	a4,a5,.L111
	j	.L161
.L169:
.LBB542:
.LBB543:
	.loc 1 381 3 is_stmt 1
.LVL288:
	.loc 1 383 3
	.loc 1 383 35 is_stmt 0
	lw	a0,32(s0)
.LVL289:
	.loc 1 385 3 is_stmt 1
	.loc 1 383 29 is_stmt 0
	lw	s2,44(s0)
	sub	s2,s2,a0
.LVL290:
	bleu	s2,a5,.L162
	mv	s2,a5
.LVL291:
.L162:
	.loc 1 381 56
	sub	a4,a4,a2
.LVL292:
	bleu	s2,a4,.L163
	mv	s2,a4
.L163:
	.loc 1 381 28
	sub	a3,a3,a1
.LVL293:
	bleu	s2,a3,.L164
	mv	s2,a3
.L164:
.LVL294:
	.loc 1 388 3 is_stmt 1
	.loc 1 388 9 is_stmt 0
	sub	a5,a5,s2
	sw	a5,72(s0)
	.loc 1 390 3 is_stmt 1
	.loc 1 390 39 is_stmt 0
	lw	a4,4(s1)
	.loc 1 390 20
	lw	a5,24(s0)
	.loc 1 390 39
	lw	a1,0(s1)
	.loc 1 390 3
	mv	a2,s2
	add	a0,a5,a0
	add	a1,a1,a4
	call	memcpy
.LVL295:
	.loc 1 391 3 is_stmt 1
	.loc 1 391 13 is_stmt 0
	lw	a5,32(s0)
	.loc 1 393 6
	lw	a4,36(s0)
	.loc 1 391 13
	add	a5,s2,a5
	sw	a5,32(s0)
	.loc 1 393 3 is_stmt 1
	.loc 1 393 6 is_stmt 0
	bleu	a5,a4,.L165
	.loc 1 394 4 is_stmt 1
	.loc 1 394 15 is_stmt 0
	sw	a5,36(s0)
.L165:
	.loc 1 396 3 is_stmt 1
	.loc 1 396 6 is_stmt 0
	lbu	a4,60(s0)
	beq	a4,zero,.L166
	.loc 1 397 4 is_stmt 1
	.loc 1 397 7 is_stmt 0
	lw	a4,44(s0)
	bne	a5,a4,.L167
	.loc 1 398 5 is_stmt 1
	.loc 1 398 15 is_stmt 0
	sw	zero,32(s0)
.L167:
	.loc 1 400 4 is_stmt 1
	.loc 1 400 38 is_stmt 0
	lw	a1,0(s1)
	lw	a4,4(s1)
	.loc 1 400 18
	lw	a0,12(s1)
	lw	a5,16(s1)
	.loc 1 400 4
	mv	a2,s2
	add	a1,a1,a4
	add	a0,a0,a5
	call	memcpy
.LVL296:
.L166:
	.loc 1 404 3 is_stmt 1
	.loc 1 404 15 is_stmt 0
	lw	a5,32(s0)
	sw	a5,28(s0)
	.loc 1 406 3 is_stmt 1
	.loc 1 406 14 is_stmt 0
	lw	a5,16(s1)
	add	a5,a5,s2
	sw	a5,16(s1)
	.loc 1 407 3 is_stmt 1
	.loc 1 407 13 is_stmt 0
	lw	a5,4(s1)
	add	s2,a5,s2
.LVL297:
	sw	s2,4(s1)
.L113:
	.loc 1 379 9
	lw	a5,72(s0)
	.loc 1 379 8
	beq	a5,zero,.L168
	.loc 1 379 23
	lw	a1,4(s1)
	.loc 1 379 35
	lw	a3,8(s1)
	.loc 1 379 19
	bleu	a3,a1,.L161
	.loc 1 380 8
	lw	a2,16(s1)
	.loc 1 380 21
	lw	a4,20(s1)
	.loc 1 380 4
	bgtu	a4,a2,.L169
	j	.L161
.LVL298:
.L171:
.LBE543:
.LBE542:
	.loc 1 973 12
	li	a0,1
	j	.L191
	.cfi_endproc
.LFE37:
	.size	xz_dec_lzma2_run, .-xz_dec_lzma2_run
	.section	.text.xz_dec_lzma2_create,"ax",@progbits
	.align	1
	.globl	xz_dec_lzma2_create
	.type	xz_dec_lzma2_create, @function
xz_dec_lzma2_create:
.LFB38:
	.loc 1 1114 1 is_stmt 1
	.cfi_startproc
.LVL299:
	.loc 1 1115 2
	.loc 1 1114 1 is_stmt 0
	addi	sp,sp,-32
	.cfi_def_cfa_offset 32
	sw	s1,20(sp)
	.cfi_offset 9, -12
	mv	s1,a0
	.loc 1 1115 27
	li	a0,28672
.LVL300:
	addi	a0,a0,-220
	.loc 1 1114 1
	sw	s0,24(sp)
	sw	ra,28(sp)
	.cfi_offset 8, -8
	.cfi_offset 1, -4
	.loc 1 1114 1
	sw	a1,12(sp)
	.loc 1 1115 27
	call	simple_malloc
.LVL301:
	mv	s0,a0
.LVL302:
	.loc 1 1116 2 is_stmt 1
	.loc 1 1116 5 is_stmt 0
	beq	a0,zero,.L196
	.loc 1 1119 2 is_stmt 1
	.loc 1 1120 19 is_stmt 0
	lw	a1,12(sp)
	.loc 1 1119 15
	sb	s1,60(a0)
	.loc 1 1120 2 is_stmt 1
	.loc 1 1122 5 is_stmt 0
	li	a5,1
	.loc 1 1120 19
	sw	a1,52(a0)
	.loc 1 1122 2 is_stmt 1
	.loc 1 1122 5 is_stmt 0
	bne	s1,a5,.L198
	.loc 1 1123 3 is_stmt 1
	.loc 1 1123 17 is_stmt 0
	mv	a0,a1
	call	simple_malloc
.LVL303:
	.loc 1 1123 15
	sw	a0,24(s0)
	.loc 1 1124 3 is_stmt 1
	.loc 1 1124 6 is_stmt 0
	bne	a0,zero,.L196
	.loc 1 1125 4 is_stmt 1
	mv	a0,s0
	call	simple_free
.LVL304:
	.loc 1 1126 4
	.loc 1 1126 10 is_stmt 0
	li	s0,0
.LVL305:
.L196:
	.loc 1 1134 1
	mv	a0,s0
	lw	ra,28(sp)
	.cfi_remember_state
	.cfi_restore 1
	lw	s0,24(sp)
	.cfi_restore 8
	lw	s1,20(sp)
	.cfi_restore 9
	addi	sp,sp,32
	.cfi_def_cfa_offset 0
.LVL306:
	jr	ra
.LVL307:
.L198:
	.cfi_restore_state
	.loc 1 1128 9 is_stmt 1
	.loc 1 1128 12 is_stmt 0
	li	a5,2
	bne	s1,a5,.L196
	.loc 1 1129 3 is_stmt 1
	.loc 1 1129 15 is_stmt 0
	sw	zero,24(a0)
	.loc 1 1130 3 is_stmt 1
	.loc 1 1130 21 is_stmt 0
	sw	zero,56(a0)
	j	.L196
	.cfi_endproc
.LFE38:
	.size	xz_dec_lzma2_create, .-xz_dec_lzma2_create
	.section	.text.xz_dec_lzma2_reset,"ax",@progbits
	.align	1
	.globl	xz_dec_lzma2_reset
	.type	xz_dec_lzma2_reset, @function
xz_dec_lzma2_reset:
.LFB39:
	.loc 1 1137 1 is_stmt 1
	.cfi_startproc
.LVL308:
	.loc 1 1139 2
	.loc 1 1139 5 is_stmt 0
	li	a5,39
	bgtu	a1,a5,.L206
	.loc 1 1137 1
	addi	sp,sp,-16
	.cfi_def_cfa_offset 16
	.loc 1 1142 28
	andi	a5,a1,1
	.loc 1 1143 26
	srli	a1,a1,1
.LVL309:
	.loc 1 1137 1
	sw	s0,8(sp)
	sw	ra,12(sp)
	.cfi_offset 8, -8
	.cfi_offset 1, -4
	.loc 1 1142 19
	addi	a5,a5,2
	.loc 1 1143 32
	addi	a1,a1,11
	.loc 1 1143 15
	sll	a1,a5,a1
	.loc 1 1145 15
	lbu	a5,60(a0)
	.loc 1 1143 15
	sw	a1,48(a0)
	mv	s0,a0
	.loc 1 1142 2 is_stmt 1
	.loc 1 1143 2
	.loc 1 1145 2
	.loc 1 1145 5 is_stmt 0
	beq	a5,zero,.L205
	.loc 1 1146 3 is_stmt 1
	.loc 1 1146 6 is_stmt 0
	lw	a4,52(a0)
	.loc 1 1147 11
	li	a0,4
.LVL310:
	.loc 1 1146 6
	bgtu	a1,a4,.L204
	.loc 1 1149 3 is_stmt 1
	.loc 1 1149 15 is_stmt 0
	sw	a1,44(s0)
	.loc 1 1151 3 is_stmt 1
	.loc 1 1151 6 is_stmt 0
	li	a4,2
	bne	a5,a4,.L205
	.loc 1 1152 4 is_stmt 1
	.loc 1 1152 7 is_stmt 0
	lw	a5,56(s0)
	bleu	a1,a5,.L205
	.loc 1 1153 5 is_stmt 1
	lw	a0,24(s0)
	call	simple_free
.LVL311:
	.loc 1 1154 5
	.loc 1 1154 19 is_stmt 0
	lw	a0,48(s0)
	call	simple_malloc
.LVL312:
	.loc 1 1154 17
	sw	a0,24(s0)
	.loc 1 1155 5 is_stmt 1
	.loc 1 1155 8 is_stmt 0
	bne	a0,zero,.L205
	.loc 1 1156 6 is_stmt 1
	.loc 1 1156 24 is_stmt 0
	sw	zero,56(s0)
	.loc 1 1157 6 is_stmt 1
	.loc 1 1157 13 is_stmt 0
	li	a0,3
.LVL313:
.L204:
	.loc 1 1171 1
	lw	ra,12(sp)
	.cfi_remember_state
	.cfi_restore 1
	lw	s0,8(sp)
	.cfi_restore 8
	addi	sp,sp,16
	.cfi_def_cfa_offset 0
	jr	ra
.LVL314:
.L205:
	.cfi_restore_state
	.loc 1 1163 2 is_stmt 1
	.loc 1 1168 15 is_stmt 0
	li	a0,28672
	.loc 1 1166 27
	li	a5,1
	.loc 1 1163 14
	sw	zero,100(s0)
	.loc 1 1165 2 is_stmt 1
	.loc 1 1165 20 is_stmt 0
	sb	zero,64(s0)
	.loc 1 1166 2 is_stmt 1
	.loc 1 1166 27 is_stmt 0
	sb	a5,76(s0)
	.loc 1 1168 2 is_stmt 1
	.loc 1 1168 15 is_stmt 0
	add	s0,s0,a0
.LVL315:
	sw	zero,-288(s0)
	.loc 1 1170 2 is_stmt 1
	.loc 1 1170 9 is_stmt 0
	li	a0,0
	j	.L204
.LVL316:
.L206:
	.cfi_def_cfa_offset 0
	.cfi_restore 1
	.cfi_restore 8
	.loc 1 1140 10
	li	a0,6
.LVL317:
	.loc 1 1171 1
	ret
	.cfi_endproc
.LFE39:
	.size	xz_dec_lzma2_reset, .-xz_dec_lzma2_reset
	.section	.text.xz_dec_lzma2_end,"ax",@progbits
	.align	1
	.globl	xz_dec_lzma2_end
	.type	xz_dec_lzma2_end, @function
xz_dec_lzma2_end:
.LFB40:
	.loc 1 1174 1 is_stmt 1
	.cfi_startproc
.LVL318:
	.loc 1 1175 2
	.loc 1 1174 1 is_stmt 0
	addi	sp,sp,-16
	.cfi_def_cfa_offset 16
	sw	s0,8(sp)
	sw	ra,12(sp)
	.cfi_offset 8, -8
	.cfi_offset 1, -4
	.loc 1 1175 5
	lbu	a5,60(a0)
	.loc 1 1174 1
	mv	s0,a0
	.loc 1 1175 5
	beq	a5,zero,.L216
	.loc 1 1176 3 is_stmt 1
	lw	a0,24(a0)
.LVL319:
	call	simple_free
.LVL320:
.L216:
	.loc 1 1178 2
	mv	a0,s0
	.loc 1 1179 1 is_stmt 0
	lw	s0,8(sp)
	.cfi_restore 8
.LVL321:
	lw	ra,12(sp)
	.cfi_restore 1
	addi	sp,sp,16
	.cfi_def_cfa_offset 0
	.loc 1 1178 2
	tail	simple_free
.LVL322:
	.cfi_endproc
.LFE40:
	.size	xz_dec_lzma2_end, .-xz_dec_lzma2_end
	.text
.Letext0:
	.file 3 "/b-l/bl_iot_sdk/toolchain/riscv/Linux/lib/gcc/riscv64-unknown-elf/8.3.0/include/stddef.h"
	.file 4 "/b-l/bl_iot_sdk/toolchain/riscv/Linux/riscv64-unknown-elf/include/sys/_types.h"
	.file 5 "/b-l/bl_iot_sdk/toolchain/riscv/Linux/riscv64-unknown-elf/include/sys/reent.h"
	.file 6 "/b-l/bl_iot_sdk/toolchain/riscv/Linux/riscv64-unknown-elf/include/sys/lock.h"
	.file 7 "/b-l/bl_iot_sdk/toolchain/riscv/Linux/riscv64-unknown-elf/include/stdlib.h"
	.file 8 "/b-l/bl_iot_sdk/toolchain/riscv/Linux/lib/gcc/riscv64-unknown-elf/8.3.0/include/stdint-gcc.h"
	.file 9 "/b-l/bl_iot_sdk/components/bl602/bl602_std/bl602_std/Common/xz/xz.h"
	.file 10 "/b-l/bl_iot_sdk/components/bl602/bl602_std/bl602_std/Common/xz/xz_config.h"
	.file 11 "/b-l/bl_iot_sdk/toolchain/riscv/Linux/riscv64-unknown-elf/include/string.h"